ARM GAS  /var/tmp//cc9k5ZAw.s 			page 1


   1              		.cpu cortex-m4
   2              		.eabi_attribute 27, 1
   3              		.eabi_attribute 28, 1
   4              		.eabi_attribute 20, 1
   5              		.eabi_attribute 21, 1
   6              		.eabi_attribute 23, 3
   7              		.eabi_attribute 24, 1
   8              		.eabi_attribute 25, 1
   9              		.eabi_attribute 26, 1
  10              		.eabi_attribute 30, 2
  11              		.eabi_attribute 34, 1
  12              		.eabi_attribute 18, 4
  13              		.file	"app.c"
  14              		.text
  15              	.Ltext0:
  16              		.cfi_sections	.debug_frame
  17              		.section	.text.app_get_configuration,"ax",%progbits
  18              		.align	1
  19              		.p2align 4,,15
  20              		.global	app_get_configuration
  21              		.syntax unified
  22              		.thumb
  23              		.thumb_func
  24              		.fpu fpv4-sp-d16
  25              		.type	app_get_configuration, %function
  26              	app_get_configuration:
  27              	.LFB256:
  28              		.file 1 "applications/app.c"
  29              		.loc 1 30 0
  30              		.cfi_startproc
  31              		@ args = 0, pretend = 0, frame = 0
  32              		@ frame_needed = 0, uses_anonymous_args = 0
  33              		@ link register save eliminated.
  34              		.loc 1 32 0
  35 0000 0048     		ldr	r0, .L2
  36 0002 7047     		bx	lr
  37              	.L3:
  38              		.align	2
  39              	.L2:
  40 0004 00000000 		.word	.LANCHOR0
  41              		.cfi_endproc
  42              	.LFE256:
  43              		.size	app_get_configuration, .-app_get_configuration
  44              		.section	.text.app_set_configuration,"ax",%progbits
  45              		.align	1
  46              		.p2align 4,,15
  47              		.global	app_set_configuration
  48              		.syntax unified
  49              		.thumb
  50              		.thumb_func
  51              		.fpu fpv4-sp-d16
  52              		.type	app_set_configuration, %function
  53              	app_set_configuration:
  54              	.LFB257:
  55              		.loc 1 40 0
  56              		.cfi_startproc
  57              		@ args = 0, pretend = 0, frame = 0
ARM GAS  /var/tmp//cc9k5ZAw.s 			page 2


  58              		@ frame_needed = 0, uses_anonymous_args = 0
  59              	.LVL0:
  60 0000 38B5     		push	{r3, r4, r5, lr}
  61              		.cfi_def_cfa_offset 16
  62              		.cfi_offset 3, -16
  63              		.cfi_offset 4, -12
  64              		.cfi_offset 5, -8
  65              		.cfi_offset 14, -4
  66              		.loc 1 48 0
  67 0002 2C4D     		ldr	r5, .L19
  68              		.loc 1 41 0
  69 0004 0146     		mov	r1, r0
  70 0006 C822     		movs	r2, #200
  71 0008 2B48     		ldr	r0, .L19+4
  72              	.LVL1:
  73 000a FFF7FEFF 		bl	memcpy
  74              	.LVL2:
  75              		.loc 1 43 0
  76 000e FFF7FEFF 		bl	app_ppm_stop
  77              	.LVL3:
  78              		.loc 1 44 0
  79 0012 FFF7FEFF 		bl	app_adc_stop
  80              	.LVL4:
  81              		.loc 1 45 0
  82 0016 FFF7FEFF 		bl	app_uartcomm_stop
  83              	.LVL5:
  84              		.loc 1 46 0
  85 001a FFF7FEFF 		bl	app_nunchuk_stop
  86              	.LVL6:
  87              		.loc 1 48 0
  88 001e 2B78     		ldrb	r3, [r5]	@ zero_extendqisi2
  89 0020 F3B1     		cbz	r3, .L18
  90              	.L5:
  91              		.loc 1 56 0
  92 0022 254C     		ldr	r4, .L19+4
  93 0024 237D     		ldrb	r3, [r4, #20]	@ zero_extendqisi2
  94 0026 013B     		subs	r3, r3, #1
  95 0028 072B     		cmp	r3, #7
  96 002a 07D8     		bhi	.L6
  97 002c DFE803F0 		tbb	[pc, r3]
  98              	.L8:
  99 0030 1E       		.byte	(.L7-.L8)/2
 100 0031 21       		.byte	(.L9-.L8)/2
 101 0032 25       		.byte	(.L10-.L8)/2
 102 0033 2A       		.byte	(.L11-.L8)/2
 103 0034 31       		.byte	(.L12-.L8)/2
 104 0035 04       		.byte	(.L13-.L8)/2
 105 0036 39       		.byte	(.L14-.L8)/2
 106 0037 1B       		.byte	(.L15-.L8)/2
 107              		.p2align 1
 108              	.L13:
 109              		.loc 1 83 0
 110 0038 FFF7FEFF 		bl	app_nunchuk_start
 111              	.LVL7:
 112              	.L6:
 113              		.loc 1 106 0
 114 003c 1F48     		ldr	r0, .L19+8
ARM GAS  /var/tmp//cc9k5ZAw.s 			page 3


 115 003e FFF7FEFF 		bl	app_ppm_configure
 116              	.LVL8:
 117              		.loc 1 107 0
 118 0042 1F48     		ldr	r0, .L19+12
 119 0044 FFF7FEFF 		bl	app_adc_configure
 120              	.LVL9:
 121              		.loc 1 108 0
 122 0048 D4F89400 		ldr	r0, [r4, #148]
 123 004c FFF7FEFF 		bl	app_uartcomm_configure
 124              	.LVL10:
 125              		.loc 1 109 0
 126 0050 1C48     		ldr	r0, .L19+16
 127 0052 FFF7FEFF 		bl	app_nunchuk_configure
 128              	.LVL11:
 129              		.loc 1 115 0
 130 0056 1C48     		ldr	r0, .L19+20
 131              		.loc 1 116 0
 132 0058 BDE83840 		pop	{r3, r4, r5, lr}
 133              		.cfi_remember_state
 134              		.cfi_restore 14
 135              		.cfi_restore 5
 136              		.cfi_restore 4
 137              		.cfi_restore 3
 138              		.cfi_def_cfa_offset 0
 139              		.loc 1 115 0
 140 005c FFF7FEBF 		b	rfhelp_update_conf
 141              	.LVL12:
 142              	.L18:
 143              		.cfi_restore_state
 144              		.loc 1 49 0
 145 0060 FFF7FEFF 		bl	nrf_driver_stop
 146              	.LVL13:
 147 0064 DDE7     		b	.L5
 148              	.L15:
 149              		.loc 1 98 0
 150 0066 FFF7FEFF 		bl	settingMotorCurrent
 151              	.LVL14:
 152              		.loc 1 100 0
 153 006a E7E7     		b	.L6
 154              	.L7:
 155              		.loc 1 58 0
 156 006c FFF7FEFF 		bl	app_ppm_start
 157              	.LVL15:
 158              		.loc 1 59 0
 159 0070 E4E7     		b	.L6
 160              	.L9:
 161              		.loc 1 62 0
 162 0072 0120     		movs	r0, #1
 163 0074 FFF7FEFF 		bl	app_adc_start
 164              	.LVL16:
 165              		.loc 1 63 0
 166 0078 E0E7     		b	.L6
 167              	.L10:
 168              		.loc 1 66 0
 169 007a FFF7FEFF 		bl	hw_stop_i2c
 170              	.LVL17:
 171              		.loc 1 67 0
ARM GAS  /var/tmp//cc9k5ZAw.s 			page 4


 172 007e FFF7FEFF 		bl	app_uartcomm_start
 173              	.LVL18:
 174              		.loc 1 68 0
 175 0082 DBE7     		b	.L6
 176              	.L11:
 177              		.loc 1 71 0
 178 0084 FFF7FEFF 		bl	hw_stop_i2c
 179              	.LVL19:
 180              		.loc 1 72 0
 181 0088 FFF7FEFF 		bl	app_ppm_start
 182              	.LVL20:
 183              		.loc 1 73 0
 184 008c FFF7FEFF 		bl	app_uartcomm_start
 185              	.LVL21:
 186              		.loc 1 74 0
 187 0090 D4E7     		b	.L6
 188              	.L12:
 189              		.loc 1 77 0
 190 0092 FFF7FEFF 		bl	hw_stop_i2c
 191              	.LVL22:
 192              		.loc 1 78 0
 193 0096 0020     		movs	r0, #0
 194 0098 FFF7FEFF 		bl	app_adc_start
 195              	.LVL23:
 196              		.loc 1 79 0
 197 009c FFF7FEFF 		bl	app_uartcomm_start
 198              	.LVL24:
 199              		.loc 1 80 0
 200 00a0 CCE7     		b	.L6
 201              	.L14:
 202              		.loc 1 87 0
 203 00a2 2B78     		ldrb	r3, [r5]	@ zero_extendqisi2
 204 00a4 002B     		cmp	r3, #0
 205 00a6 C9D1     		bne	.L6
 206              		.loc 1 88 0
 207 00a8 FFF7FEFF 		bl	nrf_driver_init
 208              	.LVL25:
 209              		.loc 1 89 0
 210 00ac FFF7FEFF 		bl	rfhelp_restart
 211              	.LVL26:
 212 00b0 C4E7     		b	.L6
 213              	.L20:
 214 00b2 00BF     		.align	2
 215              	.L19:
 216 00b4 00000000 		.word	conf_general_permanent_nrf_found
 217 00b8 00000000 		.word	.LANCHOR0
 218 00bc 18000000 		.word	.LANCHOR0+24
 219 00c0 50000000 		.word	.LANCHOR0+80
 220 00c4 98000000 		.word	.LANCHOR0+152
 221 00c8 BC000000 		.word	.LANCHOR0+188
 222              		.cfi_endproc
 223              	.LFE257:
 224              		.size	app_set_configuration, .-app_set_configuration
 225              		.section	.bss.appconf,"aw",%nobits
 226              		.align	2
 227              		.set	.LANCHOR0,. + 0
 228              		.type	appconf, %object
ARM GAS  /var/tmp//cc9k5ZAw.s 			page 5


 229              		.size	appconf, 200
 230              	appconf:
 231 0000 00000000 		.space	200
 231      00000000 
 231      00000000 
 231      00000000 
 231      00000000 
 232              		.text
 233              	.Letext0:
 234              		.file 2 "/usr/local/gcc_arm/gcc-arm-none-eabi-6-2017-q2-update/arm-none-eabi/include/machine/_defa
 235              		.file 3 "/usr/local/gcc_arm/gcc-arm-none-eabi-6-2017-q2-update/arm-none-eabi/include/sys/_stdint.h
 236              		.file 4 "/usr/local/gcc_arm/gcc-arm-none-eabi-6-2017-q2-update/lib/gcc/arm-none-eabi/6.3.1/include
 237              		.file 5 "ChibiOS_3.0.2/os/rt/ports/ARMCMx/compilers/GCC/chtypes.h"
 238              		.file 6 "ChibiOS_3.0.2/os/rt/include/chsystypes.h"
 239              		.file 7 "ChibiOS_3.0.2/os/rt/include/chschd.h"
 240              		.file 8 "ChibiOS_3.0.2/os/ext/CMSIS/include/core_cm4.h"
 241              		.file 9 "ChibiOS_3.0.2/os/ext/CMSIS/ST/system_stm32f4xx.h"
 242              		.file 10 "ChibiOS_3.0.2/os/ext/CMSIS/ST/stm32f407xx.h"
 243              		.file 11 "ChibiOS_3.0.2/os/rt/ports/ARMCMx/chcore.h"
 244              		.file 12 "ChibiOS_3.0.2/os/rt/ports/ARMCMx/chcore_v7m.h"
 245              		.file 13 "ChibiOS_3.0.2/os/rt/include/chtm.h"
 246              		.file 14 "ChibiOS_3.0.2/os/rt/include/chsem.h"
 247              		.file 15 "ChibiOS_3.0.2/os/rt/include/chmtx.h"
 248              		.file 16 "ChibiOS_3.0.2/os/rt/include/chregistry.h"
 249              		.file 17 "ChibiOS_3.0.2/os/rt/include/chevents.h"
 250              		.file 18 "ChibiOS_3.0.2/os/rt/include/chqueues.h"
 251              		.file 19 "./datatypes.h"
 252              		.file 20 "./conf_general.h"
 253              		.file 21 "ChibiOS_3.0.2/os/hal/ports/STM32/STM32F4xx/stm32_dma.h"
 254              		.file 22 "ChibiOS_3.0.2/os/hal/ports/STM32/LLD/GPIOv2/pal_lld.h"
 255              		.file 23 "ChibiOS_3.0.2/os/hal/include/can.h"
 256              		.file 24 "ChibiOS_3.0.2/os/hal/ports/STM32/LLD/can_lld.h"
 257              		.file 25 "ChibiOS_3.0.2/os/hal/include/i2c.h"
 258              		.file 26 "ChibiOS_3.0.2/os/hal/ports/STM32/LLD/I2Cv1/i2c_lld.h"
 259              		.file 27 "ChibiOS_3.0.2/os/hal/include/icu.h"
 260              		.file 28 "ChibiOS_3.0.2/os/hal/ports/STM32/LLD/TIMv1/icu_lld.h"
 261              		.file 29 "ChibiOS_3.0.2/os/hal/ports/STM32/LLD/TIMv1/stm32_tim.h"
 262              		.file 30 "ChibiOS_3.0.2/os/hal/include/spi.h"
 263              		.file 31 "ChibiOS_3.0.2/os/hal/ports/STM32/LLD/SPIv1/spi_lld.h"
 264              		.file 32 "ChibiOS_3.0.2/os/hal/include/uart.h"
 265              		.file 33 "ChibiOS_3.0.2/os/hal/ports/STM32/LLD/USARTv1/uart_lld.h"
 266              		.file 34 "ChibiOS_3.0.2/os/hal/include/usb.h"
 267              		.file 35 "ChibiOS_3.0.2/os/hal/ports/STM32/LLD/OTGv1/usb_lld.h"
 268              		.file 36 "ChibiOS_3.0.2/os/hal/ports/STM32/LLD/OTGv1/stm32_otg.h"
 269              		.file 37 "applications/app.h"
 270              		.file 38 "nrf/rfhelp.h"
 271              		.file 39 "nrf/nrf_driver.h"
 272              		.file 40 "hwconf/hw.h"