ARM GAS  C:\Users\Grillmo\AppData\Local\Temp\ccuXpuxl.s 			page 1


   1              		.cpu cortex-m4
   2              		.eabi_attribute 27, 1
   3              		.eabi_attribute 28, 1
   4              		.eabi_attribute 20, 1
   5              		.eabi_attribute 21, 1
   6              		.eabi_attribute 23, 3
   7              		.eabi_attribute 24, 1
   8              		.eabi_attribute 25, 1
   9              		.eabi_attribute 26, 1
  10              		.eabi_attribute 30, 2
  11              		.eabi_attribute 34, 1
  12              		.eabi_attribute 18, 4
  13              		.file	"app_nunchuk.c"
  14              		.text
  15              	.Ltext0:
  16              		.cfi_sections	.debug_frame
  17              		.section	.text.terminal_cmd_nunchuk_status,"ax",%progbits
  18              		.align	1
  19              		.p2align 4,,15
  20              		.syntax unified
  21              		.thumb
  22              		.thumb_func
  23              		.fpu fpv4-sp-d16
  24              		.type	terminal_cmd_nunchuk_status, %function
  25              	terminal_cmd_nunchuk_status:
  26              	.LFB263:
  27              		.file 1 "applications/app_nunchuk.c"
  28              		.loc 1 488 0
  29              		.cfi_startproc
  30              		@ args = 0, pretend = 0, frame = 0
  31              		@ frame_needed = 0, uses_anonymous_args = 0
  32              	.LVL0:
  33 0000 08B5     		push	{r3, lr}
  34              		.cfi_def_cfa_offset 8
  35              		.cfi_offset 3, -8
  36              		.cfi_offset 14, -4
  37              		.loc 1 492 0
  38 0002 0948     		ldr	r0, .L5
  39              	.LVL1:
  40 0004 FFF7FEFF 		bl	commands_printf
  41              	.LVL2:
  42              		.loc 1 493 0
  43 0008 084B     		ldr	r3, .L5+4
  44 000a 094A     		ldr	r2, .L5+8
  45 000c 1978     		ldrb	r1, [r3]	@ zero_extendqisi2
  46 000e 094B     		ldr	r3, .L5+12
  47 0010 0948     		ldr	r0, .L5+16
  48 0012 0029     		cmp	r1, #0
  49 0014 14BF     		ite	ne
  50 0016 1146     		movne	r1, r2
  51 0018 1946     		moveq	r1, r3
  52 001a FFF7FEFF 		bl	commands_printf
  53              	.LVL3:
  54              		.loc 1 494 0
  55 001e 0748     		ldr	r0, .L5+20
  56              		.loc 1 495 0
  57 0020 BDE80840 		pop	{r3, lr}
ARM GAS  C:\Users\Grillmo\AppData\Local\Temp\ccuXpuxl.s 			page 2


  58              		.cfi_restore 14
  59              		.cfi_restore 3
  60              		.cfi_def_cfa_offset 0
  61              		.loc 1 494 0
  62 0024 FFF7FEBF 		b	commands_printf
  63              	.LVL4:
  64              	.L6:
  65              		.align	2
  66              	.L5:
  67 0028 08000000 		.word	.LC2
  68 002c 00000000 		.word	.LANCHOR0
  69 0030 00000000 		.word	.LC0
  70 0034 04000000 		.word	.LC1
  71 0038 18000000 		.word	.LC3
  72 003c 24000000 		.word	.LC4
  73              		.cfi_endproc
  74              	.LFE263:
  75              		.size	terminal_cmd_nunchuk_status, .-terminal_cmd_nunchuk_status
  76              		.section	.text.output_thread,"ax",%progbits
  77              		.align	1
  78              		.p2align 4,,15
  79              		.syntax unified
  80              		.thumb
  81              		.thumb_func
  82              		.fpu fpv4-sp-d16
  83              		.type	output_thread, %function
  84              	output_thread:
  85              	.LFB262:
  86              		.loc 1 201 0
  87              		.cfi_startproc
  88              		@ args = 0, pretend = 0, frame = 24
  89              		@ frame_needed = 0, uses_anonymous_args = 0
  90              	.LVL5:
  91 0000 2DE9F04F 		push	{r4, r5, r6, r7, r8, r9, r10, fp, lr}
  92              		.cfi_def_cfa_offset 36
  93              		.cfi_offset 4, -36
  94              		.cfi_offset 5, -32
  95              		.cfi_offset 6, -28
  96              		.cfi_offset 7, -24
  97              		.cfi_offset 8, -20
  98              		.cfi_offset 9, -16
  99              		.cfi_offset 10, -12
 100              		.cfi_offset 11, -8
 101              		.cfi_offset 14, -4
 102              	.LBB87:
 103              	.LBB88:
 104              		.file 2 "ChibiOS_3.0.2/os/rt/include/chregistry.h"
 105              		.loc 2 135 0
 106 0004 BE4E     		ldr	r6, .L173
 107 0006 BF4A     		ldr	r2, .L173+4
 108 0008 B369     		ldr	r3, [r6, #24]
 109 000a BF4C     		ldr	r4, .L173+8
 110 000c BF4D     		ldr	r5, .L173+12
 111 000e DFF83C83 		ldr	r8, .L173+76
 112 0012 DFF83C93 		ldr	r9, .L173+80
 113 0016 DFF83CB3 		ldr	fp, .L173+84
 114              	.LBE88:
ARM GAS  C:\Users\Grillmo\AppData\Local\Temp\ccuXpuxl.s 			page 3


 115              	.LBE87:
 116              		.loc 1 201 0
 117 001a 2DED0C8B 		vpush.64	{d8, d9, d10, d11, d12, d13}
 118              		.cfi_def_cfa_offset 84
 119              		.cfi_offset 80, -84
 120              		.cfi_offset 81, -80
 121              		.cfi_offset 82, -76
 122              		.cfi_offset 83, -72
 123              		.cfi_offset 84, -68
 124              		.cfi_offset 85, -64
 125              		.cfi_offset 86, -60
 126              		.cfi_offset 87, -56
 127              		.cfi_offset 88, -52
 128              		.cfi_offset 89, -48
 129              		.cfi_offset 90, -44
 130              		.cfi_offset 91, -40
 131              	.LBB90:
 132              	.LBB89:
 133              		.loc 2 135 0
 134 001e 9A61     		str	r2, [r3, #24]
 135 0020 BB4B     		ldr	r3, .L173+16
 136              	.LBE89:
 137              	.LBE90:
 138              	.LBB91:
 139              		.loc 1 224 0
 140 0022 9FEDBCAA 		vldr.32	s20, .L173+20
 141              	.LBB92:
 142              	.LBB93:
 143              		.loc 1 89 0
 144 0026 DFEDBC9A 		vldr.32	s19, .L173+24
 145              	.LBE93:
 146              	.LBE92:
 147              	.LBB98:
 148              	.LBB99:
 149              	.LBB100:
 150              		.loc 1 448 0
 151 002a 9FEDBC9A 		vldr.32	s18, .L173+28
 152 002e DFEDBC8A 		vldr.32	s17, .L173+32
 153              	.LBE100:
 154              	.LBE99:
 155              	.LBE98:
 156              	.LBE91:
 157              		.loc 1 201 0
 158 0032 87B0     		sub	sp, sp, #28
 159              		.cfi_def_cfa_offset 112
 160 0034 03F12007 		add	r7, r3, #32
 161              	.LVL6:
 162              	.L86:
 163              	.LBB161:
 164              		.loc 1 207 0
 165 0038 0A20     		movs	r0, #10
 166 003a FFF7FEFF 		bl	chThdSleep
 167              	.LVL7:
 168              		.loc 1 209 0
 169 003e FFF7FEFF 		bl	timeout_has_timeout
 170              	.LVL8:
 171 0042 0028     		cmp	r0, #0
ARM GAS  C:\Users\Grillmo\AppData\Local\Temp\ccuXpuxl.s 			page 4


 172 0044 F8D1     		bne	.L86
 173              		.loc 1 209 0 is_stmt 0 discriminator 1
 174 0046 2368     		ldr	r3, [r4]
 175 0048 002B     		cmp	r3, #0
 176 004a F5D1     		bne	.L86
 177              		.loc 1 209 0 discriminator 2
 178 004c 2B78     		ldrb	r3, [r5]	@ zero_extendqisi2
 179 004e 002B     		cmp	r3, #0
 180 0050 F2D0     		beq	.L86
 181              		.loc 1 215 0 is_stmt 1
 182 0052 B44B     		ldr	r3, .L173+36
 183 0054 1A68     		ldr	r2, [r3]
 184              	.LVL9:
 185              	.LBB115:
 186              	.LBB116:
 187              	.LBB117:
 188              	.LBB118:
 189              		.file 3 "ChibiOS_3.0.2/os/rt/include/chvt.h"
 190              		.loc 3 231 0
 191 0056 B36A     		ldr	r3, [r6, #40]
 192              	.LVL10:
 193              	.LBE118:
 194              	.LBE117:
 195              		.loc 3 267 0
 196 0058 9B1A     		subs	r3, r3, r2
 197              	.LBE116:
 198              	.LBE115:
 199              		.loc 1 215 0
 200 005a 44F62062 		movw	r2, #20000
 201 005e 9342     		cmp	r3, r2
 202 0060 EAD8     		bhi	.L86
 203              		.loc 1 219 0
 204 0062 FFF7FEFF 		bl	mc_interface_get_configuration
 205              	.LVL11:
 206 0066 8246     		mov	r10, r0
 207 0068 0090     		str	r0, [sp]
 208              	.LVL12:
 209              		.loc 1 222 0
 210 006a FFF7FEFF 		bl	mc_interface_get_tot_current_directional_filtered
 211              	.LVL13:
 212              		.loc 1 224 0
 213 006e 9AED01BA 		vldr.32	s22, [r10, #4]
 214              		.loc 1 226 0
 215 0072 98F81430 		ldrb	r3, [r8, #20]	@ zero_extendqisi2
 216              		.loc 1 222 0
 217 0076 F0EE40AA 		vmov.f32	s21, s0
 218              	.LVL14:
 219              		.loc 1 224 0
 220 007a 2BEE0ABA 		vmul.f32	s22, s22, s20
 221              	.LVL15:
 222              		.loc 1 226 0
 223 007e 23B1     		cbz	r3, .L9
 224              		.loc 1 226 0 is_stmt 0 discriminator 1
 225 0080 98F81530 		ldrb	r3, [r8, #21]	@ zero_extendqisi2
 226 0084 002B     		cmp	r3, #0
 227 0086 40F02982 		bne	.L162
 228              	.L9:
ARM GAS  C:\Users\Grillmo\AppData\Local\Temp\ccuXpuxl.s 			page 5


 229              		.loc 1 231 0 is_stmt 1
 230 008a 98F81530 		ldrb	r3, [r8, #21]	@ zero_extendqisi2
 231 008e 03F0FF00 		and	r0, r3, #255
 232 0092 3BB1     		cbz	r3, .L13
 233              		.loc 1 231 0 is_stmt 0 discriminator 1
 234 0094 A44B     		ldr	r3, .L173+40
 235 0096 1B78     		ldrb	r3, [r3]	@ zero_extendqisi2
 236 0098 23B9     		cbnz	r3, .L13
 237              		.loc 1 231 0 discriminator 2
 238 009a 2A78     		ldrb	r2, [r5]	@ zero_extendqisi2
 239 009c D2B2     		uxtb	r2, r2
 240 009e 012A     		cmp	r2, #1
 241 00a0 00F0A182 		beq	.L163
 242              	.L13:
 243 00a4 99F80000 		ldrb	r0, [r9]	@ zero_extendqisi2
 244              	.L12:
 245              		.loc 1 240 0 is_stmt 1
 246 00a8 9F4A     		ldr	r2, .L173+40
 247 00aa 98F81530 		ldrb	r3, [r8, #21]	@ zero_extendqisi2
 248 00ae 1370     		strb	r3, [r2]
 249              		.loc 1 242 0
 250 00b0 FFF7FEFF 		bl	led_external_set_reversed
 251              	.LVL16:
 252              	.LBB119:
 253              	.LBB94:
 254              		.loc 1 89 0
 255 00b4 D8ED017A 		vldr.32	s15, [r8, #4]	@ int
 256 00b8 9FED9C8A 		vldr.32	s16, .L173+44
 257              	.LBE94:
 258              	.LBE119:
 259              		.loc 1 245 0
 260 00bc 95ED010A 		vldr.32	s0, [r5, #4]
 261              	.LBB120:
 262              	.LBB95:
 263              		.loc 1 89 0
 264 00c0 F8EEE77A 		vcvt.f32.s32	s15, s15
 265              	.LBE95:
 266              	.LBE120:
 267              		.loc 1 245 0
 268 00c4 F7EE000A 		vmov.f32	s1, #1.0e+0
 269              	.LBB121:
 270              	.LBB96:
 271              		.loc 1 89 0
 272 00c8 77EEE97A 		vsub.f32	s15, s15, s19
 273              	.LBE96:
 274              	.LBE121:
 275              		.loc 1 245 0
 276 00cc 03A8     		add	r0, sp, #12
 277              	.LBB122:
 278              	.LBB97:
 279              		.loc 1 89 0
 280 00ce 67EE887A 		vmul.f32	s15, s15, s16
 281              	.LBE97:
 282              	.LBE122:
 283              		.loc 1 244 0
 284 00d2 CDED037A 		vstr.32	s15, [sp, #12]
 285              		.loc 1 245 0
ARM GAS  C:\Users\Grillmo\AppData\Local\Temp\ccuXpuxl.s 			page 6


 286 00d6 FFF7FEFF 		bl	utils_deadband
 287              	.LVL17:
 288              		.loc 1 246 0
 289 00da D5ED050A 		vldr.32	s1, [r5, #20]
 290 00de 9DED030A 		vldr.32	s0, [sp, #12]
 291 00e2 95ED061A 		vldr.32	s2, [r5, #24]
 292 00e6 287F     		ldrb	r0, [r5, #28]	@ zero_extendqisi2
 293 00e8 FFF7FEFF 		bl	utils_throttle_curve
 294              	.LVL18:
 295              		.loc 1 249 0
 296 00ec D8ED007A 		vldr.32	s15, [r8]	@ int
 297              		.loc 1 250 0
 298 00f0 9FED8F7A 		vldr.32	s14, .L173+48
 299              		.loc 1 246 0
 300 00f4 8DED030A 		vstr.32	s0, [sp, #12]
 301              		.loc 1 249 0
 302 00f8 F8EEE77A 		vcvt.f32.s32	s15, s15
 303              		.loc 1 250 0
 304 00fc B4EEC70A 		vcmpe.f32	s0, s14
 305              		.loc 1 249 0
 306 0100 77EEE97A 		vsub.f32	s15, s15, s19
 307              		.loc 1 250 0
 308 0104 F1EE10FA 		vmrs	APSR_nzcv, FPSCR
 309              		.loc 1 249 0
 310 0108 27EE888A 		vmul.f32	s16, s15, s16
 311              	.LVL19:
 312              		.loc 1 251 0
 313 010c DFED897A 		vldr.32	s15, .L173+52
 314 0110 B4EEE78A 		vcmpe.f32	s16, s15
 315              		.loc 1 250 0
 316 0114 54D5     		bpl	.L148
 317              		.loc 1 251 0
 318 0116 F1EE10FA 		vmrs	APSR_nzcv, FPSCR
 319 011a 00F1E381 		bmi	.L164
 320              		.loc 1 253 0
 321 011e DFED867A 		vldr.32	s15, .L173+56
 322 0122 B4EEE78A 		vcmpe.f32	s16, s15
 323 0126 F1EE10FA 		vmrs	APSR_nzcv, FPSCR
 324              		.loc 1 254 0
 325 012a CCBF     		ite	gt
 326 012c 0620     		movgt	r0, #6
 327              		.loc 1 256 0
 328 012e 0220     		movle	r0, #2
 329 0130 FFF7FEFF 		bl	led_external_set_state
 330              	.LVL20:
 331              	.L20:
 332              		.loc 1 274 0
 333 0134 DBF800A0 		ldr	r10, [fp]
 334              	.LVL21:
 335 0138 0AF10102 		add	r2, r10, #1
 336 013c CBF80020 		str	r2, [fp]
 337 0140 FFF7FEFF 		bl	mc_interface_get_rpm
 338              	.LVL22:
 339              		.loc 1 275 0
 340 0144 DBF80020 		ldr	r2, [fp]
 341              		.loc 1 274 0
 342 0148 714B     		ldr	r3, .L173+16
ARM GAS  C:\Users\Grillmo\AppData\Local\Temp\ccuXpuxl.s 			page 7


 343              		.loc 1 279 0
 344 014a DFED837A 		vldr.32	s15, .L173+88
 345              		.loc 1 274 0
 346 014e 03EB8A03 		add	r3, r3, r10, lsl #2
 347              		.loc 1 275 0
 348 0152 072A     		cmp	r2, #7
 349              		.loc 1 274 0
 350 0154 83ED000A 		vstr.32	s0, [r3]
 351              		.loc 1 276 0
 352 0158 C4BF     		itt	gt
 353 015a 0023     		movgt	r3, #0
 354 015c CBF80030 		strgt	r3, [fp]
 355              	.LVL23:
 356 0160 6B4B     		ldr	r3, .L173+16
 357              	.LVL24:
 358              	.L28:
 359              	.LBB123:
 360              		.loc 1 281 0 discriminator 3
 361 0162 B3EC017A 		vldmia.32	r3!, {s14}
 362              		.loc 1 280 0 discriminator 3
 363 0166 9F42     		cmp	r7, r3
 364              		.loc 1 281 0 discriminator 3
 365 0168 77EE877A 		vadd.f32	s15, s15, s14
 366              	.LVL25:
 367              		.loc 1 280 0 discriminator 3
 368 016c F9D1     		bne	.L28
 369              	.LVL26:
 370              	.LBE123:
 371              		.loc 1 285 0
 372 016e 98F81430 		ldrb	r3, [r8, #20]	@ zero_extendqisi2
 373 0172 03F0FF02 		and	r2, r3, #255
 374 0176 9BB3     		cbz	r3, .L29
 375              	.LBB124:
 376              		.loc 1 288 0
 377 0178 704B     		ldr	r3, .L173+60
 378 017a 1B78     		ldrb	r3, [r3]	@ zero_extendqisi2
 379              	.LBE124:
 380              		.loc 1 283 0
 381 017c B4EE000A 		vmov.f32	s0, #1.25e-1
 382 0180 27EE800A 		vmul.f32	s0, s15, s0
 383              	.LVL27:
 384              	.LBB134:
 385              		.loc 1 288 0
 386 0184 002B     		cmp	r3, #0
 387 0186 40F04981 		bne	.L30
 388              		.loc 1 289 0
 389 018a 6D4A     		ldr	r2, .L173+64
 390              		.loc 1 291 0
 391 018c 99F80030 		ldrb	r3, [r9]	@ zero_extendqisi2
 392              		.loc 1 289 0
 393 0190 82ED000A 		vstr.32	s0, [r2]
 394              		.loc 1 291 0
 395 0194 B5EEC00A 		vcmpe.f32	s0, #0
 396 0198 002B     		cmp	r3, #0
 397 019a 40F00D82 		bne	.L165
 398              		.loc 1 291 0 is_stmt 0 discriminator 4
 399 019e F1EE10FA 		vmrs	APSR_nzcv, FPSCR
ARM GAS  C:\Users\Grillmo\AppData\Local\Temp\ccuXpuxl.s 			page 8


 400 01a2 00F10D82 		bmi	.L32
 401              	.LVL28:
 402              	.L33:
 403              		.loc 1 300 0 is_stmt 1
 404 01a6 654A     		ldr	r2, .L173+60
 405 01a8 0123     		movs	r3, #1
 406 01aa 1370     		strb	r3, [r2]
 407              	.L35:
 408              		.loc 1 325 0
 409 01ac FFF7FEFF 		bl	mc_interface_set_pid_speed
 410              	.LVL29:
 411              		.loc 1 328 0
 412 01b0 6B7F     		ldrb	r3, [r5, #29]	@ zero_extendqisi2
 413 01b2 002B     		cmp	r3, #0
 414 01b4 40F06681 		bne	.L41
 415              	.LVL30:
 416              	.L45:
 417              		.loc 1 342 0
 418 01b8 624B     		ldr	r3, .L173+68
 419 01ba C3ED00AA 		vstr.32	s21, [r3]
 420              		.loc 1 344 0
 421 01be 3BE7     		b	.L86
 422              	.LVL31:
 423              	.L148:
 424              	.LBE134:
 425              		.loc 1 259 0
 426 01c0 F1EE10FA 		vmrs	APSR_nzcv, FPSCR
 427 01c4 00F1CD81 		bmi	.L166
 428              		.loc 1 261 0
 429 01c8 DFED5B7A 		vldr.32	s15, .L173+56
 430 01cc B4EEE78A 		vcmpe.f32	s16, s15
 431 01d0 F1EE10FA 		vmrs	APSR_nzcv, FPSCR
 432              		.loc 1 262 0
 433 01d4 CCBF     		ite	gt
 434 01d6 0420     		movgt	r0, #4
 435              		.loc 1 264 0
 436 01d8 0120     		movle	r0, #1
 437 01da FFF7FEFF 		bl	led_external_set_state
 438              	.LVL32:
 439 01de A9E7     		b	.L20
 440              	.LVL33:
 441              	.L29:
 442              		.loc 1 351 0
 443 01e0 DDED037A 		vldr.32	s15, [sp, #12]
 444              	.LVL34:
 445              		.loc 1 347 0
 446 01e4 554B     		ldr	r3, .L173+60
 447              		.loc 1 351 0
 448 01e6 F5EEC07A 		vcmpe.f32	s15, #0
 449              		.loc 1 347 0
 450 01ea 1A70     		strb	r2, [r3]
 451              	.LVL35:
 452              		.loc 1 352 0
 453 01ec 009B     		ldr	r3, [sp]
 454              		.loc 1 351 0
 455 01ee F1EE10FA 		vmrs	APSR_nzcv, FPSCR
 456              		.loc 1 354 0
ARM GAS  C:\Users\Grillmo\AppData\Local\Temp\ccuXpuxl.s 			page 9


 457 01f2 B6BF     		itet	lt
 458 01f4 93ED1E8A 		vldrlt.32	s16, [r3, #120]
 459              	.LVL36:
 460              		.loc 1 352 0
 461 01f8 93ED1D8A 		vldrge.32	s16, [r3, #116]
 462              		.loc 1 354 0
 463 01fc B0EEC88A 		vabslt.f32	s16, s16
 464 0200 28EE278A 		vmul.f32	s16, s16, s15
 465              	.LVL37:
 466              		.loc 1 358 0
 467 0204 FFF7FEFF 		bl	mc_interface_get_rpm
 468              	.LVL38:
 469              		.loc 1 359 0
 470 0208 99F80030 		ldrb	r3, [r9]	@ zero_extendqisi2
 471              		.loc 1 358 0
 472 020c B0EE40CA 		vmov.f32	s24, s0
 473              	.LVL39:
 474              		.loc 1 359 0
 475 0210 0BB1     		cbz	r3, .L49
 476              		.loc 1 360 0
 477 0212 B1EE40CA 		vneg.f32	s24, s0
 478              	.LVL40:
 479              	.L49:
 480              		.loc 1 366 0
 481 0216 6B7F     		ldrb	r3, [r5, #29]	@ zero_extendqisi2
 482 0218 F0EE4CBA 		vmov.f32	s23, s24
 483 021c 002B     		cmp	r3, #0
 484 021e 3ED0     		beq	.L50
 485              	.LVL41:
 486 0220 4FF0000A 		mov	r10, #0
 487              	.LVL42:
 488              	.L57:
 489              	.LBB135:
 490              	.LBB136:
 491              		.loc 1 368 0
 492 0224 5046     		mov	r0, r10
 493 0226 FFF7FEFF 		bl	comm_can_get_status_msg_index
 494              	.LVL43:
 495              		.loc 1 370 0
 496 022a 0368     		ldr	r3, [r0]
 497 022c 002B     		cmp	r3, #0
 498              	.LBE136:
 499              		.loc 1 367 0
 500 022e 0AF1010A 		add	r10, r10, #1
 501              	.LVL44:
 502              	.LBB143:
 503              		.loc 1 370 0
 504 0232 31DB     		blt	.L51
 505              	.LBB137:
 506              	.LBB138:
 507              	.LBB139:
 508              	.LBB140:
 509              		.loc 3 231 0 discriminator 1
 510 0234 B36A     		ldr	r3, [r6, #40]
 511              	.LVL45:
 512              	.LBE140:
 513              	.LBE139:
ARM GAS  C:\Users\Grillmo\AppData\Local\Temp\ccuXpuxl.s 			page 10


 514              		.loc 3 267 0 discriminator 1
 515 0236 4268     		ldr	r2, [r0, #4]
 516 0238 9B1A     		subs	r3, r3, r2
 517              	.LBE138:
 518              	.LBE137:
 519              		.loc 1 370 0 discriminator 1
 520 023a 07EE903A 		vmov	s15, r3	@ int
 521 023e F8EE677A 		vcvt.f32.u32	s15, s15
 522              	.LBB141:
 523              		.loc 1 386 0 discriminator 1
 524 0242 F0EEEA6A 		vabs.f32	s13, s21
 525              	.LBE141:
 526              		.loc 1 370 0 discriminator 1
 527 0246 87EE897A 		vdiv.f32	s14, s15, s18
 528 024a B4EEE87A 		vcmpe.f32	s14, s17
 529 024e F1EE10FA 		vmrs	APSR_nzcv, FPSCR
 530 0252 21D5     		bpl	.L51
 531              	.LBB142:
 532              		.loc 1 372 0
 533 0254 99F80030 		ldrb	r3, [r9]	@ zero_extendqisi2
 534              		.loc 1 371 0
 535 0258 D0ED027A 		vldr.32	s15, [r0, #8]
 536              	.LVL46:
 537              		.loc 1 372 0
 538 025c 0BB1     		cbz	r3, .L53
 539              		.loc 1 373 0
 540 025e F1EE677A 		vneg.f32	s15, s15
 541              	.LVL47:
 542              	.L53:
 543              		.loc 1 382 0
 544 0262 90ED046A 		vldr.32	s12, [r0, #16]
 545              		.loc 1 381 0
 546 0266 90ED037A 		vldr.32	s14, [r0, #12]
 547              		.loc 1 377 0
 548 026a F4EE6B7A 		vcmp.f32	s15, s23
 549 026e F1EE10FA 		vmrs	APSR_nzcv, FPSCR
 550              		.loc 1 382 0
 551 0272 B5EEC06A 		vcmpe.f32	s12, #0
 552              		.loc 1 377 0
 553 0276 48BF     		it	mi
 554 0278 F0EE67BA 		vmovmi.f32	s23, s15
 555              	.LVL48:
 556              		.loc 1 382 0
 557 027c F1EE10FA 		vmrs	APSR_nzcv, FPSCR
 558              		.loc 1 383 0
 559 0280 48BF     		it	mi
 560 0282 B1EE477A 		vnegmi.f32	s14, s14
 561              	.LVL49:
 562              		.loc 1 386 0
 563 0286 F0EEC77A 		vabs.f32	s15, s14
 564              	.LVL50:
 565              		.loc 1 387 0
 566 028a F4EE667A 		vcmp.f32	s15, s13
 567 028e F1EE10FA 		vmrs	APSR_nzcv, FPSCR
 568 0292 C8BF     		it	gt
 569 0294 F0EE47AA 		vmovgt.f32	s21, s14
 570              	.LVL51:
ARM GAS  C:\Users\Grillmo\AppData\Local\Temp\ccuXpuxl.s 			page 11


 571              	.L51:
 572              	.LBE142:
 573              	.LBE143:
 574              		.loc 1 367 0 discriminator 2
 575 0298 BAF10A0F 		cmp	r10, #10
 576 029c C2D1     		bne	.L57
 577              	.LVL52:
 578              	.L50:
 579              	.LBE135:
 580              		.loc 1 395 0
 581 029e 294B     		ldr	r3, .L173+68
 582              		.loc 1 394 0
 583 02a0 009A     		ldr	r2, [sp]
 584              		.loc 1 395 0
 585 02a2 D3ED00CA 		vldr.32	s25, [r3]
 586              		.loc 1 394 0
 587 02a6 D2ED017A 		vldr.32	s15, [r2, #4]
 588 02aa 92ED027A 		vldr.32	s14, [r2, #8]
 589              	.LVL53:
 590              		.loc 1 395 0
 591 02ae F0EEEC6A 		vabs.f32	s13, s25
 592 02b2 B0EEC86A 		vabs.f32	s12, s16
 593 02b6 B4EEE66A 		vcmpe.f32	s12, s13
 594 02ba F1EE10FA 		vmrs	APSR_nzcv, FPSCR
 595 02be CCBF     		ite	gt
 596 02c0 D5ED026A 		vldrgt.32	s13, [r5, #8]
 597 02c4 D5ED036A 		vldrle.32	s13, [r5, #12]
 598              	.LVL54:
 599              		.loc 1 397 0
 600 02c8 9FED1F6A 		vldr.32	s12, .L173+72
 601 02cc F4EEC66A 		vcmpe.f32	s13, s12
 602 02d0 F1EE10FA 		vmrs	APSR_nzcv, FPSCR
 603 02d4 00F30A81 		bgt	.L167
 604              	.LVL55:
 605              	.L61:
 606              		.loc 1 427 0
 607 02d8 1A4B     		ldr	r3, .L173+68
 608              		.loc 1 429 0
 609 02da B5EEC08A 		vcmpe.f32	s16, #0
 610 02de F1EE10FA 		vmrs	APSR_nzcv, FPSCR
 611              		.loc 1 427 0
 612 02e2 83ED008A 		vstr.32	s16, [r3]
 613              		.loc 1 429 0
 614 02e6 00F1AF81 		bmi	.L168
 615              	.LVL56:
 616              	.LBB144:
 617              		.loc 1 444 0
 618 02ea 6B7F     		ldrb	r3, [r5, #29]	@ zero_extendqisi2
 619 02ec 002B     		cmp	r3, #0
 620 02ee 00F08C80 		beq	.L77
 621 02f2 F0EE48AA 		vmov.f32	s21, s16
 622              	.LVL57:
 623              	.LBB111:
 624              	.LBB107:
 625              	.LBB101:
 626              		.loc 1 456 0
 627 02f6 9FED18BA 		vldr.32	s22, .L173+88
ARM GAS  C:\Users\Grillmo\AppData\Local\Temp\ccuXpuxl.s 			page 12


 628              	.LVL58:
 629              	.LBE101:
 630              	.LBE107:
 631              	.LBE111:
 632 02fa 4FF0000A 		mov	r10, #0
 633 02fe 38E0     		b	.L84
 634              	.L174:
 635              		.align	2
 636              	.L173:
 637 0300 00000000 		.word	ch
 638 0304 00000000 		.word	.LC5
 639 0308 00000000 		.word	.LANCHOR1
 640 030c 00000000 		.word	.LANCHOR2
 641 0310 00000000 		.word	.LANCHOR8
 642 0314 CDCC4C3E 		.word	1045220557
 643 0318 00000043 		.word	1124073472
 644 031c 00401C46 		.word	1176256512
 645 0320 CDCCCC3D 		.word	1036831949
 646 0324 00000000 		.word	.LANCHOR3
 647 0328 00000000 		.word	.LANCHOR6
 648 032c 0000003C 		.word	1006632960
 649 0330 6F1283BA 		.word	-1165815185
 650 0334 CDCCCCBE 		.word	-1093874483
 651 0338 CDCCCC3E 		.word	1053609165
 652 033c 00000000 		.word	.LANCHOR9
 653 0340 00000000 		.word	.LANCHOR10
 654 0344 00000000 		.word	.LANCHOR11
 655 0348 0AD7233C 		.word	1008981770
 656 034c 00000000 		.word	.LANCHOR4
 657 0350 00000000 		.word	.LANCHOR5
 658 0354 00000000 		.word	.LANCHOR7
 659 0358 00000000 		.word	0
 660 035c 00007A44 		.word	1148846080
 661              	.LVL59:
 662              	.L170:
 663              	.LBB112:
 664              	.LBB108:
 665              		.loc 1 463 0
 666 0360 B1EE6A0A 		vneg.f32	s0, s21
 667 0364 FFF7FEFF 		bl	comm_can_set_current
 668              	.LVL60:
 669              	.L78:
 670              	.LBE108:
 671              		.loc 1 445 0 discriminator 2
 672 0368 0AF1010A 		add	r10, r10, #1
 673              	.LVL61:
 674 036c BAF10A0F 		cmp	r10, #10
 675 0370 45D0     		beq	.L169
 676              	.LVL62:
 677              	.L84:
 678              	.LBB109:
 679              		.loc 1 446 0
 680 0372 5046     		mov	r0, r10
 681 0374 FFF7FEFF 		bl	comm_can_get_status_msg_index
 682              	.LVL63:
 683              		.loc 1 448 0
 684 0378 0168     		ldr	r1, [r0]
ARM GAS  C:\Users\Grillmo\AppData\Local\Temp\ccuXpuxl.s 			page 13


 685 037a 0029     		cmp	r1, #0
 686 037c F4DB     		blt	.L78
 687              	.LVL64:
 688              	.LBB102:
 689              	.LBB103:
 690              	.LBB104:
 691              	.LBB105:
 692              		.loc 3 231 0 discriminator 1
 693 037e B36A     		ldr	r3, [r6, #40]
 694              	.LVL65:
 695              	.LBE105:
 696              	.LBE104:
 697              		.loc 3 267 0 discriminator 1
 698 0380 4268     		ldr	r2, [r0, #4]
 699 0382 9B1A     		subs	r3, r3, r2
 700              	.LBE103:
 701              	.LBE102:
 702              		.loc 1 448 0 discriminator 1
 703 0384 07EE903A 		vmov	s15, r3	@ int
 704 0388 F8EE677A 		vcvt.f32.u32	s15, s15
 705 038c 87EE897A 		vdiv.f32	s14, s15, s18
 706 0390 B4EEE87A 		vcmpe.f32	s14, s17
 707 0394 F1EE10FA 		vmrs	APSR_nzcv, FPSCR
 708 0398 E6D5     		bpl	.L78
 709              		.loc 1 449 0
 710 039a AB7F     		ldrb	r3, [r5, #30]	@ zero_extendqisi2
 711 039c 0BB3     		cbz	r3, .L80
 712              	.LBB106:
 713              		.loc 1 451 0
 714 039e 99F80030 		ldrb	r3, [r9]	@ zero_extendqisi2
 715              		.loc 1 450 0
 716 03a2 90ED020A 		vldr.32	s0, [r0, #8]
 717              	.LVL66:
 718              		.loc 1 451 0
 719 03a6 0BB1     		cbz	r3, .L81
 720              		.loc 1 452 0
 721 03a8 B1EE400A 		vneg.f32	s0, s0
 722              	.LVL67:
 723              	.L81:
 724              		.loc 1 456 0
 725 03ac 95ED081A 		vldr.32	s2, [r5, #32]
 726 03b0 5FED170A 		vldr.32	s1, .L173+88
 727 03b4 0190     		str	r0, [sp, #4]
 728 03b6 30EE6B0A 		vsub.f32	s0, s0, s23
 729              	.LVL68:
 730 03ba B0EE4B2A 		vmov.f32	s4, s22
 731 03be F0EE481A 		vmov.f32	s3, s16
 732 03c2 FFF7FEFF 		bl	utils_map
 733              	.LVL69:
 734              		.loc 1 457 0
 735 03c6 009B     		ldr	r3, [sp]
 736 03c8 0198     		ldr	r0, [sp, #4]
 737 03ca D3ED507A 		vldr.32	s15, [r3, #320]
 738 03ce 0168     		ldr	r1, [r0]
 739 03d0 B4EEE70A 		vcmpe.f32	s0, s15
 740 03d4 F1EE10FA 		vmrs	APSR_nzcv, FPSCR
 741              		.loc 1 456 0
ARM GAS  C:\Users\Grillmo\AppData\Local\Temp\ccuXpuxl.s 			page 14


 742 03d8 F0EE40AA 		vmov.f32	s21, s0
 743              	.LVL70:
 744              		.loc 1 458 0
 745 03dc 48BF     		it	mi
 746 03de F0EE4BAA 		vmovmi.f32	s21, s22
 747              	.LVL71:
 748              	.L80:
 749              	.LBE106:
 750              		.loc 1 462 0
 751 03e2 99F80030 		ldrb	r3, [r9]	@ zero_extendqisi2
 752              		.loc 1 463 0
 753 03e6 C8B2     		uxtb	r0, r1
 754              		.loc 1 462 0
 755 03e8 002B     		cmp	r3, #0
 756 03ea B9D1     		bne	.L170
 757              		.loc 1 465 0
 758 03ec B0EE6A0A 		vmov.f32	s0, s21
 759              	.LBE109:
 760              		.loc 1 445 0
 761 03f0 0AF1010A 		add	r10, r10, #1
 762              	.LVL72:
 763              	.LBB110:
 764              		.loc 1 465 0
 765 03f4 FFF7FEFF 		bl	comm_can_set_current
 766              	.LVL73:
 767              	.LBE110:
 768              		.loc 1 445 0
 769 03f8 BAF10A0F 		cmp	r10, #10
 770 03fc B9D1     		bne	.L84
 771              	.L169:
 772              	.LBE112:
 773              		.loc 1 470 0
 774 03fe AB7F     		ldrb	r3, [r5, #30]	@ zero_extendqisi2
 775 0400 002B     		cmp	r3, #0
 776 0402 40F04881 		bne	.L171
 777              	.LBB113:
 778 0406 B0EE6A8A 		vmov.f32	s16, s21
 779              	.LVL74:
 780              	.L77:
 781              	.LBE113:
 782              		.loc 1 479 0
 783 040a 99F80030 		ldrb	r3, [r9]	@ zero_extendqisi2
 784 040e 002B     		cmp	r3, #0
 785 0410 5FD0     		beq	.L85
 786              		.loc 1 480 0
 787 0412 B1EE480A 		vneg.f32	s0, s16
 788 0416 FFF7FEFF 		bl	mc_interface_set_current
 789              	.LVL75:
 790 041a 0DE6     		b	.L86
 791              	.LVL76:
 792              	.L30:
 793              	.LBE144:
 794              	.LBB145:
 795              		.loc 1 302 0
 796 041c 99F80030 		ldrb	r3, [r9]	@ zero_extendqisi2
 797              		.loc 1 307 0
 798 0420 D5ED046A 		vldr.32	s13, [r5, #16]
ARM GAS  C:\Users\Grillmo\AppData\Local\Temp\ccuXpuxl.s 			page 15


 799 0424 9DED037A 		vldr.32	s14, [sp, #12]
 800 0428 1FED345A 		vldr.32	s10, .L173+92
 801              		.loc 1 302 0
 802 042c 002B     		cmp	r3, #0
 803 042e 00F09F80 		beq	.L36
 804              		.loc 1 307 0
 805 0432 66EE876A 		vmul.f32	s13, s13, s14
 806              		.loc 1 303 0
 807 0436 AC4B     		ldr	r3, .L175
 808 0438 DFEDAC5A 		vldr.32	s11, .L175+4
 809 043c D3ED007A 		vldr.32	s15, [r3]
 810              		.loc 1 309 0
 811 0440 95ED046A 		vldr.32	s12, [r5, #16]
 812              		.loc 1 307 0
 813 0444 86EE857A 		vdiv.f32	s14, s13, s10
 814 0448 F4EE657A 		vcmp.f32	s15, s11
 815 044c F1EE10FA 		vmrs	APSR_nzcv, FPSCR
 816 0450 C8BF     		it	gt
 817 0452 F0EE657A 		vmovgt.f32	s15, s11
 818 0456 77EEC77A 		vsub.f32	s15, s15, s14
 819              		.loc 1 309 0
 820 045a 30EE467A 		vsub.f32	s14, s0, s12
 821              		.loc 1 307 0
 822 045e C3ED007A 		vstr.32	s15, [r3]
 823              		.loc 1 309 0
 824 0462 F4EEC77A 		vcmpe.f32	s15, s14
 825 0466 F1EE10FA 		vmrs	APSR_nzcv, FPSCR
 826 046a 7ED5     		bpl	.L154
 827              		.loc 1 310 0
 828 046c D5ED047A 		vldr.32	s15, [r5, #16]
 829 0470 30EE670A 		vsub.f32	s0, s0, s15
 830              	.LVL77:
 831 0474 83ED000A 		vstr.32	s0, [r3]
 832              		.loc 1 325 0
 833 0478 FFF7FEFF 		bl	mc_interface_set_pid_speed
 834              	.LVL78:
 835              		.loc 1 328 0
 836 047c 6B7F     		ldrb	r3, [r5, #29]	@ zero_extendqisi2
 837 047e 002B     		cmp	r3, #0
 838 0480 3FF49AAE 		beq	.L45
 839              	.L41:
 840              	.LBB125:
 841              		.loc 1 329 0
 842 0484 FFF7FEFF 		bl	mc_interface_get_tot_current_directional_filtered
 843              	.LVL79:
 844              	.LBB126:
 845              		.loc 1 331 0
 846 0488 4FF0000A 		mov	r10, #0
 847              	.LBE126:
 848              		.loc 1 329 0
 849 048c B0EE408A 		vmov.f32	s16, s0
 850              	.LVL80:
 851 0490 03E0     		b	.L44
 852              	.LVL81:
 853              	.L42:
 854              	.LBB133:
 855              		.loc 1 331 0 discriminator 2
ARM GAS  C:\Users\Grillmo\AppData\Local\Temp\ccuXpuxl.s 			page 16


 856 0492 BAF10A0F 		cmp	r10, #10
 857 0496 3FF48FAE 		beq	.L45
 858              	.LVL82:
 859              	.L44:
 860              	.LBB127:
 861              		.loc 1 332 0
 862 049a 5046     		mov	r0, r10
 863 049c FFF7FEFF 		bl	comm_can_get_status_msg_index
 864              	.LVL83:
 865              		.loc 1 334 0
 866 04a0 0268     		ldr	r2, [r0]
 867 04a2 002A     		cmp	r2, #0
 868              	.LBE127:
 869              		.loc 1 331 0
 870 04a4 0AF1010A 		add	r10, r10, #1
 871              	.LVL84:
 872              	.LBB132:
 873              		.loc 1 334 0
 874 04a8 F3DB     		blt	.L42
 875              	.LBB128:
 876              	.LBB129:
 877              		.loc 3 267 0 discriminator 1
 878 04aa 4168     		ldr	r1, [r0, #4]
 879              	.LBB130:
 880              	.LBB131:
 881              		.loc 3 231 0 discriminator 1
 882 04ac B36A     		ldr	r3, [r6, #40]
 883              	.LVL85:
 884              	.LBE131:
 885              	.LBE130:
 886              		.loc 3 267 0 discriminator 1
 887 04ae 5B1A     		subs	r3, r3, r1
 888              	.LBE129:
 889              	.LBE128:
 890              		.loc 1 334 0 discriminator 1
 891 04b0 07EE903A 		vmov	s15, r3	@ int
 892 04b4 F8EE677A 		vcvt.f32.u32	s15, s15
 893 04b8 87EE897A 		vdiv.f32	s14, s15, s18
 894 04bc B4EEE87A 		vcmpe.f32	s14, s17
 895 04c0 F1EE10FA 		vmrs	APSR_nzcv, FPSCR
 896 04c4 E5D5     		bpl	.L42
 897              		.loc 1 335 0
 898 04c6 D0B2     		uxtb	r0, r2
 899              	.LVL86:
 900 04c8 B0EE480A 		vmov.f32	s0, s16
 901 04cc FFF7FEFF 		bl	comm_can_set_current
 902              	.LVL87:
 903 04d0 DFE7     		b	.L42
 904              	.LVL88:
 905              	.L85:
 906              	.LBE132:
 907              	.LBE133:
 908              	.LBE125:
 909              	.LBE145:
 910              	.LBB146:
 911              		.loc 1 482 0
 912 04d2 B0EE480A 		vmov.f32	s0, s16
ARM GAS  C:\Users\Grillmo\AppData\Local\Temp\ccuXpuxl.s 			page 17


 913 04d6 FFF7FEFF 		bl	mc_interface_set_current
 914              	.LVL89:
 915 04da ADE5     		b	.L86
 916              	.LVL90:
 917              	.L162:
 918              	.LBE146:
 919              		.loc 1 227 0
 920 04dc 0720     		movs	r0, #7
 921 04de FFF7FEFF 		bl	led_external_set_state
 922              	.LVL91:
 923              		.loc 1 228 0
 924 04e2 A9E5     		b	.L86
 925              	.LVL92:
 926              	.L164:
 927              		.loc 1 252 0
 928 04e4 0520     		movs	r0, #5
 929 04e6 FFF7FEFF 		bl	led_external_set_state
 930              	.LVL93:
 931 04ea 23E6     		b	.L20
 932              	.LVL94:
 933              	.L167:
 934              	.LBB147:
 935              		.loc 1 398 0
 936 04ec 9FED806A 		vldr.32	s12, .L175+8
 937              		.loc 1 400 0
 938 04f0 CDED04CA 		vstr.32	s25, [sp, #16]
 939              	.LBE147:
 940              		.loc 1 394 0
 941 04f4 B0EEC77A 		vabs.f32	s14, s14
 942              	.LVL95:
 943 04f8 77EE277A 		vadd.f32	s15, s14, s15
 944              	.LBB148:
 945              		.loc 1 398 0
 946 04fc 66EE866A 		vmul.f32	s13, s13, s12
 947              	.LVL96:
 948              		.loc 1 402 0
 949 0500 B0EE480A 		vmov.f32	s0, s16
 950              		.loc 1 398 0
 951 0504 87EEA6DA 		vdiv.f32	s26, s15, s13
 952              	.LVL97:
 953              		.loc 1 402 0
 954 0508 04A8     		add	r0, sp, #16
 955              	.LVL98:
 956 050a F0EE4D0A 		vmov.f32	s1, s26
 957 050e FFF7FEFF 		bl	utils_step_towards
 958              	.LVL99:
 959              		.loc 1 403 0
 960 0512 9DED048A 		vldr.32	s16, [sp, #16]
 961              	.LVL100:
 962              		.loc 1 408 0
 963 0516 99F80030 		ldrb	r3, [r9]	@ zero_extendqisi2
 964              		.loc 1 407 0
 965 051a 8DED058A 		vstr.32	s16, [sp, #20]
 966              		.loc 1 403 0
 967 051e B0EE487A 		vmov.f32	s14, s16
 968              	.LVL101:
 969              		.loc 1 408 0
ARM GAS  C:\Users\Grillmo\AppData\Local\Temp\ccuXpuxl.s 			page 18


 970 0522 002B     		cmp	r3, #0
 971 0524 6FD0     		beq	.L63
 972              		.loc 1 409 0
 973 0526 7AEE887A 		vadd.f32	s15, s21, s16
 974 052a F0EEE77A 		vabs.f32	s15, s15
 975 052e B4EEE7BA 		vcmpe.f32	s22, s15
 976 0532 F1EE10FA 		vmrs	APSR_nzcv, FPSCR
 977 0536 00F1C980 		bmi	.L172
 978              	.L64:
 979              	.LVL102:
 980              		.loc 1 420 0
 981 053a F4EEC8CA 		vcmpe.f32	s25, s16
 982 053e F1EE10FA 		vmrs	APSR_nzcv, FPSCR
 983 0542 3FF7C9AE 		bgt	.L61
 984              	.LVL103:
 985              	.L68:
 986              		.loc 1 420 0 is_stmt 0 discriminator 3
 987 0546 DDED037A 		vldr.32	s15, [sp, #12]
 988 054a DFED6A6A 		vldr.32	s13, .L175+12
 989 054e F0EEE77A 		vabs.f32	s15, s15
 990 0552 F4EEE67A 		vcmpe.f32	s15, s13
 991 0556 F1EE10FA 		vmrs	APSR_nzcv, FPSCR
 992 055a D8BF     		it	le
 993 055c B0EE478A 		vmovle.f32	s16, s14
 994 0560 BAE6     		b	.L61
 995              	.LVL104:
 996              	.L166:
 997              	.LBE148:
 998              		.loc 1 260 0 is_stmt 1
 999 0562 0320     		movs	r0, #3
 1000 0564 FFF7FEFF 		bl	led_external_set_state
 1001              	.LVL105:
 1002 0568 E4E5     		b	.L20
 1003              	.LVL106:
 1004              	.L154:
 1005              	.LBB149:
 1006 056a B0EE670A 		vmov.f32	s0, s15
 1007              	.LVL107:
 1008 056e 1DE6     		b	.L35
 1009              	.LVL108:
 1010              	.L36:
 1011              		.loc 1 317 0
 1012 0570 66EE876A 		vmul.f32	s13, s13, s14
 1013              		.loc 1 313 0
 1014 0574 5C4B     		ldr	r3, .L175
 1015 0576 DFED5D5A 		vldr.32	s11, .L175+4
 1016 057a D3ED007A 		vldr.32	s15, [r3]
 1017              		.loc 1 319 0
 1018 057e 95ED046A 		vldr.32	s12, [r5, #16]
 1019              		.loc 1 317 0
 1020 0582 86EE857A 		vdiv.f32	s14, s13, s10
 1021 0586 F4EE657A 		vcmp.f32	s15, s11
 1022 058a F1EE10FA 		vmrs	APSR_nzcv, FPSCR
 1023 058e 48BF     		it	mi
 1024 0590 F0EE657A 		vmovmi.f32	s15, s11
 1025 0594 77EE277A 		vadd.f32	s15, s14, s15
 1026              		.loc 1 319 0
ARM GAS  C:\Users\Grillmo\AppData\Local\Temp\ccuXpuxl.s 			page 19


 1027 0598 30EE067A 		vadd.f32	s14, s0, s12
 1028              		.loc 1 317 0
 1029 059c C3ED007A 		vstr.32	s15, [r3]
 1030              		.loc 1 319 0
 1031 05a0 F4EEC77A 		vcmpe.f32	s15, s14
 1032 05a4 F1EE10FA 		vmrs	APSR_nzcv, FPSCR
 1033 05a8 DFDD     		ble	.L154
 1034              		.loc 1 320 0
 1035 05aa D5ED047A 		vldr.32	s15, [r5, #16]
 1036 05ae 30EE270A 		vadd.f32	s0, s0, s15
 1037              	.LVL109:
 1038 05b2 83ED000A 		vstr.32	s0, [r3]
 1039 05b6 F9E5     		b	.L35
 1040              	.LVL110:
 1041              	.L165:
 1042              		.loc 1 291 0 discriminator 1
 1043 05b8 F1EE10FA 		vmrs	APSR_nzcv, FPSCR
 1044 05bc 7FF7F3AD 		ble	.L33
 1045              	.L32:
 1046              		.loc 1 292 0
 1047 05c0 009B     		ldr	r3, [sp]
 1048 05c2 93ED497A 		vldr.32	s14, [r3, #292]
 1049 05c6 F0EEC07A 		vabs.f32	s15, s0
 1050 05ca F4EEC77A 		vcmpe.f32	s15, s14
 1051 05ce F1EE10FA 		vmrs	APSR_nzcv, FPSCR
 1052 05d2 3FF731AD 		bgt	.L86
 1053              		.loc 1 296 0
 1054 05d6 DFED457A 		vldr.32	s15, .L175+4
 1055 05da 434B     		ldr	r3, .L175
 1056 05dc B0EE670A 		vmov.f32	s0, s15
 1057              	.LVL111:
 1058 05e0 C3ED007A 		vstr.32	s15, [r3]
 1059              	.LVL112:
 1060 05e4 DFE5     		b	.L33
 1061              	.LVL113:
 1062              	.L163:
 1063              	.LBE149:
 1064              		.loc 1 232 0 discriminator 3
 1065 05e6 F0EEEA7A 		vabs.f32	s15, s21
 1066              		.loc 1 231 0 discriminator 3
 1067 05ea B4EEE7BA 		vcmpe.f32	s22, s15
 1068 05ee F1EE10FA 		vmrs	APSR_nzcv, FPSCR
 1069 05f2 7FF757AD 		ble	.L13
 1070              		.loc 1 233 0
 1071 05f6 99F80010 		ldrb	r1, [r9]	@ zero_extendqisi2
 1072 05fa 0029     		cmp	r1, #0
 1073 05fc 6ED0     		beq	.L15
 1074              		.loc 1 234 0
 1075 05fe 89F80030 		strb	r3, [r9]
 1076 0602 1846     		mov	r0, r3
 1077 0604 50E5     		b	.L12
 1078              	.LVL114:
 1079              	.L63:
 1080              	.LBB150:
 1081              		.loc 1 413 0
 1082 0606 78EE6A7A 		vsub.f32	s15, s16, s21
 1083 060a F0EEE77A 		vabs.f32	s15, s15
ARM GAS  C:\Users\Grillmo\AppData\Local\Temp\ccuXpuxl.s 			page 20


 1084 060e B4EEE7BA 		vcmpe.f32	s22, s15
 1085 0612 F1EE10FA 		vmrs	APSR_nzcv, FPSCR
 1086 0616 90D5     		bpl	.L64
 1087              		.loc 1 414 0
 1088 0618 7DEE0D0A 		vadd.f32	s1, s26, s26
 1089 061c B0EE6A0A 		vmov.f32	s0, s21
 1090 0620 05A8     		add	r0, sp, #20
 1091 0622 FFF7FEFF 		bl	utils_step_towards
 1092              	.LVL115:
 1093              	.L66:
 1094              		.loc 1 420 0
 1095 0626 F4EEC8CA 		vcmpe.f32	s25, s16
 1096 062a F1EE10FA 		vmrs	APSR_nzcv, FPSCR
 1097              		.loc 1 419 0
 1098 062e DDED057A 		vldr.32	s15, [sp, #20]
 1099 0632 9DED047A 		vldr.32	s14, [sp, #16]
 1100              	.LVL116:
 1101              		.loc 1 420 0
 1102 0636 04DD     		ble	.L157
 1103              		.loc 1 420 0 is_stmt 0 discriminator 2
 1104 0638 F4EEC77A 		vcmpe.f32	s15, s14
 1105 063c F1EE10FA 		vmrs	APSR_nzcv, FPSCR
 1106 0640 4FD5     		bpl	.L158
 1107              	.L157:
 1108              		.loc 1 419 0 is_stmt 1
 1109 0642 B0EE678A 		vmov.f32	s16, s15
 1110              	.LVL117:
 1111 0646 7EE7     		b	.L68
 1112              	.LVL118:
 1113              	.L168:
 1114              	.LBE150:
 1115              		.loc 1 430 0
 1116 0648 B0EE480A 		vmov.f32	s0, s16
 1117 064c FFF7FEFF 		bl	mc_interface_set_brake_current
 1118              	.LVL119:
 1119              	.LBB151:
 1120              		.loc 1 433 0
 1121 0650 4FF0000A 		mov	r10, #0
 1122 0654 03E0     		b	.L76
 1123              	.LVL120:
 1124              	.L74:
 1125              		.loc 1 433 0 is_stmt 0 discriminator 2
 1126 0656 BAF10A0F 		cmp	r10, #10
 1127 065a 3FF4EDAC 		beq	.L86
 1128              	.LVL121:
 1129              	.L76:
 1130              	.LBB152:
 1131              		.loc 1 434 0 is_stmt 1
 1132 065e 5046     		mov	r0, r10
 1133 0660 FFF7FEFF 		bl	comm_can_get_status_msg_index
 1134              	.LVL122:
 1135              		.loc 1 436 0
 1136 0664 0268     		ldr	r2, [r0]
 1137 0666 002A     		cmp	r2, #0
 1138              	.LBE152:
 1139              		.loc 1 433 0
 1140 0668 0AF1010A 		add	r10, r10, #1
ARM GAS  C:\Users\Grillmo\AppData\Local\Temp\ccuXpuxl.s 			page 21


 1141              	.LVL123:
 1142              	.LBB157:
 1143              		.loc 1 436 0
 1144 066c F3DB     		blt	.L74
 1145              	.LBB153:
 1146              	.LBB154:
 1147              		.loc 3 267 0 discriminator 1
 1148 066e 4168     		ldr	r1, [r0, #4]
 1149              	.LBB155:
 1150              	.LBB156:
 1151              		.loc 3 231 0 discriminator 1
 1152 0670 B36A     		ldr	r3, [r6, #40]
 1153              	.LVL124:
 1154              	.LBE156:
 1155              	.LBE155:
 1156              		.loc 3 267 0 discriminator 1
 1157 0672 5B1A     		subs	r3, r3, r1
 1158              	.LBE154:
 1159              	.LBE153:
 1160              		.loc 1 436 0 discriminator 1
 1161 0674 07EE903A 		vmov	s15, r3	@ int
 1162 0678 F8EE677A 		vcvt.f32.u32	s15, s15
 1163 067c 87EE897A 		vdiv.f32	s14, s15, s18
 1164 0680 B4EEE87A 		vcmpe.f32	s14, s17
 1165 0684 F1EE10FA 		vmrs	APSR_nzcv, FPSCR
 1166 0688 E5D5     		bpl	.L74
 1167              		.loc 1 437 0
 1168 068a D0B2     		uxtb	r0, r2
 1169              	.LVL125:
 1170 068c B0EE480A 		vmov.f32	s0, s16
 1171 0690 FFF7FEFF 		bl	comm_can_set_current_brake
 1172              	.LVL126:
 1173 0694 DFE7     		b	.L74
 1174              	.LVL127:
 1175              	.L171:
 1176              	.LBE157:
 1177              	.LBE151:
 1178              	.LBB158:
 1179              	.LBB114:
 1180              		.loc 1 472 0
 1181 0696 9FED152A 		vldr.32	s4, .L175+4
 1182 069a 95ED081A 		vldr.32	s2, [r5, #32]
 1183 069e F0EE481A 		vmov.f32	s3, s16
 1184 06a2 3CEE6B0A 		vsub.f32	s0, s24, s23
 1185              	.LVL128:
 1186 06a6 F0EE420A 		vmov.f32	s1, s4
 1187 06aa FFF7FEFF 		bl	utils_map
 1188              	.LVL129:
 1189              		.loc 1 473 0
 1190 06ae 009B     		ldr	r3, [sp]
 1191              		.loc 1 474 0
 1192 06b0 DFED0E7A 		vldr.32	s15, .L175+4
 1193              		.loc 1 473 0
 1194 06b4 93ED507A 		vldr.32	s14, [r3, #320]
 1195              		.loc 1 474 0
 1196 06b8 B4EE470A 		vcmp.f32	s0, s14
 1197              		.loc 1 472 0
ARM GAS  C:\Users\Grillmo\AppData\Local\Temp\ccuXpuxl.s 			page 22


 1198 06bc B0EE408A 		vmov.f32	s16, s0
 1199              	.LVL130:
 1200              		.loc 1 474 0
 1201 06c0 F1EE10FA 		vmrs	APSR_nzcv, FPSCR
 1202 06c4 48BF     		it	mi
 1203 06c6 B0EE678A 		vmovmi.f32	s16, s15
 1204 06ca 9EE6     		b	.L77
 1205              	.LVL131:
 1206              	.L172:
 1207              	.LBE114:
 1208              	.LBE158:
 1209              	.LBB159:
 1210              		.loc 1 410 0
 1211 06cc 7DEE0D0A 		vadd.f32	s1, s26, s26
 1212 06d0 B1EE6A0A 		vneg.f32	s0, s21
 1213 06d4 05A8     		add	r0, sp, #20
 1214 06d6 FFF7FEFF 		bl	utils_step_towards
 1215              	.LVL132:
 1216 06da A4E7     		b	.L66
 1217              	.LVL133:
 1218              	.L15:
 1219              	.LBE159:
 1220              		.loc 1 236 0
 1221 06dc 89F80020 		strb	r2, [r9]
 1222 06e0 E2E4     		b	.L12
 1223              	.LVL134:
 1224              	.L158:
 1225              	.LBB160:
 1226 06e2 B0EE478A 		vmov.f32	s16, s14
 1227              	.LVL135:
 1228 06e6 F7E5     		b	.L61
 1229              	.L176:
 1230              		.align	2
 1231              	.L175:
 1232 06e8 00000000 		.word	.LANCHOR10
 1233 06ec 00000000 		.word	0
 1234 06f0 00007A44 		.word	1148846080
 1235 06f4 6F12833A 		.word	981668463
 1236              	.LBE160:
 1237              	.LBE161:
 1238              		.cfi_endproc
 1239              	.LFE262:
 1240              		.size	output_thread, .-output_thread
 1241              		.section	.text.app_nunchuk_configure,"ax",%progbits
 1242              		.align	1
 1243              		.p2align 4,,15
 1244              		.global	app_nunchuk_configure
 1245              		.syntax unified
 1246              		.thumb
 1247              		.thumb_func
 1248              		.fpu fpv4-sp-d16
 1249              		.type	app_nunchuk_configure, %function
 1250              	app_nunchuk_configure:
 1251              	.LFB256:
 1252              		.loc 1 59 0
 1253              		.cfi_startproc
 1254              		@ args = 0, pretend = 0, frame = 0
ARM GAS  C:\Users\Grillmo\AppData\Local\Temp\ccuXpuxl.s 			page 23


 1255              		@ frame_needed = 0, uses_anonymous_args = 0
 1256              		@ link register save eliminated.
 1257              	.LVL136:
 1258 0000 30B4     		push	{r4, r5}
 1259              		.cfi_def_cfa_offset 8
 1260              		.cfi_offset 4, -8
 1261              		.cfi_offset 5, -4
 1262              		.loc 1 60 0
 1263 0002 0546     		mov	r5, r0
 1264 0004 0FCD     		ldmia	r5!, {r0, r1, r2, r3}
 1265              	.LVL137:
 1266 0006 064C     		ldr	r4, .L179
 1267 0008 0FC4     		stmia	r4!, {r0, r1, r2, r3}
 1268 000a 0FCD     		ldmia	r5!, {r0, r1, r2, r3}
 1269              	.LVL138:
 1270 000c 0FC4     		stmia	r4!, {r0, r1, r2, r3}
 1271 000e 2A68     		ldr	r2, [r5]
 1272 0010 2260     		str	r2, [r4]
 1273              		.loc 1 62 0
 1274 0012 044B     		ldr	r3, .L179+4
 1275 0014 0449     		ldr	r1, .L179+8
 1276 0016 0548     		ldr	r0, .L179+12
 1277 0018 0022     		movs	r2, #0
 1278              		.loc 1 67 0
 1279 001a 30BC     		pop	{r4, r5}
 1280              		.cfi_restore 5
 1281              		.cfi_restore 4
 1282              		.cfi_def_cfa_offset 0
 1283              	.LVL139:
 1284              		.loc 1 62 0
 1285 001c FFF7FEBF 		b	terminal_register_command_callback
 1286              	.LVL140:
 1287              	.L180:
 1288              		.align	2
 1289              	.L179:
 1290 0020 00000000 		.word	.LANCHOR2
 1291 0024 00000000 		.word	terminal_cmd_nunchuk_status
 1292 0028 00000000 		.word	.LC6
 1293 002c 24000000 		.word	.LC7
 1294              		.cfi_endproc
 1295              	.LFE256:
 1296              		.size	app_nunchuk_configure, .-app_nunchuk_configure
 1297              		.section	.text.app_nunchuk_start,"ax",%progbits
 1298              		.align	1
 1299              		.p2align 4,,15
 1300              		.global	app_nunchuk_start
 1301              		.syntax unified
 1302              		.thumb
 1303              		.thumb_func
 1304              		.fpu fpv4-sp-d16
 1305              		.type	app_nunchuk_start, %function
 1306              	app_nunchuk_start:
 1307              	.LFB257:
 1308              		.loc 1 69 0
 1309              		.cfi_startproc
 1310              		@ args = 0, pretend = 0, frame = 0
 1311              		@ frame_needed = 0, uses_anonymous_args = 0
ARM GAS  C:\Users\Grillmo\AppData\Local\Temp\ccuXpuxl.s 			page 24


 1312 0000 10B5     		push	{r4, lr}
 1313              		.cfi_def_cfa_offset 8
 1314              		.cfi_offset 4, -8
 1315              		.cfi_offset 14, -4
 1316              		.loc 1 70 0
 1317 0002 094A     		ldr	r2, .L183
 1318              		.loc 1 71 0
 1319 0004 094B     		ldr	r3, .L183+4
 1320              		.loc 1 69 0
 1321 0006 82B0     		sub	sp, sp, #8
 1322              		.cfi_def_cfa_offset 16
 1323              		.loc 1 70 0
 1324 0008 8021     		movs	r1, #128
 1325              		.loc 1 71 0
 1326 000a 0024     		movs	r4, #0
 1327              		.loc 1 70 0
 1328 000c 5160     		str	r1, [r2, #4]
 1329              		.loc 1 71 0
 1330 000e 1C70     		strb	r4, [r3]
 1331              		.loc 1 72 0
 1332 0010 FFF7FEFF 		bl	hw_start_i2c
 1333              	.LVL141:
 1334              		.loc 1 73 0
 1335 0014 0094     		str	r4, [sp]
 1336 0016 064B     		ldr	r3, .L183+8
 1337 0018 0648     		ldr	r0, .L183+12
 1338 001a 4022     		movs	r2, #64
 1339 001c 4FF4B361 		mov	r1, #1432
 1340 0020 FFF7FEFF 		bl	chThdCreateStatic
 1341              	.LVL142:
 1342              		.loc 1 74 0
 1343 0024 02B0     		add	sp, sp, #8
 1344              		.cfi_def_cfa_offset 8
 1345              		@ sp needed
 1346 0026 10BD     		pop	{r4, pc}
 1347              	.L184:
 1348              		.align	2
 1349              	.L183:
 1350 0028 00000000 		.word	.LANCHOR4
 1351 002c 00000000 		.word	.LANCHOR12
 1352 0030 00000000 		.word	chuk_thread
 1353 0034 00000000 		.word	.LANCHOR13
 1354              		.cfi_endproc
 1355              	.LFE257:
 1356              		.size	app_nunchuk_start, .-app_nunchuk_start
 1357              		.section	.text.app_nunchuk_stop,"ax",%progbits
 1358              		.align	1
 1359              		.p2align 4,,15
 1360              		.global	app_nunchuk_stop
 1361              		.syntax unified
 1362              		.thumb
 1363              		.thumb_func
 1364              		.fpu fpv4-sp-d16
 1365              		.type	app_nunchuk_stop, %function
 1366              	app_nunchuk_stop:
 1367              	.LFB258:
 1368              		.loc 1 76 0
ARM GAS  C:\Users\Grillmo\AppData\Local\Temp\ccuXpuxl.s 			page 25


 1369              		.cfi_startproc
 1370              		@ args = 0, pretend = 0, frame = 0
 1371              		@ frame_needed = 0, uses_anonymous_args = 0
 1372              		.loc 1 77 0
 1373 0000 084B     		ldr	r3, .L197
 1374              		.loc 1 76 0
 1375 0002 10B5     		push	{r4, lr}
 1376              		.cfi_def_cfa_offset 8
 1377              		.cfi_offset 4, -8
 1378              		.cfi_offset 14, -4
 1379              		.loc 1 77 0
 1380 0004 0122     		movs	r2, #1
 1381              		.loc 1 79 0
 1382 0006 084C     		ldr	r4, .L197+4
 1383              		.loc 1 77 0
 1384 0008 1A70     		strb	r2, [r3]
 1385              		.loc 1 79 0
 1386 000a 2378     		ldrb	r3, [r4]	@ zero_extendqisi2
 1387 000c 1BB1     		cbz	r3, .L195
 1388 000e 06E0     		b	.L196
 1389              	.L191:
 1390              		.loc 1 84 0
 1391 0010 0A20     		movs	r0, #10
 1392 0012 FFF7FEFF 		bl	chThdSleep
 1393              	.LVL143:
 1394              	.L195:
 1395              		.loc 1 83 0
 1396 0016 2378     		ldrb	r3, [r4]	@ zero_extendqisi2
 1397 0018 002B     		cmp	r3, #0
 1398 001a F9D1     		bne	.L191
 1399 001c 10BD     		pop	{r4, pc}
 1400              	.L196:
 1401              		.loc 1 80 0
 1402 001e FFF7FEFF 		bl	hw_stop_i2c
 1403              	.LVL144:
 1404 0022 F8E7     		b	.L195
 1405              	.L198:
 1406              		.align	2
 1407              	.L197:
 1408 0024 00000000 		.word	.LANCHOR12
 1409 0028 00000000 		.word	.LANCHOR14
 1410              		.cfi_endproc
 1411              	.LFE258:
 1412              		.size	app_nunchuk_stop, .-app_nunchuk_stop
 1413              		.section	.text.app_nunchuk_get_decoded_chuk,"ax",%progbits
 1414              		.align	1
 1415              		.p2align 4,,15
 1416              		.global	app_nunchuk_get_decoded_chuk
 1417              		.syntax unified
 1418              		.thumb
 1419              		.thumb_func
 1420              		.fpu fpv4-sp-d16
 1421              		.type	app_nunchuk_get_decoded_chuk, %function
 1422              	app_nunchuk_get_decoded_chuk:
 1423              	.LFB259:
 1424              		.loc 1 88 0
 1425              		.cfi_startproc
ARM GAS  C:\Users\Grillmo\AppData\Local\Temp\ccuXpuxl.s 			page 26


 1426              		@ args = 0, pretend = 0, frame = 0
 1427              		@ frame_needed = 0, uses_anonymous_args = 0
 1428              		@ link register save eliminated.
 1429              		.loc 1 89 0
 1430 0000 064B     		ldr	r3, .L200
 1431 0002 9FED077A 		vldr.32	s14, .L200+4
 1432 0006 D3ED017A 		vldr.32	s15, [r3, #4]	@ int
 1433 000a 9FED060A 		vldr.32	s0, .L200+8
 1434 000e F8EEE77A 		vcvt.f32.s32	s15, s15
 1435 0012 77EEC77A 		vsub.f32	s15, s15, s14
 1436              		.loc 1 90 0
 1437 0016 27EE800A 		vmul.f32	s0, s15, s0
 1438 001a 7047     		bx	lr
 1439              	.L201:
 1440              		.align	2
 1441              	.L200:
 1442 001c 00000000 		.word	.LANCHOR4
 1443 0020 00000043 		.word	1124073472
 1444 0024 0000003C 		.word	1006632960
 1445              		.cfi_endproc
 1446              	.LFE259:
 1447              		.size	app_nunchuk_get_decoded_chuk, .-app_nunchuk_get_decoded_chuk
 1448              		.section	.text.app_nunchuk_update_output,"ax",%progbits
 1449              		.align	1
 1450              		.p2align 4,,15
 1451              		.global	app_nunchuk_update_output
 1452              		.syntax unified
 1453              		.thumb
 1454              		.thumb_func
 1455              		.fpu fpv4-sp-d16
 1456              		.type	app_nunchuk_update_output, %function
 1457              	app_nunchuk_update_output:
 1458              	.LFB260:
 1459              		.loc 1 92 0
 1460              		.cfi_startproc
 1461              		@ args = 0, pretend = 0, frame = 0
 1462              		@ frame_needed = 0, uses_anonymous_args = 0
 1463              	.LVL145:
 1464 0000 F0B5     		push	{r4, r5, r6, r7, lr}
 1465              		.cfi_def_cfa_offset 20
 1466              		.cfi_offset 4, -20
 1467              		.cfi_offset 5, -16
 1468              		.cfi_offset 6, -12
 1469              		.cfi_offset 7, -8
 1470              		.cfi_offset 14, -4
 1471              		.loc 1 93 0
 1472 0002 1649     		ldr	r1, .L207
 1473 0004 0B78     		ldrb	r3, [r1]	@ zero_extendqisi2
 1474              		.loc 1 92 0
 1475 0006 83B0     		sub	sp, sp, #12
 1476              		.cfi_def_cfa_offset 32
 1477              		.loc 1 92 0
 1478 0008 0446     		mov	r4, r0
 1479              		.loc 1 93 0
 1480 000a ABB1     		cbz	r3, .L205
 1481 000c 144E     		ldr	r6, .L207+4
 1482              	.LVL146:
ARM GAS  C:\Users\Grillmo\AppData\Local\Temp\ccuXpuxl.s 			page 27


 1483              	.L203:
 1484              		.loc 1 100 0
 1485 000e 154D     		ldr	r5, .L207+8
 1486 0010 0FCC     		ldmia	r4!, {r0, r1, r2, r3}
 1487              	.LVL147:
 1488 0012 0FC5     		stmia	r5!, {r0, r1, r2, r3}
 1489 0014 94E80300 		ldm	r4, {r0, r1}
 1490              	.LBB162:
 1491              	.LBB163:
 1492              	.LBB164:
 1493              	.LBB165:
 1494              	.LBB166:
 1495              	.LBB167:
 1496              		.file 4 "ChibiOS_3.0.2/os/ext/CMSIS/include/core_cmFunc.h"
 1497              		.loc 4 546 0
 1498 0018 2023     		movs	r3, #32
 1499              	.LBE167:
 1500              	.LBE166:
 1501              	.LBE165:
 1502              	.LBE164:
 1503              	.LBE163:
 1504              	.LBE162:
 1505              		.loc 1 100 0
 1506 001a 85E80300 		stm	r5, {r0, r1}
 1507              	.LVL148:
 1508              	.LBB187:
 1509              	.LBB186:
 1510              	.LBB171:
 1511              	.LBB170:
 1512              	.LBB169:
 1513              	.LBB168:
 1514              		.loc 4 546 0
 1515              		.syntax unified
 1516              	@ 546 "ChibiOS_3.0.2/os/ext/CMSIS/include/core_cmFunc.h" 1
 1517 001e 83F31188 		MSR basepri, r3
 1518              	@ 0 "" 2
 1519              	.LVL149:
 1520              		.thumb
 1521              		.syntax unified
 1522              	.LBE168:
 1523              	.LBE169:
 1524              	.LBE170:
 1525              	.LBE171:
 1526              	.LBB172:
 1527              	.LBB173:
 1528              		.loc 3 231 0
 1529 0022 114B     		ldr	r3, .L207+12
 1530              	.LBE173:
 1531              	.LBE172:
 1532              	.LBB175:
 1533              	.LBB176:
 1534              	.LBB177:
 1535              	.LBB178:
 1536              	.LBB179:
 1537              		.loc 4 546 0
 1538 0024 0022     		movs	r2, #0
 1539              	.LBE179:
ARM GAS  C:\Users\Grillmo\AppData\Local\Temp\ccuXpuxl.s 			page 28


 1540              	.LBE178:
 1541              	.LBE177:
 1542              	.LBE176:
 1543              	.LBE175:
 1544              	.LBB184:
 1545              	.LBB174:
 1546              		.loc 3 231 0
 1547 0026 9B6A     		ldr	r3, [r3, #40]
 1548              	.LVL150:
 1549              	.LBE174:
 1550              	.LBE184:
 1551              	.LBB185:
 1552              	.LBB183:
 1553              	.LBB182:
 1554              	.LBB181:
 1555              	.LBB180:
 1556              		.loc 4 546 0
 1557              		.syntax unified
 1558              	@ 546 "ChibiOS_3.0.2/os/ext/CMSIS/include/core_cmFunc.h" 1
 1559 0028 82F31188 		MSR basepri, r2
 1560              	@ 0 "" 2
 1561              	.LVL151:
 1562              		.thumb
 1563              		.syntax unified
 1564              	.LBE180:
 1565              	.LBE181:
 1566              	.LBE182:
 1567              	.LBE183:
 1568              	.LBE185:
 1569              	.LBE186:
 1570              	.LBE187:
 1571              		.loc 1 101 0
 1572 002c 3360     		str	r3, [r6]
 1573              		.loc 1 103 0
 1574 002e 03B0     		add	sp, sp, #12
 1575              		.cfi_remember_state
 1576              		.cfi_def_cfa_offset 20
 1577              		@ sp needed
 1578 0030 BDE8F040 		pop	{r4, r5, r6, r7, lr}
 1579              		.cfi_restore 14
 1580              		.cfi_restore 7
 1581              		.cfi_restore 6
 1582              		.cfi_restore 5
 1583              		.cfi_restore 4
 1584              		.cfi_def_cfa_offset 0
 1585              	.LVL152:
 1586              		.loc 1 102 0
 1587 0034 FFF7FEBF 		b	timeout_reset
 1588              	.LVL153:
 1589              	.L205:
 1590              		.cfi_restore_state
 1591              		.loc 1 94 0
 1592 0038 094E     		ldr	r6, .L207+4
 1593              		.loc 1 96 0
 1594 003a 0A4D     		ldr	r5, .L207+8
 1595 003c 03F0FF02 		and	r2, r3, #255
 1596              		.loc 1 95 0
ARM GAS  C:\Users\Grillmo\AppData\Local\Temp\ccuXpuxl.s 			page 29


 1597 0040 0120     		movs	r0, #1
 1598              	.LVL154:
 1599              		.loc 1 94 0
 1600 0042 3260     		str	r2, [r6]
 1601              		.loc 1 97 0
 1602 0044 0092     		str	r2, [sp]
 1603              		.loc 1 96 0
 1604 0046 8027     		movs	r7, #128
 1605              		.loc 1 95 0
 1606 0048 0870     		strb	r0, [r1]
 1607              		.loc 1 97 0
 1608 004a 084B     		ldr	r3, .L207+16
 1609 004c 0848     		ldr	r0, .L207+20
 1610              		.loc 1 96 0
 1611 004e 6F60     		str	r7, [r5, #4]
 1612              		.loc 1 97 0
 1613 0050 4022     		movs	r2, #64
 1614 0052 4FF4B361 		mov	r1, #1432
 1615 0056 FFF7FEFF 		bl	chThdCreateStatic
 1616              	.LVL155:
 1617 005a D8E7     		b	.L203
 1618              	.L208:
 1619              		.align	2
 1620              	.L207:
 1621 005c 00000000 		.word	.LANCHOR0
 1622 0060 00000000 		.word	.LANCHOR3
 1623 0064 00000000 		.word	.LANCHOR4
 1624 0068 00000000 		.word	ch
 1625 006c 00000000 		.word	output_thread
 1626 0070 00000000 		.word	.LANCHOR15
 1627              		.cfi_endproc
 1628              	.LFE260:
 1629              		.size	app_nunchuk_update_output, .-app_nunchuk_update_output
 1630              		.section	.text.chuk_thread,"ax",%progbits
 1631              		.align	1
 1632              		.p2align 4,,15
 1633              		.syntax unified
 1634              		.thumb
 1635              		.thumb_func
 1636              		.fpu fpv4-sp-d16
 1637              		.type	chuk_thread, %function
 1638              	chuk_thread:
 1639              	.LFB261:
 1640              		.loc 1 105 0
 1641              		.cfi_startproc
 1642              		@ args = 0, pretend = 0, frame = 48
 1643              		@ frame_needed = 0, uses_anonymous_args = 0
 1644              	.LVL156:
 1645 0000 2DE9F04F 		push	{r4, r5, r6, r7, r8, r9, r10, fp, lr}
 1646              		.cfi_def_cfa_offset 36
 1647              		.cfi_offset 4, -36
 1648              		.cfi_offset 5, -32
 1649              		.cfi_offset 6, -28
 1650              		.cfi_offset 7, -24
 1651              		.cfi_offset 8, -20
 1652              		.cfi_offset 9, -16
 1653              		.cfi_offset 10, -12
ARM GAS  C:\Users\Grillmo\AppData\Local\Temp\ccuXpuxl.s 			page 30


 1654              		.cfi_offset 11, -8
 1655              		.cfi_offset 14, -4
 1656              	.LBB188:
 1657              	.LBB189:
 1658              		.loc 2 135 0
 1659 0004 6E4B     		ldr	r3, .L226
 1660 0006 6F4A     		ldr	r2, .L226+4
 1661 0008 9B69     		ldr	r3, [r3, #24]
 1662              	.LBE189:
 1663              	.LBE188:
 1664              	.LBB191:
 1665              		.loc 1 124 0
 1666 000a DFF8D081 		ldr	r8, .L226+28
 1667              	.LBE191:
 1668              	.LBB196:
 1669              	.LBB190:
 1670              		.loc 2 135 0
 1671 000e 9A61     		str	r2, [r3, #24]
 1672              	.LVL157:
 1673              	.LBE190:
 1674              	.LBE196:
 1675              		.loc 1 109 0
 1676 0010 6D4A     		ldr	r2, .L226+8
 1677 0012 0123     		movs	r3, #1
 1678              		.loc 1 105 0
 1679 0014 91B0     		sub	sp, sp, #68
 1680              		.cfi_def_cfa_offset 104
 1681              		.loc 1 109 0
 1682 0016 1370     		strb	r3, [r2]
 1683              	.LVL158:
 1684              		.loc 1 118 0
 1685 0018 FFF7FEFF 		bl	hw_start_i2c
 1686              	.LVL159:
 1687              		.loc 1 119 0
 1688 001c 6420     		movs	r0, #100
 1689 001e FFF7FEFF 		bl	chThdSleep
 1690              	.LVL160:
 1691              	.LBB197:
 1692              		.loc 1 124 0
 1693 0022 98F80030 		ldrb	r3, [r8]	@ zero_extendqisi2
 1694 0026 002B     		cmp	r3, #0
 1695 0028 40F0C880 		bne	.L224
 1696 002c DFF8A491 		ldr	r9, .L226+20
 1697 0030 664F     		ldr	r7, .L226+12
 1698              		.loc 1 132 0
 1699 0032 674C     		ldr	r4, .L226+16
 1700 0034 09F10605 		add	r5, r9, #6
 1701 0038 04AE     		add	r6, sp, #16
 1702 003a 0EE0     		b	.L210
 1703              	.LVL161:
 1704              	.L211:
 1705              		.loc 1 192 0
 1706 003c 0223     		movs	r3, #2
 1707 003e 3B60     		str	r3, [r7]
 1708              		.loc 1 193 0
 1709 0040 FFF7FEFF 		bl	hw_try_restore_i2c
 1710              	.LVL162:
ARM GAS  C:\Users\Grillmo\AppData\Local\Temp\ccuXpuxl.s 			page 31


 1711              		.loc 1 194 0
 1712 0044 4FF47A70 		mov	r0, #1000
 1713 0048 FFF7FEFF 		bl	chThdSleep
 1714              	.LVL163:
 1715              	.L215:
 1716              		.loc 1 197 0
 1717 004c 6420     		movs	r0, #100
 1718 004e FFF7FEFF 		bl	chThdSleep
 1719              	.LVL164:
 1720              		.loc 1 124 0
 1721 0052 98F80030 		ldrb	r3, [r8]	@ zero_extendqisi2
 1722 0056 002B     		cmp	r3, #0
 1723 0058 7CD1     		bne	.L216
 1724              	.L210:
 1725              		.loc 1 130 0
 1726 005a F022     		movs	r2, #240
 1727              		.loc 1 131 0
 1728 005c 5523     		movs	r3, #85
 1729              		.loc 1 132 0
 1730 005e 2046     		mov	r0, r4
 1731              		.loc 1 130 0
 1732 0060 8DF81C20 		strb	r2, [sp, #28]
 1733              		.loc 1 131 0
 1734 0064 8DF81D30 		strb	r3, [sp, #29]
 1735              		.loc 1 133 0
 1736 0068 4FF0320B 		mov	fp, #50
 1737              		.loc 1 132 0
 1738 006c FFF7FEFF 		bl	i2cAcquireBus
 1739              	.LVL165:
 1740              		.loc 1 133 0
 1741 0070 0023     		movs	r3, #0
 1742 0072 0193     		str	r3, [sp, #4]
 1743 0074 0096     		str	r6, [sp]
 1744 0076 CDF808B0 		str	fp, [sp, #8]
 1745 007a 0223     		movs	r3, #2
 1746 007c 07AA     		add	r2, sp, #28
 1747 007e 5221     		movs	r1, #82
 1748 0080 2046     		mov	r0, r4
 1749 0082 FFF7FEFF 		bl	i2cMasterTransmitTimeout
 1750              	.LVL166:
 1751 0086 8246     		mov	r10, r0
 1752              	.LVL167:
 1753              		.loc 1 134 0
 1754 0088 2046     		mov	r0, r4
 1755              	.LVL168:
 1756 008a FFF7FEFF 		bl	i2cReleaseBus
 1757              	.LVL169:
 1758              		.loc 1 137 0
 1759 008e BAF1000F 		cmp	r10, #0
 1760 0092 D3D1     		bne	.L211
 1761              		.loc 1 138 0
 1762 0094 FB22     		movs	r2, #251
 1763              		.loc 1 140 0
 1764 0096 2046     		mov	r0, r4
 1765              		.loc 1 139 0
 1766 0098 8DF81DA0 		strb	r10, [sp, #29]
 1767              		.loc 1 138 0
ARM GAS  C:\Users\Grillmo\AppData\Local\Temp\ccuXpuxl.s 			page 32


 1768 009c 8DF81C20 		strb	r2, [sp, #28]
 1769              		.loc 1 140 0
 1770 00a0 FFF7FEFF 		bl	i2cAcquireBus
 1771              	.LVL170:
 1772              		.loc 1 141 0
 1773 00a4 8DE8400C 		stm	sp, {r6, r10, fp}
 1774 00a8 0223     		movs	r3, #2
 1775 00aa 07AA     		add	r2, sp, #28
 1776 00ac 5221     		movs	r1, #82
 1777 00ae 2046     		mov	r0, r4
 1778 00b0 FFF7FEFF 		bl	i2cMasterTransmitTimeout
 1779              	.LVL171:
 1780 00b4 8246     		mov	r10, r0
 1781              	.LVL172:
 1782              		.loc 1 142 0
 1783 00b6 2046     		mov	r0, r4
 1784              	.LVL173:
 1785 00b8 FFF7FEFF 		bl	i2cReleaseBus
 1786              	.LVL174:
 1787              		.loc 1 146 0
 1788 00bc BAF1000F 		cmp	r10, #0
 1789 00c0 BCD1     		bne	.L211
 1790              		.loc 1 148 0
 1791 00c2 2046     		mov	r0, r4
 1792              		.loc 1 147 0
 1793 00c4 8DF81CA0 		strb	r10, [sp, #28]
 1794              		.loc 1 148 0
 1795 00c8 FFF7FEFF 		bl	i2cAcquireBus
 1796              	.LVL175:
 1797              		.loc 1 149 0
 1798 00cc 8DE8400C 		stm	sp, {r6, r10, fp}
 1799 00d0 0123     		movs	r3, #1
 1800 00d2 07AA     		add	r2, sp, #28
 1801 00d4 5221     		movs	r1, #82
 1802 00d6 2046     		mov	r0, r4
 1803 00d8 FFF7FEFF 		bl	i2cMasterTransmitTimeout
 1804              	.LVL176:
 1805 00dc 8246     		mov	r10, r0
 1806              	.LVL177:
 1807              		.loc 1 150 0
 1808 00de 2046     		mov	r0, r4
 1809              	.LVL178:
 1810 00e0 FFF7FEFF 		bl	i2cReleaseBus
 1811              	.LVL179:
 1812              		.loc 1 154 0
 1813 00e4 BAF1000F 		cmp	r10, #0
 1814 00e8 A8D1     		bne	.L211
 1815              		.loc 1 155 0
 1816 00ea 1E20     		movs	r0, #30
 1817 00ec FFF7FEFF 		bl	chThdSleep
 1818              	.LVL180:
 1819              		.loc 1 157 0
 1820 00f0 2046     		mov	r0, r4
 1821 00f2 FFF7FEFF 		bl	i2cAcquireBus
 1822              	.LVL181:
 1823              		.loc 1 158 0
 1824 00f6 CDF800B0 		str	fp, [sp]
ARM GAS  C:\Users\Grillmo\AppData\Local\Temp\ccuXpuxl.s 			page 33


 1825 00fa 0623     		movs	r3, #6
 1826 00fc 3246     		mov	r2, r6
 1827 00fe 5221     		movs	r1, #82
 1828 0100 2046     		mov	r0, r4
 1829 0102 FFF7FEFF 		bl	i2cMasterReceiveTimeout
 1830              	.LVL182:
 1831 0106 8346     		mov	fp, r0
 1832              	.LVL183:
 1833              		.loc 1 159 0
 1834 0108 2046     		mov	r0, r4
 1835              	.LVL184:
 1836 010a FFF7FEFF 		bl	i2cReleaseBus
 1837              	.LVL185:
 1838              		.loc 1 163 0
 1839 010e BBF1000F 		cmp	fp, #0
 1840 0112 93D1     		bne	.L211
 1841 0114 2F4B     		ldr	r3, .L226+20
 1842 0116 3146     		mov	r1, r6
 1843 0118 0122     		movs	r2, #1
 1844              	.L213:
 1845              	.LVL186:
 1846              	.LBB192:
 1847              	.LBB193:
 1848              		.loc 1 168 0
 1849 011a 13F801EB 		ldrb	lr, [r3], #1	@ zero_extendqisi2
 1850              	.LVL187:
 1851 011e 11F8010B 		ldrb	r0, [r1], #1	@ zero_extendqisi2
 1852              		.loc 1 169 0
 1853 0122 8645     		cmp	lr, r0
 1854 0124 18BF     		it	ne
 1855 0126 0022     		movne	r2, #0
 1856              	.LVL188:
 1857              		.loc 1 167 0
 1858 0128 9D42     		cmp	r5, r3
 1859 012a F6D1     		bne	.L213
 1860              	.LBE193:
 1861              		.loc 1 173 0
 1862 012c 96E80300 		ldm	r6, {r0, r1}
 1863 0130 294B     		ldr	r3, .L226+24
 1864              	.LVL189:
 1865 0132 C9F80000 		str	r0, [r9]
 1866 0136 1980     		strh	r1, [r3]	@ movhi
 1867              		.loc 1 175 0
 1868 0138 9AB1     		cbz	r2, .L225
 1869              	.LVL190:
 1870              	.L214:
 1871              		.loc 1 188 0
 1872 013a FFF7FEFF 		bl	timeout_has_timeout
 1873              	.LVL191:
 1874 013e 0028     		cmp	r0, #0
 1875 0140 84D0     		beq	.L215
 1876              		.loc 1 189 0
 1877 0142 0123     		movs	r3, #1
 1878              	.LBE192:
 1879              		.loc 1 197 0
 1880 0144 6420     		movs	r0, #100
 1881              	.LBB194:
ARM GAS  C:\Users\Grillmo\AppData\Local\Temp\ccuXpuxl.s 			page 34


 1882              		.loc 1 189 0
 1883 0146 3B60     		str	r3, [r7]
 1884              	.LBE194:
 1885              		.loc 1 197 0
 1886 0148 FFF7FEFF 		bl	chThdSleep
 1887              	.LVL192:
 1888              		.loc 1 124 0
 1889 014c 98F80030 		ldrb	r3, [r8]	@ zero_extendqisi2
 1890 0150 002B     		cmp	r3, #0
 1891 0152 82D0     		beq	.L210
 1892              	.LVL193:
 1893              	.L216:
 1894              		.loc 1 125 0
 1895 0154 1C4A     		ldr	r2, .L226+8
 1896 0156 0023     		movs	r3, #0
 1897 0158 1370     		strb	r3, [r2]
 1898              		.loc 1 126 0
 1899 015a 3B60     		str	r3, [r7]
 1900              	.LBE197:
 1901              		.loc 1 199 0
 1902 015c 11B0     		add	sp, sp, #68
 1903              		.cfi_remember_state
 1904              		.cfi_def_cfa_offset 36
 1905              		@ sp needed
 1906 015e BDE8F08F 		pop	{r4, r5, r6, r7, r8, r9, r10, fp, pc}
 1907              	.LVL194:
 1908              	.L225:
 1909              		.cfi_restore_state
 1910              	.LBB198:
 1911              	.LBB195:
 1912              		.loc 1 179 0
 1913 0162 9DF81530 		ldrb	r3, [sp, #21]	@ zero_extendqisi2
 1914 0166 9DF81200 		ldrb	r0, [sp, #18]	@ zero_extendqisi2
 1915              		.loc 1 180 0
 1916 016a 9DF81310 		ldrb	r1, [sp, #19]	@ zero_extendqisi2
 1917              		.loc 1 176 0
 1918 016e 3A60     		str	r2, [r7]
 1919              		.loc 1 179 0
 1920 0170 C3F38102 		ubfx	r2, r3, #2, #2
 1921              	.LVL195:
 1922              		.loc 1 181 0
 1923 0174 9DF814E0 		ldrb	lr, [sp, #20]	@ zero_extendqisi2
 1924              		.loc 1 179 0
 1925 0178 42EA8002 		orr	r2, r2, r0, lsl #2
 1926              		.loc 1 180 0
 1927 017c C3F30110 		ubfx	r0, r3, #4, #2
 1928 0180 40EA8100 		orr	r0, r0, r1, lsl #2
 1929              		.loc 1 181 0
 1930 0184 9909     		lsrs	r1, r3, #6
 1931 0186 41EA8E01 		orr	r1, r1, lr, lsl #2
 1932              		.loc 1 179 0
 1933 018a 0C92     		str	r2, [sp, #48]
 1934              		.loc 1 182 0
 1935 018c DA43     		mvns	r2, r3
 1936              		.loc 1 183 0
 1937 018e 6FEA5303 		mvn	r3, r3, lsr #1
 1938              		.loc 1 182 0
ARM GAS  C:\Users\Grillmo\AppData\Local\Temp\ccuXpuxl.s 			page 35


 1939 0192 02F00102 		and	r2, r2, #1
 1940              		.loc 1 183 0
 1941 0196 03F00103 		and	r3, r3, #1
 1942              		.loc 1 180 0
 1943 019a 0D90     		str	r0, [sp, #52]
 1944              		.loc 1 177 0
 1945 019c 9DF810E0 		ldrb	lr, [sp, #16]	@ zero_extendqisi2
 1946              		.loc 1 181 0
 1947 01a0 0E91     		str	r1, [sp, #56]
 1948              		.loc 1 185 0
 1949 01a2 0AA8     		add	r0, sp, #40
 1950              		.loc 1 178 0
 1951 01a4 9DF81110 		ldrb	r1, [sp, #17]	@ zero_extendqisi2
 1952              		.loc 1 182 0
 1953 01a8 8DF83D20 		strb	r2, [sp, #61]
 1954              		.loc 1 183 0
 1955 01ac 8DF83C30 		strb	r3, [sp, #60]
 1956              		.loc 1 177 0
 1957 01b0 CDF828E0 		str	lr, [sp, #40]
 1958              		.loc 1 178 0
 1959 01b4 0B91     		str	r1, [sp, #44]
 1960              		.loc 1 185 0
 1961 01b6 FFF7FEFF 		bl	app_nunchuk_update_output
 1962              	.LVL196:
 1963 01ba BEE7     		b	.L214
 1964              	.LVL197:
 1965              	.L224:
 1966 01bc 034F     		ldr	r7, .L226+12
 1967 01be C9E7     		b	.L216
 1968              	.L227:
 1969              		.align	2
 1970              	.L226:
 1971 01c0 00000000 		.word	ch
 1972 01c4 00000000 		.word	.LC8
 1973 01c8 00000000 		.word	.LANCHOR14
 1974 01cc 00000000 		.word	.LANCHOR1
 1975 01d0 00000000 		.word	I2CD2
 1976 01d4 00000000 		.word	.LANCHOR16
 1977 01d8 04000000 		.word	.LANCHOR16+4
 1978 01dc 00000000 		.word	.LANCHOR12
 1979              	.LBE195:
 1980              	.LBE198:
 1981              		.cfi_endproc
 1982              	.LFE261:
 1983              		.size	chuk_thread, .-chuk_thread
 1984              		.section	.bss.chuck_d,"aw",%nobits
 1985              		.align	2
 1986              		.set	.LANCHOR4,. + 0
 1987              		.type	chuck_d, %object
 1988              		.size	chuck_d, 24
 1989              	chuck_d:
 1990 0000 00000000 		.space	24
 1990      00000000 
 1990      00000000 
 1990      00000000 
 1990      00000000 
 1991              		.section	.bss.chuck_error,"aw",%nobits
ARM GAS  C:\Users\Grillmo\AppData\Local\Temp\ccuXpuxl.s 			page 36


 1992              		.align	2
 1993              		.set	.LANCHOR1,. + 0
 1994              		.type	chuck_error, %object
 1995              		.size	chuck_error, 4
 1996              	chuck_error:
 1997 0000 00000000 		.space	4
 1998              		.section	.bss.chuk_thread_wa,"aw",%nobits
 1999              		.align	3
 2000              		.set	.LANCHOR13,. + 0
 2001              		.type	chuk_thread_wa, %object
 2002              		.size	chuk_thread_wa, 1432
 2003              	chuk_thread_wa:
 2004 0000 00000000 		.space	1432
 2004      00000000 
 2004      00000000 
 2004      00000000 
 2004      00000000 
 2005              		.section	.bss.config,"aw",%nobits
 2006              		.align	2
 2007              		.set	.LANCHOR2,. + 0
 2008              		.type	config, %object
 2009              		.size	config, 36
 2010              	config:
 2011 0000 00000000 		.space	36
 2011      00000000 
 2011      00000000 
 2011      00000000 
 2011      00000000 
 2012              		.section	.bss.filter_buffer.11644,"aw",%nobits
 2013              		.align	2
 2014              		.set	.LANCHOR8,. + 0
 2015              		.type	filter_buffer.11644, %object
 2016              		.size	filter_buffer.11644, 32
 2017              	filter_buffer.11644:
 2018 0000 00000000 		.space	32
 2018      00000000 
 2018      00000000 
 2018      00000000 
 2018      00000000 
 2019              		.section	.bss.filter_ptr.11645,"aw",%nobits
 2020              		.align	2
 2021              		.set	.LANCHOR7,. + 0
 2022              		.type	filter_ptr.11645, %object
 2023              		.size	filter_ptr.11645, 4
 2024              	filter_ptr.11645:
 2025 0000 00000000 		.space	4
 2026              		.section	.bss.is_reverse.11636,"aw",%nobits
 2027              		.set	.LANCHOR5,. + 0
 2028              		.type	is_reverse.11636, %object
 2029              		.size	is_reverse.11636, 1
 2030              	is_reverse.11636:
 2031 0000 00       		.space	1
 2032              		.section	.bss.is_running,"aw",%nobits
 2033              		.set	.LANCHOR14,. + 0
 2034              		.type	is_running, %object
 2035              		.size	is_running, 1
 2036              	is_running:
ARM GAS  C:\Users\Grillmo\AppData\Local\Temp\ccuXpuxl.s 			page 37


 2037 0000 00       		.space	1
 2038              		.section	.bss.last_buffer.11624,"aw",%nobits
 2039              		.align	2
 2040              		.set	.LANCHOR16,. + 0
 2041              		.type	last_buffer.11624, %object
 2042              		.size	last_buffer.11624, 6
 2043              	last_buffer.11624:
 2044 0000 00000000 		.space	6
 2044      0000
 2045              		.section	.bss.last_update_time,"aw",%nobits
 2046              		.align	2
 2047              		.set	.LANCHOR3,. + 0
 2048              		.type	last_update_time, %object
 2049              		.size	last_update_time, 4
 2050              	last_update_time:
 2051 0000 00000000 		.space	4
 2052              		.section	.bss.output_running,"aw",%nobits
 2053              		.set	.LANCHOR0,. + 0
 2054              		.type	output_running, %object
 2055              		.size	output_running, 1
 2056              	output_running:
 2057 0000 00       		.space	1
 2058              		.section	.bss.output_thread_wa,"aw",%nobits
 2059              		.align	3
 2060              		.set	.LANCHOR15,. + 0
 2061              		.type	output_thread_wa, %object
 2062              		.size	output_thread_wa, 1432
 2063              	output_thread_wa:
 2064 0000 00000000 		.space	1432
 2064      00000000 
 2064      00000000 
 2064      00000000 
 2064      00000000 
 2065              		.section	.bss.pid_rpm.11651,"aw",%nobits
 2066              		.align	2
 2067              		.set	.LANCHOR10,. + 0
 2068              		.type	pid_rpm.11651, %object
 2069              		.size	pid_rpm.11651, 4
 2070              	pid_rpm.11651:
 2071 0000 00000000 		.space	4
 2072              		.section	.bss.prev_current.11639,"aw",%nobits
 2073              		.align	2
 2074              		.set	.LANCHOR11,. + 0
 2075              		.type	prev_current.11639, %object
 2076              		.size	prev_current.11639, 4
 2077              	prev_current.11639:
 2078 0000 00000000 		.space	4
 2079              		.section	.bss.was_pid.11643,"aw",%nobits
 2080              		.set	.LANCHOR9,. + 0
 2081              		.type	was_pid.11643, %object
 2082              		.size	was_pid.11643, 1
 2083              	was_pid.11643:
 2084 0000 00       		.space	1
 2085              		.section	.bss.was_z.11637,"aw",%nobits
 2086              		.set	.LANCHOR6,. + 0
 2087              		.type	was_z.11637, %object
 2088              		.size	was_z.11637, 1
ARM GAS  C:\Users\Grillmo\AppData\Local\Temp\ccuXpuxl.s 			page 38


 2089              	was_z.11637:
 2090 0000 00       		.space	1
 2091              		.section	.data.stop_now,"aw",%progbits
 2092              		.set	.LANCHOR12,. + 0
 2093              		.type	stop_now, %object
 2094              		.size	stop_now, 1
 2095              	stop_now:
 2096 0000 01       		.byte	1
 2097              		.section	.rodata.app_nunchuk_configure.str1.4,"aMS",%progbits,1
 2098              		.align	2
 2099              	.LC6:
 2100 0000 5072696E 		.ascii	"Print the status of the nunchuk app\000"
 2100      74207468 
 2100      65207374 
 2100      61747573 
 2100      206F6620 
 2101              	.LC7:
 2102 0024 6E756E63 		.ascii	"nunchuk_status\000"
 2102      68756B5F 
 2102      73746174 
 2102      757300
 2103              		.section	.rodata.chuk_thread.str1.4,"aMS",%progbits,1
 2104              		.align	2
 2105              	.LC8:
 2106 0000 4E756E63 		.ascii	"Nunchuk i2c\000"
 2106      68756B20 
 2106      69326300 
 2107              		.section	.rodata.output_thread.str1.4,"aMS",%progbits,1
 2108              		.align	2
 2109              	.LC5:
 2110 0000 4E756E63 		.ascii	"Nunchuk output\000"
 2110      68756B20 
 2110      6F757470 
 2110      757400
 2111              		.section	.rodata.terminal_cmd_nunchuk_status.str1.4,"aMS",%progbits,1
 2112              		.align	2
 2113              	.LC0:
 2114 0000 4F6E00   		.ascii	"On\000"
 2115 0003 00       		.space	1
 2116              	.LC1:
 2117 0004 4F666600 		.ascii	"Off\000"
 2118              	.LC2:
 2119 0008 4E756E63 		.ascii	"Nunchuk Status\000"
 2119      68756B20 
 2119      53746174 
 2119      757300
 2120 0017 00       		.space	1
 2121              	.LC3:
 2122 0018 4F757470 		.ascii	"Output: %s\000"
 2122      75743A20 
 2122      257300
 2123 0023 00       		.space	1
 2124              	.LC4:
 2125 0024 2000     		.ascii	" \000"
 2126              		.text
 2127              	.Letext0:
 2128              		.file 5 "c:\\chibistudio\\tools\\gnu tools arm embedded\\6.3 2017q1\\arm-none-eabi\\include\\machi
ARM GAS  C:\Users\Grillmo\AppData\Local\Temp\ccuXpuxl.s 			page 39


 2129              		.file 6 "c:\\chibistudio\\tools\\gnu tools arm embedded\\6.3 2017q1\\arm-none-eabi\\include\\sys\\
 2130              		.file 7 "c:\\chibistudio\\tools\\gnu tools arm embedded\\6.3 2017q1\\lib\\gcc\\arm-none-eabi\\6.3.
 2131              		.file 8 "ChibiOS_3.0.2/os/rt/ports/ARMCMx/compilers/GCC/chtypes.h"
 2132              		.file 9 "ChibiOS_3.0.2/os/rt/include/chsystypes.h"
 2133              		.file 10 "ChibiOS_3.0.2/os/rt/include/chschd.h"
 2134              		.file 11 "ChibiOS_3.0.2/os/ext/CMSIS/include/core_cm4.h"
 2135              		.file 12 "ChibiOS_3.0.2/os/ext/CMSIS/ST/system_stm32f4xx.h"
 2136              		.file 13 "ChibiOS_3.0.2/os/ext/CMSIS/ST/stm32f407xx.h"
 2137              		.file 14 "ChibiOS_3.0.2/os/rt/ports/ARMCMx/chcore.h"
 2138              		.file 15 "ChibiOS_3.0.2/os/rt/ports/ARMCMx/chcore_v7m.h"
 2139              		.file 16 "ChibiOS_3.0.2/os/rt/include/chtm.h"
 2140              		.file 17 "ChibiOS_3.0.2/os/rt/include/chsem.h"
 2141              		.file 18 "ChibiOS_3.0.2/os/rt/include/chmtx.h"
 2142              		.file 19 "ChibiOS_3.0.2/os/rt/include/chevents.h"
 2143              		.file 20 "ChibiOS_3.0.2/os/rt/include/chqueues.h"
 2144              		.file 21 "./datatypes.h"
 2145              		.file 22 "./conf_general.h"
 2146              		.file 23 "ChibiOS_3.0.2/os/hal/ports/STM32/STM32F4xx/stm32_dma.h"
 2147              		.file 24 "ChibiOS_3.0.2/os/hal/ports/STM32/LLD/GPIOv2/pal_lld.h"
 2148              		.file 25 "ChibiOS_3.0.2/os/hal/include/can.h"
 2149              		.file 26 "ChibiOS_3.0.2/os/hal/ports/STM32/LLD/can_lld.h"
 2150              		.file 27 "ChibiOS_3.0.2/os/hal/include/i2c.h"
 2151              		.file 28 "ChibiOS_3.0.2/os/hal/ports/STM32/LLD/I2Cv1/i2c_lld.h"
 2152              		.file 29 "ChibiOS_3.0.2/os/hal/include/icu.h"
 2153              		.file 30 "ChibiOS_3.0.2/os/hal/ports/STM32/LLD/TIMv1/icu_lld.h"
 2154              		.file 31 "ChibiOS_3.0.2/os/hal/ports/STM32/LLD/TIMv1/stm32_tim.h"
 2155              		.file 32 "ChibiOS_3.0.2/os/hal/include/spi.h"
 2156              		.file 33 "ChibiOS_3.0.2/os/hal/ports/STM32/LLD/SPIv1/spi_lld.h"
 2157              		.file 34 "ChibiOS_3.0.2/os/hal/include/uart.h"
 2158              		.file 35 "ChibiOS_3.0.2/os/hal/ports/STM32/LLD/USARTv1/uart_lld.h"
 2159              		.file 36 "ChibiOS_3.0.2/os/hal/include/usb.h"
 2160              		.file 37 "ChibiOS_3.0.2/os/hal/ports/STM32/LLD/OTGv1/usb_lld.h"
 2161              		.file 38 "ChibiOS_3.0.2/os/hal/ports/STM32/LLD/OTGv1/stm32_otg.h"
 2162              		.file 39 "./mc_interface.h"
 2163              		.file 40 "c:\\chibistudio\\tools\\gnu tools arm embedded\\6.3 2017q1\\arm-none-eabi\\include\\sys\
 2164              		.file 41 "c:\\chibistudio\\tools\\gnu tools arm embedded\\6.3 2017q1\\arm-none-eabi\\include\\sys\
 2165              		.file 42 "c:\\chibistudio\\tools\\gnu tools arm embedded\\6.3 2017q1\\arm-none-eabi\\include\\sys\
 2166              		.file 43 "c:\\chibistudio\\tools\\gnu tools arm embedded\\6.3 2017q1\\arm-none-eabi\\include\\math
 2167              		.file 44 "ChibiOS_3.0.2/os/rt/include/chsys.h"
 2168              		.file 45 "./commands.h"
 2169              		.file 46 "./comm_can.h"
 2170              		.file 47 "./utils.h"
 2171              		.file 48 "ChibiOS_3.0.2/os/rt/include/chthreads.h"
 2172              		.file 49 "./timeout.h"
 2173              		.file 50 "./led_external.h"
 2174              		.file 51 "hwconf/hw.h"
 2175              		.file 52 "./terminal.h"