ARM GAS  C:\Users\Grillmo\AppData\Local\Temp\ccPUAqDN.s 			page 1


   1              		.cpu cortex-m4
   2              		.eabi_attribute 27, 1
   3              		.eabi_attribute 28, 1
   4              		.eabi_attribute 20, 1
   5              		.eabi_attribute 21, 1
   6              		.eabi_attribute 23, 3
   7              		.eabi_attribute 24, 1
   8              		.eabi_attribute 25, 1
   9              		.eabi_attribute 26, 1
  10              		.eabi_attribute 30, 2
  11              		.eabi_attribute 34, 1
  12              		.eabi_attribute 18, 4
  13              		.file	"app_adc.c"
  14              		.text
  15              	.Ltext0:
  16              		.cfi_sections	.debug_frame
  17              		.section	.text.adc_thread,"ax",%progbits
  18              		.align	1
  19              		.p2align 4,,15
  20              		.syntax unified
  21              		.thumb
  22              		.thumb_func
  23              		.fpu fpv4-sp-d16
  24              		.type	adc_thread, %function
  25              	adc_thread:
  26              	.LFB263:
  27              		.file 1 "applications/app_adc.c"
  28              		.loc 1 88 0
  29              		.cfi_startproc
  30              		@ args = 0, pretend = 0, frame = 16
  31              		@ frame_needed = 0, uses_anonymous_args = 0
  32              	.LVL0:
  33 0000 2DE9F04F 		push	{r4, r5, r6, r7, r8, r9, r10, fp, lr}
  34              		.cfi_def_cfa_offset 36
  35              		.cfi_offset 4, -36
  36              		.cfi_offset 5, -32
  37              		.cfi_offset 6, -28
  38              		.cfi_offset 7, -24
  39              		.cfi_offset 8, -20
  40              		.cfi_offset 9, -16
  41              		.cfi_offset 10, -12
  42              		.cfi_offset 11, -8
  43              		.cfi_offset 14, -4
  44              		.loc 1 94 0
  45 0004 B94B     		ldr	r3, .L240
  46              	.LBB64:
  47              	.LBB65:
  48              		.file 2 "ChibiOS_3.0.2/os/rt/include/chregistry.h"
  49              		.loc 2 135 0
  50 0006 DFF83883 		ldr	r8, .L240+84
  51              	.LBE65:
  52              	.LBE64:
  53              		.loc 1 94 0
  54 000a 1B78     		ldrb	r3, [r3]	@ zero_extendqisi2
  55              	.LBB68:
  56              	.LBB66:
  57              		.loc 2 135 0
ARM GAS  C:\Users\Grillmo\AppData\Local\Temp\ccPUAqDN.s 			page 2


  58 000c D8F81820 		ldr	r2, [r8, #24]
  59 0010 B749     		ldr	r1, .L240+4
  60              	.LBE66:
  61              	.LBE68:
  62              		.loc 1 88 0
  63 0012 2DED0A8B 		vpush.64	{d8, d9, d10, d11, d12}
  64              		.cfi_def_cfa_offset 76
  65              		.cfi_offset 80, -76
  66              		.cfi_offset 81, -72
  67              		.cfi_offset 82, -68
  68              		.cfi_offset 83, -64
  69              		.cfi_offset 84, -60
  70              		.cfi_offset 85, -56
  71              		.cfi_offset 86, -52
  72              		.cfi_offset 87, -48
  73              		.cfi_offset 88, -44
  74              		.cfi_offset 89, -40
  75              	.LBB69:
  76              	.LBB67:
  77              		.loc 2 135 0
  78 0016 9161     		str	r1, [r2, #24]
  79              	.LVL1:
  80              	.LBE67:
  81              	.LBE69:
  82              		.loc 1 88 0
  83 0018 85B0     		sub	sp, sp, #20
  84              		.cfi_def_cfa_offset 96
  85              		.loc 1 95 0
  86 001a 2022     		movs	r2, #32
  87              		.loc 1 94 0
  88 001c 002B     		cmp	r3, #0
  89 001e 00F04685 		beq	.L2
  90              		.loc 1 95 0
  91 0022 4021     		movs	r1, #64
  92 0024 B348     		ldr	r0, .L240+8
  93              	.LVL2:
  94 0026 FFF7FEFF 		bl	_pal_lld_setgroupmode
  95              	.LVL3:
  96              		.loc 1 96 0
  97 002a 2022     		movs	r2, #32
  98 002c 8021     		movs	r1, #128
  99 002e B148     		ldr	r0, .L240+8
 100 0030 FFF7FEFF 		bl	_pal_lld_setgroupmode
 101              	.LVL4:
 102              	.L3:
 103              		.loc 1 101 0
 104 0034 B04A     		ldr	r2, .L240+12
 105 0036 B14C     		ldr	r4, .L240+16
 106              	.LBB70:
 107              		.loc 1 120 0
 108 0038 9FEDB18A 		vldr.32	s16, .L240+20
 109              		.loc 1 125 0
 110 003c DFEDB19A 		vldr.32	s19, .L240+24
 111              	.LBB71:
 112              	.LBB72:
 113              	.LBB73:
 114              		.loc 1 476 0
ARM GAS  C:\Users\Grillmo\AppData\Local\Temp\ccPUAqDN.s 			page 3


 115 0040 DFEDB18A 		vldr.32	s17, .L240+28
 116 0044 9FEDB19A 		vldr.32	s18, .L240+32
 117              	.LBE73:
 118              	.LBE72:
 119              	.LBE71:
 120              	.LBE70:
 121              		.loc 1 101 0
 122 0048 0123     		movs	r3, #1
 123 004a 1370     		strb	r3, [r2]
 124              	.L4:
 125              	.LBB162:
 126              		.loc 1 105 0
 127 004c 236C     		ldr	r3, [r4, #64]
 128 004e 42F2107A 		movw	r10, #10000
 129 0052 BAFBF3FA 		udiv	r10, r10, r3
 130              	.LVL5:
 131              		.loc 1 109 0
 132 0056 BAF1000F 		cmp	r10, #0
 133 005a 08BF     		it	eq
 134 005c 4FF0010A 		moveq	r10, #1
 135              	.LVL6:
 136              		.loc 1 111 0
 137 0060 5046     		mov	r0, r10
 138 0062 FFF7FEFF 		bl	chThdSleep
 139              	.LVL7:
 140              		.loc 1 113 0
 141 0066 AA4B     		ldr	r3, .L240+36
 142 0068 1B78     		ldrb	r3, [r3]	@ zero_extendqisi2
 143 006a 03F0FF07 		and	r7, r3, #255
 144 006e 002B     		cmp	r3, #0
 145 0070 40F09884 		bne	.L229
 146              		.loc 1 119 0
 147 0074 FFF7FEFF 		bl	mc_interface_get_fault
 148              	.LVL8:
 149 0078 18B1     		cbz	r0, .L7
 150              		.loc 1 120 0
 151 007a DFF8C8B2 		ldr	fp, .L240+88
 152 007e 8BED008A 		vstr.32	s16, [fp]
 153              	.L7:
 154              		.loc 1 124 0
 155 0082 A44D     		ldr	r5, .L240+40
 156              		.loc 1 126 0
 157 0084 9FEDA40A 		vldr.32	s0, .L240+44
 158              		.loc 1 124 0
 159 0088 AB8A     		ldrh	r3, [r5, #20]
 160              		.loc 1 128 0
 161 008a A44A     		ldr	r2, .L240+48
 162              		.loc 1 124 0
 163 008c 9BB2     		uxth	r3, r3
 164 008e 07EE903A 		vmov	s15, r3	@ int
 165 0092 B8EE677A 		vcvt.f32.u32	s14, s15
 166              		.loc 1 125 0
 167 0096 C7EE297A 		vdiv.f32	s15, s14, s19
 168              		.loc 1 126 0
 169 009a 27EE800A 		vmul.f32	s0, s15, s0
 170              		.loc 1 128 0
 171 009e 82ED000A 		vstr.32	s0, [r2]
ARM GAS  C:\Users\Grillmo\AppData\Local\Temp\ccPUAqDN.s 			page 4


 172              		.loc 1 131 0
 173 00a2 237F     		ldrb	r3, [r4, #28]	@ zero_extendqisi2
 174              		.loc 1 126 0
 175 00a4 8DED020A 		vstr.32	s0, [sp, #8]
 176              		.loc 1 131 0
 177 00a8 F3B1     		cbz	r3, .L8
 178              	.LBB82:
 179              		.loc 1 135 0
 180 00aa 9D4A     		ldr	r2, .L240+52
 181 00ac 9D4B     		ldr	r3, .L240+56
 182 00ae 1068     		ldr	r0, [r2]
 183              	.LBE82:
 184              		.loc 1 109 0
 185 00b0 DFED937A 		vldr.32	s15, .L240+20
 186              	.LBB84:
 187              		.loc 1 135 0
 188 00b4 411C     		adds	r1, r0, #1
 189 00b6 03EB8003 		add	r3, r3, r0, lsl #2
 190              		.loc 1 136 0
 191 00ba 0429     		cmp	r1, #4
 192              		.loc 1 135 0
 193 00bc 83ED000A 		vstr.32	s0, [r3]
 194              		.loc 1 137 0
 195 00c0 C8BF     		it	gt
 196 00c2 0023     		movgt	r3, #0
 197              		.loc 1 135 0
 198 00c4 1160     		str	r1, [r2]
 199              		.loc 1 137 0
 200 00c6 C8BF     		it	gt
 201 00c8 1360     		strgt	r3, [r2]
 202              	.LVL9:
 203 00ca 964B     		ldr	r3, .L240+56
 204 00cc 03F11402 		add	r2, r3, #20
 205              	.LVL10:
 206              	.L10:
 207              	.LBB83:
 208              		.loc 1 142 0 discriminator 3
 209 00d0 B3EC017A 		vldmia.32	r3!, {s14}
 210              		.loc 1 141 0 discriminator 3
 211 00d4 9A42     		cmp	r2, r3
 212              		.loc 1 142 0 discriminator 3
 213 00d6 77EE877A 		vadd.f32	s15, s15, s14
 214              		.loc 1 141 0 discriminator 3
 215 00da F9D1     		bne	.L10
 216              	.LBE83:
 217              		.loc 1 144 0
 218 00dc B1EE047A 		vmov.f32	s14, #5.0e+0
 219 00e0 87EE870A 		vdiv.f32	s0, s15, s14
 220 00e4 8DED020A 		vstr.32	s0, [sp, #8]
 221              	.L8:
 222              	.LBE84:
 223              		.loc 1 148 0
 224 00e8 2378     		ldrb	r3, [r4]	@ zero_extendqisi2
 225 00ea DBB2     		uxtb	r3, r3
 226 00ec 0C2B     		cmp	r3, #12
 227 00ee 00F22B82 		bhi	.L11
 228 00f2 0122     		movs	r2, #1
ARM GAS  C:\Users\Grillmo\AppData\Local\Temp\ccPUAqDN.s 			page 5


 229 00f4 02FA03F3 		lsl	r3, r2, r3
 230 00f8 41F22422 		movw	r2, #4644
 231 00fc 1342     		tst	r3, r2
 232 00fe 00F02382 		beq	.L11
 233              		.loc 1 154 0
 234 0102 D4ED047A 		vldr.32	s15, [r4, #16]
 235 0106 F4EEC07A 		vcmpe.f32	s15, s0
 236 010a F1EE10FA 		vmrs	APSR_nzcv, FPSCR
 237 010e 40F30184 		ble	.L218
 238              		.loc 1 155 0
 239 0112 D4ED020A 		vldr.32	s1, [r4, #8]
 240 0116 94ED041A 		vldr.32	s2, [r4, #16]
 241 011a B6EE002A 		vmov.f32	s4, #5.0e-1
 242 011e F0EE481A 		vmov.f32	s3, s16
 243 0122 FFF7FEFF 		bl	utils_map
 244              	.LVL11:
 245 0126 8DED020A 		vstr.32	s0, [sp, #8]
 246              	.L14:
 247              		.loc 1 170 0
 248 012a 02A8     		add	r0, sp, #8
 249 012c F7EE000A 		vmov.f32	s1, #1.0e+0
 250 0130 B0EE480A 		vmov.f32	s0, s16
 251 0134 FFF7FEFF 		bl	utils_truncate_number
 252              	.LVL12:
 253              		.loc 1 173 0
 254 0138 94F82030 		ldrb	r3, [r4, #32]	@ zero_extendqisi2
 255              		.loc 1 174 0
 256 013c DDED027A 		vldr.32	s15, [sp, #8]
 257              		.loc 1 173 0
 258 0140 2BB1     		cbz	r3, .L16
 259              		.loc 1 174 0
 260 0142 B7EE007A 		vmov.f32	s14, #1.0e+0
 261 0146 77EE677A 		vsub.f32	s15, s14, s15
 262 014a CDED027A 		vstr.32	s15, [sp, #8]
 263              	.L16:
 264              		.loc 1 177 0
 265 014e 764B     		ldr	r3, .L240+60
 266              		.loc 1 183 0
 267 0150 9FED710A 		vldr.32	s0, .L240+44
 268              		.loc 1 177 0
 269 0154 C3ED007A 		vstr.32	s15, [r3]
 270              		.loc 1 181 0
 271 0158 EB89     		ldrh	r3, [r5, #14]
 272              		.loc 1 188 0
 273 015a 744A     		ldr	r2, .L240+64
 274              		.loc 1 181 0
 275 015c 9BB2     		uxth	r3, r3
 276 015e 07EE903A 		vmov	s15, r3	@ int
 277 0162 B8EE677A 		vcvt.f32.u32	s14, s15
 278              		.loc 1 182 0
 279 0166 C7EE297A 		vdiv.f32	s15, s14, s19
 280              		.loc 1 183 0
 281 016a 27EE800A 		vmul.f32	s0, s15, s0
 282              		.loc 1 188 0
 283 016e 82ED000A 		vstr.32	s0, [r2]
 284              		.loc 1 191 0
 285 0172 237F     		ldrb	r3, [r4, #28]	@ zero_extendqisi2
ARM GAS  C:\Users\Grillmo\AppData\Local\Temp\ccPUAqDN.s 			page 6


 286              		.loc 1 183 0
 287 0174 8DED030A 		vstr.32	s0, [sp, #12]
 288              		.loc 1 191 0
 289 0178 F3B1     		cbz	r3, .L17
 290              	.LBB85:
 291              		.loc 1 195 0
 292 017a 6D4A     		ldr	r2, .L240+68
 293 017c 6D4B     		ldr	r3, .L240+72
 294 017e 1068     		ldr	r0, [r2]
 295              	.LBE85:
 296              		.loc 1 109 0
 297 0180 DFED5F7A 		vldr.32	s15, .L240+20
 298              	.LBB87:
 299              		.loc 1 195 0
 300 0184 411C     		adds	r1, r0, #1
 301 0186 03EB8003 		add	r3, r3, r0, lsl #2
 302              		.loc 1 196 0
 303 018a 0429     		cmp	r1, #4
 304              		.loc 1 195 0
 305 018c 83ED000A 		vstr.32	s0, [r3]
 306              		.loc 1 197 0
 307 0190 C8BF     		it	gt
 308 0192 0023     		movgt	r3, #0
 309              		.loc 1 195 0
 310 0194 1160     		str	r1, [r2]
 311              		.loc 1 197 0
 312 0196 C8BF     		it	gt
 313 0198 1360     		strgt	r3, [r2]
 314              	.LVL13:
 315 019a 664B     		ldr	r3, .L240+72
 316 019c 03F11402 		add	r2, r3, #20
 317              	.LVL14:
 318              	.L19:
 319              	.LBB86:
 320              		.loc 1 202 0 discriminator 3
 321 01a0 B3EC017A 		vldmia.32	r3!, {s14}
 322              		.loc 1 201 0 discriminator 3
 323 01a4 9342     		cmp	r3, r2
 324              		.loc 1 202 0 discriminator 3
 325 01a6 77EE877A 		vadd.f32	s15, s15, s14
 326              		.loc 1 201 0 discriminator 3
 327 01aa F9D1     		bne	.L19
 328              	.LBE86:
 329              		.loc 1 204 0
 330 01ac B1EE047A 		vmov.f32	s14, #5.0e+0
 331 01b0 87EE870A 		vdiv.f32	s0, s15, s14
 332 01b4 8DED030A 		vstr.32	s0, [sp, #12]
 333              	.L17:
 334              	.LBE87:
 335              		.loc 1 208 0
 336 01b8 D4ED050A 		vldr.32	s1, [r4, #20]
 337 01bc 94ED061A 		vldr.32	s2, [r4, #24]
 338 01c0 B7EE002A 		vmov.f32	s4, #1.0e+0
 339 01c4 F0EE481A 		vmov.f32	s3, s16
 340 01c8 FFF7FEFF 		bl	utils_map
 341              	.LVL15:
 342 01cc 04A8     		add	r0, sp, #16
ARM GAS  C:\Users\Grillmo\AppData\Local\Temp\ccPUAqDN.s 			page 7


 343 01ce 20ED010A 		vstmdb.32	r0!, {s0}
 344              		.loc 1 209 0
 345 01d2 F7EE000A 		vmov.f32	s1, #1.0e+0
 346 01d6 B0EE480A 		vmov.f32	s0, s16
 347 01da FFF7FEFF 		bl	utils_truncate_number
 348              	.LVL16:
 349              		.loc 1 212 0
 350 01de 94F82130 		ldrb	r3, [r4, #33]	@ zero_extendqisi2
 351              		.loc 1 213 0
 352 01e2 DDED037A 		vldr.32	s15, [sp, #12]
 353              		.loc 1 212 0
 354 01e6 2BB1     		cbz	r3, .L21
 355              		.loc 1 213 0
 356 01e8 B7EE007A 		vmov.f32	s14, #1.0e+0
 357 01ec 77EE677A 		vsub.f32	s15, s14, s15
 358 01f0 CDED037A 		vstr.32	s15, [sp, #12]
 359              	.L21:
 360              		.loc 1 216 0
 361 01f4 504B     		ldr	r3, .L240+76
 362 01f6 C3ED007A 		vstr.32	s15, [r3]
 363              	.LVL17:
 364              		.loc 1 221 0
 365 01fa 3C4B     		ldr	r3, .L240
 366 01fc 1B78     		ldrb	r3, [r3]	@ zero_extendqisi2
 367 01fe 03F0FF02 		and	r2, r3, #255
 368 0202 002B     		cmp	r3, #0
 369 0204 00F01682 		beq	.L22
 370              		.loc 1 222 0
 371 0208 3A4B     		ldr	r3, .L240+8
 372 020a 1D69     		ldr	r5, [r3, #16]
 373              		.loc 1 223 0
 374 020c A37F     		ldrb	r3, [r4, #30]	@ zero_extendqisi2
 375              		.loc 1 222 0
 376 020e AD09     		lsrs	r5, r5, #6
 377              	.LVL18:
 378              		.loc 1 223 0
 379 0210 03B9     		cbnz	r3, .L226
 380 0212 ED43     		mvns	r5, r5
 381              	.LVL19:
 382              	.L226:
 383              		.loc 1 226 0
 384 0214 374B     		ldr	r3, .L240+8
 385 0216 1E69     		ldr	r6, [r3, #16]
 386              		.loc 1 227 0
 387 0218 E37F     		ldrb	r3, [r4, #31]	@ zero_extendqisi2
 388              		.loc 1 226 0
 389 021a F609     		lsrs	r6, r6, #7
 390 021c 05F00105 		and	r5, r5, #1
 391              	.LVL20:
 392 0220 F243     		mvns	r2, r6
 393              	.LVL21:
 394              		.loc 1 227 0
 395 0222 002B     		cmp	r3, #0
 396 0224 00F00483 		beq	.L227
 397              		.loc 1 228 0
 398 0228 06F00106 		and	r6, r6, #1
 399              	.LVL22:
ARM GAS  C:\Users\Grillmo\AppData\Local\Temp\ccPUAqDN.s 			page 8


 400              	.L26:
 401              		.loc 1 247 0
 402 022c 2378     		ldrb	r3, [r4]	@ zero_extendqisi2
 403 022e DBB2     		uxtb	r3, r3
 404 0230 0D2B     		cmp	r3, #13
 405 0232 15D8     		bhi	.L31
 406 0234 0122     		movs	r2, #1
 407 0236 02FA03F3 		lsl	r3, r2, r3
 408 023a 42F24842 		movw	r2, #9288
 409 023e 1342     		tst	r3, r2
 410 0240 40F02C83 		bne	.L32
 411 0244 41F22422 		movw	r2, #4644
 412 0248 1342     		tst	r3, r2
 413 024a 40F05883 		bne	.L33
 414 024e 13F0900F 		tst	r3, #144
 415 0252 05D0     		beq	.L31
 416              		.loc 1 259 0
 417 0254 9DED027A 		vldr.32	s14, [sp, #8]
 418 0258 77EE677A 		vsub.f32	s15, s14, s15
 419 025c CDED027A 		vstr.32	s15, [sp, #8]
 420              	.L31:
 421              		.loc 1 277 0
 422 0260 94ED010A 		vldr.32	s0, [r4, #4]
 423              		.loc 1 285 0
 424 0264 DFF8E090 		ldr	r9, .L240+92
 425              		.loc 1 277 0
 426 0268 02A8     		add	r0, sp, #8
 427 026a F7EE000A 		vmov.f32	s1, #1.0e+0
 428 026e FFF7FEFF 		bl	utils_deadband
 429              	.LVL23:
 430              		.loc 1 280 0
 431 0272 D4ED090A 		vldr.32	s1, [r4, #36]
 432 0276 9DED020A 		vldr.32	s0, [sp, #8]
 433 027a 94ED0A1A 		vldr.32	s2, [r4, #40]
 434 027e 94F82C00 		ldrb	r0, [r4, #44]	@ zero_extendqisi2
 435 0282 FFF7FEFF 		bl	utils_throttle_curve
 436              	.LVL24:
 437              		.loc 1 285 0
 438 0286 D9ED007A 		vldr.32	s15, [r9]
 439              		.loc 1 280 0
 440 028a 8DED020A 		vstr.32	s0, [sp, #8]
 441              		.loc 1 285 0
 442 028e F0EEE77A 		vabs.f32	s15, s15
 443 0292 B0EEC07A 		vabs.f32	s14, s0
 444 0296 B4EEE77A 		vcmpe.f32	s14, s15
 445 029a F1EE10FA 		vmrs	APSR_nzcv, FPSCR
 446 029e CCBF     		ite	gt
 447 02a0 D4ED0C0A 		vldrgt.32	s1, [r4, #48]
 448 02a4 D4ED0D0A 		vldrle.32	s1, [r4, #52]
 449              	.LVL25:
 450              		.loc 1 287 0
 451 02a8 DFED247A 		vldr.32	s15, .L240+80
 452 02ac F4EEE70A 		vcmpe.f32	s1, s15
 453 02b0 F1EE10FA 		vmrs	APSR_nzcv, FPSCR
 454 02b4 00F3CC82 		bgt	.L230
 455              	.LVL26:
 456              	.L38:
ARM GAS  C:\Users\Grillmo\AppData\Local\Temp\ccPUAqDN.s 			page 9


 457              		.loc 1 297 0
 458 02b8 FFF7FEFF 		bl	mc_interface_get_configuration
 459              	.LVL27:
 460 02bc 8146     		mov	r9, r0
 461              	.LVL28:
 462              		.loc 1 298 0
 463 02be FFF7FEFF 		bl	mc_interface_get_rpm
 464              	.LVL29:
 465              		.loc 1 302 0
 466 02c2 2378     		ldrb	r3, [r4]	@ zero_extendqisi2
 467 02c4 013B     		subs	r3, r3, #1
 468 02c6 0C2B     		cmp	r3, #12
 469 02c8 3FF6C0AE 		bhi	.L4
 470 02cc DFE813F0 		tbh	[pc, r3, lsl #1]
 471              	.L42:
 472 02d0 0A01     		.2byte	(.L41-.L42)/2
 473 02d2 0A01     		.2byte	(.L41-.L42)/2
 474 02d4 0A01     		.2byte	(.L41-.L42)/2
 475 02d6 EB00     		.2byte	(.L43-.L42)/2
 476 02d8 EB00     		.2byte	(.L43-.L42)/2
 477 02da EB00     		.2byte	(.L43-.L42)/2
 478 02dc EB00     		.2byte	(.L43-.L42)/2
 479 02de CA00     		.2byte	(.L44-.L42)/2
 480 02e0 CA00     		.2byte	(.L44-.L42)/2
 481 02e2 CA00     		.2byte	(.L44-.L42)/2
 482 02e4 3E00     		.2byte	(.L45-.L42)/2
 483 02e6 3E00     		.2byte	(.L45-.L42)/2
 484 02e8 3E00     		.2byte	(.L45-.L42)/2
 485              		.p2align 1
 486              	.L241:
 487 02ea 00BF     		.align	2
 488              	.L240:
 489 02ec 00000000 		.word	.LANCHOR0
 490 02f0 00000000 		.word	.LC0
 491 02f4 00080240 		.word	1073874944
 492 02f8 00000000 		.word	.LANCHOR1
 493 02fc 00000000 		.word	.LANCHOR2
 494 0300 00000000 		.word	0
 495 0304 00F07F45 		.word	1166012416
 496 0308 00401C46 		.word	1176256512
 497 030c CDCCCC3D 		.word	1036831949
 498 0310 00000000 		.word	.LANCHOR3
 499 0314 00000000 		.word	ADC_Value
 500 0318 33335340 		.word	1079194419
 501 031c 00000000 		.word	.LANCHOR5
 502 0320 00000000 		.word	.LANCHOR6
 503 0324 00000000 		.word	.LANCHOR7
 504 0328 00000000 		.word	.LANCHOR8
 505 032c 00000000 		.word	.LANCHOR9
 506 0330 00000000 		.word	.LANCHOR10
 507 0334 00000000 		.word	.LANCHOR11
 508 0338 00000000 		.word	.LANCHOR12
 509 033c 0AD7233C 		.word	1008981770
 510 0340 00000000 		.word	ch
 511 0344 00000000 		.word	.LANCHOR4
 512 0348 00000000 		.word	.LANCHOR13
 513              	.L45:
ARM GAS  C:\Users\Grillmo\AppData\Local\Temp\ccPUAqDN.s 			page 10


 514              		.loc 1 355 0
 515 034c DDED027A 		vldr.32	s15, [sp, #8]
 516 0350 F5EEC07A 		vcmpe.f32	s15, #0
 517 0354 F1EE10FA 		vmrs	APSR_nzcv, FPSCR
 518 0358 C0F22C83 		blt	.L64
 519              		.loc 1 355 0 is_stmt 0 discriminator 1
 520 035c B5EEC00A 		vcmpe.f32	s0, #0
 521 0360 F1EE10FA 		vmrs	APSR_nzcv, FPSCR
 522 0364 40F32683 		ble	.L64
 523              	.L66:
 524              		.loc 1 356 0 is_stmt 1
 525 0368 D9ED1DAA 		vldr.32	s21, [r9, #116]
 526 036c 67EEAAAA 		vmul.f32	s21, s15, s21
 527              	.LVL30:
 528              	.L70:
 529              		.loc 1 361 0
 530 0370 DFF818B3 		ldr	fp, .L242+36
 531 0374 9FEDBC7A 		vldr.32	s14, .L242
 532 0378 DBED006A 		vldr.32	s13, [fp]
 533 037c F4EEC76A 		vcmpe.f32	s13, s14
 534 0380 F1EE10FA 		vmrs	APSR_nzcv, FPSCR
 535 0384 40F19482 		bpl	.L71
 536              		.loc 1 361 0 is_stmt 0 discriminator 1
 537 0388 637F     		ldrb	r3, [r4, #29]	@ zero_extendqisi2
 538 038a 002B     		cmp	r3, #0
 539 038c 00F09082 		beq	.L71
 540              		.loc 1 299 0 is_stmt 1
 541 0390 0026     		movs	r6, #0
 542              	.LVL31:
 543              	.L73:
 544              		.loc 1 373 0
 545 0392 9FEDB67A 		vldr.32	s14, .L242+4
 546 0396 F0EEE77A 		vabs.f32	s15, s15
 547 039a F4EEC77A 		vcmpe.f32	s15, s14
 548 039e F1EE10FA 		vmrs	APSR_nzcv, FPSCR
 549 03a2 40F1C582 		bpl	.L223
 550              		.loc 1 374 0
 551 03a6 07EE90AA 		vmov	s15, r10	@ int
 552 03aa B8EEE77A 		vcvt.f32.s32	s14, s15
 553 03ae DFEDB07A 		vldr.32	s15, .L242+8
 554 03b2 DBED006A 		vldr.32	s13, [fp]
 555 03b6 67EE277A 		vmul.f32	s15, s14, s15
 556              		.loc 1 295 0
 557 03ba 4FF0000A 		mov	r10, #0
 558              	.LVL32:
 559              		.loc 1 374 0
 560 03be 87EEA87A 		vdiv.f32	s14, s15, s17
 561 03c2 77EE267A 		vadd.f32	s15, s14, s13
 562 03c6 CBED007A 		vstr.32	s15, [fp]
 563              	.LVL33:
 564              	.L53:
 565              		.loc 1 383 0
 566 03ca 9BED007A 		vldr.32	s14, [fp]
 567 03ce DFEDA67A 		vldr.32	s15, .L242
 568 03d2 B4EEE77A 		vcmpe.f32	s14, s15
 569 03d6 F1EE10FA 		vmrs	APSR_nzcv, FPSCR
 570 03da 40F1C280 		bpl	.L78
ARM GAS  C:\Users\Grillmo\AppData\Local\Temp\ccPUAqDN.s 			page 11


 571              		.loc 1 383 0 is_stmt 0 discriminator 1
 572 03de 637F     		ldrb	r3, [r4, #29]	@ zero_extendqisi2
 573 03e0 002B     		cmp	r3, #0
 574 03e2 00F0BE80 		beq	.L78
 575              	.LBB88:
 576              		.loc 1 385 0 is_stmt 1
 577 03e6 A34B     		ldr	r3, .L242+12
 578 03e8 9BED007A 		vldr.32	s14, [fp]
 579 03ec D3ED007A 		vldr.32	s15, [r3]	@ int
 580 03f0 F8EEE77A 		vcvt.f32.s32	s15, s15
 581 03f4 F4EE477A 		vcmp.f32	s15, s14
 582 03f8 F1EE10FA 		vmrs	APSR_nzcv, FPSCR
 583              		.loc 1 386 0
 584 03fc 08BF     		it	eq
 585 03fe 8BED008A 		vstreq.32	s16, [fp]
 586              		.loc 1 388 0
 587 0402 DBED007A 		vldr.32	s15, [fp]
 588 0406 FDEEE77A 		vcvt.s32.f32	s15, s15
 589 040a C3ED007A 		vstr.32	s15, [r3]	@ int
 590              		.loc 1 389 0
 591 040e FFF7FEFF 		bl	timeout_get_brake_current
 592              	.LVL34:
 593 0412 FFF7FEFF 		bl	mc_interface_set_brake_current
 594              	.LVL35:
 595              		.loc 1 391 0
 596 0416 94F83830 		ldrb	r3, [r4, #56]	@ zero_extendqisi2
 597 041a 002B     		cmp	r3, #0
 598 041c 3FF416AE 		beq	.L4
 599 0420 0025     		movs	r5, #0
 600              	.LVL36:
 601 0422 02E0     		b	.L84
 602              	.LVL37:
 603              	.L82:
 604              	.LBB89:
 605              		.loc 1 392 0 discriminator 2
 606 0424 0A2D     		cmp	r5, #10
 607 0426 3FF411AE 		beq	.L4
 608              	.LVL38:
 609              	.L84:
 610              	.LBB90:
 611              		.loc 1 393 0
 612 042a 2846     		mov	r0, r5
 613 042c FFF7FEFF 		bl	comm_can_get_status_msg_index
 614              	.LVL39:
 615              		.loc 1 395 0
 616 0430 0668     		ldr	r6, [r0]
 617 0432 002E     		cmp	r6, #0
 618              	.LBE90:
 619              		.loc 1 392 0
 620 0434 05F10105 		add	r5, r5, #1
 621              	.LVL40:
 622              	.LBB95:
 623              		.loc 1 395 0
 624 0438 F4DB     		blt	.L82
 625              	.LBB91:
 626              	.LBB92:
 627              		.file 3 "ChibiOS_3.0.2/os/rt/include/chvt.h"
ARM GAS  C:\Users\Grillmo\AppData\Local\Temp\ccPUAqDN.s 			page 12


 628              		.loc 3 267 0 discriminator 1
 629 043a 4268     		ldr	r2, [r0, #4]
 630              	.LBB93:
 631              	.LBB94:
 632              		.loc 3 231 0 discriminator 1
 633 043c D8F82830 		ldr	r3, [r8, #40]
 634              	.LVL41:
 635              	.LBE94:
 636              	.LBE93:
 637              		.loc 3 267 0 discriminator 1
 638 0440 9B1A     		subs	r3, r3, r2
 639              	.LBE92:
 640              	.LBE91:
 641              		.loc 1 395 0 discriminator 1
 642 0442 07EE903A 		vmov	s15, r3	@ int
 643 0446 F8EE677A 		vcvt.f32.u32	s15, s15
 644 044a 87EEA87A 		vdiv.f32	s14, s15, s17
 645 044e B4EEC97A 		vcmpe.f32	s14, s18
 646 0452 F1EE10FA 		vmrs	APSR_nzcv, FPSCR
 647 0456 E5D5     		bpl	.L82
 648              		.loc 1 396 0
 649 0458 FFF7FEFF 		bl	timeout_get_brake_current
 650              	.LVL42:
 651 045c F0B2     		uxtb	r0, r6
 652 045e FFF7FEFF 		bl	comm_can_set_current_brake
 653              	.LVL43:
 654 0462 DFE7     		b	.L82
 655              	.LVL44:
 656              	.L44:
 657              	.LBE95:
 658              	.LBE89:
 659              	.LBE88:
 660              		.loc 1 342 0
 661 0464 9DED020A 		vldr.32	s0, [sp, #8]
 662              	.LVL45:
 663 0468 DFED807A 		vldr.32	s15, .L242+4
 664 046c B0EEC07A 		vabs.f32	s14, s0
 665 0470 B4EEE77A 		vcmpe.f32	s14, s15
 666 0474 F1EE10FA 		vmrs	APSR_nzcv, FPSCR
 667 0478 00F18182 		bmi	.L147
 668 047c DFF80CB2 		ldr	fp, .L242+36
 669              	.L60:
 670              		.loc 1 346 0
 671 0480 9BED007A 		vldr.32	s14, [fp]
 672 0484 DFED787A 		vldr.32	s15, .L242
 673 0488 B4EEE77A 		vcmpe.f32	s14, s15
 674 048c F1EE10FA 		vmrs	APSR_nzcv, FPSCR
 675 0490 40F12182 		bpl	.L62
 676              		.loc 1 346 0 is_stmt 0 discriminator 1
 677 0494 637F     		ldrb	r3, [r4, #29]	@ zero_extendqisi2
 678 0496 002B     		cmp	r3, #0
 679 0498 00F01D82 		beq	.L62
 680              		.loc 1 299 0 is_stmt 1
 681 049c 0026     		movs	r6, #0
 682              	.LVL46:
 683              		.loc 1 295 0
 684 049e B246     		mov	r10, r6
ARM GAS  C:\Users\Grillmo\AppData\Local\Temp\ccPUAqDN.s 			page 13


 685              	.LVL47:
 686              		.loc 1 294 0
 687 04a0 DFED75AA 		vldr.32	s21, .L242+16
 688 04a4 91E7     		b	.L53
 689              	.LVL48:
 690              	.L43:
 691              		.loc 1 323 0
 692 04a6 DDED027A 		vldr.32	s15, [sp, #8]
 693 04aa F5EEC07A 		vcmpe.f32	s15, #0
 694 04ae F1EE10FA 		vmrs	APSR_nzcv, FPSCR
 695 04b2 C0F2F482 		blt	.L221
 696              		.loc 1 324 0
 697 04b6 D9ED1DAA 		vldr.32	s21, [r9, #116]
 698 04ba 67EEAAAA 		vmul.f32	s21, s15, s21
 699              	.LVL49:
 700              		.loc 1 296 0
 701 04be 0027     		movs	r7, #0
 702              	.LVL50:
 703              	.L57:
 704              		.loc 1 330 0
 705 04c0 9FED6A7A 		vldr.32	s14, .L242+4
 706 04c4 F4EEC77A 		vcmpe.f32	s15, s14
 707 04c8 F1EE10FA 		vmrs	APSR_nzcv, FPSCR
 708 04cc 00F13982 		bmi	.L146
 709              		.loc 1 334 0
 710 04d0 2378     		ldrb	r3, [r4]	@ zero_extendqisi2
 711 04d2 DFF8B8B1 		ldr	fp, .L242+36
 712 04d6 042B     		cmp	r3, #4
 713 04d8 00F04982 		beq	.L231
 714              	.L130:
 715              		.loc 1 299 0
 716 04dc 0026     		movs	r6, #0
 717              	.LVL51:
 718              		.loc 1 322 0
 719 04de 4FF0010A 		mov	r10, #1
 720              	.LVL52:
 721 04e2 72E7     		b	.L53
 722              	.LVL53:
 723              	.L41:
 724              		.loc 1 307 0
 725 04e4 DDED027A 		vldr.32	s15, [sp, #8]
 726 04e8 F5EEC07A 		vcmpe.f32	s15, #0
 727 04ec F1EE10FA 		vmrs	APSR_nzcv, FPSCR
 728 04f0 C0F26D82 		blt	.L46
 729              		.loc 1 307 0 is_stmt 0 discriminator 1
 730 04f4 B5EEC00A 		vcmpe.f32	s0, #0
 731 04f8 F1EE10FA 		vmrs	APSR_nzcv, FPSCR
 732 04fc 40F36782 		ble	.L46
 733              	.L48:
 734              		.loc 1 308 0 is_stmt 1
 735 0500 D9ED1DAA 		vldr.32	s21, [r9, #116]
 736 0504 67EEAAAA 		vmul.f32	s21, s15, s21
 737              	.LVL54:
 738              	.L52:
 739              		.loc 1 313 0
 740 0508 9FED587A 		vldr.32	s14, .L242+4
 741 050c F0EEE77A 		vabs.f32	s15, s15
ARM GAS  C:\Users\Grillmo\AppData\Local\Temp\ccPUAqDN.s 			page 14


 742 0510 F4EEC77A 		vcmpe.f32	s15, s14
 743 0514 F1EE10FA 		vmrs	APSR_nzcv, FPSCR
 744 0518 40F10D82 		bpl	.L220
 745              		.loc 1 314 0
 746 051c 07EE90AA 		vmov	s15, r10	@ int
 747 0520 F8EEE76A 		vcvt.f32.s32	s13, s15
 748 0524 DFED527A 		vldr.32	s15, .L242+8
 749 0528 DFF860B1 		ldr	fp, .L242+36
 750 052c 66EEA76A 		vmul.f32	s13, s13, s15
 751 0530 DBED007A 		vldr.32	s15, [fp]
 752 0534 86EEA87A 		vdiv.f32	s14, s13, s17
 753              		.loc 1 299 0
 754 0538 0026     		movs	r6, #0
 755              	.LVL55:
 756              		.loc 1 306 0
 757 053a 4FF0010A 		mov	r10, #1
 758              	.LVL56:
 759              		.loc 1 314 0
 760 053e 77EE277A 		vadd.f32	s15, s14, s15
 761 0542 CBED007A 		vstr.32	s15, [fp]
 762 0546 40E7     		b	.L53
 763              	.LVL57:
 764              	.L11:
 765              		.loc 1 165 0
 766 0548 D4ED020A 		vldr.32	s1, [r4, #8]
 767 054c 94ED031A 		vldr.32	s2, [r4, #12]
 768 0550 B7EE002A 		vmov.f32	s4, #1.0e+0
 769 0554 F0EE481A 		vmov.f32	s3, s16
 770 0558 FFF7FEFF 		bl	utils_map
 771              	.LVL58:
 772 055c 8DED020A 		vstr.32	s0, [sp, #8]
 773              		.loc 1 166 0
 774 0560 E3E5     		b	.L14
 775              	.LVL59:
 776              	.L78:
 777              		.loc 1 413 0
 778 0562 DFF82CB1 		ldr	fp, .L242+40
 779              		.loc 1 405 0
 780 0566 FFF7FEFF 		bl	timeout_reset
 781              	.LVL60:
 782              		.loc 1 413 0
 783 056a DBF80010 		ldr	r1, [fp]
 784 056e 0191     		str	r1, [sp, #4]
 785 0570 4B1C     		adds	r3, r1, #1
 786 0572 CBF80030 		str	r3, [fp]
 787 0576 FFF7FEFF 		bl	mc_interface_get_rpm
 788              	.LVL61:
 789              		.loc 1 414 0
 790 057a DBF80020 		ldr	r2, [fp]
 791              		.loc 1 413 0
 792 057e 3F4B     		ldr	r3, .L242+20
 793 0580 0199     		ldr	r1, [sp, #4]
 794              		.loc 1 418 0
 795 0582 DFED3D7A 		vldr.32	s15, .L242+16
 796              		.loc 1 413 0
 797 0586 03EB8103 		add	r3, r3, r1, lsl #2
 798              		.loc 1 414 0
ARM GAS  C:\Users\Grillmo\AppData\Local\Temp\ccPUAqDN.s 			page 15


 799 058a 072A     		cmp	r2, #7
 800              		.loc 1 413 0
 801 058c 83ED000A 		vstr.32	s0, [r3]
 802              		.loc 1 415 0
 803 0590 C4BF     		itt	gt
 804 0592 0023     		movgt	r3, #0
 805 0594 CBF80030 		strgt	r3, [fp]
 806              	.LVL62:
 807 0598 384B     		ldr	r3, .L242+20
 808 059a 03F12002 		add	r2, r3, #32
 809              	.LVL63:
 810              	.L87:
 811              	.LBB96:
 812              		.loc 1 420 0 discriminator 3
 813 059e B3EC017A 		vldmia.32	r3!, {s14}
 814              		.loc 1 419 0 discriminator 3
 815 05a2 9342     		cmp	r3, r2
 816              		.loc 1 420 0 discriminator 3
 817 05a4 77EE877A 		vadd.f32	s15, s15, s14
 818              	.LVL64:
 819              		.loc 1 419 0 discriminator 3
 820 05a8 F9D1     		bne	.L87
 821              	.LVL65:
 822              	.LBE96:
 823              		.loc 1 424 0
 824 05aa BAF1000F 		cmp	r10, #0
 825 05ae 71D0     		beq	.L88
 826              		.loc 1 424 0 is_stmt 0 discriminator 1
 827 05b0 002D     		cmp	r5, #0
 828 05b2 6FD0     		beq	.L88
 829              		.loc 1 424 0 discriminator 2
 830 05b4 9DED027A 		vldr.32	s14, [sp, #8]
 831 05b8 DFED2C6A 		vldr.32	s13, .L242+4
 832 05bc B0EEC77A 		vabs.f32	s14, s14
 833 05c0 B4EEE67A 		vcmpe.f32	s14, s13
 834 05c4 F1EE10FA 		vmrs	APSR_nzcv, FPSCR
 835 05c8 64D5     		bpl	.L88
 836              	.LBB97:
 837              		.loc 1 427 0 is_stmt 1
 838 05ca 2D4B     		ldr	r3, .L242+24
 839 05cc 1A78     		ldrb	r2, [r3]	@ zero_extendqisi2
 840 05ce 002A     		cmp	r2, #0
 841 05d0 00F07382 		beq	.L90
 842 05d4 2B4B     		ldr	r3, .L242+28
 843 05d6 93ED000A 		vldr.32	s0, [r3]
 844              	.L91:
 845              		.loc 1 432 0
 846 05da FFF7FEFF 		bl	mc_interface_set_pid_speed
 847              	.LVL66:
 848              		.loc 1 435 0
 849 05de 94F83830 		ldrb	r3, [r4, #56]	@ zero_extendqisi2
 850 05e2 002B     		cmp	r3, #0
 851 05e4 3FF432AD 		beq	.L4
 852              	.LBB98:
 853              		.loc 1 436 0
 854 05e8 FFF7FEFF 		bl	mc_interface_get_tot_current_directional_filtered
 855              	.LVL67:
ARM GAS  C:\Users\Grillmo\AppData\Local\Temp\ccPUAqDN.s 			page 16


 856              	.LBB99:
 857              		.loc 1 438 0
 858 05ec 0025     		movs	r5, #0
 859              	.LVL68:
 860              	.LBE99:
 861              		.loc 1 436 0
 862 05ee B0EE40AA 		vmov.f32	s20, s0
 863              	.LVL69:
 864 05f2 02E0     		b	.L94
 865              	.LVL70:
 866              	.L92:
 867              	.LBB106:
 868              		.loc 1 438 0 discriminator 2
 869 05f4 0A2D     		cmp	r5, #10
 870 05f6 3FF429AD 		beq	.L4
 871              	.LVL71:
 872              	.L94:
 873              	.LBB100:
 874              		.loc 1 439 0
 875 05fa 2846     		mov	r0, r5
 876 05fc FFF7FEFF 		bl	comm_can_get_status_msg_index
 877              	.LVL72:
 878              		.loc 1 441 0
 879 0600 0268     		ldr	r2, [r0]
 880 0602 002A     		cmp	r2, #0
 881              	.LBE100:
 882              		.loc 1 438 0
 883 0604 05F10105 		add	r5, r5, #1
 884              	.LVL73:
 885              	.LBB105:
 886              		.loc 1 441 0
 887 0608 F4DB     		blt	.L92
 888              	.LBB101:
 889              	.LBB102:
 890              		.loc 3 267 0 discriminator 1
 891 060a 4168     		ldr	r1, [r0, #4]
 892              	.LBB103:
 893              	.LBB104:
 894              		.loc 3 231 0 discriminator 1
 895 060c D8F82830 		ldr	r3, [r8, #40]
 896              	.LVL74:
 897              	.LBE104:
 898              	.LBE103:
 899              		.loc 3 267 0 discriminator 1
 900 0610 5B1A     		subs	r3, r3, r1
 901              	.LBE102:
 902              	.LBE101:
 903              		.loc 1 441 0 discriminator 1
 904 0612 07EE903A 		vmov	s15, r3	@ int
 905 0616 F8EE677A 		vcvt.f32.u32	s15, s15
 906 061a 87EEA87A 		vdiv.f32	s14, s15, s17
 907 061e B4EEC97A 		vcmpe.f32	s14, s18
 908 0622 F1EE10FA 		vmrs	APSR_nzcv, FPSCR
 909 0626 E5D5     		bpl	.L92
 910              		.loc 1 442 0
 911 0628 D0B2     		uxtb	r0, r2
 912              	.LVL75:
ARM GAS  C:\Users\Grillmo\AppData\Local\Temp\ccPUAqDN.s 			page 17


 913 062a B0EE4A0A 		vmov.f32	s0, s20
 914 062e FFF7FEFF 		bl	comm_can_set_current
 915              	.LVL76:
 916 0632 DFE7     		b	.L92
 917              	.LVL77:
 918              	.L22:
 919              	.LBE105:
 920              	.LBE106:
 921              	.LBE98:
 922              	.LBE97:
 923              		.loc 1 232 0
 924 0634 2378     		ldrb	r3, [r4]	@ zero_extendqisi2
 925 0636 032B     		cmp	r3, #3
 926 0638 00F0FD80 		beq	.L27
 927              		.loc 1 233 0 discriminator 1
 928 063c 2378     		ldrb	r3, [r4]	@ zero_extendqisi2
 929              		.loc 1 232 0 discriminator 1
 930 063e 062B     		cmp	r3, #6
 931 0640 00F0F980 		beq	.L27
 932              		.loc 1 234 0
 933 0644 2378     		ldrb	r3, [r4]	@ zero_extendqisi2
 934              		.loc 1 233 0
 935 0646 0A2B     		cmp	r3, #10
 936 0648 00F0F580 		beq	.L27
 937              		.loc 1 240 0
 938 064c 0E4B     		ldr	r3, .L242+32
 939 064e 1D69     		ldr	r5, [r3, #16]
 940              		.loc 1 241 0
 941 0650 A37F     		ldrb	r3, [r4, #30]	@ zero_extendqisi2
 942              		.loc 1 240 0
 943 0652 6D09     		lsrs	r5, r5, #5
 944 0654 E943     		mvns	r1, r5
 945              	.LVL78:
 946              		.loc 1 241 0
 947 0656 03F0FF06 		and	r6, r3, #255
 948 065a 002B     		cmp	r3, #0
 949 065c 40F0C481 		bne	.L30
 950              		.loc 1 240 0
 951 0660 01F00105 		and	r5, r1, #1
 952 0664 E2E5     		b	.L26
 953              	.L243:
 954 0666 00BF     		.align	2
 955              	.L242:
 956 0668 0000FA43 		.word	1140457472
 957 066c 6F12833A 		.word	981668463
 958 0670 00007A44 		.word	1148846080
 959 0674 00000000 		.word	.LANCHOR15
 960 0678 00000000 		.word	0
 961 067c 00000000 		.word	.LANCHOR17
 962 0680 00000000 		.word	.LANCHOR18
 963 0684 00000000 		.word	.LANCHOR19
 964 0688 00040240 		.word	1073873920
 965 068c 00000000 		.word	.LANCHOR4
 966 0690 00000000 		.word	.LANCHOR16
 967              	.LVL79:
 968              	.L88:
 969              		.loc 1 450 0
ARM GAS  C:\Users\Grillmo\AppData\Local\Temp\ccPUAqDN.s 			page 18


 970 0694 D64B     		ldr	r3, .L244
 971 0696 0025     		movs	r5, #0
 972              	.LVL80:
 973 0698 1D70     		strb	r5, [r3]
 974              		.loc 1 453 0
 975 069a FFF7FEFF 		bl	mc_interface_get_rpm
 976              	.LVL81:
 977              		.loc 1 455 0
 978 069e 94F83830 		ldrb	r3, [r4, #56]	@ zero_extendqisi2
 979              		.loc 1 453 0
 980 06a2 B0EE40BA 		vmov.f32	s22, s0
 981              	.LVL82:
 982 06a6 B0EE40AA 		vmov.f32	s20, s0
 983              		.loc 1 455 0
 984 06aa 2BB3     		cbz	r3, .L95
 985              	.LVL83:
 986              	.L98:
 987              	.LBB107:
 988              	.LBB108:
 989              		.loc 1 457 0
 990 06ac 2846     		mov	r0, r5
 991 06ae FFF7FEFF 		bl	comm_can_get_status_msg_index
 992              	.LVL84:
 993              		.loc 1 459 0
 994 06b2 0368     		ldr	r3, [r0]
 995 06b4 002B     		cmp	r3, #0
 996              	.LBE108:
 997              		.loc 1 456 0
 998 06b6 05F10105 		add	r5, r5, #1
 999              	.LVL85:
 1000              	.LBB115:
 1001              		.loc 1 459 0
 1002 06ba 1BDB     		blt	.L96
 1003              	.LBB109:
 1004              	.LBB110:
 1005              	.LBB111:
 1006              	.LBB112:
 1007              		.loc 3 231 0 discriminator 1
 1008 06bc D8F82820 		ldr	r2, [r8, #40]
 1009              	.LVL86:
 1010              	.LBE112:
 1011              	.LBE111:
 1012              		.loc 3 267 0 discriminator 1
 1013 06c0 4368     		ldr	r3, [r0, #4]
 1014 06c2 D31A     		subs	r3, r2, r3
 1015              	.LBE110:
 1016              	.LBE109:
 1017              		.loc 1 459 0 discriminator 1
 1018 06c4 07EE903A 		vmov	s15, r3	@ int
 1019 06c8 F8EE677A 		vcvt.f32.u32	s15, s15
 1020              	.LBB113:
 1021              		.loc 1 462 0 discriminator 1
 1022 06cc F0EECA6A 		vabs.f32	s13, s20
 1023              	.LBE113:
 1024              		.loc 1 459 0 discriminator 1
 1025 06d0 87EEA87A 		vdiv.f32	s14, s15, s17
 1026 06d4 B4EEC97A 		vcmpe.f32	s14, s18
ARM GAS  C:\Users\Grillmo\AppData\Local\Temp\ccPUAqDN.s 			page 19


 1027 06d8 F1EE10FA 		vmrs	APSR_nzcv, FPSCR
 1028 06dc 0AD5     		bpl	.L96
 1029              	.LBB114:
 1030              		.loc 1 460 0
 1031 06de D0ED027A 		vldr.32	s15, [r0, #8]
 1032              	.LVL87:
 1033              		.loc 1 462 0
 1034 06e2 B0EEE77A 		vabs.f32	s14, s15
 1035              		.loc 1 463 0
 1036 06e6 B4EE667A 		vcmp.f32	s14, s13
 1037 06ea F1EE10FA 		vmrs	APSR_nzcv, FPSCR
 1038 06ee 48BF     		it	mi
 1039 06f0 B0EE67AA 		vmovmi.f32	s20, s15
 1040              	.LVL88:
 1041              	.L96:
 1042              	.LBE114:
 1043              	.LBE115:
 1044              		.loc 1 456 0 discriminator 2
 1045 06f4 0A2D     		cmp	r5, #10
 1046 06f6 D9D1     		bne	.L98
 1047              	.LVL89:
 1048              	.L95:
 1049              	.LBE107:
 1050              		.loc 1 470 0
 1051 06f8 1EB1     		cbz	r6, .L102
 1052              		.loc 1 470 0 is_stmt 0 discriminator 1
 1053 06fa 94F83830 		ldrb	r3, [r4, #56]	@ zero_extendqisi2
 1054 06fe 002B     		cmp	r3, #0
 1055 0700 71D1     		bne	.L232
 1056              	.L102:
 1057              		.loc 1 482 0 is_stmt 1
 1058 0702 BAF1000F 		cmp	r10, #0
 1059 0706 3FF4A1AC 		beq	.L4
 1060              		.loc 1 483 0
 1061 070a 002F     		cmp	r7, #0
 1062 070c 40F0A181 		bne	.L233
 1063              	.LVL90:
 1064              	.LBB116:
 1065              		.loc 1 497 0
 1066 0710 F5EEC0AA 		vcmpe.f32	s21, #0
 1067 0714 F1EE10FA 		vmrs	APSR_nzcv, FPSCR
 1068              		.loc 1 506 0
 1069 0718 94F83830 		ldrb	r3, [r4, #56]	@ zero_extendqisi2
 1070              		.loc 1 497 0
 1071 071c 00F1DA81 		bmi	.L111
 1072              		.loc 1 506 0
 1073 0720 002B     		cmp	r3, #0
 1074 0722 00F07981 		beq	.L113
 1075              	.LVL91:
 1076              	.L112:
 1077              	.LBE116:
 1078              	.LBB136:
 1079              		.loc 1 487 0 discriminator 1
 1080 0726 F0EE6ABA 		vmov.f32	s23, s21
 1081              	.LBE136:
 1082              	.LBB143:
 1083              	.LBB117:
ARM GAS  C:\Users\Grillmo\AppData\Local\Temp\ccPUAqDN.s 			page 20


 1084              	.LBB118:
 1085              	.LBB119:
 1086              		.loc 1 519 0 discriminator 1
 1087 072a 9FEDB2CA 		vldr.32	s24, .L244+4
 1088              	.LBE119:
 1089              	.LBE118:
 1090              	.LBE117:
 1091              	.LBE143:
 1092              	.LBB144:
 1093              		.loc 1 487 0 discriminator 1
 1094 072e 0025     		movs	r5, #0
 1095 0730 27E0     		b	.L124
 1096              	.LVL92:
 1097              	.L236:
 1098              	.LBE144:
 1099              	.LBB145:
 1100              	.LBB132:
 1101              	.LBB127:
 1102              	.LBB120:
 1103              		.loc 1 512 0
 1104 0732 90ED020A 		vldr.32	s0, [r0, #8]
 1105              	.LVL93:
 1106 0736 0190     		str	r0, [sp, #4]
 1107              		.loc 1 518 0
 1108 0738 94ED0F1A 		vldr.32	s2, [r4, #60]
 1109 073c DFEDB50A 		vldr.32	s1, .L244+36
 1110              		.loc 1 513 0
 1111 0740 002F     		cmp	r7, #0
 1112 0742 00F06F81 		beq	.L118
 1113              		.loc 1 514 0
 1114 0746 B1EE400A 		vneg.f32	s0, s0
 1115              	.LVL94:
 1116              		.loc 1 518 0
 1117 074a 30EE4A0A 		vsub.f32	s0, s0, s20
 1118              	.LVL95:
 1119 074e B0EE482A 		vmov.f32	s4, s16
 1120 0752 F0EE6A1A 		vmov.f32	s3, s21
 1121 0756 FFF7FEFF 		bl	utils_map
 1122              	.LVL96:
 1123              		.loc 1 519 0
 1124 075a D9ED507A 		vldr.32	s15, [r9, #320]
 1125 075e 0198     		ldr	r0, [sp, #4]
 1126 0760 F4EEC07A 		vcmpe.f32	s15, s0
 1127 0764 F1EE10FA 		vmrs	APSR_nzcv, FPSCR
 1128              		.loc 1 518 0
 1129 0768 F0EE40BA 		vmov.f32	s23, s0
 1130              	.LVL97:
 1131 076c 0268     		ldr	r2, [r0]
 1132              		.loc 1 519 0
 1133 076e 00F3E381 		bgt	.L234
 1134              	.LVL98:
 1135              	.L122:
 1136 0772 B1EE6B0A 		vneg.f32	s0, s23
 1137              	.LVL99:
 1138              	.L121:
 1139              	.LBE120:
 1140              		.loc 1 525 0
ARM GAS  C:\Users\Grillmo\AppData\Local\Temp\ccPUAqDN.s 			page 21


 1141 0776 D0B2     		uxtb	r0, r2
 1142 0778 FFF7FEFF 		bl	comm_can_set_current
 1143              	.LVL100:
 1144              	.L115:
 1145              	.LBE127:
 1146              		.loc 1 507 0 discriminator 2
 1147 077c 0135     		adds	r5, r5, #1
 1148              	.LVL101:
 1149 077e 0A2D     		cmp	r5, #10
 1150 0780 22D0     		beq	.L235
 1151              	.LVL102:
 1152              	.L124:
 1153              	.LBB128:
 1154              		.loc 1 508 0
 1155 0782 2846     		mov	r0, r5
 1156 0784 FFF7FEFF 		bl	comm_can_get_status_msg_index
 1157              	.LVL103:
 1158              		.loc 1 510 0
 1159 0788 0268     		ldr	r2, [r0]
 1160 078a 002A     		cmp	r2, #0
 1161 078c F6DB     		blt	.L115
 1162              	.LVL104:
 1163              	.LBB121:
 1164              	.LBB122:
 1165              	.LBB123:
 1166              	.LBB124:
 1167              		.loc 3 231 0 discriminator 1
 1168 078e D8F82830 		ldr	r3, [r8, #40]
 1169              	.LVL105:
 1170              	.LBE124:
 1171              	.LBE123:
 1172              		.loc 3 267 0 discriminator 1
 1173 0792 4168     		ldr	r1, [r0, #4]
 1174 0794 5B1A     		subs	r3, r3, r1
 1175              	.LBE122:
 1176              	.LBE121:
 1177              		.loc 1 510 0 discriminator 1
 1178 0796 07EE903A 		vmov	s15, r3	@ int
 1179 079a F8EE677A 		vcvt.f32.u32	s15, s15
 1180 079e 87EEA87A 		vdiv.f32	s14, s15, s17
 1181 07a2 B4EEC97A 		vcmpe.f32	s14, s18
 1182 07a6 F1EE10FA 		vmrs	APSR_nzcv, FPSCR
 1183 07aa E7D5     		bpl	.L115
 1184              		.loc 1 511 0
 1185 07ac 94F83930 		ldrb	r3, [r4, #57]	@ zero_extendqisi2
 1186 07b0 002B     		cmp	r3, #0
 1187 07b2 BED1     		bne	.L236
 1188              		.loc 1 524 0
 1189 07b4 002F     		cmp	r7, #0
 1190 07b6 DCD1     		bne	.L122
 1191              	.LVL106:
 1192              	.L123:
 1193              		.loc 1 527 0
 1194 07b8 D0B2     		uxtb	r0, r2
 1195 07ba B0EE6B0A 		vmov.f32	s0, s23
 1196              	.LBE128:
 1197              		.loc 1 507 0
ARM GAS  C:\Users\Grillmo\AppData\Local\Temp\ccPUAqDN.s 			page 22


 1198 07be 0135     		adds	r5, r5, #1
 1199              	.LVL107:
 1200              	.LBB129:
 1201              		.loc 1 527 0
 1202 07c0 FFF7FEFF 		bl	comm_can_set_current
 1203              	.LVL108:
 1204              	.LBE129:
 1205              		.loc 1 507 0
 1206 07c4 0A2D     		cmp	r5, #10
 1207 07c6 DCD1     		bne	.L124
 1208              	.L235:
 1209              	.LBE132:
 1210              		.loc 1 532 0
 1211 07c8 94F83930 		ldrb	r3, [r4, #57]	@ zero_extendqisi2
 1212 07cc 002B     		cmp	r3, #0
 1213 07ce 40F09B81 		bne	.L237
 1214              	.LVL109:
 1215              	.L125:
 1216 07d2 F0EE6BAA 		vmov.f32	s21, s23
 1217              	.LVL110:
 1218              		.loc 1 541 0
 1219 07d6 002F     		cmp	r7, #0
 1220 07d8 00F01E81 		beq	.L113
 1221              	.LVL111:
 1222              	.L114:
 1223              		.loc 1 542 0
 1224 07dc B1EE6A0A 		vneg.f32	s0, s21
 1225 07e0 FFF7FEFF 		bl	mc_interface_set_current
 1226              	.LVL112:
 1227 07e4 32E4     		b	.L4
 1228              	.LVL113:
 1229              	.L232:
 1230              	.LBE145:
 1231              	.LBB146:
 1232              		.loc 1 471 0
 1233 07e6 FFF7FEFF 		bl	mc_interface_get_duty_cycle_now
 1234              	.LVL114:
 1235              	.LBB80:
 1236              		.loc 1 473 0
 1237 07ea 0025     		movs	r5, #0
 1238              	.LBE80:
 1239              		.loc 1 471 0
 1240 07ec F0EE40BA 		vmov.f32	s23, s0
 1241              	.LVL115:
 1242 07f0 01E0     		b	.L105
 1243              	.LVL116:
 1244              	.L103:
 1245              	.LBB81:
 1246              		.loc 1 473 0 discriminator 2
 1247 07f2 0A2D     		cmp	r5, #10
 1248 07f4 85D0     		beq	.L102
 1249              	.LVL117:
 1250              	.L105:
 1251              	.LBB78:
 1252              		.loc 1 474 0
 1253 07f6 2846     		mov	r0, r5
 1254 07f8 FFF7FEFF 		bl	comm_can_get_status_msg_index
ARM GAS  C:\Users\Grillmo\AppData\Local\Temp\ccPUAqDN.s 			page 23


 1255              	.LVL118:
 1256              		.loc 1 476 0
 1257 07fc 0268     		ldr	r2, [r0]
 1258 07fe 002A     		cmp	r2, #0
 1259              	.LBE78:
 1260              		.loc 1 473 0
 1261 0800 05F10105 		add	r5, r5, #1
 1262              	.LVL119:
 1263              	.LBB79:
 1264              		.loc 1 476 0
 1265 0804 F5DB     		blt	.L103
 1266              	.LBB74:
 1267              	.LBB75:
 1268              		.loc 3 267 0 discriminator 1
 1269 0806 4168     		ldr	r1, [r0, #4]
 1270              	.LBB76:
 1271              	.LBB77:
 1272              		.loc 3 231 0 discriminator 1
 1273 0808 D8F82830 		ldr	r3, [r8, #40]
 1274              	.LVL120:
 1275              	.LBE77:
 1276              	.LBE76:
 1277              		.loc 3 267 0 discriminator 1
 1278 080c 5B1A     		subs	r3, r3, r1
 1279              	.LBE75:
 1280              	.LBE74:
 1281              		.loc 1 476 0 discriminator 1
 1282 080e 07EE903A 		vmov	s15, r3	@ int
 1283 0812 F8EE677A 		vcvt.f32.u32	s15, s15
 1284 0816 87EEA87A 		vdiv.f32	s14, s15, s17
 1285 081a B4EEC97A 		vcmpe.f32	s14, s18
 1286 081e F1EE10FA 		vmrs	APSR_nzcv, FPSCR
 1287 0822 E6D5     		bpl	.L103
 1288              		.loc 1 477 0
 1289 0824 D0B2     		uxtb	r0, r2
 1290              	.LVL121:
 1291 0826 B0EE6B0A 		vmov.f32	s0, s23
 1292 082a FFF7FEFF 		bl	comm_can_set_duty
 1293              	.LVL122:
 1294 082e E0E7     		b	.L103
 1295              	.LVL123:
 1296              	.L227:
 1297              	.LBE79:
 1298              	.LBE81:
 1299              	.LBE146:
 1300              		.loc 1 235 0
 1301 0830 02F00106 		and	r6, r2, #1
 1302 0834 FAE4     		b	.L26
 1303              	.LVL124:
 1304              	.L27:
 1305 0836 704B     		ldr	r3, .L244+8
 1306 0838 1E69     		ldr	r6, [r3, #16]
 1307              		.loc 1 236 0
 1308 083a E37F     		ldrb	r3, [r4, #31]	@ zero_extendqisi2
 1309              		.loc 1 235 0
 1310 083c 7609     		lsrs	r6, r6, #5
 1311 083e F243     		mvns	r2, r6
ARM GAS  C:\Users\Grillmo\AppData\Local\Temp\ccPUAqDN.s 			page 24


 1312              	.LVL125:
 1313              		.loc 1 236 0
 1314 0840 03F0FF05 		and	r5, r3, #255
 1315 0844 002B     		cmp	r3, #0
 1316 0846 F3D0     		beq	.L227
 1317              		.loc 1 237 0
 1318 0848 06F00106 		and	r6, r6, #1
 1319              	.LVL126:
 1320              		.loc 1 219 0
 1321 084c 0025     		movs	r5, #0
 1322 084e EDE4     		b	.L26
 1323              	.LVL127:
 1324              	.L230:
 1325              	.LBB147:
 1326              		.loc 1 288 0
 1327 0850 DFF8B8B1 		ldr	fp, .L244+28
 1328              	.LBB148:
 1329              	.LBB149:
 1330              	.LBB150:
 1331              	.LBB151:
 1332              		.loc 3 231 0
 1333 0854 D8F82830 		ldr	r3, [r8, #40]
 1334              	.LVL128:
 1335              	.LBE151:
 1336              	.LBE150:
 1337              		.loc 3 267 0
 1338 0858 DBF80020 		ldr	r2, [fp]
 1339              	.LBE149:
 1340              	.LBE148:
 1341              		.loc 1 288 0
 1342 085c 6749     		ldr	r1, .L244+12
 1343 085e 9FED687A 		vldr.32	s14, .L244+16
 1344              	.LBB153:
 1345              	.LBB152:
 1346              		.loc 3 267 0
 1347 0862 9B1A     		subs	r3, r3, r2
 1348              	.LVL129:
 1349              	.LBE152:
 1350              	.LBE153:
 1351              		.loc 1 288 0
 1352 0864 4FF47A70 		mov	r0, #1000
 1353 0868 42F20F72 		movw	r2, #9999
 1354 086c 00FB0323 		mla	r3, r0, r3, r2
 1355 0870 A1FB0323 		umull	r2, r3, r1, r3
 1356 0874 5B0B     		lsrs	r3, r3, #13
 1357 0876 07EE903A 		vmov	s15, r3	@ int
 1358 087a 20EE877A 		vmul.f32	s14, s1, s14
 1359 087e F8EEE77A 		vcvt.f32.s32	s15, s15
 1360              		.loc 1 289 0
 1361 0882 6048     		ldr	r0, .L244+20
 1362 0884 C7EE870A 		vdiv.f32	s1, s15, s14
 1363              	.LVL130:
 1364 0888 FFF7FEFF 		bl	utils_step_towards
 1365              	.LVL131:
 1366              	.LBB154:
 1367              	.LBB155:
 1368              		.loc 3 231 0
ARM GAS  C:\Users\Grillmo\AppData\Local\Temp\ccPUAqDN.s 			page 25


 1369 088c D8F82830 		ldr	r3, [r8, #40]
 1370              	.LBE155:
 1371              	.LBE154:
 1372              		.loc 1 290 0
 1373 0890 CBF80030 		str	r3, [fp]
 1374              		.loc 1 291 0
 1375 0894 D9F80030 		ldr	r3, [r9]	@ float
 1376 0898 0293     		str	r3, [sp, #8]	@ float
 1377 089a 0DE5     		b	.L38
 1378              	.L32:
 1379              	.LBE147:
 1380              		.loc 1 267 0
 1381 089c 002E     		cmp	r6, #0
 1382 089e 3FF4DFAC 		beq	.L31
 1383              		.loc 1 268 0
 1384 08a2 DDED027A 		vldr.32	s15, [sp, #8]
 1385 08a6 F1EE677A 		vneg.f32	s15, s15
 1386 08aa CDED027A 		vstr.32	s15, [sp, #8]
 1387 08ae D7E4     		b	.L31
 1388              	.LVL132:
 1389              	.L71:
 1390              	.LBB156:
 1391              		.loc 1 363 0
 1392 08b0 F5EEC07A 		vcmpe.f32	s15, #0
 1393 08b4 F1EE10FA 		vmrs	APSR_nzcv, FPSCR
 1394              		.loc 1 366 0
 1395 08b8 B6BF     		itet	lt
 1396 08ba 99ED060A 		vldrlt.32	s0, [r9, #24]
 1397              	.LVL133:
 1398              		.loc 1 364 0
 1399 08be 99ED070A 		vldrge.32	s0, [r9, #28]
 1400              		.loc 1 366 0
 1401 08c2 B0EEC00A 		vabslt.f32	s0, s0
 1402 08c6 20EE270A 		vmul.f32	s0, s0, s15
 1403              	.LVL134:
 1404              		.loc 1 369 0
 1405 08ca FFF7FEFF 		bl	mc_interface_set_pid_speed
 1406              	.LVL135:
 1407              		.loc 1 370 0
 1408 08ce 0126     		movs	r6, #1
 1409              	.LVL136:
 1410 08d0 DDED027A 		vldr.32	s15, [sp, #8]
 1411 08d4 5DE5     		b	.L73
 1412              	.LVL137:
 1413              	.L62:
 1414              	.LBE156:
 1415              		.loc 1 347 0
 1416 08d6 D9ED161A 		vldr.32	s3, [r9, #88]
 1417 08da 99ED162A 		vldr.32	s4, [r9, #88]
 1418              		.loc 1 294 0
 1419 08de DFED4DAA 		vldr.32	s21, .L244+36
 1420              		.loc 1 347 0
 1421 08e2 F1EE611A 		vneg.f32	s3, s3
 1422 08e6 B7EE001A 		vmov.f32	s2, #1.0e+0
 1423 08ea FFEE000A 		vmov.f32	s1, #-1.0e+0
 1424 08ee FFF7FEFF 		bl	utils_map
 1425              	.LVL138:
ARM GAS  C:\Users\Grillmo\AppData\Local\Temp\ccPUAqDN.s 			page 26


 1426 08f2 FFF7FEFF 		bl	mc_interface_set_duty
 1427              	.LVL139:
 1428              		.loc 1 295 0
 1429 08f6 4FF0000A 		mov	r10, #0
 1430              	.LVL140:
 1431              		.loc 1 348 0
 1432 08fa 0126     		movs	r6, #1
 1433              	.LVL141:
 1434 08fc 65E5     		b	.L53
 1435              	.LVL142:
 1436              	.L33:
 1437              		.loc 1 254 0
 1438 08fe DDED026A 		vldr.32	s13, [sp, #8]
 1439 0902 B0EE007A 		vmov.f32	s14, #2.0e+0
 1440 0906 FFEE007A 		vmov.f32	s15, #-1.0e+0
 1441 090a E6EE877A 		vfma.f32	s15, s13, s14
 1442 090e CDED027A 		vstr.32	s15, [sp, #8]
 1443              		.loc 1 255 0
 1444 0912 A5E4     		b	.L31
 1445              	.LVL143:
 1446              	.L218:
 1447              		.loc 1 158 0
 1448 0914 D4ED040A 		vldr.32	s1, [r4, #16]
 1449 0918 94ED031A 		vldr.32	s2, [r4, #12]
 1450 091c B7EE002A 		vmov.f32	s4, #1.0e+0
 1451 0920 F6EE001A 		vmov.f32	s3, #5.0e-1
 1452 0924 FFF7FEFF 		bl	utils_map
 1453              	.LVL144:
 1454 0928 8DED020A 		vstr.32	s0, [sp, #8]
 1455 092c FFF7FDBB 		b	.L14
 1456              	.LVL145:
 1457              	.L223:
 1458              		.loc 1 295 0
 1459 0930 4FF0000A 		mov	r10, #0
 1460              	.LVL146:
 1461 0934 49E5     		b	.L53
 1462              	.LVL147:
 1463              	.L220:
 1464              		.loc 1 299 0
 1465 0936 0026     		movs	r6, #0
 1466              	.LVL148:
 1467              		.loc 1 306 0
 1468 0938 4FF0010A 		mov	r10, #1
 1469              	.LVL149:
 1470 093c DFF8D0B0 		ldr	fp, .L244+32
 1471 0940 43E5     		b	.L53
 1472              	.LVL150:
 1473              	.L146:
 1474              		.loc 1 331 0
 1475 0942 07EE90AA 		vmov	s15, r10	@ int
 1476 0946 F8EEE76A 		vcvt.f32.s32	s13, s15
 1477 094a DFED2D7A 		vldr.32	s15, .L244+16
 1478 094e DFF8C0B0 		ldr	fp, .L244+32
 1479 0952 66EEA76A 		vmul.f32	s13, s13, s15
 1480 0956 DBED007A 		vldr.32	s15, [fp]
 1481 095a 86EEA87A 		vdiv.f32	s14, s13, s17
 1482 095e 77EE277A 		vadd.f32	s15, s14, s15
ARM GAS  C:\Users\Grillmo\AppData\Local\Temp\ccPUAqDN.s 			page 27


 1483 0962 CBED007A 		vstr.32	s15, [fp]
 1484              		.loc 1 334 0
 1485 0966 2378     		ldrb	r3, [r4]	@ zero_extendqisi2
 1486 0968 042B     		cmp	r3, #4
 1487 096a 7FF4B7AD 		bne	.L130
 1488              	.L231:
 1489              		.loc 1 334 0 is_stmt 0 discriminator 1
 1490 096e 002E     		cmp	r6, #0
 1491 0970 00F0AD80 		beq	.L131
 1492              		.loc 1 322 0 is_stmt 1
 1493 0974 B246     		mov	r10, r6
 1494              	.LVL151:
 1495              		.loc 1 335 0
 1496 0976 F1EE6AAA 		vneg.f32	s21, s21
 1497              	.LVL152:
 1498              		.loc 1 299 0
 1499 097a 0026     		movs	r6, #0
 1500              	.LVL153:
 1501 097c 25E5     		b	.L53
 1502              	.LVL154:
 1503              	.L147:
 1504              		.loc 1 343 0
 1505 097e 07EE90AA 		vmov	s15, r10	@ int
 1506 0982 F8EEE76A 		vcvt.f32.s32	s13, s15
 1507 0986 DFED1E7A 		vldr.32	s15, .L244+16
 1508 098a DFF884B0 		ldr	fp, .L244+32
 1509 098e 66EEA76A 		vmul.f32	s13, s13, s15
 1510 0992 DBED007A 		vldr.32	s15, [fp]
 1511 0996 86EEA87A 		vdiv.f32	s14, s13, s17
 1512 099a 77EE277A 		vadd.f32	s15, s14, s15
 1513 099e CBED007A 		vstr.32	s15, [fp]
 1514 09a2 6DE5     		b	.L60
 1515              	.LVL155:
 1516              	.L229:
 1517              		.loc 1 114 0
 1518 09a4 184A     		ldr	r2, .L244+24
 1519 09a6 0023     		movs	r3, #0
 1520 09a8 1370     		strb	r3, [r2]
 1521              	.LBE162:
 1522              		.loc 1 549 0
 1523 09aa 05B0     		add	sp, sp, #20
 1524              		.cfi_remember_state
 1525              		.cfi_def_cfa_offset 76
 1526              		@ sp needed
 1527 09ac BDEC0A8B 		vldm	sp!, {d8-d12}
 1528              		.cfi_restore 88
 1529              		.cfi_restore 89
 1530              		.cfi_restore 86
 1531              		.cfi_restore 87
 1532              		.cfi_restore 84
 1533              		.cfi_restore 85
 1534              		.cfi_restore 82
 1535              		.cfi_restore 83
 1536              		.cfi_restore 80
 1537              		.cfi_restore 81
 1538              		.cfi_def_cfa_offset 36
 1539 09b0 BDE8F08F 		pop	{r4, r5, r6, r7, r8, r9, r10, fp, pc}
ARM GAS  C:\Users\Grillmo\AppData\Local\Temp\ccPUAqDN.s 			page 28


 1540              	.LVL156:
 1541              	.L64:
 1542              		.cfi_restore_state
 1543              	.LBB163:
 1544              		.loc 1 355 0 discriminator 3
 1545 09b4 F5EEC07A 		vcmpe.f32	s15, #0
 1546 09b8 F1EE10FA 		vmrs	APSR_nzcv, FPSCR
 1547 09bc 00F19D80 		bmi	.L238
 1548              	.L67:
 1549              		.loc 1 358 0
 1550 09c0 D9ED1EAA 		vldr.32	s21, [r9, #120]
 1551 09c4 F0EEEAAA 		vabs.f32	s21, s21
 1552 09c8 6AEEA7AA 		vmul.f32	s21, s21, s15
 1553              	.LVL157:
 1554 09cc D0E4     		b	.L70
 1555              	.LVL158:
 1556              	.L46:
 1557              		.loc 1 307 0 discriminator 3
 1558 09ce F5EEC07A 		vcmpe.f32	s15, #0
 1559 09d2 F1EE10FA 		vmrs	APSR_nzcv, FPSCR
 1560 09d6 00F18980 		bmi	.L239
 1561              	.L49:
 1562              		.loc 1 310 0
 1563 09da D9ED1EAA 		vldr.32	s21, [r9, #120]
 1564 09de F0EEEAAA 		vabs.f32	s21, s21
 1565 09e2 6AEEA7AA 		vmul.f32	s21, s21, s15
 1566              	.LVL159:
 1567 09e6 8FE5     		b	.L52
 1568              	.LVL160:
 1569              	.L30:
 1570              		.loc 1 242 0
 1571 09e8 05F00105 		and	r5, r5, #1
 1572              	.LVL161:
 1573              		.loc 1 220 0
 1574 09ec 1646     		mov	r6, r2
 1575 09ee 1DE4     		b	.L26
 1576              	.L245:
 1577              		.align	2
 1578              	.L244:
 1579 09f0 00000000 		.word	.LANCHOR18
 1580 09f4 00000080 		.word	-2147483648
 1581 09f8 00040240 		.word	1073873920
 1582 09fc 5917B7D1 		.word	-776530087
 1583 0a00 00007A44 		.word	1148846080
 1584 0a04 00000000 		.word	.LANCHOR13
 1585 0a08 00000000 		.word	.LANCHOR1
 1586 0a0c 00000000 		.word	.LANCHOR14
 1587 0a10 00000000 		.word	.LANCHOR4
 1588 0a14 00000000 		.word	0
 1589              	.LVL162:
 1590              	.L113:
 1591              	.LBB157:
 1592              		.loc 1 544 0
 1593 0a18 B0EE6A0A 		vmov.f32	s0, s21
 1594 0a1c FFF7FEFF 		bl	mc_interface_set_current
 1595              	.LVL163:
 1596 0a20 FFF714BB 		b	.L4
ARM GAS  C:\Users\Grillmo\AppData\Local\Temp\ccPUAqDN.s 			page 29


 1597              	.LVL164:
 1598              	.L118:
 1599              	.LBB133:
 1600              	.LBB130:
 1601              	.LBB125:
 1602              		.loc 1 518 0
 1603 0a24 30EE4A0A 		vsub.f32	s0, s0, s20
 1604              	.LVL165:
 1605 0a28 B0EE482A 		vmov.f32	s4, s16
 1606 0a2c F0EE6A1A 		vmov.f32	s3, s21
 1607 0a30 FFF7FEFF 		bl	utils_map
 1608              	.LVL166:
 1609              		.loc 1 519 0
 1610 0a34 D9ED507A 		vldr.32	s15, [r9, #320]
 1611 0a38 0198     		ldr	r0, [sp, #4]
 1612 0a3a B4EEE70A 		vcmpe.f32	s0, s15
 1613 0a3e F1EE10FA 		vmrs	APSR_nzcv, FPSCR
 1614              		.loc 1 518 0
 1615 0a42 F0EE40BA 		vmov.f32	s23, s0
 1616              	.LVL167:
 1617 0a46 0268     		ldr	r2, [r0]
 1618              		.loc 1 519 0
 1619 0a48 7FF5B6AE 		bpl	.L123
 1620              		.loc 1 520 0
 1621 0a4c 5FED0FBA 		vldr.32	s23, .L244+36
 1622 0a50 B2E6     		b	.L123
 1623              	.LVL168:
 1624              	.L233:
 1625              	.LBE125:
 1626              	.LBE130:
 1627              	.LBE133:
 1628              	.LBE157:
 1629              		.loc 1 484 0
 1630 0a52 B0EE6A0A 		vmov.f32	s0, s21
 1631 0a56 FFF7FEFF 		bl	mc_interface_set_brake_current
 1632              	.LVL169:
 1633              	.LBB158:
 1634              		.loc 1 487 0
 1635 0a5a 0025     		movs	r5, #0
 1636 0a5c 02E0     		b	.L110
 1637              	.LVL170:
 1638              	.L108:
 1639              		.loc 1 487 0 is_stmt 0 discriminator 2
 1640 0a5e 0A2D     		cmp	r5, #10
 1641 0a60 3FF4F4AA 		beq	.L4
 1642              	.LVL171:
 1643              	.L110:
 1644              	.LBB137:
 1645              		.loc 1 488 0 is_stmt 1
 1646 0a64 2846     		mov	r0, r5
 1647 0a66 FFF7FEFF 		bl	comm_can_get_status_msg_index
 1648              	.LVL172:
 1649              		.loc 1 490 0
 1650 0a6a 0268     		ldr	r2, [r0]
 1651 0a6c 002A     		cmp	r2, #0
 1652              	.LBE137:
 1653              		.loc 1 487 0
ARM GAS  C:\Users\Grillmo\AppData\Local\Temp\ccPUAqDN.s 			page 30


 1654 0a6e 05F10105 		add	r5, r5, #1
 1655              	.LVL173:
 1656              	.LBB142:
 1657              		.loc 1 490 0
 1658 0a72 F4DB     		blt	.L108
 1659              	.LBB138:
 1660              	.LBB139:
 1661              		.loc 3 267 0 discriminator 1
 1662 0a74 4168     		ldr	r1, [r0, #4]
 1663              	.LBB140:
 1664              	.LBB141:
 1665              		.loc 3 231 0 discriminator 1
 1666 0a76 D8F82830 		ldr	r3, [r8, #40]
 1667              	.LVL174:
 1668              	.LBE141:
 1669              	.LBE140:
 1670              		.loc 3 267 0 discriminator 1
 1671 0a7a 5B1A     		subs	r3, r3, r1
 1672              	.LBE139:
 1673              	.LBE138:
 1674              		.loc 1 490 0 discriminator 1
 1675 0a7c 07EE903A 		vmov	s15, r3	@ int
 1676 0a80 F8EE677A 		vcvt.f32.u32	s15, s15
 1677 0a84 87EEA87A 		vdiv.f32	s14, s15, s17
 1678 0a88 B4EEC97A 		vcmpe.f32	s14, s18
 1679 0a8c F1EE10FA 		vmrs	APSR_nzcv, FPSCR
 1680 0a90 E5D5     		bpl	.L108
 1681              		.loc 1 491 0
 1682 0a92 D0B2     		uxtb	r0, r2
 1683              	.LVL175:
 1684 0a94 B0EE6A0A 		vmov.f32	s0, s21
 1685 0a98 FFF7FEFF 		bl	comm_can_set_current_brake
 1686              	.LVL176:
 1687 0a9c DFE7     		b	.L108
 1688              	.LVL177:
 1689              	.L221:
 1690              	.LBE142:
 1691              	.LBE158:
 1692              		.loc 1 326 0
 1693 0a9e D9ED1EAA 		vldr.32	s21, [r9, #120]
 1694 0aa2 67EEAAAA 		vmul.f32	s21, s15, s21
 1695              		.loc 1 327 0
 1696 0aa6 0127     		movs	r7, #1
 1697              		.loc 1 326 0
 1698 0aa8 F0EEEAAA 		vabs.f32	s21, s21
 1699              	.LVL178:
 1700 0aac 08E5     		b	.L57
 1701              	.LVL179:
 1702              	.L2:
 1703              	.LBE163:
 1704              		.loc 1 98 0
 1705 0aae 1146     		mov	r1, r2
 1706 0ab0 2448     		ldr	r0, .L246
 1707              	.LVL180:
 1708 0ab2 FFF7FEFF 		bl	_pal_lld_setgroupmode
 1709              	.LVL181:
 1710 0ab6 FFF7BDBA 		b	.L3
ARM GAS  C:\Users\Grillmo\AppData\Local\Temp\ccPUAqDN.s 			page 31


 1711              	.LVL182:
 1712              	.L90:
 1713              	.LBB164:
 1714              		.loc 1 422 0
 1715 0aba B4EE000A 		vmov.f32	s0, #1.25e-1
 1716 0abe 27EE800A 		vmul.f32	s0, s15, s0
 1717              	.LBB159:
 1718              		.loc 1 429 0
 1719 0ac2 2149     		ldr	r1, .L246+4
 1720              		.loc 1 428 0
 1721 0ac4 0122     		movs	r2, #1
 1722              		.loc 1 429 0
 1723 0ac6 81ED000A 		vstr.32	s0, [r1]
 1724              		.loc 1 428 0
 1725 0aca 1A70     		strb	r2, [r3]
 1726 0acc 85E5     		b	.L91
 1727              	.LVL183:
 1728              	.L131:
 1729              	.LBE159:
 1730              		.loc 1 322 0
 1731 0ace 4FF0010A 		mov	r10, #1
 1732              	.LVL184:
 1733 0ad2 7AE4     		b	.L53
 1734              	.LVL185:
 1735              	.L111:
 1736              	.LBB160:
 1737              		.loc 1 499 0
 1738 0ad4 F1EE6AAA 		vneg.f32	s21, s21
 1739              	.LVL186:
 1740              		.loc 1 506 0
 1741 0ad8 03F0FF07 		and	r7, r3, #255
 1742              	.LVL187:
 1743 0adc 002B     		cmp	r3, #0
 1744 0ade 3FF47DAE 		beq	.L114
 1745              		.loc 1 501 0
 1746 0ae2 B1EE4BBA 		vneg.f32	s22, s22
 1747              	.LVL188:
 1748              		.loc 1 502 0
 1749 0ae6 B1EE4AAA 		vneg.f32	s20, s20
 1750              	.LVL189:
 1751 0aea 1CE6     		b	.L112
 1752              	.LVL190:
 1753              	.L239:
 1754              	.LBE160:
 1755              		.loc 1 307 0 discriminator 4
 1756 0aec B5EEC00A 		vcmpe.f32	s0, #0
 1757 0af0 F1EE10FA 		vmrs	APSR_nzcv, FPSCR
 1758 0af4 7FF571AF 		bpl	.L49
 1759 0af8 02E5     		b	.L48
 1760              	.LVL191:
 1761              	.L238:
 1762              		.loc 1 355 0 discriminator 4
 1763 0afa B5EEC00A 		vcmpe.f32	s0, #0
 1764 0afe F1EE10FA 		vmrs	APSR_nzcv, FPSCR
 1765 0b02 7FF55DAF 		bpl	.L67
 1766 0b06 2FE4     		b	.L66
 1767              	.LVL192:
ARM GAS  C:\Users\Grillmo\AppData\Local\Temp\ccPUAqDN.s 			page 32


 1768              	.L237:
 1769              	.LBB161:
 1770              	.LBB134:
 1771              		.loc 1 534 0
 1772 0b08 94ED0F1A 		vldr.32	s2, [r4, #60]
 1773 0b0c DFED0F0A 		vldr.32	s1, .L246+8
 1774 0b10 F0EE6A1A 		vmov.f32	s3, s21
 1775 0b14 3BEE4A0A 		vsub.f32	s0, s22, s20
 1776              	.LVL193:
 1777 0b18 B0EE482A 		vmov.f32	s4, s16
 1778 0b1c FFF7FEFF 		bl	utils_map
 1779              	.LVL194:
 1780              		.loc 1 535 0
 1781 0b20 D9ED507A 		vldr.32	s15, [r9, #320]
 1782              		.loc 1 536 0
 1783 0b24 B4EE670A 		vcmp.f32	s0, s15
 1784              		.loc 1 534 0
 1785 0b28 F0EE40BA 		vmov.f32	s23, s0
 1786              	.LVL195:
 1787              		.loc 1 536 0
 1788 0b2c F1EE10FA 		vmrs	APSR_nzcv, FPSCR
 1789 0b30 48BF     		it	mi
 1790 0b32 F0EE48BA 		vmovmi.f32	s23, s16
 1791 0b36 4CE6     		b	.L125
 1792              	.LVL196:
 1793              	.L234:
 1794              	.LBE134:
 1795              	.LBB135:
 1796              	.LBB131:
 1797              	.LBB126:
 1798              		.loc 1 520 0
 1799 0b38 DFED04BA 		vldr.32	s23, .L246+8
 1800              		.loc 1 519 0
 1801 0b3c B0EE4C0A 		vmov.f32	s0, s24
 1802              	.LVL197:
 1803 0b40 19E6     		b	.L121
 1804              	.L247:
 1805 0b42 00BF     		.align	2
 1806              	.L246:
 1807 0b44 00040240 		.word	1073873920
 1808 0b48 00000000 		.word	.LANCHOR19
 1809 0b4c 00000000 		.word	0
 1810              	.LBE126:
 1811              	.LBE131:
 1812              	.LBE135:
 1813              	.LBE161:
 1814              	.LBE164:
 1815              		.cfi_endproc
 1816              	.LFE263:
 1817              		.size	adc_thread, .-adc_thread
 1818              		.section	.text.app_adc_configure,"ax",%progbits
 1819              		.align	1
 1820              		.p2align 4,,15
 1821              		.global	app_adc_configure
 1822              		.syntax unified
 1823              		.thumb
 1824              		.thumb_func
ARM GAS  C:\Users\Grillmo\AppData\Local\Temp\ccPUAqDN.s 			page 33


 1825              		.fpu fpv4-sp-d16
 1826              		.type	app_adc_configure, %function
 1827              	app_adc_configure:
 1828              	.LFB256:
 1829              		.loc 1 53 0
 1830              		.cfi_startproc
 1831              		@ args = 0, pretend = 0, frame = 0
 1832              		@ frame_needed = 0, uses_anonymous_args = 0
 1833              	.LVL198:
 1834 0000 08B5     		push	{r3, lr}
 1835              		.cfi_def_cfa_offset 8
 1836              		.cfi_offset 3, -8
 1837              		.cfi_offset 14, -4
 1838              		.loc 1 54 0
 1839 0002 0146     		mov	r1, r0
 1840 0004 4422     		movs	r2, #68
 1841 0006 0348     		ldr	r0, .L250
 1842              	.LVL199:
 1843 0008 FFF7FEFF 		bl	memcpy
 1844              	.LVL200:
 1845              		.loc 1 55 0
 1846 000c 024B     		ldr	r3, .L250+4
 1847 000e 0022     		movs	r2, #0
 1848 0010 1A60     		str	r2, [r3]	@ float
 1849 0012 08BD     		pop	{r3, pc}
 1850              	.L251:
 1851              		.align	2
 1852              	.L250:
 1853 0014 00000000 		.word	.LANCHOR2
 1854 0018 00000000 		.word	.LANCHOR4
 1855              		.cfi_endproc
 1856              	.LFE256:
 1857              		.size	app_adc_configure, .-app_adc_configure
 1858              		.section	.text.app_adc_start,"ax",%progbits
 1859              		.align	1
 1860              		.p2align 4,,15
 1861              		.global	app_adc_start
 1862              		.syntax unified
 1863              		.thumb
 1864              		.thumb_func
 1865              		.fpu fpv4-sp-d16
 1866              		.type	app_adc_start, %function
 1867              	app_adc_start:
 1868              	.LFB257:
 1869              		.loc 1 58 0
 1870              		.cfi_startproc
 1871              		@ args = 0, pretend = 0, frame = 0
 1872              		@ frame_needed = 0, uses_anonymous_args = 0
 1873              	.LVL201:
 1874 0000 F0B5     		push	{r4, r5, r6, r7, lr}
 1875              		.cfi_def_cfa_offset 20
 1876              		.cfi_offset 4, -20
 1877              		.cfi_offset 5, -16
 1878              		.cfi_offset 6, -12
 1879              		.cfi_offset 7, -8
 1880              		.cfi_offset 14, -4
 1881 0002 83B0     		sub	sp, sp, #12
ARM GAS  C:\Users\Grillmo\AppData\Local\Temp\ccPUAqDN.s 			page 34


 1882              		.cfi_def_cfa_offset 32
 1883              		.loc 1 60 0
 1884 0004 0024     		movs	r4, #0
 1885              		.loc 1 59 0
 1886 0006 074E     		ldr	r6, .L254
 1887              		.loc 1 60 0
 1888 0008 074D     		ldr	r5, .L254+4
 1889              		.loc 1 61 0
 1890 000a 084B     		ldr	r3, .L254+8
 1891 000c 0094     		str	r4, [sp]
 1892              		.loc 1 58 0
 1893 000e 0746     		mov	r7, r0
 1894              		.loc 1 61 0
 1895 0010 4022     		movs	r2, #64
 1896 0012 4FF4B361 		mov	r1, #1432
 1897 0016 0648     		ldr	r0, .L254+12
 1898              	.LVL202:
 1899              		.loc 1 59 0
 1900 0018 3770     		strb	r7, [r6]
 1901              		.loc 1 60 0
 1902 001a 2C70     		strb	r4, [r5]
 1903              		.loc 1 61 0
 1904 001c FFF7FEFF 		bl	chThdCreateStatic
 1905              	.LVL203:
 1906              		.loc 1 62 0
 1907 0020 03B0     		add	sp, sp, #12
 1908              		.cfi_def_cfa_offset 20
 1909              		@ sp needed
 1910 0022 F0BD     		pop	{r4, r5, r6, r7, pc}
 1911              	.L255:
 1912              		.align	2
 1913              	.L254:
 1914 0024 00000000 		.word	.LANCHOR0
 1915 0028 00000000 		.word	.LANCHOR3
 1916 002c 00000000 		.word	adc_thread
 1917 0030 00000000 		.word	.LANCHOR20
 1918              		.cfi_endproc
 1919              	.LFE257:
 1920              		.size	app_adc_start, .-app_adc_start
 1921              		.section	.text.app_adc_stop,"ax",%progbits
 1922              		.align	1
 1923              		.p2align 4,,15
 1924              		.global	app_adc_stop
 1925              		.syntax unified
 1926              		.thumb
 1927              		.thumb_func
 1928              		.fpu fpv4-sp-d16
 1929              		.type	app_adc_stop, %function
 1930              	app_adc_stop:
 1931              	.LFB258:
 1932              		.loc 1 64 0
 1933              		.cfi_startproc
 1934              		@ args = 0, pretend = 0, frame = 0
 1935              		@ frame_needed = 0, uses_anonymous_args = 0
 1936              		.loc 1 65 0
 1937 0000 064B     		ldr	r3, .L262
 1938              		.loc 1 64 0
ARM GAS  C:\Users\Grillmo\AppData\Local\Temp\ccPUAqDN.s 			page 35


 1939 0002 10B5     		push	{r4, lr}
 1940              		.cfi_def_cfa_offset 8
 1941              		.cfi_offset 4, -8
 1942              		.cfi_offset 14, -4
 1943              		.loc 1 65 0
 1944 0004 0122     		movs	r2, #1
 1945              		.loc 1 66 0
 1946 0006 064C     		ldr	r4, .L262+4
 1947              		.loc 1 65 0
 1948 0008 1A70     		strb	r2, [r3]
 1949              		.loc 1 66 0
 1950 000a 2378     		ldrb	r3, [r4]	@ zero_extendqisi2
 1951 000c 2BB1     		cbz	r3, .L256
 1952              	.L259:
 1953              		.loc 1 67 0
 1954 000e 0A20     		movs	r0, #10
 1955 0010 FFF7FEFF 		bl	chThdSleep
 1956              	.LVL204:
 1957              		.loc 1 66 0
 1958 0014 2378     		ldrb	r3, [r4]	@ zero_extendqisi2
 1959 0016 002B     		cmp	r3, #0
 1960 0018 F9D1     		bne	.L259
 1961              	.L256:
 1962 001a 10BD     		pop	{r4, pc}
 1963              	.L263:
 1964              		.align	2
 1965              	.L262:
 1966 001c 00000000 		.word	.LANCHOR3
 1967 0020 00000000 		.word	.LANCHOR1
 1968              		.cfi_endproc
 1969              	.LFE258:
 1970              		.size	app_adc_stop, .-app_adc_stop
 1971              		.section	.text.app_adc_get_decoded_level,"ax",%progbits
 1972              		.align	1
 1973              		.p2align 4,,15
 1974              		.global	app_adc_get_decoded_level
 1975              		.syntax unified
 1976              		.thumb
 1977              		.thumb_func
 1978              		.fpu fpv4-sp-d16
 1979              		.type	app_adc_get_decoded_level, %function
 1980              	app_adc_get_decoded_level:
 1981              	.LFB259:
 1982              		.loc 1 71 0
 1983              		.cfi_startproc
 1984              		@ args = 0, pretend = 0, frame = 0
 1985              		@ frame_needed = 0, uses_anonymous_args = 0
 1986              		@ link register save eliminated.
 1987              		.loc 1 72 0
 1988 0000 014B     		ldr	r3, .L265
 1989 0002 93ED000A 		vldr.32	s0, [r3]
 1990              		.loc 1 73 0
 1991 0006 7047     		bx	lr
 1992              	.L266:
 1993              		.align	2
 1994              	.L265:
 1995 0008 00000000 		.word	.LANCHOR8
ARM GAS  C:\Users\Grillmo\AppData\Local\Temp\ccPUAqDN.s 			page 36


 1996              		.cfi_endproc
 1997              	.LFE259:
 1998              		.size	app_adc_get_decoded_level, .-app_adc_get_decoded_level
 1999              		.section	.text.app_adc_get_voltage,"ax",%progbits
 2000              		.align	1
 2001              		.p2align 4,,15
 2002              		.global	app_adc_get_voltage
 2003              		.syntax unified
 2004              		.thumb
 2005              		.thumb_func
 2006              		.fpu fpv4-sp-d16
 2007              		.type	app_adc_get_voltage, %function
 2008              	app_adc_get_voltage:
 2009              	.LFB260:
 2010              		.loc 1 75 0
 2011              		.cfi_startproc
 2012              		@ args = 0, pretend = 0, frame = 0
 2013              		@ frame_needed = 0, uses_anonymous_args = 0
 2014              		@ link register save eliminated.
 2015              		.loc 1 76 0
 2016 0000 014B     		ldr	r3, .L268
 2017 0002 93ED000A 		vldr.32	s0, [r3]
 2018              		.loc 1 77 0
 2019 0006 7047     		bx	lr
 2020              	.L269:
 2021              		.align	2
 2022              	.L268:
 2023 0008 00000000 		.word	.LANCHOR5
 2024              		.cfi_endproc
 2025              	.LFE260:
 2026              		.size	app_adc_get_voltage, .-app_adc_get_voltage
 2027              		.section	.text.app_adc_get_decoded_level2,"ax",%progbits
 2028              		.align	1
 2029              		.p2align 4,,15
 2030              		.global	app_adc_get_decoded_level2
 2031              		.syntax unified
 2032              		.thumb
 2033              		.thumb_func
 2034              		.fpu fpv4-sp-d16
 2035              		.type	app_adc_get_decoded_level2, %function
 2036              	app_adc_get_decoded_level2:
 2037              	.LFB261:
 2038              		.loc 1 79 0
 2039              		.cfi_startproc
 2040              		@ args = 0, pretend = 0, frame = 0
 2041              		@ frame_needed = 0, uses_anonymous_args = 0
 2042              		@ link register save eliminated.
 2043              		.loc 1 80 0
 2044 0000 014B     		ldr	r3, .L271
 2045 0002 93ED000A 		vldr.32	s0, [r3]
 2046              		.loc 1 81 0
 2047 0006 7047     		bx	lr
 2048              	.L272:
 2049              		.align	2
 2050              	.L271:
 2051 0008 00000000 		.word	.LANCHOR12
 2052              		.cfi_endproc
ARM GAS  C:\Users\Grillmo\AppData\Local\Temp\ccPUAqDN.s 			page 37


 2053              	.LFE261:
 2054              		.size	app_adc_get_decoded_level2, .-app_adc_get_decoded_level2
 2055              		.section	.text.app_adc_get_voltage2,"ax",%progbits
 2056              		.align	1
 2057              		.p2align 4,,15
 2058              		.global	app_adc_get_voltage2
 2059              		.syntax unified
 2060              		.thumb
 2061              		.thumb_func
 2062              		.fpu fpv4-sp-d16
 2063              		.type	app_adc_get_voltage2, %function
 2064              	app_adc_get_voltage2:
 2065              	.LFB262:
 2066              		.loc 1 83 0
 2067              		.cfi_startproc
 2068              		@ args = 0, pretend = 0, frame = 0
 2069              		@ frame_needed = 0, uses_anonymous_args = 0
 2070              		@ link register save eliminated.
 2071              		.loc 1 84 0
 2072 0000 014B     		ldr	r3, .L274
 2073 0002 93ED000A 		vldr.32	s0, [r3]
 2074              		.loc 1 85 0
 2075 0006 7047     		bx	lr
 2076              	.L275:
 2077              		.align	2
 2078              	.L274:
 2079 0008 00000000 		.word	.LANCHOR9
 2080              		.cfi_endproc
 2081              	.LFE262:
 2082              		.size	app_adc_get_voltage2, .-app_adc_get_voltage2
 2083              		.section	.bss.adc_thread_wa,"aw",%nobits
 2084              		.align	3
 2085              		.set	.LANCHOR20,. + 0
 2086              		.type	adc_thread_wa, %object
 2087              		.size	adc_thread_wa, 1432
 2088              	adc_thread_wa:
 2089 0000 00000000 		.space	1432
 2089      00000000 
 2089      00000000 
 2089      00000000 
 2089      00000000 
 2090              		.section	.bss.config,"aw",%nobits
 2091              		.align	2
 2092              		.set	.LANCHOR2,. + 0
 2093              		.type	config, %object
 2094              		.size	config, 68
 2095              	config:
 2096 0000 00000000 		.space	68
 2096      00000000 
 2096      00000000 
 2096      00000000 
 2096      00000000 
 2097              		.section	.bss.decoded_level,"aw",%nobits
 2098              		.align	2
 2099              		.set	.LANCHOR8,. + 0
 2100              		.type	decoded_level, %object
 2101              		.size	decoded_level, 4
ARM GAS  C:\Users\Grillmo\AppData\Local\Temp\ccPUAqDN.s 			page 38


 2102              	decoded_level:
 2103 0000 00000000 		.space	4
 2104              		.section	.bss.decoded_level2,"aw",%nobits
 2105              		.align	2
 2106              		.set	.LANCHOR12,. + 0
 2107              		.type	decoded_level2, %object
 2108              		.size	decoded_level2, 4
 2109              	decoded_level2:
 2110 0000 00000000 		.space	4
 2111              		.section	.bss.filter_buffer.11356,"aw",%nobits
 2112              		.align	2
 2113              		.set	.LANCHOR7,. + 0
 2114              		.type	filter_buffer.11356, %object
 2115              		.size	filter_buffer.11356, 20
 2116              	filter_buffer.11356:
 2117 0000 00000000 		.space	20
 2117      00000000 
 2117      00000000 
 2117      00000000 
 2117      00000000 
 2118              		.section	.bss.filter_buffer.11423,"aw",%nobits
 2119              		.align	2
 2120              		.set	.LANCHOR17,. + 0
 2121              		.type	filter_buffer.11423, %object
 2122              		.size	filter_buffer.11423, 32
 2123              	filter_buffer.11423:
 2124 0000 00000000 		.space	32
 2124      00000000 
 2124      00000000 
 2124      00000000 
 2124      00000000 
 2125              		.section	.bss.filter_buffer2.11369,"aw",%nobits
 2126              		.align	2
 2127              		.set	.LANCHOR11,. + 0
 2128              		.type	filter_buffer2.11369, %object
 2129              		.size	filter_buffer2.11369, 20
 2130              	filter_buffer2.11369:
 2131 0000 00000000 		.space	20
 2131      00000000 
 2131      00000000 
 2131      00000000 
 2131      00000000 
 2132              		.section	.bss.filter_ptr.11357,"aw",%nobits
 2133              		.align	2
 2134              		.set	.LANCHOR6,. + 0
 2135              		.type	filter_ptr.11357, %object
 2136              		.size	filter_ptr.11357, 4
 2137              	filter_ptr.11357:
 2138 0000 00000000 		.space	4
 2139              		.section	.bss.filter_ptr.11424,"aw",%nobits
 2140              		.align	2
 2141              		.set	.LANCHOR16,. + 0
 2142              		.type	filter_ptr.11424, %object
 2143              		.size	filter_ptr.11424, 4
 2144              	filter_ptr.11424:
 2145 0000 00000000 		.space	4
 2146              		.section	.bss.filter_ptr2.11370,"aw",%nobits
ARM GAS  C:\Users\Grillmo\AppData\Local\Temp\ccPUAqDN.s 			page 39


 2147              		.align	2
 2148              		.set	.LANCHOR10,. + 0
 2149              		.type	filter_ptr2.11370, %object
 2150              		.size	filter_ptr2.11370, 4
 2151              	filter_ptr2.11370:
 2152 0000 00000000 		.space	4
 2153              		.section	.bss.is_running,"aw",%nobits
 2154              		.set	.LANCHOR1,. + 0
 2155              		.type	is_running, %object
 2156              		.size	is_running, 1
 2157              	is_running:
 2158 0000 00       		.space	1
 2159              		.section	.bss.last_time.11389,"aw",%nobits
 2160              		.align	2
 2161              		.set	.LANCHOR14,. + 0
 2162              		.type	last_time.11389, %object
 2163              		.size	last_time.11389, 4
 2164              	last_time.11389:
 2165 0000 00000000 		.space	4
 2166              		.section	.bss.ms_without_power,"aw",%nobits
 2167              		.align	2
 2168              		.set	.LANCHOR4,. + 0
 2169              		.type	ms_without_power, %object
 2170              		.size	ms_without_power, 4
 2171              	ms_without_power:
 2172 0000 00000000 		.space	4
 2173              		.section	.bss.pid_rpm.11430,"aw",%nobits
 2174              		.align	2
 2175              		.set	.LANCHOR19,. + 0
 2176              		.type	pid_rpm.11430, %object
 2177              		.size	pid_rpm.11430, 4
 2178              	pid_rpm.11430:
 2179 0000 00000000 		.space	4
 2180              		.section	.bss.pulses_without_power_before.11416,"aw",%nobits
 2181              		.align	2
 2182              		.set	.LANCHOR15,. + 0
 2183              		.type	pulses_without_power_before.11416, %object
 2184              		.size	pulses_without_power_before.11416, 4
 2185              	pulses_without_power_before.11416:
 2186 0000 00000000 		.space	4
 2187              		.section	.bss.pwr_ramp.11390,"aw",%nobits
 2188              		.align	2
 2189              		.set	.LANCHOR13,. + 0
 2190              		.type	pwr_ramp.11390, %object
 2191              		.size	pwr_ramp.11390, 4
 2192              	pwr_ramp.11390:
 2193 0000 00000000 		.space	4
 2194              		.section	.bss.read_voltage,"aw",%nobits
 2195              		.align	2
 2196              		.set	.LANCHOR5,. + 0
 2197              		.type	read_voltage, %object
 2198              		.size	read_voltage, 4
 2199              	read_voltage:
 2200 0000 00000000 		.space	4
 2201              		.section	.bss.read_voltage2,"aw",%nobits
 2202              		.align	2
 2203              		.set	.LANCHOR9,. + 0
ARM GAS  C:\Users\Grillmo\AppData\Local\Temp\ccPUAqDN.s 			page 40


 2204              		.type	read_voltage2, %object
 2205              		.size	read_voltage2, 4
 2206              	read_voltage2:
 2207 0000 00000000 		.space	4
 2208              		.section	.bss.use_rx_tx_as_buttons,"aw",%nobits
 2209              		.set	.LANCHOR0,. + 0
 2210              		.type	use_rx_tx_as_buttons, %object
 2211              		.size	use_rx_tx_as_buttons, 1
 2212              	use_rx_tx_as_buttons:
 2213 0000 00       		.space	1
 2214              		.section	.bss.was_pid.11422,"aw",%nobits
 2215              		.set	.LANCHOR18,. + 0
 2216              		.type	was_pid.11422, %object
 2217              		.size	was_pid.11422, 1
 2218              	was_pid.11422:
 2219 0000 00       		.space	1
 2220              		.section	.data.stop_now,"aw",%progbits
 2221              		.set	.LANCHOR3,. + 0
 2222              		.type	stop_now, %object
 2223              		.size	stop_now, 1
 2224              	stop_now:
 2225 0000 01       		.byte	1
 2226              		.section	.rodata.adc_thread.str1.4,"aMS",%progbits,1
 2227              		.align	2
 2228              	.LC0:
 2229 0000 4150505F 		.ascii	"APP_ADC\000"
 2229      41444300 
 2230              		.text
 2231              	.Letext0:
 2232              		.file 4 "c:\\chibistudio\\tools\\gnu tools arm embedded\\6.3 2017q1\\arm-none-eabi\\include\\machi
 2233              		.file 5 "c:\\chibistudio\\tools\\gnu tools arm embedded\\6.3 2017q1\\arm-none-eabi\\include\\sys\\
 2234              		.file 6 "c:\\chibistudio\\tools\\gnu tools arm embedded\\6.3 2017q1\\lib\\gcc\\arm-none-eabi\\6.3.
 2235              		.file 7 "ChibiOS_3.0.2/os/rt/ports/ARMCMx/compilers/GCC/chtypes.h"
 2236              		.file 8 "ChibiOS_3.0.2/os/rt/include/chsystypes.h"
 2237              		.file 9 "ChibiOS_3.0.2/os/rt/include/chschd.h"
 2238              		.file 10 "ChibiOS_3.0.2/os/ext/CMSIS/include/core_cm4.h"
 2239              		.file 11 "ChibiOS_3.0.2/os/ext/CMSIS/ST/system_stm32f4xx.h"
 2240              		.file 12 "ChibiOS_3.0.2/os/ext/CMSIS/ST/stm32f407xx.h"
 2241              		.file 13 "ChibiOS_3.0.2/os/rt/ports/ARMCMx/chcore.h"
 2242              		.file 14 "ChibiOS_3.0.2/os/rt/ports/ARMCMx/chcore_v7m.h"
 2243              		.file 15 "ChibiOS_3.0.2/os/rt/include/chtm.h"
 2244              		.file 16 "ChibiOS_3.0.2/os/rt/include/chsem.h"
 2245              		.file 17 "ChibiOS_3.0.2/os/rt/include/chmtx.h"
 2246              		.file 18 "ChibiOS_3.0.2/os/rt/include/chevents.h"
 2247              		.file 19 "ChibiOS_3.0.2/os/rt/include/chqueues.h"
 2248              		.file 20 "./datatypes.h"
 2249              		.file 21 "./conf_general.h"
 2250              		.file 22 "ChibiOS_3.0.2/os/hal/ports/STM32/STM32F4xx/stm32_dma.h"
 2251              		.file 23 "ChibiOS_3.0.2/os/hal/ports/STM32/LLD/GPIOv2/pal_lld.h"
 2252              		.file 24 "ChibiOS_3.0.2/os/hal/include/can.h"
 2253              		.file 25 "ChibiOS_3.0.2/os/hal/ports/STM32/LLD/can_lld.h"
 2254              		.file 26 "ChibiOS_3.0.2/os/hal/include/i2c.h"
 2255              		.file 27 "ChibiOS_3.0.2/os/hal/ports/STM32/LLD/I2Cv1/i2c_lld.h"
 2256              		.file 28 "ChibiOS_3.0.2/os/hal/include/icu.h"
 2257              		.file 29 "ChibiOS_3.0.2/os/hal/ports/STM32/LLD/TIMv1/icu_lld.h"
 2258              		.file 30 "ChibiOS_3.0.2/os/hal/ports/STM32/LLD/TIMv1/stm32_tim.h"
 2259              		.file 31 "ChibiOS_3.0.2/os/hal/include/spi.h"
ARM GAS  C:\Users\Grillmo\AppData\Local\Temp\ccPUAqDN.s 			page 41


 2260              		.file 32 "ChibiOS_3.0.2/os/hal/ports/STM32/LLD/SPIv1/spi_lld.h"
 2261              		.file 33 "ChibiOS_3.0.2/os/hal/include/uart.h"
 2262              		.file 34 "ChibiOS_3.0.2/os/hal/ports/STM32/LLD/USARTv1/uart_lld.h"
 2263              		.file 35 "ChibiOS_3.0.2/os/hal/include/usb.h"
 2264              		.file 36 "ChibiOS_3.0.2/os/hal/ports/STM32/LLD/OTGv1/usb_lld.h"
 2265              		.file 37 "ChibiOS_3.0.2/os/hal/ports/STM32/LLD/OTGv1/stm32_otg.h"
 2266              		.file 38 "./mc_interface.h"
 2267              		.file 39 "c:\\chibistudio\\tools\\gnu tools arm embedded\\6.3 2017q1\\arm-none-eabi\\include\\sys\
 2268              		.file 40 "c:\\chibistudio\\tools\\gnu tools arm embedded\\6.3 2017q1\\arm-none-eabi\\include\\sys\
 2269              		.file 41 "c:\\chibistudio\\tools\\gnu tools arm embedded\\6.3 2017q1\\arm-none-eabi\\include\\sys\
 2270              		.file 42 "c:\\chibistudio\\tools\\gnu tools arm embedded\\6.3 2017q1\\arm-none-eabi\\include\\math
 2271              		.file 43 "./utils.h"
 2272              		.file 44 "./comm_can.h"
 2273              		.file 45 "./timeout.h"
 2274              		.file 46 "ChibiOS_3.0.2/os/rt/include/chthreads.h"