ARM GAS  /var/tmp//ccb2OorB.s 			page 1


   1              		.cpu cortex-m4
   2              		.eabi_attribute 27, 1
   3              		.eabi_attribute 28, 1
   4              		.eabi_attribute 20, 1
   5              		.eabi_attribute 21, 1
   6              		.eabi_attribute 23, 3
   7              		.eabi_attribute 24, 1
   8              		.eabi_attribute 25, 1
   9              		.eabi_attribute 26, 1
  10              		.eabi_attribute 30, 2
  11              		.eabi_attribute 34, 1
  12              		.eabi_attribute 18, 4
  13              		.file	"app_uartcomm.c"
  14              		.text
  15              	.Ltext0:
  16              		.cfi_sections	.debug_frame
  17              		.section	.text.rxerr,"ax",%progbits
  18              		.align	1
  19              		.p2align 4,,15
  20              		.syntax unified
  21              		.thumb
  22              		.thumb_func
  23              		.fpu fpv4-sp-d16
  24              		.type	rxerr, %function
  25              	rxerr:
  26              	.LFB258:
  27              		.file 1 "applications/app_uartcomm.c"
  28              		.loc 1 69 0
  29              		.cfi_startproc
  30              		@ args = 0, pretend = 0, frame = 0
  31              		@ frame_needed = 0, uses_anonymous_args = 0
  32              		@ link register save eliminated.
  33              	.LVL0:
  34 0000 7047     		bx	lr
  35              		.cfi_endproc
  36              	.LFE258:
  37              		.size	rxerr, .-rxerr
  38 0002 00BF     		.section	.text.rxend,"ax",%progbits
  39              		.align	1
  40              		.p2align 4,,15
  41              		.syntax unified
  42              		.thumb
  43              		.thumb_func
  44              		.fpu fpv4-sp-d16
  45              		.type	rxend, %function
  46              	rxend:
  47              	.LFB260:
  48              		.loc 1 94 0
  49              		.cfi_startproc
  50              		@ args = 0, pretend = 0, frame = 0
  51              		@ frame_needed = 0, uses_anonymous_args = 0
  52              		@ link register save eliminated.
  53              	.LVL1:
  54 0000 7047     		bx	lr
  55              		.cfi_endproc
  56              	.LFE260:
  57              		.size	rxend, .-rxend
ARM GAS  /var/tmp//ccb2OorB.s 			page 2


  58 0002 00BF     		.section	.text.rxchar,"ax",%progbits
  59              		.align	1
  60              		.p2align 4,,15
  61              		.syntax unified
  62              		.thumb
  63              		.thumb_func
  64              		.fpu fpv4-sp-d16
  65              		.type	rxchar, %function
  66              	rxchar:
  67              	.LFB259:
  68              		.loc 1 78 0
  69              		.cfi_startproc
  70              		@ args = 0, pretend = 0, frame = 0
  71              		@ frame_needed = 0, uses_anonymous_args = 0
  72              	.LVL2:
  73              		.loc 1 80 0
  74 0000 0B4B     		ldr	r3, .L7
  75 0002 1868     		ldr	r0, [r3]
  76              	.LVL3:
  77 0004 421C     		adds	r2, r0, #1
  78              		.loc 1 78 0
  79 0006 10B5     		push	{r4, lr}
  80              		.cfi_def_cfa_offset 8
  81              		.cfi_offset 4, -8
  82              		.cfi_offset 14, -4
  83              		.loc 1 82 0
  84 0008 B2F5806F 		cmp	r2, #1024
  85              		.loc 1 80 0
  86 000c 094C     		ldr	r4, .L7+4
  87 000e 1A60     		str	r2, [r3]
  88              		.loc 1 83 0
  89 0010 04BF     		itt	eq
  90 0012 0022     		moveq	r2, #0
  91 0014 1A60     		streq	r2, [r3]
  92              		.loc 1 80 0
  93 0016 2154     		strb	r1, [r4, r0]
  94              	.LBB40:
  95              	.LBB41:
  96              	.LBB42:
  97              	.LBB43:
  98              	.LBB44:
  99              		.file 2 "ChibiOS_3.0.2/os/ext/CMSIS/include/core_cmFunc.h"
 100              		.loc 2 546 0
 101 0018 2023     		movs	r3, #32
 102              		.syntax unified
 103              	@ 546 "ChibiOS_3.0.2/os/ext/CMSIS/include/core_cmFunc.h" 1
 104 001a 83F31188 		MSR basepri, r3
 105              	@ 0 "" 2
 106              	.LVL4:
 107              		.thumb
 108              		.syntax unified
 109              	.LBE44:
 110              	.LBE43:
 111              	.LBE42:
 112              	.LBE41:
 113              	.LBE40:
 114              		.loc 1 87 0
ARM GAS  /var/tmp//ccb2OorB.s 			page 3


 115 001e 064B     		ldr	r3, .L7+8
 116 0020 0121     		movs	r1, #1
 117              	.LVL5:
 118 0022 1868     		ldr	r0, [r3]
 119 0024 FFF7FEFF 		bl	chEvtSignalI
 120              	.LVL6:
 121              	.LBB45:
 122              	.LBB46:
 123              	.LBB47:
 124              	.LBB48:
 125              	.LBB49:
 126              		.loc 2 546 0
 127 0028 0023     		movs	r3, #0
 128              		.syntax unified
 129              	@ 546 "ChibiOS_3.0.2/os/ext/CMSIS/include/core_cmFunc.h" 1
 130 002a 83F31188 		MSR basepri, r3
 131              	@ 0 "" 2
 132              	.LVL7:
 133              		.thumb
 134              		.syntax unified
 135 002e 10BD     		pop	{r4, pc}
 136              	.L8:
 137              		.align	2
 138              	.L7:
 139 0030 00000000 		.word	.LANCHOR0
 140 0034 00000000 		.word	.LANCHOR1
 141 0038 00000000 		.word	.LANCHOR2
 142              	.LBE49:
 143              	.LBE48:
 144              	.LBE47:
 145              	.LBE46:
 146              	.LBE45:
 147              		.cfi_endproc
 148              	.LFE259:
 149              		.size	rxchar, .-rxchar
 150              		.section	.text.packet_process_thread,"ax",%progbits
 151              		.align	1
 152              		.p2align 4,,15
 153              		.syntax unified
 154              		.thumb
 155              		.thumb_func
 156              		.fpu fpv4-sp-d16
 157              		.type	packet_process_thread, %function
 158              	packet_process_thread:
 159              	.LFB267:
 160              		.loc 1 172 0
 161              		.cfi_startproc
 162              		@ Volatile: function does not return.
 163              		@ args = 0, pretend = 0, frame = 0
 164              		@ frame_needed = 0, uses_anonymous_args = 0
 165              	.LVL8:
 166              	.LBB50:
 167              	.LBB51:
 168              		.file 3 "ChibiOS_3.0.2/os/rt/include/chregistry.h"
 169              		.loc 3 135 0
 170 0000 104B     		ldr	r3, .L16
 171              	.LBE51:
ARM GAS  /var/tmp//ccb2OorB.s 			page 4


 172              	.LBE50:
 173              		.loc 1 177 0
 174 0002 114A     		ldr	r2, .L16+4
 175              	.LBB54:
 176              	.LBB52:
 177              		.loc 3 135 0
 178 0004 9B69     		ldr	r3, [r3, #24]
 179 0006 1149     		ldr	r1, .L16+8
 180 0008 114C     		ldr	r4, .L16+12
 181 000a 124E     		ldr	r6, .L16+16
 182              	.LBE52:
 183              	.LBE54:
 184              		.loc 1 172 0
 185 000c 80B5     		push	{r7, lr}
 186              		.cfi_def_cfa_offset 8
 187              		.cfi_offset 7, -8
 188              		.cfi_offset 14, -4
 189 000e 124F     		ldr	r7, .L16+20
 190              	.LBB55:
 191              	.LBB53:
 192              		.loc 3 135 0
 193 0010 9961     		str	r1, [r3, #24]
 194              	.LVL9:
 195              	.LBE53:
 196              	.LBE55:
 197              		.loc 1 177 0
 198 0012 1360     		str	r3, [r2]
 199              		.loc 1 186 0
 200 0014 4FF00008 		mov	r8, #0
 201              	.LVL10:
 202              	.L13:
 203              		.loc 1 180 0
 204 0018 0120     		movs	r0, #1
 205 001a FFF7FEFF 		bl	chEvtWaitAny
 206              	.LVL11:
 207              	.L10:
 208 001e 2368     		ldr	r3, [r4]
 209              	.L11:
 210              		.loc 1 182 0
 211 0020 3268     		ldr	r2, [r6]
 212 0022 9A42     		cmp	r2, r3
 213              		.loc 1 183 0
 214 0024 03F10105 		add	r5, r3, #1
 215 0028 4FF00101 		mov	r1, #1
 216              		.loc 1 182 0
 217 002c F4D0     		beq	.L13
 218              		.loc 1 183 0
 219 002e F85C     		ldrb	r0, [r7, r3]	@ zero_extendqisi2
 220 0030 2560     		str	r5, [r4]
 221 0032 FFF7FEFF 		bl	packet_process_byte
 222              	.LVL12:
 223              		.loc 1 185 0
 224 0036 2368     		ldr	r3, [r4]
 225 0038 B3F5806F 		cmp	r3, #1024
 226 003c F0D1     		bne	.L11
 227              		.loc 1 186 0
 228 003e C4F80080 		str	r8, [r4]
ARM GAS  /var/tmp//ccb2OorB.s 			page 5


 229 0042 ECE7     		b	.L10
 230              	.L17:
 231              		.align	2
 232              	.L16:
 233 0044 00000000 		.word	ch
 234 0048 00000000 		.word	.LANCHOR2
 235 004c 00000000 		.word	.LC0
 236 0050 00000000 		.word	.LANCHOR3
 237 0054 00000000 		.word	.LANCHOR0
 238 0058 00000000 		.word	.LANCHOR1
 239              		.cfi_endproc
 240              	.LFE267:
 241              		.size	packet_process_thread, .-packet_process_thread
 242              		.section	.text.process_packet,"ax",%progbits
 243              		.align	1
 244              		.p2align 4,,15
 245              		.syntax unified
 246              		.thumb
 247              		.thumb_func
 248              		.fpu fpv4-sp-d16
 249              		.type	process_packet, %function
 250              	process_packet:
 251              	.LFB261:
 252              		.loc 1 113 0
 253              		.cfi_startproc
 254              		@ args = 0, pretend = 0, frame = 0
 255              		@ frame_needed = 0, uses_anonymous_args = 0
 256              	.LVL13:
 257 0000 38B5     		push	{r3, r4, r5, lr}
 258              		.cfi_def_cfa_offset 16
 259              		.cfi_offset 3, -16
 260              		.cfi_offset 4, -12
 261              		.cfi_offset 5, -8
 262              		.cfi_offset 14, -4
 263              		.loc 1 113 0
 264 0002 0446     		mov	r4, r0
 265 0004 0D46     		mov	r5, r1
 266              		.loc 1 114 0
 267 0006 0448     		ldr	r0, .L20
 268              	.LVL14:
 269 0008 FFF7FEFF 		bl	commands_set_send_func
 270              	.LVL15:
 271              		.loc 1 115 0
 272 000c 2946     		mov	r1, r5
 273 000e 2046     		mov	r0, r4
 274              		.loc 1 116 0
 275 0010 BDE83840 		pop	{r3, r4, r5, lr}
 276              		.cfi_restore 14
 277              		.cfi_restore 5
 278              		.cfi_restore 4
 279              		.cfi_restore 3
 280              		.cfi_def_cfa_offset 0
 281              	.LVL16:
 282              		.loc 1 115 0
 283 0014 FFF7FEBF 		b	commands_process_packet
 284              	.LVL17:
 285              	.L21:
ARM GAS  /var/tmp//ccb2OorB.s 			page 6


 286              		.align	2
 287              	.L20:
 288 0018 00000000 		.word	send_packet_wrapper
 289              		.cfi_endproc
 290              	.LFE261:
 291              		.size	process_packet, .-process_packet
 292              		.section	.text.send_packet_wrapper,"ax",%progbits
 293              		.align	1
 294              		.p2align 4,,15
 295              		.syntax unified
 296              		.thumb
 297              		.thumb_func
 298              		.fpu fpv4-sp-d16
 299              		.type	send_packet_wrapper, %function
 300              	send_packet_wrapper:
 301              	.LFB262:
 302              		.loc 1 118 0
 303              		.cfi_startproc
 304              		@ args = 0, pretend = 0, frame = 0
 305              		@ frame_needed = 0, uses_anonymous_args = 0
 306              		@ link register save eliminated.
 307              	.LVL18:
 308              		.loc 1 119 0
 309 0000 0122     		movs	r2, #1
 310 0002 FFF7FEBF 		b	packet_send_packet
 311              	.LVL19:
 312              		.cfi_endproc
 313              	.LFE262:
 314              		.size	send_packet_wrapper, .-send_packet_wrapper
 315 0006 00BF     		.section	.text.send_packet,"ax",%progbits
 316              		.align	1
 317              		.p2align 4,,15
 318              		.syntax unified
 319              		.thumb
 320              		.thumb_func
 321              		.fpu fpv4-sp-d16
 322              		.type	send_packet, %function
 323              	send_packet:
 324              	.LFB263:
 325              		.loc 1 122 0
 326              		.cfi_startproc
 327              		@ args = 0, pretend = 0, frame = 0
 328              		@ frame_needed = 0, uses_anonymous_args = 0
 329              	.LVL20:
 330 0000 70B5     		push	{r4, r5, r6, lr}
 331              		.cfi_def_cfa_offset 16
 332              		.cfi_offset 4, -16
 333              		.cfi_offset 5, -12
 334              		.cfi_offset 6, -8
 335              		.cfi_offset 14, -4
 336              		.loc 1 124 0
 337 0002 0C4C     		ldr	r4, .L30
 338 0004 6378     		ldrb	r3, [r4, #1]	@ zero_extendqisi2
 339 0006 012B     		cmp	r3, #1
 340              		.loc 1 122 0
 341 0008 0646     		mov	r6, r0
 342 000a 0D46     		mov	r5, r1
ARM GAS  /var/tmp//ccb2OorB.s 			page 7


 343              		.loc 1 124 0
 344 000c 05D1     		bne	.L25
 345              	.LVL21:
 346              	.L24:
 347              		.loc 1 125 0
 348 000e 0120     		movs	r0, #1
 349 0010 FFF7FEFF 		bl	chThdSleep
 350              	.LVL22:
 351              		.loc 1 124 0
 352 0014 6378     		ldrb	r3, [r4, #1]	@ zero_extendqisi2
 353 0016 012B     		cmp	r3, #1
 354 0018 F9D0     		beq	.L24
 355              	.L25:
 356              		.loc 1 131 0
 357 001a 3146     		mov	r1, r6
 358 001c 2A46     		mov	r2, r5
 359 001e 0648     		ldr	r0, .L30+4
 360 0020 FFF7FEFF 		bl	memcpy
 361              	.LVL23:
 362              		.loc 1 133 0
 363 0024 2946     		mov	r1, r5
 364 0026 044A     		ldr	r2, .L30+4
 365 0028 0248     		ldr	r0, .L30
 366              		.loc 1 134 0
 367 002a BDE87040 		pop	{r4, r5, r6, lr}
 368              		.cfi_restore 14
 369              		.cfi_restore 6
 370              		.cfi_restore 5
 371              		.cfi_restore 4
 372              		.cfi_def_cfa_offset 0
 373              	.LVL24:
 374              		.loc 1 133 0
 375 002e FFF7FEBF 		b	uartStartSend
 376              	.LVL25:
 377              	.L31:
 378 0032 00BF     		.align	2
 379              	.L30:
 380 0034 00000000 		.word	UARTD6
 381 0038 00000000 		.word	.LANCHOR4
 382              		.cfi_endproc
 383              	.LFE263:
 384              		.size	send_packet, .-send_packet
 385              		.section	.text.txend2,"ax",%progbits
 386              		.align	1
 387              		.p2align 4,,15
 388              		.syntax unified
 389              		.thumb
 390              		.thumb_func
 391              		.fpu fpv4-sp-d16
 392              		.type	txend2, %function
 393              	txend2:
 394              	.LFB269:
 395              		.cfi_startproc
 396              		@ args = 0, pretend = 0, frame = 0
 397              		@ frame_needed = 0, uses_anonymous_args = 0
 398              		@ link register save eliminated.
 399 0000 7047     		bx	lr
ARM GAS  /var/tmp//ccb2OorB.s 			page 8


 400              		.cfi_endproc
 401              	.LFE269:
 402              		.size	txend2, .-txend2
 403 0002 00BF     		.section	.text.txend1,"ax",%progbits
 404              		.align	1
 405              		.p2align 4,,15
 406              		.syntax unified
 407              		.thumb
 408              		.thumb_func
 409              		.fpu fpv4-sp-d16
 410              		.type	txend1, %function
 411              	txend1:
 412              	.LFB271:
 413              		.cfi_startproc
 414              		@ args = 0, pretend = 0, frame = 0
 415              		@ frame_needed = 0, uses_anonymous_args = 0
 416              		@ link register save eliminated.
 417 0000 7047     		bx	lr
 418              		.cfi_endproc
 419              	.LFE271:
 420              		.size	txend1, .-txend1
 421 0002 00BF     		.section	.text.app_uartcomm_start,"ax",%progbits
 422              		.align	1
 423              		.p2align 4,,15
 424              		.global	app_uartcomm_start
 425              		.syntax unified
 426              		.thumb
 427              		.thumb_func
 428              		.fpu fpv4-sp-d16
 429              		.type	app_uartcomm_start, %function
 430              	app_uartcomm_start:
 431              	.LFB264:
 432              		.loc 1 136 0
 433              		.cfi_startproc
 434              		@ args = 0, pretend = 0, frame = 0
 435              		@ frame_needed = 0, uses_anonymous_args = 0
 436              		.loc 1 136 0
 437 0000 30B5     		push	{r4, r5, lr}
 438              		.cfi_def_cfa_offset 12
 439              		.cfi_offset 4, -12
 440              		.cfi_offset 5, -8
 441              		.cfi_offset 14, -4
 442              		.loc 1 141 0
 443 0002 164C     		ldr	r4, .L37
 444              		.loc 1 137 0
 445 0004 1649     		ldr	r1, .L37+4
 446 0006 1748     		ldr	r0, .L37+8
 447 0008 0122     		movs	r2, #1
 448              		.loc 1 136 0
 449 000a 83B0     		sub	sp, sp, #12
 450              		.cfi_def_cfa_offset 24
 451              		.loc 1 137 0
 452 000c FFF7FEFF 		bl	packet_init
 453              	.LVL26:
 454              		.loc 1 138 0
 455 0010 1548     		ldr	r0, .L37+12
 456              		.loc 1 139 0
ARM GAS  /var/tmp//ccb2OorB.s 			page 9


 457 0012 1649     		ldr	r1, .L37+16
 458              		.loc 1 141 0
 459 0014 2378     		ldrb	r3, [r4]	@ zero_extendqisi2
 460              		.loc 1 138 0
 461 0016 0022     		movs	r2, #0
 462 0018 0260     		str	r2, [r0]
 463              		.loc 1 139 0
 464 001a 0A60     		str	r2, [r1]
 465              		.loc 1 141 0
 466 001c 5BB9     		cbnz	r3, .L35
 467 001e 03F0FF05 		and	r5, r3, #255
 468              		.loc 1 142 0
 469 0022 0095     		str	r5, [sp]
 470 0024 124B     		ldr	r3, .L37+20
 471 0026 1348     		ldr	r0, .L37+24
 472 0028 4022     		movs	r2, #64
 473 002a 41F29811 		movw	r1, #4504
 474 002e FFF7FEFF 		bl	chThdCreateStatic
 475              	.LVL27:
 476              		.loc 1 144 0
 477 0032 0123     		movs	r3, #1
 478 0034 2370     		strb	r3, [r4]
 479              	.L35:
 480              		.loc 1 147 0
 481 0036 1049     		ldr	r1, .L37+28
 482 0038 1048     		ldr	r0, .L37+32
 483 003a FFF7FEFF 		bl	uartStart
 484              	.LVL28:
 485              		.loc 1 148 0
 486 003e 40F23A42 		movw	r2, #1082
 487 0042 4021     		movs	r1, #64
 488 0044 0E48     		ldr	r0, .L37+36
 489 0046 FFF7FEFF 		bl	_pal_lld_setgroupmode
 490              	.LVL29:
 491              		.loc 1 151 0
 492 004a 0D48     		ldr	r0, .L37+36
 493 004c 40F23A42 		movw	r2, #1082
 494 0050 8021     		movs	r1, #128
 495              		.loc 1 154 0
 496 0052 03B0     		add	sp, sp, #12
 497              		.cfi_def_cfa_offset 12
 498              		@ sp needed
 499 0054 BDE83040 		pop	{r4, r5, lr}
 500              		.cfi_restore 14
 501              		.cfi_restore 5
 502              		.cfi_restore 4
 503              		.cfi_def_cfa_offset 0
 504              		.loc 1 151 0
 505 0058 FFF7FEBF 		b	_pal_lld_setgroupmode
 506              	.LVL30:
 507              	.L38:
 508              		.align	2
 509              	.L37:
 510 005c 00000000 		.word	.LANCHOR5
 511 0060 00000000 		.word	process_packet
 512 0064 00000000 		.word	send_packet
 513 0068 00000000 		.word	.LANCHOR3
ARM GAS  /var/tmp//ccb2OorB.s 			page 10


 514 006c 00000000 		.word	.LANCHOR0
 515 0070 00000000 		.word	packet_process_thread
 516 0074 00000000 		.word	.LANCHOR6
 517 0078 00000000 		.word	.LANCHOR7
 518 007c 00000000 		.word	UARTD6
 519 0080 00080240 		.word	1073874944
 520              		.cfi_endproc
 521              	.LFE264:
 522              		.size	app_uartcomm_start, .-app_uartcomm_start
 523              		.section	.text.app_uartcomm_stop,"ax",%progbits
 524              		.align	1
 525              		.p2align 4,,15
 526              		.global	app_uartcomm_stop
 527              		.syntax unified
 528              		.thumb
 529              		.thumb_func
 530              		.fpu fpv4-sp-d16
 531              		.type	app_uartcomm_stop, %function
 532              	app_uartcomm_stop:
 533              	.LFB265:
 534              		.loc 1 156 0
 535              		.cfi_startproc
 536              		@ args = 0, pretend = 0, frame = 0
 537              		@ frame_needed = 0, uses_anonymous_args = 0
 538 0000 10B5     		push	{r4, lr}
 539              		.cfi_def_cfa_offset 8
 540              		.cfi_offset 4, -8
 541              		.cfi_offset 14, -4
 542              		.loc 1 158 0
 543 0002 084C     		ldr	r4, .L41
 544              		.loc 1 157 0
 545 0004 0848     		ldr	r0, .L41+4
 546 0006 FFF7FEFF 		bl	uartStop
 547              	.LVL31:
 548              		.loc 1 158 0
 549 000a 2046     		mov	r0, r4
 550 000c 2022     		movs	r2, #32
 551 000e 4021     		movs	r1, #64
 552 0010 FFF7FEFF 		bl	_pal_lld_setgroupmode
 553              	.LVL32:
 554              		.loc 1 159 0
 555 0014 2046     		mov	r0, r4
 556 0016 2022     		movs	r2, #32
 557 0018 8021     		movs	r1, #128
 558              		.loc 1 162 0
 559 001a BDE81040 		pop	{r4, lr}
 560              		.cfi_restore 14
 561              		.cfi_restore 4
 562              		.cfi_def_cfa_offset 0
 563              		.loc 1 159 0
 564 001e FFF7FEBF 		b	_pal_lld_setgroupmode
 565              	.LVL33:
 566              	.L42:
 567 0022 00BF     		.align	2
 568              	.L41:
 569 0024 00080240 		.word	1073874944
 570 0028 00000000 		.word	UARTD6
ARM GAS  /var/tmp//ccb2OorB.s 			page 11


 571              		.cfi_endproc
 572              	.LFE265:
 573              		.size	app_uartcomm_stop, .-app_uartcomm_stop
 574              		.section	.text.app_uartcomm_configure,"ax",%progbits
 575              		.align	1
 576              		.p2align 4,,15
 577              		.global	app_uartcomm_configure
 578              		.syntax unified
 579              		.thumb
 580              		.thumb_func
 581              		.fpu fpv4-sp-d16
 582              		.type	app_uartcomm_configure, %function
 583              	app_uartcomm_configure:
 584              	.LFB266:
 585              		.loc 1 164 0
 586              		.cfi_startproc
 587              		@ args = 0, pretend = 0, frame = 0
 588              		@ frame_needed = 0, uses_anonymous_args = 0
 589              		@ link register save eliminated.
 590              	.LVL34:
 591              		.loc 1 167 0
 592 0000 044B     		ldr	r3, .L46
 593              		.loc 1 165 0
 594 0002 0549     		ldr	r1, .L46+4
 595              		.loc 1 167 0
 596 0004 1B78     		ldrb	r3, [r3]	@ zero_extendqisi2
 597              		.loc 1 165 0
 598 0006 4861     		str	r0, [r1, #20]
 599              		.loc 1 167 0
 600 0008 03B9     		cbnz	r3, .L45
 601 000a 7047     		bx	lr
 602              	.L45:
 603              		.loc 1 168 0
 604 000c 0348     		ldr	r0, .L46+8
 605              	.LVL35:
 606 000e FFF7FEBF 		b	uartStart
 607              	.LVL36:
 608              	.L47:
 609 0012 00BF     		.align	2
 610              	.L46:
 611 0014 00000000 		.word	.LANCHOR5
 612 0018 00000000 		.word	.LANCHOR7
 613 001c 00000000 		.word	UARTD6
 614              		.cfi_endproc
 615              	.LFE266:
 616              		.size	app_uartcomm_configure, .-app_uartcomm_configure
 617              		.section	.bss.buffer.10844,"aw",%nobits
 618              		.align	2
 619              		.set	.LANCHOR4,. + 0
 620              		.type	buffer.10844, %object
 621              		.size	buffer.10844, 1029
 622              	buffer.10844:
 623 0000 00000000 		.space	1029
 623      00000000 
 623      00000000 
 623      00000000 
 623      00000000 
ARM GAS  /var/tmp//ccb2OorB.s 			page 12


 624              		.section	.bss.is_running,"aw",%nobits
 625              		.set	.LANCHOR5,. + 0
 626              		.type	is_running, %object
 627              		.size	is_running, 1
 628              	is_running:
 629 0000 00       		.space	1
 630              		.section	.bss.packet_process_thread_wa,"aw",%nobits
 631              		.align	3
 632              		.set	.LANCHOR6,. + 0
 633              		.type	packet_process_thread_wa, %object
 634              		.size	packet_process_thread_wa, 4504
 635              	packet_process_thread_wa:
 636 0000 00000000 		.space	4504
 636      00000000 
 636      00000000 
 636      00000000 
 636      00000000 
 637              		.section	.bss.process_tp,"aw",%nobits
 638              		.align	2
 639              		.set	.LANCHOR2,. + 0
 640              		.type	process_tp, %object
 641              		.size	process_tp, 4
 642              	process_tp:
 643 0000 00000000 		.space	4
 644              		.section	.bss.serial_rx_buffer,"aw",%nobits
 645              		.align	2
 646              		.set	.LANCHOR1,. + 0
 647              		.type	serial_rx_buffer, %object
 648              		.size	serial_rx_buffer, 1024
 649              	serial_rx_buffer:
 650 0000 00000000 		.space	1024
 650      00000000 
 650      00000000 
 650      00000000 
 650      00000000 
 651              		.section	.bss.serial_rx_read_pos,"aw",%nobits
 652              		.align	2
 653              		.set	.LANCHOR3,. + 0
 654              		.type	serial_rx_read_pos, %object
 655              		.size	serial_rx_read_pos, 4
 656              	serial_rx_read_pos:
 657 0000 00000000 		.space	4
 658              		.section	.bss.serial_rx_write_pos,"aw",%nobits
 659              		.align	2
 660              		.set	.LANCHOR0,. + 0
 661              		.type	serial_rx_write_pos, %object
 662              		.size	serial_rx_write_pos, 4
 663              	serial_rx_write_pos:
 664 0000 00000000 		.space	4
 665              		.section	.data.uart_cfg,"aw",%progbits
 666              		.align	2
 667              		.set	.LANCHOR7,. + 0
 668              		.type	uart_cfg, %object
 669              		.size	uart_cfg, 32
 670              	uart_cfg:
 671 0000 00000000 		.word	txend1
 672 0004 00000000 		.word	txend2
ARM GAS  /var/tmp//ccb2OorB.s 			page 13


 673 0008 00000000 		.word	rxend
 674 000c 00000000 		.word	rxchar
 675 0010 00000000 		.word	rxerr
 676 0014 00C20100 		.word	115200
 677 0018 0000     		.short	0
 678 001a 0040     		.short	16384
 679 001c 0000     		.short	0
 680 001e 0000     		.space	2
 681              		.section	.rodata.packet_process_thread.str1.4,"aMS",%progbits,1
 682              		.align	2
 683              	.LC0:
 684 0000 75617274 		.ascii	"uartcomm process\000"
 684      636F6D6D 
 684      2070726F 
 684      63657373 
 684      00
 685              		.text
 686              	.Letext0:
 687              		.file 4 "/usr/local/gcc_arm/gcc-arm-none-eabi-6-2017-q2-update/arm-none-eabi/include/machine/_defa
 688              		.file 5 "/usr/local/gcc_arm/gcc-arm-none-eabi-6-2017-q2-update/arm-none-eabi/include/sys/_stdint.h
 689              		.file 6 "/usr/local/gcc_arm/gcc-arm-none-eabi-6-2017-q2-update/lib/gcc/arm-none-eabi/6.3.1/include
 690              		.file 7 "ChibiOS_3.0.2/os/rt/ports/ARMCMx/compilers/GCC/chtypes.h"
 691              		.file 8 "ChibiOS_3.0.2/os/rt/include/chsystypes.h"
 692              		.file 9 "ChibiOS_3.0.2/os/rt/include/chschd.h"
 693              		.file 10 "ChibiOS_3.0.2/os/ext/CMSIS/include/core_cm4.h"
 694              		.file 11 "ChibiOS_3.0.2/os/ext/CMSIS/ST/system_stm32f4xx.h"
 695              		.file 12 "ChibiOS_3.0.2/os/ext/CMSIS/ST/stm32f407xx.h"
 696              		.file 13 "ChibiOS_3.0.2/os/rt/ports/ARMCMx/chcore.h"
 697              		.file 14 "ChibiOS_3.0.2/os/rt/ports/ARMCMx/chcore_v7m.h"
 698              		.file 15 "ChibiOS_3.0.2/os/rt/include/chtm.h"
 699              		.file 16 "ChibiOS_3.0.2/os/rt/include/chsem.h"
 700              		.file 17 "ChibiOS_3.0.2/os/rt/include/chmtx.h"
 701              		.file 18 "ChibiOS_3.0.2/os/rt/include/chevents.h"
 702              		.file 19 "ChibiOS_3.0.2/os/rt/include/chqueues.h"
 703              		.file 20 "./conf_general.h"
 704              		.file 21 "ChibiOS_3.0.2/os/hal/ports/STM32/STM32F4xx/stm32_dma.h"
 705              		.file 22 "ChibiOS_3.0.2/os/hal/ports/STM32/LLD/GPIOv2/pal_lld.h"
 706              		.file 23 "ChibiOS_3.0.2/os/hal/include/can.h"
 707              		.file 24 "ChibiOS_3.0.2/os/hal/ports/STM32/LLD/can_lld.h"
 708              		.file 25 "ChibiOS_3.0.2/os/hal/include/i2c.h"
 709              		.file 26 "ChibiOS_3.0.2/os/hal/ports/STM32/LLD/I2Cv1/i2c_lld.h"
 710              		.file 27 "ChibiOS_3.0.2/os/hal/include/icu.h"
 711              		.file 28 "ChibiOS_3.0.2/os/hal/ports/STM32/LLD/TIMv1/icu_lld.h"
 712              		.file 29 "ChibiOS_3.0.2/os/hal/ports/STM32/LLD/TIMv1/stm32_tim.h"
 713              		.file 30 "ChibiOS_3.0.2/os/hal/include/spi.h"
 714              		.file 31 "ChibiOS_3.0.2/os/hal/ports/STM32/LLD/SPIv1/spi_lld.h"
 715              		.file 32 "ChibiOS_3.0.2/os/hal/include/uart.h"
 716              		.file 33 "ChibiOS_3.0.2/os/hal/ports/STM32/LLD/USARTv1/uart_lld.h"
 717              		.file 34 "ChibiOS_3.0.2/os/hal/include/usb.h"
 718              		.file 35 "ChibiOS_3.0.2/os/hal/ports/STM32/LLD/OTGv1/usb_lld.h"
 719              		.file 36 "ChibiOS_3.0.2/os/hal/ports/STM32/LLD/OTGv1/stm32_otg.h"
 720              		.file 37 "/usr/local/gcc_arm/gcc-arm-none-eabi-6-2017-q2-update/arm-none-eabi/include/sys/lock.h"
 721              		.file 38 "/usr/local/gcc_arm/gcc-arm-none-eabi-6-2017-q2-update/arm-none-eabi/include/sys/_types.h
 722              		.file 39 "/usr/local/gcc_arm/gcc-arm-none-eabi-6-2017-q2-update/arm-none-eabi/include/sys/reent.h"
 723              		.file 40 "ChibiOS_3.0.2/os/rt/include/chsys.h"
 724              		.file 41 "./packet.h"
 725              		.file 42 "ChibiOS_3.0.2/os/rt/include/chthreads.h"
ARM GAS  /var/tmp//ccb2OorB.s 			page 14


 726              		.file 43 "./commands.h"