ARM GAS  /var/tmp//ccie11Lx.s 			page 1


   1              		.cpu cortex-m4
   2              		.eabi_attribute 27, 1
   3              		.eabi_attribute 28, 1
   4              		.eabi_attribute 20, 1
   5              		.eabi_attribute 21, 1
   6              		.eabi_attribute 23, 3
   7              		.eabi_attribute 24, 1
   8              		.eabi_attribute 25, 1
   9              		.eabi_attribute 26, 1
  10              		.eabi_attribute 30, 2
  11              		.eabi_attribute 34, 1
  12              		.eabi_attribute 18, 4
  13              		.file	"app_test.c"
  14              		.text
  15              	.Ltext0:
  16              		.cfi_sections	.debug_frame
  17              		.section	.text.example_thread,"ax",%progbits
  18              		.align	1
  19              		.p2align 4,,15
  20              		.syntax unified
  21              		.thumb
  22              		.thumb_func
  23              		.fpu fpv4-sp-d16
  24              		.type	example_thread, %function
  25              	example_thread:
  26              	.LFB257:
  27              		.file 1 "applications/app_test.c"
  28              		.loc 1 87 0
  29              		.cfi_startproc
  30              		@ args = 0, pretend = 0, frame = 8
  31              		@ frame_needed = 0, uses_anonymous_args = 0
  32              	.LVL0:
  33 0000 2DE9F04F 		push	{r4, r5, r6, r7, r8, r9, r10, fp, lr}
  34              		.cfi_def_cfa_offset 36
  35              		.cfi_offset 4, -36
  36              		.cfi_offset 5, -32
  37              		.cfi_offset 6, -28
  38              		.cfi_offset 7, -24
  39              		.cfi_offset 8, -20
  40              		.cfi_offset 9, -16
  41              		.cfi_offset 10, -12
  42              		.cfi_offset 11, -8
  43              		.cfi_offset 14, -4
  44              	.LBB52:
  45              	.LBB53:
  46              		.file 2 "ChibiOS_3.0.2/os/rt/include/chregistry.h"
  47              		.loc 2 135 0
  48 0004 AD4C     		ldr	r4, .L70
  49 0006 AE4A     		ldr	r2, .L70+4
  50 0008 A369     		ldr	r3, [r4, #24]
  51 000a AE4E     		ldr	r6, .L70+8
  52 000c DFF818B3 		ldr	fp, .L70+108
  53 0010 DFF818A3 		ldr	r10, .L70+112
  54 0014 DFF81893 		ldr	r9, .L70+116
  55 0018 DFF81883 		ldr	r8, .L70+120
  56              	.LBE53:
  57              	.LBE52:
ARM GAS  /var/tmp//ccie11Lx.s 			page 2


  58              	.LBB55:
  59              		.loc 1 120 0
  60 001c AA4F     		ldr	r7, .L70+12
  61              	.LBE55:
  62              		.loc 1 87 0
  63 001e 2DED048B 		vpush.64	{d8, d9}
  64              		.cfi_def_cfa_offset 52
  65              		.cfi_offset 80, -52
  66              		.cfi_offset 81, -48
  67              		.cfi_offset 82, -44
  68              		.cfi_offset 83, -40
  69              	.LBB114:
  70              	.LBB54:
  71              		.loc 2 135 0
  72 0022 9A61     		str	r2, [r3, #24]
  73              	.LVL1:
  74              	.LBE54:
  75              	.LBE114:
  76              		.loc 1 87 0
  77 0024 83B0     		sub	sp, sp, #12
  78              		.cfi_def_cfa_offset 64
  79              		.loc 1 93 0
  80 0026 FFF7FEFF 		bl	mc_interface_get_configuration
  81              	.LVL2:
  82              		.loc 1 104 0
  83 002a A84A     		ldr	r2, .L70+16
  84              	.LBB115:
  85              		.loc 1 144 0
  86 002c DFEDA88A 		vldr.32	s17, .L70+20
  87              		.loc 1 147 0
  88 0030 DFEDA89A 		vldr.32	s19, .L70+24
  89              		.loc 1 129 0
  90 0034 9FEDA88A 		vldr.32	s16, .L70+28
  91 0038 9FEDA89A 		vldr.32	s18, .L70+32
  92              	.LBE115:
  93              		.loc 1 93 0
  94 003c 0190     		str	r0, [sp, #4]
  95              	.LVL3:
  96              		.loc 1 104 0
  97 003e 0023     		movs	r3, #0
  98              		.loc 1 107 0
  99 0040 0125     		movs	r5, #1
 100              		.loc 1 104 0
 101 0042 1360     		str	r3, [r2]
 102              	.LVL4:
 103              		.loc 1 106 0
 104 0044 0095     		str	r5, [sp]
 105              	.LVL5:
 106              	.L33:
 107              	.LBB116:
 108              		.loc 1 115 0
 109 0046 A64B     		ldr	r3, .L70+36
 110 0048 9B8A     		ldrh	r3, [r3, #20]
 111              	.LVL6:
 112              		.loc 1 120 0
 113 004a 3A69     		ldr	r2, [r7, #16]
 114              	.LVL7:
ARM GAS  /var/tmp//ccie11Lx.s 			page 3


 115              		.loc 1 122 0
 116 004c 3B69     		ldr	r3, [r7, #16]
 117              		.loc 1 127 0
 118 004e 12F0800F 		tst	r2, #128
 119 0052 03F04003 		and	r3, r3, #64
 120              	.LVL8:
 121 0056 009A     		ldr	r2, [sp]
 122              	.LVL9:
 123 0058 40F08C80 		bne	.L66
 124              		.loc 1 141 0 discriminator 1
 125 005c 002A     		cmp	r2, #0
 126 005e 40F0B780 		bne	.L67
 127              		.loc 1 143 0
 128 0062 0122     		movs	r2, #1
 129 0064 0092     		str	r2, [sp]
 130              	.LVL10:
 131              	.L3:
 132              		.loc 1 152 0
 133 0066 002B     		cmp	r3, #0
 134 0068 68D0     		beq	.L5
 135              		.loc 1 152 0 is_stmt 0 discriminator 1
 136 006a 002D     		cmp	r5, #0
 137 006c 40F01A81 		bne	.L68
 138              	.LVL11:
 139              	.L6:
 140              		.loc 1 197 0 is_stmt 1
 141 0070 D8F80030 		ldr	r3, [r8]
 142 0074 B3B9     		cbnz	r3, .L37
 143              	.LBB56:
 144              	.LBB57:
 145              		.file 3 "ChibiOS_3.0.2/os/rt/include/chvt.h"
 146              		.loc 3 267 0
 147 0076 9B4A     		ldr	r2, .L70+40
 148              	.LBB58:
 149              	.LBB59:
 150              		.loc 3 231 0
 151 0078 A36A     		ldr	r3, [r4, #40]
 152              	.LBE59:
 153              	.LBE58:
 154              		.loc 3 267 0
 155 007a 1268     		ldr	r2, [r2]
 156              	.LBE57:
 157              	.LBE56:
 158              		.loc 1 201 0
 159 007c 4FF47A71 		mov	r1, #1000
 160              	.LBB61:
 161              	.LBB60:
 162              		.loc 3 267 0
 163 0080 9B1A     		subs	r3, r3, r2
 164              	.LBE60:
 165              	.LBE61:
 166              		.loc 1 201 0
 167 0082 42F20F72 		movw	r2, #9999
 168 0086 01FB0323 		mla	r3, r1, r3, r2
 169 008a 974A     		ldr	r2, .L70+44
 170 008c A2FB0323 		umull	r2, r3, r2, r3
 171 0090 5B0B     		lsrs	r3, r3, #13
ARM GAS  /var/tmp//ccie11Lx.s 			page 4


 172 0092 07EE903A 		vmov	s15, r3	@ int
 173 0096 F8EEE77A 		vcvt.f32.s32	s15, s15
 174              		.loc 1 199 0
 175 009a 0123     		movs	r3, #1
 176              		.loc 1 201 0
 177 009c CBED007A 		vstr.32	s15, [fp]
 178              		.loc 1 199 0
 179 00a0 C8F80030 		str	r3, [r8]
 180              	.L37:
 181              		.loc 1 205 0
 182 00a4 DAF80030 		ldr	r3, [r10]
 183 00a8 2BB9     		cbnz	r3, .L15
 184              		.loc 1 207 0
 185 00aa 904A     		ldr	r2, .L70+48
 186              	.LBB62:
 187              	.LBB63:
 188              		.loc 3 231 0
 189 00ac A36A     		ldr	r3, [r4, #40]
 190              	.LBE63:
 191              	.LBE62:
 192              		.loc 1 207 0
 193 00ae 1360     		str	r3, [r2]
 194              		.loc 1 208 0
 195 00b0 0123     		movs	r3, #1
 196 00b2 CAF80030 		str	r3, [r10]
 197              	.L15:
 198              		.loc 1 212 0
 199 00b6 8E4B     		ldr	r3, .L70+52
 200              	.LBB64:
 201              	.LBB65:
 202              		.loc 3 231 0
 203 00b8 A16A     		ldr	r1, [r4, #40]
 204              	.LBE65:
 205              	.LBE64:
 206              		.loc 1 211 0
 207 00ba 0025     		movs	r5, #0
 208              		.loc 1 212 0
 209 00bc 1D60     		str	r5, [r3]
 210              		.loc 1 214 0
 211 00be 8D4B     		ldr	r3, .L70+56
 212              		.loc 1 211 0
 213 00c0 C9F80050 		str	r5, [r9]
 214              		.loc 1 214 0
 215 00c4 1960     		str	r1, [r3]
 216 00c6 8C4B     		ldr	r3, .L70+60
 217 00c8 D3ED007A 		vldr.32	s15, [r3]
 218 00cc 8B4B     		ldr	r3, .L70+64
 219 00ce 1B68     		ldr	r3, [r3]
 220              	.LVL12:
 221              	.L16:
 222              	.LBB66:
 223              		.loc 1 240 0
 224 00d0 9BED007A 		vldr.32	s14, [fp]
 225              		.loc 1 246 0
 226 00d4 8A48     		ldr	r0, .L70+68
 227              		.loc 1 240 0
 228 00d6 F4EEC77A 		vcmpe.f32	s15, s14
ARM GAS  /var/tmp//ccie11Lx.s 			page 5


 229 00da F1EE10FA 		vmrs	APSR_nzcv, FPSCR
 230              		.loc 1 242 0
 231 00de 4CBF     		ite	mi
 232 00e0 0122     		movmi	r2, #1
 233              		.loc 1 246 0
 234 00e2 0022     		movpl	r2, #0
 235              	.LBE66:
 236              		.loc 1 252 0
 237 00e4 8B42     		cmp	r3, r1
 238              		.loc 1 254 0
 239 00e6 94BF     		ite	ls
 240 00e8 CB1A     		subls	r3, r1, r3
 241              		.loc 1 256 0
 242 00ea 5B1A     		subhi	r3, r3, r1
 243 00ec 07EE903A 		vmov	s15, r3	@ int
 244              		.loc 1 261 0
 245 00f0 3378     		ldrb	r3, [r6]	@ zero_extendqisi2
 246              	.LBB67:
 247              		.loc 1 246 0
 248 00f2 0270     		strb	r2, [r0]
 249              	.LBE67:
 250              		.loc 1 256 0
 251 00f4 F8EE677A 		vcvt.f32.u32	s15, s15
 252              	.LVL13:
 253              		.loc 1 261 0
 254 00f8 5BB1     		cbz	r3, .L24
 255              		.loc 1 261 0 is_stmt 0 discriminator 1
 256 00fa 9FED827A 		vldr.32	s14, .L70+72
 257 00fe F4EEC77A 		vcmpe.f32	s15, s14
 258 0102 F1EE10FA 		vmrs	APSR_nzcv, FPSCR
 259 0106 40F39880 		ble	.L61
 260              		.loc 1 264 0 is_stmt 1
 261 010a 7F49     		ldr	r1, .L70+76
 262              		.loc 1 263 0
 263 010c 0023     		movs	r3, #0
 264 010e 3370     		strb	r3, [r6]
 265              		.loc 1 264 0
 266 0110 0B60     		str	r3, [r1]
 267              	.L24:
 268              		.loc 1 269 0
 269 0112 0AB9     		cbnz	r2, .L27
 270              	.L41:
 271              		.loc 1 271 0
 272 0114 0023     		movs	r3, #0
 273 0116 3370     		strb	r3, [r6]
 274              	.L27:
 275              		.loc 1 318 0
 276 0118 FFF7FEFF 		bl	mc_interface_release_motor
 277              	.LVL14:
 278              		.loc 1 319 0
 279 011c 7B49     		ldr	r1, .L70+80
 280 011e 0022     		movs	r2, #0
 281 0120 0A60     		str	r2, [r1]
 282              		.loc 1 320 0
 283 0122 7B4A     		ldr	r2, .L70+84
 284 0124 0123     		movs	r3, #1
 285 0126 1370     		strb	r3, [r2]
ARM GAS  /var/tmp//ccie11Lx.s 			page 6


 286              	.L32:
 287              		.loc 1 326 0
 288 0128 3178     		ldrb	r1, [r6]	@ zero_extendqisi2
 289 012a 7A48     		ldr	r0, .L70+88
 290 012c FFF7FEFF 		bl	commands_printf
 291              	.LVL15:
 292              		.loc 1 344 0
 293 0130 1420     		movs	r0, #20
 294 0132 FFF7FEFF 		bl	chThdSleep
 295              	.LVL16:
 296              		.loc 1 347 0
 297 0136 FFF7FEFF 		bl	timeout_reset
 298              	.LVL17:
 299              	.LBE116:
 300              		.loc 1 112 0
 301 013a 84E7     		b	.L33
 302              	.LVL18:
 303              	.L5:
 304              	.LBB117:
 305              		.loc 1 218 0
 306 013c D9F80030 		ldr	r3, [r9]
 307 0140 2BB9     		cbnz	r3, .L35
 308              		.loc 1 220 0
 309 0142 684A     		ldr	r2, .L70+40
 310              	.LBB68:
 311              	.LBB69:
 312              		.loc 3 231 0
 313 0144 A36A     		ldr	r3, [r4, #40]
 314              	.LBE69:
 315              	.LBE68:
 316              		.loc 1 220 0
 317 0146 1360     		str	r3, [r2]
 318              		.loc 1 221 0
 319 0148 0123     		movs	r3, #1
 320 014a C9F80030 		str	r3, [r9]
 321              	.L35:
 322              		.loc 1 224 0
 323 014e 684B     		ldr	r3, .L70+52
 324 0150 1B68     		ldr	r3, [r3]
 325 0152 002B     		cmp	r3, #0
 326 0154 58D0     		beq	.L17
 327 0156 684B     		ldr	r3, .L70+60
 328 0158 D3ED007A 		vldr.32	s15, [r3]
 329              	.L18:
 330 015c 6549     		ldr	r1, .L70+56
 331              	.LBB70:
 332              	.LBB71:
 333              		.loc 3 231 0
 334 015e A36A     		ldr	r3, [r4, #40]
 335 0160 0968     		ldr	r1, [r1]
 336              	.LBE71:
 337              	.LBE70:
 338              		.loc 1 232 0
 339 0162 0022     		movs	r2, #0
 340 0164 C8F80020 		str	r2, [r8]
 341              		.loc 1 233 0
 342 0168 CAF80020 		str	r2, [r10]
ARM GAS  /var/tmp//ccie11Lx.s 			page 7


 343              		.loc 1 235 0
 344 016c 634A     		ldr	r2, .L70+64
 345              		.loc 1 190 0
 346 016e 0125     		movs	r5, #1
 347              		.loc 1 235 0
 348 0170 1360     		str	r3, [r2]
 349 0172 ADE7     		b	.L16
 350              	.LVL19:
 351              	.L66:
 352              		.loc 1 127 0 discriminator 1
 353 0174 002A     		cmp	r2, #0
 354 0176 3FF476AF 		beq	.L3
 355              	.LVL20:
 356              	.LBB72:
 357              	.LBB73:
 358              		.loc 3 267 0
 359 017a 5449     		ldr	r1, .L70+16
 360              	.LBB74:
 361              	.LBB75:
 362              		.loc 3 231 0
 363 017c D4F828E0 		ldr	lr, [r4, #40]
 364              	.LVL21:
 365              	.LBE75:
 366              	.LBE74:
 367              		.loc 3 267 0
 368 0180 0968     		ldr	r1, [r1]
 369              	.LBE73:
 370              	.LBE72:
 371              		.loc 1 135 0
 372 0182 524A     		ldr	r2, .L70+16
 373              	.LVL22:
 374              	.LBB77:
 375              	.LBB78:
 376              		.loc 3 231 0
 377 0184 A06A     		ldr	r0, [r4, #40]
 378              	.LBE78:
 379              	.LBE77:
 380              		.loc 1 135 0
 381 0186 1060     		str	r0, [r2]
 382              	.LVL23:
 383              	.LBB79:
 384              	.LBB76:
 385              		.loc 3 267 0
 386 0188 AEEB0102 		sub	r2, lr, r1
 387              	.LBE76:
 388              	.LBE79:
 389              		.loc 1 129 0
 390 018c 4FF47A70 		mov	r0, #1000
 391 0190 42F20F71 		movw	r1, #9999
 392              	.LVL24:
 393 0194 00FB0212 		mla	r2, r0, r2, r1
 394 0198 5349     		ldr	r1, .L70+44
 395              		.loc 1 132 0
 396 019a 9FED5F7A 		vldr.32	s14, .L70+92
 397              		.loc 1 129 0
 398 019e A1FB0212 		umull	r1, r2, r1, r2
 399 01a2 520B     		lsrs	r2, r2, #13
ARM GAS  /var/tmp//ccie11Lx.s 			page 8


 400 01a4 07EE902A 		vmov	s15, r2	@ int
 401 01a8 F8EEE77A 		vcvt.f32.s32	s15, s15
 402 01ac B7EE006A 		vmov.f32	s12, #1.0e+0
 403 01b0 C7EE886A 		vdiv.f32	s13, s15, s16
 404              		.loc 1 134 0
 405 01b4 0022     		movs	r2, #0
 406 01b6 0092     		str	r2, [sp]
 407              	.LVL25:
 408              		.loc 1 132 0
 409 01b8 584A     		ldr	r2, .L70+96
 410              		.loc 1 129 0
 411 01ba C6EE267A 		vdiv.f32	s15, s12, s13
 412 01be 67EE897A 		vmul.f32	s15, s15, s18
 413              		.loc 1 132 0
 414 01c2 67EE877A 		vmul.f32	s15, s15, s14
 415 01c6 67EE897A 		vmul.f32	s15, s15, s18
 416 01ca C2ED007A 		vstr.32	s15, [r2]
 417              	.LVL26:
 418              		.loc 1 135 0
 419 01ce 4AE7     		b	.L3
 420              	.LVL27:
 421              	.L67:
 422              	.LBB80:
 423              	.LBB81:
 424              		.loc 3 267 0 discriminator 1
 425 01d0 3E49     		ldr	r1, .L70+16
 426              	.LBB82:
 427              	.LBB83:
 428              		.loc 3 231 0 discriminator 1
 429 01d2 A26A     		ldr	r2, [r4, #40]
 430              	.LVL28:
 431              	.LBE83:
 432              	.LBE82:
 433              		.loc 3 267 0 discriminator 1
 434 01d4 0968     		ldr	r1, [r1]
 435              	.LBE81:
 436              	.LBE80:
 437              		.loc 1 144 0 discriminator 1
 438 01d6 4FF47A70 		mov	r0, #1000
 439              	.LBB85:
 440              	.LBB84:
 441              		.loc 3 267 0 discriminator 1
 442 01da 521A     		subs	r2, r2, r1
 443              	.LBE84:
 444              	.LBE85:
 445              		.loc 1 144 0 discriminator 1
 446 01dc 42F20F71 		movw	r1, #9999
 447 01e0 00FB0212 		mla	r2, r0, r2, r1
 448 01e4 4049     		ldr	r1, .L70+44
 449 01e6 A1FB0212 		umull	r1, r2, r1, r2
 450 01ea 520B     		lsrs	r2, r2, #13
 451 01ec 07EE902A 		vmov	s15, r2	@ int
 452 01f0 F8EEE77A 		vcvt.f32.s32	s15, s15
 453 01f4 F4EEE87A 		vcmpe.f32	s15, s17
 454 01f8 F1EE10FA 		vmrs	APSR_nzcv, FPSCR
 455 01fc 7FF733AF 		ble	.L3
 456              	.LVL29:
ARM GAS  /var/tmp//ccie11Lx.s 			page 9


 457              		.loc 1 147 0
 458 0200 464A     		ldr	r2, .L70+96
 459 0202 C2ED009A 		vstr.32	s19, [r2]
 460 0206 2EE7     		b	.L3
 461              	.LVL30:
 462              	.L17:
 463              	.LBB86:
 464              	.LBB87:
 465              		.loc 3 267 0
 466 0208 384A     		ldr	r2, .L70+48
 467              	.LBB88:
 468              	.LBB89:
 469              		.loc 3 231 0
 470 020a A36A     		ldr	r3, [r4, #40]
 471              	.LBE89:
 472              	.LBE88:
 473              		.loc 3 267 0
 474 020c 1268     		ldr	r2, [r2]
 475              	.LBE87:
 476              	.LBE86:
 477              		.loc 1 228 0
 478 020e 4FF47A71 		mov	r1, #1000
 479              	.LBB91:
 480              	.LBB90:
 481              		.loc 3 267 0
 482 0212 9B1A     		subs	r3, r3, r2
 483              	.LBE90:
 484              	.LBE91:
 485              		.loc 1 228 0
 486 0214 42F20F72 		movw	r2, #9999
 487 0218 01FB0323 		mla	r3, r1, r3, r2
 488 021c 324A     		ldr	r2, .L70+44
 489 021e A2FB0323 		umull	r2, r3, r2, r3
 490 0222 5B0B     		lsrs	r3, r3, #13
 491 0224 07EE903A 		vmov	s15, r3	@ int
 492 0228 334A     		ldr	r2, .L70+60
 493 022a F8EEE77A 		vcvt.f32.s32	s15, s15
 494              		.loc 1 226 0
 495 022e 0123     		movs	r3, #1
 496              		.loc 1 228 0
 497 0230 C2ED007A 		vstr.32	s15, [r2]
 498              		.loc 1 226 0
 499 0234 2E4A     		ldr	r2, .L70+52
 500 0236 1360     		str	r3, [r2]
 501 0238 90E7     		b	.L18
 502              	.LVL31:
 503              	.L61:
 504              		.loc 1 269 0
 505 023a 002A     		cmp	r2, #0
 506 023c 3FF46AAF 		beq	.L41
 507              		.loc 1 293 0
 508 0240 334B     		ldr	r3, .L70+84
 509 0242 1B78     		ldrb	r3, [r3]	@ zero_extendqisi2
 510 0244 43B3     		cbz	r3, .L69
 511              		.loc 1 295 0
 512 0246 314B     		ldr	r3, .L70+80
 513 0248 1B68     		ldr	r3, [r3]
ARM GAS  /var/tmp//ccie11Lx.s 			page 10


 514 024a F3B1     		cbz	r3, .L28
 515 024c 344B     		ldr	r3, .L70+100
 516 024e 1A68     		ldr	r2, [r3]
 517              	.L29:
 518              	.LVL32:
 519              	.LBB92:
 520              	.LBB93:
 521              	.LBB94:
 522              	.LBB95:
 523              		.loc 3 231 0
 524 0250 A36A     		ldr	r3, [r4, #40]
 525              	.LVL33:
 526              	.LBE95:
 527              	.LBE94:
 528              	.LBE93:
 529              	.LBE92:
 530              		.loc 1 300 0
 531 0252 4FF47A71 		mov	r1, #1000
 532              	.LBB97:
 533              	.LBB96:
 534              		.loc 3 267 0
 535 0256 9B1A     		subs	r3, r3, r2
 536              	.LBE96:
 537              	.LBE97:
 538              		.loc 1 300 0
 539 0258 42F20F72 		movw	r2, #9999
 540 025c 01FB0323 		mla	r3, r1, r3, r2
 541 0260 214A     		ldr	r2, .L70+44
 542 0262 A2FB0323 		umull	r2, r3, r2, r3
 543 0266 5B0B     		lsrs	r3, r3, #13
 544 0268 07EE903A 		vmov	s15, r3	@ int
 545              	.LVL34:
 546 026c F8EEE77A 		vcvt.f32.s32	s15, s15
 547 0270 F4EEC87A 		vcmpe.f32	s15, s16
 548 0274 F1EE10FA 		vmrs	APSR_nzcv, FPSCR
 549 0278 02DD     		ble	.L30
 550              		.loc 1 302 0
 551 027a 254A     		ldr	r2, .L70+84
 552 027c 0023     		movs	r3, #0
 553 027e 1370     		strb	r3, [r2]
 554              	.L30:
 555              	.LVL35:
 556              		.loc 1 306 0
 557 0280 B1EE000A 		vmov.f32	s0, #4.0e+0
 558 0284 FFF7FEFF 		bl	mc_interface_set_current
 559              	.LVL36:
 560 0288 4EE7     		b	.L32
 561              	.LVL37:
 562              	.L28:
 563              		.loc 1 296 0
 564 028a 254B     		ldr	r3, .L70+100
 565              	.LBB98:
 566              	.LBB99:
 567              		.loc 3 231 0
 568 028c A26A     		ldr	r2, [r4, #40]
 569              	.LBE99:
 570              	.LBE98:
ARM GAS  /var/tmp//ccie11Lx.s 			page 11


 571              		.loc 1 297 0
 572 028e 1F49     		ldr	r1, .L70+80
 573              		.loc 1 296 0
 574 0290 1A60     		str	r2, [r3]
 575              		.loc 1 297 0
 576 0292 0123     		movs	r3, #1
 577 0294 0B60     		str	r3, [r1]
 578 0296 DBE7     		b	.L29
 579              	.L69:
 580              		.loc 1 310 0
 581 0298 019B     		ldr	r3, [sp, #4]
 582 029a 93ED1D0A 		vldr.32	s0, [r3, #116]
 583              	.LVL38:
 584              		.loc 1 311 0
 585 029e FFF7FEFF 		bl	mc_interface_set_current
 586              	.LVL39:
 587 02a2 41E7     		b	.L32
 588              	.LVL40:
 589              	.L68:
 590              		.loc 1 154 0
 591 02a4 184B     		ldr	r3, .L70+76
 592 02a6 1A68     		ldr	r2, [r3]
 593 02a8 002A     		cmp	r2, #0
 594 02aa 45D1     		bne	.L7
 595              		.loc 1 156 0
 596 02ac 1D48     		ldr	r0, .L70+104
 597              		.loc 1 159 0
 598 02ae 3378     		ldrb	r3, [r6]	@ zero_extendqisi2
 599              	.LBB100:
 600              	.LBB101:
 601              		.loc 3 231 0
 602 02b0 A16A     		ldr	r1, [r4, #40]
 603              	.LBE101:
 604              	.LBE100:
 605              		.loc 1 156 0
 606 02b2 0160     		str	r1, [r0]
 607              		.loc 1 159 0
 608 02b4 002B     		cmp	r3, #0
 609 02b6 6FD0     		beq	.L8
 610              	.L9:
 611              	.LVL41:
 612              	.LBB102:
 613              	.LBB103:
 614              		.loc 3 231 0
 615 02b8 A36A     		ldr	r3, [r4, #40]
 616              	.LBE103:
 617              	.LBE102:
 618              		.loc 1 185 0
 619 02ba D9E6     		b	.L6
 620              	.L71:
 621              		.align	2
 622              	.L70:
 623 02bc 00000000 		.word	ch
 624 02c0 00000000 		.word	.LC0
 625 02c4 00000000 		.word	.LANCHOR4
 626 02c8 00040240 		.word	1073873920
 627 02cc 00000000 		.word	.LANCHOR0
ARM GAS  /var/tmp//ccie11Lx.s 			page 12


 628 02d0 00803B45 		.word	1161527296
 629 02d4 00000000 		.word	0
 630 02d8 00007A44 		.word	1148846080
 631 02dc 00007042 		.word	1114636288
 632 02e0 00000000 		.word	ADC_Value
 633 02e4 00000000 		.word	.LANCHOR8
 634 02e8 5917B7D1 		.word	-776530087
 635 02ec 00000000 		.word	.LANCHOR10
 636 02f0 00000000 		.word	.LANCHOR12
 637 02f4 00000000 		.word	.LANCHOR13
 638 02f8 00000000 		.word	.LANCHOR14
 639 02fc 00000000 		.word	.LANCHOR15
 640 0300 00000000 		.word	.LANCHOR5
 641 0304 0000FA45 		.word	1174011904
 642 0308 00000000 		.word	.LANCHOR2
 643 030c 00000000 		.word	.LANCHOR16
 644 0310 00000000 		.word	.LANCHOR18
 645 0314 0C000000 		.word	.LC1
 646 0318 585A123B 		.word	991058520
 647 031c 00000000 		.word	.LANCHOR1
 648 0320 00000000 		.word	.LANCHOR17
 649 0324 00000000 		.word	.LANCHOR3
 650 0328 00000000 		.word	.LANCHOR7
 651 032c 00000000 		.word	.LANCHOR9
 652 0330 00000000 		.word	.LANCHOR11
 653 0334 00000000 		.word	.LANCHOR6
 654              	.LVL42:
 655              	.L7:
 656              		.loc 1 159 0
 657 0338 3178     		ldrb	r1, [r6]	@ zero_extendqisi2
 658 033a 0029     		cmp	r1, #0
 659 033c BCD1     		bne	.L9
 660              		.loc 1 161 0
 661 033e 002A     		cmp	r2, #0
 662 0340 2ADD     		ble	.L8
 663              		.loc 1 161 0 is_stmt 0 discriminator 1
 664 0342 234B     		ldr	r3, .L72
 665 0344 9FED237A 		vldr.32	s14, .L72+4
 666 0348 D3F800C0 		ldr	ip, [r3]
 667              	.LVL43:
 668              	.LBB104:
 669              	.LBB105:
 670              	.LBB106:
 671              	.LBB107:
 672              		.loc 3 231 0 is_stmt 1 discriminator 1
 673 034c A36A     		ldr	r3, [r4, #40]
 674              	.LVL44:
 675              	.LBE107:
 676              	.LBE106:
 677              	.LBE105:
 678              	.LBE104:
 679              		.loc 1 161 0 discriminator 1
 680 034e 42F20F70 		movw	r0, #9999
 681              	.LBB109:
 682              	.LBB108:
 683              		.loc 3 267 0 discriminator 1
 684 0352 A3EB0C03 		sub	r3, r3, ip
ARM GAS  /var/tmp//ccie11Lx.s 			page 13


 685              	.LBE108:
 686              	.LBE109:
 687              		.loc 1 161 0 discriminator 1
 688 0356 4FF47A7E 		mov	lr, #1000
 689 035a 0EFB0303 		mla	r3, lr, r3, r0
 690 035e 1E48     		ldr	r0, .L72+8
 691 0360 A0FB0303 		umull	r0, r3, r0, r3
 692 0364 5B0B     		lsrs	r3, r3, #13
 693 0366 07EE903A 		vmov	s15, r3	@ int
 694 036a F8EEE77A 		vcvt.f32.s32	s15, s15
 695 036e F4EEC77A 		vcmpe.f32	s15, s14
 696 0372 F1EE10FA 		vmrs	APSR_nzcv, FPSCR
 697 0376 13D5     		bpl	.L59
 698              		.loc 1 165 0
 699 0378 184B     		ldr	r3, .L72+12
 700 037a 1B78     		ldrb	r3, [r3]	@ zero_extendqisi2
 701 037c 002B     		cmp	r3, #0
 702 037e 9BD0     		beq	.L9
 703              		.loc 1 165 0 is_stmt 0 discriminator 1
 704 0380 174B     		ldr	r3, .L72+16
 705 0382 93ED007A 		vldr.32	s14, [r3]
 706 0386 F2EE007A 		vmov.f32	s15, #8.0e+0
 707 038a B4EEE77A 		vcmpe.f32	s14, s15
 708 038e F1EE10FA 		vmrs	APSR_nzcv, FPSCR
 709 0392 91DD     		ble	.L9
 710              		.loc 1 167 0 is_stmt 1
 711 0394 3570     		strb	r5, [r6]
 712 0396 8FE7     		b	.L9
 713              	.L8:
 714              		.loc 1 180 0
 715 0398 124B     		ldr	r3, .L72+20
 716 039a 0132     		adds	r2, r2, #1
 717 039c 1A60     		str	r2, [r3]
 718 039e 8BE7     		b	.L9
 719              	.L59:
 720              	.LVL45:
 721              	.LBB110:
 722              	.LBB111:
 723              	.LBB112:
 724              	.LBB113:
 725              		.loc 3 231 0 discriminator 1
 726 03a0 A36A     		ldr	r3, [r4, #40]
 727              	.LVL46:
 728              	.LBE113:
 729              	.LBE112:
 730              		.loc 3 267 0 discriminator 1
 731 03a2 A3EB0C0C 		sub	ip, r3, ip
 732              	.LBE111:
 733              	.LBE110:
 734              		.loc 1 174 0 discriminator 1
 735 03a6 42F20F73 		movw	r3, #9999
 736 03aa 0EFB0C30 		mla	r0, lr, ip, r3
 737 03ae 0A4B     		ldr	r3, .L72+8
 738 03b0 A3FB0030 		umull	r3, r0, r3, r0
 739 03b4 400B     		lsrs	r0, r0, #13
 740 03b6 07EE900A 		vmov	s15, r0	@ int
 741 03ba F8EEE77A 		vcvt.f32.s32	s15, s15
ARM GAS  /var/tmp//ccie11Lx.s 			page 14


 742 03be F4EEC77A 		vcmpe.f32	s15, s14
 743 03c2 F1EE10FA 		vmrs	APSR_nzcv, FPSCR
 744 03c6 E7DD     		ble	.L8
 745              		.loc 1 176 0
 746 03c8 064B     		ldr	r3, .L72+20
 747 03ca 1960     		str	r1, [r3]
 748 03cc 74E7     		b	.L9
 749              	.L73:
 750 03ce 00BF     		.align	2
 751              	.L72:
 752 03d0 00000000 		.word	.LANCHOR3
 753 03d4 00606A46 		.word	1181376512
 754 03d8 5917B7D1 		.word	-776530087
 755 03dc 00000000 		.word	.LANCHOR5
 756 03e0 00000000 		.word	.LANCHOR1
 757 03e4 00000000 		.word	.LANCHOR2
 758              	.LBE117:
 759              		.cfi_endproc
 760              	.LFE257:
 761              		.size	example_thread, .-example_thread
 762              		.section	.text.app_example_init,"ax",%progbits
 763              		.align	1
 764              		.p2align 4,,15
 765              		.global	app_example_init
 766              		.syntax unified
 767              		.thumb
 768              		.thumb_func
 769              		.fpu fpv4-sp-d16
 770              		.type	app_example_init, %function
 771              	app_example_init:
 772              	.LFB256:
 773              		.loc 1 76 0
 774              		.cfi_startproc
 775              		@ args = 0, pretend = 0, frame = 0
 776              		@ frame_needed = 0, uses_anonymous_args = 0
 777 0000 00B5     		push	{lr}
 778              		.cfi_def_cfa_offset 4
 779              		.cfi_offset 14, -4
 780              		.loc 1 78 0
 781 0002 4022     		movs	r2, #64
 782              		.loc 1 76 0
 783 0004 83B0     		sub	sp, sp, #12
 784              		.cfi_def_cfa_offset 16
 785              		.loc 1 78 0
 786 0006 1146     		mov	r1, r2
 787 0008 0848     		ldr	r0, .L76
 788 000a FFF7FEFF 		bl	_pal_lld_setgroupmode
 789              	.LVL47:
 790              		.loc 1 81 0
 791 000e 0023     		movs	r3, #0
 792 0010 0093     		str	r3, [sp]
 793 0012 4022     		movs	r2, #64
 794 0014 064B     		ldr	r3, .L76+4
 795 0016 0748     		ldr	r0, .L76+8
 796 0018 40F69811 		movw	r1, #2456
 797 001c FFF7FEFF 		bl	chThdCreateStatic
 798              	.LVL48:
ARM GAS  /var/tmp//ccie11Lx.s 			page 15


 799              		.loc 1 84 0
 800 0020 0548     		ldr	r0, .L76+12
 801              		.loc 1 85 0
 802 0022 03B0     		add	sp, sp, #12
 803              		.cfi_def_cfa_offset 4
 804              		@ sp needed
 805 0024 5DF804EB 		ldr	lr, [sp], #4
 806              		.cfi_restore 14
 807              		.cfi_def_cfa_offset 0
 808              		.loc 1 84 0
 809 0028 FFF7FEBF 		b	commands_printf
 810              	.LVL49:
 811              	.L77:
 812              		.align	2
 813              	.L76:
 814 002c 00080240 		.word	1073874944
 815 0030 00000000 		.word	example_thread
 816 0034 00000000 		.word	.LANCHOR19
 817 0038 00000000 		.word	.LC2
 818              		.cfi_endproc
 819              	.LFE256:
 820              		.size	app_example_init, .-app_example_init
 821              		.section	.bss.differenceHigh,"aw",%nobits
 822              		.align	2
 823              		.set	.LANCHOR14,. + 0
 824              		.type	differenceHigh, %object
 825              		.size	differenceHigh, 4
 826              	differenceHigh:
 827 0000 00000000 		.space	4
 828              		.section	.bss.differenceLow,"aw",%nobits
 829              		.align	2
 830              		.set	.LANCHOR7,. + 0
 831              		.type	differenceLow, %object
 832              		.size	differenceLow, 4
 833              	differenceLow:
 834 0000 00000000 		.space	4
 835              		.section	.bss.example_thread_wa,"aw",%nobits
 836              		.align	3
 837              		.set	.LANCHOR19,. + 0
 838              		.type	example_thread_wa, %object
 839              		.size	example_thread_wa, 2456
 840              	example_thread_wa:
 841 0000 00000000 		.space	2456
 841      00000000 
 841      00000000 
 841      00000000 
 841      00000000 
 842              		.section	.bss.firstPedalStroke,"aw",%nobits
 843              		.align	2
 844              		.set	.LANCHOR3,. + 0
 845              		.type	firstPedalStroke, %object
 846              		.size	firstPedalStroke, 4
 847              	firstPedalStroke:
 848 0000 00000000 		.space	4
 849              		.section	.bss.highStart,"aw",%nobits
 850              		.align	2
 851              		.set	.LANCHOR10,. + 0
ARM GAS  /var/tmp//ccie11Lx.s 			page 16


 852              		.type	highStart, %object
 853              		.size	highStart, 4
 854              	highStart:
 855 0000 00000000 		.space	4
 856              		.section	.bss.highTriggerEnd,"aw",%nobits
 857              		.align	2
 858              		.set	.LANCHOR12,. + 0
 859              		.type	highTriggerEnd, %object
 860              		.size	highTriggerEnd, 4
 861              	highTriggerEnd:
 862 0000 00000000 		.space	4
 863              		.section	.bss.highTriggerStart,"aw",%nobits
 864              		.align	2
 865              		.set	.LANCHOR9,. + 0
 866              		.type	highTriggerStart, %object
 867              		.size	highTriggerStart, 4
 868              	highTriggerStart:
 869 0000 00000000 		.space	4
 870              		.section	.bss.isPedaling,"aw",%nobits
 871              		.set	.LANCHOR4,. + 0
 872              		.type	isPedaling, %object
 873              		.size	isPedaling, 1
 874              	isPedaling:
 875 0000 00       		.space	1
 876              		.section	.bss.lastTimeSensor01,"aw",%nobits
 877              		.align	2
 878              		.set	.LANCHOR0,. + 0
 879              		.type	lastTimeSensor01, %object
 880              		.size	lastTimeSensor01, 4
 881              	lastTimeSensor01:
 882 0000 00000000 		.space	4
 883              		.section	.bss.lowStart,"aw",%nobits
 884              		.align	2
 885              		.set	.LANCHOR8,. + 0
 886              		.type	lowStart, %object
 887              		.size	lowStart, 4
 888              	lowStart:
 889 0000 00000000 		.space	4
 890              		.section	.bss.lowTriggerEnd,"aw",%nobits
 891              		.align	2
 892              		.set	.LANCHOR6,. + 0
 893              		.type	lowTriggerEnd, %object
 894              		.size	lowTriggerEnd, 4
 895              	lowTriggerEnd:
 896 0000 00000000 		.space	4
 897              		.section	.bss.lowTriggerStart,"aw",%nobits
 898              		.align	2
 899              		.set	.LANCHOR11,. + 0
 900              		.type	lowTriggerStart, %object
 901              		.size	lowTriggerStart, 4
 902              	lowTriggerStart:
 903 0000 00000000 		.space	4
 904              		.section	.bss.pedalCount,"aw",%nobits
 905              		.align	2
 906              		.set	.LANCHOR2,. + 0
 907              		.type	pedalCount, %object
 908              		.size	pedalCount, 4
ARM GAS  /var/tmp//ccie11Lx.s 			page 17


 909              	pedalCount:
 910 0000 00000000 		.space	4
 911              		.section	.bss.pedalingForward,"aw",%nobits
 912              		.set	.LANCHOR5,. + 0
 913              		.type	pedalingForward, %object
 914              		.size	pedalingForward, 1
 915              	pedalingForward:
 916 0000 00       		.space	1
 917              		.section	.bss.startUpTrigger,"aw",%nobits
 918              		.align	2
 919              		.set	.LANCHOR16,. + 0
 920              		.type	startUpTrigger, %object
 921              		.size	startUpTrigger, 4
 922              	startUpTrigger:
 923 0000 00000000 		.space	4
 924              		.section	.bss.timeOffPedaling,"aw",%nobits
 925              		.align	2
 926              		.set	.LANCHOR15,. + 0
 927              		.type	timeOffPedaling, %object
 928              		.size	timeOffPedaling, 4
 929              	timeOffPedaling:
 930 0000 00000000 		.space	4
 931              		.section	.bss.timeOnPedaling,"aw",%nobits
 932              		.align	2
 933              		.set	.LANCHOR13,. + 0
 934              		.type	timeOnPedaling, %object
 935              		.size	timeOnPedaling, 4
 936              	timeOnPedaling:
 937 0000 00000000 		.space	4
 938              		.section	.bss.timeStartPedaling,"aw",%nobits
 939              		.align	2
 940              		.set	.LANCHOR17,. + 0
 941              		.type	timeStartPedaling, %object
 942              		.size	timeStartPedaling, 4
 943              	timeStartPedaling:
 944 0000 00000000 		.space	4
 945              		.section	.bss.vehicleVelocity,"aw",%nobits
 946              		.align	2
 947              		.set	.LANCHOR1,. + 0
 948              		.type	vehicleVelocity, %object
 949              		.size	vehicleVelocity, 4
 950              	vehicleVelocity:
 951 0000 00000000 		.space	4
 952              		.section	.data.startUpRoutine,"aw",%progbits
 953              		.set	.LANCHOR18,. + 0
 954              		.type	startUpRoutine, %object
 955              		.size	startUpRoutine, 1
 956              	startUpRoutine:
 957 0000 01       		.byte	1
 958              		.section	.rodata.app_example_init.str1.4,"aMS",%progbits,1
 959              		.align	2
 960              	.LC2:
 961 0000 496E6974 		.ascii	"Init INIT INIT \012\000"
 961      20494E49 
 961      5420494E 
 961      4954200A 
 961      00
ARM GAS  /var/tmp//ccie11Lx.s 			page 18


 962              		.section	.rodata.example_thread.str1.4,"aMS",%progbits,1
 963              		.align	2
 964              	.LC0:
 965 0000 4150505F 		.ascii	"APP_EXAMPLE\000"
 965      4558414D 
 965      504C4500 
 966              	.LC1:
 967 000c 69735065 		.ascii	"isPedaling: %d \012\000"
 967      64616C69 
 967      6E673A20 
 967      2564200A 
 967      00
 968              		.text
 969              	.Letext0:
 970              		.file 4 "/usr/local/gcc_arm/gcc-arm-none-eabi-6-2017-q2-update/lib/gcc/arm-none-eabi/6.3.1/include
 971              		.file 5 "/usr/local/gcc_arm/gcc-arm-none-eabi-6-2017-q2-update/arm-none-eabi/include/machine/_defa
 972              		.file 6 "/usr/local/gcc_arm/gcc-arm-none-eabi-6-2017-q2-update/arm-none-eabi/include/sys/_stdint.h
 973              		.file 7 "ChibiOS_3.0.2/os/rt/ports/ARMCMx/compilers/GCC/chtypes.h"
 974              		.file 8 "ChibiOS_3.0.2/os/rt/include/chsystypes.h"
 975              		.file 9 "ChibiOS_3.0.2/os/rt/include/chschd.h"
 976              		.file 10 "ChibiOS_3.0.2/os/ext/CMSIS/include/core_cm4.h"
 977              		.file 11 "ChibiOS_3.0.2/os/ext/CMSIS/ST/system_stm32f4xx.h"
 978              		.file 12 "ChibiOS_3.0.2/os/ext/CMSIS/ST/stm32f407xx.h"
 979              		.file 13 "ChibiOS_3.0.2/os/rt/ports/ARMCMx/chcore.h"
 980              		.file 14 "ChibiOS_3.0.2/os/rt/ports/ARMCMx/chcore_v7m.h"
 981              		.file 15 "ChibiOS_3.0.2/os/rt/include/chtm.h"
 982              		.file 16 "ChibiOS_3.0.2/os/rt/include/chsem.h"
 983              		.file 17 "ChibiOS_3.0.2/os/rt/include/chmtx.h"
 984              		.file 18 "ChibiOS_3.0.2/os/rt/include/chevents.h"
 985              		.file 19 "ChibiOS_3.0.2/os/rt/include/chqueues.h"
 986              		.file 20 "./datatypes.h"
 987              		.file 21 "./conf_general.h"
 988              		.file 22 "ChibiOS_3.0.2/os/hal/ports/STM32/STM32F4xx/stm32_dma.h"
 989              		.file 23 "ChibiOS_3.0.2/os/hal/ports/STM32/LLD/GPIOv2/pal_lld.h"
 990              		.file 24 "ChibiOS_3.0.2/os/hal/include/can.h"
 991              		.file 25 "ChibiOS_3.0.2/os/hal/ports/STM32/LLD/can_lld.h"
 992              		.file 26 "ChibiOS_3.0.2/os/hal/include/i2c.h"
 993              		.file 27 "ChibiOS_3.0.2/os/hal/ports/STM32/LLD/I2Cv1/i2c_lld.h"
 994              		.file 28 "ChibiOS_3.0.2/os/hal/include/icu.h"
 995              		.file 29 "ChibiOS_3.0.2/os/hal/ports/STM32/LLD/TIMv1/icu_lld.h"
 996              		.file 30 "ChibiOS_3.0.2/os/hal/ports/STM32/LLD/TIMv1/stm32_tim.h"
 997              		.file 31 "ChibiOS_3.0.2/os/hal/include/spi.h"
 998              		.file 32 "ChibiOS_3.0.2/os/hal/ports/STM32/LLD/SPIv1/spi_lld.h"
 999              		.file 33 "ChibiOS_3.0.2/os/hal/include/uart.h"
 1000              		.file 34 "ChibiOS_3.0.2/os/hal/ports/STM32/LLD/USARTv1/uart_lld.h"
 1001              		.file 35 "ChibiOS_3.0.2/os/hal/include/usb.h"
 1002              		.file 36 "ChibiOS_3.0.2/os/hal/ports/STM32/LLD/OTGv1/usb_lld.h"
 1003              		.file 37 "ChibiOS_3.0.2/os/hal/ports/STM32/LLD/OTGv1/stm32_otg.h"
 1004              		.file 38 "./mc_interface.h"
 1005              		.file 39 "./commands.h"
 1006              		.file 40 "ChibiOS_3.0.2/os/rt/include/chthreads.h"
 1007              		.file 41 "./timeout.h"
 1008              		.file 42 "<built-in>"