ARM GAS  /var/tmp//ccJMatAL.s 			page 1


   1              		.cpu cortex-m4
   2              		.eabi_attribute 27, 1
   3              		.eabi_attribute 28, 1
   4              		.eabi_attribute 20, 1
   5              		.eabi_attribute 21, 1
   6              		.eabi_attribute 23, 3
   7              		.eabi_attribute 24, 1
   8              		.eabi_attribute 25, 1
   9              		.eabi_attribute 26, 1
  10              		.eabi_attribute 30, 2
  11              		.eabi_attribute 34, 1
  12              		.eabi_attribute 18, 4
  13              		.file	"buffer.c"
  14              		.text
  15              	.Ltext0:
  16              		.cfi_sections	.debug_frame
  17              		.section	.text.buffer_append_int16,"ax",%progbits
  18              		.align	1
  19              		.p2align 4,,15
  20              		.global	buffer_append_int16
  21              		.syntax unified
  22              		.thumb
  23              		.thumb_func
  24              		.fpu fpv4-sp-d16
  25              		.type	buffer_append_int16, %function
  26              	buffer_append_int16:
  27              	.LFB0:
  28              		.file 1 "buffer.c"
  29              		.loc 1 24 0
  30              		.cfi_startproc
  31              		@ args = 0, pretend = 0, frame = 0
  32              		@ frame_needed = 0, uses_anonymous_args = 0
  33              		@ link register save eliminated.
  34              	.LVL0:
  35              		.loc 1 25 0
  36 0000 1368     		ldr	r3, [r2]
  37              		.loc 1 24 0
  38 0002 30B4     		push	{r4, r5}
  39              		.cfi_def_cfa_offset 8
  40              		.cfi_offset 4, -8
  41              		.cfi_offset 5, -4
  42              		.loc 1 25 0
  43 0004 5D1C     		adds	r5, r3, #1
  44 0006 0C12     		asrs	r4, r1, #8
  45 0008 1560     		str	r5, [r2]
  46 000a C454     		strb	r4, [r0, r3]
  47              		.loc 1 26 0
  48 000c 1368     		ldr	r3, [r2]
  49 000e 5C1C     		adds	r4, r3, #1
  50 0010 1460     		str	r4, [r2]
  51 0012 C154     		strb	r1, [r0, r3]
  52              		.loc 1 27 0
  53 0014 30BC     		pop	{r4, r5}
  54              		.cfi_restore 5
  55              		.cfi_restore 4
  56              		.cfi_def_cfa_offset 0
  57 0016 7047     		bx	lr
ARM GAS  /var/tmp//ccJMatAL.s 			page 2


  58              		.cfi_endproc
  59              	.LFE0:
  60              		.size	buffer_append_int16, .-buffer_append_int16
  61              		.section	.text.buffer_append_uint16,"ax",%progbits
  62              		.align	1
  63              		.p2align 4,,15
  64              		.global	buffer_append_uint16
  65              		.syntax unified
  66              		.thumb
  67              		.thumb_func
  68              		.fpu fpv4-sp-d16
  69              		.type	buffer_append_uint16, %function
  70              	buffer_append_uint16:
  71              	.LFB1:
  72              		.loc 1 29 0
  73              		.cfi_startproc
  74              		@ args = 0, pretend = 0, frame = 0
  75              		@ frame_needed = 0, uses_anonymous_args = 0
  76              		@ link register save eliminated.
  77              	.LVL1:
  78              		.loc 1 30 0
  79 0000 1368     		ldr	r3, [r2]
  80              		.loc 1 29 0
  81 0002 30B4     		push	{r4, r5}
  82              		.cfi_def_cfa_offset 8
  83              		.cfi_offset 4, -8
  84              		.cfi_offset 5, -4
  85              		.loc 1 30 0
  86 0004 5D1C     		adds	r5, r3, #1
  87 0006 0C0A     		lsrs	r4, r1, #8
  88 0008 1560     		str	r5, [r2]
  89 000a C454     		strb	r4, [r0, r3]
  90              		.loc 1 31 0
  91 000c 1368     		ldr	r3, [r2]
  92 000e 5C1C     		adds	r4, r3, #1
  93 0010 1460     		str	r4, [r2]
  94 0012 C154     		strb	r1, [r0, r3]
  95              		.loc 1 32 0
  96 0014 30BC     		pop	{r4, r5}
  97              		.cfi_restore 5
  98              		.cfi_restore 4
  99              		.cfi_def_cfa_offset 0
 100 0016 7047     		bx	lr
 101              		.cfi_endproc
 102              	.LFE1:
 103              		.size	buffer_append_uint16, .-buffer_append_uint16
 104              		.section	.text.buffer_append_int32,"ax",%progbits
 105              		.align	1
 106              		.p2align 4,,15
 107              		.global	buffer_append_int32
 108              		.syntax unified
 109              		.thumb
 110              		.thumb_func
 111              		.fpu fpv4-sp-d16
 112              		.type	buffer_append_int32, %function
 113              	buffer_append_int32:
 114              	.LFB2:
ARM GAS  /var/tmp//ccJMatAL.s 			page 3


 115              		.loc 1 34 0
 116              		.cfi_startproc
 117              		@ args = 0, pretend = 0, frame = 0
 118              		@ frame_needed = 0, uses_anonymous_args = 0
 119              		@ link register save eliminated.
 120              	.LVL2:
 121              		.loc 1 35 0
 122 0000 1368     		ldr	r3, [r2]
 123              		.loc 1 34 0
 124 0002 30B4     		push	{r4, r5}
 125              		.cfi_def_cfa_offset 8
 126              		.cfi_offset 4, -8
 127              		.cfi_offset 5, -4
 128              		.loc 1 35 0
 129 0004 5D1C     		adds	r5, r3, #1
 130 0006 0C16     		asrs	r4, r1, #24
 131 0008 1560     		str	r5, [r2]
 132 000a C454     		strb	r4, [r0, r3]
 133              		.loc 1 36 0
 134 000c 1368     		ldr	r3, [r2]
 135 000e 0C14     		asrs	r4, r1, #16
 136 0010 5D1C     		adds	r5, r3, #1
 137 0012 1560     		str	r5, [r2]
 138 0014 C454     		strb	r4, [r0, r3]
 139              		.loc 1 37 0
 140 0016 1368     		ldr	r3, [r2]
 141 0018 0C12     		asrs	r4, r1, #8
 142 001a 5D1C     		adds	r5, r3, #1
 143 001c 1560     		str	r5, [r2]
 144 001e C454     		strb	r4, [r0, r3]
 145              		.loc 1 38 0
 146 0020 1368     		ldr	r3, [r2]
 147 0022 5C1C     		adds	r4, r3, #1
 148 0024 1460     		str	r4, [r2]
 149 0026 C154     		strb	r1, [r0, r3]
 150              		.loc 1 39 0
 151 0028 30BC     		pop	{r4, r5}
 152              		.cfi_restore 5
 153              		.cfi_restore 4
 154              		.cfi_def_cfa_offset 0
 155 002a 7047     		bx	lr
 156              		.cfi_endproc
 157              	.LFE2:
 158              		.size	buffer_append_int32, .-buffer_append_int32
 159              		.section	.text.buffer_append_uint32,"ax",%progbits
 160              		.align	1
 161              		.p2align 4,,15
 162              		.global	buffer_append_uint32
 163              		.syntax unified
 164              		.thumb
 165              		.thumb_func
 166              		.fpu fpv4-sp-d16
 167              		.type	buffer_append_uint32, %function
 168              	buffer_append_uint32:
 169              	.LFB3:
 170              		.loc 1 41 0
 171              		.cfi_startproc
ARM GAS  /var/tmp//ccJMatAL.s 			page 4


 172              		@ args = 0, pretend = 0, frame = 0
 173              		@ frame_needed = 0, uses_anonymous_args = 0
 174              		@ link register save eliminated.
 175              	.LVL3:
 176              		.loc 1 42 0
 177 0000 1368     		ldr	r3, [r2]
 178              		.loc 1 41 0
 179 0002 30B4     		push	{r4, r5}
 180              		.cfi_def_cfa_offset 8
 181              		.cfi_offset 4, -8
 182              		.cfi_offset 5, -4
 183              		.loc 1 42 0
 184 0004 5D1C     		adds	r5, r3, #1
 185 0006 0C0E     		lsrs	r4, r1, #24
 186 0008 1560     		str	r5, [r2]
 187 000a C454     		strb	r4, [r0, r3]
 188              		.loc 1 43 0
 189 000c 1368     		ldr	r3, [r2]
 190 000e 0C0C     		lsrs	r4, r1, #16
 191 0010 5D1C     		adds	r5, r3, #1
 192 0012 1560     		str	r5, [r2]
 193 0014 C454     		strb	r4, [r0, r3]
 194              		.loc 1 44 0
 195 0016 1368     		ldr	r3, [r2]
 196 0018 0C0A     		lsrs	r4, r1, #8
 197 001a 5D1C     		adds	r5, r3, #1
 198 001c 1560     		str	r5, [r2]
 199 001e C454     		strb	r4, [r0, r3]
 200              		.loc 1 45 0
 201 0020 1368     		ldr	r3, [r2]
 202 0022 5C1C     		adds	r4, r3, #1
 203 0024 1460     		str	r4, [r2]
 204 0026 C154     		strb	r1, [r0, r3]
 205              		.loc 1 46 0
 206 0028 30BC     		pop	{r4, r5}
 207              		.cfi_restore 5
 208              		.cfi_restore 4
 209              		.cfi_def_cfa_offset 0
 210 002a 7047     		bx	lr
 211              		.cfi_endproc
 212              	.LFE3:
 213              		.size	buffer_append_uint32, .-buffer_append_uint32
 214              		.section	.text.buffer_append_float16,"ax",%progbits
 215              		.align	1
 216              		.p2align 4,,15
 217              		.global	buffer_append_float16
 218              		.syntax unified
 219              		.thumb
 220              		.thumb_func
 221              		.fpu fpv4-sp-d16
 222              		.type	buffer_append_float16, %function
 223              	buffer_append_float16:
 224              	.LFB4:
 225              		.loc 1 48 0
 226              		.cfi_startproc
 227              		@ args = 0, pretend = 0, frame = 8
 228              		@ frame_needed = 0, uses_anonymous_args = 0
ARM GAS  /var/tmp//ccJMatAL.s 			page 5


 229              		@ link register save eliminated.
 230              	.LVL4:
 231 0000 30B4     		push	{r4, r5}
 232              		.cfi_def_cfa_offset 8
 233              		.cfi_offset 4, -8
 234              		.cfi_offset 5, -4
 235              		.loc 1 49 0
 236 0002 60EE200A 		vmul.f32	s1, s0, s1
 237              	.LVL5:
 238              		.loc 1 48 0
 239 0006 82B0     		sub	sp, sp, #8
 240              		.cfi_def_cfa_offset 16
 241              		.loc 1 49 0
 242 0008 FDEEE07A 		vcvt.s32.f32	s15, s1
 243              	.LBB6:
 244              	.LBB7:
 245              		.loc 1 25 0
 246 000c 0A68     		ldr	r2, [r1]
 247              	.LBE7:
 248              	.LBE6:
 249              		.loc 1 49 0
 250 000e CDED017A 		vstr.32	s15, [sp, #4]	@ int
 251 0012 BDF90430 		ldrsh	r3, [sp, #4]
 252              	.LVL6:
 253              	.LBB9:
 254              	.LBB8:
 255              		.loc 1 25 0
 256 0016 551C     		adds	r5, r2, #1
 257 0018 1C12     		asrs	r4, r3, #8
 258 001a 0D60     		str	r5, [r1]
 259 001c 8454     		strb	r4, [r0, r2]
 260              		.loc 1 26 0
 261 001e 0A68     		ldr	r2, [r1]
 262 0020 541C     		adds	r4, r2, #1
 263 0022 0C60     		str	r4, [r1]
 264 0024 8354     		strb	r3, [r0, r2]
 265              	.LVL7:
 266              	.LBE8:
 267              	.LBE9:
 268              		.loc 1 50 0
 269 0026 02B0     		add	sp, sp, #8
 270              		.cfi_def_cfa_offset 8
 271              		@ sp needed
 272 0028 30BC     		pop	{r4, r5}
 273              		.cfi_restore 5
 274              		.cfi_restore 4
 275              		.cfi_def_cfa_offset 0
 276 002a 7047     		bx	lr
 277              		.cfi_endproc
 278              	.LFE4:
 279              		.size	buffer_append_float16, .-buffer_append_float16
 280              		.section	.text.buffer_append_float32,"ax",%progbits
 281              		.align	1
 282              		.p2align 4,,15
 283              		.global	buffer_append_float32
 284              		.syntax unified
 285              		.thumb
ARM GAS  /var/tmp//ccJMatAL.s 			page 6


 286              		.thumb_func
 287              		.fpu fpv4-sp-d16
 288              		.type	buffer_append_float32, %function
 289              	buffer_append_float32:
 290              	.LFB5:
 291              		.loc 1 52 0
 292              		.cfi_startproc
 293              		@ args = 0, pretend = 0, frame = 0
 294              		@ frame_needed = 0, uses_anonymous_args = 0
 295              		@ link register save eliminated.
 296              	.LVL8:
 297              		.loc 1 53 0
 298 0000 60EE200A 		vmul.f32	s1, s0, s1
 299              	.LVL9:
 300 0004 0A46     		mov	r2, r1
 301 0006 FDEEE07A 		vcvt.s32.f32	s15, s1
 302 000a 17EE901A 		vmov	r1, s15	@ int
 303              	.LVL10:
 304 000e FFF7FEBF 		b	buffer_append_int32
 305              	.LVL11:
 306              		.cfi_endproc
 307              	.LFE5:
 308              		.size	buffer_append_float32, .-buffer_append_float32
 309 0012 00BF     		.section	.text.buffer_append_float32_auto,"ax",%progbits
 310              		.align	1
 311              		.p2align 4,,15
 312              		.global	buffer_append_float32_auto
 313              		.syntax unified
 314              		.thumb
 315              		.thumb_func
 316              		.fpu fpv4-sp-d16
 317              		.type	buffer_append_float32_auto, %function
 318              	buffer_append_float32_auto:
 319              	.LFB6:
 320              		.loc 1 96 0
 321              		.cfi_startproc
 322              		@ args = 0, pretend = 0, frame = 8
 323              		@ frame_needed = 0, uses_anonymous_args = 0
 324              	.LVL12:
 325 0000 70B5     		push	{r4, r5, r6, lr}
 326              		.cfi_def_cfa_offset 16
 327              		.cfi_offset 4, -16
 328              		.cfi_offset 5, -12
 329              		.cfi_offset 6, -8
 330              		.cfi_offset 14, -4
 331 0002 82B0     		sub	sp, sp, #8
 332              		.cfi_def_cfa_offset 24
 333              		.loc 1 97 0
 334 0004 02AB     		add	r3, sp, #8
 335 0006 0024     		movs	r4, #0
 336 0008 43F8044D 		str	r4, [r3, #-4]!
 337              		.loc 1 96 0
 338 000c 0546     		mov	r5, r0
 339              		.loc 1 98 0
 340 000e 1846     		mov	r0, r3
 341              	.LVL13:
 342              		.loc 1 96 0
ARM GAS  /var/tmp//ccJMatAL.s 			page 7


 343 0010 0E46     		mov	r6, r1
 344              		.loc 1 98 0
 345 0012 FFF7FEFF 		bl	frexpf
 346              	.LVL14:
 347              		.loc 1 102 0
 348 0016 B6EE007A 		vmov.f32	s14, #5.0e-1
 349              		.loc 1 99 0
 350 001a F0EEC07A 		vabs.f32	s15, s0
 351              	.LVL15:
 352              		.loc 1 102 0
 353 001e F4EEC77A 		vcmpe.f32	s15, s14
 354 0022 F1EE10FA 		vmrs	APSR_nzcv, FPSCR
 355 0026 13DA     		bge	.L13
 356 0028 019B     		ldr	r3, [sp, #4]
 357              	.LVL16:
 358              	.L14:
 359              		.loc 1 107 0
 360 002a DB05     		lsls	r3, r3, #23
 361 002c 03F0FF43 		and	r3, r3, #2139095040
 362              		.loc 1 108 0
 363 0030 B5EEC00A 		vcmpe.f32	s0, #0
 364              		.loc 1 107 0
 365 0034 43EA0401 		orr	r1, r3, r4
 366              	.LVL17:
 367              		.loc 1 108 0
 368 0038 F1EE10FA 		vmrs	APSR_nzcv, FPSCR
 369              		.loc 1 109 0
 370 003c 48BF     		it	mi
 371 003e 41F00041 		orrmi	r1, r1, #-2147483648
 372              	.LVL18:
 373              		.loc 1 112 0
 374 0042 3246     		mov	r2, r6
 375 0044 2846     		mov	r0, r5
 376              		.loc 1 113 0
 377 0046 02B0     		add	sp, sp, #8
 378              		.cfi_remember_state
 379              		.cfi_def_cfa_offset 16
 380              		@ sp needed
 381 0048 BDE87040 		pop	{r4, r5, r6, lr}
 382              		.cfi_restore 14
 383              		.cfi_restore 6
 384              		.cfi_restore 5
 385              		.cfi_restore 4
 386              		.cfi_def_cfa_offset 0
 387              	.LVL19:
 388              		.loc 1 112 0
 389 004c FFF7FEBF 		b	buffer_append_uint32
 390              	.LVL20:
 391              	.L13:
 392              		.cfi_restore_state
 393              		.loc 1 103 0
 394 0050 77EEC77A 		vsub.f32	s15, s15, s14
 395              	.LVL21:
 396 0054 9FED077A 		vldr.32	s14, .L20
 397              		.loc 1 104 0
 398 0058 019B     		ldr	r3, [sp, #4]
 399              		.loc 1 103 0
ARM GAS  /var/tmp//ccJMatAL.s 			page 8


 400 005a 77EEA77A 		vadd.f32	s15, s15, s15
 401              		.loc 1 104 0
 402 005e 7E33     		adds	r3, r3, #126
 403              		.loc 1 103 0
 404 0060 67EE877A 		vmul.f32	s15, s15, s14
 405 0064 FCEEE77A 		vcvt.u32.f32	s15, s15
 406 0068 17EE902A 		vmov	r2, s15	@ int
 407 006c C2F31604 		ubfx	r4, r2, #0, #23
 408 0070 DBE7     		b	.L14
 409              	.L21:
 410 0072 00BF     		.align	2
 411              	.L20:
 412 0074 0000004B 		.word	1258291200
 413              		.cfi_endproc
 414              	.LFE6:
 415              		.size	buffer_append_float32_auto, .-buffer_append_float32_auto
 416              		.section	.text.buffer_get_int16,"ax",%progbits
 417              		.align	1
 418              		.p2align 4,,15
 419              		.global	buffer_get_int16
 420              		.syntax unified
 421              		.thumb
 422              		.thumb_func
 423              		.fpu fpv4-sp-d16
 424              		.type	buffer_get_int16, %function
 425              	buffer_get_int16:
 426              	.LFB7:
 427              		.loc 1 115 0
 428              		.cfi_startproc
 429              		@ args = 0, pretend = 0, frame = 0
 430              		@ frame_needed = 0, uses_anonymous_args = 0
 431              		@ link register save eliminated.
 432              	.LVL22:
 433 0000 10B4     		push	{r4}
 434              		.cfi_def_cfa_offset 4
 435              		.cfi_offset 4, -4
 436              		.loc 1 116 0
 437 0002 0B68     		ldr	r3, [r1]
 438              		.loc 1 117 0
 439 0004 C418     		adds	r4, r0, r3
 440              		.loc 1 116 0
 441 0006 C25C     		ldrb	r2, [r0, r3]	@ zero_extendqisi2
 442              		.loc 1 117 0
 443 0008 6078     		ldrb	r0, [r4, #1]	@ zero_extendqisi2
 444              	.LVL23:
 445              		.loc 1 120 0
 446 000a 5DF8044B 		ldr	r4, [sp], #4
 447              		.cfi_restore 4
 448              		.cfi_def_cfa_offset 0
 449              		.loc 1 118 0
 450 000e 0233     		adds	r3, r3, #2
 451              		.loc 1 116 0
 452 0010 40EA0220 		orr	r0, r0, r2, lsl #8
 453              	.LVL24:
 454              		.loc 1 120 0
 455 0014 00B2     		sxth	r0, r0
 456              		.loc 1 118 0
ARM GAS  /var/tmp//ccJMatAL.s 			page 9


 457 0016 0B60     		str	r3, [r1]
 458              		.loc 1 120 0
 459 0018 7047     		bx	lr
 460              		.cfi_endproc
 461              	.LFE7:
 462              		.size	buffer_get_int16, .-buffer_get_int16
 463              		.section	.text.buffer_get_uint16,"ax",%progbits
 464              		.align	1
 465              		.p2align 4,,15
 466              		.global	buffer_get_uint16
 467              		.syntax unified
 468              		.thumb
 469              		.thumb_func
 470              		.fpu fpv4-sp-d16
 471              		.type	buffer_get_uint16, %function
 472              	buffer_get_uint16:
 473              	.LFB8:
 474              		.loc 1 122 0
 475              		.cfi_startproc
 476              		@ args = 0, pretend = 0, frame = 0
 477              		@ frame_needed = 0, uses_anonymous_args = 0
 478              		@ link register save eliminated.
 479              	.LVL25:
 480              		.loc 1 123 0
 481 0000 0B68     		ldr	r3, [r1]
 482              		.loc 1 124 0
 483 0002 C218     		adds	r2, r0, r3
 484              		.loc 1 123 0
 485 0004 C05C     		ldrb	r0, [r0, r3]	@ zero_extendqisi2
 486              	.LVL26:
 487              		.loc 1 124 0
 488 0006 5278     		ldrb	r2, [r2, #1]	@ zero_extendqisi2
 489              	.LVL27:
 490              		.loc 1 125 0
 491 0008 0233     		adds	r3, r3, #2
 492 000a 0B60     		str	r3, [r1]
 493              		.loc 1 127 0
 494 000c 42EA0020 		orr	r0, r2, r0, lsl #8
 495              	.LVL28:
 496 0010 7047     		bx	lr
 497              		.cfi_endproc
 498              	.LFE8:
 499              		.size	buffer_get_uint16, .-buffer_get_uint16
 500 0012 00BF     		.section	.text.buffer_get_int32,"ax",%progbits
 501              		.align	1
 502              		.p2align 4,,15
 503              		.global	buffer_get_int32
 504              		.syntax unified
 505              		.thumb
 506              		.thumb_func
 507              		.fpu fpv4-sp-d16
 508              		.type	buffer_get_int32, %function
 509              	buffer_get_int32:
 510              	.LFB9:
 511              		.loc 1 129 0
 512              		.cfi_startproc
 513              		@ args = 0, pretend = 0, frame = 0
ARM GAS  /var/tmp//ccJMatAL.s 			page 10


 514              		@ frame_needed = 0, uses_anonymous_args = 0
 515              		@ link register save eliminated.
 516              	.LVL29:
 517 0000 70B4     		push	{r4, r5, r6}
 518              		.cfi_def_cfa_offset 12
 519              		.cfi_offset 4, -12
 520              		.cfi_offset 5, -8
 521              		.cfi_offset 6, -4
 522              		.loc 1 130 0
 523 0002 0A68     		ldr	r2, [r1]
 524              		.loc 1 133 0
 525 0004 8418     		adds	r4, r0, r2
 526              		.loc 1 130 0
 527 0006 865C     		ldrb	r6, [r0, r2]	@ zero_extendqisi2
 528              		.loc 1 133 0
 529 0008 E378     		ldrb	r3, [r4, #3]	@ zero_extendqisi2
 530              		.loc 1 131 0
 531 000a 6578     		ldrb	r5, [r4, #1]	@ zero_extendqisi2
 532              		.loc 1 132 0
 533 000c A078     		ldrb	r0, [r4, #2]	@ zero_extendqisi2
 534              	.LVL30:
 535 000e 43EA0663 		orr	r3, r3, r6, lsl #24
 536 0012 43EA0543 		orr	r3, r3, r5, lsl #16
 537              	.LVL31:
 538              		.loc 1 134 0
 539 0016 0432     		adds	r2, r2, #4
 540              		.loc 1 136 0
 541 0018 43EA0020 		orr	r0, r3, r0, lsl #8
 542              	.LVL32:
 543              		.loc 1 134 0
 544 001c 0A60     		str	r2, [r1]
 545              		.loc 1 136 0
 546 001e 70BC     		pop	{r4, r5, r6}
 547              		.cfi_restore 6
 548              		.cfi_restore 5
 549              		.cfi_restore 4
 550              		.cfi_def_cfa_offset 0
 551 0020 7047     		bx	lr
 552              		.cfi_endproc
 553              	.LFE9:
 554              		.size	buffer_get_int32, .-buffer_get_int32
 555 0022 00BF     		.section	.text.buffer_get_uint32,"ax",%progbits
 556              		.align	1
 557              		.p2align 4,,15
 558              		.global	buffer_get_uint32
 559              		.syntax unified
 560              		.thumb
 561              		.thumb_func
 562              		.fpu fpv4-sp-d16
 563              		.type	buffer_get_uint32, %function
 564              	buffer_get_uint32:
 565              	.LFB10:
 566              		.loc 1 138 0
 567              		.cfi_startproc
 568              		@ args = 0, pretend = 0, frame = 0
 569              		@ frame_needed = 0, uses_anonymous_args = 0
 570              		@ link register save eliminated.
ARM GAS  /var/tmp//ccJMatAL.s 			page 11


 571              	.LVL33:
 572 0000 70B4     		push	{r4, r5, r6}
 573              		.cfi_def_cfa_offset 12
 574              		.cfi_offset 4, -12
 575              		.cfi_offset 5, -8
 576              		.cfi_offset 6, -4
 577              		.loc 1 139 0
 578 0002 0A68     		ldr	r2, [r1]
 579              		.loc 1 142 0
 580 0004 8418     		adds	r4, r0, r2
 581              		.loc 1 139 0
 582 0006 865C     		ldrb	r6, [r0, r2]	@ zero_extendqisi2
 583              		.loc 1 142 0
 584 0008 E378     		ldrb	r3, [r4, #3]	@ zero_extendqisi2
 585              		.loc 1 140 0
 586 000a 6578     		ldrb	r5, [r4, #1]	@ zero_extendqisi2
 587              		.loc 1 141 0
 588 000c A078     		ldrb	r0, [r4, #2]	@ zero_extendqisi2
 589              	.LVL34:
 590              		.loc 1 139 0
 591 000e 43EA0663 		orr	r3, r3, r6, lsl #24
 592 0012 43EA0543 		orr	r3, r3, r5, lsl #16
 593              	.LVL35:
 594              		.loc 1 143 0
 595 0016 0432     		adds	r2, r2, #4
 596              		.loc 1 145 0
 597 0018 43EA0020 		orr	r0, r3, r0, lsl #8
 598              	.LVL36:
 599              		.loc 1 143 0
 600 001c 0A60     		str	r2, [r1]
 601              		.loc 1 145 0
 602 001e 70BC     		pop	{r4, r5, r6}
 603              		.cfi_restore 6
 604              		.cfi_restore 5
 605              		.cfi_restore 4
 606              		.cfi_def_cfa_offset 0
 607 0020 7047     		bx	lr
 608              		.cfi_endproc
 609              	.LFE10:
 610              		.size	buffer_get_uint32, .-buffer_get_uint32
 611 0022 00BF     		.section	.text.buffer_get_float16,"ax",%progbits
 612              		.align	1
 613              		.p2align 4,,15
 614              		.global	buffer_get_float16
 615              		.syntax unified
 616              		.thumb
 617              		.thumb_func
 618              		.fpu fpv4-sp-d16
 619              		.type	buffer_get_float16, %function
 620              	buffer_get_float16:
 621              	.LFB11:
 622              		.loc 1 147 0
 623              		.cfi_startproc
 624              		@ args = 0, pretend = 0, frame = 0
 625              		@ frame_needed = 0, uses_anonymous_args = 0
 626              		@ link register save eliminated.
 627              	.LVL37:
ARM GAS  /var/tmp//ccJMatAL.s 			page 12


 628              	.LBB10:
 629              	.LBB11:
 630              		.loc 1 116 0
 631 0000 0A68     		ldr	r2, [r1]
 632              		.loc 1 117 0
 633 0002 8318     		adds	r3, r0, r2
 634              		.loc 1 116 0
 635 0004 805C     		ldrb	r0, [r0, r2]	@ zero_extendqisi2
 636              	.LVL38:
 637              		.loc 1 117 0
 638 0006 5B78     		ldrb	r3, [r3, #1]	@ zero_extendqisi2
 639              		.loc 1 116 0
 640 0008 43EA0023 		orr	r3, r3, r0, lsl #8
 641 000c 1BB2     		sxth	r3, r3
 642              	.LVL39:
 643              	.LBE11:
 644              	.LBE10:
 645              		.loc 1 148 0
 646 000e 07EE903A 		vmov	s15, r3	@ int
 647 0012 F8EEE77A 		vcvt.f32.s32	s15, s15
 648              	.LBB13:
 649              	.LBB12:
 650              		.loc 1 118 0
 651 0016 0232     		adds	r2, r2, #2
 652 0018 0A60     		str	r2, [r1]
 653              	.LVL40:
 654              	.LBE12:
 655              	.LBE13:
 656              		.loc 1 149 0
 657 001a 87EE800A 		vdiv.f32	s0, s15, s0
 658              	.LVL41:
 659 001e 7047     		bx	lr
 660              		.cfi_endproc
 661              	.LFE11:
 662              		.size	buffer_get_float16, .-buffer_get_float16
 663              		.section	.text.buffer_get_float32,"ax",%progbits
 664              		.align	1
 665              		.p2align 4,,15
 666              		.global	buffer_get_float32
 667              		.syntax unified
 668              		.thumb
 669              		.thumb_func
 670              		.fpu fpv4-sp-d16
 671              		.type	buffer_get_float32, %function
 672              	buffer_get_float32:
 673              	.LFB12:
 674              		.loc 1 151 0
 675              		.cfi_startproc
 676              		@ args = 0, pretend = 0, frame = 0
 677              		@ frame_needed = 0, uses_anonymous_args = 0
 678              	.LVL42:
 679 0000 08B5     		push	{r3, lr}
 680              		.cfi_def_cfa_offset 8
 681              		.cfi_offset 3, -8
 682              		.cfi_offset 14, -4
 683              		.loc 1 152 0
 684 0002 FFF7FEFF 		bl	buffer_get_int32
ARM GAS  /var/tmp//ccJMatAL.s 			page 13


 685              	.LVL43:
 686 0006 07EE900A 		vmov	s15, r0	@ int
 687 000a F8EEE77A 		vcvt.f32.s32	s15, s15
 688              		.loc 1 153 0
 689 000e 87EE800A 		vdiv.f32	s0, s15, s0
 690              	.LVL44:
 691 0012 08BD     		pop	{r3, pc}
 692              		.cfi_endproc
 693              	.LFE12:
 694              		.size	buffer_get_float32, .-buffer_get_float32
 695              		.section	.text.buffer_get_float32_auto,"ax",%progbits
 696              		.align	1
 697              		.p2align 4,,15
 698              		.global	buffer_get_float32_auto
 699              		.syntax unified
 700              		.thumb
 701              		.thumb_func
 702              		.fpu fpv4-sp-d16
 703              		.type	buffer_get_float32_auto, %function
 704              	buffer_get_float32_auto:
 705              	.LFB13:
 706              		.loc 1 155 0
 707              		.cfi_startproc
 708              		@ args = 0, pretend = 0, frame = 0
 709              		@ frame_needed = 0, uses_anonymous_args = 0
 710              	.LVL45:
 711 0000 08B5     		push	{r3, lr}
 712              		.cfi_def_cfa_offset 8
 713              		.cfi_offset 3, -8
 714              		.cfi_offset 14, -4
 715              		.loc 1 156 0
 716 0002 FFF7FEFF 		bl	buffer_get_uint32
 717              	.LVL46:
 718              		.loc 1 158 0
 719 0006 C0F3C753 		ubfx	r3, r0, #23, #8
 720              	.LVL47:
 721              		.loc 1 159 0
 722 000a C0F31602 		ubfx	r2, r0, #0, #23
 723              	.LVL48:
 724              		.loc 1 163 0
 725 000e 03B9     		cbnz	r3, .L33
 726              		.loc 1 163 0 is_stmt 0 discriminator 1
 727 0010 9AB1     		cbz	r2, .L36
 728              	.L33:
 729              		.loc 1 164 0 is_stmt 1
 730 0012 07EE902A 		vmov	s15, r2	@ int
 731 0016 9FED0A7A 		vldr.32	s14, .L38
 732 001a F8EEE77A 		vcvt.f32.s32	s15, s15
 733 001e B6EE000A 		vmov.f32	s0, #5.0e-1
 734 0022 A7EE870A 		vfma.f32	s0, s15, s14
 735              	.LVL49:
 736              		.loc 1 165 0
 737 0026 7E3B     		subs	r3, r3, #126
 738              	.LVL50:
 739              	.L34:
 740              		.loc 1 168 0
 741 0028 0028     		cmp	r0, #0
ARM GAS  /var/tmp//ccJMatAL.s 			page 14


 742              		.loc 1 169 0
 743 002a B8BF     		it	lt
 744 002c B1EE400A 		vneglt.f32	s0, s0
 745              	.LVL51:
 746              		.loc 1 172 0
 747 0030 1846     		mov	r0, r3
 748              	.LVL52:
 749              		.loc 1 173 0
 750 0032 BDE80840 		pop	{r3, lr}
 751              		.cfi_remember_state
 752              		.cfi_restore 14
 753              		.cfi_restore 3
 754              		.cfi_def_cfa_offset 0
 755              	.LVL53:
 756              		.loc 1 172 0
 757 0036 FFF7FEBF 		b	ldexpf
 758              	.LVL54:
 759              	.L36:
 760              		.cfi_restore_state
 761              		.loc 1 162 0
 762 003a 9FED020A 		vldr.32	s0, .L38+4
 763 003e F3E7     		b	.L34
 764              	.L39:
 765              		.align	2
 766              	.L38:
 767 0040 00008033 		.word	864026624
 768 0044 00000000 		.word	0
 769              		.cfi_endproc
 770              	.LFE13:
 771              		.size	buffer_get_float32_auto, .-buffer_get_float32_auto
 772              		.text
 773              	.Letext0:
 774              		.file 2 "/usr/local/gcc_arm/gcc-arm-none-eabi-6-2017-q2-update/arm-none-eabi/include/machine/_defa
 775              		.file 3 "/usr/local/gcc_arm/gcc-arm-none-eabi-6-2017-q2-update/arm-none-eabi/include/sys/_stdint.h
 776              		.file 4 "/usr/local/gcc_arm/gcc-arm-none-eabi-6-2017-q2-update/arm-none-eabi/include/sys/lock.h"
 777              		.file 5 "/usr/local/gcc_arm/gcc-arm-none-eabi-6-2017-q2-update/arm-none-eabi/include/sys/_types.h"
 778              		.file 6 "/usr/local/gcc_arm/gcc-arm-none-eabi-6-2017-q2-update/lib/gcc/arm-none-eabi/6.3.1/include
 779              		.file 7 "/usr/local/gcc_arm/gcc-arm-none-eabi-6-2017-q2-update/arm-none-eabi/include/sys/reent.h"
 780              		.file 8 "/usr/local/gcc_arm/gcc-arm-none-eabi-6-2017-q2-update/arm-none-eabi/include/math.h"