ARM GAS  C:\Users\Grillmo\AppData\Local\Temp\ccEAP0ji.s 			page 1


   1              		.cpu cortex-m4
   2              		.eabi_attribute 27, 1
   3              		.eabi_attribute 28, 1
   4              		.eabi_attribute 20, 1
   5              		.eabi_attribute 21, 1
   6              		.eabi_attribute 23, 3
   7              		.eabi_attribute 24, 1
   8              		.eabi_attribute 25, 1
   9              		.eabi_attribute 26, 1
  10              		.eabi_attribute 30, 2
  11              		.eabi_attribute 34, 1
  12              		.eabi_attribute 18, 4
  13              		.file	"buffer.c"
  14              		.text
  15              	.Ltext0:
  16              		.cfi_sections	.debug_frame
  17              		.section	.text.buffer_append_int16,"ax",%progbits
  18              		.align	1
  19              		.p2align 4,,15
  20              		.global	buffer_append_int16
  21              		.syntax unified
  22              		.thumb
  23              		.thumb_func
  24              		.fpu fpv4-sp-d16
  25              		.type	buffer_append_int16, %function
  26              	buffer_append_int16:
  27              	.LFB0:
  28              		.file 1 "buffer.c"
  29              		.loc 1 24 0
  30              		.cfi_startproc
  31              		@ args = 0, pretend = 0, frame = 0
  32              		@ frame_needed = 0, uses_anonymous_args = 0
  33              		@ link register save eliminated.
  34              	.LVL0:
  35              		.loc 1 25 0
  36 0000 1368     		ldr	r3, [r2]
  37              		.loc 1 24 0
  38 0002 30B4     		push	{r4, r5}
  39              		.cfi_def_cfa_offset 8
  40              		.cfi_offset 4, -8
  41              		.cfi_offset 5, -4
  42              		.loc 1 25 0
  43 0004 5D1C     		adds	r5, r3, #1
  44 0006 0C12     		asrs	r4, r1, #8
  45 0008 1560     		str	r5, [r2]
  46 000a C454     		strb	r4, [r0, r3]
  47              		.loc 1 26 0
  48 000c 1368     		ldr	r3, [r2]
  49 000e 5C1C     		adds	r4, r3, #1
  50 0010 1460     		str	r4, [r2]
  51 0012 C154     		strb	r1, [r0, r3]
  52              		.loc 1 27 0
  53 0014 30BC     		pop	{r4, r5}
  54              		.cfi_restore 5
  55              		.cfi_restore 4
  56              		.cfi_def_cfa_offset 0
  57 0016 7047     		bx	lr
ARM GAS  C:\Users\Grillmo\AppData\Local\Temp\ccEAP0ji.s 			page 2


  58              		.cfi_endproc
  59              	.LFE0:
  60              		.size	buffer_append_int16, .-buffer_append_int16
  61              		.section	.text.buffer_append_uint16,"ax",%progbits
  62              		.align	1
  63              		.p2align 4,,15
  64              		.global	buffer_append_uint16
  65              		.syntax unified
  66              		.thumb
  67              		.thumb_func
  68              		.fpu fpv4-sp-d16
  69              		.type	buffer_append_uint16, %function
  70              	buffer_append_uint16:
  71              	.LFB1:
  72              		.loc 1 29 0
  73              		.cfi_startproc
  74              		@ args = 0, pretend = 0, frame = 0
  75              		@ frame_needed = 0, uses_anonymous_args = 0
  76              		@ link register save eliminated.
  77              	.LVL1:
  78              		.loc 1 30 0
  79 0000 1368     		ldr	r3, [r2]
  80              		.loc 1 29 0
  81 0002 30B4     		push	{r4, r5}
  82              		.cfi_def_cfa_offset 8
  83              		.cfi_offset 4, -8
  84              		.cfi_offset 5, -4
  85              		.loc 1 30 0
  86 0004 5D1C     		adds	r5, r3, #1
  87 0006 0C0A     		lsrs	r4, r1, #8
  88 0008 1560     		str	r5, [r2]
  89 000a C454     		strb	r4, [r0, r3]
  90              		.loc 1 31 0
  91 000c 1368     		ldr	r3, [r2]
  92 000e 5C1C     		adds	r4, r3, #1
  93 0010 1460     		str	r4, [r2]
  94 0012 C154     		strb	r1, [r0, r3]
  95              		.loc 1 32 0
  96 0014 30BC     		pop	{r4, r5}
  97              		.cfi_restore 5
  98              		.cfi_restore 4
  99              		.cfi_def_cfa_offset 0
 100 0016 7047     		bx	lr
 101              		.cfi_endproc
 102              	.LFE1:
 103              		.size	buffer_append_uint16, .-buffer_append_uint16
 104              		.section	.text.buffer_append_int32,"ax",%progbits
 105              		.align	1
 106              		.p2align 4,,15
 107              		.global	buffer_append_int32
 108              		.syntax unified
 109              		.thumb
 110              		.thumb_func
 111              		.fpu fpv4-sp-d16
 112              		.type	buffer_append_int32, %function
 113              	buffer_append_int32:
 114              	.LFB2:
ARM GAS  C:\Users\Grillmo\AppData\Local\Temp\ccEAP0ji.s 			page 3


 115              		.loc 1 34 0
 116              		.cfi_startproc
 117              		@ args = 0, pretend = 0, frame = 0
 118              		@ frame_needed = 0, uses_anonymous_args = 0
 119              		@ link register save eliminated.
 120              	.LVL2:
 121              		.loc 1 35 0
 122 0000 1368     		ldr	r3, [r2]
 123              		.loc 1 34 0
 124 0002 30B4     		push	{r4, r5}
 125              		.cfi_def_cfa_offset 8
 126              		.cfi_offset 4, -8
 127              		.cfi_offset 5, -4
 128              		.loc 1 35 0
 129 0004 5D1C     		adds	r5, r3, #1
 130 0006 0C16     		asrs	r4, r1, #24
 131 0008 1560     		str	r5, [r2]
 132 000a C454     		strb	r4, [r0, r3]
 133              		.loc 1 36 0
 134 000c 1368     		ldr	r3, [r2]
 135 000e 0C14     		asrs	r4, r1, #16
 136 0010 5D1C     		adds	r5, r3, #1
 137 0012 1560     		str	r5, [r2]
 138 0014 C454     		strb	r4, [r0, r3]
 139              		.loc 1 37 0
 140 0016 1368     		ldr	r3, [r2]
 141 0018 0C12     		asrs	r4, r1, #8
 142 001a 5D1C     		adds	r5, r3, #1
 143 001c 1560     		str	r5, [r2]
 144 001e C454     		strb	r4, [r0, r3]
 145              		.loc 1 38 0
 146 0020 1368     		ldr	r3, [r2]
 147 0022 5C1C     		adds	r4, r3, #1
 148 0024 1460     		str	r4, [r2]
 149 0026 C154     		strb	r1, [r0, r3]
 150              		.loc 1 39 0
 151 0028 30BC     		pop	{r4, r5}
 152              		.cfi_restore 5
 153              		.cfi_restore 4
 154              		.cfi_def_cfa_offset 0
 155 002a 7047     		bx	lr
 156              		.cfi_endproc
 157              	.LFE2:
 158              		.size	buffer_append_int32, .-buffer_append_int32
 159              		.section	.text.buffer_append_uint32,"ax",%progbits
 160              		.align	1
 161              		.p2align 4,,15
 162              		.global	buffer_append_uint32
 163              		.syntax unified
 164              		.thumb
 165              		.thumb_func
 166              		.fpu fpv4-sp-d16
 167              		.type	buffer_append_uint32, %function
 168              	buffer_append_uint32:
 169              	.LFB3:
 170              		.loc 1 41 0
 171              		.cfi_startproc
ARM GAS  C:\Users\Grillmo\AppData\Local\Temp\ccEAP0ji.s 			page 4


 172              		@ args = 0, pretend = 0, frame = 0
 173              		@ frame_needed = 0, uses_anonymous_args = 0
 174              		@ link register save eliminated.
 175              	.LVL3:
 176              		.loc 1 42 0
 177 0000 1368     		ldr	r3, [r2]
 178              		.loc 1 41 0
 179 0002 30B4     		push	{r4, r5}
 180              		.cfi_def_cfa_offset 8
 181              		.cfi_offset 4, -8
 182              		.cfi_offset 5, -4
 183              		.loc 1 42 0
 184 0004 5D1C     		adds	r5, r3, #1
 185 0006 0C0E     		lsrs	r4, r1, #24
 186 0008 1560     		str	r5, [r2]
 187 000a C454     		strb	r4, [r0, r3]
 188              		.loc 1 43 0
 189 000c 1368     		ldr	r3, [r2]
 190 000e 0C0C     		lsrs	r4, r1, #16
 191 0010 5D1C     		adds	r5, r3, #1
 192 0012 1560     		str	r5, [r2]
 193 0014 C454     		strb	r4, [r0, r3]
 194              		.loc 1 44 0
 195 0016 1368     		ldr	r3, [r2]
 196 0018 0C0A     		lsrs	r4, r1, #8
 197 001a 5D1C     		adds	r5, r3, #1
 198 001c 1560     		str	r5, [r2]
 199 001e C454     		strb	r4, [r0, r3]
 200              		.loc 1 45 0
 201 0020 1368     		ldr	r3, [r2]
 202 0022 5C1C     		adds	r4, r3, #1
 203 0024 1460     		str	r4, [r2]
 204 0026 C154     		strb	r1, [r0, r3]
 205              		.loc 1 46 0
 206 0028 30BC     		pop	{r4, r5}
 207              		.cfi_restore 5
 208              		.cfi_restore 4
 209              		.cfi_def_cfa_offset 0
 210 002a 7047     		bx	lr
 211              		.cfi_endproc
 212              	.LFE3:
 213              		.size	buffer_append_uint32, .-buffer_append_uint32
 214              		.section	.text.buffer_append_float16,"ax",%progbits
 215              		.align	1
 216              		.p2align 4,,15
 217              		.global	buffer_append_float16
 218              		.syntax unified
 219              		.thumb
 220              		.thumb_func
 221              		.fpu fpv4-sp-d16
 222              		.type	buffer_append_float16, %function
 223              	buffer_append_float16:
 224              	.LFB4:
 225              		.loc 1 48 0
 226              		.cfi_startproc
 227              		@ args = 0, pretend = 0, frame = 8
 228              		@ frame_needed = 0, uses_anonymous_args = 0
ARM GAS  C:\Users\Grillmo\AppData\Local\Temp\ccEAP0ji.s 			page 5


 229              		@ link register save eliminated.
 230              	.LVL4:
 231 0000 30B4     		push	{r4, r5}
 232              		.cfi_def_cfa_offset 8
 233              		.cfi_offset 4, -8
 234              		.cfi_offset 5, -4
 235              		.loc 1 49 0
 236 0002 60EE200A 		vmul.f32	s1, s0, s1
 237              	.LVL5:
 238              		.loc 1 48 0
 239 0006 82B0     		sub	sp, sp, #8
 240              		.cfi_def_cfa_offset 16
 241              		.loc 1 49 0
 242 0008 FDEEE07A 		vcvt.s32.f32	s15, s1
 243              	.LBB6:
 244              	.LBB7:
 245              		.loc 1 25 0
 246 000c 0A68     		ldr	r2, [r1]
 247              	.LBE7:
 248              	.LBE6:
 249              		.loc 1 49 0
 250 000e CDED017A 		vstr.32	s15, [sp, #4]	@ int
 251 0012 BDF90430 		ldrsh	r3, [sp, #4]
 252              	.LVL6:
 253              	.LBB9:
 254              	.LBB8:
 255              		.loc 1 25 0
 256 0016 551C     		adds	r5, r2, #1
 257 0018 1C12     		asrs	r4, r3, #8
 258 001a 0D60     		str	r5, [r1]
 259 001c 8454     		strb	r4, [r0, r2]
 260              		.loc 1 26 0
 261 001e 0A68     		ldr	r2, [r1]
 262 0020 541C     		adds	r4, r2, #1
 263 0022 0C60     		str	r4, [r1]
 264 0024 8354     		strb	r3, [r0, r2]
 265              	.LVL7:
 266              	.LBE8:
 267              	.LBE9:
 268              		.loc 1 50 0
 269 0026 02B0     		add	sp, sp, #8
 270              		.cfi_def_cfa_offset 8
 271              		@ sp needed
 272 0028 30BC     		pop	{r4, r5}
 273              		.cfi_restore 5
 274              		.cfi_restore 4
 275              		.cfi_def_cfa_offset 0
 276 002a 7047     		bx	lr
 277              		.cfi_endproc
 278              	.LFE4:
 279              		.size	buffer_append_float16, .-buffer_append_float16
 280              		.section	.text.buffer_append_float32,"ax",%progbits
 281              		.align	1
 282              		.p2align 4,,15
 283              		.global	buffer_append_float32
 284              		.syntax unified
 285              		.thumb
ARM GAS  C:\Users\Grillmo\AppData\Local\Temp\ccEAP0ji.s 			page 6


 286              		.thumb_func
 287              		.fpu fpv4-sp-d16
 288              		.type	buffer_append_float32, %function
 289              	buffer_append_float32:
 290              	.LFB5:
 291              		.loc 1 52 0
 292              		.cfi_startproc
 293              		@ args = 0, pretend = 0, frame = 0
 294              		@ frame_needed = 0, uses_anonymous_args = 0
 295              		@ link register save eliminated.
 296              	.LVL8:
 297              		.loc 1 53 0
 298 0000 60EE200A 		vmul.f32	s1, s0, s1
 299              	.LVL9:
 300 0004 0A46     		mov	r2, r1
 301 0006 FDEEE07A 		vcvt.s32.f32	s15, s1
 302 000a 17EE901A 		vmov	r1, s15	@ int
 303              	.LVL10:
 304 000e FFF7FEBF 		b	buffer_append_int32
 305              	.LVL11:
 306              		.cfi_endproc
 307              	.LFE5:
 308              		.size	buffer_append_float32, .-buffer_append_float32
 309 0012 00BF     		.section	.text.buffer_append_float32_auto,"ax",%progbits
 310              		.align	1
 311              		.p2align 4,,15
 312              		.global	buffer_append_float32_auto
 313              		.syntax unified
 314              		.thumb
 315              		.thumb_func
 316              		.fpu fpv4-sp-d16
 317              		.type	buffer_append_float32_auto, %function
 318              	buffer_append_float32_auto:
 319              	.LFB6:
 320              		.loc 1 96 0
 321              		.cfi_startproc
 322              		@ args = 0, pretend = 0, frame = 8
 323              		@ frame_needed = 0, uses_anonymous_args = 0
 324              	.LVL12:
 325 0000 70B5     		push	{r4, r5, r6, lr}
 326              		.cfi_def_cfa_offset 16
 327              		.cfi_offset 4, -16
 328              		.cfi_offset 5, -12
 329              		.cfi_offset 6, -8
 330              		.cfi_offset 14, -4
 331 0002 82B0     		sub	sp, sp, #8
 332              		.cfi_def_cfa_offset 24
 333              		.loc 1 97 0
 334 0004 02AB     		add	r3, sp, #8
 335 0006 0024     		movs	r4, #0
 336 0008 43F8044D 		str	r4, [r3, #-4]!
 337              		.loc 1 96 0
 338 000c 0546     		mov	r5, r0
 339              		.loc 1 98 0
 340 000e 1846     		mov	r0, r3
 341              	.LVL13:
 342              		.loc 1 96 0
ARM GAS  C:\Users\Grillmo\AppData\Local\Temp\ccEAP0ji.s 			page 7


 343 0010 0E46     		mov	r6, r1
 344              		.loc 1 98 0
 345 0012 FFF7FEFF 		bl	frexpf
 346              	.LVL14:
 347              		.loc 1 102 0
 348 0016 B6EE007A 		vmov.f32	s14, #5.0e-1
 349              		.loc 1 99 0
 350 001a F0EEC07A 		vabs.f32	s15, s0
 351              	.LVL15:
 352              		.loc 1 102 0
 353 001e F4EEC77A 		vcmpe.f32	s15, s14
 354 0022 F1EE10FA 		vmrs	APSR_nzcv, FPSCR
 355 0026 13DA     		bge	.L13
 356 0028 019B     		ldr	r3, [sp, #4]
 357              	.LVL16:
 358              	.L14:
 359              		.loc 1 107 0
 360 002a DB05     		lsls	r3, r3, #23
 361 002c 03F0FF43 		and	r3, r3, #2139095040
 362              		.loc 1 108 0
 363 0030 B5EEC00A 		vcmpe.f32	s0, #0
 364              		.loc 1 107 0
 365 0034 43EA0401 		orr	r1, r3, r4
 366              	.LVL17:
 367              		.loc 1 108 0
 368 0038 F1EE10FA 		vmrs	APSR_nzcv, FPSCR
 369              		.loc 1 109 0
 370 003c 48BF     		it	mi
 371 003e 41F00041 		orrmi	r1, r1, #-2147483648
 372              	.LVL18:
 373              		.loc 1 112 0
 374 0042 3246     		mov	r2, r6
 375 0044 2846     		mov	r0, r5
 376              		.loc 1 113 0
 377 0046 02B0     		add	sp, sp, #8
 378              		.cfi_remember_state
 379              		.cfi_def_cfa_offset 16
 380              		@ sp needed
 381 0048 BDE87040 		pop	{r4, r5, r6, lr}
 382              		.cfi_restore 14
 383              		.cfi_restore 6
 384              		.cfi_restore 5
 385              		.cfi_restore 4
 386              		.cfi_def_cfa_offset 0
 387              	.LVL19:
 388              		.loc 1 112 0
 389 004c FFF7FEBF 		b	buffer_append_uint32
 390              	.LVL20:
 391              	.L13:
 392              		.cfi_restore_state
 393              		.loc 1 103 0
 394 0050 77EEC77A 		vsub.f32	s15, s15, s14
 395              	.LVL21:
 396 0054 9FED077A 		vldr.32	s14, .L20
 397              		.loc 1 104 0
 398 0058 019B     		ldr	r3, [sp, #4]
 399              		.loc 1 103 0
ARM GAS  C:\Users\Grillmo\AppData\Local\Temp\ccEAP0ji.s 			page 8


 400 005a 77EEA77A 		vadd.f32	s15, s15, s15
 401              		.loc 1 104 0
 402 005e 7E33     		adds	r3, r3, #126
 403              		.loc 1 103 0
 404 0060 67EE877A 		vmul.f32	s15, s15, s14
 405 0064 FCEEE77A 		vcvt.u32.f32	s15, s15
 406 0068 17EE902A 		vmov	r2, s15	@ int
 407 006c C2F31604 		ubfx	r4, r2, #0, #23
 408 0070 DBE7     		b	.L14
 409              	.L21:
 410 0072 00BF     		.align	2
 411              	.L20:
 412 0074 0000004B 		.word	1258291200
 413              		.cfi_endproc
 414              	.LFE6:
 415              		.size	buffer_append_float32_auto, .-buffer_append_float32_auto
 416              		.section	.text.buffer_get_int16,"ax",%progbits
 417              		.align	1
 418              		.p2align 4,,15
 419              		.global	buffer_get_int16
 420              		.syntax unified
 421              		.thumb
 422              		.thumb_func
 423              		.fpu fpv4-sp-d16
 424              		.type	buffer_get_int16, %function
 425              	buffer_get_int16:
 426              	.LFB7:
 427              		.loc 1 115 0
 428              		.cfi_startproc
 429              		@ args = 0, pretend = 0, frame = 0
 430              		@ frame_needed = 0, uses_anonymous_args = 0
 431              		@ link register save eliminated.
 432              	.LVL22:
 433 0000 10B4     		push	{r4}
 434              		.cfi_def_cfa_offset 4
 435              		.cfi_offset 4, -4
 436              		.loc 1 116 0
 437 0002 0B68     		ldr	r3, [r1]
 438              		.loc 1 117 0
 439 0004 C418     		adds	r4, r0, r3
 440              		.loc 1 116 0
 441 0006 C25C     		ldrb	r2, [r0, r3]	@ zero_extendqisi2
 442              		.loc 1 117 0
 443 0008 6078     		ldrb	r0, [r4, #1]	@ zero_extendqisi2
 444              	.LVL23:
 445              		.loc 1 120 0
 446 000a 5DF8044B 		ldr	r4, [sp], #4
 447              		.cfi_restore 4
 448              		.cfi_def_cfa_offset 0
 449              		.loc 1 118 0
 450 000e 0233     		adds	r3, r3, #2
 451              		.loc 1 116 0
 452 0010 40EA0220 		orr	r0, r0, r2, lsl #8
 453              	.LVL24:
 454              		.loc 1 120 0
 455 0014 00B2     		sxth	r0, r0
 456              		.loc 1 118 0
ARM GAS  C:\Users\Grillmo\AppData\Local\Temp\ccEAP0ji.s 			page 9


 457 0016 0B60     		str	r3, [r1]
 458              		.loc 1 120 0
 459 0018 7047     		bx	lr
 460              		.cfi_endproc
 461              	.LFE7:
 462              		.size	buffer_get_int16, .-buffer_get_int16
 463 001a 00BF     		.section	.text.buffer_get_uint16,"ax",%progbits
 464              		.align	1
 465              		.p2align 4,,15
 466              		.global	buffer_get_uint16
 467              		.syntax unified
 468              		.thumb
 469              		.thumb_func
 470              		.fpu fpv4-sp-d16
 471              		.type	buffer_get_uint16, %function
 472              	buffer_get_uint16:
 473              	.LFB8:
 474              		.loc 1 122 0
 475              		.cfi_startproc
 476              		@ args = 0, pretend = 0, frame = 0
 477              		@ frame_needed = 0, uses_anonymous_args = 0
 478              		@ link register save eliminated.
 479              	.LVL25:
 480              		.loc 1 123 0
 481 0000 0B68     		ldr	r3, [r1]
 482              		.loc 1 124 0
 483 0002 C218     		adds	r2, r0, r3
 484              		.loc 1 123 0
 485 0004 C05C     		ldrb	r0, [r0, r3]	@ zero_extendqisi2
 486              	.LVL26:
 487              		.loc 1 124 0
 488 0006 5278     		ldrb	r2, [r2, #1]	@ zero_extendqisi2
 489              	.LVL27:
 490              		.loc 1 125 0
 491 0008 0233     		adds	r3, r3, #2
 492 000a 0B60     		str	r3, [r1]
 493              		.loc 1 127 0
 494 000c 42EA0020 		orr	r0, r2, r0, lsl #8
 495              	.LVL28:
 496 0010 7047     		bx	lr
 497              		.cfi_endproc
 498              	.LFE8:
 499              		.size	buffer_get_uint16, .-buffer_get_uint16
 500 0012 00BF     		.section	.text.buffer_get_int32,"ax",%progbits
 501              		.align	1
 502              		.p2align 4,,15
 503              		.global	buffer_get_int32
 504              		.syntax unified
 505              		.thumb
 506              		.thumb_func
 507              		.fpu fpv4-sp-d16
 508              		.type	buffer_get_int32, %function
 509              	buffer_get_int32:
 510              	.LFB9:
 511              		.loc 1 129 0
 512              		.cfi_startproc
 513              		@ args = 0, pretend = 0, frame = 0
ARM GAS  C:\Users\Grillmo\AppData\Local\Temp\ccEAP0ji.s 			page 10


 514              		@ frame_needed = 0, uses_anonymous_args = 0
 515              		@ link register save eliminated.
 516              	.LVL29:
 517 0000 70B4     		push	{r4, r5, r6}
 518              		.cfi_def_cfa_offset 12
 519              		.cfi_offset 4, -12
 520              		.cfi_offset 5, -8
 521              		.cfi_offset 6, -4
 522              		.loc 1 130 0
 523 0002 0A68     		ldr	r2, [r1]
 524              		.loc 1 133 0
 525 0004 8418     		adds	r4, r0, r2
 526              		.loc 1 130 0
 527 0006 865C     		ldrb	r6, [r0, r2]	@ zero_extendqisi2
 528              		.loc 1 133 0
 529 0008 E378     		ldrb	r3, [r4, #3]	@ zero_extendqisi2
 530              		.loc 1 131 0
 531 000a 6578     		ldrb	r5, [r4, #1]	@ zero_extendqisi2
 532              		.loc 1 132 0
 533 000c A078     		ldrb	r0, [r4, #2]	@ zero_extendqisi2
 534              	.LVL30:
 535 000e 43EA0663 		orr	r3, r3, r6, lsl #24
 536 0012 43EA0543 		orr	r3, r3, r5, lsl #16
 537              	.LVL31:
 538              		.loc 1 134 0
 539 0016 0432     		adds	r2, r2, #4
 540              		.loc 1 136 0
 541 0018 43EA0020 		orr	r0, r3, r0, lsl #8
 542              	.LVL32:
 543              		.loc 1 134 0
 544 001c 0A60     		str	r2, [r1]
 545              		.loc 1 136 0
 546 001e 70BC     		pop	{r4, r5, r6}
 547              		.cfi_restore 6
 548              		.cfi_restore 5
 549              		.cfi_restore 4
 550              		.cfi_def_cfa_offset 0
 551 0020 7047     		bx	lr
 552              		.cfi_endproc
 553              	.LFE9:
 554              		.size	buffer_get_int32, .-buffer_get_int32
 555 0022 00BF     		.section	.text.buffer_get_uint32,"ax",%progbits
 556              		.align	1
 557              		.p2align 4,,15
 558              		.global	buffer_get_uint32
 559              		.syntax unified
 560              		.thumb
 561              		.thumb_func
 562              		.fpu fpv4-sp-d16
 563              		.type	buffer_get_uint32, %function
 564              	buffer_get_uint32:
 565              	.LFB10:
 566              		.loc 1 138 0
 567              		.cfi_startproc
 568              		@ args = 0, pretend = 0, frame = 0
 569              		@ frame_needed = 0, uses_anonymous_args = 0
 570              		@ link register save eliminated.
ARM GAS  C:\Users\Grillmo\AppData\Local\Temp\ccEAP0ji.s 			page 11


 571              	.LVL33:
 572 0000 70B4     		push	{r4, r5, r6}
 573              		.cfi_def_cfa_offset 12
 574              		.cfi_offset 4, -12
 575              		.cfi_offset 5, -8
 576              		.cfi_offset 6, -4
 577              		.loc 1 139 0
 578 0002 0A68     		ldr	r2, [r1]
 579              		.loc 1 142 0
 580 0004 8418     		adds	r4, r0, r2
 581              		.loc 1 139 0
 582 0006 865C     		ldrb	r6, [r0, r2]	@ zero_extendqisi2
 583              		.loc 1 142 0
 584 0008 E378     		ldrb	r3, [r4, #3]	@ zero_extendqisi2
 585              		.loc 1 140 0
 586 000a 6578     		ldrb	r5, [r4, #1]	@ zero_extendqisi2
 587              		.loc 1 141 0
 588 000c A078     		ldrb	r0, [r4, #2]	@ zero_extendqisi2
 589              	.LVL34:
 590              		.loc 1 139 0
 591 000e 43EA0663 		orr	r3, r3, r6, lsl #24
 592 0012 43EA0543 		orr	r3, r3, r5, lsl #16
 593              	.LVL35:
 594              		.loc 1 143 0
 595 0016 0432     		adds	r2, r2, #4
 596              		.loc 1 145 0
 597 0018 43EA0020 		orr	r0, r3, r0, lsl #8
 598              	.LVL36:
 599              		.loc 1 143 0
 600 001c 0A60     		str	r2, [r1]
 601              		.loc 1 145 0
 602 001e 70BC     		pop	{r4, r5, r6}
 603              		.cfi_restore 6
 604              		.cfi_restore 5
 605              		.cfi_restore 4
 606              		.cfi_def_cfa_offset 0
 607 0020 7047     		bx	lr
 608              		.cfi_endproc
 609              	.LFE10:
 610              		.size	buffer_get_uint32, .-buffer_get_uint32
 611 0022 00BF     		.section	.text.buffer_get_float16,"ax",%progbits
 612              		.align	1
 613              		.p2align 4,,15
 614              		.global	buffer_get_float16
 615              		.syntax unified
 616              		.thumb
 617              		.thumb_func
 618              		.fpu fpv4-sp-d16
 619              		.type	buffer_get_float16, %function
 620              	buffer_get_float16:
 621              	.LFB11:
 622              		.loc 1 147 0
 623              		.cfi_startproc
 624              		@ args = 0, pretend = 0, frame = 0
 625              		@ frame_needed = 0, uses_anonymous_args = 0
 626              		@ link register save eliminated.
 627              	.LVL37:
ARM GAS  C:\Users\Grillmo\AppData\Local\Temp\ccEAP0ji.s 			page 12


 628              	.LBB10:
 629              	.LBB11:
 630              		.loc 1 116 0
 631 0000 0A68     		ldr	r2, [r1]
 632              		.loc 1 117 0
 633 0002 8318     		adds	r3, r0, r2
 634              		.loc 1 116 0
 635 0004 805C     		ldrb	r0, [r0, r2]	@ zero_extendqisi2
 636              	.LVL38:
 637              		.loc 1 117 0
 638 0006 5B78     		ldrb	r3, [r3, #1]	@ zero_extendqisi2
 639              		.loc 1 116 0
 640 0008 43EA0023 		orr	r3, r3, r0, lsl #8
 641 000c 1BB2     		sxth	r3, r3
 642              	.LVL39:
 643              	.LBE11:
 644              	.LBE10:
 645              		.loc 1 148 0
 646 000e 07EE903A 		vmov	s15, r3	@ int
 647 0012 F8EEE77A 		vcvt.f32.s32	s15, s15
 648              	.LBB13:
 649              	.LBB12:
 650              		.loc 1 118 0
 651 0016 0232     		adds	r2, r2, #2
 652 0018 0A60     		str	r2, [r1]
 653              	.LVL40:
 654              	.LBE12:
 655              	.LBE13:
 656              		.loc 1 149 0
 657 001a 87EE800A 		vdiv.f32	s0, s15, s0
 658              	.LVL41:
 659 001e 7047     		bx	lr
 660              		.cfi_endproc
 661              	.LFE11:
 662              		.size	buffer_get_float16, .-buffer_get_float16
 663              		.section	.text.buffer_get_float32,"ax",%progbits
 664              		.align	1
 665              		.p2align 4,,15
 666              		.global	buffer_get_float32
 667              		.syntax unified
 668              		.thumb
 669              		.thumb_func
 670              		.fpu fpv4-sp-d16
 671              		.type	buffer_get_float32, %function
 672              	buffer_get_float32:
 673              	.LFB12:
 674              		.loc 1 151 0
 675              		.cfi_startproc
 676              		@ args = 0, pretend = 0, frame = 0
 677              		@ frame_needed = 0, uses_anonymous_args = 0
 678              	.LVL42:
 679 0000 08B5     		push	{r3, lr}
 680              		.cfi_def_cfa_offset 8
 681              		.cfi_offset 3, -8
 682              		.cfi_offset 14, -4
 683              		.loc 1 152 0
 684 0002 FFF7FEFF 		bl	buffer_get_int32
ARM GAS  C:\Users\Grillmo\AppData\Local\Temp\ccEAP0ji.s 			page 13


 685              	.LVL43:
 686 0006 07EE900A 		vmov	s15, r0	@ int
 687 000a F8EEE77A 		vcvt.f32.s32	s15, s15
 688              		.loc 1 153 0
 689 000e 87EE800A 		vdiv.f32	s0, s15, s0
 690              	.LVL44:
 691 0012 08BD     		pop	{r3, pc}
 692              		.cfi_endproc
 693              	.LFE12:
 694              		.size	buffer_get_float32, .-buffer_get_float32
 695              		.section	.text.buffer_get_float32_auto,"ax",%progbits
 696              		.align	1
 697              		.p2align 4,,15
 698              		.global	buffer_get_float32_auto
 699              		.syntax unified
 700              		.thumb
 701              		.thumb_func
 702              		.fpu fpv4-sp-d16
 703              		.type	buffer_get_float32_auto, %function
 704              	buffer_get_float32_auto:
 705              	.LFB13:
 706              		.loc 1 155 0
 707              		.cfi_startproc
 708              		@ args = 0, pretend = 0, frame = 0
 709              		@ frame_needed = 0, uses_anonymous_args = 0
 710              	.LVL45:
 711 0000 08B5     		push	{r3, lr}
 712              		.cfi_def_cfa_offset 8
 713              		.cfi_offset 3, -8
 714              		.cfi_offset 14, -4
 715              		.loc 1 156 0
 716 0002 FFF7FEFF 		bl	buffer_get_uint32
 717              	.LVL46:
 718              		.loc 1 158 0
 719 0006 C0F3C753 		ubfx	r3, r0, #23, #8
 720              	.LVL47:
 721              		.loc 1 159 0
 722 000a C0F31602 		ubfx	r2, r0, #0, #23
 723              	.LVL48:
 724              		.loc 1 163 0
 725 000e 03B9     		cbnz	r3, .L33
 726              		.loc 1 163 0 is_stmt 0 discriminator 1
 727 0010 9AB1     		cbz	r2, .L36
 728              	.L33:
 729              		.loc 1 164 0 is_stmt 1
 730 0012 07EE902A 		vmov	s15, r2	@ int
 731 0016 9FED0A7A 		vldr.32	s14, .L38
 732 001a F8EEE77A 		vcvt.f32.s32	s15, s15
 733 001e B6EE000A 		vmov.f32	s0, #5.0e-1
 734 0022 A7EE870A 		vfma.f32	s0, s15, s14
 735              	.LVL49:
 736              		.loc 1 165 0
 737 0026 7E3B     		subs	r3, r3, #126
 738              	.LVL50:
 739              	.L34:
 740              		.loc 1 168 0
 741 0028 0028     		cmp	r0, #0
ARM GAS  C:\Users\Grillmo\AppData\Local\Temp\ccEAP0ji.s 			page 14


 742              		.loc 1 169 0
 743 002a B8BF     		it	lt
 744 002c B1EE400A 		vneglt.f32	s0, s0
 745              	.LVL51:
 746              		.loc 1 172 0
 747 0030 1846     		mov	r0, r3
 748              	.LVL52:
 749              		.loc 1 173 0
 750 0032 BDE80840 		pop	{r3, lr}
 751              		.cfi_remember_state
 752              		.cfi_restore 14
 753              		.cfi_restore 3
 754              		.cfi_def_cfa_offset 0
 755              	.LVL53:
 756              		.loc 1 172 0
 757 0036 FFF7FEBF 		b	ldexpf
 758              	.LVL54:
 759              	.L36:
 760              		.cfi_restore_state
 761              		.loc 1 162 0
 762 003a 9FED020A 		vldr.32	s0, .L38+4
 763 003e F3E7     		b	.L34
 764              	.L39:
 765              		.align	2
 766              	.L38:
 767 0040 00008033 		.word	864026624
 768 0044 00000000 		.word	0
 769              		.cfi_endproc
 770              	.LFE13:
 771              		.size	buffer_get_float32_auto, .-buffer_get_float32_auto
 772              		.text
 773              	.Letext0:
 774              		.file 2 "c:\\chibistudio\\tools\\gnu tools arm embedded\\6.3 2017q1\\arm-none-eabi\\include\\machi
 775              		.file 3 "c:\\chibistudio\\tools\\gnu tools arm embedded\\6.3 2017q1\\arm-none-eabi\\include\\sys\\
 776              		.file 4 "c:\\chibistudio\\tools\\gnu tools arm embedded\\6.3 2017q1\\arm-none-eabi\\include\\sys\\
 777              		.file 5 "c:\\chibistudio\\tools\\gnu tools arm embedded\\6.3 2017q1\\arm-none-eabi\\include\\sys\\
 778              		.file 6 "c:\\chibistudio\\tools\\gnu tools arm embedded\\6.3 2017q1\\lib\\gcc\\arm-none-eabi\\6.3.
 779              		.file 7 "c:\\chibistudio\\tools\\gnu tools arm embedded\\6.3 2017q1\\arm-none-eabi\\include\\sys\\
 780              		.file 8 "c:\\chibistudio\\tools\\gnu tools arm embedded\\6.3 2017q1\\arm-none-eabi\\include\\math.
 781              		.section	.debug_info,"",%progbits
 782              	.Ldebug_info0:
 783 0000 D40E0000 		.4byte	0xed4
 784 0004 0400     		.2byte	0x4
 785 0006 00000000 		.4byte	.Ldebug_abbrev0
 786 000a 04       		.byte	0x4
 787 000b 01       		.uleb128 0x1
 788 000c 73020000 		.4byte	.LASF160
 789 0010 0C       		.byte	0xc
 790 0011 8C060000 		.4byte	.LASF161
 791 0015 A5040000 		.4byte	.LASF162
 792 0019 30000000 		.4byte	.Ldebug_ranges0+0x30
 793 001d 00000000 		.4byte	0
 794 0021 00000000 		.4byte	.Ldebug_line0
 795 0025 02       		.uleb128 0x2
 796 0026 04       		.byte	0x4
 797 0027 04       		.byte	0x4
 798 0028 B4040000 		.4byte	.LASF0
ARM GAS  C:\Users\Grillmo\AppData\Local\Temp\ccEAP0ji.s 			page 15


 799 002c 02       		.uleb128 0x2
 800 002d 04       		.byte	0x4
 801 002e 07       		.byte	0x7
 802 002f 25020000 		.4byte	.LASF1
 803 0033 02       		.uleb128 0x2
 804 0034 01       		.byte	0x1
 805 0035 06       		.byte	0x6
 806 0036 D2000000 		.4byte	.LASF2
 807 003a 03       		.uleb128 0x3
 808 003b 2B000000 		.4byte	.LASF4
 809 003f 02       		.byte	0x2
 810 0040 2B       		.byte	0x2b
 811 0041 45000000 		.4byte	0x45
 812 0045 02       		.uleb128 0x2
 813 0046 01       		.byte	0x1
 814 0047 08       		.byte	0x8
 815 0048 EC040000 		.4byte	.LASF3
 816 004c 03       		.uleb128 0x3
 817 004d CF010000 		.4byte	.LASF5
 818 0051 02       		.byte	0x2
 819 0052 37       		.byte	0x37
 820 0053 57000000 		.4byte	0x57
 821 0057 02       		.uleb128 0x2
 822 0058 02       		.byte	0x2
 823 0059 05       		.byte	0x5
 824 005a 1C050000 		.4byte	.LASF6
 825 005e 03       		.uleb128 0x3
 826 005f 31060000 		.4byte	.LASF7
 827 0063 02       		.byte	0x2
 828 0064 39       		.byte	0x39
 829 0065 69000000 		.4byte	0x69
 830 0069 02       		.uleb128 0x2
 831 006a 02       		.byte	0x2
 832 006b 07       		.byte	0x7
 833 006c B1030000 		.4byte	.LASF8
 834 0070 03       		.uleb128 0x3
 835 0071 61060000 		.4byte	.LASF9
 836 0075 02       		.byte	0x2
 837 0076 4D       		.byte	0x4d
 838 0077 7B000000 		.4byte	0x7b
 839 007b 02       		.uleb128 0x2
 840 007c 04       		.byte	0x4
 841 007d 05       		.byte	0x5
 842 007e 17010000 		.4byte	.LASF10
 843 0082 03       		.uleb128 0x3
 844 0083 BE010000 		.4byte	.LASF11
 845 0087 02       		.byte	0x2
 846 0088 4F       		.byte	0x4f
 847 0089 8D000000 		.4byte	0x8d
 848 008d 02       		.uleb128 0x2
 849 008e 04       		.byte	0x4
 850 008f 07       		.byte	0x7
 851 0090 49020000 		.4byte	.LASF12
 852 0094 02       		.uleb128 0x2
 853 0095 08       		.byte	0x8
 854 0096 05       		.byte	0x5
 855 0097 C4000000 		.4byte	.LASF13
ARM GAS  C:\Users\Grillmo\AppData\Local\Temp\ccEAP0ji.s 			page 16


 856 009b 02       		.uleb128 0x2
 857 009c 08       		.byte	0x8
 858 009d 07       		.byte	0x7
 859 009e 5B000000 		.4byte	.LASF14
 860 00a2 04       		.uleb128 0x4
 861 00a3 04       		.byte	0x4
 862 00a4 05       		.byte	0x5
 863 00a5 696E7400 		.ascii	"int\000"
 864 00a9 03       		.uleb128 0x3
 865 00aa 2E070000 		.4byte	.LASF15
 866 00ae 03       		.byte	0x3
 867 00af 18       		.byte	0x18
 868 00b0 3A000000 		.4byte	0x3a
 869 00b4 05       		.uleb128 0x5
 870 00b5 A9000000 		.4byte	0xa9
 871 00b9 03       		.uleb128 0x3
 872 00ba BC000000 		.4byte	.LASF16
 873 00be 03       		.byte	0x3
 874 00bf 20       		.byte	0x20
 875 00c0 4C000000 		.4byte	0x4c
 876 00c4 03       		.uleb128 0x3
 877 00c5 61010000 		.4byte	.LASF17
 878 00c9 03       		.byte	0x3
 879 00ca 24       		.byte	0x24
 880 00cb 5E000000 		.4byte	0x5e
 881 00cf 03       		.uleb128 0x3
 882 00d0 E4040000 		.4byte	.LASF18
 883 00d4 03       		.byte	0x3
 884 00d5 2C       		.byte	0x2c
 885 00d6 70000000 		.4byte	0x70
 886 00da 03       		.uleb128 0x3
 887 00db D8050000 		.4byte	.LASF19
 888 00df 03       		.byte	0x3
 889 00e0 30       		.byte	0x30
 890 00e1 82000000 		.4byte	0x82
 891 00e5 03       		.uleb128 0x3
 892 00e6 FB030000 		.4byte	.LASF20
 893 00ea 04       		.byte	0x4
 894 00eb 22       		.byte	0x22
 895 00ec F0000000 		.4byte	0xf0
 896 00f0 06       		.uleb128 0x6
 897 00f1 04       		.byte	0x4
 898 00f2 F6000000 		.4byte	0xf6
 899 00f6 07       		.uleb128 0x7
 900 00f7 D1050000 		.4byte	.LASF128
 901 00fb 03       		.uleb128 0x3
 902 00fc 9E040000 		.4byte	.LASF21
 903 0100 05       		.byte	0x5
 904 0101 2C       		.byte	0x2c
 905 0102 7B000000 		.4byte	0x7b
 906 0106 03       		.uleb128 0x3
 907 0107 F3050000 		.4byte	.LASF22
 908 010b 05       		.byte	0x5
 909 010c 72       		.byte	0x72
 910 010d 7B000000 		.4byte	0x7b
 911 0111 08       		.uleb128 0x8
 912 0112 03040000 		.4byte	.LASF23
ARM GAS  C:\Users\Grillmo\AppData\Local\Temp\ccEAP0ji.s 			page 17


 913 0116 06       		.byte	0x6
 914 0117 6501     		.2byte	0x165
 915 0119 2C000000 		.4byte	0x2c
 916 011d 09       		.uleb128 0x9
 917 011e 04       		.byte	0x4
 918 011f 05       		.byte	0x5
 919 0120 A6       		.byte	0xa6
 920 0121 3C010000 		.4byte	0x13c
 921 0125 0A       		.uleb128 0xa
 922 0126 EE030000 		.4byte	.LASF24
 923 012a 05       		.byte	0x5
 924 012b A8       		.byte	0xa8
 925 012c 11010000 		.4byte	0x111
 926 0130 0A       		.uleb128 0xa
 927 0131 32020000 		.4byte	.LASF25
 928 0135 05       		.byte	0x5
 929 0136 A9       		.byte	0xa9
 930 0137 3C010000 		.4byte	0x13c
 931 013b 00       		.byte	0
 932 013c 0B       		.uleb128 0xb
 933 013d 45000000 		.4byte	0x45
 934 0141 4C010000 		.4byte	0x14c
 935 0145 0C       		.uleb128 0xc
 936 0146 4C010000 		.4byte	0x14c
 937 014a 03       		.byte	0x3
 938 014b 00       		.byte	0
 939 014c 02       		.uleb128 0x2
 940 014d 04       		.byte	0x4
 941 014e 07       		.byte	0x7
 942 014f 32040000 		.4byte	.LASF26
 943 0153 0D       		.uleb128 0xd
 944 0154 08       		.byte	0x8
 945 0155 05       		.byte	0x5
 946 0156 A3       		.byte	0xa3
 947 0157 74010000 		.4byte	0x174
 948 015b 0E       		.uleb128 0xe
 949 015c C9050000 		.4byte	.LASF27
 950 0160 05       		.byte	0x5
 951 0161 A5       		.byte	0xa5
 952 0162 A2000000 		.4byte	0xa2
 953 0166 00       		.byte	0
 954 0167 0E       		.uleb128 0xe
 955 0168 84060000 		.4byte	.LASF28
 956 016c 05       		.byte	0x5
 957 016d AA       		.byte	0xaa
 958 016e 1D010000 		.4byte	0x11d
 959 0172 04       		.byte	0x4
 960 0173 00       		.byte	0
 961 0174 03       		.uleb128 0x3
 962 0175 44050000 		.4byte	.LASF29
 963 0179 05       		.byte	0x5
 964 017a AB       		.byte	0xab
 965 017b 53010000 		.4byte	0x153
 966 017f 03       		.uleb128 0x3
 967 0180 5F070000 		.4byte	.LASF30
 968 0184 05       		.byte	0x5
 969 0185 AF       		.byte	0xaf
ARM GAS  C:\Users\Grillmo\AppData\Local\Temp\ccEAP0ji.s 			page 18


 970 0186 E5000000 		.4byte	0xe5
 971 018a 0F       		.uleb128 0xf
 972 018b 04       		.byte	0x4
 973 018c 06       		.uleb128 0x6
 974 018d 04       		.byte	0x4
 975 018e 92010000 		.4byte	0x192
 976 0192 02       		.uleb128 0x2
 977 0193 01       		.byte	0x1
 978 0194 08       		.byte	0x8
 979 0195 08060000 		.4byte	.LASF31
 980 0199 05       		.uleb128 0x5
 981 019a 92010000 		.4byte	0x192
 982 019e 03       		.uleb128 0x3
 983 019f 9A060000 		.4byte	.LASF32
 984 01a3 07       		.byte	0x7
 985 01a4 16       		.byte	0x16
 986 01a5 8D000000 		.4byte	0x8d
 987 01a9 10       		.uleb128 0x10
 988 01aa E1010000 		.4byte	.LASF37
 989 01ae 18       		.byte	0x18
 990 01af 07       		.byte	0x7
 991 01b0 2F       		.byte	0x2f
 992 01b1 FC010000 		.4byte	0x1fc
 993 01b5 0E       		.uleb128 0xe
 994 01b6 71060000 		.4byte	.LASF33
 995 01ba 07       		.byte	0x7
 996 01bb 31       		.byte	0x31
 997 01bc FC010000 		.4byte	0x1fc
 998 01c0 00       		.byte	0
 999 01c1 11       		.uleb128 0x11
 1000 01c2 5F6B00   		.ascii	"_k\000"
 1001 01c5 07       		.byte	0x7
 1002 01c6 32       		.byte	0x32
 1003 01c7 A2000000 		.4byte	0xa2
 1004 01cb 04       		.byte	0x4
 1005 01cc 0E       		.uleb128 0xe
 1006 01cd B4050000 		.4byte	.LASF34
 1007 01d1 07       		.byte	0x7
 1008 01d2 32       		.byte	0x32
 1009 01d3 A2000000 		.4byte	0xa2
 1010 01d7 08       		.byte	0x8
 1011 01d8 0E       		.uleb128 0xe
 1012 01d9 C9010000 		.4byte	.LASF35
 1013 01dd 07       		.byte	0x7
 1014 01de 32       		.byte	0x32
 1015 01df A2000000 		.4byte	0xa2
 1016 01e3 0C       		.byte	0xc
 1017 01e4 0E       		.uleb128 0xe
 1018 01e5 EE060000 		.4byte	.LASF36
 1019 01e9 07       		.byte	0x7
 1020 01ea 32       		.byte	0x32
 1021 01eb A2000000 		.4byte	0xa2
 1022 01ef 10       		.byte	0x10
 1023 01f0 11       		.uleb128 0x11
 1024 01f1 5F7800   		.ascii	"_x\000"
 1025 01f4 07       		.byte	0x7
 1026 01f5 33       		.byte	0x33
ARM GAS  C:\Users\Grillmo\AppData\Local\Temp\ccEAP0ji.s 			page 19


 1027 01f6 02020000 		.4byte	0x202
 1028 01fa 14       		.byte	0x14
 1029 01fb 00       		.byte	0
 1030 01fc 06       		.uleb128 0x6
 1031 01fd 04       		.byte	0x4
 1032 01fe A9010000 		.4byte	0x1a9
 1033 0202 0B       		.uleb128 0xb
 1034 0203 9E010000 		.4byte	0x19e
 1035 0207 12020000 		.4byte	0x212
 1036 020b 0C       		.uleb128 0xc
 1037 020c 4C010000 		.4byte	0x14c
 1038 0210 00       		.byte	0
 1039 0211 00       		.byte	0
 1040 0212 10       		.uleb128 0x10
 1041 0213 20020000 		.4byte	.LASF38
 1042 0217 24       		.byte	0x24
 1043 0218 07       		.byte	0x7
 1044 0219 37       		.byte	0x37
 1045 021a 8B020000 		.4byte	0x28b
 1046 021e 0E       		.uleb128 0xe
 1047 021f B3000000 		.4byte	.LASF39
 1048 0223 07       		.byte	0x7
 1049 0224 39       		.byte	0x39
 1050 0225 A2000000 		.4byte	0xa2
 1051 0229 00       		.byte	0
 1052 022a 0E       		.uleb128 0xe
 1053 022b 28060000 		.4byte	.LASF40
 1054 022f 07       		.byte	0x7
 1055 0230 3A       		.byte	0x3a
 1056 0231 A2000000 		.4byte	0xa2
 1057 0235 04       		.byte	0x4
 1058 0236 0E       		.uleb128 0xe
 1059 0237 EA000000 		.4byte	.LASF41
 1060 023b 07       		.byte	0x7
 1061 023c 3B       		.byte	0x3b
 1062 023d A2000000 		.4byte	0xa2
 1063 0241 08       		.byte	0x8
 1064 0242 0E       		.uleb128 0xe
 1065 0243 CB070000 		.4byte	.LASF42
 1066 0247 07       		.byte	0x7
 1067 0248 3C       		.byte	0x3c
 1068 0249 A2000000 		.4byte	0xa2
 1069 024d 0C       		.byte	0xc
 1070 024e 0E       		.uleb128 0xe
 1071 024f 7C040000 		.4byte	.LASF43
 1072 0253 07       		.byte	0x7
 1073 0254 3D       		.byte	0x3d
 1074 0255 A2000000 		.4byte	0xa2
 1075 0259 10       		.byte	0x10
 1076 025a 0E       		.uleb128 0xe
 1077 025b 1F040000 		.4byte	.LASF44
 1078 025f 07       		.byte	0x7
 1079 0260 3E       		.byte	0x3e
 1080 0261 A2000000 		.4byte	0xa2
 1081 0265 14       		.byte	0x14
 1082 0266 0E       		.uleb128 0xe
 1083 0267 F3060000 		.4byte	.LASF45
ARM GAS  C:\Users\Grillmo\AppData\Local\Temp\ccEAP0ji.s 			page 20


 1084 026b 07       		.byte	0x7
 1085 026c 3F       		.byte	0x3f
 1086 026d A2000000 		.4byte	0xa2
 1087 0271 18       		.byte	0x18
 1088 0272 0E       		.uleb128 0xe
 1089 0273 26050000 		.4byte	.LASF46
 1090 0277 07       		.byte	0x7
 1091 0278 40       		.byte	0x40
 1092 0279 A2000000 		.4byte	0xa2
 1093 027d 1C       		.byte	0x1c
 1094 027e 0E       		.uleb128 0xe
 1095 027f 8B070000 		.4byte	.LASF47
 1096 0283 07       		.byte	0x7
 1097 0284 41       		.byte	0x41
 1098 0285 A2000000 		.4byte	0xa2
 1099 0289 20       		.byte	0x20
 1100 028a 00       		.byte	0
 1101 028b 12       		.uleb128 0x12
 1102 028c F9000000 		.4byte	.LASF48
 1103 0290 0801     		.2byte	0x108
 1104 0292 07       		.byte	0x7
 1105 0293 4A       		.byte	0x4a
 1106 0294 CB020000 		.4byte	0x2cb
 1107 0298 0E       		.uleb128 0xe
 1108 0299 B1010000 		.4byte	.LASF49
 1109 029d 07       		.byte	0x7
 1110 029e 4B       		.byte	0x4b
 1111 029f CB020000 		.4byte	0x2cb
 1112 02a3 00       		.byte	0
 1113 02a4 0E       		.uleb128 0xe
 1114 02a5 00000000 		.4byte	.LASF50
 1115 02a9 07       		.byte	0x7
 1116 02aa 4C       		.byte	0x4c
 1117 02ab CB020000 		.4byte	0x2cb
 1118 02af 80       		.byte	0x80
 1119 02b0 13       		.uleb128 0x13
 1120 02b1 42060000 		.4byte	.LASF51
 1121 02b5 07       		.byte	0x7
 1122 02b6 4E       		.byte	0x4e
 1123 02b7 9E010000 		.4byte	0x19e
 1124 02bb 0001     		.2byte	0x100
 1125 02bd 13       		.uleb128 0x13
 1126 02be 27010000 		.4byte	.LASF52
 1127 02c2 07       		.byte	0x7
 1128 02c3 51       		.byte	0x51
 1129 02c4 9E010000 		.4byte	0x19e
 1130 02c8 0401     		.2byte	0x104
 1131 02ca 00       		.byte	0
 1132 02cb 0B       		.uleb128 0xb
 1133 02cc 8A010000 		.4byte	0x18a
 1134 02d0 DB020000 		.4byte	0x2db
 1135 02d4 0C       		.uleb128 0xc
 1136 02d5 4C010000 		.4byte	0x14c
 1137 02d9 1F       		.byte	0x1f
 1138 02da 00       		.byte	0
 1139 02db 12       		.uleb128 0x12
 1140 02dc 8B040000 		.4byte	.LASF53
ARM GAS  C:\Users\Grillmo\AppData\Local\Temp\ccEAP0ji.s 			page 21


 1141 02e0 9001     		.2byte	0x190
 1142 02e2 07       		.byte	0x7
 1143 02e3 5D       		.byte	0x5d
 1144 02e4 19030000 		.4byte	0x319
 1145 02e8 0E       		.uleb128 0xe
 1146 02e9 71060000 		.4byte	.LASF33
 1147 02ed 07       		.byte	0x7
 1148 02ee 5E       		.byte	0x5e
 1149 02ef 19030000 		.4byte	0x319
 1150 02f3 00       		.byte	0
 1151 02f4 0E       		.uleb128 0xe
 1152 02f5 84050000 		.4byte	.LASF54
 1153 02f9 07       		.byte	0x7
 1154 02fa 5F       		.byte	0x5f
 1155 02fb A2000000 		.4byte	0xa2
 1156 02ff 04       		.byte	0x4
 1157 0300 0E       		.uleb128 0xe
 1158 0301 B9010000 		.4byte	.LASF55
 1159 0305 07       		.byte	0x7
 1160 0306 61       		.byte	0x61
 1161 0307 1F030000 		.4byte	0x31f
 1162 030b 08       		.byte	0x8
 1163 030c 0E       		.uleb128 0xe
 1164 030d F9000000 		.4byte	.LASF48
 1165 0311 07       		.byte	0x7
 1166 0312 62       		.byte	0x62
 1167 0313 8B020000 		.4byte	0x28b
 1168 0317 88       		.byte	0x88
 1169 0318 00       		.byte	0
 1170 0319 06       		.uleb128 0x6
 1171 031a 04       		.byte	0x4
 1172 031b DB020000 		.4byte	0x2db
 1173 031f 0B       		.uleb128 0xb
 1174 0320 2F030000 		.4byte	0x32f
 1175 0324 2F030000 		.4byte	0x32f
 1176 0328 0C       		.uleb128 0xc
 1177 0329 4C010000 		.4byte	0x14c
 1178 032d 1F       		.byte	0x1f
 1179 032e 00       		.byte	0
 1180 032f 06       		.uleb128 0x6
 1181 0330 04       		.byte	0x4
 1182 0331 35030000 		.4byte	0x335
 1183 0335 14       		.uleb128 0x14
 1184 0336 10       		.uleb128 0x10
 1185 0337 30050000 		.4byte	.LASF56
 1186 033b 08       		.byte	0x8
 1187 033c 07       		.byte	0x7
 1188 033d 75       		.byte	0x75
 1189 033e 5B030000 		.4byte	0x35b
 1190 0342 0E       		.uleb128 0xe
 1191 0343 E4000000 		.4byte	.LASF57
 1192 0347 07       		.byte	0x7
 1193 0348 76       		.byte	0x76
 1194 0349 5B030000 		.4byte	0x35b
 1195 034d 00       		.byte	0
 1196 034e 0E       		.uleb128 0xe
 1197 034f 12000000 		.4byte	.LASF58
ARM GAS  C:\Users\Grillmo\AppData\Local\Temp\ccEAP0ji.s 			page 22


 1198 0353 07       		.byte	0x7
 1199 0354 77       		.byte	0x77
 1200 0355 A2000000 		.4byte	0xa2
 1201 0359 04       		.byte	0x4
 1202 035a 00       		.byte	0
 1203 035b 06       		.uleb128 0x6
 1204 035c 04       		.byte	0x4
 1205 035d 45000000 		.4byte	0x45
 1206 0361 10       		.uleb128 0x10
 1207 0362 4F050000 		.4byte	.LASF59
 1208 0366 68       		.byte	0x68
 1209 0367 07       		.byte	0x7
 1210 0368 B5       		.byte	0xb5
 1211 0369 8B040000 		.4byte	0x48b
 1212 036d 11       		.uleb128 0x11
 1213 036e 5F7000   		.ascii	"_p\000"
 1214 0371 07       		.byte	0x7
 1215 0372 B6       		.byte	0xb6
 1216 0373 5B030000 		.4byte	0x35b
 1217 0377 00       		.byte	0
 1218 0378 11       		.uleb128 0x11
 1219 0379 5F7200   		.ascii	"_r\000"
 1220 037c 07       		.byte	0x7
 1221 037d B7       		.byte	0xb7
 1222 037e A2000000 		.4byte	0xa2
 1223 0382 04       		.byte	0x4
 1224 0383 11       		.uleb128 0x11
 1225 0384 5F7700   		.ascii	"_w\000"
 1226 0387 07       		.byte	0x7
 1227 0388 B8       		.byte	0xb8
 1228 0389 A2000000 		.4byte	0xa2
 1229 038d 08       		.byte	0x8
 1230 038e 0E       		.uleb128 0xe
 1231 038f 20010000 		.4byte	.LASF60
 1232 0393 07       		.byte	0x7
 1233 0394 B9       		.byte	0xb9
 1234 0395 57000000 		.4byte	0x57
 1235 0399 0C       		.byte	0xc
 1236 039a 0E       		.uleb128 0xe
 1237 039b 5B020000 		.4byte	.LASF61
 1238 039f 07       		.byte	0x7
 1239 03a0 BA       		.byte	0xba
 1240 03a1 57000000 		.4byte	0x57
 1241 03a5 0E       		.byte	0xe
 1242 03a6 11       		.uleb128 0x11
 1243 03a7 5F626600 		.ascii	"_bf\000"
 1244 03ab 07       		.byte	0x7
 1245 03ac BB       		.byte	0xbb
 1246 03ad 36030000 		.4byte	0x336
 1247 03b1 10       		.byte	0x10
 1248 03b2 0E       		.uleb128 0xe
 1249 03b3 81000000 		.4byte	.LASF62
 1250 03b7 07       		.byte	0x7
 1251 03b8 BC       		.byte	0xbc
 1252 03b9 A2000000 		.4byte	0xa2
 1253 03bd 18       		.byte	0x18
 1254 03be 0E       		.uleb128 0xe
ARM GAS  C:\Users\Grillmo\AppData\Local\Temp\ccEAP0ji.s 			page 23


 1255 03bf 07010000 		.4byte	.LASF63
 1256 03c3 07       		.byte	0x7
 1257 03c4 C3       		.byte	0xc3
 1258 03c5 8A010000 		.4byte	0x18a
 1259 03c9 1C       		.byte	0x1c
 1260 03ca 0E       		.uleb128 0xe
 1261 03cb F8010000 		.4byte	.LASF64
 1262 03cf 07       		.byte	0x7
 1263 03d0 C5       		.byte	0xc5
 1264 03d1 E6050000 		.4byte	0x5e6
 1265 03d5 20       		.byte	0x20
 1266 03d6 0E       		.uleb128 0xe
 1267 03d7 18040000 		.4byte	.LASF65
 1268 03db 07       		.byte	0x7
 1269 03dc C7       		.byte	0xc7
 1270 03dd 10060000 		.4byte	0x610
 1271 03e1 24       		.byte	0x24
 1272 03e2 0E       		.uleb128 0xe
 1273 03e3 E1050000 		.4byte	.LASF66
 1274 03e7 07       		.byte	0x7
 1275 03e8 CA       		.byte	0xca
 1276 03e9 34060000 		.4byte	0x634
 1277 03ed 28       		.byte	0x28
 1278 03ee 0E       		.uleb128 0xe
 1279 03ef A5070000 		.4byte	.LASF67
 1280 03f3 07       		.byte	0x7
 1281 03f4 CB       		.byte	0xcb
 1282 03f5 4E060000 		.4byte	0x64e
 1283 03f9 2C       		.byte	0x2c
 1284 03fa 11       		.uleb128 0x11
 1285 03fb 5F756200 		.ascii	"_ub\000"
 1286 03ff 07       		.byte	0x7
 1287 0400 CE       		.byte	0xce
 1288 0401 36030000 		.4byte	0x336
 1289 0405 30       		.byte	0x30
 1290 0406 11       		.uleb128 0x11
 1291 0407 5F757000 		.ascii	"_up\000"
 1292 040b 07       		.byte	0x7
 1293 040c CF       		.byte	0xcf
 1294 040d 5B030000 		.4byte	0x35b
 1295 0411 38       		.byte	0x38
 1296 0412 11       		.uleb128 0x11
 1297 0413 5F757200 		.ascii	"_ur\000"
 1298 0417 07       		.byte	0x7
 1299 0418 D0       		.byte	0xd0
 1300 0419 A2000000 		.4byte	0xa2
 1301 041d 3C       		.byte	0x3c
 1302 041e 0E       		.uleb128 0xe
 1303 041f DE000000 		.4byte	.LASF68
 1304 0423 07       		.byte	0x7
 1305 0424 D3       		.byte	0xd3
 1306 0425 54060000 		.4byte	0x654
 1307 0429 40       		.byte	0x40
 1308 042a 0E       		.uleb128 0xe
 1309 042b 7D070000 		.4byte	.LASF69
 1310 042f 07       		.byte	0x7
 1311 0430 D4       		.byte	0xd4
ARM GAS  C:\Users\Grillmo\AppData\Local\Temp\ccEAP0ji.s 			page 24


 1312 0431 64060000 		.4byte	0x664
 1313 0435 43       		.byte	0x43
 1314 0436 11       		.uleb128 0x11
 1315 0437 5F6C6200 		.ascii	"_lb\000"
 1316 043b 07       		.byte	0x7
 1317 043c D7       		.byte	0xd7
 1318 043d 36030000 		.4byte	0x336
 1319 0441 44       		.byte	0x44
 1320 0442 0E       		.uleb128 0xe
 1321 0443 44010000 		.4byte	.LASF70
 1322 0447 07       		.byte	0x7
 1323 0448 DA       		.byte	0xda
 1324 0449 A2000000 		.4byte	0xa2
 1325 044d 4C       		.byte	0x4c
 1326 044e 0E       		.uleb128 0xe
 1327 044f 79010000 		.4byte	.LASF71
 1328 0453 07       		.byte	0x7
 1329 0454 DB       		.byte	0xdb
 1330 0455 FB000000 		.4byte	0xfb
 1331 0459 50       		.byte	0x50
 1332 045a 0E       		.uleb128 0xe
 1333 045b 35000000 		.4byte	.LASF72
 1334 045f 07       		.byte	0x7
 1335 0460 DE       		.byte	0xde
 1336 0461 A9040000 		.4byte	0x4a9
 1337 0465 54       		.byte	0x54
 1338 0466 0E       		.uleb128 0xe
 1339 0467 0A040000 		.4byte	.LASF73
 1340 046b 07       		.byte	0x7
 1341 046c E2       		.byte	0xe2
 1342 046d 7F010000 		.4byte	0x17f
 1343 0471 58       		.byte	0x58
 1344 0472 0E       		.uleb128 0xe
 1345 0473 57050000 		.4byte	.LASF74
 1346 0477 07       		.byte	0x7
 1347 0478 E4       		.byte	0xe4
 1348 0479 74010000 		.4byte	0x174
 1349 047d 5C       		.byte	0x5c
 1350 047e 0E       		.uleb128 0xe
 1351 047f 10040000 		.4byte	.LASF75
 1352 0483 07       		.byte	0x7
 1353 0484 E5       		.byte	0xe5
 1354 0485 A2000000 		.4byte	0xa2
 1355 0489 64       		.byte	0x64
 1356 048a 00       		.byte	0
 1357 048b 15       		.uleb128 0x15
 1358 048c A2000000 		.4byte	0xa2
 1359 0490 A9040000 		.4byte	0x4a9
 1360 0494 16       		.uleb128 0x16
 1361 0495 A9040000 		.4byte	0x4a9
 1362 0499 16       		.uleb128 0x16
 1363 049a 8A010000 		.4byte	0x18a
 1364 049e 16       		.uleb128 0x16
 1365 049f 8C010000 		.4byte	0x18c
 1366 04a3 16       		.uleb128 0x16
 1367 04a4 A2000000 		.4byte	0xa2
 1368 04a8 00       		.byte	0
ARM GAS  C:\Users\Grillmo\AppData\Local\Temp\ccEAP0ji.s 			page 25


 1369 04a9 06       		.uleb128 0x6
 1370 04aa 04       		.byte	0x4
 1371 04ab B4040000 		.4byte	0x4b4
 1372 04af 05       		.uleb128 0x5
 1373 04b0 A9040000 		.4byte	0x4a9
 1374 04b4 17       		.uleb128 0x17
 1375 04b5 BC050000 		.4byte	.LASF76
 1376 04b9 2804     		.2byte	0x428
 1377 04bb 07       		.byte	0x7
 1378 04bc 3902     		.2byte	0x239
 1379 04be E6050000 		.4byte	0x5e6
 1380 04c2 18       		.uleb128 0x18
 1381 04c3 01060000 		.4byte	.LASF77
 1382 04c7 07       		.byte	0x7
 1383 04c8 3B02     		.2byte	0x23b
 1384 04ca A2000000 		.4byte	0xa2
 1385 04ce 00       		.byte	0
 1386 04cf 18       		.uleb128 0x18
 1387 04d0 2F010000 		.4byte	.LASF78
 1388 04d4 07       		.byte	0x7
 1389 04d5 4002     		.2byte	0x240
 1390 04d7 BB060000 		.4byte	0x6bb
 1391 04db 04       		.byte	0x4
 1392 04dc 18       		.uleb128 0x18
 1393 04dd 39020000 		.4byte	.LASF79
 1394 04e1 07       		.byte	0x7
 1395 04e2 4002     		.2byte	0x240
 1396 04e4 BB060000 		.4byte	0x6bb
 1397 04e8 08       		.byte	0x8
 1398 04e9 18       		.uleb128 0x18
 1399 04ea D9010000 		.4byte	.LASF80
 1400 04ee 07       		.byte	0x7
 1401 04ef 4002     		.2byte	0x240
 1402 04f1 BB060000 		.4byte	0x6bb
 1403 04f5 0C       		.byte	0xc
 1404 04f6 18       		.uleb128 0x18
 1405 04f7 7F050000 		.4byte	.LASF81
 1406 04fb 07       		.byte	0x7
 1407 04fc 4202     		.2byte	0x242
 1408 04fe A2000000 		.4byte	0xa2
 1409 0502 10       		.byte	0x10
 1410 0503 18       		.uleb128 0x18
 1411 0504 20000000 		.4byte	.LASF82
 1412 0508 07       		.byte	0x7
 1413 0509 4302     		.2byte	0x243
 1414 050b 9D080000 		.4byte	0x89d
 1415 050f 14       		.byte	0x14
 1416 0510 18       		.uleb128 0x18
 1417 0511 9B050000 		.4byte	.LASF83
 1418 0515 07       		.byte	0x7
 1419 0516 4602     		.2byte	0x246
 1420 0518 A2000000 		.4byte	0xa2
 1421 051c 30       		.byte	0x30
 1422 051d 18       		.uleb128 0x18
 1423 051e 89050000 		.4byte	.LASF84
 1424 0522 07       		.byte	0x7
 1425 0523 4702     		.2byte	0x247
ARM GAS  C:\Users\Grillmo\AppData\Local\Temp\ccEAP0ji.s 			page 26


 1426 0525 B2080000 		.4byte	0x8b2
 1427 0529 34       		.byte	0x34
 1428 052a 18       		.uleb128 0x18
 1429 052b 93040000 		.4byte	.LASF85
 1430 052f 07       		.byte	0x7
 1431 0530 4902     		.2byte	0x249
 1432 0532 A2000000 		.4byte	0xa2
 1433 0536 38       		.byte	0x38
 1434 0537 18       		.uleb128 0x18
 1435 0538 91050000 		.4byte	.LASF86
 1436 053c 07       		.byte	0x7
 1437 053d 4B02     		.2byte	0x24b
 1438 053f C3080000 		.4byte	0x8c3
 1439 0543 3C       		.byte	0x3c
 1440 0544 18       		.uleb128 0x18
 1441 0545 E6030000 		.4byte	.LASF87
 1442 0549 07       		.byte	0x7
 1443 054a 4E02     		.2byte	0x24e
 1444 054c FC010000 		.4byte	0x1fc
 1445 0550 40       		.byte	0x40
 1446 0551 18       		.uleb128 0x18
 1447 0552 FE010000 		.4byte	.LASF88
 1448 0556 07       		.byte	0x7
 1449 0557 4F02     		.2byte	0x24f
 1450 0559 A2000000 		.4byte	0xa2
 1451 055d 44       		.byte	0x44
 1452 055e 18       		.uleb128 0x18
 1453 055f BF070000 		.4byte	.LASF89
 1454 0563 07       		.byte	0x7
 1455 0564 5002     		.2byte	0x250
 1456 0566 FC010000 		.4byte	0x1fc
 1457 056a 48       		.byte	0x48
 1458 056b 18       		.uleb128 0x18
 1459 056c BA040000 		.4byte	.LASF90
 1460 0570 07       		.byte	0x7
 1461 0571 5102     		.2byte	0x251
 1462 0573 C9080000 		.4byte	0x8c9
 1463 0577 4C       		.byte	0x4c
 1464 0578 18       		.uleb128 0x18
 1465 0579 41020000 		.4byte	.LASF91
 1466 057d 07       		.byte	0x7
 1467 057e 5402     		.2byte	0x254
 1468 0580 A2000000 		.4byte	0xa2
 1469 0584 50       		.byte	0x50
 1470 0585 18       		.uleb128 0x18
 1471 0586 71010000 		.4byte	.LASF92
 1472 058a 07       		.byte	0x7
 1473 058b 5502     		.2byte	0x255
 1474 058d 8C010000 		.4byte	0x18c
 1475 0591 54       		.byte	0x54
 1476 0592 18       		.uleb128 0x18
 1477 0593 0E050000 		.4byte	.LASF93
 1478 0597 07       		.byte	0x7
 1479 0598 7802     		.2byte	0x278
 1480 059a 7B080000 		.4byte	0x87b
 1481 059e 58       		.byte	0x58
 1482 059f 19       		.uleb128 0x19
ARM GAS  C:\Users\Grillmo\AppData\Local\Temp\ccEAP0ji.s 			page 27


 1483 05a0 8B040000 		.4byte	.LASF53
 1484 05a4 07       		.byte	0x7
 1485 05a5 7C02     		.2byte	0x27c
 1486 05a7 19030000 		.4byte	0x319
 1487 05ab 4801     		.2byte	0x148
 1488 05ad 19       		.uleb128 0x19
 1489 05ae C4030000 		.4byte	.LASF94
 1490 05b2 07       		.byte	0x7
 1491 05b3 7D02     		.2byte	0x27d
 1492 05b5 DB020000 		.4byte	0x2db
 1493 05b9 4C01     		.2byte	0x14c
 1494 05bb 19       		.uleb128 0x19
 1495 05bc 40070000 		.4byte	.LASF95
 1496 05c0 07       		.byte	0x7
 1497 05c1 8102     		.2byte	0x281
 1498 05c3 DA080000 		.4byte	0x8da
 1499 05c7 DC02     		.2byte	0x2dc
 1500 05c9 19       		.uleb128 0x19
 1501 05ca 0F010000 		.4byte	.LASF96
 1502 05ce 07       		.byte	0x7
 1503 05cf 8602     		.2byte	0x286
 1504 05d1 80060000 		.4byte	0x680
 1505 05d5 E002     		.2byte	0x2e0
 1506 05d7 19       		.uleb128 0x19
 1507 05d8 F4000000 		.4byte	.LASF97
 1508 05dc 07       		.byte	0x7
 1509 05dd 8702     		.2byte	0x287
 1510 05df E6080000 		.4byte	0x8e6
 1511 05e3 EC02     		.2byte	0x2ec
 1512 05e5 00       		.byte	0
 1513 05e6 06       		.uleb128 0x6
 1514 05e7 04       		.byte	0x4
 1515 05e8 8B040000 		.4byte	0x48b
 1516 05ec 15       		.uleb128 0x15
 1517 05ed A2000000 		.4byte	0xa2
 1518 05f1 0A060000 		.4byte	0x60a
 1519 05f5 16       		.uleb128 0x16
 1520 05f6 A9040000 		.4byte	0x4a9
 1521 05fa 16       		.uleb128 0x16
 1522 05fb 8A010000 		.4byte	0x18a
 1523 05ff 16       		.uleb128 0x16
 1524 0600 0A060000 		.4byte	0x60a
 1525 0604 16       		.uleb128 0x16
 1526 0605 A2000000 		.4byte	0xa2
 1527 0609 00       		.byte	0
 1528 060a 06       		.uleb128 0x6
 1529 060b 04       		.byte	0x4
 1530 060c 99010000 		.4byte	0x199
 1531 0610 06       		.uleb128 0x6
 1532 0611 04       		.byte	0x4
 1533 0612 EC050000 		.4byte	0x5ec
 1534 0616 15       		.uleb128 0x15
 1535 0617 06010000 		.4byte	0x106
 1536 061b 34060000 		.4byte	0x634
 1537 061f 16       		.uleb128 0x16
 1538 0620 A9040000 		.4byte	0x4a9
 1539 0624 16       		.uleb128 0x16
ARM GAS  C:\Users\Grillmo\AppData\Local\Temp\ccEAP0ji.s 			page 28


 1540 0625 8A010000 		.4byte	0x18a
 1541 0629 16       		.uleb128 0x16
 1542 062a 06010000 		.4byte	0x106
 1543 062e 16       		.uleb128 0x16
 1544 062f A2000000 		.4byte	0xa2
 1545 0633 00       		.byte	0
 1546 0634 06       		.uleb128 0x6
 1547 0635 04       		.byte	0x4
 1548 0636 16060000 		.4byte	0x616
 1549 063a 15       		.uleb128 0x15
 1550 063b A2000000 		.4byte	0xa2
 1551 063f 4E060000 		.4byte	0x64e
 1552 0643 16       		.uleb128 0x16
 1553 0644 A9040000 		.4byte	0x4a9
 1554 0648 16       		.uleb128 0x16
 1555 0649 8A010000 		.4byte	0x18a
 1556 064d 00       		.byte	0
 1557 064e 06       		.uleb128 0x6
 1558 064f 04       		.byte	0x4
 1559 0650 3A060000 		.4byte	0x63a
 1560 0654 0B       		.uleb128 0xb
 1561 0655 45000000 		.4byte	0x45
 1562 0659 64060000 		.4byte	0x664
 1563 065d 0C       		.uleb128 0xc
 1564 065e 4C010000 		.4byte	0x14c
 1565 0662 02       		.byte	0x2
 1566 0663 00       		.byte	0
 1567 0664 0B       		.uleb128 0xb
 1568 0665 45000000 		.4byte	0x45
 1569 0669 74060000 		.4byte	0x674
 1570 066d 0C       		.uleb128 0xc
 1571 066e 4C010000 		.4byte	0x14c
 1572 0672 00       		.byte	0
 1573 0673 00       		.byte	0
 1574 0674 08       		.uleb128 0x8
 1575 0675 3D050000 		.4byte	.LASF98
 1576 0679 07       		.byte	0x7
 1577 067a 1F01     		.2byte	0x11f
 1578 067c 61030000 		.4byte	0x361
 1579 0680 1A       		.uleb128 0x1a
 1580 0681 FD060000 		.4byte	.LASF99
 1581 0685 0C       		.byte	0xc
 1582 0686 07       		.byte	0x7
 1583 0687 2301     		.2byte	0x123
 1584 0689 B5060000 		.4byte	0x6b5
 1585 068d 18       		.uleb128 0x18
 1586 068e 71060000 		.4byte	.LASF33
 1587 0692 07       		.byte	0x7
 1588 0693 2501     		.2byte	0x125
 1589 0695 B5060000 		.4byte	0x6b5
 1590 0699 00       		.byte	0
 1591 069a 18       		.uleb128 0x18
 1592 069b AA030000 		.4byte	.LASF100
 1593 069f 07       		.byte	0x7
 1594 06a0 2601     		.2byte	0x126
 1595 06a2 A2000000 		.4byte	0xa2
 1596 06a6 04       		.byte	0x4
ARM GAS  C:\Users\Grillmo\AppData\Local\Temp\ccEAP0ji.s 			page 29


 1597 06a7 18       		.uleb128 0x18
 1598 06a8 37050000 		.4byte	.LASF101
 1599 06ac 07       		.byte	0x7
 1600 06ad 2701     		.2byte	0x127
 1601 06af BB060000 		.4byte	0x6bb
 1602 06b3 08       		.byte	0x8
 1603 06b4 00       		.byte	0
 1604 06b5 06       		.uleb128 0x6
 1605 06b6 04       		.byte	0x4
 1606 06b7 80060000 		.4byte	0x680
 1607 06bb 06       		.uleb128 0x6
 1608 06bc 04       		.byte	0x4
 1609 06bd 74060000 		.4byte	0x674
 1610 06c1 1A       		.uleb128 0x1a
 1611 06c2 18000000 		.4byte	.LASF102
 1612 06c6 0E       		.byte	0xe
 1613 06c7 07       		.byte	0x7
 1614 06c8 3F01     		.2byte	0x13f
 1615 06ca F6060000 		.4byte	0x6f6
 1616 06ce 18       		.uleb128 0x18
 1617 06cf C3050000 		.4byte	.LASF103
 1618 06d3 07       		.byte	0x7
 1619 06d4 4001     		.2byte	0x140
 1620 06d6 F6060000 		.4byte	0x6f6
 1621 06da 00       		.byte	0
 1622 06db 18       		.uleb128 0x18
 1623 06dc 6B060000 		.4byte	.LASF104
 1624 06e0 07       		.byte	0x7
 1625 06e1 4101     		.2byte	0x141
 1626 06e3 F6060000 		.4byte	0x6f6
 1627 06e7 06       		.byte	0x6
 1628 06e8 18       		.uleb128 0x18
 1629 06e9 95060000 		.4byte	.LASF105
 1630 06ed 07       		.byte	0x7
 1631 06ee 4201     		.2byte	0x142
 1632 06f0 69000000 		.4byte	0x69
 1633 06f4 0C       		.byte	0xc
 1634 06f5 00       		.byte	0
 1635 06f6 0B       		.uleb128 0xb
 1636 06f7 69000000 		.4byte	0x69
 1637 06fb 06070000 		.4byte	0x706
 1638 06ff 0C       		.uleb128 0xc
 1639 0700 4C010000 		.4byte	0x14c
 1640 0704 02       		.byte	0x2
 1641 0705 00       		.byte	0
 1642 0706 1B       		.uleb128 0x1b
 1643 0707 D0       		.byte	0xd0
 1644 0708 07       		.byte	0x7
 1645 0709 5902     		.2byte	0x259
 1646 070b 07080000 		.4byte	0x807
 1647 070f 18       		.uleb128 0x18
 1648 0710 E1060000 		.4byte	.LASF106
 1649 0714 07       		.byte	0x7
 1650 0715 5B02     		.2byte	0x25b
 1651 0717 2C000000 		.4byte	0x2c
 1652 071b 00       		.byte	0
 1653 071c 18       		.uleb128 0x18
ARM GAS  C:\Users\Grillmo\AppData\Local\Temp\ccEAP0ji.s 			page 30


 1654 071d 77060000 		.4byte	.LASF107
 1655 0721 07       		.byte	0x7
 1656 0722 5C02     		.2byte	0x25c
 1657 0724 8C010000 		.4byte	0x18c
 1658 0728 04       		.byte	0x4
 1659 0729 18       		.uleb128 0x18
 1660 072a D9030000 		.4byte	.LASF108
 1661 072e 07       		.byte	0x7
 1662 072f 5D02     		.2byte	0x25d
 1663 0731 07080000 		.4byte	0x807
 1664 0735 08       		.byte	0x8
 1665 0736 18       		.uleb128 0x18
 1666 0737 96070000 		.4byte	.LASF109
 1667 073b 07       		.byte	0x7
 1668 073c 5E02     		.2byte	0x25e
 1669 073e 12020000 		.4byte	0x212
 1670 0742 24       		.byte	0x24
 1671 0743 18       		.uleb128 0x18
 1672 0744 E9010000 		.4byte	.LASF110
 1673 0748 07       		.byte	0x7
 1674 0749 5F02     		.2byte	0x25f
 1675 074b A2000000 		.4byte	0xa2
 1676 074f 48       		.byte	0x48
 1677 0750 18       		.uleb128 0x18
 1678 0751 60050000 		.4byte	.LASF111
 1679 0755 07       		.byte	0x7
 1680 0756 6002     		.2byte	0x260
 1681 0758 9B000000 		.4byte	0x9b
 1682 075c 50       		.byte	0x50
 1683 075d 18       		.uleb128 0x18
 1684 075e AC070000 		.4byte	.LASF112
 1685 0762 07       		.byte	0x7
 1686 0763 6102     		.2byte	0x261
 1687 0765 C1060000 		.4byte	0x6c1
 1688 0769 58       		.byte	0x58
 1689 076a 18       		.uleb128 0x18
 1690 076b 72050000 		.4byte	.LASF113
 1691 076f 07       		.byte	0x7
 1692 0770 6202     		.2byte	0x262
 1693 0772 74010000 		.4byte	0x174
 1694 0776 68       		.byte	0x68
 1695 0777 18       		.uleb128 0x18
 1696 0778 B1070000 		.4byte	.LASF114
 1697 077c 07       		.byte	0x7
 1698 077d 6302     		.2byte	0x263
 1699 077f 74010000 		.4byte	0x174
 1700 0783 70       		.byte	0x70
 1701 0784 18       		.uleb128 0x18
 1702 0785 C4040000 		.4byte	.LASF115
 1703 0789 07       		.byte	0x7
 1704 078a 6402     		.2byte	0x264
 1705 078c 74010000 		.4byte	0x174
 1706 0790 78       		.byte	0x78
 1707 0791 18       		.uleb128 0x18
 1708 0792 36070000 		.4byte	.LASF116
 1709 0796 07       		.byte	0x7
 1710 0797 6502     		.2byte	0x265
ARM GAS  C:\Users\Grillmo\AppData\Local\Temp\ccEAP0ji.s 			page 31


 1711 0799 17080000 		.4byte	0x817
 1712 079d 80       		.byte	0x80
 1713 079e 18       		.uleb128 0x18
 1714 079f CD030000 		.4byte	.LASF117
 1715 07a3 07       		.byte	0x7
 1716 07a4 6602     		.2byte	0x266
 1717 07a6 27080000 		.4byte	0x827
 1718 07aa 88       		.byte	0x88
 1719 07ab 18       		.uleb128 0x18
 1720 07ac A2060000 		.4byte	.LASF118
 1721 07b0 07       		.byte	0x7
 1722 07b1 6702     		.2byte	0x267
 1723 07b3 A2000000 		.4byte	0xa2
 1724 07b7 A0       		.byte	0xa0
 1725 07b8 18       		.uleb128 0x18
 1726 07b9 92010000 		.4byte	.LASF119
 1727 07bd 07       		.byte	0x7
 1728 07be 6802     		.2byte	0x268
 1729 07c0 74010000 		.4byte	0x174
 1730 07c4 A4       		.byte	0xa4
 1731 07c5 18       		.uleb128 0x18
 1732 07c6 A4000000 		.4byte	.LASF120
 1733 07ca 07       		.byte	0x7
 1734 07cb 6902     		.2byte	0x269
 1735 07cd 74010000 		.4byte	0x174
 1736 07d1 AC       		.byte	0xac
 1737 07d2 18       		.uleb128 0x18
 1738 07d3 81010000 		.4byte	.LASF121
 1739 07d7 07       		.byte	0x7
 1740 07d8 6A02     		.2byte	0x26a
 1741 07da 74010000 		.4byte	0x174
 1742 07de B4       		.byte	0xb4
 1743 07df 18       		.uleb128 0x18
 1744 07e0 3B000000 		.4byte	.LASF122
 1745 07e4 07       		.byte	0x7
 1746 07e5 6B02     		.2byte	0x26b
 1747 07e7 74010000 		.4byte	0x174
 1748 07eb BC       		.byte	0xbc
 1749 07ec 18       		.uleb128 0x18
 1750 07ed 4A000000 		.4byte	.LASF123
 1751 07f1 07       		.byte	0x7
 1752 07f2 6C02     		.2byte	0x26c
 1753 07f4 74010000 		.4byte	0x174
 1754 07f8 C4       		.byte	0xc4
 1755 07f9 18       		.uleb128 0x18
 1756 07fa 13050000 		.4byte	.LASF124
 1757 07fe 07       		.byte	0x7
 1758 07ff 6D02     		.2byte	0x26d
 1759 0801 A2000000 		.4byte	0xa2
 1760 0805 CC       		.byte	0xcc
 1761 0806 00       		.byte	0
 1762 0807 0B       		.uleb128 0xb
 1763 0808 92010000 		.4byte	0x192
 1764 080c 17080000 		.4byte	0x817
 1765 0810 0C       		.uleb128 0xc
 1766 0811 4C010000 		.4byte	0x14c
 1767 0815 19       		.byte	0x19
ARM GAS  C:\Users\Grillmo\AppData\Local\Temp\ccEAP0ji.s 			page 32


 1768 0816 00       		.byte	0
 1769 0817 0B       		.uleb128 0xb
 1770 0818 92010000 		.4byte	0x192
 1771 081c 27080000 		.4byte	0x827
 1772 0820 0C       		.uleb128 0xc
 1773 0821 4C010000 		.4byte	0x14c
 1774 0825 07       		.byte	0x7
 1775 0826 00       		.byte	0
 1776 0827 0B       		.uleb128 0xb
 1777 0828 92010000 		.4byte	0x192
 1778 082c 37080000 		.4byte	0x837
 1779 0830 0C       		.uleb128 0xc
 1780 0831 4C010000 		.4byte	0x14c
 1781 0835 17       		.byte	0x17
 1782 0836 00       		.byte	0
 1783 0837 1B       		.uleb128 0x1b
 1784 0838 F0       		.byte	0xf0
 1785 0839 07       		.byte	0x7
 1786 083a 7202     		.2byte	0x272
 1787 083c 5B080000 		.4byte	0x85b
 1788 0840 18       		.uleb128 0x18
 1789 0841 4E040000 		.4byte	.LASF125
 1790 0845 07       		.byte	0x7
 1791 0846 7502     		.2byte	0x275
 1792 0848 5B080000 		.4byte	0x85b
 1793 084c 00       		.byte	0
 1794 084d 18       		.uleb128 0x18
 1795 084e 29040000 		.4byte	.LASF126
 1796 0852 07       		.byte	0x7
 1797 0853 7602     		.2byte	0x276
 1798 0855 6B080000 		.4byte	0x86b
 1799 0859 78       		.byte	0x78
 1800 085a 00       		.byte	0
 1801 085b 0B       		.uleb128 0xb
 1802 085c 5B030000 		.4byte	0x35b
 1803 0860 6B080000 		.4byte	0x86b
 1804 0864 0C       		.uleb128 0xc
 1805 0865 4C010000 		.4byte	0x14c
 1806 0869 1D       		.byte	0x1d
 1807 086a 00       		.byte	0
 1808 086b 0B       		.uleb128 0xb
 1809 086c 2C000000 		.4byte	0x2c
 1810 0870 7B080000 		.4byte	0x87b
 1811 0874 0C       		.uleb128 0xc
 1812 0875 4C010000 		.4byte	0x14c
 1813 0879 1D       		.byte	0x1d
 1814 087a 00       		.byte	0
 1815 087b 1C       		.uleb128 0x1c
 1816 087c F0       		.byte	0xf0
 1817 087d 07       		.byte	0x7
 1818 087e 5702     		.2byte	0x257
 1819 0880 9D080000 		.4byte	0x89d
 1820 0884 1D       		.uleb128 0x1d
 1821 0885 BC050000 		.4byte	.LASF76
 1822 0889 07       		.byte	0x7
 1823 088a 6E02     		.2byte	0x26e
 1824 088c 06070000 		.4byte	0x706
ARM GAS  C:\Users\Grillmo\AppData\Local\Temp\ccEAP0ji.s 			page 33


 1825 0890 1D       		.uleb128 0x1d
 1826 0891 83070000 		.4byte	.LASF127
 1827 0895 07       		.byte	0x7
 1828 0896 7702     		.2byte	0x277
 1829 0898 37080000 		.4byte	0x837
 1830 089c 00       		.byte	0
 1831 089d 0B       		.uleb128 0xb
 1832 089e 92010000 		.4byte	0x192
 1833 08a2 AD080000 		.4byte	0x8ad
 1834 08a6 0C       		.uleb128 0xc
 1835 08a7 4C010000 		.4byte	0x14c
 1836 08ab 18       		.byte	0x18
 1837 08ac 00       		.byte	0
 1838 08ad 07       		.uleb128 0x7
 1839 08ae 8A000000 		.4byte	.LASF129
 1840 08b2 06       		.uleb128 0x6
 1841 08b3 04       		.byte	0x4
 1842 08b4 AD080000 		.4byte	0x8ad
 1843 08b8 1E       		.uleb128 0x1e
 1844 08b9 C3080000 		.4byte	0x8c3
 1845 08bd 16       		.uleb128 0x16
 1846 08be A9040000 		.4byte	0x4a9
 1847 08c2 00       		.byte	0
 1848 08c3 06       		.uleb128 0x6
 1849 08c4 04       		.byte	0x4
 1850 08c5 B8080000 		.4byte	0x8b8
 1851 08c9 06       		.uleb128 0x6
 1852 08ca 04       		.byte	0x4
 1853 08cb FC010000 		.4byte	0x1fc
 1854 08cf 1E       		.uleb128 0x1e
 1855 08d0 DA080000 		.4byte	0x8da
 1856 08d4 16       		.uleb128 0x16
 1857 08d5 A2000000 		.4byte	0xa2
 1858 08d9 00       		.byte	0
 1859 08da 06       		.uleb128 0x6
 1860 08db 04       		.byte	0x4
 1861 08dc E0080000 		.4byte	0x8e0
 1862 08e0 06       		.uleb128 0x6
 1863 08e1 04       		.byte	0x4
 1864 08e2 CF080000 		.4byte	0x8cf
 1865 08e6 0B       		.uleb128 0xb
 1866 08e7 74060000 		.4byte	0x674
 1867 08eb F6080000 		.4byte	0x8f6
 1868 08ef 0C       		.uleb128 0xc
 1869 08f0 4C010000 		.4byte	0x14c
 1870 08f4 02       		.byte	0x2
 1871 08f5 00       		.byte	0
 1872 08f6 1F       		.uleb128 0x1f
 1873 08f7 E7050000 		.4byte	.LASF130
 1874 08fb 07       		.byte	0x7
 1875 08fc FE02     		.2byte	0x2fe
 1876 08fe A9040000 		.4byte	0x4a9
 1877 0902 1F       		.uleb128 0x1f
 1878 0903 C0060000 		.4byte	.LASF131
 1879 0907 07       		.byte	0x7
 1880 0908 FF02     		.2byte	0x2ff
 1881 090a AF040000 		.4byte	0x4af
ARM GAS  C:\Users\Grillmo\AppData\Local\Temp\ccEAP0ji.s 			page 34


 1882 090e 02       		.uleb128 0x2
 1883 090f 08       		.byte	0x8
 1884 0910 04       		.byte	0x4
 1885 0911 6A010000 		.4byte	.LASF132
 1886 0915 02       		.uleb128 0x2
 1887 0916 08       		.byte	0x8
 1888 0917 04       		.byte	0x4
 1889 0918 3B040000 		.4byte	.LASF133
 1890 091c 20       		.uleb128 0x20
 1891 091d AF060000 		.4byte	.LASF163
 1892 0921 01       		.byte	0x1
 1893 0922 33000000 		.4byte	0x33
 1894 0926 08       		.byte	0x8
 1895 0927 9902     		.2byte	0x299
 1896 0929 46090000 		.4byte	0x946
 1897 092d 21       		.uleb128 0x21
 1898 092e D3060000 		.4byte	.LASF134
 1899 0932 7F       		.sleb128 -1
 1900 0933 22       		.uleb128 0x22
 1901 0934 36010000 		.4byte	.LASF135
 1902 0938 00       		.byte	0
 1903 0939 22       		.uleb128 0x22
 1904 093a 95000000 		.4byte	.LASF136
 1905 093e 01       		.byte	0x1
 1906 093f 22       		.uleb128 0x22
 1907 0940 72000000 		.4byte	.LASF137
 1908 0944 02       		.byte	0x2
 1909 0945 00       		.byte	0
 1910 0946 1F       		.uleb128 0x1f
 1911 0947 1E070000 		.4byte	.LASF138
 1912 094b 08       		.byte	0x8
 1913 094c A402     		.2byte	0x2a4
 1914 094e 1C090000 		.4byte	0x91c
 1915 0952 23       		.uleb128 0x23
 1916 0953 08020000 		.4byte	.LASF143
 1917 0957 01       		.byte	0x1
 1918 0958 9B       		.byte	0x9b
 1919 0959 25000000 		.4byte	0x25
 1920 095d 00000000 		.4byte	.LFB13
 1921 0961 48000000 		.4byte	.LFE13-.LFB13
 1922 0965 01       		.uleb128 0x1
 1923 0966 9C       		.byte	0x9c
 1924 0967 F7090000 		.4byte	0x9f7
 1925 096b 24       		.uleb128 0x24
 1926 096c 6B050000 		.4byte	.LASF139
 1927 0970 01       		.byte	0x1
 1928 0971 9B       		.byte	0x9b
 1929 0972 F7090000 		.4byte	0x9f7
 1930 0976 00000000 		.4byte	.LLST25
 1931 097a 24       		.uleb128 0x24
 1932 097b 3C060000 		.4byte	.LASF140
 1933 097f 01       		.byte	0x1
 1934 0980 9B       		.byte	0x9b
 1935 0981 FD090000 		.4byte	0x9fd
 1936 0985 21000000 		.4byte	.LLST26
 1937 0989 25       		.uleb128 0x25
 1938 098a 72657300 		.ascii	"res\000"
ARM GAS  C:\Users\Grillmo\AppData\Local\Temp\ccEAP0ji.s 			page 35


 1939 098e 01       		.byte	0x1
 1940 098f 9C       		.byte	0x9c
 1941 0990 DA000000 		.4byte	0xda
 1942 0994 4D000000 		.4byte	.LLST27
 1943 0998 25       		.uleb128 0x25
 1944 0999 6500     		.ascii	"e\000"
 1945 099b 01       		.byte	0x1
 1946 099c 9E       		.byte	0x9e
 1947 099d A2000000 		.4byte	0xa2
 1948 09a1 6B000000 		.4byte	.LLST28
 1949 09a5 26       		.uleb128 0x26
 1950 09a6 85040000 		.4byte	.LASF141
 1951 09aa 01       		.byte	0x1
 1952 09ab 9F       		.byte	0x9f
 1953 09ac DA000000 		.4byte	0xda
 1954 09b0 94000000 		.4byte	.LLST29
 1955 09b4 25       		.uleb128 0x25
 1956 09b5 6E656700 		.ascii	"neg\000"
 1957 09b9 01       		.byte	0x1
 1958 09ba A0       		.byte	0xa0
 1959 09bb 030A0000 		.4byte	0xa03
 1960 09bf B2000000 		.4byte	.LLST30
 1961 09c3 25       		.uleb128 0x25
 1962 09c4 73696700 		.ascii	"sig\000"
 1963 09c8 01       		.byte	0x1
 1964 09c9 A2       		.byte	0xa2
 1965 09ca 25000000 		.4byte	0x25
 1966 09ce D8000000 		.4byte	.LLST31
 1967 09d2 27       		.uleb128 0x27
 1968 09d3 06000000 		.4byte	.LVL46
 1969 09d7 D80A0000 		.4byte	0xad8
 1970 09db ED090000 		.4byte	0x9ed
 1971 09df 28       		.uleb128 0x28
 1972 09e0 01       		.uleb128 0x1
 1973 09e1 50       		.byte	0x50
 1974 09e2 03       		.uleb128 0x3
 1975 09e3 F3       		.byte	0xf3
 1976 09e4 01       		.uleb128 0x1
 1977 09e5 50       		.byte	0x50
 1978 09e6 28       		.uleb128 0x28
 1979 09e7 01       		.uleb128 0x1
 1980 09e8 51       		.byte	0x51
 1981 09e9 02       		.uleb128 0x2
 1982 09ea 71       		.byte	0x71
 1983 09eb 00       		.sleb128 0
 1984 09ec 00       		.byte	0
 1985 09ed 29       		.uleb128 0x29
 1986 09ee 3A000000 		.4byte	.LVL54
 1987 09f2 BF0E0000 		.4byte	0xebf
 1988 09f6 00       		.byte	0
 1989 09f7 06       		.uleb128 0x6
 1990 09f8 04       		.byte	0x4
 1991 09f9 B4000000 		.4byte	0xb4
 1992 09fd 06       		.uleb128 0x6
 1993 09fe 04       		.byte	0x4
 1994 09ff CF000000 		.4byte	0xcf
 1995 0a03 02       		.uleb128 0x2
ARM GAS  C:\Users\Grillmo\AppData\Local\Temp\ccEAP0ji.s 			page 36


 1996 0a04 01       		.byte	0x1
 1997 0a05 02       		.byte	0x2
 1998 0a06 FB050000 		.4byte	.LASF142
 1999 0a0a 23       		.uleb128 0x23
 2000 0a0b 97030000 		.4byte	.LASF144
 2001 0a0f 01       		.byte	0x1
 2002 0a10 97       		.byte	0x97
 2003 0a11 25000000 		.4byte	0x25
 2004 0a15 00000000 		.4byte	.LFB12
 2005 0a19 14000000 		.4byte	.LFE12-.LFB12
 2006 0a1d 01       		.uleb128 0x1
 2007 0a1e 9C       		.byte	0x9c
 2008 0a1f 660A0000 		.4byte	0xa66
 2009 0a23 24       		.uleb128 0x24
 2010 0a24 6B050000 		.4byte	.LASF139
 2011 0a28 01       		.byte	0x1
 2012 0a29 97       		.byte	0x97
 2013 0a2a F7090000 		.4byte	0x9f7
 2014 0a2e 0C010000 		.4byte	.LLST23
 2015 0a32 24       		.uleb128 0x24
 2016 0a33 0C000000 		.4byte	.LASF145
 2017 0a37 01       		.byte	0x1
 2018 0a38 97       		.byte	0x97
 2019 0a39 25000000 		.4byte	0x25
 2020 0a3d 2D010000 		.4byte	.LLST24
 2021 0a41 2A       		.uleb128 0x2a
 2022 0a42 3C060000 		.4byte	.LASF140
 2023 0a46 01       		.byte	0x1
 2024 0a47 97       		.byte	0x97
 2025 0a48 FD090000 		.4byte	0x9fd
 2026 0a4c 01       		.uleb128 0x1
 2027 0a4d 51       		.byte	0x51
 2028 0a4e 2B       		.uleb128 0x2b
 2029 0a4f 06000000 		.4byte	.LVL43
 2030 0a53 1D0B0000 		.4byte	0xb1d
 2031 0a57 28       		.uleb128 0x28
 2032 0a58 01       		.uleb128 0x1
 2033 0a59 50       		.byte	0x50
 2034 0a5a 03       		.uleb128 0x3
 2035 0a5b F3       		.byte	0xf3
 2036 0a5c 01       		.uleb128 0x1
 2037 0a5d 50       		.byte	0x50
 2038 0a5e 28       		.uleb128 0x28
 2039 0a5f 01       		.uleb128 0x1
 2040 0a60 51       		.byte	0x51
 2041 0a61 02       		.uleb128 0x2
 2042 0a62 71       		.byte	0x71
 2043 0a63 00       		.sleb128 0
 2044 0a64 00       		.byte	0
 2045 0a65 00       		.byte	0
 2046 0a66 23       		.uleb128 0x23
 2047 0a67 15060000 		.4byte	.LASF146
 2048 0a6b 01       		.byte	0x1
 2049 0a6c 93       		.byte	0x93
 2050 0a6d 25000000 		.4byte	0x25
 2051 0a71 00000000 		.4byte	.LFB11
 2052 0a75 20000000 		.4byte	.LFE11-.LFB11
ARM GAS  C:\Users\Grillmo\AppData\Local\Temp\ccEAP0ji.s 			page 37


 2053 0a79 01       		.uleb128 0x1
 2054 0a7a 9C       		.byte	0x9c
 2055 0a7b D80A0000 		.4byte	0xad8
 2056 0a7f 24       		.uleb128 0x24
 2057 0a80 6B050000 		.4byte	.LASF139
 2058 0a84 01       		.byte	0x1
 2059 0a85 93       		.byte	0x93
 2060 0a86 F7090000 		.4byte	0x9f7
 2061 0a8a 51010000 		.4byte	.LLST19
 2062 0a8e 24       		.uleb128 0x24
 2063 0a8f 0C000000 		.4byte	.LASF145
 2064 0a93 01       		.byte	0x1
 2065 0a94 93       		.byte	0x93
 2066 0a95 25000000 		.4byte	0x25
 2067 0a99 72010000 		.4byte	.LLST20
 2068 0a9d 2A       		.uleb128 0x2a
 2069 0a9e 3C060000 		.4byte	.LASF140
 2070 0aa2 01       		.byte	0x1
 2071 0aa3 93       		.byte	0x93
 2072 0aa4 FD090000 		.4byte	0x9fd
 2073 0aa8 01       		.uleb128 0x1
 2074 0aa9 51       		.byte	0x51
 2075 0aaa 2C       		.uleb128 0x2c
 2076 0aab A70B0000 		.4byte	0xba7
 2077 0aaf 00000000 		.4byte	.LBB10
 2078 0ab3 18000000 		.4byte	.Ldebug_ranges0+0x18
 2079 0ab7 01       		.byte	0x1
 2080 0ab8 94       		.byte	0x94
 2081 0ab9 2D       		.uleb128 0x2d
 2082 0aba C20B0000 		.4byte	0xbc2
 2083 0abe 96010000 		.4byte	.LLST21
 2084 0ac2 2D       		.uleb128 0x2d
 2085 0ac3 B70B0000 		.4byte	0xbb7
 2086 0ac7 A9010000 		.4byte	.LLST22
 2087 0acb 2E       		.uleb128 0x2e
 2088 0acc 18000000 		.4byte	.Ldebug_ranges0+0x18
 2089 0ad0 2F       		.uleb128 0x2f
 2090 0ad1 B70E0000 		.4byte	0xeb7
 2091 0ad5 00       		.byte	0
 2092 0ad6 00       		.byte	0
 2093 0ad7 00       		.byte	0
 2094 0ad8 23       		.uleb128 0x23
 2095 0ad9 D2040000 		.4byte	.LASF147
 2096 0add 01       		.byte	0x1
 2097 0ade 8A       		.byte	0x8a
 2098 0adf DA000000 		.4byte	0xda
 2099 0ae3 00000000 		.4byte	.LFB10
 2100 0ae7 22000000 		.4byte	.LFE10-.LFB10
 2101 0aeb 01       		.uleb128 0x1
 2102 0aec 9C       		.byte	0x9c
 2103 0aed 1D0B0000 		.4byte	0xb1d
 2104 0af1 24       		.uleb128 0x24
 2105 0af2 6B050000 		.4byte	.LASF139
 2106 0af6 01       		.byte	0x1
 2107 0af7 8A       		.byte	0x8a
 2108 0af8 F7090000 		.4byte	0x9f7
 2109 0afc CA010000 		.4byte	.LLST17
ARM GAS  C:\Users\Grillmo\AppData\Local\Temp\ccEAP0ji.s 			page 38


 2110 0b00 2A       		.uleb128 0x2a
 2111 0b01 3C060000 		.4byte	.LASF140
 2112 0b05 01       		.byte	0x1
 2113 0b06 8A       		.byte	0x8a
 2114 0b07 FD090000 		.4byte	0x9fd
 2115 0b0b 01       		.uleb128 0x1
 2116 0b0c 51       		.byte	0x51
 2117 0b0d 25       		.uleb128 0x25
 2118 0b0e 72657300 		.ascii	"res\000"
 2119 0b12 01       		.byte	0x1
 2120 0b13 8B       		.byte	0x8b
 2121 0b14 DA000000 		.4byte	0xda
 2122 0b18 EB010000 		.4byte	.LLST18
 2123 0b1c 00       		.byte	0
 2124 0b1d 23       		.uleb128 0x23
 2125 0b1e A0010000 		.4byte	.LASF148
 2126 0b22 01       		.byte	0x1
 2127 0b23 81       		.byte	0x81
 2128 0b24 CF000000 		.4byte	0xcf
 2129 0b28 00000000 		.4byte	.LFB9
 2130 0b2c 22000000 		.4byte	.LFE9-.LFB9
 2131 0b30 01       		.uleb128 0x1
 2132 0b31 9C       		.byte	0x9c
 2133 0b32 620B0000 		.4byte	0xb62
 2134 0b36 24       		.uleb128 0x24
 2135 0b37 6B050000 		.4byte	.LASF139
 2136 0b3b 01       		.byte	0x1
 2137 0b3c 81       		.byte	0x81
 2138 0b3d F7090000 		.4byte	0x9f7
 2139 0b41 10020000 		.4byte	.LLST15
 2140 0b45 2A       		.uleb128 0x2a
 2141 0b46 3C060000 		.4byte	.LASF140
 2142 0b4a 01       		.byte	0x1
 2143 0b4b 81       		.byte	0x81
 2144 0b4c FD090000 		.4byte	0x9fd
 2145 0b50 01       		.uleb128 0x1
 2146 0b51 51       		.byte	0x51
 2147 0b52 25       		.uleb128 0x25
 2148 0b53 72657300 		.ascii	"res\000"
 2149 0b57 01       		.byte	0x1
 2150 0b58 82       		.byte	0x82
 2151 0b59 CF000000 		.4byte	0xcf
 2152 0b5d 31020000 		.4byte	.LLST16
 2153 0b61 00       		.byte	0
 2154 0b62 23       		.uleb128 0x23
 2155 0b63 61020000 		.4byte	.LASF149
 2156 0b67 01       		.byte	0x1
 2157 0b68 7A       		.byte	0x7a
 2158 0b69 C4000000 		.4byte	0xc4
 2159 0b6d 00000000 		.4byte	.LFB8
 2160 0b71 12000000 		.4byte	.LFE8-.LFB8
 2161 0b75 01       		.uleb128 0x1
 2162 0b76 9C       		.byte	0x9c
 2163 0b77 A70B0000 		.4byte	0xba7
 2164 0b7b 24       		.uleb128 0x24
 2165 0b7c 6B050000 		.4byte	.LASF139
 2166 0b80 01       		.byte	0x1
ARM GAS  C:\Users\Grillmo\AppData\Local\Temp\ccEAP0ji.s 			page 39


 2167 0b81 7A       		.byte	0x7a
 2168 0b82 F7090000 		.4byte	0x9f7
 2169 0b86 56020000 		.4byte	.LLST13
 2170 0b8a 2A       		.uleb128 0x2a
 2171 0b8b 3C060000 		.4byte	.LASF140
 2172 0b8f 01       		.byte	0x1
 2173 0b90 7A       		.byte	0x7a
 2174 0b91 FD090000 		.4byte	0x9fd
 2175 0b95 01       		.uleb128 0x1
 2176 0b96 51       		.byte	0x51
 2177 0b97 25       		.uleb128 0x25
 2178 0b98 72657300 		.ascii	"res\000"
 2179 0b9c 01       		.byte	0x1
 2180 0b9d 7B       		.byte	0x7b
 2181 0b9e C4000000 		.4byte	0xc4
 2182 0ba2 77020000 		.4byte	.LLST14
 2183 0ba6 00       		.byte	0
 2184 0ba7 30       		.uleb128 0x30
 2185 0ba8 6B040000 		.4byte	.LASF164
 2186 0bac 01       		.byte	0x1
 2187 0bad 73       		.byte	0x73
 2188 0bae B9000000 		.4byte	0xb9
 2189 0bb2 01       		.byte	0x1
 2190 0bb3 D90B0000 		.4byte	0xbd9
 2191 0bb7 31       		.uleb128 0x31
 2192 0bb8 6B050000 		.4byte	.LASF139
 2193 0bbc 01       		.byte	0x1
 2194 0bbd 73       		.byte	0x73
 2195 0bbe F7090000 		.4byte	0x9f7
 2196 0bc2 31       		.uleb128 0x31
 2197 0bc3 3C060000 		.4byte	.LASF140
 2198 0bc7 01       		.byte	0x1
 2199 0bc8 73       		.byte	0x73
 2200 0bc9 FD090000 		.4byte	0x9fd
 2201 0bcd 32       		.uleb128 0x32
 2202 0bce 72657300 		.ascii	"res\000"
 2203 0bd2 01       		.byte	0x1
 2204 0bd3 74       		.byte	0x74
 2205 0bd4 B9000000 		.4byte	0xb9
 2206 0bd8 00       		.byte	0
 2207 0bd9 33       		.uleb128 0x33
 2208 0bda 03070000 		.4byte	.LASF152
 2209 0bde 01       		.byte	0x1
 2210 0bdf 60       		.byte	0x60
 2211 0be0 00000000 		.4byte	.LFB6
 2212 0be4 78000000 		.4byte	.LFE6-.LFB6
 2213 0be8 01       		.uleb128 0x1
 2214 0be9 9C       		.byte	0x9c
 2215 0bea 9D0C0000 		.4byte	0xc9d
 2216 0bee 24       		.uleb128 0x24
 2217 0bef 6B050000 		.4byte	.LASF139
 2218 0bf3 01       		.byte	0x1
 2219 0bf4 60       		.byte	0x60
 2220 0bf5 9D0C0000 		.4byte	0xc9d
 2221 0bf9 91020000 		.4byte	.LLST6
 2222 0bfd 24       		.uleb128 0x24
 2223 0bfe F4030000 		.4byte	.LASF150
ARM GAS  C:\Users\Grillmo\AppData\Local\Temp\ccEAP0ji.s 			page 40


 2224 0c02 01       		.byte	0x1
 2225 0c03 60       		.byte	0x60
 2226 0c04 25000000 		.4byte	0x25
 2227 0c08 C5020000 		.4byte	.LLST7
 2228 0c0c 24       		.uleb128 0x24
 2229 0c0d 3C060000 		.4byte	.LASF140
 2230 0c11 01       		.byte	0x1
 2231 0c12 60       		.byte	0x60
 2232 0c13 FD090000 		.4byte	0x9fd
 2233 0c17 E9020000 		.4byte	.LLST8
 2234 0c1b 34       		.uleb128 0x34
 2235 0c1c 6500     		.ascii	"e\000"
 2236 0c1e 01       		.byte	0x1
 2237 0c1f 61       		.byte	0x61
 2238 0c20 A2000000 		.4byte	0xa2
 2239 0c24 02       		.uleb128 0x2
 2240 0c25 91       		.byte	0x91
 2241 0c26 6C       		.sleb128 -20
 2242 0c27 34       		.uleb128 0x34
 2243 0c28 73696700 		.ascii	"sig\000"
 2244 0c2c 01       		.byte	0x1
 2245 0c2d 62       		.byte	0x62
 2246 0c2e 25000000 		.4byte	0x25
 2247 0c32 02       		.uleb128 0x2
 2248 0c33 90       		.byte	0x90
 2249 0c34 40       		.uleb128 0x40
 2250 0c35 26       		.uleb128 0x26
 2251 0c36 0D060000 		.4byte	.LASF151
 2252 0c3a 01       		.byte	0x1
 2253 0c3b 63       		.byte	0x63
 2254 0c3c 25000000 		.4byte	0x25
 2255 0c40 1D030000 		.4byte	.LLST9
 2256 0c44 26       		.uleb128 0x26
 2257 0c45 85040000 		.4byte	.LASF141
 2258 0c49 01       		.byte	0x1
 2259 0c4a 64       		.byte	0x64
 2260 0c4b DA000000 		.4byte	0xda
 2261 0c4f 5B030000 		.4byte	.LLST10
 2262 0c53 25       		.uleb128 0x25
 2263 0c54 72657300 		.ascii	"res\000"
 2264 0c58 01       		.byte	0x1
 2265 0c59 6B       		.byte	0x6b
 2266 0c5a DA000000 		.4byte	0xda
 2267 0c5e C9030000 		.4byte	.LLST11
 2268 0c62 27       		.uleb128 0x27
 2269 0c63 16000000 		.4byte	.LVL14
 2270 0c67 CB0E0000 		.4byte	0xecb
 2271 0c6b 800C0000 		.4byte	0xc80
 2272 0c6f 28       		.uleb128 0x28
 2273 0c70 02       		.uleb128 0x2
 2274 0c71 90       		.byte	0x90
 2275 0c72 40       		.uleb128 0x40
 2276 0c73 05       		.uleb128 0x5
 2277 0c74 F3       		.byte	0xf3
 2278 0c75 03       		.uleb128 0x3
 2279 0c76 F5       		.byte	0xf5
 2280 0c77 40       		.uleb128 0x40
ARM GAS  C:\Users\Grillmo\AppData\Local\Temp\ccEAP0ji.s 			page 41


 2281 0c78 25       		.uleb128 0x25
 2282 0c79 28       		.uleb128 0x28
 2283 0c7a 01       		.uleb128 0x1
 2284 0c7b 50       		.byte	0x50
 2285 0c7c 02       		.uleb128 0x2
 2286 0c7d 91       		.byte	0x91
 2287 0c7e 6C       		.sleb128 -20
 2288 0c7f 00       		.byte	0
 2289 0c80 35       		.uleb128 0x35
 2290 0c81 50000000 		.4byte	.LVL20
 2291 0c85 860D0000 		.4byte	0xd86
 2292 0c89 28       		.uleb128 0x28
 2293 0c8a 01       		.uleb128 0x1
 2294 0c8b 50       		.byte	0x50
 2295 0c8c 02       		.uleb128 0x2
 2296 0c8d 70       		.byte	0x70
 2297 0c8e 00       		.sleb128 0
 2298 0c8f 28       		.uleb128 0x28
 2299 0c90 01       		.uleb128 0x1
 2300 0c91 51       		.byte	0x51
 2301 0c92 02       		.uleb128 0x2
 2302 0c93 71       		.byte	0x71
 2303 0c94 00       		.sleb128 0
 2304 0c95 28       		.uleb128 0x28
 2305 0c96 01       		.uleb128 0x1
 2306 0c97 52       		.byte	0x52
 2307 0c98 02       		.uleb128 0x2
 2308 0c99 72       		.byte	0x72
 2309 0c9a 00       		.sleb128 0
 2310 0c9b 00       		.byte	0
 2311 0c9c 00       		.byte	0
 2312 0c9d 06       		.uleb128 0x6
 2313 0c9e 04       		.byte	0x4
 2314 0c9f A9000000 		.4byte	0xa9
 2315 0ca3 33       		.uleb128 0x33
 2316 0ca4 4B060000 		.4byte	.LASF153
 2317 0ca8 01       		.byte	0x1
 2318 0ca9 34       		.byte	0x34
 2319 0caa 00000000 		.4byte	.LFB5
 2320 0cae 12000000 		.4byte	.LFE5-.LFB5
 2321 0cb2 01       		.uleb128 0x1
 2322 0cb3 9C       		.byte	0x9c
 2323 0cb4 0E0D0000 		.4byte	0xd0e
 2324 0cb8 2A       		.uleb128 0x2a
 2325 0cb9 6B050000 		.4byte	.LASF139
 2326 0cbd 01       		.byte	0x1
 2327 0cbe 34       		.byte	0x34
 2328 0cbf 9D0C0000 		.4byte	0xc9d
 2329 0cc3 01       		.uleb128 0x1
 2330 0cc4 50       		.byte	0x50
 2331 0cc5 2A       		.uleb128 0x2a
 2332 0cc6 F4030000 		.4byte	.LASF150
 2333 0cca 01       		.byte	0x1
 2334 0ccb 34       		.byte	0x34
 2335 0ccc 25000000 		.4byte	0x25
 2336 0cd0 02       		.uleb128 0x2
 2337 0cd1 90       		.byte	0x90
ARM GAS  C:\Users\Grillmo\AppData\Local\Temp\ccEAP0ji.s 			page 42


 2338 0cd2 40       		.uleb128 0x40
 2339 0cd3 24       		.uleb128 0x24
 2340 0cd4 0C000000 		.4byte	.LASF145
 2341 0cd8 01       		.byte	0x1
 2342 0cd9 34       		.byte	0x34
 2343 0cda 25000000 		.4byte	0x25
 2344 0cde DC030000 		.4byte	.LLST4
 2345 0ce2 24       		.uleb128 0x24
 2346 0ce3 3C060000 		.4byte	.LASF140
 2347 0ce7 01       		.byte	0x1
 2348 0ce8 34       		.byte	0x34
 2349 0ce9 FD090000 		.4byte	0x9fd
 2350 0ced 00040000 		.4byte	.LLST5
 2351 0cf1 35       		.uleb128 0x35
 2352 0cf2 12000000 		.4byte	.LVL11
 2353 0cf6 C30D0000 		.4byte	0xdc3
 2354 0cfa 28       		.uleb128 0x28
 2355 0cfb 01       		.uleb128 0x1
 2356 0cfc 50       		.byte	0x50
 2357 0cfd 02       		.uleb128 0x2
 2358 0cfe 70       		.byte	0x70
 2359 0cff 00       		.sleb128 0
 2360 0d00 28       		.uleb128 0x28
 2361 0d01 01       		.uleb128 0x1
 2362 0d02 51       		.byte	0x51
 2363 0d03 02       		.uleb128 0x2
 2364 0d04 71       		.byte	0x71
 2365 0d05 00       		.sleb128 0
 2366 0d06 28       		.uleb128 0x28
 2367 0d07 01       		.uleb128 0x1
 2368 0d08 52       		.byte	0x52
 2369 0d09 02       		.uleb128 0x2
 2370 0d0a 72       		.byte	0x72
 2371 0d0b 00       		.sleb128 0
 2372 0d0c 00       		.byte	0
 2373 0d0d 00       		.byte	0
 2374 0d0e 33       		.uleb128 0x33
 2375 0d0f 55040000 		.4byte	.LASF154
 2376 0d13 01       		.byte	0x1
 2377 0d14 30       		.byte	0x30
 2378 0d15 00000000 		.4byte	.LFB4
 2379 0d19 2C000000 		.4byte	.LFE4-.LFB4
 2380 0d1d 01       		.uleb128 0x1
 2381 0d1e 9C       		.byte	0x9c
 2382 0d1f 860D0000 		.4byte	0xd86
 2383 0d23 2A       		.uleb128 0x2a
 2384 0d24 6B050000 		.4byte	.LASF139
 2385 0d28 01       		.byte	0x1
 2386 0d29 30       		.byte	0x30
 2387 0d2a 9D0C0000 		.4byte	0xc9d
 2388 0d2e 01       		.uleb128 0x1
 2389 0d2f 50       		.byte	0x50
 2390 0d30 2A       		.uleb128 0x2a
 2391 0d31 F4030000 		.4byte	.LASF150
 2392 0d35 01       		.byte	0x1
 2393 0d36 30       		.byte	0x30
 2394 0d37 25000000 		.4byte	0x25
ARM GAS  C:\Users\Grillmo\AppData\Local\Temp\ccEAP0ji.s 			page 43


 2395 0d3b 02       		.uleb128 0x2
 2396 0d3c 90       		.byte	0x90
 2397 0d3d 40       		.uleb128 0x40
 2398 0d3e 24       		.uleb128 0x24
 2399 0d3f 0C000000 		.4byte	.LASF145
 2400 0d43 01       		.byte	0x1
 2401 0d44 30       		.byte	0x30
 2402 0d45 25000000 		.4byte	0x25
 2403 0d49 1E040000 		.4byte	.LLST0
 2404 0d4d 2A       		.uleb128 0x2a
 2405 0d4e 3C060000 		.4byte	.LASF140
 2406 0d52 01       		.byte	0x1
 2407 0d53 30       		.byte	0x30
 2408 0d54 FD090000 		.4byte	0x9fd
 2409 0d58 01       		.uleb128 0x1
 2410 0d59 51       		.byte	0x51
 2411 0d5a 2C       		.uleb128 0x2c
 2412 0d5b 3D0E0000 		.4byte	0xe3d
 2413 0d5f 0C000000 		.4byte	.LBB6
 2414 0d63 00000000 		.4byte	.Ldebug_ranges0+0
 2415 0d67 01       		.byte	0x1
 2416 0d68 31       		.byte	0x31
 2417 0d69 2D       		.uleb128 0x2d
 2418 0d6a 5F0E0000 		.4byte	0xe5f
 2419 0d6e 42040000 		.4byte	.LLST1
 2420 0d72 2D       		.uleb128 0x2d
 2421 0d73 540E0000 		.4byte	0xe54
 2422 0d77 55040000 		.4byte	.LLST2
 2423 0d7b 2D       		.uleb128 0x2d
 2424 0d7c 490E0000 		.4byte	0xe49
 2425 0d80 68040000 		.4byte	.LLST3
 2426 0d84 00       		.byte	0
 2427 0d85 00       		.byte	0
 2428 0d86 33       		.uleb128 0x33
 2429 0d87 68070000 		.4byte	.LASF155
 2430 0d8b 01       		.byte	0x1
 2431 0d8c 29       		.byte	0x29
 2432 0d8d 00000000 		.4byte	.LFB3
 2433 0d91 2C000000 		.4byte	.LFE3-.LFB3
 2434 0d95 01       		.uleb128 0x1
 2435 0d96 9C       		.byte	0x9c
 2436 0d97 C30D0000 		.4byte	0xdc3
 2437 0d9b 2A       		.uleb128 0x2a
 2438 0d9c 6B050000 		.4byte	.LASF139
 2439 0da0 01       		.byte	0x1
 2440 0da1 29       		.byte	0x29
 2441 0da2 9D0C0000 		.4byte	0xc9d
 2442 0da6 01       		.uleb128 0x1
 2443 0da7 50       		.byte	0x50
 2444 0da8 2A       		.uleb128 0x2a
 2445 0da9 F4030000 		.4byte	.LASF150
 2446 0dad 01       		.byte	0x1
 2447 0dae 29       		.byte	0x29
 2448 0daf DA000000 		.4byte	0xda
 2449 0db3 01       		.uleb128 0x1
 2450 0db4 51       		.byte	0x51
 2451 0db5 2A       		.uleb128 0x2a
ARM GAS  C:\Users\Grillmo\AppData\Local\Temp\ccEAP0ji.s 			page 44


 2452 0db6 3C060000 		.4byte	.LASF140
 2453 0dba 01       		.byte	0x1
 2454 0dbb 29       		.byte	0x29
 2455 0dbc FD090000 		.4byte	0x9fd
 2456 0dc0 01       		.uleb128 0x1
 2457 0dc1 52       		.byte	0x52
 2458 0dc2 00       		.byte	0
 2459 0dc3 33       		.uleb128 0x33
 2460 0dc4 4D010000 		.4byte	.LASF156
 2461 0dc8 01       		.byte	0x1
 2462 0dc9 22       		.byte	0x22
 2463 0dca 00000000 		.4byte	.LFB2
 2464 0dce 2C000000 		.4byte	.LFE2-.LFB2
 2465 0dd2 01       		.uleb128 0x1
 2466 0dd3 9C       		.byte	0x9c
 2467 0dd4 000E0000 		.4byte	0xe00
 2468 0dd8 2A       		.uleb128 0x2a
 2469 0dd9 6B050000 		.4byte	.LASF139
 2470 0ddd 01       		.byte	0x1
 2471 0dde 22       		.byte	0x22
 2472 0ddf 9D0C0000 		.4byte	0xc9d
 2473 0de3 01       		.uleb128 0x1
 2474 0de4 50       		.byte	0x50
 2475 0de5 2A       		.uleb128 0x2a
 2476 0de6 F4030000 		.4byte	.LASF150
 2477 0dea 01       		.byte	0x1
 2478 0deb 22       		.byte	0x22
 2479 0dec CF000000 		.4byte	0xcf
 2480 0df0 01       		.uleb128 0x1
 2481 0df1 51       		.byte	0x51
 2482 0df2 2A       		.uleb128 0x2a
 2483 0df3 3C060000 		.4byte	.LASF140
 2484 0df7 01       		.byte	0x1
 2485 0df8 22       		.byte	0x22
 2486 0df9 FD090000 		.4byte	0x9fd
 2487 0dfd 01       		.uleb128 0x1
 2488 0dfe 52       		.byte	0x52
 2489 0dff 00       		.byte	0
 2490 0e00 33       		.uleb128 0x33
 2491 0e01 4A070000 		.4byte	.LASF157
 2492 0e05 01       		.byte	0x1
 2493 0e06 1D       		.byte	0x1d
 2494 0e07 00000000 		.4byte	.LFB1
 2495 0e0b 18000000 		.4byte	.LFE1-.LFB1
 2496 0e0f 01       		.uleb128 0x1
 2497 0e10 9C       		.byte	0x9c
 2498 0e11 3D0E0000 		.4byte	0xe3d
 2499 0e15 2A       		.uleb128 0x2a
 2500 0e16 6B050000 		.4byte	.LASF139
 2501 0e1a 01       		.byte	0x1
 2502 0e1b 1D       		.byte	0x1d
 2503 0e1c 9D0C0000 		.4byte	0xc9d
 2504 0e20 01       		.uleb128 0x1
 2505 0e21 50       		.byte	0x50
 2506 0e22 2A       		.uleb128 0x2a
 2507 0e23 F4030000 		.4byte	.LASF150
 2508 0e27 01       		.byte	0x1
ARM GAS  C:\Users\Grillmo\AppData\Local\Temp\ccEAP0ji.s 			page 45


 2509 0e28 1D       		.byte	0x1d
 2510 0e29 C4000000 		.4byte	0xc4
 2511 0e2d 01       		.uleb128 0x1
 2512 0e2e 51       		.byte	0x51
 2513 0e2f 2A       		.uleb128 0x2a
 2514 0e30 3C060000 		.4byte	.LASF140
 2515 0e34 01       		.byte	0x1
 2516 0e35 1D       		.byte	0x1d
 2517 0e36 FD090000 		.4byte	0x9fd
 2518 0e3a 01       		.uleb128 0x1
 2519 0e3b 52       		.byte	0x52
 2520 0e3c 00       		.byte	0
 2521 0e3d 36       		.uleb128 0x36
 2522 0e3e FA040000 		.4byte	.LASF165
 2523 0e42 01       		.byte	0x1
 2524 0e43 18       		.byte	0x18
 2525 0e44 01       		.byte	0x1
 2526 0e45 6B0E0000 		.4byte	0xe6b
 2527 0e49 31       		.uleb128 0x31
 2528 0e4a 6B050000 		.4byte	.LASF139
 2529 0e4e 01       		.byte	0x1
 2530 0e4f 18       		.byte	0x18
 2531 0e50 9D0C0000 		.4byte	0xc9d
 2532 0e54 31       		.uleb128 0x31
 2533 0e55 F4030000 		.4byte	.LASF150
 2534 0e59 01       		.byte	0x1
 2535 0e5a 18       		.byte	0x18
 2536 0e5b B9000000 		.4byte	0xb9
 2537 0e5f 31       		.uleb128 0x31
 2538 0e60 3C060000 		.4byte	.LASF140
 2539 0e64 01       		.byte	0x1
 2540 0e65 18       		.byte	0x18
 2541 0e66 FD090000 		.4byte	0x9fd
 2542 0e6a 00       		.byte	0
 2543 0e6b 37       		.uleb128 0x37
 2544 0e6c 3D0E0000 		.4byte	0xe3d
 2545 0e70 00000000 		.4byte	.LFB0
 2546 0e74 18000000 		.4byte	.LFE0-.LFB0
 2547 0e78 01       		.uleb128 0x1
 2548 0e79 9C       		.byte	0x9c
 2549 0e7a 940E0000 		.4byte	0xe94
 2550 0e7e 38       		.uleb128 0x38
 2551 0e7f 490E0000 		.4byte	0xe49
 2552 0e83 01       		.uleb128 0x1
 2553 0e84 50       		.byte	0x50
 2554 0e85 38       		.uleb128 0x38
 2555 0e86 540E0000 		.4byte	0xe54
 2556 0e8a 01       		.uleb128 0x1
 2557 0e8b 51       		.byte	0x51
 2558 0e8c 38       		.uleb128 0x38
 2559 0e8d 5F0E0000 		.4byte	0xe5f
 2560 0e91 01       		.uleb128 0x1
 2561 0e92 52       		.byte	0x52
 2562 0e93 00       		.byte	0
 2563 0e94 37       		.uleb128 0x37
 2564 0e95 A70B0000 		.4byte	0xba7
 2565 0e99 00000000 		.4byte	.LFB7
ARM GAS  C:\Users\Grillmo\AppData\Local\Temp\ccEAP0ji.s 			page 46


 2566 0e9d 1A000000 		.4byte	.LFE7-.LFB7
 2567 0ea1 01       		.uleb128 0x1
 2568 0ea2 9C       		.byte	0x9c
 2569 0ea3 BF0E0000 		.4byte	0xebf
 2570 0ea7 2D       		.uleb128 0x2d
 2571 0ea8 B70B0000 		.4byte	0xbb7
 2572 0eac 7B040000 		.4byte	.LLST12
 2573 0eb0 38       		.uleb128 0x38
 2574 0eb1 C20B0000 		.4byte	0xbc2
 2575 0eb5 01       		.uleb128 0x1
 2576 0eb6 51       		.byte	0x51
 2577 0eb7 39       		.uleb128 0x39
 2578 0eb8 CD0B0000 		.4byte	0xbcd
 2579 0ebc 01       		.uleb128 0x1
 2580 0ebd 50       		.byte	0x50
 2581 0ebe 00       		.byte	0
 2582 0ebf 3A       		.uleb128 0x3a
 2583 0ec0 47040000 		.4byte	.LASF158
 2584 0ec4 47040000 		.4byte	.LASF158
 2585 0ec8 08       		.byte	0x8
 2586 0ec9 8101     		.2byte	0x181
 2587 0ecb 3A       		.uleb128 0x3a
 2588 0ecc C4070000 		.4byte	.LASF159
 2589 0ed0 C4070000 		.4byte	.LASF159
 2590 0ed4 08       		.byte	0x8
 2591 0ed5 7401     		.2byte	0x174
 2592 0ed7 00       		.byte	0
 2593              		.section	.debug_abbrev,"",%progbits
 2594              	.Ldebug_abbrev0:
 2595 0000 01       		.uleb128 0x1
 2596 0001 11       		.uleb128 0x11
 2597 0002 01       		.byte	0x1
 2598 0003 25       		.uleb128 0x25
 2599 0004 0E       		.uleb128 0xe
 2600 0005 13       		.uleb128 0x13
 2601 0006 0B       		.uleb128 0xb
 2602 0007 03       		.uleb128 0x3
 2603 0008 0E       		.uleb128 0xe
 2604 0009 1B       		.uleb128 0x1b
 2605 000a 0E       		.uleb128 0xe
 2606 000b 55       		.uleb128 0x55
 2607 000c 17       		.uleb128 0x17
 2608 000d 11       		.uleb128 0x11
 2609 000e 01       		.uleb128 0x1
 2610 000f 10       		.uleb128 0x10
 2611 0010 17       		.uleb128 0x17
 2612 0011 00       		.byte	0
 2613 0012 00       		.byte	0
 2614 0013 02       		.uleb128 0x2
 2615 0014 24       		.uleb128 0x24
 2616 0015 00       		.byte	0
 2617 0016 0B       		.uleb128 0xb
 2618 0017 0B       		.uleb128 0xb
 2619 0018 3E       		.uleb128 0x3e
 2620 0019 0B       		.uleb128 0xb
 2621 001a 03       		.uleb128 0x3
 2622 001b 0E       		.uleb128 0xe
ARM GAS  C:\Users\Grillmo\AppData\Local\Temp\ccEAP0ji.s 			page 47


 2623 001c 00       		.byte	0
 2624 001d 00       		.byte	0
 2625 001e 03       		.uleb128 0x3
 2626 001f 16       		.uleb128 0x16
 2627 0020 00       		.byte	0
 2628 0021 03       		.uleb128 0x3
 2629 0022 0E       		.uleb128 0xe
 2630 0023 3A       		.uleb128 0x3a
 2631 0024 0B       		.uleb128 0xb
 2632 0025 3B       		.uleb128 0x3b
 2633 0026 0B       		.uleb128 0xb
 2634 0027 49       		.uleb128 0x49
 2635 0028 13       		.uleb128 0x13
 2636 0029 00       		.byte	0
 2637 002a 00       		.byte	0
 2638 002b 04       		.uleb128 0x4
 2639 002c 24       		.uleb128 0x24
 2640 002d 00       		.byte	0
 2641 002e 0B       		.uleb128 0xb
 2642 002f 0B       		.uleb128 0xb
 2643 0030 3E       		.uleb128 0x3e
 2644 0031 0B       		.uleb128 0xb
 2645 0032 03       		.uleb128 0x3
 2646 0033 08       		.uleb128 0x8
 2647 0034 00       		.byte	0
 2648 0035 00       		.byte	0
 2649 0036 05       		.uleb128 0x5
 2650 0037 26       		.uleb128 0x26
 2651 0038 00       		.byte	0
 2652 0039 49       		.uleb128 0x49
 2653 003a 13       		.uleb128 0x13
 2654 003b 00       		.byte	0
 2655 003c 00       		.byte	0
 2656 003d 06       		.uleb128 0x6
 2657 003e 0F       		.uleb128 0xf
 2658 003f 00       		.byte	0
 2659 0040 0B       		.uleb128 0xb
 2660 0041 0B       		.uleb128 0xb
 2661 0042 49       		.uleb128 0x49
 2662 0043 13       		.uleb128 0x13
 2663 0044 00       		.byte	0
 2664 0045 00       		.byte	0
 2665 0046 07       		.uleb128 0x7
 2666 0047 13       		.uleb128 0x13
 2667 0048 00       		.byte	0
 2668 0049 03       		.uleb128 0x3
 2669 004a 0E       		.uleb128 0xe
 2670 004b 3C       		.uleb128 0x3c
 2671 004c 19       		.uleb128 0x19
 2672 004d 00       		.byte	0
 2673 004e 00       		.byte	0
 2674 004f 08       		.uleb128 0x8
 2675 0050 16       		.uleb128 0x16
 2676 0051 00       		.byte	0
 2677 0052 03       		.uleb128 0x3
 2678 0053 0E       		.uleb128 0xe
 2679 0054 3A       		.uleb128 0x3a
ARM GAS  C:\Users\Grillmo\AppData\Local\Temp\ccEAP0ji.s 			page 48


 2680 0055 0B       		.uleb128 0xb
 2681 0056 3B       		.uleb128 0x3b
 2682 0057 05       		.uleb128 0x5
 2683 0058 49       		.uleb128 0x49
 2684 0059 13       		.uleb128 0x13
 2685 005a 00       		.byte	0
 2686 005b 00       		.byte	0
 2687 005c 09       		.uleb128 0x9
 2688 005d 17       		.uleb128 0x17
 2689 005e 01       		.byte	0x1
 2690 005f 0B       		.uleb128 0xb
 2691 0060 0B       		.uleb128 0xb
 2692 0061 3A       		.uleb128 0x3a
 2693 0062 0B       		.uleb128 0xb
 2694 0063 3B       		.uleb128 0x3b
 2695 0064 0B       		.uleb128 0xb
 2696 0065 01       		.uleb128 0x1
 2697 0066 13       		.uleb128 0x13
 2698 0067 00       		.byte	0
 2699 0068 00       		.byte	0
 2700 0069 0A       		.uleb128 0xa
 2701 006a 0D       		.uleb128 0xd
 2702 006b 00       		.byte	0
 2703 006c 03       		.uleb128 0x3
 2704 006d 0E       		.uleb128 0xe
 2705 006e 3A       		.uleb128 0x3a
 2706 006f 0B       		.uleb128 0xb
 2707 0070 3B       		.uleb128 0x3b
 2708 0071 0B       		.uleb128 0xb
 2709 0072 49       		.uleb128 0x49
 2710 0073 13       		.uleb128 0x13
 2711 0074 00       		.byte	0
 2712 0075 00       		.byte	0
 2713 0076 0B       		.uleb128 0xb
 2714 0077 01       		.uleb128 0x1
 2715 0078 01       		.byte	0x1
 2716 0079 49       		.uleb128 0x49
 2717 007a 13       		.uleb128 0x13
 2718 007b 01       		.uleb128 0x1
 2719 007c 13       		.uleb128 0x13
 2720 007d 00       		.byte	0
 2721 007e 00       		.byte	0
 2722 007f 0C       		.uleb128 0xc
 2723 0080 21       		.uleb128 0x21
 2724 0081 00       		.byte	0
 2725 0082 49       		.uleb128 0x49
 2726 0083 13       		.uleb128 0x13
 2727 0084 2F       		.uleb128 0x2f
 2728 0085 0B       		.uleb128 0xb
 2729 0086 00       		.byte	0
 2730 0087 00       		.byte	0
 2731 0088 0D       		.uleb128 0xd
 2732 0089 13       		.uleb128 0x13
 2733 008a 01       		.byte	0x1
 2734 008b 0B       		.uleb128 0xb
 2735 008c 0B       		.uleb128 0xb
 2736 008d 3A       		.uleb128 0x3a
ARM GAS  C:\Users\Grillmo\AppData\Local\Temp\ccEAP0ji.s 			page 49


 2737 008e 0B       		.uleb128 0xb
 2738 008f 3B       		.uleb128 0x3b
 2739 0090 0B       		.uleb128 0xb
 2740 0091 01       		.uleb128 0x1
 2741 0092 13       		.uleb128 0x13
 2742 0093 00       		.byte	0
 2743 0094 00       		.byte	0
 2744 0095 0E       		.uleb128 0xe
 2745 0096 0D       		.uleb128 0xd
 2746 0097 00       		.byte	0
 2747 0098 03       		.uleb128 0x3
 2748 0099 0E       		.uleb128 0xe
 2749 009a 3A       		.uleb128 0x3a
 2750 009b 0B       		.uleb128 0xb
 2751 009c 3B       		.uleb128 0x3b
 2752 009d 0B       		.uleb128 0xb
 2753 009e 49       		.uleb128 0x49
 2754 009f 13       		.uleb128 0x13
 2755 00a0 38       		.uleb128 0x38
 2756 00a1 0B       		.uleb128 0xb
 2757 00a2 00       		.byte	0
 2758 00a3 00       		.byte	0
 2759 00a4 0F       		.uleb128 0xf
 2760 00a5 0F       		.uleb128 0xf
 2761 00a6 00       		.byte	0
 2762 00a7 0B       		.uleb128 0xb
 2763 00a8 0B       		.uleb128 0xb
 2764 00a9 00       		.byte	0
 2765 00aa 00       		.byte	0
 2766 00ab 10       		.uleb128 0x10
 2767 00ac 13       		.uleb128 0x13
 2768 00ad 01       		.byte	0x1
 2769 00ae 03       		.uleb128 0x3
 2770 00af 0E       		.uleb128 0xe
 2771 00b0 0B       		.uleb128 0xb
 2772 00b1 0B       		.uleb128 0xb
 2773 00b2 3A       		.uleb128 0x3a
 2774 00b3 0B       		.uleb128 0xb
 2775 00b4 3B       		.uleb128 0x3b
 2776 00b5 0B       		.uleb128 0xb
 2777 00b6 01       		.uleb128 0x1
 2778 00b7 13       		.uleb128 0x13
 2779 00b8 00       		.byte	0
 2780 00b9 00       		.byte	0
 2781 00ba 11       		.uleb128 0x11
 2782 00bb 0D       		.uleb128 0xd
 2783 00bc 00       		.byte	0
 2784 00bd 03       		.uleb128 0x3
 2785 00be 08       		.uleb128 0x8
 2786 00bf 3A       		.uleb128 0x3a
 2787 00c0 0B       		.uleb128 0xb
 2788 00c1 3B       		.uleb128 0x3b
 2789 00c2 0B       		.uleb128 0xb
 2790 00c3 49       		.uleb128 0x49
 2791 00c4 13       		.uleb128 0x13
 2792 00c5 38       		.uleb128 0x38
 2793 00c6 0B       		.uleb128 0xb
ARM GAS  C:\Users\Grillmo\AppData\Local\Temp\ccEAP0ji.s 			page 50


 2794 00c7 00       		.byte	0
 2795 00c8 00       		.byte	0
 2796 00c9 12       		.uleb128 0x12
 2797 00ca 13       		.uleb128 0x13
 2798 00cb 01       		.byte	0x1
 2799 00cc 03       		.uleb128 0x3
 2800 00cd 0E       		.uleb128 0xe
 2801 00ce 0B       		.uleb128 0xb
 2802 00cf 05       		.uleb128 0x5
 2803 00d0 3A       		.uleb128 0x3a
 2804 00d1 0B       		.uleb128 0xb
 2805 00d2 3B       		.uleb128 0x3b
 2806 00d3 0B       		.uleb128 0xb
 2807 00d4 01       		.uleb128 0x1
 2808 00d5 13       		.uleb128 0x13
 2809 00d6 00       		.byte	0
 2810 00d7 00       		.byte	0
 2811 00d8 13       		.uleb128 0x13
 2812 00d9 0D       		.uleb128 0xd
 2813 00da 00       		.byte	0
 2814 00db 03       		.uleb128 0x3
 2815 00dc 0E       		.uleb128 0xe
 2816 00dd 3A       		.uleb128 0x3a
 2817 00de 0B       		.uleb128 0xb
 2818 00df 3B       		.uleb128 0x3b
 2819 00e0 0B       		.uleb128 0xb
 2820 00e1 49       		.uleb128 0x49
 2821 00e2 13       		.uleb128 0x13
 2822 00e3 38       		.uleb128 0x38
 2823 00e4 05       		.uleb128 0x5
 2824 00e5 00       		.byte	0
 2825 00e6 00       		.byte	0
 2826 00e7 14       		.uleb128 0x14
 2827 00e8 15       		.uleb128 0x15
 2828 00e9 00       		.byte	0
 2829 00ea 27       		.uleb128 0x27
 2830 00eb 19       		.uleb128 0x19
 2831 00ec 00       		.byte	0
 2832 00ed 00       		.byte	0
 2833 00ee 15       		.uleb128 0x15
 2834 00ef 15       		.uleb128 0x15
 2835 00f0 01       		.byte	0x1
 2836 00f1 27       		.uleb128 0x27
 2837 00f2 19       		.uleb128 0x19
 2838 00f3 49       		.uleb128 0x49
 2839 00f4 13       		.uleb128 0x13
 2840 00f5 01       		.uleb128 0x1
 2841 00f6 13       		.uleb128 0x13
 2842 00f7 00       		.byte	0
 2843 00f8 00       		.byte	0
 2844 00f9 16       		.uleb128 0x16
 2845 00fa 05       		.uleb128 0x5
 2846 00fb 00       		.byte	0
 2847 00fc 49       		.uleb128 0x49
 2848 00fd 13       		.uleb128 0x13
 2849 00fe 00       		.byte	0
 2850 00ff 00       		.byte	0
ARM GAS  C:\Users\Grillmo\AppData\Local\Temp\ccEAP0ji.s 			page 51


 2851 0100 17       		.uleb128 0x17
 2852 0101 13       		.uleb128 0x13
 2853 0102 01       		.byte	0x1
 2854 0103 03       		.uleb128 0x3
 2855 0104 0E       		.uleb128 0xe
 2856 0105 0B       		.uleb128 0xb
 2857 0106 05       		.uleb128 0x5
 2858 0107 3A       		.uleb128 0x3a
 2859 0108 0B       		.uleb128 0xb
 2860 0109 3B       		.uleb128 0x3b
 2861 010a 05       		.uleb128 0x5
 2862 010b 01       		.uleb128 0x1
 2863 010c 13       		.uleb128 0x13
 2864 010d 00       		.byte	0
 2865 010e 00       		.byte	0
 2866 010f 18       		.uleb128 0x18
 2867 0110 0D       		.uleb128 0xd
 2868 0111 00       		.byte	0
 2869 0112 03       		.uleb128 0x3
 2870 0113 0E       		.uleb128 0xe
 2871 0114 3A       		.uleb128 0x3a
 2872 0115 0B       		.uleb128 0xb
 2873 0116 3B       		.uleb128 0x3b
 2874 0117 05       		.uleb128 0x5
 2875 0118 49       		.uleb128 0x49
 2876 0119 13       		.uleb128 0x13
 2877 011a 38       		.uleb128 0x38
 2878 011b 0B       		.uleb128 0xb
 2879 011c 00       		.byte	0
 2880 011d 00       		.byte	0
 2881 011e 19       		.uleb128 0x19
 2882 011f 0D       		.uleb128 0xd
 2883 0120 00       		.byte	0
 2884 0121 03       		.uleb128 0x3
 2885 0122 0E       		.uleb128 0xe
 2886 0123 3A       		.uleb128 0x3a
 2887 0124 0B       		.uleb128 0xb
 2888 0125 3B       		.uleb128 0x3b
 2889 0126 05       		.uleb128 0x5
 2890 0127 49       		.uleb128 0x49
 2891 0128 13       		.uleb128 0x13
 2892 0129 38       		.uleb128 0x38
 2893 012a 05       		.uleb128 0x5
 2894 012b 00       		.byte	0
 2895 012c 00       		.byte	0
 2896 012d 1A       		.uleb128 0x1a
 2897 012e 13       		.uleb128 0x13
 2898 012f 01       		.byte	0x1
 2899 0130 03       		.uleb128 0x3
 2900 0131 0E       		.uleb128 0xe
 2901 0132 0B       		.uleb128 0xb
 2902 0133 0B       		.uleb128 0xb
 2903 0134 3A       		.uleb128 0x3a
 2904 0135 0B       		.uleb128 0xb
 2905 0136 3B       		.uleb128 0x3b
 2906 0137 05       		.uleb128 0x5
 2907 0138 01       		.uleb128 0x1
ARM GAS  C:\Users\Grillmo\AppData\Local\Temp\ccEAP0ji.s 			page 52


 2908 0139 13       		.uleb128 0x13
 2909 013a 00       		.byte	0
 2910 013b 00       		.byte	0
 2911 013c 1B       		.uleb128 0x1b
 2912 013d 13       		.uleb128 0x13
 2913 013e 01       		.byte	0x1
 2914 013f 0B       		.uleb128 0xb
 2915 0140 0B       		.uleb128 0xb
 2916 0141 3A       		.uleb128 0x3a
 2917 0142 0B       		.uleb128 0xb
 2918 0143 3B       		.uleb128 0x3b
 2919 0144 05       		.uleb128 0x5
 2920 0145 01       		.uleb128 0x1
 2921 0146 13       		.uleb128 0x13
 2922 0147 00       		.byte	0
 2923 0148 00       		.byte	0
 2924 0149 1C       		.uleb128 0x1c
 2925 014a 17       		.uleb128 0x17
 2926 014b 01       		.byte	0x1
 2927 014c 0B       		.uleb128 0xb
 2928 014d 0B       		.uleb128 0xb
 2929 014e 3A       		.uleb128 0x3a
 2930 014f 0B       		.uleb128 0xb
 2931 0150 3B       		.uleb128 0x3b
 2932 0151 05       		.uleb128 0x5
 2933 0152 01       		.uleb128 0x1
 2934 0153 13       		.uleb128 0x13
 2935 0154 00       		.byte	0
 2936 0155 00       		.byte	0
 2937 0156 1D       		.uleb128 0x1d
 2938 0157 0D       		.uleb128 0xd
 2939 0158 00       		.byte	0
 2940 0159 03       		.uleb128 0x3
 2941 015a 0E       		.uleb128 0xe
 2942 015b 3A       		.uleb128 0x3a
 2943 015c 0B       		.uleb128 0xb
 2944 015d 3B       		.uleb128 0x3b
 2945 015e 05       		.uleb128 0x5
 2946 015f 49       		.uleb128 0x49
 2947 0160 13       		.uleb128 0x13
 2948 0161 00       		.byte	0
 2949 0162 00       		.byte	0
 2950 0163 1E       		.uleb128 0x1e
 2951 0164 15       		.uleb128 0x15
 2952 0165 01       		.byte	0x1
 2953 0166 27       		.uleb128 0x27
 2954 0167 19       		.uleb128 0x19
 2955 0168 01       		.uleb128 0x1
 2956 0169 13       		.uleb128 0x13
 2957 016a 00       		.byte	0
 2958 016b 00       		.byte	0
 2959 016c 1F       		.uleb128 0x1f
 2960 016d 34       		.uleb128 0x34
 2961 016e 00       		.byte	0
 2962 016f 03       		.uleb128 0x3
 2963 0170 0E       		.uleb128 0xe
 2964 0171 3A       		.uleb128 0x3a
ARM GAS  C:\Users\Grillmo\AppData\Local\Temp\ccEAP0ji.s 			page 53


 2965 0172 0B       		.uleb128 0xb
 2966 0173 3B       		.uleb128 0x3b
 2967 0174 05       		.uleb128 0x5
 2968 0175 49       		.uleb128 0x49
 2969 0176 13       		.uleb128 0x13
 2970 0177 3F       		.uleb128 0x3f
 2971 0178 19       		.uleb128 0x19
 2972 0179 3C       		.uleb128 0x3c
 2973 017a 19       		.uleb128 0x19
 2974 017b 00       		.byte	0
 2975 017c 00       		.byte	0
 2976 017d 20       		.uleb128 0x20
 2977 017e 04       		.uleb128 0x4
 2978 017f 01       		.byte	0x1
 2979 0180 03       		.uleb128 0x3
 2980 0181 0E       		.uleb128 0xe
 2981 0182 0B       		.uleb128 0xb
 2982 0183 0B       		.uleb128 0xb
 2983 0184 49       		.uleb128 0x49
 2984 0185 13       		.uleb128 0x13
 2985 0186 3A       		.uleb128 0x3a
 2986 0187 0B       		.uleb128 0xb
 2987 0188 3B       		.uleb128 0x3b
 2988 0189 05       		.uleb128 0x5
 2989 018a 01       		.uleb128 0x1
 2990 018b 13       		.uleb128 0x13
 2991 018c 00       		.byte	0
 2992 018d 00       		.byte	0
 2993 018e 21       		.uleb128 0x21
 2994 018f 28       		.uleb128 0x28
 2995 0190 00       		.byte	0
 2996 0191 03       		.uleb128 0x3
 2997 0192 0E       		.uleb128 0xe
 2998 0193 1C       		.uleb128 0x1c
 2999 0194 0D       		.uleb128 0xd
 3000 0195 00       		.byte	0
 3001 0196 00       		.byte	0
 3002 0197 22       		.uleb128 0x22
 3003 0198 28       		.uleb128 0x28
 3004 0199 00       		.byte	0
 3005 019a 03       		.uleb128 0x3
 3006 019b 0E       		.uleb128 0xe
 3007 019c 1C       		.uleb128 0x1c
 3008 019d 0B       		.uleb128 0xb
 3009 019e 00       		.byte	0
 3010 019f 00       		.byte	0
 3011 01a0 23       		.uleb128 0x23
 3012 01a1 2E       		.uleb128 0x2e
 3013 01a2 01       		.byte	0x1
 3014 01a3 3F       		.uleb128 0x3f
 3015 01a4 19       		.uleb128 0x19
 3016 01a5 03       		.uleb128 0x3
 3017 01a6 0E       		.uleb128 0xe
 3018 01a7 3A       		.uleb128 0x3a
 3019 01a8 0B       		.uleb128 0xb
 3020 01a9 3B       		.uleb128 0x3b
 3021 01aa 0B       		.uleb128 0xb
ARM GAS  C:\Users\Grillmo\AppData\Local\Temp\ccEAP0ji.s 			page 54


 3022 01ab 27       		.uleb128 0x27
 3023 01ac 19       		.uleb128 0x19
 3024 01ad 49       		.uleb128 0x49
 3025 01ae 13       		.uleb128 0x13
 3026 01af 11       		.uleb128 0x11
 3027 01b0 01       		.uleb128 0x1
 3028 01b1 12       		.uleb128 0x12
 3029 01b2 06       		.uleb128 0x6
 3030 01b3 40       		.uleb128 0x40
 3031 01b4 18       		.uleb128 0x18
 3032 01b5 9742     		.uleb128 0x2117
 3033 01b7 19       		.uleb128 0x19
 3034 01b8 01       		.uleb128 0x1
 3035 01b9 13       		.uleb128 0x13
 3036 01ba 00       		.byte	0
 3037 01bb 00       		.byte	0
 3038 01bc 24       		.uleb128 0x24
 3039 01bd 05       		.uleb128 0x5
 3040 01be 00       		.byte	0
 3041 01bf 03       		.uleb128 0x3
 3042 01c0 0E       		.uleb128 0xe
 3043 01c1 3A       		.uleb128 0x3a
 3044 01c2 0B       		.uleb128 0xb
 3045 01c3 3B       		.uleb128 0x3b
 3046 01c4 0B       		.uleb128 0xb
 3047 01c5 49       		.uleb128 0x49
 3048 01c6 13       		.uleb128 0x13
 3049 01c7 02       		.uleb128 0x2
 3050 01c8 17       		.uleb128 0x17
 3051 01c9 00       		.byte	0
 3052 01ca 00       		.byte	0
 3053 01cb 25       		.uleb128 0x25
 3054 01cc 34       		.uleb128 0x34
 3055 01cd 00       		.byte	0
 3056 01ce 03       		.uleb128 0x3
 3057 01cf 08       		.uleb128 0x8
 3058 01d0 3A       		.uleb128 0x3a
 3059 01d1 0B       		.uleb128 0xb
 3060 01d2 3B       		.uleb128 0x3b
 3061 01d3 0B       		.uleb128 0xb
 3062 01d4 49       		.uleb128 0x49
 3063 01d5 13       		.uleb128 0x13
 3064 01d6 02       		.uleb128 0x2
 3065 01d7 17       		.uleb128 0x17
 3066 01d8 00       		.byte	0
 3067 01d9 00       		.byte	0
 3068 01da 26       		.uleb128 0x26
 3069 01db 34       		.uleb128 0x34
 3070 01dc 00       		.byte	0
 3071 01dd 03       		.uleb128 0x3
 3072 01de 0E       		.uleb128 0xe
 3073 01df 3A       		.uleb128 0x3a
 3074 01e0 0B       		.uleb128 0xb
 3075 01e1 3B       		.uleb128 0x3b
 3076 01e2 0B       		.uleb128 0xb
 3077 01e3 49       		.uleb128 0x49
 3078 01e4 13       		.uleb128 0x13
ARM GAS  C:\Users\Grillmo\AppData\Local\Temp\ccEAP0ji.s 			page 55


 3079 01e5 02       		.uleb128 0x2
 3080 01e6 17       		.uleb128 0x17
 3081 01e7 00       		.byte	0
 3082 01e8 00       		.byte	0
 3083 01e9 27       		.uleb128 0x27
 3084 01ea 898201   		.uleb128 0x4109
 3085 01ed 01       		.byte	0x1
 3086 01ee 11       		.uleb128 0x11
 3087 01ef 01       		.uleb128 0x1
 3088 01f0 31       		.uleb128 0x31
 3089 01f1 13       		.uleb128 0x13
 3090 01f2 01       		.uleb128 0x1
 3091 01f3 13       		.uleb128 0x13
 3092 01f4 00       		.byte	0
 3093 01f5 00       		.byte	0
 3094 01f6 28       		.uleb128 0x28
 3095 01f7 8A8201   		.uleb128 0x410a
 3096 01fa 00       		.byte	0
 3097 01fb 02       		.uleb128 0x2
 3098 01fc 18       		.uleb128 0x18
 3099 01fd 9142     		.uleb128 0x2111
 3100 01ff 18       		.uleb128 0x18
 3101 0200 00       		.byte	0
 3102 0201 00       		.byte	0
 3103 0202 29       		.uleb128 0x29
 3104 0203 898201   		.uleb128 0x4109
 3105 0206 00       		.byte	0
 3106 0207 11       		.uleb128 0x11
 3107 0208 01       		.uleb128 0x1
 3108 0209 9542     		.uleb128 0x2115
 3109 020b 19       		.uleb128 0x19
 3110 020c 31       		.uleb128 0x31
 3111 020d 13       		.uleb128 0x13
 3112 020e 00       		.byte	0
 3113 020f 00       		.byte	0
 3114 0210 2A       		.uleb128 0x2a
 3115 0211 05       		.uleb128 0x5
 3116 0212 00       		.byte	0
 3117 0213 03       		.uleb128 0x3
 3118 0214 0E       		.uleb128 0xe
 3119 0215 3A       		.uleb128 0x3a
 3120 0216 0B       		.uleb128 0xb
 3121 0217 3B       		.uleb128 0x3b
 3122 0218 0B       		.uleb128 0xb
 3123 0219 49       		.uleb128 0x49
 3124 021a 13       		.uleb128 0x13
 3125 021b 02       		.uleb128 0x2
 3126 021c 18       		.uleb128 0x18
 3127 021d 00       		.byte	0
 3128 021e 00       		.byte	0
 3129 021f 2B       		.uleb128 0x2b
 3130 0220 898201   		.uleb128 0x4109
 3131 0223 01       		.byte	0x1
 3132 0224 11       		.uleb128 0x11
 3133 0225 01       		.uleb128 0x1
 3134 0226 31       		.uleb128 0x31
 3135 0227 13       		.uleb128 0x13
ARM GAS  C:\Users\Grillmo\AppData\Local\Temp\ccEAP0ji.s 			page 56


 3136 0228 00       		.byte	0
 3137 0229 00       		.byte	0
 3138 022a 2C       		.uleb128 0x2c
 3139 022b 1D       		.uleb128 0x1d
 3140 022c 01       		.byte	0x1
 3141 022d 31       		.uleb128 0x31
 3142 022e 13       		.uleb128 0x13
 3143 022f 52       		.uleb128 0x52
 3144 0230 01       		.uleb128 0x1
 3145 0231 55       		.uleb128 0x55
 3146 0232 17       		.uleb128 0x17
 3147 0233 58       		.uleb128 0x58
 3148 0234 0B       		.uleb128 0xb
 3149 0235 59       		.uleb128 0x59
 3150 0236 0B       		.uleb128 0xb
 3151 0237 00       		.byte	0
 3152 0238 00       		.byte	0
 3153 0239 2D       		.uleb128 0x2d
 3154 023a 05       		.uleb128 0x5
 3155 023b 00       		.byte	0
 3156 023c 31       		.uleb128 0x31
 3157 023d 13       		.uleb128 0x13
 3158 023e 02       		.uleb128 0x2
 3159 023f 17       		.uleb128 0x17
 3160 0240 00       		.byte	0
 3161 0241 00       		.byte	0
 3162 0242 2E       		.uleb128 0x2e
 3163 0243 0B       		.uleb128 0xb
 3164 0244 01       		.byte	0x1
 3165 0245 55       		.uleb128 0x55
 3166 0246 17       		.uleb128 0x17
 3167 0247 00       		.byte	0
 3168 0248 00       		.byte	0
 3169 0249 2F       		.uleb128 0x2f
 3170 024a 34       		.uleb128 0x34
 3171 024b 00       		.byte	0
 3172 024c 31       		.uleb128 0x31
 3173 024d 13       		.uleb128 0x13
 3174 024e 00       		.byte	0
 3175 024f 00       		.byte	0
 3176 0250 30       		.uleb128 0x30
 3177 0251 2E       		.uleb128 0x2e
 3178 0252 01       		.byte	0x1
 3179 0253 3F       		.uleb128 0x3f
 3180 0254 19       		.uleb128 0x19
 3181 0255 03       		.uleb128 0x3
 3182 0256 0E       		.uleb128 0xe
 3183 0257 3A       		.uleb128 0x3a
 3184 0258 0B       		.uleb128 0xb
 3185 0259 3B       		.uleb128 0x3b
 3186 025a 0B       		.uleb128 0xb
 3187 025b 27       		.uleb128 0x27
 3188 025c 19       		.uleb128 0x19
 3189 025d 49       		.uleb128 0x49
 3190 025e 13       		.uleb128 0x13
 3191 025f 20       		.uleb128 0x20
 3192 0260 0B       		.uleb128 0xb
ARM GAS  C:\Users\Grillmo\AppData\Local\Temp\ccEAP0ji.s 			page 57


 3193 0261 01       		.uleb128 0x1
 3194 0262 13       		.uleb128 0x13
 3195 0263 00       		.byte	0
 3196 0264 00       		.byte	0
 3197 0265 31       		.uleb128 0x31
 3198 0266 05       		.uleb128 0x5
 3199 0267 00       		.byte	0
 3200 0268 03       		.uleb128 0x3
 3201 0269 0E       		.uleb128 0xe
 3202 026a 3A       		.uleb128 0x3a
 3203 026b 0B       		.uleb128 0xb
 3204 026c 3B       		.uleb128 0x3b
 3205 026d 0B       		.uleb128 0xb
 3206 026e 49       		.uleb128 0x49
 3207 026f 13       		.uleb128 0x13
 3208 0270 00       		.byte	0
 3209 0271 00       		.byte	0
 3210 0272 32       		.uleb128 0x32
 3211 0273 34       		.uleb128 0x34
 3212 0274 00       		.byte	0
 3213 0275 03       		.uleb128 0x3
 3214 0276 08       		.uleb128 0x8
 3215 0277 3A       		.uleb128 0x3a
 3216 0278 0B       		.uleb128 0xb
 3217 0279 3B       		.uleb128 0x3b
 3218 027a 0B       		.uleb128 0xb
 3219 027b 49       		.uleb128 0x49
 3220 027c 13       		.uleb128 0x13
 3221 027d 00       		.byte	0
 3222 027e 00       		.byte	0
 3223 027f 33       		.uleb128 0x33
 3224 0280 2E       		.uleb128 0x2e
 3225 0281 01       		.byte	0x1
 3226 0282 3F       		.uleb128 0x3f
 3227 0283 19       		.uleb128 0x19
 3228 0284 03       		.uleb128 0x3
 3229 0285 0E       		.uleb128 0xe
 3230 0286 3A       		.uleb128 0x3a
 3231 0287 0B       		.uleb128 0xb
 3232 0288 3B       		.uleb128 0x3b
 3233 0289 0B       		.uleb128 0xb
 3234 028a 27       		.uleb128 0x27
 3235 028b 19       		.uleb128 0x19
 3236 028c 11       		.uleb128 0x11
 3237 028d 01       		.uleb128 0x1
 3238 028e 12       		.uleb128 0x12
 3239 028f 06       		.uleb128 0x6
 3240 0290 40       		.uleb128 0x40
 3241 0291 18       		.uleb128 0x18
 3242 0292 9742     		.uleb128 0x2117
 3243 0294 19       		.uleb128 0x19
 3244 0295 01       		.uleb128 0x1
 3245 0296 13       		.uleb128 0x13
 3246 0297 00       		.byte	0
 3247 0298 00       		.byte	0
 3248 0299 34       		.uleb128 0x34
 3249 029a 34       		.uleb128 0x34
ARM GAS  C:\Users\Grillmo\AppData\Local\Temp\ccEAP0ji.s 			page 58


 3250 029b 00       		.byte	0
 3251 029c 03       		.uleb128 0x3
 3252 029d 08       		.uleb128 0x8
 3253 029e 3A       		.uleb128 0x3a
 3254 029f 0B       		.uleb128 0xb
 3255 02a0 3B       		.uleb128 0x3b
 3256 02a1 0B       		.uleb128 0xb
 3257 02a2 49       		.uleb128 0x49
 3258 02a3 13       		.uleb128 0x13
 3259 02a4 02       		.uleb128 0x2
 3260 02a5 18       		.uleb128 0x18
 3261 02a6 00       		.byte	0
 3262 02a7 00       		.byte	0
 3263 02a8 35       		.uleb128 0x35
 3264 02a9 898201   		.uleb128 0x4109
 3265 02ac 01       		.byte	0x1
 3266 02ad 11       		.uleb128 0x11
 3267 02ae 01       		.uleb128 0x1
 3268 02af 9542     		.uleb128 0x2115
 3269 02b1 19       		.uleb128 0x19
 3270 02b2 31       		.uleb128 0x31
 3271 02b3 13       		.uleb128 0x13
 3272 02b4 00       		.byte	0
 3273 02b5 00       		.byte	0
 3274 02b6 36       		.uleb128 0x36
 3275 02b7 2E       		.uleb128 0x2e
 3276 02b8 01       		.byte	0x1
 3277 02b9 3F       		.uleb128 0x3f
 3278 02ba 19       		.uleb128 0x19
 3279 02bb 03       		.uleb128 0x3
 3280 02bc 0E       		.uleb128 0xe
 3281 02bd 3A       		.uleb128 0x3a
 3282 02be 0B       		.uleb128 0xb
 3283 02bf 3B       		.uleb128 0x3b
 3284 02c0 0B       		.uleb128 0xb
 3285 02c1 27       		.uleb128 0x27
 3286 02c2 19       		.uleb128 0x19
 3287 02c3 20       		.uleb128 0x20
 3288 02c4 0B       		.uleb128 0xb
 3289 02c5 01       		.uleb128 0x1
 3290 02c6 13       		.uleb128 0x13
 3291 02c7 00       		.byte	0
 3292 02c8 00       		.byte	0
 3293 02c9 37       		.uleb128 0x37
 3294 02ca 2E       		.uleb128 0x2e
 3295 02cb 01       		.byte	0x1
 3296 02cc 31       		.uleb128 0x31
 3297 02cd 13       		.uleb128 0x13
 3298 02ce 11       		.uleb128 0x11
 3299 02cf 01       		.uleb128 0x1
 3300 02d0 12       		.uleb128 0x12
 3301 02d1 06       		.uleb128 0x6
 3302 02d2 40       		.uleb128 0x40
 3303 02d3 18       		.uleb128 0x18
 3304 02d4 9742     		.uleb128 0x2117
 3305 02d6 19       		.uleb128 0x19
 3306 02d7 01       		.uleb128 0x1
ARM GAS  C:\Users\Grillmo\AppData\Local\Temp\ccEAP0ji.s 			page 59


 3307 02d8 13       		.uleb128 0x13
 3308 02d9 00       		.byte	0
 3309 02da 00       		.byte	0
 3310 02db 38       		.uleb128 0x38
 3311 02dc 05       		.uleb128 0x5
 3312 02dd 00       		.byte	0
 3313 02de 31       		.uleb128 0x31
 3314 02df 13       		.uleb128 0x13
 3315 02e0 02       		.uleb128 0x2
 3316 02e1 18       		.uleb128 0x18
 3317 02e2 00       		.byte	0
 3318 02e3 00       		.byte	0
 3319 02e4 39       		.uleb128 0x39
 3320 02e5 34       		.uleb128 0x34
 3321 02e6 00       		.byte	0
 3322 02e7 31       		.uleb128 0x31
 3323 02e8 13       		.uleb128 0x13
 3324 02e9 02       		.uleb128 0x2
 3325 02ea 18       		.uleb128 0x18
 3326 02eb 00       		.byte	0
 3327 02ec 00       		.byte	0
 3328 02ed 3A       		.uleb128 0x3a
 3329 02ee 2E       		.uleb128 0x2e
 3330 02ef 00       		.byte	0
 3331 02f0 3F       		.uleb128 0x3f
 3332 02f1 19       		.uleb128 0x19
 3333 02f2 3C       		.uleb128 0x3c
 3334 02f3 19       		.uleb128 0x19
 3335 02f4 6E       		.uleb128 0x6e
 3336 02f5 0E       		.uleb128 0xe
 3337 02f6 03       		.uleb128 0x3
 3338 02f7 0E       		.uleb128 0xe
 3339 02f8 3A       		.uleb128 0x3a
 3340 02f9 0B       		.uleb128 0xb
 3341 02fa 3B       		.uleb128 0x3b
 3342 02fb 05       		.uleb128 0x5
 3343 02fc 00       		.byte	0
 3344 02fd 00       		.byte	0
 3345 02fe 00       		.byte	0
 3346              		.section	.debug_loc,"",%progbits
 3347              	.Ldebug_loc0:
 3348              	.LLST25:
 3349 0000 00000000 		.4byte	.LVL45
 3350 0004 05000000 		.4byte	.LVL46-1
 3351 0008 0100     		.2byte	0x1
 3352 000a 50       		.byte	0x50
 3353 000b 05000000 		.4byte	.LVL46-1
 3354 000f 48000000 		.4byte	.LFE13
 3355 0013 0400     		.2byte	0x4
 3356 0015 F3       		.byte	0xf3
 3357 0016 01       		.uleb128 0x1
 3358 0017 50       		.byte	0x50
 3359 0018 9F       		.byte	0x9f
 3360 0019 00000000 		.4byte	0
 3361 001d 00000000 		.4byte	0
 3362              	.LLST26:
 3363 0021 00000000 		.4byte	.LVL45
ARM GAS  C:\Users\Grillmo\AppData\Local\Temp\ccEAP0ji.s 			page 60


 3364 0025 39000000 		.4byte	.LVL54-1
 3365 0029 0100     		.2byte	0x1
 3366 002b 51       		.byte	0x51
 3367 002c 39000000 		.4byte	.LVL54-1
 3368 0030 3A000000 		.4byte	.LVL54
 3369 0034 0400     		.2byte	0x4
 3370 0036 F3       		.byte	0xf3
 3371 0037 01       		.uleb128 0x1
 3372 0038 51       		.byte	0x51
 3373 0039 9F       		.byte	0x9f
 3374 003a 3A000000 		.4byte	.LVL54
 3375 003e 48000000 		.4byte	.LFE13
 3376 0042 0100     		.2byte	0x1
 3377 0044 51       		.byte	0x51
 3378 0045 00000000 		.4byte	0
 3379 0049 00000000 		.4byte	0
 3380              	.LLST27:
 3381 004d 06000000 		.4byte	.LVL46
 3382 0051 32000000 		.4byte	.LVL52
 3383 0055 0100     		.2byte	0x1
 3384 0057 50       		.byte	0x50
 3385 0058 3A000000 		.4byte	.LVL54
 3386 005c 48000000 		.4byte	.LFE13
 3387 0060 0100     		.2byte	0x1
 3388 0062 50       		.byte	0x50
 3389 0063 00000000 		.4byte	0
 3390 0067 00000000 		.4byte	0
 3391              	.LLST28:
 3392 006b 0A000000 		.4byte	.LVL47
 3393 006f 36000000 		.4byte	.LVL53
 3394 0073 0100     		.2byte	0x1
 3395 0075 53       		.byte	0x53
 3396 0076 36000000 		.4byte	.LVL53
 3397 007a 39000000 		.4byte	.LVL54-1
 3398 007e 0100     		.2byte	0x1
 3399 0080 50       		.byte	0x50
 3400 0081 3A000000 		.4byte	.LVL54
 3401 0085 48000000 		.4byte	.LFE13
 3402 0089 0100     		.2byte	0x1
 3403 008b 53       		.byte	0x53
 3404 008c 00000000 		.4byte	0
 3405 0090 00000000 		.4byte	0
 3406              	.LLST29:
 3407 0094 0E000000 		.4byte	.LVL48
 3408 0098 39000000 		.4byte	.LVL54-1
 3409 009c 0100     		.2byte	0x1
 3410 009e 52       		.byte	0x52
 3411 009f 3A000000 		.4byte	.LVL54
 3412 00a3 48000000 		.4byte	.LFE13
 3413 00a7 0100     		.2byte	0x1
 3414 00a9 52       		.byte	0x52
 3415 00aa 00000000 		.4byte	0
 3416 00ae 00000000 		.4byte	0
 3417              	.LLST30:
 3418 00b2 0E000000 		.4byte	.LVL48
 3419 00b6 32000000 		.4byte	.LVL52
 3420 00ba 0500     		.2byte	0x5
ARM GAS  C:\Users\Grillmo\AppData\Local\Temp\ccEAP0ji.s 			page 61


 3421 00bc 70       		.byte	0x70
 3422 00bd 00       		.sleb128 0
 3423 00be 30       		.byte	0x30
 3424 00bf 2D       		.byte	0x2d
 3425 00c0 9F       		.byte	0x9f
 3426 00c1 3A000000 		.4byte	.LVL54
 3427 00c5 48000000 		.4byte	.LFE13
 3428 00c9 0500     		.2byte	0x5
 3429 00cb 70       		.byte	0x70
 3430 00cc 00       		.sleb128 0
 3431 00cd 30       		.byte	0x30
 3432 00ce 2D       		.byte	0x2d
 3433 00cf 9F       		.byte	0x9f
 3434 00d0 00000000 		.4byte	0
 3435 00d4 00000000 		.4byte	0
 3436              	.LLST31:
 3437 00d8 0E000000 		.4byte	.LVL48
 3438 00dc 26000000 		.4byte	.LVL49
 3439 00e0 0600     		.2byte	0x6
 3440 00e2 9E       		.byte	0x9e
 3441 00e3 04       		.uleb128 0x4
 3442 00e4 00000000 		.4byte	0
 3443 00e8 26000000 		.4byte	.LVL49
 3444 00ec 39000000 		.4byte	.LVL54-1
 3445 00f0 0200     		.2byte	0x2
 3446 00f2 90       		.byte	0x90
 3447 00f3 40       		.uleb128 0x40
 3448 00f4 3A000000 		.4byte	.LVL54
 3449 00f8 48000000 		.4byte	.LFE13
 3450 00fc 0600     		.2byte	0x6
 3451 00fe 9E       		.byte	0x9e
 3452 00ff 04       		.uleb128 0x4
 3453 0100 00000000 		.4byte	0
 3454 0104 00000000 		.4byte	0
 3455 0108 00000000 		.4byte	0
 3456              	.LLST23:
 3457 010c 00000000 		.4byte	.LVL42
 3458 0110 05000000 		.4byte	.LVL43-1
 3459 0114 0100     		.2byte	0x1
 3460 0116 50       		.byte	0x50
 3461 0117 05000000 		.4byte	.LVL43-1
 3462 011b 14000000 		.4byte	.LFE12
 3463 011f 0400     		.2byte	0x4
 3464 0121 F3       		.byte	0xf3
 3465 0122 01       		.uleb128 0x1
 3466 0123 50       		.byte	0x50
 3467 0124 9F       		.byte	0x9f
 3468 0125 00000000 		.4byte	0
 3469 0129 00000000 		.4byte	0
 3470              	.LLST24:
 3471 012d 00000000 		.4byte	.LVL42
 3472 0131 12000000 		.4byte	.LVL44
 3473 0135 0200     		.2byte	0x2
 3474 0137 90       		.byte	0x90
 3475 0138 40       		.uleb128 0x40
 3476 0139 12000000 		.4byte	.LVL44
 3477 013d 14000000 		.4byte	.LFE12
ARM GAS  C:\Users\Grillmo\AppData\Local\Temp\ccEAP0ji.s 			page 62


 3478 0141 0600     		.2byte	0x6
 3479 0143 F3       		.byte	0xf3
 3480 0144 03       		.uleb128 0x3
 3481 0145 F5       		.byte	0xf5
 3482 0146 40       		.uleb128 0x40
 3483 0147 25       		.uleb128 0x25
 3484 0148 9F       		.byte	0x9f
 3485 0149 00000000 		.4byte	0
 3486 014d 00000000 		.4byte	0
 3487              	.LLST19:
 3488 0151 00000000 		.4byte	.LVL37
 3489 0155 06000000 		.4byte	.LVL38
 3490 0159 0100     		.2byte	0x1
 3491 015b 50       		.byte	0x50
 3492 015c 06000000 		.4byte	.LVL38
 3493 0160 20000000 		.4byte	.LFE11
 3494 0164 0400     		.2byte	0x4
 3495 0166 F3       		.byte	0xf3
 3496 0167 01       		.uleb128 0x1
 3497 0168 50       		.byte	0x50
 3498 0169 9F       		.byte	0x9f
 3499 016a 00000000 		.4byte	0
 3500 016e 00000000 		.4byte	0
 3501              	.LLST20:
 3502 0172 00000000 		.4byte	.LVL37
 3503 0176 1E000000 		.4byte	.LVL41
 3504 017a 0200     		.2byte	0x2
 3505 017c 90       		.byte	0x90
 3506 017d 40       		.uleb128 0x40
 3507 017e 1E000000 		.4byte	.LVL41
 3508 0182 20000000 		.4byte	.LFE11
 3509 0186 0600     		.2byte	0x6
 3510 0188 F3       		.byte	0xf3
 3511 0189 03       		.uleb128 0x3
 3512 018a F5       		.byte	0xf5
 3513 018b 40       		.uleb128 0x40
 3514 018c 25       		.uleb128 0x25
 3515 018d 9F       		.byte	0x9f
 3516 018e 00000000 		.4byte	0
 3517 0192 00000000 		.4byte	0
 3518              	.LLST21:
 3519 0196 00000000 		.4byte	.LVL37
 3520 019a 1A000000 		.4byte	.LVL40
 3521 019e 0100     		.2byte	0x1
 3522 01a0 51       		.byte	0x51
 3523 01a1 00000000 		.4byte	0
 3524 01a5 00000000 		.4byte	0
 3525              	.LLST22:
 3526 01a9 00000000 		.4byte	.LVL37
 3527 01ad 06000000 		.4byte	.LVL38
 3528 01b1 0100     		.2byte	0x1
 3529 01b3 50       		.byte	0x50
 3530 01b4 06000000 		.4byte	.LVL38
 3531 01b8 1A000000 		.4byte	.LVL40
 3532 01bc 0400     		.2byte	0x4
 3533 01be F3       		.byte	0xf3
 3534 01bf 01       		.uleb128 0x1
ARM GAS  C:\Users\Grillmo\AppData\Local\Temp\ccEAP0ji.s 			page 63


 3535 01c0 50       		.byte	0x50
 3536 01c1 9F       		.byte	0x9f
 3537 01c2 00000000 		.4byte	0
 3538 01c6 00000000 		.4byte	0
 3539              	.LLST17:
 3540 01ca 00000000 		.4byte	.LVL33
 3541 01ce 0E000000 		.4byte	.LVL34
 3542 01d2 0100     		.2byte	0x1
 3543 01d4 50       		.byte	0x50
 3544 01d5 0E000000 		.4byte	.LVL34
 3545 01d9 22000000 		.4byte	.LFE10
 3546 01dd 0400     		.2byte	0x4
 3547 01df F3       		.byte	0xf3
 3548 01e0 01       		.uleb128 0x1
 3549 01e1 50       		.byte	0x50
 3550 01e2 9F       		.byte	0x9f
 3551 01e3 00000000 		.4byte	0
 3552 01e7 00000000 		.4byte	0
 3553              	.LLST18:
 3554 01eb 16000000 		.4byte	.LVL35
 3555 01ef 1C000000 		.4byte	.LVL36
 3556 01f3 0800     		.2byte	0x8
 3557 01f5 70       		.byte	0x70
 3558 01f6 00       		.sleb128 0
 3559 01f7 38       		.byte	0x38
 3560 01f8 24       		.byte	0x24
 3561 01f9 73       		.byte	0x73
 3562 01fa 00       		.sleb128 0
 3563 01fb 21       		.byte	0x21
 3564 01fc 9F       		.byte	0x9f
 3565 01fd 1C000000 		.4byte	.LVL36
 3566 0201 22000000 		.4byte	.LFE10
 3567 0205 0100     		.2byte	0x1
 3568 0207 50       		.byte	0x50
 3569 0208 00000000 		.4byte	0
 3570 020c 00000000 		.4byte	0
 3571              	.LLST15:
 3572 0210 00000000 		.4byte	.LVL29
 3573 0214 0E000000 		.4byte	.LVL30
 3574 0218 0100     		.2byte	0x1
 3575 021a 50       		.byte	0x50
 3576 021b 0E000000 		.4byte	.LVL30
 3577 021f 22000000 		.4byte	.LFE9
 3578 0223 0400     		.2byte	0x4
 3579 0225 F3       		.byte	0xf3
 3580 0226 01       		.uleb128 0x1
 3581 0227 50       		.byte	0x50
 3582 0228 9F       		.byte	0x9f
 3583 0229 00000000 		.4byte	0
 3584 022d 00000000 		.4byte	0
 3585              	.LLST16:
 3586 0231 16000000 		.4byte	.LVL31
 3587 0235 1C000000 		.4byte	.LVL32
 3588 0239 0800     		.2byte	0x8
 3589 023b 70       		.byte	0x70
 3590 023c 00       		.sleb128 0
 3591 023d 38       		.byte	0x38
ARM GAS  C:\Users\Grillmo\AppData\Local\Temp\ccEAP0ji.s 			page 64


 3592 023e 24       		.byte	0x24
 3593 023f 73       		.byte	0x73
 3594 0240 00       		.sleb128 0
 3595 0241 21       		.byte	0x21
 3596 0242 9F       		.byte	0x9f
 3597 0243 1C000000 		.4byte	.LVL32
 3598 0247 22000000 		.4byte	.LFE9
 3599 024b 0100     		.2byte	0x1
 3600 024d 50       		.byte	0x50
 3601 024e 00000000 		.4byte	0
 3602 0252 00000000 		.4byte	0
 3603              	.LLST13:
 3604 0256 00000000 		.4byte	.LVL25
 3605 025a 06000000 		.4byte	.LVL26
 3606 025e 0100     		.2byte	0x1
 3607 0260 50       		.byte	0x50
 3608 0261 06000000 		.4byte	.LVL26
 3609 0265 12000000 		.4byte	.LFE8
 3610 0269 0400     		.2byte	0x4
 3611 026b F3       		.byte	0xf3
 3612 026c 01       		.uleb128 0x1
 3613 026d 50       		.byte	0x50
 3614 026e 9F       		.byte	0x9f
 3615 026f 00000000 		.4byte	0
 3616 0273 00000000 		.4byte	0
 3617              	.LLST14:
 3618 0277 08000000 		.4byte	.LVL27
 3619 027b 10000000 		.4byte	.LVL28
 3620 027f 0800     		.2byte	0x8
 3621 0281 70       		.byte	0x70
 3622 0282 00       		.sleb128 0
 3623 0283 38       		.byte	0x38
 3624 0284 24       		.byte	0x24
 3625 0285 72       		.byte	0x72
 3626 0286 00       		.sleb128 0
 3627 0287 21       		.byte	0x21
 3628 0288 9F       		.byte	0x9f
 3629 0289 00000000 		.4byte	0
 3630 028d 00000000 		.4byte	0
 3631              	.LLST6:
 3632 0291 00000000 		.4byte	.LVL12
 3633 0295 10000000 		.4byte	.LVL13
 3634 0299 0100     		.2byte	0x1
 3635 029b 50       		.byte	0x50
 3636 029c 10000000 		.4byte	.LVL13
 3637 02a0 4C000000 		.4byte	.LVL19
 3638 02a4 0100     		.2byte	0x1
 3639 02a6 55       		.byte	0x55
 3640 02a7 4C000000 		.4byte	.LVL19
 3641 02ab 50000000 		.4byte	.LVL20
 3642 02af 0100     		.2byte	0x1
 3643 02b1 50       		.byte	0x50
 3644 02b2 50000000 		.4byte	.LVL20
 3645 02b6 78000000 		.4byte	.LFE6
 3646 02ba 0100     		.2byte	0x1
 3647 02bc 55       		.byte	0x55
 3648 02bd 00000000 		.4byte	0
ARM GAS  C:\Users\Grillmo\AppData\Local\Temp\ccEAP0ji.s 			page 65


 3649 02c1 00000000 		.4byte	0
 3650              	.LLST7:
 3651 02c5 00000000 		.4byte	.LVL12
 3652 02c9 15000000 		.4byte	.LVL14-1
 3653 02cd 0200     		.2byte	0x2
 3654 02cf 90       		.byte	0x90
 3655 02d0 40       		.uleb128 0x40
 3656 02d1 15000000 		.4byte	.LVL14-1
 3657 02d5 78000000 		.4byte	.LFE6
 3658 02d9 0600     		.2byte	0x6
 3659 02db F3       		.byte	0xf3
 3660 02dc 03       		.uleb128 0x3
 3661 02dd F5       		.byte	0xf5
 3662 02de 40       		.uleb128 0x40
 3663 02df 25       		.uleb128 0x25
 3664 02e0 9F       		.byte	0x9f
 3665 02e1 00000000 		.4byte	0
 3666 02e5 00000000 		.4byte	0
 3667              	.LLST8:
 3668 02e9 00000000 		.4byte	.LVL12
 3669 02ed 15000000 		.4byte	.LVL14-1
 3670 02f1 0100     		.2byte	0x1
 3671 02f3 51       		.byte	0x51
 3672 02f4 15000000 		.4byte	.LVL14-1
 3673 02f8 4C000000 		.4byte	.LVL19
 3674 02fc 0100     		.2byte	0x1
 3675 02fe 56       		.byte	0x56
 3676 02ff 4C000000 		.4byte	.LVL19
 3677 0303 50000000 		.4byte	.LVL20
 3678 0307 0100     		.2byte	0x1
 3679 0309 52       		.byte	0x52
 3680 030a 50000000 		.4byte	.LVL20
 3681 030e 78000000 		.4byte	.LFE6
 3682 0312 0100     		.2byte	0x1
 3683 0314 56       		.byte	0x56
 3684 0315 00000000 		.4byte	0
 3685 0319 00000000 		.4byte	0
 3686              	.LLST9:
 3687 031d 1E000000 		.4byte	.LVL15
 3688 0321 2A000000 		.4byte	.LVL16
 3689 0325 0200     		.2byte	0x2
 3690 0327 90       		.byte	0x90
 3691 0328 4F       		.uleb128 0x4f
 3692 0329 2A000000 		.4byte	.LVL16
 3693 032d 50000000 		.4byte	.LVL20
 3694 0331 0500     		.2byte	0x5
 3695 0333 F5       		.byte	0xf5
 3696 0334 40       		.uleb128 0x40
 3697 0335 25       		.uleb128 0x25
 3698 0336 19       		.byte	0x19
 3699 0337 9F       		.byte	0x9f
 3700 0338 50000000 		.4byte	.LVL20
 3701 033c 54000000 		.4byte	.LVL21
 3702 0340 0200     		.2byte	0x2
 3703 0342 90       		.byte	0x90
 3704 0343 4F       		.uleb128 0x4f
 3705 0344 54000000 		.4byte	.LVL21
ARM GAS  C:\Users\Grillmo\AppData\Local\Temp\ccEAP0ji.s 			page 66


 3706 0348 78000000 		.4byte	.LFE6
 3707 034c 0500     		.2byte	0x5
 3708 034e F5       		.byte	0xf5
 3709 034f 40       		.uleb128 0x40
 3710 0350 25       		.uleb128 0x25
 3711 0351 19       		.byte	0x19
 3712 0352 9F       		.byte	0x9f
 3713 0353 00000000 		.4byte	0
 3714 0357 00000000 		.4byte	0
 3715              	.LLST10:
 3716 035b 1E000000 		.4byte	.LVL15
 3717 035f 2A000000 		.4byte	.LVL16
 3718 0363 0200     		.2byte	0x2
 3719 0365 30       		.byte	0x30
 3720 0366 9F       		.byte	0x9f
 3721 0367 50000000 		.4byte	.LVL20
 3722 036b 54000000 		.4byte	.LVL21
 3723 036f 2200     		.2byte	0x22
 3724 0371 F5       		.byte	0xf5
 3725 0372 4F       		.uleb128 0x4f
 3726 0373 25       		.uleb128 0x25
 3727 0374 F4       		.byte	0xf4
 3728 0375 25       		.uleb128 0x25
 3729 0376 04       		.byte	0x4
 3730 0377 0000003F 		.4byte	0x3f000000
 3731 037b 1C       		.byte	0x1c
 3732 037c F5       		.byte	0xf5
 3733 037d 4F       		.uleb128 0x4f
 3734 037e 25       		.uleb128 0x25
 3735 037f F4       		.byte	0xf4
 3736 0380 25       		.uleb128 0x25
 3737 0381 04       		.byte	0x4
 3738 0382 0000003F 		.4byte	0x3f000000
 3739 0386 1C       		.byte	0x1c
 3740 0387 22       		.byte	0x22
 3741 0388 F4       		.byte	0xf4
 3742 0389 25       		.uleb128 0x25
 3743 038a 04       		.byte	0x4
 3744 038b 0000004B 		.4byte	0x4b000000
 3745 038f 1E       		.byte	0x1e
 3746 0390 F7       		.byte	0xf7
 3747 0391 2C       		.uleb128 0x2c
 3748 0392 9F       		.byte	0x9f
 3749 0393 54000000 		.4byte	.LVL21
 3750 0397 78000000 		.4byte	.LFE6
 3751 039b 2400     		.2byte	0x24
 3752 039d F5       		.byte	0xf5
 3753 039e 40       		.uleb128 0x40
 3754 039f 25       		.uleb128 0x25
 3755 03a0 19       		.byte	0x19
 3756 03a1 F4       		.byte	0xf4
 3757 03a2 25       		.uleb128 0x25
 3758 03a3 04       		.byte	0x4
 3759 03a4 0000003F 		.4byte	0x3f000000
 3760 03a8 1C       		.byte	0x1c
 3761 03a9 F5       		.byte	0xf5
 3762 03aa 40       		.uleb128 0x40
ARM GAS  C:\Users\Grillmo\AppData\Local\Temp\ccEAP0ji.s 			page 67


 3763 03ab 25       		.uleb128 0x25
 3764 03ac 19       		.byte	0x19
 3765 03ad F4       		.byte	0xf4
 3766 03ae 25       		.uleb128 0x25
 3767 03af 04       		.byte	0x4
 3768 03b0 0000003F 		.4byte	0x3f000000
 3769 03b4 1C       		.byte	0x1c
 3770 03b5 22       		.byte	0x22
 3771 03b6 F4       		.byte	0xf4
 3772 03b7 25       		.uleb128 0x25
 3773 03b8 04       		.byte	0x4
 3774 03b9 0000004B 		.4byte	0x4b000000
 3775 03bd 1E       		.byte	0x1e
 3776 03be F7       		.byte	0xf7
 3777 03bf 2C       		.uleb128 0x2c
 3778 03c0 9F       		.byte	0x9f
 3779 03c1 00000000 		.4byte	0
 3780 03c5 00000000 		.4byte	0
 3781              	.LLST11:
 3782 03c9 38000000 		.4byte	.LVL17
 3783 03cd 50000000 		.4byte	.LVL20
 3784 03d1 0100     		.2byte	0x1
 3785 03d3 51       		.byte	0x51
 3786 03d4 00000000 		.4byte	0
 3787 03d8 00000000 		.4byte	0
 3788              	.LLST4:
 3789 03dc 00000000 		.4byte	.LVL8
 3790 03e0 04000000 		.4byte	.LVL9
 3791 03e4 0200     		.2byte	0x2
 3792 03e6 90       		.byte	0x90
 3793 03e7 41       		.uleb128 0x41
 3794 03e8 04000000 		.4byte	.LVL9
 3795 03ec 12000000 		.4byte	.LFE5
 3796 03f0 0600     		.2byte	0x6
 3797 03f2 F3       		.byte	0xf3
 3798 03f3 03       		.uleb128 0x3
 3799 03f4 F5       		.byte	0xf5
 3800 03f5 41       		.uleb128 0x41
 3801 03f6 25       		.uleb128 0x25
 3802 03f7 9F       		.byte	0x9f
 3803 03f8 00000000 		.4byte	0
 3804 03fc 00000000 		.4byte	0
 3805              	.LLST5:
 3806 0400 00000000 		.4byte	.LVL8
 3807 0404 0E000000 		.4byte	.LVL10
 3808 0408 0100     		.2byte	0x1
 3809 040a 51       		.byte	0x51
 3810 040b 0E000000 		.4byte	.LVL10
 3811 040f 12000000 		.4byte	.LFE5
 3812 0413 0100     		.2byte	0x1
 3813 0415 52       		.byte	0x52
 3814 0416 00000000 		.4byte	0
 3815 041a 00000000 		.4byte	0
 3816              	.LLST0:
 3817 041e 00000000 		.4byte	.LVL4
 3818 0422 06000000 		.4byte	.LVL5
 3819 0426 0200     		.2byte	0x2
ARM GAS  C:\Users\Grillmo\AppData\Local\Temp\ccEAP0ji.s 			page 68


 3820 0428 90       		.byte	0x90
 3821 0429 41       		.uleb128 0x41
 3822 042a 06000000 		.4byte	.LVL5
 3823 042e 2C000000 		.4byte	.LFE4
 3824 0432 0600     		.2byte	0x6
 3825 0434 F3       		.byte	0xf3
 3826 0435 03       		.uleb128 0x3
 3827 0436 F5       		.byte	0xf5
 3828 0437 41       		.uleb128 0x41
 3829 0438 25       		.uleb128 0x25
 3830 0439 9F       		.byte	0x9f
 3831 043a 00000000 		.4byte	0
 3832 043e 00000000 		.4byte	0
 3833              	.LLST1:
 3834 0442 16000000 		.4byte	.LVL6
 3835 0446 26000000 		.4byte	.LVL7
 3836 044a 0100     		.2byte	0x1
 3837 044c 51       		.byte	0x51
 3838 044d 00000000 		.4byte	0
 3839 0451 00000000 		.4byte	0
 3840              	.LLST2:
 3841 0455 16000000 		.4byte	.LVL6
 3842 0459 26000000 		.4byte	.LVL7
 3843 045d 0100     		.2byte	0x1
 3844 045f 53       		.byte	0x53
 3845 0460 00000000 		.4byte	0
 3846 0464 00000000 		.4byte	0
 3847              	.LLST3:
 3848 0468 16000000 		.4byte	.LVL6
 3849 046c 26000000 		.4byte	.LVL7
 3850 0470 0100     		.2byte	0x1
 3851 0472 50       		.byte	0x50
 3852 0473 00000000 		.4byte	0
 3853 0477 00000000 		.4byte	0
 3854              	.LLST12:
 3855 047b 00000000 		.4byte	.LVL22
 3856 047f 0A000000 		.4byte	.LVL23
 3857 0483 0100     		.2byte	0x1
 3858 0485 50       		.byte	0x50
 3859 0486 0A000000 		.4byte	.LVL23
 3860 048a 1A000000 		.4byte	.LFE7
 3861 048e 0400     		.2byte	0x4
 3862 0490 F3       		.byte	0xf3
 3863 0491 01       		.uleb128 0x1
 3864 0492 50       		.byte	0x50
 3865 0493 9F       		.byte	0x9f
 3866 0494 00000000 		.4byte	0
 3867 0498 00000000 		.4byte	0
 3868              		.section	.debug_aranges,"",%progbits
 3869 0000 84000000 		.4byte	0x84
 3870 0004 0200     		.2byte	0x2
 3871 0006 00000000 		.4byte	.Ldebug_info0
 3872 000a 04       		.byte	0x4
 3873 000b 00       		.byte	0
 3874 000c 0000     		.2byte	0
 3875 000e 0000     		.2byte	0
 3876 0010 00000000 		.4byte	.LFB0
ARM GAS  C:\Users\Grillmo\AppData\Local\Temp\ccEAP0ji.s 			page 69


 3877 0014 18000000 		.4byte	.LFE0-.LFB0
 3878 0018 00000000 		.4byte	.LFB1
 3879 001c 18000000 		.4byte	.LFE1-.LFB1
 3880 0020 00000000 		.4byte	.LFB2
 3881 0024 2C000000 		.4byte	.LFE2-.LFB2
 3882 0028 00000000 		.4byte	.LFB3
 3883 002c 2C000000 		.4byte	.LFE3-.LFB3
 3884 0030 00000000 		.4byte	.LFB4
 3885 0034 2C000000 		.4byte	.LFE4-.LFB4
 3886 0038 00000000 		.4byte	.LFB5
 3887 003c 12000000 		.4byte	.LFE5-.LFB5
 3888 0040 00000000 		.4byte	.LFB6
 3889 0044 78000000 		.4byte	.LFE6-.LFB6
 3890 0048 00000000 		.4byte	.LFB7
 3891 004c 1A000000 		.4byte	.LFE7-.LFB7
 3892 0050 00000000 		.4byte	.LFB8
 3893 0054 12000000 		.4byte	.LFE8-.LFB8
 3894 0058 00000000 		.4byte	.LFB9
 3895 005c 22000000 		.4byte	.LFE9-.LFB9
 3896 0060 00000000 		.4byte	.LFB10
 3897 0064 22000000 		.4byte	.LFE10-.LFB10
 3898 0068 00000000 		.4byte	.LFB11
 3899 006c 20000000 		.4byte	.LFE11-.LFB11
 3900 0070 00000000 		.4byte	.LFB12
 3901 0074 14000000 		.4byte	.LFE12-.LFB12
 3902 0078 00000000 		.4byte	.LFB13
 3903 007c 48000000 		.4byte	.LFE13-.LFB13
 3904 0080 00000000 		.4byte	0
 3905 0084 00000000 		.4byte	0
 3906              		.section	.debug_ranges,"",%progbits
 3907              	.Ldebug_ranges0:
 3908 0000 0C000000 		.4byte	.LBB6
 3909 0004 0E000000 		.4byte	.LBE6
 3910 0008 16000000 		.4byte	.LBB9
 3911 000c 26000000 		.4byte	.LBE9
 3912 0010 00000000 		.4byte	0
 3913 0014 00000000 		.4byte	0
 3914 0018 00000000 		.4byte	.LBB10
 3915 001c 0E000000 		.4byte	.LBE10
 3916 0020 16000000 		.4byte	.LBB13
 3917 0024 1A000000 		.4byte	.LBE13
 3918 0028 00000000 		.4byte	0
 3919 002c 00000000 		.4byte	0
 3920 0030 00000000 		.4byte	.LFB0
 3921 0034 18000000 		.4byte	.LFE0
 3922 0038 00000000 		.4byte	.LFB1
 3923 003c 18000000 		.4byte	.LFE1
 3924 0040 00000000 		.4byte	.LFB2
 3925 0044 2C000000 		.4byte	.LFE2
 3926 0048 00000000 		.4byte	.LFB3
 3927 004c 2C000000 		.4byte	.LFE3
 3928 0050 00000000 		.4byte	.LFB4
 3929 0054 2C000000 		.4byte	.LFE4
 3930 0058 00000000 		.4byte	.LFB5
 3931 005c 12000000 		.4byte	.LFE5
 3932 0060 00000000 		.4byte	.LFB6
 3933 0064 78000000 		.4byte	.LFE6
ARM GAS  C:\Users\Grillmo\AppData\Local\Temp\ccEAP0ji.s 			page 70


 3934 0068 00000000 		.4byte	.LFB7
 3935 006c 1A000000 		.4byte	.LFE7
 3936 0070 00000000 		.4byte	.LFB8
 3937 0074 12000000 		.4byte	.LFE8
 3938 0078 00000000 		.4byte	.LFB9
 3939 007c 22000000 		.4byte	.LFE9
 3940 0080 00000000 		.4byte	.LFB10
 3941 0084 22000000 		.4byte	.LFE10
 3942 0088 00000000 		.4byte	.LFB11
 3943 008c 20000000 		.4byte	.LFE11
 3944 0090 00000000 		.4byte	.LFB12
 3945 0094 14000000 		.4byte	.LFE12
 3946 0098 00000000 		.4byte	.LFB13
 3947 009c 48000000 		.4byte	.LFE13
 3948 00a0 00000000 		.4byte	0
 3949 00a4 00000000 		.4byte	0
 3950              		.section	.debug_line,"",%progbits
 3951              	.Ldebug_line0:
 3952 0000 31030000 		.section	.debug_str,"MS",%progbits,1
 3952      0200C501 
 3952      00000201 
 3952      FB0E0D00 
 3952      01010101 
 3953              	.LASF50:
 3954 0000 5F64736F 		.ascii	"_dso_handle\000"
 3954      5F68616E 
 3954      646C6500 
 3955              	.LASF145:
 3956 000c 7363616C 		.ascii	"scale\000"
 3956      6500
 3957              	.LASF58:
 3958 0012 5F73697A 		.ascii	"_size\000"
 3958      6500
 3959              	.LASF102:
 3960 0018 5F72616E 		.ascii	"_rand48\000"
 3960      64343800 
 3961              	.LASF82:
 3962 0020 5F656D65 		.ascii	"_emergency\000"
 3962      7267656E 
 3962      637900
 3963              	.LASF4:
 3964 002b 5F5F7569 		.ascii	"__uint8_t\000"
 3964      6E74385F 
 3964      7400
 3965              	.LASF72:
 3966 0035 5F646174 		.ascii	"_data\000"
 3966      6100
 3967              	.LASF122:
 3968 003b 5F776372 		.ascii	"_wcrtomb_state\000"
 3968      746F6D62 
 3968      5F737461 
 3968      746500
 3969              	.LASF123:
 3970 004a 5F776373 		.ascii	"_wcsrtombs_state\000"
 3970      72746F6D 
 3970      62735F73 
 3970      74617465 
ARM GAS  C:\Users\Grillmo\AppData\Local\Temp\ccEAP0ji.s 			page 71


 3970      00
 3971              	.LASF14:
 3972 005b 6C6F6E67 		.ascii	"long long unsigned int\000"
 3972      206C6F6E 
 3972      6720756E 
 3972      7369676E 
 3972      65642069 
 3973              	.LASF137:
 3974 0072 5F5F6664 		.ascii	"__fdlibm_posix\000"
 3974      6C69626D 
 3974      5F706F73 
 3974      697800
 3975              	.LASF62:
 3976 0081 5F6C6266 		.ascii	"_lbfsize\000"
 3976      73697A65 
 3976      00
 3977              	.LASF129:
 3978 008a 5F5F6C6F 		.ascii	"__locale_t\000"
 3978      63616C65 
 3978      5F7400
 3979              	.LASF136:
 3980 0095 5F5F6664 		.ascii	"__fdlibm_xopen\000"
 3980      6C69626D 
 3980      5F786F70 
 3980      656E00
 3981              	.LASF120:
 3982 00a4 5F6D6272 		.ascii	"_mbrtowc_state\000"
 3982      746F7763 
 3982      5F737461 
 3982      746500
 3983              	.LASF39:
 3984 00b3 5F5F746D 		.ascii	"__tm_sec\000"
 3984      5F736563 
 3984      00
 3985              	.LASF16:
 3986 00bc 696E7431 		.ascii	"int16_t\000"
 3986      365F7400 
 3987              	.LASF13:
 3988 00c4 6C6F6E67 		.ascii	"long long int\000"
 3988      206C6F6E 
 3988      6720696E 
 3988      7400
 3989              	.LASF2:
 3990 00d2 7369676E 		.ascii	"signed char\000"
 3990      65642063 
 3990      68617200 
 3991              	.LASF68:
 3992 00de 5F756275 		.ascii	"_ubuf\000"
 3992      6600
 3993              	.LASF57:
 3994 00e4 5F626173 		.ascii	"_base\000"
 3994      6500
 3995              	.LASF41:
 3996 00ea 5F5F746D 		.ascii	"__tm_hour\000"
 3996      5F686F75 
 3996      7200
 3997              	.LASF97:
ARM GAS  C:\Users\Grillmo\AppData\Local\Temp\ccEAP0ji.s 			page 72


 3998 00f4 5F5F7366 		.ascii	"__sf\000"
 3998      00
 3999              	.LASF48:
 4000 00f9 5F6F6E5F 		.ascii	"_on_exit_args\000"
 4000      65786974 
 4000      5F617267 
 4000      7300
 4001              	.LASF63:
 4002 0107 5F636F6F 		.ascii	"_cookie\000"
 4002      6B696500 
 4003              	.LASF96:
 4004 010f 5F5F7367 		.ascii	"__sglue\000"
 4004      6C756500 
 4005              	.LASF10:
 4006 0117 6C6F6E67 		.ascii	"long int\000"
 4006      20696E74 
 4006      00
 4007              	.LASF60:
 4008 0120 5F666C61 		.ascii	"_flags\000"
 4008      677300
 4009              	.LASF52:
 4010 0127 5F69735F 		.ascii	"_is_cxa\000"
 4010      63786100 
 4011              	.LASF78:
 4012 012f 5F737464 		.ascii	"_stdin\000"
 4012      696E00
 4013              	.LASF135:
 4014 0136 5F5F6664 		.ascii	"__fdlibm_svid\000"
 4014      6C69626D 
 4014      5F737669 
 4014      6400
 4015              	.LASF70:
 4016 0144 5F626C6B 		.ascii	"_blksize\000"
 4016      73697A65 
 4016      00
 4017              	.LASF156:
 4018 014d 62756666 		.ascii	"buffer_append_int32\000"
 4018      65725F61 
 4018      7070656E 
 4018      645F696E 
 4018      74333200 
 4019              	.LASF17:
 4020 0161 75696E74 		.ascii	"uint16_t\000"
 4020      31365F74 
 4020      00
 4021              	.LASF132:
 4022 016a 646F7562 		.ascii	"double\000"
 4022      6C6500
 4023              	.LASF92:
 4024 0171 5F637674 		.ascii	"_cvtbuf\000"
 4024      62756600 
 4025              	.LASF71:
 4026 0179 5F6F6666 		.ascii	"_offset\000"
 4026      73657400 
 4027              	.LASF121:
 4028 0181 5F6D6273 		.ascii	"_mbsrtowcs_state\000"
 4028      72746F77 
ARM GAS  C:\Users\Grillmo\AppData\Local\Temp\ccEAP0ji.s 			page 73


 4028      63735F73 
 4028      74617465 
 4028      00
 4029              	.LASF119:
 4030 0192 5F6D6272 		.ascii	"_mbrlen_state\000"
 4030      6C656E5F 
 4030      73746174 
 4030      6500
 4031              	.LASF148:
 4032 01a0 62756666 		.ascii	"buffer_get_int32\000"
 4032      65725F67 
 4032      65745F69 
 4032      6E743332 
 4032      00
 4033              	.LASF49:
 4034 01b1 5F666E61 		.ascii	"_fnargs\000"
 4034      72677300 
 4035              	.LASF55:
 4036 01b9 5F666E73 		.ascii	"_fns\000"
 4036      00
 4037              	.LASF11:
 4038 01be 5F5F7569 		.ascii	"__uint32_t\000"
 4038      6E743332 
 4038      5F7400
 4039              	.LASF35:
 4040 01c9 5F736967 		.ascii	"_sign\000"
 4040      6E00
 4041              	.LASF5:
 4042 01cf 5F5F696E 		.ascii	"__int16_t\000"
 4042      7431365F 
 4042      7400
 4043              	.LASF80:
 4044 01d9 5F737464 		.ascii	"_stderr\000"
 4044      65727200 
 4045              	.LASF37:
 4046 01e1 5F426967 		.ascii	"_Bigint\000"
 4046      696E7400 
 4047              	.LASF110:
 4048 01e9 5F67616D 		.ascii	"_gamma_signgam\000"
 4048      6D615F73 
 4048      69676E67 
 4048      616D00
 4049              	.LASF64:
 4050 01f8 5F726561 		.ascii	"_read\000"
 4050      6400
 4051              	.LASF88:
 4052 01fe 5F726573 		.ascii	"_result_k\000"
 4052      756C745F 
 4052      6B00
 4053              	.LASF143:
 4054 0208 62756666 		.ascii	"buffer_get_float32_auto\000"
 4054      65725F67 
 4054      65745F66 
 4054      6C6F6174 
 4054      33325F61 
 4055              	.LASF38:
 4056 0220 5F5F746D 		.ascii	"__tm\000"
ARM GAS  C:\Users\Grillmo\AppData\Local\Temp\ccEAP0ji.s 			page 74


 4056      00
 4057              	.LASF1:
 4058 0225 756E7369 		.ascii	"unsigned int\000"
 4058      676E6564 
 4058      20696E74 
 4058      00
 4059              	.LASF25:
 4060 0232 5F5F7763 		.ascii	"__wchb\000"
 4060      686200
 4061              	.LASF79:
 4062 0239 5F737464 		.ascii	"_stdout\000"
 4062      6F757400 
 4063              	.LASF91:
 4064 0241 5F637674 		.ascii	"_cvtlen\000"
 4064      6C656E00 
 4065              	.LASF12:
 4066 0249 6C6F6E67 		.ascii	"long unsigned int\000"
 4066      20756E73 
 4066      69676E65 
 4066      6420696E 
 4066      7400
 4067              	.LASF61:
 4068 025b 5F66696C 		.ascii	"_file\000"
 4068      6500
 4069              	.LASF149:
 4070 0261 62756666 		.ascii	"buffer_get_uint16\000"
 4070      65725F67 
 4070      65745F75 
 4070      696E7431 
 4070      3600
 4071              	.LASF160:
 4072 0273 474E5520 		.ascii	"GNU C99 6.3.1 20170215 (release) [ARM/embedded-6-br"
 4072      43393920 
 4072      362E332E 
 4072      31203230 
 4072      31373032 
 4073 02a6 616E6368 		.ascii	"anch revision 245512] -mcpu=cortex-m4 -mfloat-abi=h"
 4073      20726576 
 4073      6973696F 
 4073      6E203234 
 4073      35353132 
 4074 02d9 61726420 		.ascii	"ard -mfpu=fpv4-sp-d16 -mno-thumb-interwork -mthumb "
 4074      2D6D6670 
 4074      753D6670 
 4074      76342D73 
 4074      702D6431 
 4075 030c 2D676764 		.ascii	"-ggdb -O2 -std=gnu99 -fomit-frame-pointer -falign-f"
 4075      62202D4F 
 4075      32202D73 
 4075      74643D67 
 4075      6E753939 
 4076 033f 756E6374 		.ascii	"unctions=16 -ffunction-sections -fdata-sections -fn"
 4076      696F6E73 
 4076      3D313620 
 4076      2D666675 
 4076      6E637469 
 4077 0372 6F2D636F 		.ascii	"o-common -fsingle-precision-constant\000"
ARM GAS  C:\Users\Grillmo\AppData\Local\Temp\ccEAP0ji.s 			page 75


 4077      6D6D6F6E 
 4077      202D6673 
 4077      696E676C 
 4077      652D7072 
 4078              	.LASF144:
 4079 0397 62756666 		.ascii	"buffer_get_float32\000"
 4079      65725F67 
 4079      65745F66 
 4079      6C6F6174 
 4079      333200
 4080              	.LASF100:
 4081 03aa 5F6E696F 		.ascii	"_niobs\000"
 4081      627300
 4082              	.LASF8:
 4083 03b1 73686F72 		.ascii	"short unsigned int\000"
 4083      7420756E 
 4083      7369676E 
 4083      65642069 
 4083      6E7400
 4084              	.LASF94:
 4085 03c4 5F617465 		.ascii	"_atexit0\000"
 4085      78697430 
 4085      00
 4086              	.LASF117:
 4087 03cd 5F736967 		.ascii	"_signal_buf\000"
 4087      6E616C5F 
 4087      62756600 
 4088              	.LASF108:
 4089 03d9 5F617363 		.ascii	"_asctime_buf\000"
 4089      74696D65 
 4089      5F627566 
 4089      00
 4090              	.LASF87:
 4091 03e6 5F726573 		.ascii	"_result\000"
 4091      756C7400 
 4092              	.LASF24:
 4093 03ee 5F5F7763 		.ascii	"__wch\000"
 4093      6800
 4094              	.LASF150:
 4095 03f4 6E756D62 		.ascii	"number\000"
 4095      657200
 4096              	.LASF20:
 4097 03fb 5F4C4F43 		.ascii	"_LOCK_T\000"
 4097      4B5F5400 
 4098              	.LASF23:
 4099 0403 77696E74 		.ascii	"wint_t\000"
 4099      5F7400
 4100              	.LASF73:
 4101 040a 5F6C6F63 		.ascii	"_lock\000"
 4101      6B00
 4102              	.LASF75:
 4103 0410 5F666C61 		.ascii	"_flags2\000"
 4103      67733200 
 4104              	.LASF65:
 4105 0418 5F777269 		.ascii	"_write\000"
 4105      746500
 4106              	.LASF44:
ARM GAS  C:\Users\Grillmo\AppData\Local\Temp\ccEAP0ji.s 			page 76


 4107 041f 5F5F746D 		.ascii	"__tm_year\000"
 4107      5F796561 
 4107      7200
 4108              	.LASF126:
 4109 0429 5F6E6D61 		.ascii	"_nmalloc\000"
 4109      6C6C6F63 
 4109      00
 4110              	.LASF26:
 4111 0432 73697A65 		.ascii	"sizetype\000"
 4111      74797065 
 4111      00
 4112              	.LASF133:
 4113 043b 6C6F6E67 		.ascii	"long double\000"
 4113      20646F75 
 4113      626C6500 
 4114              	.LASF158:
 4115 0447 6C646578 		.ascii	"ldexpf\000"
 4115      706600
 4116              	.LASF125:
 4117 044e 5F6E6578 		.ascii	"_nextf\000"
 4117      746600
 4118              	.LASF154:
 4119 0455 62756666 		.ascii	"buffer_append_float16\000"
 4119      65725F61 
 4119      7070656E 
 4119      645F666C 
 4119      6F617431 
 4120              	.LASF164:
 4121 046b 62756666 		.ascii	"buffer_get_int16\000"
 4121      65725F67 
 4121      65745F69 
 4121      6E743136 
 4121      00
 4122              	.LASF43:
 4123 047c 5F5F746D 		.ascii	"__tm_mon\000"
 4123      5F6D6F6E 
 4123      00
 4124              	.LASF141:
 4125 0485 7369675F 		.ascii	"sig_i\000"
 4125      6900
 4126              	.LASF53:
 4127 048b 5F617465 		.ascii	"_atexit\000"
 4127      78697400 
 4128              	.LASF85:
 4129 0493 5F5F7364 		.ascii	"__sdidinit\000"
 4129      6964696E 
 4129      697400
 4130              	.LASF21:
 4131 049e 5F6F6666 		.ascii	"_off_t\000"
 4131      5F7400
 4132              	.LASF162:
 4133 04a5 443A5C65 		.ascii	"D:\\ebikeSystem\000"
 4133      62696B65 
 4133      53797374 
 4133      656D00
 4134              	.LASF0:
 4135 04b4 666C6F61 		.ascii	"float\000"
ARM GAS  C:\Users\Grillmo\AppData\Local\Temp\ccEAP0ji.s 			page 77


 4135      7400
 4136              	.LASF90:
 4137 04ba 5F667265 		.ascii	"_freelist\000"
 4137      656C6973 
 4137      7400
 4138              	.LASF115:
 4139 04c4 5F776374 		.ascii	"_wctomb_state\000"
 4139      6F6D625F 
 4139      73746174 
 4139      6500
 4140              	.LASF147:
 4141 04d2 62756666 		.ascii	"buffer_get_uint32\000"
 4141      65725F67 
 4141      65745F75 
 4141      696E7433 
 4141      3200
 4142              	.LASF18:
 4143 04e4 696E7433 		.ascii	"int32_t\000"
 4143      325F7400 
 4144              	.LASF3:
 4145 04ec 756E7369 		.ascii	"unsigned char\000"
 4145      676E6564 
 4145      20636861 
 4145      7200
 4146              	.LASF165:
 4147 04fa 62756666 		.ascii	"buffer_append_int16\000"
 4147      65725F61 
 4147      7070656E 
 4147      645F696E 
 4147      74313600 
 4148              	.LASF93:
 4149 050e 5F6E6577 		.ascii	"_new\000"
 4149      00
 4150              	.LASF124:
 4151 0513 5F685F65 		.ascii	"_h_errno\000"
 4151      72726E6F 
 4151      00
 4152              	.LASF6:
 4153 051c 73686F72 		.ascii	"short int\000"
 4153      7420696E 
 4153      7400
 4154              	.LASF46:
 4155 0526 5F5F746D 		.ascii	"__tm_yday\000"
 4155      5F796461 
 4155      7900
 4156              	.LASF56:
 4157 0530 5F5F7362 		.ascii	"__sbuf\000"
 4157      756600
 4158              	.LASF101:
 4159 0537 5F696F62 		.ascii	"_iobs\000"
 4159      7300
 4160              	.LASF98:
 4161 053d 5F5F4649 		.ascii	"__FILE\000"
 4161      4C4500
 4162              	.LASF29:
 4163 0544 5F6D6273 		.ascii	"_mbstate_t\000"
 4163      74617465 
ARM GAS  C:\Users\Grillmo\AppData\Local\Temp\ccEAP0ji.s 			page 78


 4163      5F7400
 4164              	.LASF59:
 4165 054f 5F5F7346 		.ascii	"__sFILE\000"
 4165      494C4500 
 4166              	.LASF74:
 4167 0557 5F6D6273 		.ascii	"_mbstate\000"
 4167      74617465 
 4167      00
 4168              	.LASF111:
 4169 0560 5F72616E 		.ascii	"_rand_next\000"
 4169      645F6E65 
 4169      787400
 4170              	.LASF139:
 4171 056b 62756666 		.ascii	"buffer\000"
 4171      657200
 4172              	.LASF113:
 4173 0572 5F6D626C 		.ascii	"_mblen_state\000"
 4173      656E5F73 
 4173      74617465 
 4173      00
 4174              	.LASF81:
 4175 057f 5F696E63 		.ascii	"_inc\000"
 4175      00
 4176              	.LASF54:
 4177 0584 5F696E64 		.ascii	"_ind\000"
 4177      00
 4178              	.LASF84:
 4179 0589 5F6C6F63 		.ascii	"_locale\000"
 4179      616C6500 
 4180              	.LASF86:
 4181 0591 5F5F636C 		.ascii	"__cleanup\000"
 4181      65616E75 
 4181      7000
 4182              	.LASF83:
 4183 059b 5F756E73 		.ascii	"_unspecified_locale_info\000"
 4183      70656369 
 4183      66696564 
 4183      5F6C6F63 
 4183      616C655F 
 4184              	.LASF34:
 4185 05b4 5F6D6178 		.ascii	"_maxwds\000"
 4185      77647300 
 4186              	.LASF76:
 4187 05bc 5F726565 		.ascii	"_reent\000"
 4187      6E7400
 4188              	.LASF103:
 4189 05c3 5F736565 		.ascii	"_seed\000"
 4189      6400
 4190              	.LASF27:
 4191 05c9 5F5F636F 		.ascii	"__count\000"
 4191      756E7400 
 4192              	.LASF128:
 4193 05d1 5F5F6C6F 		.ascii	"__lock\000"
 4193      636B00
 4194              	.LASF19:
 4195 05d8 75696E74 		.ascii	"uint32_t\000"
 4195      33325F74 
ARM GAS  C:\Users\Grillmo\AppData\Local\Temp\ccEAP0ji.s 			page 79


 4195      00
 4196              	.LASF66:
 4197 05e1 5F736565 		.ascii	"_seek\000"
 4197      6B00
 4198              	.LASF130:
 4199 05e7 5F696D70 		.ascii	"_impure_ptr\000"
 4199      7572655F 
 4199      70747200 
 4200              	.LASF22:
 4201 05f3 5F66706F 		.ascii	"_fpos_t\000"
 4201      735F7400 
 4202              	.LASF142:
 4203 05fb 5F426F6F 		.ascii	"_Bool\000"
 4203      6C00
 4204              	.LASF77:
 4205 0601 5F657272 		.ascii	"_errno\000"
 4205      6E6F00
 4206              	.LASF31:
 4207 0608 63686172 		.ascii	"char\000"
 4207      00
 4208              	.LASF151:
 4209 060d 7369675F 		.ascii	"sig_abs\000"
 4209      61627300 
 4210              	.LASF146:
 4211 0615 62756666 		.ascii	"buffer_get_float16\000"
 4211      65725F67 
 4211      65745F66 
 4211      6C6F6174 
 4211      313600
 4212              	.LASF40:
 4213 0628 5F5F746D 		.ascii	"__tm_min\000"
 4213      5F6D696E 
 4213      00
 4214              	.LASF7:
 4215 0631 5F5F7569 		.ascii	"__uint16_t\000"
 4215      6E743136 
 4215      5F7400
 4216              	.LASF140:
 4217 063c 696E6465 		.ascii	"index\000"
 4217      7800
 4218              	.LASF51:
 4219 0642 5F666E74 		.ascii	"_fntypes\000"
 4219      79706573 
 4219      00
 4220              	.LASF153:
 4221 064b 62756666 		.ascii	"buffer_append_float32\000"
 4221      65725F61 
 4221      7070656E 
 4221      645F666C 
 4221      6F617433 
 4222              	.LASF9:
 4223 0661 5F5F696E 		.ascii	"__int32_t\000"
 4223      7433325F 
 4223      7400
 4224              	.LASF104:
 4225 066b 5F6D756C 		.ascii	"_mult\000"
 4225      7400
ARM GAS  C:\Users\Grillmo\AppData\Local\Temp\ccEAP0ji.s 			page 80


 4226              	.LASF33:
 4227 0671 5F6E6578 		.ascii	"_next\000"
 4227      7400
 4228              	.LASF107:
 4229 0677 5F737472 		.ascii	"_strtok_last\000"
 4229      746F6B5F 
 4229      6C617374 
 4229      00
 4230              	.LASF28:
 4231 0684 5F5F7661 		.ascii	"__value\000"
 4231      6C756500 
 4232              	.LASF161:
 4233 068c 62756666 		.ascii	"buffer.c\000"
 4233      65722E63 
 4233      00
 4234              	.LASF105:
 4235 0695 5F616464 		.ascii	"_add\000"
 4235      00
 4236              	.LASF32:
 4237 069a 5F5F554C 		.ascii	"__ULong\000"
 4237      6F6E6700 
 4238              	.LASF118:
 4239 06a2 5F676574 		.ascii	"_getdate_err\000"
 4239      64617465 
 4239      5F657272 
 4239      00
 4240              	.LASF163:
 4241 06af 5F5F6664 		.ascii	"__fdlibm_version\000"
 4241      6C69626D 
 4241      5F766572 
 4241      73696F6E 
 4241      00
 4242              	.LASF131:
 4243 06c0 5F676C6F 		.ascii	"_global_impure_ptr\000"
 4243      62616C5F 
 4243      696D7075 
 4243      72655F70 
 4243      747200
 4244              	.LASF134:
 4245 06d3 5F5F6664 		.ascii	"__fdlibm_ieee\000"
 4245      6C69626D 
 4245      5F696565 
 4245      6500
 4246              	.LASF106:
 4247 06e1 5F756E75 		.ascii	"_unused_rand\000"
 4247      7365645F 
 4247      72616E64 
 4247      00
 4248              	.LASF36:
 4249 06ee 5F776473 		.ascii	"_wds\000"
 4249      00
 4250              	.LASF45:
 4251 06f3 5F5F746D 		.ascii	"__tm_wday\000"
 4251      5F776461 
 4251      7900
 4252              	.LASF99:
 4253 06fd 5F676C75 		.ascii	"_glue\000"
ARM GAS  C:\Users\Grillmo\AppData\Local\Temp\ccEAP0ji.s 			page 81


 4253      6500
 4254              	.LASF152:
 4255 0703 62756666 		.ascii	"buffer_append_float32_auto\000"
 4255      65725F61 
 4255      7070656E 
 4255      645F666C 
 4255      6F617433 
 4256              	.LASF138:
 4257 071e 5F5F6664 		.ascii	"__fdlib_version\000"
 4257      6C69625F 
 4257      76657273 
 4257      696F6E00 
 4258              	.LASF15:
 4259 072e 75696E74 		.ascii	"uint8_t\000"
 4259      385F7400 
 4260              	.LASF116:
 4261 0736 5F6C3634 		.ascii	"_l64a_buf\000"
 4261      615F6275 
 4261      6600
 4262              	.LASF95:
 4263 0740 5F736967 		.ascii	"_sig_func\000"
 4263      5F66756E 
 4263      6300
 4264              	.LASF157:
 4265 074a 62756666 		.ascii	"buffer_append_uint16\000"
 4265      65725F61 
 4265      7070656E 
 4265      645F7569 
 4265      6E743136 
 4266              	.LASF30:
 4267 075f 5F666C6F 		.ascii	"_flock_t\000"
 4267      636B5F74 
 4267      00
 4268              	.LASF155:
 4269 0768 62756666 		.ascii	"buffer_append_uint32\000"
 4269      65725F61 
 4269      7070656E 
 4269      645F7569 
 4269      6E743332 
 4270              	.LASF69:
 4271 077d 5F6E6275 		.ascii	"_nbuf\000"
 4271      6600
 4272              	.LASF127:
 4273 0783 5F756E75 		.ascii	"_unused\000"
 4273      73656400 
 4274              	.LASF47:
 4275 078b 5F5F746D 		.ascii	"__tm_isdst\000"
 4275      5F697364 
 4275      737400
 4276              	.LASF109:
 4277 0796 5F6C6F63 		.ascii	"_localtime_buf\000"
 4277      616C7469 
 4277      6D655F62 
 4277      756600
 4278              	.LASF67:
 4279 07a5 5F636C6F 		.ascii	"_close\000"
 4279      736500
ARM GAS  C:\Users\Grillmo\AppData\Local\Temp\ccEAP0ji.s 			page 82


 4280              	.LASF112:
 4281 07ac 5F723438 		.ascii	"_r48\000"
 4281      00
 4282              	.LASF114:
 4283 07b1 5F6D6274 		.ascii	"_mbtowc_state\000"
 4283      6F77635F 
 4283      73746174 
 4283      6500
 4284              	.LASF89:
 4285 07bf 5F703573 		.ascii	"_p5s\000"
 4285      00
 4286              	.LASF159:
 4287 07c4 66726578 		.ascii	"frexpf\000"
 4287      706600
 4288              	.LASF42:
 4289 07cb 5F5F746D 		.ascii	"__tm_mday\000"
 4289      5F6D6461 
 4289      7900
 4290              		.ident	"GCC: (GNU Tools for ARM Embedded Processors 6-2017-q1-update) 6.3.1 20170215 (release) [AR
ARM GAS  C:\Users\Grillmo\AppData\Local\Temp\ccEAP0ji.s 			page 83


DEFINED SYMBOLS
                            *ABS*:00000000 buffer.c
C:\Users\Grillmo\AppData\Local\Temp\ccEAP0ji.s:18     .text.buffer_append_int16:00000000 $t
C:\Users\Grillmo\AppData\Local\Temp\ccEAP0ji.s:26     .text.buffer_append_int16:00000000 buffer_append_int16
C:\Users\Grillmo\AppData\Local\Temp\ccEAP0ji.s:62     .text.buffer_append_uint16:00000000 $t
C:\Users\Grillmo\AppData\Local\Temp\ccEAP0ji.s:70     .text.buffer_append_uint16:00000000 buffer_append_uint16
C:\Users\Grillmo\AppData\Local\Temp\ccEAP0ji.s:105    .text.buffer_append_int32:00000000 $t
C:\Users\Grillmo\AppData\Local\Temp\ccEAP0ji.s:113    .text.buffer_append_int32:00000000 buffer_append_int32
C:\Users\Grillmo\AppData\Local\Temp\ccEAP0ji.s:160    .text.buffer_append_uint32:00000000 $t
C:\Users\Grillmo\AppData\Local\Temp\ccEAP0ji.s:168    .text.buffer_append_uint32:00000000 buffer_append_uint32
C:\Users\Grillmo\AppData\Local\Temp\ccEAP0ji.s:215    .text.buffer_append_float16:00000000 $t
C:\Users\Grillmo\AppData\Local\Temp\ccEAP0ji.s:223    .text.buffer_append_float16:00000000 buffer_append_float16
C:\Users\Grillmo\AppData\Local\Temp\ccEAP0ji.s:281    .text.buffer_append_float32:00000000 $t
C:\Users\Grillmo\AppData\Local\Temp\ccEAP0ji.s:289    .text.buffer_append_float32:00000000 buffer_append_float32
C:\Users\Grillmo\AppData\Local\Temp\ccEAP0ji.s:310    .text.buffer_append_float32_auto:00000000 $t
C:\Users\Grillmo\AppData\Local\Temp\ccEAP0ji.s:318    .text.buffer_append_float32_auto:00000000 buffer_append_float32_auto
C:\Users\Grillmo\AppData\Local\Temp\ccEAP0ji.s:412    .text.buffer_append_float32_auto:00000074 $d
C:\Users\Grillmo\AppData\Local\Temp\ccEAP0ji.s:417    .text.buffer_get_int16:00000000 $t
C:\Users\Grillmo\AppData\Local\Temp\ccEAP0ji.s:425    .text.buffer_get_int16:00000000 buffer_get_int16
C:\Users\Grillmo\AppData\Local\Temp\ccEAP0ji.s:464    .text.buffer_get_uint16:00000000 $t
C:\Users\Grillmo\AppData\Local\Temp\ccEAP0ji.s:472    .text.buffer_get_uint16:00000000 buffer_get_uint16
C:\Users\Grillmo\AppData\Local\Temp\ccEAP0ji.s:501    .text.buffer_get_int32:00000000 $t
C:\Users\Grillmo\AppData\Local\Temp\ccEAP0ji.s:509    .text.buffer_get_int32:00000000 buffer_get_int32
C:\Users\Grillmo\AppData\Local\Temp\ccEAP0ji.s:556    .text.buffer_get_uint32:00000000 $t
C:\Users\Grillmo\AppData\Local\Temp\ccEAP0ji.s:564    .text.buffer_get_uint32:00000000 buffer_get_uint32
C:\Users\Grillmo\AppData\Local\Temp\ccEAP0ji.s:612    .text.buffer_get_float16:00000000 $t
C:\Users\Grillmo\AppData\Local\Temp\ccEAP0ji.s:620    .text.buffer_get_float16:00000000 buffer_get_float16
C:\Users\Grillmo\AppData\Local\Temp\ccEAP0ji.s:664    .text.buffer_get_float32:00000000 $t
C:\Users\Grillmo\AppData\Local\Temp\ccEAP0ji.s:672    .text.buffer_get_float32:00000000 buffer_get_float32
C:\Users\Grillmo\AppData\Local\Temp\ccEAP0ji.s:696    .text.buffer_get_float32_auto:00000000 $t
C:\Users\Grillmo\AppData\Local\Temp\ccEAP0ji.s:704    .text.buffer_get_float32_auto:00000000 buffer_get_float32_auto
C:\Users\Grillmo\AppData\Local\Temp\ccEAP0ji.s:767    .text.buffer_get_float32_auto:00000040 $d
                     .debug_frame:00000010 $d

UNDEFINED SYMBOLS
frexpf
ldexpf
