ARM GAS  /var/tmp//ccGbfAGO.s 			page 1


   1              		.cpu cortex-m4
   2              		.eabi_attribute 27, 1
   3              		.eabi_attribute 28, 1
   4              		.eabi_attribute 20, 1
   5              		.eabi_attribute 21, 1
   6              		.eabi_attribute 23, 3
   7              		.eabi_attribute 24, 1
   8              		.eabi_attribute 25, 1
   9              		.eabi_attribute 26, 1
  10              		.eabi_attribute 30, 2
  11              		.eabi_attribute 34, 1
  12              		.eabi_attribute 18, 4
  13              		.file	"chcond.c"
  14              		.text
  15              	.Ltext0:
  16              		.cfi_sections	.debug_frame
  17              		.section	.text.chCondObjectInit,"ax",%progbits
  18              		.align	1
  19              		.p2align 4,,15
  20              		.global	chCondObjectInit
  21              		.syntax unified
  22              		.thumb
  23              		.thumb_func
  24              		.fpu fpv4-sp-d16
  25              		.type	chCondObjectInit, %function
  26              	chCondObjectInit:
  27              	.LFB219:
  28              		.file 1 "ChibiOS_3.0.2/os/rt/src/chcond.c"
  29              		.loc 1 75 0
  30              		.cfi_startproc
  31              		@ args = 0, pretend = 0, frame = 0
  32              		@ frame_needed = 0, uses_anonymous_args = 0
  33              		@ link register save eliminated.
  34              	.LVL0:
  35              	.LBB89:
  36              	.LBB90:
  37              		.file 2 "ChibiOS_3.0.2/os/rt/include/chschd.h"
  38              		.loc 2 604 0
  39 0000 0060     		str	r0, [r0]
  40              		.loc 2 605 0
  41 0002 4060     		str	r0, [r0, #4]
  42              	.LVL1:
  43 0004 7047     		bx	lr
  44              	.LBE90:
  45              	.LBE89:
  46              		.cfi_endproc
  47              	.LFE219:
  48              		.size	chCondObjectInit, .-chCondObjectInit
  49 0006 00BF     		.section	.text.chCondSignal,"ax",%progbits
  50              		.align	1
  51              		.p2align 4,,15
  52              		.global	chCondSignal
  53              		.syntax unified
  54              		.thumb
  55              		.thumb_func
  56              		.fpu fpv4-sp-d16
  57              		.type	chCondSignal, %function
ARM GAS  /var/tmp//ccGbfAGO.s 			page 2


  58              	chCondSignal:
  59              	.LFB220:
  60              		.loc 1 89 0
  61              		.cfi_startproc
  62              		@ args = 0, pretend = 0, frame = 0
  63              		@ frame_needed = 0, uses_anonymous_args = 0
  64              	.LVL2:
  65 0000 08B5     		push	{r3, lr}
  66              		.cfi_def_cfa_offset 8
  67              		.cfi_offset 3, -8
  68              		.cfi_offset 14, -4
  69              	.LBB91:
  70              	.LBB92:
  71              	.LBB93:
  72              	.LBB94:
  73              		.file 3 "ChibiOS_3.0.2/os/ext/CMSIS/include/core_cmFunc.h"
  74              		.loc 3 546 0
  75 0002 2023     		movs	r3, #32
  76              		.syntax unified
  77              	@ 546 "ChibiOS_3.0.2/os/ext/CMSIS/include/core_cmFunc.h" 1
  78 0004 83F31188 		MSR basepri, r3
  79              	@ 0 "" 2
  80              	.LVL3:
  81              		.thumb
  82              		.syntax unified
  83              	.LBE94:
  84              	.LBE93:
  85              	.LBE92:
  86              	.LBE91:
  87              	.LBB95:
  88              	.LBB96:
  89              		.loc 2 631 0
  90 0008 0268     		ldr	r2, [r0]
  91              	.LVL4:
  92              	.LBE96:
  93              	.LBE95:
  94              		.loc 1 94 0
  95 000a 9042     		cmp	r0, r2
  96 000c 07D0     		beq	.L3
  97              	.LBB97:
  98              	.LBB98:
  99              		.loc 2 674 0
 100 000e 1168     		ldr	r1, [r2]
 101 0010 0160     		str	r1, [r0]
 102 0012 0346     		mov	r3, r0
 103              	.LVL5:
 104              		.loc 2 675 0
 105 0014 4B60     		str	r3, [r1, #4]
 106              	.LVL6:
 107              	.LBE98:
 108              	.LBE97:
 109              		.loc 1 95 0
 110 0016 1046     		mov	r0, r2
 111              	.LVL7:
 112 0018 0021     		movs	r1, #0
 113 001a FFF7FEFF 		bl	chSchWakeupS
 114              	.LVL8:
ARM GAS  /var/tmp//ccGbfAGO.s 			page 3


 115              	.L3:
 116              	.LBB99:
 117              	.LBB100:
 118              	.LBB101:
 119              	.LBB102:
 120              	.LBB103:
 121              		.loc 3 546 0
 122 001e 0023     		movs	r3, #0
 123              		.syntax unified
 124              	@ 546 "ChibiOS_3.0.2/os/ext/CMSIS/include/core_cmFunc.h" 1
 125 0020 83F31188 		MSR basepri, r3
 126              	@ 0 "" 2
 127              	.LVL9:
 128              		.thumb
 129              		.syntax unified
 130 0024 08BD     		pop	{r3, pc}
 131              	.LBE103:
 132              	.LBE102:
 133              	.LBE101:
 134              	.LBE100:
 135              	.LBE99:
 136              		.cfi_endproc
 137              	.LFE220:
 138              		.size	chCondSignal, .-chCondSignal
 139 0026 00BF     		.section	.text.chCondSignalI,"ax",%progbits
 140              		.align	1
 141              		.p2align 4,,15
 142              		.global	chCondSignalI
 143              		.syntax unified
 144              		.thumb
 145              		.thumb_func
 146              		.fpu fpv4-sp-d16
 147              		.type	chCondSignalI, %function
 148              	chCondSignalI:
 149              	.LFB221:
 150              		.loc 1 111 0
 151              		.cfi_startproc
 152              		@ args = 0, pretend = 0, frame = 0
 153              		@ frame_needed = 0, uses_anonymous_args = 0
 154              		@ link register save eliminated.
 155              	.LVL10:
 156              	.LBB104:
 157              	.LBB105:
 158              		.loc 2 631 0
 159 0000 0368     		ldr	r3, [r0]
 160              	.LVL11:
 161              	.LBE105:
 162              	.LBE104:
 163              		.loc 1 116 0
 164 0002 9842     		cmp	r0, r3
 165 0004 07D0     		beq	.L6
 166              	.LVL12:
 167              	.LBB106:
 168              	.LBB107:
 169              	.LBB108:
 170              		.loc 2 674 0
 171 0006 1A68     		ldr	r2, [r3]
ARM GAS  /var/tmp//ccGbfAGO.s 			page 4


 172 0008 0260     		str	r2, [r0]
 173              	.LBE108:
 174              	.LBE107:
 175              		.loc 1 118 0
 176 000a 0021     		movs	r1, #0
 177              	.LBB110:
 178              	.LBB109:
 179              		.loc 2 675 0
 180 000c 5060     		str	r0, [r2, #4]
 181              	.LVL13:
 182              	.LBE109:
 183              	.LBE110:
 184              		.loc 1 119 0
 185 000e 1846     		mov	r0, r3
 186              	.LVL14:
 187              		.loc 1 118 0
 188 0010 5962     		str	r1, [r3, #36]
 189              	.LVL15:
 190              		.loc 1 119 0
 191 0012 FFF7FEBF 		b	chSchReadyI
 192              	.LVL16:
 193              	.L6:
 194 0016 7047     		bx	lr
 195              	.LBE106:
 196              		.cfi_endproc
 197              	.LFE221:
 198              		.size	chCondSignalI, .-chCondSignalI
 199              		.section	.text.chCondBroadcast,"ax",%progbits
 200              		.align	1
 201              		.p2align 4,,15
 202              		.global	chCondBroadcast
 203              		.syntax unified
 204              		.thumb
 205              		.thumb_func
 206              		.fpu fpv4-sp-d16
 207              		.type	chCondBroadcast, %function
 208              	chCondBroadcast:
 209              	.LFB222:
 210              		.loc 1 130 0
 211              		.cfi_startproc
 212              		@ args = 0, pretend = 0, frame = 0
 213              		@ frame_needed = 0, uses_anonymous_args = 0
 214              	.LVL17:
 215 0000 38B5     		push	{r3, r4, r5, lr}
 216              		.cfi_def_cfa_offset 16
 217              		.cfi_offset 3, -16
 218              		.cfi_offset 4, -12
 219              		.cfi_offset 5, -8
 220              		.cfi_offset 14, -4
 221              		.loc 1 130 0
 222 0002 0446     		mov	r4, r0
 223              	.LBB111:
 224              	.LBB112:
 225              	.LBB113:
 226              	.LBB114:
 227              		.loc 3 546 0
 228 0004 2023     		movs	r3, #32
ARM GAS  /var/tmp//ccGbfAGO.s 			page 5


 229              		.syntax unified
 230              	@ 546 "ChibiOS_3.0.2/os/ext/CMSIS/include/core_cmFunc.h" 1
 231 0006 83F31188 		MSR basepri, r3
 232              	@ 0 "" 2
 233              	.LVL18:
 234              		.thumb
 235              		.syntax unified
 236              	.LBE114:
 237              	.LBE113:
 238              	.LBE112:
 239              	.LBE111:
 240              	.LBB115:
 241              	.LBB116:
 242              	.LBB117:
 243              	.LBB118:
 244              		.loc 2 631 0
 245 000a 0068     		ldr	r0, [r0]
 246              	.LVL19:
 247              	.LBE118:
 248              	.LBE117:
 249              		.loc 1 157 0
 250 000c 8442     		cmp	r4, r0
 251              		.loc 1 158 0
 252 000e 18BF     		it	ne
 253 0010 6FF00105 		mvnne	r5, #1
 254              		.loc 1 157 0
 255 0014 08D0     		beq	.L11
 256              	.L10:
 257              	.LVL20:
 258              	.LBB120:
 259              	.LBB121:
 260              		.loc 2 674 0
 261 0016 0368     		ldr	r3, [r0]
 262 0018 2360     		str	r3, [r4]
 263              		.loc 2 675 0
 264 001a 5C60     		str	r4, [r3, #4]
 265              	.LVL21:
 266              	.LBE121:
 267              	.LBE120:
 268              		.loc 1 158 0
 269 001c FFF7FEFF 		bl	chSchReadyI
 270              	.LVL22:
 271 0020 4562     		str	r5, [r0, #36]
 272              	.LVL23:
 273              	.LBB122:
 274              	.LBB119:
 275              		.loc 2 631 0
 276 0022 2068     		ldr	r0, [r4]
 277              	.LVL24:
 278              	.LBE119:
 279              	.LBE122:
 280              		.loc 1 157 0
 281 0024 A042     		cmp	r0, r4
 282 0026 F6D1     		bne	.L10
 283              	.L11:
 284              	.LBE116:
 285              	.LBE115:
ARM GAS  /var/tmp//ccGbfAGO.s 			page 6


 286              		.loc 1 134 0
 287 0028 FFF7FEFF 		bl	chSchRescheduleS
 288              	.LVL25:
 289              	.LBB123:
 290              	.LBB124:
 291              	.LBB125:
 292              	.LBB126:
 293              	.LBB127:
 294              		.loc 3 546 0
 295 002c 0023     		movs	r3, #0
 296              		.syntax unified
 297              	@ 546 "ChibiOS_3.0.2/os/ext/CMSIS/include/core_cmFunc.h" 1
 298 002e 83F31188 		MSR basepri, r3
 299              	@ 0 "" 2
 300              	.LVL26:
 301              		.thumb
 302              		.syntax unified
 303              	.LBE127:
 304              	.LBE126:
 305              	.LBE125:
 306              	.LBE124:
 307              	.LBE123:
 308              		.loc 1 136 0
 309 0032 38BD     		pop	{r3, r4, r5, pc}
 310              		.cfi_endproc
 311              	.LFE222:
 312              		.size	chCondBroadcast, .-chCondBroadcast
 313              		.section	.text.chCondBroadcastI,"ax",%progbits
 314              		.align	1
 315              		.p2align 4,,15
 316              		.global	chCondBroadcastI
 317              		.syntax unified
 318              		.thumb
 319              		.thumb_func
 320              		.fpu fpv4-sp-d16
 321              		.type	chCondBroadcastI, %function
 322              	chCondBroadcastI:
 323              	.LFB223:
 324              		.loc 1 149 0
 325              		.cfi_startproc
 326              		@ args = 0, pretend = 0, frame = 0
 327              		@ frame_needed = 0, uses_anonymous_args = 0
 328              	.LVL27:
 329 0000 38B5     		push	{r3, r4, r5, lr}
 330              		.cfi_def_cfa_offset 16
 331              		.cfi_offset 3, -16
 332              		.cfi_offset 4, -12
 333              		.cfi_offset 5, -8
 334              		.cfi_offset 14, -4
 335              		.loc 1 149 0
 336 0002 0446     		mov	r4, r0
 337              	.LVL28:
 338              	.LBB128:
 339              	.LBB129:
 340              		.loc 2 631 0
 341 0004 0068     		ldr	r0, [r0]
 342              	.LVL29:
ARM GAS  /var/tmp//ccGbfAGO.s 			page 7


 343              	.LBE129:
 344              	.LBE128:
 345              		.loc 1 157 0
 346 0006 8442     		cmp	r4, r0
 347 0008 0AD0     		beq	.L15
 348              		.loc 1 158 0
 349 000a 6FF00105 		mvn	r5, #1
 350              	.L17:
 351              	.LVL30:
 352              	.LBB131:
 353              	.LBB132:
 354              		.loc 2 674 0
 355 000e 0368     		ldr	r3, [r0]
 356 0010 2360     		str	r3, [r4]
 357              		.loc 2 675 0
 358 0012 5C60     		str	r4, [r3, #4]
 359              	.LVL31:
 360              	.LBE132:
 361              	.LBE131:
 362              		.loc 1 158 0
 363 0014 FFF7FEFF 		bl	chSchReadyI
 364              	.LVL32:
 365 0018 4562     		str	r5, [r0, #36]
 366              	.LVL33:
 367              	.LBB133:
 368              	.LBB130:
 369              		.loc 2 631 0
 370 001a 2068     		ldr	r0, [r4]
 371              	.LVL34:
 372              	.LBE130:
 373              	.LBE133:
 374              		.loc 1 157 0
 375 001c A042     		cmp	r0, r4
 376 001e F6D1     		bne	.L17
 377              	.L15:
 378 0020 38BD     		pop	{r3, r4, r5, pc}
 379              		.cfi_endproc
 380              	.LFE223:
 381              		.size	chCondBroadcastI, .-chCondBroadcastI
 382 0022 00BF     		.section	.text.chCondWaitS,"ax",%progbits
 383              		.align	1
 384              		.p2align 4,,15
 385              		.global	chCondWaitS
 386              		.syntax unified
 387              		.thumb
 388              		.thumb_func
 389              		.fpu fpv4-sp-d16
 390              		.type	chCondWaitS, %function
 391              	chCondWaitS:
 392              	.LFB225:
 393              		.loc 1 205 0
 394              		.cfi_startproc
 395              		@ args = 0, pretend = 0, frame = 0
 396              		@ frame_needed = 0, uses_anonymous_args = 0
 397              	.LVL35:
 398              		.loc 1 206 0
 399 0000 0F4B     		ldr	r3, .L29
ARM GAS  /var/tmp//ccGbfAGO.s 			page 8


 400              		.loc 1 205 0
 401 0002 70B5     		push	{r4, r5, r6, lr}
 402              		.cfi_def_cfa_offset 16
 403              		.cfi_offset 4, -16
 404              		.cfi_offset 5, -12
 405              		.cfi_offset 6, -8
 406              		.cfi_offset 14, -4
 407              		.loc 1 206 0
 408 0004 9C69     		ldr	r4, [r3, #24]
 409              	.LVL36:
 410              	.LBB134:
 411              	.LBB135:
 412              		.file 4 "ChibiOS_3.0.2/os/rt/include/chmtx.h"
 413              		.loc 4 146 0
 414 0006 E66B     		ldr	r6, [r4, #60]
 415              	.LBE135:
 416              	.LBE134:
 417              		.loc 1 205 0
 418 0008 0546     		mov	r5, r0
 419              		.loc 1 216 0
 420 000a 3046     		mov	r0, r6
 421              	.LVL37:
 422 000c FFF7FEFF 		bl	chMtxUnlockS
 423              	.LVL38:
 424              		.loc 1 220 0
 425 0010 6562     		str	r5, [r4, #36]
 426              	.LVL39:
 427              		.loc 1 221 0
 428 0012 2B46     		mov	r3, r5
 429 0014 03E0     		b	.L23
 430              	.LVL40:
 431              	.L28:
 432              	.LBB136:
 433              	.LBB137:
 434              		.loc 2 656 0
 435 0016 9968     		ldr	r1, [r3, #8]
 436 0018 A268     		ldr	r2, [r4, #8]
 437 001a 9142     		cmp	r1, r2
 438 001c 02D3     		bcc	.L24
 439              	.LVL41:
 440              	.L23:
 441              		.loc 2 655 0
 442 001e 1B68     		ldr	r3, [r3]
 443              	.LVL42:
 444              		.loc 2 656 0
 445 0020 9D42     		cmp	r5, r3
 446 0022 F8D1     		bne	.L28
 447              	.L24:
 448              		.loc 2 658 0
 449 0024 5A68     		ldr	r2, [r3, #4]
 450 0026 6260     		str	r2, [r4, #4]
 451              		.loc 2 657 0
 452 0028 2360     		str	r3, [r4]
 453              	.LBE137:
 454              	.LBE136:
 455              		.loc 1 222 0
 456 002a 0720     		movs	r0, #7
ARM GAS  /var/tmp//ccGbfAGO.s 			page 9


 457              	.LBB139:
 458              	.LBB138:
 459              		.loc 2 659 0
 460 002c 1460     		str	r4, [r2]
 461              		.loc 2 660 0
 462 002e 5C60     		str	r4, [r3, #4]
 463              	.LVL43:
 464              	.LBE138:
 465              	.LBE139:
 466              		.loc 1 222 0
 467 0030 FFF7FEFF 		bl	chSchGoSleepS
 468              	.LVL44:
 469              		.loc 1 223 0
 470 0034 646A     		ldr	r4, [r4, #36]
 471              	.LVL45:
 472              		.loc 1 224 0
 473 0036 3046     		mov	r0, r6
 474 0038 FFF7FEFF 		bl	chMtxLockS
 475              	.LVL46:
 476              		.loc 1 227 0
 477 003c 2046     		mov	r0, r4
 478 003e 70BD     		pop	{r4, r5, r6, pc}
 479              	.LVL47:
 480              	.L30:
 481              		.align	2
 482              	.L29:
 483 0040 00000000 		.word	ch
 484              		.cfi_endproc
 485              	.LFE225:
 486              		.size	chCondWaitS, .-chCondWaitS
 487              		.section	.text.chCondWait,"ax",%progbits
 488              		.align	1
 489              		.p2align 4,,15
 490              		.global	chCondWait
 491              		.syntax unified
 492              		.thumb
 493              		.thumb_func
 494              		.fpu fpv4-sp-d16
 495              		.type	chCondWait, %function
 496              	chCondWait:
 497              	.LFB224:
 498              		.loc 1 179 0
 499              		.cfi_startproc
 500              		@ args = 0, pretend = 0, frame = 0
 501              		@ frame_needed = 0, uses_anonymous_args = 0
 502              	.LVL48:
 503 0000 08B5     		push	{r3, lr}
 504              		.cfi_def_cfa_offset 8
 505              		.cfi_offset 3, -8
 506              		.cfi_offset 14, -4
 507              	.LBB140:
 508              	.LBB141:
 509              	.LBB142:
 510              	.LBB143:
 511              		.loc 3 546 0
 512 0002 2023     		movs	r3, #32
 513              		.syntax unified
ARM GAS  /var/tmp//ccGbfAGO.s 			page 10


 514              	@ 546 "ChibiOS_3.0.2/os/ext/CMSIS/include/core_cmFunc.h" 1
 515 0004 83F31188 		MSR basepri, r3
 516              	@ 0 "" 2
 517              	.LVL49:
 518              		.thumb
 519              		.syntax unified
 520              	.LBE143:
 521              	.LBE142:
 522              	.LBE141:
 523              	.LBE140:
 524              		.loc 1 183 0
 525 0008 FFF7FEFF 		bl	chCondWaitS
 526              	.LVL50:
 527              	.LBB144:
 528              	.LBB145:
 529              	.LBB146:
 530              	.LBB147:
 531              	.LBB148:
 532              		.loc 3 546 0
 533 000c 0023     		movs	r3, #0
 534              		.syntax unified
 535              	@ 546 "ChibiOS_3.0.2/os/ext/CMSIS/include/core_cmFunc.h" 1
 536 000e 83F31188 		MSR basepri, r3
 537              	@ 0 "" 2
 538              	.LVL51:
 539              		.thumb
 540              		.syntax unified
 541              	.LBE148:
 542              	.LBE147:
 543              	.LBE146:
 544              	.LBE145:
 545              	.LBE144:
 546              		.loc 1 186 0
 547 0012 08BD     		pop	{r3, pc}
 548              		.cfi_endproc
 549              	.LFE224:
 550              		.size	chCondWait, .-chCondWait
 551              		.section	.text.chCondWaitTimeoutS,"ax",%progbits
 552              		.align	1
 553              		.p2align 4,,15
 554              		.global	chCondWaitTimeoutS
 555              		.syntax unified
 556              		.thumb
 557              		.thumb_func
 558              		.fpu fpv4-sp-d16
 559              		.type	chCondWaitTimeoutS, %function
 560              	chCondWaitTimeoutS:
 561              	.LFB227:
 562              		.loc 1 296 0
 563              		.cfi_startproc
 564              		@ args = 0, pretend = 0, frame = 0
 565              		@ frame_needed = 0, uses_anonymous_args = 0
 566              	.LVL52:
 567 0000 F8B5     		push	{r3, r4, r5, r6, r7, lr}
 568              		.cfi_def_cfa_offset 24
 569              		.cfi_offset 3, -24
 570              		.cfi_offset 4, -20
ARM GAS  /var/tmp//ccGbfAGO.s 			page 11


 571              		.cfi_offset 5, -16
 572              		.cfi_offset 6, -12
 573              		.cfi_offset 7, -8
 574              		.cfi_offset 14, -4
 575              	.LBB149:
 576              	.LBB150:
 577              	.LBB151:
 578              	.LBB152:
 579              		.file 5 "ChibiOS_3.0.2/os/rt/include/chthreads.h"
 580              		.loc 5 176 0
 581 0002 124C     		ldr	r4, .L41
 582              	.LBE152:
 583              	.LBE151:
 584              		.loc 4 146 0
 585 0004 A369     		ldr	r3, [r4, #24]
 586 0006 DE6B     		ldr	r6, [r3, #60]
 587              	.LBE150:
 588              	.LBE149:
 589              		.loc 1 296 0
 590 0008 0546     		mov	r5, r0
 591              		.loc 1 306 0
 592 000a 3046     		mov	r0, r6
 593              	.LVL53:
 594              		.loc 1 296 0
 595 000c 0F46     		mov	r7, r1
 596              		.loc 1 306 0
 597 000e FFF7FEFF 		bl	chMtxUnlockS
 598              	.LVL54:
 599              		.loc 1 310 0
 600 0012 A469     		ldr	r4, [r4, #24]
 601              		.loc 1 311 0
 602 0014 2B46     		mov	r3, r5
 603              		.loc 1 310 0
 604 0016 6562     		str	r5, [r4, #36]
 605              	.LVL55:
 606 0018 03E0     		b	.L37
 607              	.LVL56:
 608              	.L34:
 609              	.LBB153:
 610              	.LBB154:
 611              		.loc 2 656 0
 612 001a 9868     		ldr	r0, [r3, #8]
 613 001c A268     		ldr	r2, [r4, #8]
 614 001e 9042     		cmp	r0, r2
 615 0020 02D3     		bcc	.L38
 616              	.LVL57:
 617              	.L37:
 618              		.loc 2 655 0
 619 0022 1B68     		ldr	r3, [r3]
 620              	.LVL58:
 621              		.loc 2 656 0
 622 0024 9D42     		cmp	r5, r3
 623 0026 F8D1     		bne	.L34
 624              	.L38:
 625              		.loc 2 658 0
 626 0028 5A68     		ldr	r2, [r3, #4]
 627 002a 6260     		str	r2, [r4, #4]
ARM GAS  /var/tmp//ccGbfAGO.s 			page 12


 628              		.loc 2 657 0
 629 002c 2360     		str	r3, [r4]
 630              	.LBE154:
 631              	.LBE153:
 632              		.loc 1 312 0
 633 002e 3946     		mov	r1, r7
 634              	.LBB157:
 635              	.LBB155:
 636              		.loc 2 659 0
 637 0030 1460     		str	r4, [r2]
 638              	.LBE155:
 639              	.LBE157:
 640              		.loc 1 312 0
 641 0032 0720     		movs	r0, #7
 642              	.LBB158:
 643              	.LBB156:
 644              		.loc 2 660 0
 645 0034 5C60     		str	r4, [r3, #4]
 646              	.LVL59:
 647              	.LBE156:
 648              	.LBE158:
 649              		.loc 1 312 0
 650 0036 FFF7FEFF 		bl	chSchGoSleepTimeoutS
 651              	.LVL60:
 652              		.loc 1 313 0
 653 003a 431C     		adds	r3, r0, #1
 654              		.loc 1 312 0
 655 003c 0446     		mov	r4, r0
 656              	.LVL61:
 657              		.loc 1 313 0
 658 003e 02D0     		beq	.L33
 659              		.loc 1 314 0
 660 0040 3046     		mov	r0, r6
 661              	.LVL62:
 662 0042 FFF7FEFF 		bl	chMtxLockS
 663              	.LVL63:
 664              	.L33:
 665              		.loc 1 318 0
 666 0046 2046     		mov	r0, r4
 667 0048 F8BD     		pop	{r3, r4, r5, r6, r7, pc}
 668              	.LVL64:
 669              	.L42:
 670 004a 00BF     		.align	2
 671              	.L41:
 672 004c 00000000 		.word	ch
 673              		.cfi_endproc
 674              	.LFE227:
 675              		.size	chCondWaitTimeoutS, .-chCondWaitTimeoutS
 676              		.section	.text.chCondWaitTimeout,"ax",%progbits
 677              		.align	1
 678              		.p2align 4,,15
 679              		.global	chCondWaitTimeout
 680              		.syntax unified
 681              		.thumb
 682              		.thumb_func
 683              		.fpu fpv4-sp-d16
 684              		.type	chCondWaitTimeout, %function
ARM GAS  /var/tmp//ccGbfAGO.s 			page 13


 685              	chCondWaitTimeout:
 686              	.LFB226:
 687              		.loc 1 258 0
 688              		.cfi_startproc
 689              		@ args = 0, pretend = 0, frame = 0
 690              		@ frame_needed = 0, uses_anonymous_args = 0
 691              	.LVL65:
 692 0000 08B5     		push	{r3, lr}
 693              		.cfi_def_cfa_offset 8
 694              		.cfi_offset 3, -8
 695              		.cfi_offset 14, -4
 696              	.LBB159:
 697              	.LBB160:
 698              	.LBB161:
 699              	.LBB162:
 700              		.loc 3 546 0
 701 0002 2023     		movs	r3, #32
 702              		.syntax unified
 703              	@ 546 "ChibiOS_3.0.2/os/ext/CMSIS/include/core_cmFunc.h" 1
 704 0004 83F31188 		MSR basepri, r3
 705              	@ 0 "" 2
 706              	.LVL66:
 707              		.thumb
 708              		.syntax unified
 709              	.LBE162:
 710              	.LBE161:
 711              	.LBE160:
 712              	.LBE159:
 713              		.loc 1 262 0
 714 0008 FFF7FEFF 		bl	chCondWaitTimeoutS
 715              	.LVL67:
 716              	.LBB163:
 717              	.LBB164:
 718              	.LBB165:
 719              	.LBB166:
 720              	.LBB167:
 721              		.loc 3 546 0
 722 000c 0023     		movs	r3, #0
 723              		.syntax unified
 724              	@ 546 "ChibiOS_3.0.2/os/ext/CMSIS/include/core_cmFunc.h" 1
 725 000e 83F31188 		MSR basepri, r3
 726              	@ 0 "" 2
 727              	.LVL68:
 728              		.thumb
 729              		.syntax unified
 730              	.LBE167:
 731              	.LBE166:
 732              	.LBE165:
 733              	.LBE164:
 734              	.LBE163:
 735              		.loc 1 266 0
 736 0012 08BD     		pop	{r3, pc}
 737              		.cfi_endproc
 738              	.LFE226:
 739              		.size	chCondWaitTimeout, .-chCondWaitTimeout
 740              		.text
 741              	.Letext0:
ARM GAS  /var/tmp//ccGbfAGO.s 			page 14


 742              		.file 6 "/usr/local/gcc_arm/gcc-arm-none-eabi-6-2017-q2-update/arm-none-eabi/include/machine/_defa
 743              		.file 7 "/usr/local/gcc_arm/gcc-arm-none-eabi-6-2017-q2-update/arm-none-eabi/include/sys/_stdint.h
 744              		.file 8 "ChibiOS_3.0.2/os/rt/ports/ARMCMx/compilers/GCC/chtypes.h"
 745              		.file 9 "ChibiOS_3.0.2/os/rt/include/chsystypes.h"
 746              		.file 10 "ChibiOS_3.0.2/os/ext/CMSIS/include/core_cm4.h"
 747              		.file 11 "ChibiOS_3.0.2/os/ext/CMSIS/ST/system_stm32f4xx.h"
 748              		.file 12 "ChibiOS_3.0.2/os/rt/ports/ARMCMx/chcore.h"
 749              		.file 13 "ChibiOS_3.0.2/os/rt/ports/ARMCMx/chcore_v7m.h"
 750              		.file 14 "ChibiOS_3.0.2/os/rt/include/chtm.h"
 751              		.file 15 "ChibiOS_3.0.2/os/rt/include/chsem.h"
 752              		.file 16 "ChibiOS_3.0.2/os/rt/include/chregistry.h"
 753              		.file 17 "ChibiOS_3.0.2/os/rt/include/chcond.h"
 754              		.file 18 "ChibiOS_3.0.2/os/rt/include/chsys.h"
 755              		.section	.debug_info,"",%progbits
 756              	.Ldebug_info0:
 757 0000 8C110000 		.4byte	0x118c
 758 0004 0400     		.2byte	0x4
 759 0006 00000000 		.4byte	.Ldebug_abbrev0
 760 000a 04       		.byte	0x4
 761 000b 01       		.uleb128 0x1
 762 000c 64030000 		.4byte	.LASF162
 763 0010 0C       		.byte	0xc
 764 0011 E6000000 		.4byte	.LASF163
 765 0015 FC020000 		.4byte	.LASF164
 766 0019 80000000 		.4byte	.Ldebug_ranges0+0x80
 767 001d 00000000 		.4byte	0
 768 0021 00000000 		.4byte	.Ldebug_line0
 769 0025 02       		.uleb128 0x2
 770 0026 04       		.byte	0x4
 771 0027 05       		.byte	0x5
 772 0028 696E7400 		.ascii	"int\000"
 773 002c 03       		.uleb128 0x3
 774 002d 04       		.byte	0x4
 775 002e 07       		.byte	0x7
 776 002f 6D020000 		.4byte	.LASF0
 777 0033 03       		.uleb128 0x3
 778 0034 01       		.byte	0x1
 779 0035 06       		.byte	0x6
 780 0036 3A010000 		.4byte	.LASF1
 781 003a 04       		.uleb128 0x4
 782 003b 3F000000 		.4byte	.LASF4
 783 003f 06       		.byte	0x6
 784 0040 2B       		.byte	0x2b
 785 0041 45000000 		.4byte	0x45
 786 0045 03       		.uleb128 0x3
 787 0046 01       		.byte	0x1
 788 0047 08       		.byte	0x8
 789 0048 B8050000 		.4byte	.LASF2
 790 004c 03       		.uleb128 0x3
 791 004d 02       		.byte	0x2
 792 004e 05       		.byte	0x5
 793 004f D0050000 		.4byte	.LASF3
 794 0053 04       		.uleb128 0x4
 795 0054 F9060000 		.4byte	.LASF5
 796 0058 06       		.byte	0x6
 797 0059 39       		.byte	0x39
 798 005a 5E000000 		.4byte	0x5e
ARM GAS  /var/tmp//ccGbfAGO.s 			page 15


 799 005e 03       		.uleb128 0x3
 800 005f 02       		.byte	0x2
 801 0060 07       		.byte	0x7
 802 0061 CC020000 		.4byte	.LASF6
 803 0065 04       		.uleb128 0x4
 804 0066 4F030000 		.4byte	.LASF7
 805 006a 06       		.byte	0x6
 806 006b 4D       		.byte	0x4d
 807 006c 70000000 		.4byte	0x70
 808 0070 03       		.uleb128 0x3
 809 0071 04       		.byte	0x4
 810 0072 05       		.byte	0x5
 811 0073 AF010000 		.4byte	.LASF8
 812 0077 04       		.uleb128 0x4
 813 0078 45070000 		.4byte	.LASF9
 814 007c 06       		.byte	0x6
 815 007d 4F       		.byte	0x4f
 816 007e 82000000 		.4byte	0x82
 817 0082 03       		.uleb128 0x3
 818 0083 04       		.byte	0x4
 819 0084 07       		.byte	0x7
 820 0085 DB060000 		.4byte	.LASF10
 821 0089 03       		.uleb128 0x3
 822 008a 08       		.byte	0x8
 823 008b 05       		.byte	0x5
 824 008c 2C010000 		.4byte	.LASF11
 825 0090 04       		.uleb128 0x4
 826 0091 5F050000 		.4byte	.LASF12
 827 0095 06       		.byte	0x6
 828 0096 69       		.byte	0x69
 829 0097 9B000000 		.4byte	0x9b
 830 009b 03       		.uleb128 0x3
 831 009c 08       		.byte	0x8
 832 009d 07       		.byte	0x7
 833 009e 8A000000 		.4byte	.LASF13
 834 00a2 04       		.uleb128 0x4
 835 00a3 DB070000 		.4byte	.LASF14
 836 00a7 07       		.byte	0x7
 837 00a8 18       		.byte	0x18
 838 00a9 3A000000 		.4byte	0x3a
 839 00ad 04       		.uleb128 0x4
 840 00ae 82020000 		.4byte	.LASF15
 841 00b2 07       		.byte	0x7
 842 00b3 24       		.byte	0x24
 843 00b4 53000000 		.4byte	0x53
 844 00b8 04       		.uleb128 0x4
 845 00b9 B0050000 		.4byte	.LASF16
 846 00bd 07       		.byte	0x7
 847 00be 2C       		.byte	0x2c
 848 00bf 65000000 		.4byte	0x65
 849 00c3 05       		.uleb128 0x5
 850 00c4 B8000000 		.4byte	0xb8
 851 00c8 04       		.uleb128 0x4
 852 00c9 9A060000 		.4byte	.LASF17
 853 00cd 07       		.byte	0x7
 854 00ce 30       		.byte	0x30
 855 00cf 77000000 		.4byte	0x77
ARM GAS  /var/tmp//ccGbfAGO.s 			page 16


 856 00d3 04       		.uleb128 0x4
 857 00d4 36000000 		.4byte	.LASF18
 858 00d8 07       		.byte	0x7
 859 00d9 3C       		.byte	0x3c
 860 00da 90000000 		.4byte	0x90
 861 00de 04       		.uleb128 0x4
 862 00df 89070000 		.4byte	.LASF19
 863 00e3 08       		.byte	0x8
 864 00e4 45       		.byte	0x45
 865 00e5 C8000000 		.4byte	0xc8
 866 00e9 04       		.uleb128 0x4
 867 00ea 01060000 		.4byte	.LASF20
 868 00ee 08       		.byte	0x8
 869 00ef 48       		.byte	0x48
 870 00f0 A2000000 		.4byte	0xa2
 871 00f4 04       		.uleb128 0x4
 872 00f5 C4010000 		.4byte	.LASF21
 873 00f9 08       		.byte	0x8
 874 00fa 49       		.byte	0x49
 875 00fb A2000000 		.4byte	0xa2
 876 00ff 04       		.uleb128 0x4
 877 0100 6A050000 		.4byte	.LASF22
 878 0104 08       		.byte	0x8
 879 0105 4A       		.byte	0x4a
 880 0106 A2000000 		.4byte	0xa2
 881 010a 04       		.uleb128 0x4
 882 010b 9B010000 		.4byte	.LASF23
 883 010f 08       		.byte	0x8
 884 0110 4B       		.byte	0x4b
 885 0111 A2000000 		.4byte	0xa2
 886 0115 04       		.uleb128 0x4
 887 0116 94050000 		.4byte	.LASF24
 888 011a 08       		.byte	0x8
 889 011b 4C       		.byte	0x4c
 890 011c C8000000 		.4byte	0xc8
 891 0120 04       		.uleb128 0x4
 892 0121 F6020000 		.4byte	.LASF25
 893 0125 08       		.byte	0x8
 894 0126 4D       		.byte	0x4d
 895 0127 B8000000 		.4byte	0xb8
 896 012b 04       		.uleb128 0x4
 897 012c 43030000 		.4byte	.LASF26
 898 0130 08       		.byte	0x8
 899 0131 4F       		.byte	0x4f
 900 0132 C8000000 		.4byte	0xc8
 901 0136 04       		.uleb128 0x4
 902 0137 5A020000 		.4byte	.LASF27
 903 013b 08       		.byte	0x8
 904 013c 51       		.byte	0x51
 905 013d B8000000 		.4byte	0xb8
 906 0141 04       		.uleb128 0x4
 907 0142 27070000 		.4byte	.LASF28
 908 0146 09       		.byte	0x9
 909 0147 33       		.byte	0x33
 910 0148 C8000000 		.4byte	0xc8
 911 014c 05       		.uleb128 0x5
 912 014d 41010000 		.4byte	0x141
ARM GAS  /var/tmp//ccGbfAGO.s 			page 17


 913 0151 04       		.uleb128 0x4
 914 0152 BE070000 		.4byte	.LASF29
 915 0156 09       		.byte	0x9
 916 0157 3F       		.byte	0x3f
 917 0158 5C010000 		.4byte	0x15c
 918 015c 06       		.uleb128 0x6
 919 015d DF020000 		.4byte	.LASF51
 920 0161 48       		.byte	0x48
 921 0162 02       		.byte	0x2
 922 0163 C2       		.byte	0xc2
 923 0164 61020000 		.4byte	0x261
 924 0168 07       		.uleb128 0x7
 925 0169 FA050000 		.4byte	.LASF30
 926 016d 02       		.byte	0x2
 927 016e C3       		.byte	0xc3
 928 016f 6C020000 		.4byte	0x26c
 929 0173 00       		.byte	0
 930 0174 07       		.uleb128 0x7
 931 0175 8D050000 		.4byte	.LASF31
 932 0179 02       		.byte	0x2
 933 017a C5       		.byte	0xc5
 934 017b 6C020000 		.4byte	0x26c
 935 017f 04       		.byte	0x4
 936 0180 07       		.uleb128 0x7
 937 0181 18010000 		.4byte	.LASF32
 938 0185 02       		.byte	0x2
 939 0186 C7       		.byte	0xc7
 940 0187 15010000 		.4byte	0x115
 941 018b 08       		.byte	0x8
 942 018c 07       		.uleb128 0x7
 943 018d 1A050000 		.4byte	.LASF33
 944 0191 02       		.byte	0x2
 945 0192 C8       		.byte	0xc8
 946 0193 B8040000 		.4byte	0x4b8
 947 0197 0C       		.byte	0xc
 948 0198 07       		.uleb128 0x7
 949 0199 E6010000 		.4byte	.LASF34
 950 019d 02       		.byte	0x2
 951 019e CA       		.byte	0xca
 952 019f 6C020000 		.4byte	0x26c
 953 01a3 10       		.byte	0x10
 954 01a4 07       		.uleb128 0x7
 955 01a5 0C050000 		.4byte	.LASF35
 956 01a9 02       		.byte	0x2
 957 01aa CB       		.byte	0xcb
 958 01ab 6C020000 		.4byte	0x26c
 959 01af 14       		.byte	0x14
 960 01b0 07       		.uleb128 0x7
 961 01b1 FD070000 		.4byte	.LASF36
 962 01b5 02       		.byte	0x2
 963 01b6 D2       		.byte	0xd2
 964 01b7 FD060000 		.4byte	0x6fd
 965 01bb 18       		.byte	0x18
 966 01bc 07       		.uleb128 0x7
 967 01bd DA050000 		.4byte	.LASF37
 968 01c1 02       		.byte	0x2
 969 01c2 DD       		.byte	0xdd
ARM GAS  /var/tmp//ccGbfAGO.s 			page 18


 970 01c3 F4000000 		.4byte	0xf4
 971 01c7 1C       		.byte	0x1c
 972 01c8 07       		.uleb128 0x7
 973 01c9 18060000 		.4byte	.LASF38
 974 01cd 02       		.byte	0x2
 975 01ce E1       		.byte	0xe1
 976 01cf E9000000 		.4byte	0xe9
 977 01d3 1D       		.byte	0x1d
 978 01d4 07       		.uleb128 0x7
 979 01d5 B7070000 		.4byte	.LASF39
 980 01d9 02       		.byte	0x2
 981 01da E6       		.byte	0xe6
 982 01db FF000000 		.4byte	0xff
 983 01df 1E       		.byte	0x1e
 984 01e0 07       		.uleb128 0x7
 985 01e1 E2050000 		.4byte	.LASF40
 986 01e5 02       		.byte	0x2
 987 01e6 EC       		.byte	0xec
 988 01e7 0A010000 		.4byte	0x10a
 989 01eb 1F       		.byte	0x1f
 990 01ec 07       		.uleb128 0x7
 991 01ed 9B020000 		.4byte	.LASF41
 992 01f1 02       		.byte	0x2
 993 01f2 F3       		.byte	0xf3
 994 01f3 4C010000 		.4byte	0x14c
 995 01f7 20       		.byte	0x20
 996 01f8 08       		.uleb128 0x8
 997 01f9 705F7500 		.ascii	"p_u\000"
 998 01fd 02       		.byte	0x2
 999 01fe 3101     		.2byte	0x131
 1000 0200 38060000 		.4byte	0x638
 1001 0204 24       		.byte	0x24
 1002 0205 09       		.uleb128 0x9
 1003 0206 A4040000 		.4byte	.LASF42
 1004 020a 02       		.byte	0x2
 1005 020b 3601     		.2byte	0x136
 1006 020d 72020000 		.4byte	0x272
 1007 0211 28       		.byte	0x28
 1008 0212 09       		.uleb128 0x9
 1009 0213 B2020000 		.4byte	.LASF43
 1010 0217 02       		.byte	0x2
 1011 0218 3C01     		.2byte	0x13c
 1012 021a 96020000 		.4byte	0x296
 1013 021e 2C       		.byte	0x2c
 1014 021f 09       		.uleb128 0x9
 1015 0220 83070000 		.4byte	.LASF44
 1016 0224 02       		.byte	0x2
 1017 0225 4001     		.2byte	0x140
 1018 0227 20010000 		.4byte	0x120
 1019 022b 34       		.byte	0x34
 1020 022c 09       		.uleb128 0x9
 1021 022d 7C060000 		.4byte	.LASF45
 1022 0231 02       		.byte	0x2
 1023 0232 4601     		.2byte	0x146
 1024 0234 2B010000 		.4byte	0x12b
 1025 0238 38       		.byte	0x38
 1026 0239 09       		.uleb128 0x9
ARM GAS  /var/tmp//ccGbfAGO.s 			page 19


 1027 023a C6050000 		.4byte	.LASF46
 1028 023e 02       		.byte	0x2
 1029 023f 4D01     		.2byte	0x14d
 1030 0241 F7060000 		.4byte	0x6f7
 1031 0245 3C       		.byte	0x3c
 1032 0246 09       		.uleb128 0x9
 1033 0247 31070000 		.4byte	.LASF47
 1034 024b 02       		.byte	0x2
 1035 024c 5101     		.2byte	0x151
 1036 024e 15010000 		.4byte	0x115
 1037 0252 40       		.byte	0x40
 1038 0253 09       		.uleb128 0x9
 1039 0254 78010000 		.4byte	.LASF48
 1040 0258 02       		.byte	0x2
 1041 0259 5801     		.2byte	0x158
 1042 025b 4E030000 		.4byte	0x34e
 1043 025f 44       		.byte	0x44
 1044 0260 00       		.byte	0
 1045 0261 04       		.uleb128 0x4
 1046 0262 E3070000 		.4byte	.LASF49
 1047 0266 09       		.byte	0x9
 1048 0267 44       		.byte	0x44
 1049 0268 6C020000 		.4byte	0x26c
 1050 026c 0A       		.uleb128 0xa
 1051 026d 04       		.byte	0x4
 1052 026e 51010000 		.4byte	0x151
 1053 0272 04       		.uleb128 0x4
 1054 0273 00000000 		.4byte	.LASF50
 1055 0277 09       		.byte	0x9
 1056 0278 49       		.byte	0x49
 1057 0279 7D020000 		.4byte	0x27d
 1058 027d 06       		.uleb128 0x6
 1059 027e C3060000 		.4byte	.LASF52
 1060 0282 04       		.byte	0x4
 1061 0283 02       		.byte	0x2
 1062 0284 B0       		.byte	0xb0
 1063 0285 96020000 		.4byte	0x296
 1064 0289 07       		.uleb128 0x7
 1065 028a FA050000 		.4byte	.LASF30
 1066 028e 02       		.byte	0x2
 1067 028f B1       		.byte	0xb1
 1068 0290 6C020000 		.4byte	0x26c
 1069 0294 00       		.byte	0
 1070 0295 00       		.byte	0
 1071 0296 04       		.uleb128 0x4
 1072 0297 33060000 		.4byte	.LASF53
 1073 029b 09       		.byte	0x9
 1074 029c 50       		.byte	0x50
 1075 029d A6020000 		.4byte	0x2a6
 1076 02a1 0B       		.uleb128 0xb
 1077 02a2 96020000 		.4byte	0x296
 1078 02a6 06       		.uleb128 0x6
 1079 02a7 07010000 		.4byte	.LASF54
 1080 02ab 08       		.byte	0x8
 1081 02ac 02       		.byte	0x2
 1082 02ad B7       		.byte	0xb7
 1083 02ae CB020000 		.4byte	0x2cb
ARM GAS  /var/tmp//ccGbfAGO.s 			page 20


 1084 02b2 07       		.uleb128 0x7
 1085 02b3 FA050000 		.4byte	.LASF30
 1086 02b7 02       		.byte	0x2
 1087 02b8 B8       		.byte	0xb8
 1088 02b9 6C020000 		.4byte	0x26c
 1089 02bd 00       		.byte	0
 1090 02be 07       		.uleb128 0x7
 1091 02bf 8D050000 		.4byte	.LASF31
 1092 02c3 02       		.byte	0x2
 1093 02c4 B9       		.byte	0xb9
 1094 02c5 6C020000 		.4byte	0x26c
 1095 02c9 04       		.byte	0x4
 1096 02ca 00       		.byte	0
 1097 02cb 04       		.uleb128 0x4
 1098 02cc 1C000000 		.4byte	.LASF55
 1099 02d0 09       		.byte	0x9
 1100 02d1 57       		.byte	0x57
 1101 02d2 D6020000 		.4byte	0x2d6
 1102 02d6 0C       		.uleb128 0xc
 1103 02d7 35030000 		.4byte	.LASF56
 1104 02db 1C       		.byte	0x1c
 1105 02dc 02       		.byte	0x2
 1106 02dd 9001     		.2byte	0x190
 1107 02df 32030000 		.4byte	0x332
 1108 02e3 09       		.uleb128 0x9
 1109 02e4 AF060000 		.4byte	.LASF57
 1110 02e8 02       		.byte	0x2
 1111 02e9 9101     		.2byte	0x191
 1112 02eb 96020000 		.4byte	0x296
 1113 02ef 00       		.byte	0
 1114 02f0 09       		.uleb128 0x9
 1115 02f1 EC050000 		.4byte	.LASF58
 1116 02f5 02       		.byte	0x2
 1117 02f6 9201     		.2byte	0x192
 1118 02f8 15010000 		.4byte	0x115
 1119 02fc 08       		.byte	0x8
 1120 02fd 09       		.uleb128 0x9
 1121 02fe 14050000 		.4byte	.LASF59
 1122 0302 02       		.byte	0x2
 1123 0303 9401     		.2byte	0x194
 1124 0305 B8040000 		.4byte	0x4b8
 1125 0309 0C       		.byte	0xc
 1126 030a 09       		.uleb128 0x9
 1127 030b 07020000 		.4byte	.LASF60
 1128 030f 02       		.byte	0x2
 1129 0310 9701     		.2byte	0x197
 1130 0312 6C020000 		.4byte	0x26c
 1131 0316 10       		.byte	0x10
 1132 0317 09       		.uleb128 0x9
 1133 0318 47050000 		.4byte	.LASF61
 1134 031c 02       		.byte	0x2
 1135 031d 9801     		.2byte	0x198
 1136 031f 6C020000 		.4byte	0x26c
 1137 0323 14       		.byte	0x14
 1138 0324 09       		.uleb128 0x9
 1139 0325 3D050000 		.4byte	.LASF62
 1140 0329 02       		.byte	0x2
ARM GAS  /var/tmp//ccGbfAGO.s 			page 21


 1141 032a 9B01     		.2byte	0x19b
 1142 032c 6C020000 		.4byte	0x26c
 1143 0330 18       		.byte	0x18
 1144 0331 00       		.byte	0
 1145 0332 04       		.uleb128 0x4
 1146 0333 3C070000 		.4byte	.LASF63
 1147 0337 09       		.byte	0x9
 1148 0338 5C       		.byte	0x5c
 1149 0339 3D030000 		.4byte	0x33d
 1150 033d 0A       		.uleb128 0xa
 1151 033e 04       		.byte	0x4
 1152 033f 43030000 		.4byte	0x343
 1153 0343 0D       		.uleb128 0xd
 1154 0344 4E030000 		.4byte	0x34e
 1155 0348 0E       		.uleb128 0xe
 1156 0349 4E030000 		.4byte	0x34e
 1157 034d 00       		.byte	0
 1158 034e 0F       		.uleb128 0xf
 1159 034f 04       		.byte	0x4
 1160 0350 04       		.uleb128 0x4
 1161 0351 7D050000 		.4byte	.LASF64
 1162 0355 09       		.byte	0x9
 1163 0356 61       		.byte	0x61
 1164 0357 5B030000 		.4byte	0x35b
 1165 035b 0C       		.uleb128 0xc
 1166 035c 43060000 		.4byte	.LASF65
 1167 0360 14       		.byte	0x14
 1168 0361 02       		.byte	0x2
 1169 0362 6B01     		.2byte	0x16b
 1170 0364 AA030000 		.4byte	0x3aa
 1171 0368 09       		.uleb128 0x9
 1172 0369 7A020000 		.4byte	.LASF66
 1173 036d 02       		.byte	0x2
 1174 036e 6C01     		.2byte	0x16c
 1175 0370 14070000 		.4byte	0x714
 1176 0374 00       		.byte	0
 1177 0375 09       		.uleb128 0x9
 1178 0376 18020000 		.4byte	.LASF67
 1179 037a 02       		.byte	0x2
 1180 037b 6D01     		.2byte	0x16d
 1181 037d 14070000 		.4byte	0x714
 1182 0381 04       		.byte	0x4
 1183 0382 09       		.uleb128 0x9
 1184 0383 A9020000 		.4byte	.LASF68
 1185 0387 02       		.byte	0x2
 1186 0388 6E01     		.2byte	0x16e
 1187 038a 41010000 		.4byte	0x141
 1188 038e 08       		.byte	0x8
 1189 038f 09       		.uleb128 0x9
 1190 0390 80080000 		.4byte	.LASF69
 1191 0394 02       		.byte	0x2
 1192 0395 6F01     		.2byte	0x16f
 1193 0397 32030000 		.4byte	0x332
 1194 039b 0C       		.byte	0xc
 1195 039c 09       		.uleb128 0x9
 1196 039d 9C070000 		.4byte	.LASF70
 1197 03a1 02       		.byte	0x2
ARM GAS  /var/tmp//ccGbfAGO.s 			page 22


 1198 03a2 7101     		.2byte	0x171
 1199 03a4 4E030000 		.4byte	0x34e
 1200 03a8 10       		.byte	0x10
 1201 03a9 00       		.byte	0
 1202 03aa 04       		.uleb128 0x4
 1203 03ab C3000000 		.4byte	.LASF71
 1204 03af 09       		.byte	0x9
 1205 03b0 66       		.byte	0x66
 1206 03b1 B5030000 		.4byte	0x3b5
 1207 03b5 0C       		.uleb128 0xc
 1208 03b6 B7040000 		.4byte	.LASF72
 1209 03ba 10       		.byte	0x10
 1210 03bb 02       		.byte	0x2
 1211 03bc 7B01     		.2byte	0x17b
 1212 03be F7030000 		.4byte	0x3f7
 1213 03c2 09       		.uleb128 0x9
 1214 03c3 7A020000 		.4byte	.LASF66
 1215 03c7 02       		.byte	0x2
 1216 03c8 7C01     		.2byte	0x17c
 1217 03ca 14070000 		.4byte	0x714
 1218 03ce 00       		.byte	0
 1219 03cf 09       		.uleb128 0x9
 1220 03d0 18020000 		.4byte	.LASF67
 1221 03d4 02       		.byte	0x2
 1222 03d5 7E01     		.2byte	0x17e
 1223 03d7 14070000 		.4byte	0x714
 1224 03db 04       		.byte	0x4
 1225 03dc 09       		.uleb128 0x9
 1226 03dd A9020000 		.4byte	.LASF68
 1227 03e1 02       		.byte	0x2
 1228 03e2 8001     		.2byte	0x180
 1229 03e4 41010000 		.4byte	0x141
 1230 03e8 08       		.byte	0x8
 1231 03e9 09       		.uleb128 0x9
 1232 03ea 16080000 		.4byte	.LASF73
 1233 03ee 02       		.byte	0x2
 1234 03ef 8201     		.2byte	0x182
 1235 03f1 4C010000 		.4byte	0x14c
 1236 03f5 0C       		.byte	0xc
 1237 03f6 00       		.byte	0
 1238 03f7 04       		.uleb128 0x4
 1239 03f8 55000000 		.4byte	.LASF74
 1240 03fc 09       		.byte	0x9
 1241 03fd 6B       		.byte	0x6b
 1242 03fe 02040000 		.4byte	0x402
 1243 0402 0C       		.uleb128 0xc
 1244 0403 20020000 		.4byte	.LASF75
 1245 0407 04       		.byte	0x4
 1246 0408 02       		.byte	0x2
 1247 0409 A201     		.2byte	0x1a2
 1248 040b 1D040000 		.4byte	0x41d
 1249 040f 09       		.uleb128 0x9
 1250 0410 5E070000 		.4byte	.LASF76
 1251 0414 02       		.byte	0x2
 1252 0415 AA01     		.2byte	0x1aa
 1253 0417 03070000 		.4byte	0x703
 1254 041b 00       		.byte	0
ARM GAS  /var/tmp//ccGbfAGO.s 			page 23


 1255 041c 00       		.byte	0
 1256 041d 04       		.uleb128 0x4
 1257 041e 77070000 		.4byte	.LASF77
 1258 0422 09       		.byte	0x9
 1259 0423 70       		.byte	0x70
 1260 0424 28040000 		.4byte	0x428
 1261 0428 10       		.uleb128 0x10
 1262 0429 A5010000 		.4byte	.LASF78
 1263 042d 5802     		.2byte	0x258
 1264 042f 02       		.byte	0x2
 1265 0430 C201     		.2byte	0x1c2
 1266 0432 84040000 		.4byte	0x484
 1267 0436 09       		.uleb128 0x9
 1268 0437 C7070000 		.4byte	.LASF79
 1269 043b 02       		.byte	0x2
 1270 043c C601     		.2byte	0x1c6
 1271 043e CB020000 		.4byte	0x2cb
 1272 0442 00       		.byte	0
 1273 0443 09       		.uleb128 0x9
 1274 0444 88010000 		.4byte	.LASF80
 1275 0448 02       		.byte	0x2
 1276 0449 CA01     		.2byte	0x1ca
 1277 044b AA030000 		.4byte	0x3aa
 1278 044f 1C       		.byte	0x1c
 1279 0450 08       		.uleb128 0x8
 1280 0451 64626700 		.ascii	"dbg\000"
 1281 0455 02       		.byte	0x2
 1282 0456 CE01     		.2byte	0x1ce
 1283 0458 F7030000 		.4byte	0x3f7
 1284 045c 2C       		.byte	0x2c
 1285 045d 09       		.uleb128 0x9
 1286 045e B8000000 		.4byte	.LASF81
 1287 0462 02       		.byte	0x2
 1288 0463 D201     		.2byte	0x1d2
 1289 0465 51010000 		.4byte	0x151
 1290 0469 30       		.byte	0x30
 1291 046a 08       		.uleb128 0x8
 1292 046b 746D00   		.ascii	"tm\000"
 1293 046e 02       		.byte	0x2
 1294 046f D701     		.2byte	0x1d7
 1295 0471 2D060000 		.4byte	0x62d
 1296 0475 78       		.byte	0x78
 1297 0476 09       		.uleb128 0x9
 1298 0477 4B020000 		.4byte	.LASF82
 1299 047b 02       		.byte	0x2
 1300 047c E301     		.2byte	0x1e3
 1301 047e 1A070000 		.4byte	0x71a
 1302 0482 80       		.byte	0x80
 1303 0483 00       		.byte	0
 1304 0484 03       		.uleb128 0x3
 1305 0485 04       		.byte	0x4
 1306 0486 07       		.byte	0x7
 1307 0487 AE040000 		.4byte	.LASF83
 1308 048b 11       		.uleb128 0x11
 1309 048c D9000000 		.4byte	.LASF84
 1310 0490 0A       		.byte	0xa
 1311 0491 A706     		.2byte	0x6a7
ARM GAS  /var/tmp//ccGbfAGO.s 			page 24


 1312 0493 C3000000 		.4byte	0xc3
 1313 0497 12       		.uleb128 0x12
 1314 0498 8B020000 		.4byte	.LASF85
 1315 049c 0B       		.byte	0xb
 1316 049d 4C       		.byte	0x4c
 1317 049e C8000000 		.4byte	0xc8
 1318 04a2 04       		.uleb128 0x4
 1319 04a3 0F020000 		.4byte	.LASF86
 1320 04a7 0C       		.byte	0xc
 1321 04a8 65       		.byte	0x65
 1322 04a9 4E030000 		.4byte	0x34e
 1323 04ad 04       		.uleb128 0x4
 1324 04ae 59030000 		.4byte	.LASF87
 1325 04b2 0C       		.byte	0xc
 1326 04b3 6D       		.byte	0x6d
 1327 04b4 D3000000 		.4byte	0xd3
 1328 04b8 06       		.uleb128 0x6
 1329 04b9 6F070000 		.4byte	.LASF88
 1330 04bd 04       		.byte	0x4
 1331 04be 0C       		.byte	0xc
 1332 04bf 89       		.byte	0x89
 1333 04c0 D1040000 		.4byte	0x4d1
 1334 04c4 13       		.uleb128 0x13
 1335 04c5 72313300 		.ascii	"r13\000"
 1336 04c9 0C       		.byte	0xc
 1337 04ca 8A       		.byte	0x8a
 1338 04cb 12060000 		.4byte	0x612
 1339 04cf 00       		.byte	0
 1340 04d0 00       		.byte	0
 1341 04d1 06       		.uleb128 0x6
 1342 04d2 49000000 		.4byte	.LASF89
 1343 04d6 64       		.byte	0x64
 1344 04d7 0D       		.byte	0xd
 1345 04d8 F4       		.byte	0xf4
 1346 04d9 12060000 		.4byte	0x612
 1347 04dd 13       		.uleb128 0x13
 1348 04de 73313600 		.ascii	"s16\000"
 1349 04e2 0D       		.byte	0xd
 1350 04e3 F6       		.byte	0xf6
 1351 04e4 A2040000 		.4byte	0x4a2
 1352 04e8 00       		.byte	0
 1353 04e9 13       		.uleb128 0x13
 1354 04ea 73313700 		.ascii	"s17\000"
 1355 04ee 0D       		.byte	0xd
 1356 04ef F7       		.byte	0xf7
 1357 04f0 A2040000 		.4byte	0x4a2
 1358 04f4 04       		.byte	0x4
 1359 04f5 13       		.uleb128 0x13
 1360 04f6 73313800 		.ascii	"s18\000"
 1361 04fa 0D       		.byte	0xd
 1362 04fb F8       		.byte	0xf8
 1363 04fc A2040000 		.4byte	0x4a2
 1364 0500 08       		.byte	0x8
 1365 0501 13       		.uleb128 0x13
 1366 0502 73313900 		.ascii	"s19\000"
 1367 0506 0D       		.byte	0xd
 1368 0507 F9       		.byte	0xf9
ARM GAS  /var/tmp//ccGbfAGO.s 			page 25


 1369 0508 A2040000 		.4byte	0x4a2
 1370 050c 0C       		.byte	0xc
 1371 050d 13       		.uleb128 0x13
 1372 050e 73323000 		.ascii	"s20\000"
 1373 0512 0D       		.byte	0xd
 1374 0513 FA       		.byte	0xfa
 1375 0514 A2040000 		.4byte	0x4a2
 1376 0518 10       		.byte	0x10
 1377 0519 13       		.uleb128 0x13
 1378 051a 73323100 		.ascii	"s21\000"
 1379 051e 0D       		.byte	0xd
 1380 051f FB       		.byte	0xfb
 1381 0520 A2040000 		.4byte	0x4a2
 1382 0524 14       		.byte	0x14
 1383 0525 13       		.uleb128 0x13
 1384 0526 73323200 		.ascii	"s22\000"
 1385 052a 0D       		.byte	0xd
 1386 052b FC       		.byte	0xfc
 1387 052c A2040000 		.4byte	0x4a2
 1388 0530 18       		.byte	0x18
 1389 0531 13       		.uleb128 0x13
 1390 0532 73323300 		.ascii	"s23\000"
 1391 0536 0D       		.byte	0xd
 1392 0537 FD       		.byte	0xfd
 1393 0538 A2040000 		.4byte	0x4a2
 1394 053c 1C       		.byte	0x1c
 1395 053d 13       		.uleb128 0x13
 1396 053e 73323400 		.ascii	"s24\000"
 1397 0542 0D       		.byte	0xd
 1398 0543 FE       		.byte	0xfe
 1399 0544 A2040000 		.4byte	0x4a2
 1400 0548 20       		.byte	0x20
 1401 0549 13       		.uleb128 0x13
 1402 054a 73323500 		.ascii	"s25\000"
 1403 054e 0D       		.byte	0xd
 1404 054f FF       		.byte	0xff
 1405 0550 A2040000 		.4byte	0x4a2
 1406 0554 24       		.byte	0x24
 1407 0555 08       		.uleb128 0x8
 1408 0556 73323600 		.ascii	"s26\000"
 1409 055a 0D       		.byte	0xd
 1410 055b 0001     		.2byte	0x100
 1411 055d A2040000 		.4byte	0x4a2
 1412 0561 28       		.byte	0x28
 1413 0562 08       		.uleb128 0x8
 1414 0563 73323700 		.ascii	"s27\000"
 1415 0567 0D       		.byte	0xd
 1416 0568 0101     		.2byte	0x101
 1417 056a A2040000 		.4byte	0x4a2
 1418 056e 2C       		.byte	0x2c
 1419 056f 08       		.uleb128 0x8
 1420 0570 73323800 		.ascii	"s28\000"
 1421 0574 0D       		.byte	0xd
 1422 0575 0201     		.2byte	0x102
 1423 0577 A2040000 		.4byte	0x4a2
 1424 057b 30       		.byte	0x30
 1425 057c 08       		.uleb128 0x8
ARM GAS  /var/tmp//ccGbfAGO.s 			page 26


 1426 057d 73323900 		.ascii	"s29\000"
 1427 0581 0D       		.byte	0xd
 1428 0582 0301     		.2byte	0x103
 1429 0584 A2040000 		.4byte	0x4a2
 1430 0588 34       		.byte	0x34
 1431 0589 08       		.uleb128 0x8
 1432 058a 73333000 		.ascii	"s30\000"
 1433 058e 0D       		.byte	0xd
 1434 058f 0401     		.2byte	0x104
 1435 0591 A2040000 		.4byte	0x4a2
 1436 0595 38       		.byte	0x38
 1437 0596 08       		.uleb128 0x8
 1438 0597 73333100 		.ascii	"s31\000"
 1439 059b 0D       		.byte	0xd
 1440 059c 0501     		.2byte	0x105
 1441 059e A2040000 		.4byte	0x4a2
 1442 05a2 3C       		.byte	0x3c
 1443 05a3 08       		.uleb128 0x8
 1444 05a4 723400   		.ascii	"r4\000"
 1445 05a7 0D       		.byte	0xd
 1446 05a8 0701     		.2byte	0x107
 1447 05aa A2040000 		.4byte	0x4a2
 1448 05ae 40       		.byte	0x40
 1449 05af 08       		.uleb128 0x8
 1450 05b0 723500   		.ascii	"r5\000"
 1451 05b3 0D       		.byte	0xd
 1452 05b4 0801     		.2byte	0x108
 1453 05b6 A2040000 		.4byte	0x4a2
 1454 05ba 44       		.byte	0x44
 1455 05bb 08       		.uleb128 0x8
 1456 05bc 723600   		.ascii	"r6\000"
 1457 05bf 0D       		.byte	0xd
 1458 05c0 0901     		.2byte	0x109
 1459 05c2 A2040000 		.4byte	0x4a2
 1460 05c6 48       		.byte	0x48
 1461 05c7 08       		.uleb128 0x8
 1462 05c8 723700   		.ascii	"r7\000"
 1463 05cb 0D       		.byte	0xd
 1464 05cc 0A01     		.2byte	0x10a
 1465 05ce A2040000 		.4byte	0x4a2
 1466 05d2 4C       		.byte	0x4c
 1467 05d3 08       		.uleb128 0x8
 1468 05d4 723800   		.ascii	"r8\000"
 1469 05d7 0D       		.byte	0xd
 1470 05d8 0B01     		.2byte	0x10b
 1471 05da A2040000 		.4byte	0x4a2
 1472 05de 50       		.byte	0x50
 1473 05df 08       		.uleb128 0x8
 1474 05e0 723900   		.ascii	"r9\000"
 1475 05e3 0D       		.byte	0xd
 1476 05e4 0C01     		.2byte	0x10c
 1477 05e6 A2040000 		.4byte	0x4a2
 1478 05ea 54       		.byte	0x54
 1479 05eb 08       		.uleb128 0x8
 1480 05ec 72313000 		.ascii	"r10\000"
 1481 05f0 0D       		.byte	0xd
 1482 05f1 0D01     		.2byte	0x10d
ARM GAS  /var/tmp//ccGbfAGO.s 			page 27


 1483 05f3 A2040000 		.4byte	0x4a2
 1484 05f7 58       		.byte	0x58
 1485 05f8 08       		.uleb128 0x8
 1486 05f9 72313100 		.ascii	"r11\000"
 1487 05fd 0D       		.byte	0xd
 1488 05fe 0E01     		.2byte	0x10e
 1489 0600 A2040000 		.4byte	0x4a2
 1490 0604 5C       		.byte	0x5c
 1491 0605 08       		.uleb128 0x8
 1492 0606 6C7200   		.ascii	"lr\000"
 1493 0609 0D       		.byte	0xd
 1494 060a 0F01     		.2byte	0x10f
 1495 060c A2040000 		.4byte	0x4a2
 1496 0610 60       		.byte	0x60
 1497 0611 00       		.byte	0
 1498 0612 0A       		.uleb128 0xa
 1499 0613 04       		.byte	0x4
 1500 0614 D1040000 		.4byte	0x4d1
 1501 0618 14       		.uleb128 0x14
 1502 0619 04       		.byte	0x4
 1503 061a 0E       		.byte	0xe
 1504 061b 38       		.byte	0x38
 1505 061c 2D060000 		.4byte	0x62d
 1506 0620 07       		.uleb128 0x7
 1507 0621 68070000 		.4byte	.LASF90
 1508 0625 0E       		.byte	0xe
 1509 0626 3C       		.byte	0x3c
 1510 0627 DE000000 		.4byte	0xde
 1511 062b 00       		.byte	0
 1512 062c 00       		.byte	0
 1513 062d 04       		.uleb128 0x4
 1514 062e 20050000 		.4byte	.LASF91
 1515 0632 0E       		.byte	0xe
 1516 0633 3D       		.byte	0x3d
 1517 0634 18060000 		.4byte	0x618
 1518 0638 15       		.uleb128 0x15
 1519 0639 04       		.byte	0x4
 1520 063a 02       		.byte	0x2
 1521 063b FA       		.byte	0xfa
 1522 063c 95060000 		.4byte	0x695
 1523 0640 16       		.uleb128 0x16
 1524 0641 2F000000 		.4byte	.LASF92
 1525 0645 02       		.byte	0x2
 1526 0646 0101     		.2byte	0x101
 1527 0648 20010000 		.4byte	0x120
 1528 064c 16       		.uleb128 0x16
 1529 064d AF000000 		.4byte	.LASF93
 1530 0651 02       		.byte	0x2
 1531 0652 0801     		.2byte	0x108
 1532 0654 20010000 		.4byte	0x120
 1533 0658 16       		.uleb128 0x16
 1534 0659 F6070000 		.4byte	.LASF94
 1535 065d 02       		.byte	0x2
 1536 065e 0F01     		.2byte	0x10f
 1537 0660 4E030000 		.4byte	0x34e
 1538 0664 16       		.uleb128 0x16
 1539 0665 29000000 		.4byte	.LASF95
ARM GAS  /var/tmp//ccGbfAGO.s 			page 28


 1540 0669 02       		.byte	0x2
 1541 066a 1601     		.2byte	0x116
 1542 066c 95060000 		.4byte	0x695
 1543 0670 16       		.uleb128 0x16
 1544 0671 A2020000 		.4byte	.LASF96
 1545 0675 02       		.byte	0x2
 1546 0676 1E01     		.2byte	0x11e
 1547 0678 C0060000 		.4byte	0x6c0
 1548 067c 16       		.uleb128 0x16
 1549 067d F2060000 		.4byte	.LASF97
 1550 0681 02       		.byte	0x2
 1551 0682 2701     		.2byte	0x127
 1552 0684 F7060000 		.4byte	0x6f7
 1553 0688 16       		.uleb128 0x16
 1554 0689 F3050000 		.4byte	.LASF98
 1555 068d 02       		.byte	0x2
 1556 068e 2F01     		.2byte	0x12f
 1557 0690 2B010000 		.4byte	0x12b
 1558 0694 00       		.byte	0
 1559 0695 0A       		.uleb128 0xa
 1560 0696 04       		.byte	0x4
 1561 0697 61020000 		.4byte	0x261
 1562 069b 06       		.uleb128 0x6
 1563 069c 61060000 		.4byte	.LASF99
 1564 06a0 0C       		.byte	0xc
 1565 06a1 0F       		.byte	0xf
 1566 06a2 34       		.byte	0x34
 1567 06a3 C0060000 		.4byte	0x6c0
 1568 06a7 07       		.uleb128 0x7
 1569 06a8 EE010000 		.4byte	.LASF100
 1570 06ac 0F       		.byte	0xf
 1571 06ad 35       		.byte	0x35
 1572 06ae 96020000 		.4byte	0x296
 1573 06b2 00       		.byte	0
 1574 06b3 07       		.uleb128 0x7
 1575 06b4 C6020000 		.4byte	.LASF101
 1576 06b8 0F       		.byte	0xf
 1577 06b9 37       		.byte	0x37
 1578 06ba 36010000 		.4byte	0x136
 1579 06be 08       		.byte	0x8
 1580 06bf 00       		.byte	0
 1581 06c0 0A       		.uleb128 0xa
 1582 06c1 04       		.byte	0x4
 1583 06c2 9B060000 		.4byte	0x69b
 1584 06c6 06       		.uleb128 0x6
 1585 06c7 AE070000 		.4byte	.LASF102
 1586 06cb 10       		.byte	0x10
 1587 06cc 04       		.byte	0x4
 1588 06cd 39       		.byte	0x39
 1589 06ce F7060000 		.4byte	0x6f7
 1590 06d2 07       		.uleb128 0x7
 1591 06d3 80010000 		.4byte	.LASF103
 1592 06d7 04       		.byte	0x4
 1593 06d8 3A       		.byte	0x3a
 1594 06d9 96020000 		.4byte	0x296
 1595 06dd 00       		.byte	0
 1596 06de 07       		.uleb128 0x7
ARM GAS  /var/tmp//ccGbfAGO.s 			page 29


 1597 06df 6A080000 		.4byte	.LASF104
 1598 06e3 04       		.byte	0x4
 1599 06e4 3C       		.byte	0x3c
 1600 06e5 6C020000 		.4byte	0x26c
 1601 06e9 08       		.byte	0x8
 1602 06ea 07       		.uleb128 0x7
 1603 06eb 31050000 		.4byte	.LASF105
 1604 06ef 04       		.byte	0x4
 1605 06f0 3E       		.byte	0x3e
 1606 06f1 4C080000 		.4byte	0x84c
 1607 06f5 0C       		.byte	0xc
 1608 06f6 00       		.byte	0
 1609 06f7 0A       		.uleb128 0xa
 1610 06f8 04       		.byte	0x4
 1611 06f9 C6060000 		.4byte	0x6c6
 1612 06fd 0A       		.uleb128 0xa
 1613 06fe 04       		.byte	0x4
 1614 06ff 0F070000 		.4byte	0x70f
 1615 0703 05       		.uleb128 0x5
 1616 0704 FD060000 		.4byte	0x6fd
 1617 0708 03       		.uleb128 0x3
 1618 0709 01       		.byte	0x1
 1619 070a 08       		.byte	0x8
 1620 070b ED060000 		.4byte	.LASF106
 1621 070f 0B       		.uleb128 0xb
 1622 0710 08070000 		.4byte	0x708
 1623 0714 0A       		.uleb128 0xa
 1624 0715 04       		.byte	0x4
 1625 0716 50030000 		.4byte	0x350
 1626 071a 17       		.uleb128 0x17
 1627 071b AD040000 		.4byte	0x4ad
 1628 071f 2A070000 		.4byte	0x72a
 1629 0723 18       		.uleb128 0x18
 1630 0724 84040000 		.4byte	0x484
 1631 0728 3A       		.byte	0x3a
 1632 0729 00       		.byte	0
 1633 072a 19       		.uleb128 0x19
 1634 072b 636800   		.ascii	"ch\000"
 1635 072e 02       		.byte	0x2
 1636 072f 0902     		.2byte	0x209
 1637 0731 1D040000 		.4byte	0x41d
 1638 0735 14       		.uleb128 0x14
 1639 0736 16       		.byte	0x16
 1640 0737 10       		.byte	0x10
 1641 0738 34       		.byte	0x34
 1642 0739 16080000 		.4byte	0x816
 1643 073d 07       		.uleb128 0x7
 1644 073e 72080000 		.4byte	.LASF107
 1645 0742 10       		.byte	0x10
 1646 0743 35       		.byte	0x35
 1647 0744 16080000 		.4byte	0x816
 1648 0748 00       		.byte	0
 1649 0749 07       		.uleb128 0x7
 1650 074a 90040000 		.4byte	.LASF108
 1651 074e 10       		.byte	0x10
 1652 074f 36       		.byte	0x36
 1653 0750 A2000000 		.4byte	0xa2
ARM GAS  /var/tmp//ccGbfAGO.s 			page 30


 1654 0754 04       		.byte	0x4
 1655 0755 07       		.uleb128 0x7
 1656 0756 D3060000 		.4byte	.LASF109
 1657 075a 10       		.byte	0x10
 1658 075b 37       		.byte	0x37
 1659 075c A2000000 		.4byte	0xa2
 1660 0760 05       		.byte	0x5
 1661 0761 07       		.uleb128 0x7
 1662 0762 42080000 		.4byte	.LASF110
 1663 0766 10       		.byte	0x10
 1664 0767 38       		.byte	0x38
 1665 0768 AD000000 		.4byte	0xad
 1666 076c 06       		.byte	0x6
 1667 076d 07       		.uleb128 0x7
 1668 076e 72050000 		.4byte	.LASF111
 1669 0772 10       		.byte	0x10
 1670 0773 39       		.byte	0x39
 1671 0774 A2000000 		.4byte	0xa2
 1672 0778 08       		.byte	0x8
 1673 0779 07       		.uleb128 0x7
 1674 077a F4040000 		.4byte	.LASF112
 1675 077e 10       		.byte	0x10
 1676 077f 3A       		.byte	0x3a
 1677 0780 A2000000 		.4byte	0xa2
 1678 0784 09       		.byte	0x9
 1679 0785 07       		.uleb128 0x7
 1680 0786 A1000000 		.4byte	.LASF113
 1681 078a 10       		.byte	0x10
 1682 078b 3B       		.byte	0x3b
 1683 078c A2000000 		.4byte	0xa2
 1684 0790 0A       		.byte	0xa
 1685 0791 07       		.uleb128 0x7
 1686 0792 A3060000 		.4byte	.LASF114
 1687 0796 10       		.byte	0x10
 1688 0797 3C       		.byte	0x3c
 1689 0798 A2000000 		.4byte	0xa2
 1690 079c 0B       		.byte	0xb
 1691 079d 07       		.uleb128 0x7
 1692 079e A3070000 		.4byte	.LASF115
 1693 07a2 10       		.byte	0x10
 1694 07a3 3D       		.byte	0x3d
 1695 07a4 A2000000 		.4byte	0xa2
 1696 07a8 0C       		.byte	0xc
 1697 07a9 07       		.uleb128 0x7
 1698 07aa 54060000 		.4byte	.LASF116
 1699 07ae 10       		.byte	0x10
 1700 07af 3E       		.byte	0x3e
 1701 07b0 A2000000 		.4byte	0xa2
 1702 07b4 0D       		.byte	0xd
 1703 07b5 07       		.uleb128 0x7
 1704 07b6 0F000000 		.4byte	.LASF117
 1705 07ba 10       		.byte	0x10
 1706 07bb 3F       		.byte	0x3f
 1707 07bc A2000000 		.4byte	0xa2
 1708 07c0 0E       		.byte	0xe
 1709 07c1 07       		.uleb128 0x7
 1710 07c2 00050000 		.4byte	.LASF118
ARM GAS  /var/tmp//ccGbfAGO.s 			page 31


 1711 07c6 10       		.byte	0x10
 1712 07c7 40       		.byte	0x40
 1713 07c8 A2000000 		.4byte	0xa2
 1714 07cc 0F       		.byte	0xf
 1715 07cd 07       		.uleb128 0x7
 1716 07ce 5B010000 		.4byte	.LASF119
 1717 07d2 10       		.byte	0x10
 1718 07d3 41       		.byte	0x41
 1719 07d4 A2000000 		.4byte	0xa2
 1720 07d8 10       		.byte	0x10
 1721 07d9 07       		.uleb128 0x7
 1722 07da 1F010000 		.4byte	.LASF120
 1723 07de 10       		.byte	0x10
 1724 07df 43       		.byte	0x43
 1725 07e0 A2000000 		.4byte	0xa2
 1726 07e4 11       		.byte	0x11
 1727 07e5 07       		.uleb128 0x7
 1728 07e6 6B010000 		.4byte	.LASF121
 1729 07ea 10       		.byte	0x10
 1730 07eb 44       		.byte	0x44
 1731 07ec A2000000 		.4byte	0xa2
 1732 07f0 12       		.byte	0x12
 1733 07f1 07       		.uleb128 0x7
 1734 07f2 98040000 		.4byte	.LASF122
 1735 07f6 10       		.byte	0x10
 1736 07f7 45       		.byte	0x45
 1737 07f8 A2000000 		.4byte	0xa2
 1738 07fc 13       		.byte	0x13
 1739 07fd 07       		.uleb128 0x7
 1740 07fe 09060000 		.4byte	.LASF123
 1741 0802 10       		.byte	0x10
 1742 0803 46       		.byte	0x46
 1743 0804 A2000000 		.4byte	0xa2
 1744 0808 14       		.byte	0x14
 1745 0809 07       		.uleb128 0x7
 1746 080a 29030000 		.4byte	.LASF124
 1747 080e 10       		.byte	0x10
 1748 080f 48       		.byte	0x48
 1749 0810 A2000000 		.4byte	0xa2
 1750 0814 15       		.byte	0x15
 1751 0815 00       		.byte	0
 1752 0816 17       		.uleb128 0x17
 1753 0817 08070000 		.4byte	0x708
 1754 081b 26080000 		.4byte	0x826
 1755 081f 18       		.uleb128 0x18
 1756 0820 84040000 		.4byte	0x484
 1757 0824 03       		.byte	0x3
 1758 0825 00       		.byte	0
 1759 0826 04       		.uleb128 0x4
 1760 0827 DC010000 		.4byte	.LASF125
 1761 082b 10       		.byte	0x10
 1762 082c 49       		.byte	0x49
 1763 082d 35070000 		.4byte	0x735
 1764 0831 0B       		.uleb128 0xb
 1765 0832 26080000 		.4byte	0x826
 1766 0836 12       		.uleb128 0x12
 1767 0837 BD020000 		.4byte	.LASF126
ARM GAS  /var/tmp//ccGbfAGO.s 			page 32


 1768 083b 10       		.byte	0x10
 1769 083c 6E       		.byte	0x6e
 1770 083d 31080000 		.4byte	0x831
 1771 0841 04       		.uleb128 0x4
 1772 0842 30020000 		.4byte	.LASF127
 1773 0846 04       		.byte	0x4
 1774 0847 34       		.byte	0x34
 1775 0848 C6060000 		.4byte	0x6c6
 1776 084c 0A       		.uleb128 0xa
 1777 084d 04       		.byte	0x4
 1778 084e 41080000 		.4byte	0x841
 1779 0852 06       		.uleb128 0x6
 1780 0853 CE040000 		.4byte	.LASF128
 1781 0857 08       		.byte	0x8
 1782 0858 11       		.byte	0x11
 1783 0859 3B       		.byte	0x3b
 1784 085a 6B080000 		.4byte	0x86b
 1785 085e 07       		.uleb128 0x7
 1786 085f 88040000 		.4byte	.LASF129
 1787 0863 11       		.byte	0x11
 1788 0864 3C       		.byte	0x3c
 1789 0865 96020000 		.4byte	0x296
 1790 0869 00       		.byte	0
 1791 086a 00       		.byte	0
 1792 086b 04       		.uleb128 0x4
 1793 086c 46010000 		.4byte	.LASF130
 1794 0870 11       		.byte	0x11
 1795 0871 3E       		.byte	0x3e
 1796 0872 52080000 		.4byte	0x852
 1797 0876 1A       		.uleb128 0x1a
 1798 0877 E1040000 		.4byte	.LASF132
 1799 087b 01       		.byte	0x1
 1800 087c 2801     		.2byte	0x128
 1801 087e 20010000 		.4byte	0x120
 1802 0882 00000000 		.4byte	.LFB227
 1803 0886 50000000 		.4byte	.LFE227-.LFB227
 1804 088a 01       		.uleb128 0x1
 1805 088b 9C       		.byte	0x9c
 1806 088c 6B090000 		.4byte	0x96b
 1807 0890 1B       		.uleb128 0x1b
 1808 0891 637000   		.ascii	"cp\000"
 1809 0894 01       		.byte	0x1
 1810 0895 2801     		.2byte	0x128
 1811 0897 6B090000 		.4byte	0x96b
 1812 089b 00000000 		.4byte	.LLST30
 1813 089f 1C       		.uleb128 0x1c
 1814 08a0 38050000 		.4byte	.LASF131
 1815 08a4 01       		.byte	0x1
 1816 08a5 2801     		.2byte	0x128
 1817 08a7 41010000 		.4byte	0x141
 1818 08ab 2C000000 		.4byte	.LLST31
 1819 08af 1D       		.uleb128 0x1d
 1820 08b0 6D7000   		.ascii	"mp\000"
 1821 08b3 01       		.byte	0x1
 1822 08b4 2901     		.2byte	0x129
 1823 08b6 4C080000 		.4byte	0x84c
 1824 08ba 1E       		.uleb128 0x1e
ARM GAS  /var/tmp//ccGbfAGO.s 			page 33


 1825 08bb 6D736700 		.ascii	"msg\000"
 1826 08bf 01       		.byte	0x1
 1827 08c0 2A01     		.2byte	0x12a
 1828 08c2 20010000 		.4byte	0x120
 1829 08c6 58000000 		.4byte	.LLST32
 1830 08ca 1F       		.uleb128 0x1f
 1831 08cb 20060000 		.4byte	.LASF135
 1832 08cf 81090000 		.4byte	0x981
 1833 08d3 20       		.uleb128 0x20
 1834 08d4 B90F0000 		.4byte	0xfb9
 1835 08d8 02000000 		.4byte	.LBB149
 1836 08dc 06000000 		.4byte	.LBE149-.LBB149
 1837 08e0 01       		.byte	0x1
 1838 08e1 3101     		.2byte	0x131
 1839 08e3 F7080000 		.4byte	0x8f7
 1840 08e7 21       		.uleb128 0x21
 1841 08e8 C50F0000 		.4byte	0xfc5
 1842 08ec 02000000 		.4byte	.LBB151
 1843 08f0 02000000 		.4byte	.LBE151-.LBB151
 1844 08f4 04       		.byte	0x4
 1845 08f5 92       		.byte	0x92
 1846 08f6 00       		.byte	0
 1847 08f7 22       		.uleb128 0x22
 1848 08f8 24100000 		.4byte	0x1024
 1849 08fc 1A000000 		.4byte	.LBB153
 1850 0900 60000000 		.4byte	.Ldebug_ranges0+0x60
 1851 0904 01       		.byte	0x1
 1852 0905 3701     		.2byte	0x137
 1853 0907 2D090000 		.4byte	0x92d
 1854 090b 23       		.uleb128 0x23
 1855 090c 3C100000 		.4byte	0x103c
 1856 0910 81000000 		.4byte	.LLST33
 1857 0914 23       		.uleb128 0x23
 1858 0915 31100000 		.4byte	0x1031
 1859 0919 94000000 		.4byte	.LLST34
 1860 091d 24       		.uleb128 0x24
 1861 091e 60000000 		.4byte	.Ldebug_ranges0+0x60
 1862 0922 25       		.uleb128 0x25
 1863 0923 48100000 		.4byte	0x1048
 1864 0927 A7000000 		.4byte	.LLST35
 1865 092b 00       		.byte	0
 1866 092c 00       		.byte	0
 1867 092d 26       		.uleb128 0x26
 1868 092e 12000000 		.4byte	.LVL54
 1869 0932 3D110000 		.4byte	0x113d
 1870 0936 41090000 		.4byte	0x941
 1871 093a 27       		.uleb128 0x27
 1872 093b 01       		.uleb128 0x1
 1873 093c 50       		.byte	0x50
 1874 093d 02       		.uleb128 0x2
 1875 093e 76       		.byte	0x76
 1876 093f 00       		.sleb128 0
 1877 0940 00       		.byte	0
 1878 0941 26       		.uleb128 0x26
 1879 0942 3A000000 		.4byte	.LVL60
 1880 0946 48110000 		.4byte	0x1148
 1881 094a 5A090000 		.4byte	0x95a
ARM GAS  /var/tmp//ccGbfAGO.s 			page 34


 1882 094e 27       		.uleb128 0x27
 1883 094f 01       		.uleb128 0x1
 1884 0950 50       		.byte	0x50
 1885 0951 01       		.uleb128 0x1
 1886 0952 37       		.byte	0x37
 1887 0953 27       		.uleb128 0x27
 1888 0954 01       		.uleb128 0x1
 1889 0955 51       		.byte	0x51
 1890 0956 02       		.uleb128 0x2
 1891 0957 77       		.byte	0x77
 1892 0958 00       		.sleb128 0
 1893 0959 00       		.byte	0
 1894 095a 28       		.uleb128 0x28
 1895 095b 46000000 		.4byte	.LVL63
 1896 095f 54110000 		.4byte	0x1154
 1897 0963 27       		.uleb128 0x27
 1898 0964 01       		.uleb128 0x1
 1899 0965 50       		.byte	0x50
 1900 0966 02       		.uleb128 0x2
 1901 0967 76       		.byte	0x76
 1902 0968 00       		.sleb128 0
 1903 0969 00       		.byte	0
 1904 096a 00       		.byte	0
 1905 096b 0A       		.uleb128 0xa
 1906 096c 04       		.byte	0x4
 1907 096d 6B080000 		.4byte	0x86b
 1908 0971 17       		.uleb128 0x17
 1909 0972 0F070000 		.4byte	0x70f
 1910 0976 81090000 		.4byte	0x981
 1911 097a 18       		.uleb128 0x18
 1912 097b 84040000 		.4byte	0x484
 1913 097f 12       		.byte	0x12
 1914 0980 00       		.byte	0
 1915 0981 0B       		.uleb128 0xb
 1916 0982 71090000 		.4byte	0x971
 1917 0986 1A       		.uleb128 0x1a
 1918 0987 04080000 		.4byte	.LASF133
 1919 098b 01       		.byte	0x1
 1920 098c 0201     		.2byte	0x102
 1921 098e 20010000 		.4byte	0x120
 1922 0992 00000000 		.4byte	.LFB226
 1923 0996 14000000 		.4byte	.LFE226-.LFB226
 1924 099a 01       		.uleb128 0x1
 1925 099b 9C       		.byte	0x9c
 1926 099c 750A0000 		.4byte	0xa75
 1927 09a0 1B       		.uleb128 0x1b
 1928 09a1 637000   		.ascii	"cp\000"
 1929 09a4 01       		.byte	0x1
 1930 09a5 0201     		.2byte	0x102
 1931 09a7 6B090000 		.4byte	0x96b
 1932 09ab BA000000 		.4byte	.LLST36
 1933 09af 1C       		.uleb128 0x1c
 1934 09b0 38050000 		.4byte	.LASF131
 1935 09b4 01       		.byte	0x1
 1936 09b5 0201     		.2byte	0x102
 1937 09b7 41010000 		.4byte	0x141
 1938 09bb DB000000 		.4byte	.LLST37
ARM GAS  /var/tmp//ccGbfAGO.s 			page 35


 1939 09bf 29       		.uleb128 0x29
 1940 09c0 6D736700 		.ascii	"msg\000"
 1941 09c4 01       		.byte	0x1
 1942 09c5 0301     		.2byte	0x103
 1943 09c7 20010000 		.4byte	0x120
 1944 09cb 01       		.uleb128 0x1
 1945 09cc 50       		.byte	0x50
 1946 09cd 20       		.uleb128 0x20
 1947 09ce EC0F0000 		.4byte	0xfec
 1948 09d2 02000000 		.4byte	.LBB159
 1949 09d6 06000000 		.4byte	.LBE159-.LBB159
 1950 09da 01       		.byte	0x1
 1951 09db 0501     		.2byte	0x105
 1952 09dd 0D0A0000 		.4byte	0xa0d
 1953 09e1 2A       		.uleb128 0x2a
 1954 09e2 A2100000 		.4byte	0x10a2
 1955 09e6 02000000 		.4byte	.LBB160
 1956 09ea 06000000 		.4byte	.LBE160-.LBB160
 1957 09ee 12       		.byte	0x12
 1958 09ef 5C01     		.2byte	0x15c
 1959 09f1 2A       		.uleb128 0x2a
 1960 09f2 AB100000 		.4byte	0x10ab
 1961 09f6 02000000 		.4byte	.LBB161
 1962 09fa 06000000 		.4byte	.LBE161-.LBB161
 1963 09fe 0D       		.byte	0xd
 1964 09ff BF01     		.2byte	0x1bf
 1965 0a01 23       		.uleb128 0x23
 1966 0a02 B8100000 		.4byte	0x10b8
 1967 0a06 FC000000 		.4byte	.LLST38
 1968 0a0a 00       		.byte	0
 1969 0a0b 00       		.byte	0
 1970 0a0c 00       		.byte	0
 1971 0a0d 20       		.uleb128 0x20
 1972 0a0e D10F0000 		.4byte	0xfd1
 1973 0a12 0C000000 		.4byte	.LBB163
 1974 0a16 06000000 		.4byte	.LBE163-.LBB163
 1975 0a1a 01       		.byte	0x1
 1976 0a1b 0701     		.2byte	0x107
 1977 0a1d 5C0A0000 		.4byte	0xa5c
 1978 0a21 2B       		.uleb128 0x2b
 1979 0a22 0C000000 		.4byte	.LBB164
 1980 0a26 06000000 		.4byte	.LBE164-.LBB164
 1981 0a2a 2C       		.uleb128 0x2c
 1982 0a2b DE0F0000 		.4byte	0xfde
 1983 0a2f 2A       		.uleb128 0x2a
 1984 0a30 99100000 		.4byte	0x1099
 1985 0a34 0C000000 		.4byte	.LBB165
 1986 0a38 06000000 		.4byte	.LBE165-.LBB165
 1987 0a3c 12       		.byte	0x12
 1988 0a3d 7301     		.2byte	0x173
 1989 0a3f 2A       		.uleb128 0x2a
 1990 0a40 AB100000 		.4byte	0x10ab
 1991 0a44 0C000000 		.4byte	.LBB166
 1992 0a48 06000000 		.4byte	.LBE166-.LBB166
 1993 0a4c 0D       		.byte	0xd
 1994 0a4d CD01     		.2byte	0x1cd
 1995 0a4f 23       		.uleb128 0x23
ARM GAS  /var/tmp//ccGbfAGO.s 			page 36


 1996 0a50 B8100000 		.4byte	0x10b8
 1997 0a54 11010000 		.4byte	.LLST39
 1998 0a58 00       		.byte	0
 1999 0a59 00       		.byte	0
 2000 0a5a 00       		.byte	0
 2001 0a5b 00       		.byte	0
 2002 0a5c 28       		.uleb128 0x28
 2003 0a5d 0C000000 		.4byte	.LVL67
 2004 0a61 76080000 		.4byte	0x876
 2005 0a65 27       		.uleb128 0x27
 2006 0a66 01       		.uleb128 0x1
 2007 0a67 50       		.byte	0x50
 2008 0a68 03       		.uleb128 0x3
 2009 0a69 F3       		.byte	0xf3
 2010 0a6a 01       		.uleb128 0x1
 2011 0a6b 50       		.byte	0x50
 2012 0a6c 27       		.uleb128 0x27
 2013 0a6d 01       		.uleb128 0x1
 2014 0a6e 51       		.byte	0x51
 2015 0a6f 03       		.uleb128 0x3
 2016 0a70 F3       		.byte	0xf3
 2017 0a71 01       		.uleb128 0x1
 2018 0a72 51       		.byte	0x51
 2019 0a73 00       		.byte	0
 2020 0a74 00       		.byte	0
 2021 0a75 2D       		.uleb128 0x2d
 2022 0a76 B8010000 		.4byte	.LASF134
 2023 0a7a 01       		.byte	0x1
 2024 0a7b CD       		.byte	0xcd
 2025 0a7c 20010000 		.4byte	0x120
 2026 0a80 00000000 		.4byte	.LFB225
 2027 0a84 44000000 		.4byte	.LFE225-.LFB225
 2028 0a88 01       		.uleb128 0x1
 2029 0a89 9C       		.byte	0x9c
 2030 0a8a 490B0000 		.4byte	0xb49
 2031 0a8e 2E       		.uleb128 0x2e
 2032 0a8f 637000   		.ascii	"cp\000"
 2033 0a92 01       		.byte	0x1
 2034 0a93 CD       		.byte	0xcd
 2035 0a94 6B090000 		.4byte	0x96b
 2036 0a98 25010000 		.4byte	.LLST21
 2037 0a9c 2F       		.uleb128 0x2f
 2038 0a9d 63747000 		.ascii	"ctp\000"
 2039 0aa1 01       		.byte	0x1
 2040 0aa2 CE       		.byte	0xce
 2041 0aa3 6C020000 		.4byte	0x26c
 2042 0aa7 51010000 		.4byte	.LLST22
 2043 0aab 30       		.uleb128 0x30
 2044 0aac 6D7000   		.ascii	"mp\000"
 2045 0aaf 01       		.byte	0x1
 2046 0ab0 CF       		.byte	0xcf
 2047 0ab1 4C080000 		.4byte	0x84c
 2048 0ab5 2F       		.uleb128 0x2f
 2049 0ab6 6D736700 		.ascii	"msg\000"
 2050 0aba 01       		.byte	0x1
 2051 0abb D0       		.byte	0xd0
 2052 0abc 20010000 		.4byte	0x120
ARM GAS  /var/tmp//ccGbfAGO.s 			page 37


 2053 0ac0 64010000 		.4byte	.LLST23
 2054 0ac4 1F       		.uleb128 0x1f
 2055 0ac5 20060000 		.4byte	.LASF135
 2056 0ac9 590B0000 		.4byte	0xb59
 2057 0acd 21       		.uleb128 0x21
 2058 0ace B90F0000 		.4byte	0xfb9
 2059 0ad2 06000000 		.4byte	.LBB134
 2060 0ad6 02000000 		.4byte	.LBE134-.LBB134
 2061 0ada 01       		.byte	0x1
 2062 0adb D7       		.byte	0xd7
 2063 0adc 31       		.uleb128 0x31
 2064 0add 24100000 		.4byte	0x1024
 2065 0ae1 16000000 		.4byte	.LBB136
 2066 0ae5 48000000 		.4byte	.Ldebug_ranges0+0x48
 2067 0ae9 01       		.byte	0x1
 2068 0aea DD       		.byte	0xdd
 2069 0aeb 110B0000 		.4byte	0xb11
 2070 0aef 23       		.uleb128 0x23
 2071 0af0 3C100000 		.4byte	0x103c
 2072 0af4 82010000 		.4byte	.LLST24
 2073 0af8 23       		.uleb128 0x23
 2074 0af9 31100000 		.4byte	0x1031
 2075 0afd 95010000 		.4byte	.LLST25
 2076 0b01 24       		.uleb128 0x24
 2077 0b02 48000000 		.4byte	.Ldebug_ranges0+0x48
 2078 0b06 25       		.uleb128 0x25
 2079 0b07 48100000 		.4byte	0x1048
 2080 0b0b A8010000 		.4byte	.LLST26
 2081 0b0f 00       		.byte	0
 2082 0b10 00       		.byte	0
 2083 0b11 26       		.uleb128 0x26
 2084 0b12 10000000 		.4byte	.LVL38
 2085 0b16 3D110000 		.4byte	0x113d
 2086 0b1a 250B0000 		.4byte	0xb25
 2087 0b1e 27       		.uleb128 0x27
 2088 0b1f 01       		.uleb128 0x1
 2089 0b20 50       		.byte	0x50
 2090 0b21 02       		.uleb128 0x2
 2091 0b22 76       		.byte	0x76
 2092 0b23 00       		.sleb128 0
 2093 0b24 00       		.byte	0
 2094 0b25 26       		.uleb128 0x26
 2095 0b26 34000000 		.4byte	.LVL44
 2096 0b2a 5F110000 		.4byte	0x115f
 2097 0b2e 380B0000 		.4byte	0xb38
 2098 0b32 27       		.uleb128 0x27
 2099 0b33 01       		.uleb128 0x1
 2100 0b34 50       		.byte	0x50
 2101 0b35 01       		.uleb128 0x1
 2102 0b36 37       		.byte	0x37
 2103 0b37 00       		.byte	0
 2104 0b38 28       		.uleb128 0x28
 2105 0b39 3C000000 		.4byte	.LVL46
 2106 0b3d 54110000 		.4byte	0x1154
 2107 0b41 27       		.uleb128 0x27
 2108 0b42 01       		.uleb128 0x1
 2109 0b43 50       		.byte	0x50
ARM GAS  /var/tmp//ccGbfAGO.s 			page 38


 2110 0b44 02       		.uleb128 0x2
 2111 0b45 76       		.byte	0x76
 2112 0b46 00       		.sleb128 0
 2113 0b47 00       		.byte	0
 2114 0b48 00       		.byte	0
 2115 0b49 17       		.uleb128 0x17
 2116 0b4a 0F070000 		.4byte	0x70f
 2117 0b4e 590B0000 		.4byte	0xb59
 2118 0b52 18       		.uleb128 0x18
 2119 0b53 84040000 		.4byte	0x484
 2120 0b57 0B       		.byte	0xb
 2121 0b58 00       		.byte	0
 2122 0b59 0B       		.uleb128 0xb
 2123 0b5a 490B0000 		.4byte	0xb49
 2124 0b5e 2D       		.uleb128 0x2d
 2125 0b5f 91070000 		.4byte	.LASF136
 2126 0b63 01       		.byte	0x1
 2127 0b64 B3       		.byte	0xb3
 2128 0b65 20010000 		.4byte	0x120
 2129 0b69 00000000 		.4byte	.LFB224
 2130 0b6d 14000000 		.4byte	.LFE224-.LFB224
 2131 0b71 01       		.uleb128 0x1
 2132 0b72 9C       		.byte	0x9c
 2133 0b73 310C0000 		.4byte	0xc31
 2134 0b77 2E       		.uleb128 0x2e
 2135 0b78 637000   		.ascii	"cp\000"
 2136 0b7b 01       		.byte	0x1
 2137 0b7c B3       		.byte	0xb3
 2138 0b7d 6B090000 		.4byte	0x96b
 2139 0b81 BB010000 		.4byte	.LLST27
 2140 0b85 32       		.uleb128 0x32
 2141 0b86 6D736700 		.ascii	"msg\000"
 2142 0b8a 01       		.byte	0x1
 2143 0b8b B4       		.byte	0xb4
 2144 0b8c 20010000 		.4byte	0x120
 2145 0b90 01       		.uleb128 0x1
 2146 0b91 50       		.byte	0x50
 2147 0b92 33       		.uleb128 0x33
 2148 0b93 EC0F0000 		.4byte	0xfec
 2149 0b97 02000000 		.4byte	.LBB140
 2150 0b9b 06000000 		.4byte	.LBE140-.LBB140
 2151 0b9f 01       		.byte	0x1
 2152 0ba0 B6       		.byte	0xb6
 2153 0ba1 D10B0000 		.4byte	0xbd1
 2154 0ba5 2A       		.uleb128 0x2a
 2155 0ba6 A2100000 		.4byte	0x10a2
 2156 0baa 02000000 		.4byte	.LBB141
 2157 0bae 06000000 		.4byte	.LBE141-.LBB141
 2158 0bb2 12       		.byte	0x12
 2159 0bb3 5C01     		.2byte	0x15c
 2160 0bb5 2A       		.uleb128 0x2a
 2161 0bb6 AB100000 		.4byte	0x10ab
 2162 0bba 02000000 		.4byte	.LBB142
 2163 0bbe 06000000 		.4byte	.LBE142-.LBB142
 2164 0bc2 0D       		.byte	0xd
 2165 0bc3 BF01     		.2byte	0x1bf
 2166 0bc5 23       		.uleb128 0x23
ARM GAS  /var/tmp//ccGbfAGO.s 			page 39


 2167 0bc6 B8100000 		.4byte	0x10b8
 2168 0bca DC010000 		.4byte	.LLST28
 2169 0bce 00       		.byte	0
 2170 0bcf 00       		.byte	0
 2171 0bd0 00       		.byte	0
 2172 0bd1 33       		.uleb128 0x33
 2173 0bd2 D10F0000 		.4byte	0xfd1
 2174 0bd6 0C000000 		.4byte	.LBB144
 2175 0bda 06000000 		.4byte	.LBE144-.LBB144
 2176 0bde 01       		.byte	0x1
 2177 0bdf B8       		.byte	0xb8
 2178 0be0 1F0C0000 		.4byte	0xc1f
 2179 0be4 2B       		.uleb128 0x2b
 2180 0be5 0C000000 		.4byte	.LBB145
 2181 0be9 06000000 		.4byte	.LBE145-.LBB145
 2182 0bed 2C       		.uleb128 0x2c
 2183 0bee DE0F0000 		.4byte	0xfde
 2184 0bf2 2A       		.uleb128 0x2a
 2185 0bf3 99100000 		.4byte	0x1099
 2186 0bf7 0C000000 		.4byte	.LBB146
 2187 0bfb 06000000 		.4byte	.LBE146-.LBB146
 2188 0bff 12       		.byte	0x12
 2189 0c00 7301     		.2byte	0x173
 2190 0c02 2A       		.uleb128 0x2a
 2191 0c03 AB100000 		.4byte	0x10ab
 2192 0c07 0C000000 		.4byte	.LBB147
 2193 0c0b 06000000 		.4byte	.LBE147-.LBB147
 2194 0c0f 0D       		.byte	0xd
 2195 0c10 CD01     		.2byte	0x1cd
 2196 0c12 23       		.uleb128 0x23
 2197 0c13 B8100000 		.4byte	0x10b8
 2198 0c17 F1010000 		.4byte	.LLST29
 2199 0c1b 00       		.byte	0
 2200 0c1c 00       		.byte	0
 2201 0c1d 00       		.byte	0
 2202 0c1e 00       		.byte	0
 2203 0c1f 28       		.uleb128 0x28
 2204 0c20 0C000000 		.4byte	.LVL50
 2205 0c24 750A0000 		.4byte	0xa75
 2206 0c28 27       		.uleb128 0x27
 2207 0c29 01       		.uleb128 0x1
 2208 0c2a 50       		.byte	0x50
 2209 0c2b 03       		.uleb128 0x3
 2210 0c2c F3       		.byte	0xf3
 2211 0c2d 01       		.uleb128 0x1
 2212 0c2e 50       		.byte	0x50
 2213 0c2f 00       		.byte	0
 2214 0c30 00       		.byte	0
 2215 0c31 34       		.uleb128 0x34
 2216 0c32 79000000 		.4byte	.LASF143
 2217 0c36 01       		.byte	0x1
 2218 0c37 95       		.byte	0x95
 2219 0c38 01       		.byte	0x1
 2220 0c39 550C0000 		.4byte	0xc55
 2221 0c3d 35       		.uleb128 0x35
 2222 0c3e 637000   		.ascii	"cp\000"
 2223 0c41 01       		.byte	0x1
ARM GAS  /var/tmp//ccGbfAGO.s 			page 40


 2224 0c42 95       		.byte	0x95
 2225 0c43 6B090000 		.4byte	0x96b
 2226 0c47 36       		.uleb128 0x36
 2227 0c48 20060000 		.4byte	.LASF135
 2228 0c4c 650C0000 		.4byte	0xc65
 2229 0c50 79000000 		.4byte	.LASF143
 2230 0c54 00       		.byte	0
 2231 0c55 17       		.uleb128 0x17
 2232 0c56 0F070000 		.4byte	0x70f
 2233 0c5a 650C0000 		.4byte	0xc65
 2234 0c5e 18       		.uleb128 0x18
 2235 0c5f 84040000 		.4byte	0x484
 2236 0c63 10       		.byte	0x10
 2237 0c64 00       		.byte	0
 2238 0c65 0B       		.uleb128 0xb
 2239 0c66 550C0000 		.4byte	0xc55
 2240 0c6a 37       		.uleb128 0x37
 2241 0c6b 4F050000 		.4byte	.LASF137
 2242 0c6f 01       		.byte	0x1
 2243 0c70 82       		.byte	0x82
 2244 0c71 00000000 		.4byte	.LFB222
 2245 0c75 34000000 		.4byte	.LFE222-.LFB222
 2246 0c79 01       		.uleb128 0x1
 2247 0c7a 9C       		.byte	0x9c
 2248 0c7b A20D0000 		.4byte	0xda2
 2249 0c7f 2E       		.uleb128 0x2e
 2250 0c80 637000   		.ascii	"cp\000"
 2251 0c83 01       		.byte	0x1
 2252 0c84 82       		.byte	0x82
 2253 0c85 6B090000 		.4byte	0x96b
 2254 0c89 05020000 		.4byte	.LLST11
 2255 0c8d 33       		.uleb128 0x33
 2256 0c8e EC0F0000 		.4byte	0xfec
 2257 0c92 04000000 		.4byte	.LBB111
 2258 0c96 06000000 		.4byte	.LBE111-.LBB111
 2259 0c9a 01       		.byte	0x1
 2260 0c9b 84       		.byte	0x84
 2261 0c9c CC0C0000 		.4byte	0xccc
 2262 0ca0 2A       		.uleb128 0x2a
 2263 0ca1 A2100000 		.4byte	0x10a2
 2264 0ca5 04000000 		.4byte	.LBB112
 2265 0ca9 06000000 		.4byte	.LBE112-.LBB112
 2266 0cad 12       		.byte	0x12
 2267 0cae 5C01     		.2byte	0x15c
 2268 0cb0 2A       		.uleb128 0x2a
 2269 0cb1 AB100000 		.4byte	0x10ab
 2270 0cb5 04000000 		.4byte	.LBB113
 2271 0cb9 06000000 		.4byte	.LBE113-.LBB113
 2272 0cbd 0D       		.byte	0xd
 2273 0cbe BF01     		.2byte	0x1bf
 2274 0cc0 23       		.uleb128 0x23
 2275 0cc1 B8100000 		.4byte	0x10b8
 2276 0cc5 23020000 		.4byte	.LLST12
 2277 0cc9 00       		.byte	0
 2278 0cca 00       		.byte	0
 2279 0ccb 00       		.byte	0
 2280 0ccc 33       		.uleb128 0x33
ARM GAS  /var/tmp//ccGbfAGO.s 			page 41


 2281 0ccd 310C0000 		.4byte	0xc31
 2282 0cd1 0A000000 		.4byte	.LBB115
 2283 0cd5 1E000000 		.4byte	.LBE115-.LBB115
 2284 0cd9 01       		.byte	0x1
 2285 0cda 85       		.byte	0x85
 2286 0cdb 4A0D0000 		.4byte	0xd4a
 2287 0cdf 38       		.uleb128 0x38
 2288 0ce0 3D0C0000 		.4byte	0xc3d
 2289 0ce4 2B       		.uleb128 0x2b
 2290 0ce5 0A000000 		.4byte	.LBB116
 2291 0ce9 1E000000 		.4byte	.LBE116-.LBB116
 2292 0ced 2C       		.uleb128 0x2c
 2293 0cee 470C0000 		.4byte	0xc47
 2294 0cf2 31       		.uleb128 0x31
 2295 0cf3 54100000 		.4byte	0x1054
 2296 0cf7 0A000000 		.4byte	.LBB117
 2297 0cfb 18000000 		.4byte	.Ldebug_ranges0+0x18
 2298 0cff 01       		.byte	0x1
 2299 0d00 9D       		.byte	0x9d
 2300 0d01 0F0D0000 		.4byte	0xd0f
 2301 0d05 23       		.uleb128 0x23
 2302 0d06 65100000 		.4byte	0x1065
 2303 0d0a 38020000 		.4byte	.LLST13
 2304 0d0e 00       		.byte	0
 2305 0d0f 33       		.uleb128 0x33
 2306 0d10 F50F0000 		.4byte	0xff5
 2307 0d14 16000000 		.4byte	.LBB120
 2308 0d18 06000000 		.4byte	.LBE120-.LBB120
 2309 0d1c 01       		.byte	0x1
 2310 0d1d 9E       		.byte	0x9e
 2311 0d1e 3F0D0000 		.4byte	0xd3f
 2312 0d22 23       		.uleb128 0x23
 2313 0d23 06100000 		.4byte	0x1006
 2314 0d27 56020000 		.4byte	.LLST14
 2315 0d2b 2B       		.uleb128 0x2b
 2316 0d2c 16000000 		.4byte	.LBB121
 2317 0d30 06000000 		.4byte	.LBE121-.LBB121
 2318 0d34 25       		.uleb128 0x25
 2319 0d35 12100000 		.4byte	0x1012
 2320 0d39 69020000 		.4byte	.LLST15
 2321 0d3d 00       		.byte	0
 2322 0d3e 00       		.byte	0
 2323 0d3f 39       		.uleb128 0x39
 2324 0d40 20000000 		.4byte	.LVL22
 2325 0d44 6B110000 		.4byte	0x116b
 2326 0d48 00       		.byte	0
 2327 0d49 00       		.byte	0
 2328 0d4a 33       		.uleb128 0x33
 2329 0d4b D10F0000 		.4byte	0xfd1
 2330 0d4f 2C000000 		.4byte	.LBB123
 2331 0d53 06000000 		.4byte	.LBE123-.LBB123
 2332 0d57 01       		.byte	0x1
 2333 0d58 87       		.byte	0x87
 2334 0d59 980D0000 		.4byte	0xd98
 2335 0d5d 2B       		.uleb128 0x2b
 2336 0d5e 2C000000 		.4byte	.LBB124
 2337 0d62 06000000 		.4byte	.LBE124-.LBB124
ARM GAS  /var/tmp//ccGbfAGO.s 			page 42


 2338 0d66 2C       		.uleb128 0x2c
 2339 0d67 DE0F0000 		.4byte	0xfde
 2340 0d6b 2A       		.uleb128 0x2a
 2341 0d6c 99100000 		.4byte	0x1099
 2342 0d70 2C000000 		.4byte	.LBB125
 2343 0d74 06000000 		.4byte	.LBE125-.LBB125
 2344 0d78 12       		.byte	0x12
 2345 0d79 7301     		.2byte	0x173
 2346 0d7b 2A       		.uleb128 0x2a
 2347 0d7c AB100000 		.4byte	0x10ab
 2348 0d80 2C000000 		.4byte	.LBB126
 2349 0d84 06000000 		.4byte	.LBE126-.LBB126
 2350 0d88 0D       		.byte	0xd
 2351 0d89 CD01     		.2byte	0x1cd
 2352 0d8b 23       		.uleb128 0x23
 2353 0d8c B8100000 		.4byte	0x10b8
 2354 0d90 7C020000 		.4byte	.LLST16
 2355 0d94 00       		.byte	0
 2356 0d95 00       		.byte	0
 2357 0d96 00       		.byte	0
 2358 0d97 00       		.byte	0
 2359 0d98 39       		.uleb128 0x39
 2360 0d99 2C000000 		.4byte	.LVL25
 2361 0d9d 77110000 		.4byte	0x1177
 2362 0da1 00       		.byte	0
 2363 0da2 37       		.uleb128 0x37
 2364 0da3 9C050000 		.4byte	.LASF138
 2365 0da7 01       		.byte	0x1
 2366 0da8 6F       		.byte	0x6f
 2367 0da9 00000000 		.4byte	.LFB221
 2368 0dad 18000000 		.4byte	.LFE221-.LFB221
 2369 0db1 01       		.uleb128 0x1
 2370 0db2 9C       		.byte	0x9c
 2371 0db3 350E0000 		.4byte	0xe35
 2372 0db7 2E       		.uleb128 0x2e
 2373 0db8 637000   		.ascii	"cp\000"
 2374 0dbb 01       		.byte	0x1
 2375 0dbc 6F       		.byte	0x6f
 2376 0dbd 6B090000 		.4byte	0x96b
 2377 0dc1 90020000 		.4byte	.LLST7
 2378 0dc5 1F       		.uleb128 0x1f
 2379 0dc6 20060000 		.4byte	.LASF135
 2380 0dca 450E0000 		.4byte	0xe45
 2381 0dce 3A       		.uleb128 0x3a
 2382 0dcf 06000000 		.4byte	.LBB106
 2383 0dd3 12000000 		.4byte	.LBE106-.LBB106
 2384 0dd7 1B0E0000 		.4byte	0xe1b
 2385 0ddb 30       		.uleb128 0x30
 2386 0ddc 747000   		.ascii	"tp\000"
 2387 0ddf 01       		.byte	0x1
 2388 0de0 75       		.byte	0x75
 2389 0de1 6C020000 		.4byte	0x26c
 2390 0de5 31       		.uleb128 0x31
 2391 0de6 F50F0000 		.4byte	0xff5
 2392 0dea 06000000 		.4byte	.LBB107
 2393 0dee 00000000 		.4byte	.Ldebug_ranges0+0
 2394 0df2 01       		.byte	0x1
ARM GAS  /var/tmp//ccGbfAGO.s 			page 43


 2395 0df3 75       		.byte	0x75
 2396 0df4 110E0000 		.4byte	0xe11
 2397 0df8 23       		.uleb128 0x23
 2398 0df9 06100000 		.4byte	0x1006
 2399 0dfd C8020000 		.4byte	.LLST9
 2400 0e01 24       		.uleb128 0x24
 2401 0e02 00000000 		.4byte	.Ldebug_ranges0+0
 2402 0e06 25       		.uleb128 0x25
 2403 0e07 12100000 		.4byte	0x1012
 2404 0e0b DB020000 		.4byte	.LLST10
 2405 0e0f 00       		.byte	0
 2406 0e10 00       		.byte	0
 2407 0e11 3B       		.uleb128 0x3b
 2408 0e12 16000000 		.4byte	.LVL16
 2409 0e16 6B110000 		.4byte	0x116b
 2410 0e1a 00       		.byte	0
 2411 0e1b 3C       		.uleb128 0x3c
 2412 0e1c 54100000 		.4byte	0x1054
 2413 0e20 00000000 		.4byte	.LBB104
 2414 0e24 02000000 		.4byte	.LBE104-.LBB104
 2415 0e28 01       		.byte	0x1
 2416 0e29 74       		.byte	0x74
 2417 0e2a 23       		.uleb128 0x23
 2418 0e2b 65100000 		.4byte	0x1065
 2419 0e2f EE020000 		.4byte	.LLST8
 2420 0e33 00       		.byte	0
 2421 0e34 00       		.byte	0
 2422 0e35 17       		.uleb128 0x17
 2423 0e36 0F070000 		.4byte	0x70f
 2424 0e3a 450E0000 		.4byte	0xe45
 2425 0e3e 18       		.uleb128 0x18
 2426 0e3f 84040000 		.4byte	0x484
 2427 0e43 0D       		.byte	0xd
 2428 0e44 00       		.byte	0
 2429 0e45 0B       		.uleb128 0xb
 2430 0e46 350E0000 		.4byte	0xe35
 2431 0e4a 37       		.uleb128 0x37
 2432 0e4b 3E020000 		.4byte	.LASF139
 2433 0e4f 01       		.byte	0x1
 2434 0e50 59       		.byte	0x59
 2435 0e51 00000000 		.4byte	.LFB220
 2436 0e55 26000000 		.4byte	.LFE220-.LFB220
 2437 0e59 01       		.uleb128 0x1
 2438 0e5a 9C       		.byte	0x9c
 2439 0e5b 600F0000 		.4byte	0xf60
 2440 0e5f 2E       		.uleb128 0x2e
 2441 0e60 637000   		.ascii	"cp\000"
 2442 0e63 01       		.byte	0x1
 2443 0e64 59       		.byte	0x59
 2444 0e65 6B090000 		.4byte	0x96b
 2445 0e69 01030000 		.4byte	.LLST1
 2446 0e6d 1F       		.uleb128 0x1f
 2447 0e6e 20060000 		.4byte	.LASF135
 2448 0e72 700F0000 		.4byte	0xf70
 2449 0e76 33       		.uleb128 0x33
 2450 0e77 EC0F0000 		.4byte	0xfec
 2451 0e7b 02000000 		.4byte	.LBB91
ARM GAS  /var/tmp//ccGbfAGO.s 			page 44


 2452 0e7f 06000000 		.4byte	.LBE91-.LBB91
 2453 0e83 01       		.byte	0x1
 2454 0e84 5D       		.byte	0x5d
 2455 0e85 B50E0000 		.4byte	0xeb5
 2456 0e89 2A       		.uleb128 0x2a
 2457 0e8a A2100000 		.4byte	0x10a2
 2458 0e8e 02000000 		.4byte	.LBB92
 2459 0e92 06000000 		.4byte	.LBE92-.LBB92
 2460 0e96 12       		.byte	0x12
 2461 0e97 5C01     		.2byte	0x15c
 2462 0e99 2A       		.uleb128 0x2a
 2463 0e9a AB100000 		.4byte	0x10ab
 2464 0e9e 02000000 		.4byte	.LBB93
 2465 0ea2 06000000 		.4byte	.LBE93-.LBB93
 2466 0ea6 0D       		.byte	0xd
 2467 0ea7 BF01     		.2byte	0x1bf
 2468 0ea9 23       		.uleb128 0x23
 2469 0eaa B8100000 		.4byte	0x10b8
 2470 0eae 2D030000 		.4byte	.LLST2
 2471 0eb2 00       		.byte	0
 2472 0eb3 00       		.byte	0
 2473 0eb4 00       		.byte	0
 2474 0eb5 33       		.uleb128 0x33
 2475 0eb6 54100000 		.4byte	0x1054
 2476 0eba 08000000 		.4byte	.LBB95
 2477 0ebe 02000000 		.4byte	.LBE95-.LBB95
 2478 0ec2 01       		.byte	0x1
 2479 0ec3 5E       		.byte	0x5e
 2480 0ec4 D20E0000 		.4byte	0xed2
 2481 0ec8 23       		.uleb128 0x23
 2482 0ec9 65100000 		.4byte	0x1065
 2483 0ecd 42030000 		.4byte	.LLST3
 2484 0ed1 00       		.byte	0
 2485 0ed2 33       		.uleb128 0x33
 2486 0ed3 F50F0000 		.4byte	0xff5
 2487 0ed7 0E000000 		.4byte	.LBB97
 2488 0edb 08000000 		.4byte	.LBE97-.LBB97
 2489 0edf 01       		.byte	0x1
 2490 0ee0 5F       		.byte	0x5f
 2491 0ee1 020F0000 		.4byte	0xf02
 2492 0ee5 23       		.uleb128 0x23
 2493 0ee6 06100000 		.4byte	0x1006
 2494 0eea 55030000 		.4byte	.LLST4
 2495 0eee 2B       		.uleb128 0x2b
 2496 0eef 0E000000 		.4byte	.LBB98
 2497 0ef3 08000000 		.4byte	.LBE98-.LBB98
 2498 0ef7 25       		.uleb128 0x25
 2499 0ef8 12100000 		.4byte	0x1012
 2500 0efc 68030000 		.4byte	.LLST5
 2501 0f00 00       		.byte	0
 2502 0f01 00       		.byte	0
 2503 0f02 33       		.uleb128 0x33
 2504 0f03 D10F0000 		.4byte	0xfd1
 2505 0f07 1E000000 		.4byte	.LBB99
 2506 0f0b 08000000 		.4byte	.LBE99-.LBB99
 2507 0f0f 01       		.byte	0x1
 2508 0f10 61       		.byte	0x61
ARM GAS  /var/tmp//ccGbfAGO.s 			page 45


 2509 0f11 500F0000 		.4byte	0xf50
 2510 0f15 2B       		.uleb128 0x2b
 2511 0f16 1E000000 		.4byte	.LBB100
 2512 0f1a 08000000 		.4byte	.LBE100-.LBB100
 2513 0f1e 2C       		.uleb128 0x2c
 2514 0f1f DE0F0000 		.4byte	0xfde
 2515 0f23 2A       		.uleb128 0x2a
 2516 0f24 99100000 		.4byte	0x1099
 2517 0f28 1E000000 		.4byte	.LBB101
 2518 0f2c 08000000 		.4byte	.LBE101-.LBB101
 2519 0f30 12       		.byte	0x12
 2520 0f31 7301     		.2byte	0x173
 2521 0f33 2A       		.uleb128 0x2a
 2522 0f34 AB100000 		.4byte	0x10ab
 2523 0f38 1E000000 		.4byte	.LBB102
 2524 0f3c 08000000 		.4byte	.LBE102-.LBB102
 2525 0f40 0D       		.byte	0xd
 2526 0f41 CD01     		.2byte	0x1cd
 2527 0f43 23       		.uleb128 0x23
 2528 0f44 B8100000 		.4byte	0x10b8
 2529 0f48 7B030000 		.4byte	.LLST6
 2530 0f4c 00       		.byte	0
 2531 0f4d 00       		.byte	0
 2532 0f4e 00       		.byte	0
 2533 0f4f 00       		.byte	0
 2534 0f50 28       		.uleb128 0x28
 2535 0f51 1E000000 		.4byte	.LVL8
 2536 0f55 83110000 		.4byte	0x1183
 2537 0f59 27       		.uleb128 0x27
 2538 0f5a 01       		.uleb128 0x1
 2539 0f5b 51       		.byte	0x51
 2540 0f5c 01       		.uleb128 0x1
 2541 0f5d 30       		.byte	0x30
 2542 0f5e 00       		.byte	0
 2543 0f5f 00       		.byte	0
 2544 0f60 17       		.uleb128 0x17
 2545 0f61 0F070000 		.4byte	0x70f
 2546 0f65 700F0000 		.4byte	0xf70
 2547 0f69 18       		.uleb128 0x18
 2548 0f6a 84040000 		.4byte	0x484
 2549 0f6e 0C       		.byte	0xc
 2550 0f6f 00       		.byte	0
 2551 0f70 0B       		.uleb128 0xb
 2552 0f71 600F0000 		.4byte	0xf60
 2553 0f75 37       		.uleb128 0x37
 2554 0f76 04070000 		.4byte	.LASF140
 2555 0f7a 01       		.byte	0x1
 2556 0f7b 4B       		.byte	0x4b
 2557 0f7c 00000000 		.4byte	.LFB219
 2558 0f80 06000000 		.4byte	.LFE219-.LFB219
 2559 0f84 01       		.uleb128 0x1
 2560 0f85 9C       		.byte	0x9c
 2561 0f86 B90F0000 		.4byte	0xfb9
 2562 0f8a 3D       		.uleb128 0x3d
 2563 0f8b 637000   		.ascii	"cp\000"
 2564 0f8e 01       		.byte	0x1
 2565 0f8f 4B       		.byte	0x4b
ARM GAS  /var/tmp//ccGbfAGO.s 			page 46


 2566 0f90 6B090000 		.4byte	0x96b
 2567 0f94 01       		.uleb128 0x1
 2568 0f95 50       		.byte	0x50
 2569 0f96 1F       		.uleb128 0x1f
 2570 0f97 20060000 		.4byte	.LASF135
 2571 0f9b 650C0000 		.4byte	0xc65
 2572 0f9f 3C       		.uleb128 0x3c
 2573 0fa0 7F100000 		.4byte	0x107f
 2574 0fa4 00000000 		.4byte	.LBB89
 2575 0fa8 06000000 		.4byte	.LBE89-.LBB89
 2576 0fac 01       		.byte	0x1
 2577 0fad 4F       		.byte	0x4f
 2578 0fae 23       		.uleb128 0x23
 2579 0faf 8C100000 		.4byte	0x108c
 2580 0fb3 8F030000 		.4byte	.LLST0
 2581 0fb7 00       		.byte	0
 2582 0fb8 00       		.byte	0
 2583 0fb9 3E       		.uleb128 0x3e
 2584 0fba 87060000 		.4byte	.LASF141
 2585 0fbe 04       		.byte	0x4
 2586 0fbf 90       		.byte	0x90
 2587 0fc0 4C080000 		.4byte	0x84c
 2588 0fc4 03       		.byte	0x3
 2589 0fc5 3E       		.uleb128 0x3e
 2590 0fc6 CD070000 		.4byte	.LASF142
 2591 0fca 05       		.byte	0x5
 2592 0fcb AE       		.byte	0xae
 2593 0fcc 6C020000 		.4byte	0x26c
 2594 0fd0 03       		.byte	0x3
 2595 0fd1 3F       		.uleb128 0x3f
 2596 0fd2 36080000 		.4byte	.LASF144
 2597 0fd6 12       		.byte	0x12
 2598 0fd7 6601     		.2byte	0x166
 2599 0fd9 03       		.byte	0x3
 2600 0fda EC0F0000 		.4byte	0xfec
 2601 0fde 36       		.uleb128 0x36
 2602 0fdf 20060000 		.4byte	.LASF135
 2603 0fe3 590B0000 		.4byte	0xb59
 2604 0fe7 36080000 		.4byte	.LASF144
 2605 0feb 00       		.byte	0
 2606 0fec 40       		.uleb128 0x40
 2607 0fed 29060000 		.4byte	.LASF150
 2608 0ff1 12       		.byte	0x12
 2609 0ff2 5A01     		.2byte	0x15a
 2610 0ff4 03       		.byte	0x3
 2611 0ff5 41       		.uleb128 0x41
 2612 0ff6 15070000 		.4byte	.LASF146
 2613 0ffa 02       		.byte	0x2
 2614 0ffb 9F02     		.2byte	0x29f
 2615 0ffd 6C020000 		.4byte	0x26c
 2616 1001 03       		.byte	0x3
 2617 1002 1E100000 		.4byte	0x101e
 2618 1006 42       		.uleb128 0x42
 2619 1007 74717000 		.ascii	"tqp\000"
 2620 100b 02       		.byte	0x2
 2621 100c 9F02     		.2byte	0x29f
 2622 100e 1E100000 		.4byte	0x101e
ARM GAS  /var/tmp//ccGbfAGO.s 			page 47


 2623 1012 1D       		.uleb128 0x1d
 2624 1013 747000   		.ascii	"tp\000"
 2625 1016 02       		.byte	0x2
 2626 1017 A002     		.2byte	0x2a0
 2627 1019 6C020000 		.4byte	0x26c
 2628 101d 00       		.byte	0
 2629 101e 0A       		.uleb128 0xa
 2630 101f 04       		.byte	0x4
 2631 1020 96020000 		.4byte	0x296
 2632 1024 3F       		.uleb128 0x3f
 2633 1025 58080000 		.4byte	.LASF145
 2634 1029 02       		.byte	0x2
 2635 102a 8B02     		.2byte	0x28b
 2636 102c 03       		.byte	0x3
 2637 102d 54100000 		.4byte	0x1054
 2638 1031 42       		.uleb128 0x42
 2639 1032 747000   		.ascii	"tp\000"
 2640 1035 02       		.byte	0x2
 2641 1036 8B02     		.2byte	0x28b
 2642 1038 6C020000 		.4byte	0x26c
 2643 103c 42       		.uleb128 0x42
 2644 103d 74717000 		.ascii	"tqp\000"
 2645 1041 02       		.byte	0x2
 2646 1042 8B02     		.2byte	0x28b
 2647 1044 1E100000 		.4byte	0x101e
 2648 1048 1D       		.uleb128 0x1d
 2649 1049 637000   		.ascii	"cp\000"
 2650 104c 02       		.byte	0x2
 2651 104d 8D02     		.2byte	0x28d
 2652 104f 6C020000 		.4byte	0x26c
 2653 1053 00       		.byte	0
 2654 1054 41       		.uleb128 0x41
 2655 1055 CD010000 		.4byte	.LASF147
 2656 1059 02       		.byte	0x2
 2657 105a 7502     		.2byte	0x275
 2658 105c 72100000 		.4byte	0x1072
 2659 1060 03       		.byte	0x3
 2660 1061 72100000 		.4byte	0x1072
 2661 1065 42       		.uleb128 0x42
 2662 1066 74717000 		.ascii	"tqp\000"
 2663 106a 02       		.byte	0x2
 2664 106b 7502     		.2byte	0x275
 2665 106d 79100000 		.4byte	0x1079
 2666 1071 00       		.byte	0
 2667 1072 03       		.uleb128 0x3
 2668 1073 01       		.byte	0x1
 2669 1074 02       		.byte	0x2
 2670 1075 AA050000 		.4byte	.LASF148
 2671 1079 0A       		.uleb128 0xa
 2672 107a 04       		.byte	0x4
 2673 107b A1020000 		.4byte	0x2a1
 2674 107f 3F       		.uleb128 0x3f
 2675 1080 64000000 		.4byte	.LASF149
 2676 1084 02       		.byte	0x2
 2677 1085 5A02     		.2byte	0x25a
 2678 1087 03       		.byte	0x3
 2679 1088 99100000 		.4byte	0x1099
ARM GAS  /var/tmp//ccGbfAGO.s 			page 48


 2680 108c 42       		.uleb128 0x42
 2681 108d 74717000 		.ascii	"tqp\000"
 2682 1091 02       		.byte	0x2
 2683 1092 5A02     		.2byte	0x25a
 2684 1094 1E100000 		.4byte	0x101e
 2685 1098 00       		.byte	0
 2686 1099 40       		.uleb128 0x40
 2687 109a 8F010000 		.4byte	.LASF151
 2688 109e 0D       		.byte	0xd
 2689 109f CA01     		.2byte	0x1ca
 2690 10a1 03       		.byte	0x3
 2691 10a2 40       		.uleb128 0x40
 2692 10a3 6F000000 		.4byte	.LASF152
 2693 10a7 0D       		.byte	0xd
 2694 10a8 BC01     		.2byte	0x1bc
 2695 10aa 03       		.byte	0x3
 2696 10ab 3F       		.uleb128 0x3f
 2697 10ac 50070000 		.4byte	.LASF153
 2698 10b0 03       		.byte	0x3
 2699 10b1 2002     		.2byte	0x220
 2700 10b3 03       		.byte	0x3
 2701 10b4 C5100000 		.4byte	0x10c5
 2702 10b8 43       		.uleb128 0x43
 2703 10b9 38020000 		.4byte	.LASF154
 2704 10bd 03       		.byte	0x3
 2705 10be 2002     		.2byte	0x220
 2706 10c0 C8000000 		.4byte	0xc8
 2707 10c4 00       		.byte	0
 2708 10c5 44       		.uleb128 0x44
 2709 10c6 310C0000 		.4byte	0xc31
 2710 10ca 00000000 		.4byte	.LFB223
 2711 10ce 22000000 		.4byte	.LFE223-.LFB223
 2712 10d2 01       		.uleb128 0x1
 2713 10d3 9C       		.byte	0x9c
 2714 10d4 3D110000 		.4byte	0x113d
 2715 10d8 23       		.uleb128 0x23
 2716 10d9 3D0C0000 		.4byte	0xc3d
 2717 10dd A2030000 		.4byte	.LLST17
 2718 10e1 2C       		.uleb128 0x2c
 2719 10e2 470C0000 		.4byte	0xc47
 2720 10e6 31       		.uleb128 0x31
 2721 10e7 54100000 		.4byte	0x1054
 2722 10eb 04000000 		.4byte	.LBB128
 2723 10ef 30000000 		.4byte	.Ldebug_ranges0+0x30
 2724 10f3 01       		.byte	0x1
 2725 10f4 9D       		.byte	0x9d
 2726 10f5 03110000 		.4byte	0x1103
 2727 10f9 23       		.uleb128 0x23
 2728 10fa 65100000 		.4byte	0x1065
 2729 10fe C0030000 		.4byte	.LLST18
 2730 1102 00       		.byte	0
 2731 1103 33       		.uleb128 0x33
 2732 1104 F50F0000 		.4byte	0xff5
 2733 1108 0E000000 		.4byte	.LBB131
 2734 110c 06000000 		.4byte	.LBE131-.LBB131
 2735 1110 01       		.byte	0x1
 2736 1111 9E       		.byte	0x9e
ARM GAS  /var/tmp//ccGbfAGO.s 			page 49


 2737 1112 33110000 		.4byte	0x1133
 2738 1116 23       		.uleb128 0x23
 2739 1117 06100000 		.4byte	0x1006
 2740 111b DE030000 		.4byte	.LLST19
 2741 111f 2B       		.uleb128 0x2b
 2742 1120 0E000000 		.4byte	.LBB132
 2743 1124 06000000 		.4byte	.LBE132-.LBB132
 2744 1128 25       		.uleb128 0x25
 2745 1129 12100000 		.4byte	0x1012
 2746 112d F1030000 		.4byte	.LLST20
 2747 1131 00       		.byte	0
 2748 1132 00       		.byte	0
 2749 1133 39       		.uleb128 0x39
 2750 1134 18000000 		.4byte	.LVL32
 2751 1138 6B110000 		.4byte	0x116b
 2752 113c 00       		.byte	0
 2753 113d 45       		.uleb128 0x45
 2754 113e 60020000 		.4byte	.LASF155
 2755 1142 60020000 		.4byte	.LASF155
 2756 1146 04       		.byte	0x4
 2757 1147 6D       		.byte	0x6d
 2758 1148 46       		.uleb128 0x46
 2759 1149 21080000 		.4byte	.LASF156
 2760 114d 21080000 		.4byte	.LASF156
 2761 1151 02       		.byte	0x2
 2762 1152 1502     		.2byte	0x215
 2763 1154 45       		.uleb128 0x45
 2764 1155 4D080000 		.4byte	.LASF157
 2765 1159 4D080000 		.4byte	.LASF157
 2766 115d 04       		.byte	0x4
 2767 115e 69       		.byte	0x69
 2768 115f 46       		.uleb128 0x46
 2769 1160 6E060000 		.4byte	.LASF158
 2770 1164 6E060000 		.4byte	.LASF158
 2771 1168 02       		.byte	0x2
 2772 1169 1402     		.2byte	0x214
 2773 116b 46       		.uleb128 0x46
 2774 116c B7060000 		.4byte	.LASF159
 2775 1170 B7060000 		.4byte	.LASF159
 2776 1174 02       		.byte	0x2
 2777 1175 1302     		.2byte	0x213
 2778 1177 46       		.uleb128 0x46
 2779 1178 F6010000 		.4byte	.LASF160
 2780 117c F6010000 		.4byte	.LASF160
 2781 1180 02       		.byte	0x2
 2782 1181 1702     		.2byte	0x217
 2783 1183 46       		.uleb128 0x46
 2784 1184 E9020000 		.4byte	.LASF161
 2785 1188 E9020000 		.4byte	.LASF161
 2786 118c 02       		.byte	0x2
 2787 118d 1602     		.2byte	0x216
 2788 118f 00       		.byte	0
 2789              		.section	.debug_abbrev,"",%progbits
 2790              	.Ldebug_abbrev0:
 2791 0000 01       		.uleb128 0x1
 2792 0001 11       		.uleb128 0x11
 2793 0002 01       		.byte	0x1
ARM GAS  /var/tmp//ccGbfAGO.s 			page 50


 2794 0003 25       		.uleb128 0x25
 2795 0004 0E       		.uleb128 0xe
 2796 0005 13       		.uleb128 0x13
 2797 0006 0B       		.uleb128 0xb
 2798 0007 03       		.uleb128 0x3
 2799 0008 0E       		.uleb128 0xe
 2800 0009 1B       		.uleb128 0x1b
 2801 000a 0E       		.uleb128 0xe
 2802 000b 55       		.uleb128 0x55
 2803 000c 17       		.uleb128 0x17
 2804 000d 11       		.uleb128 0x11
 2805 000e 01       		.uleb128 0x1
 2806 000f 10       		.uleb128 0x10
 2807 0010 17       		.uleb128 0x17
 2808 0011 00       		.byte	0
 2809 0012 00       		.byte	0
 2810 0013 02       		.uleb128 0x2
 2811 0014 24       		.uleb128 0x24
 2812 0015 00       		.byte	0
 2813 0016 0B       		.uleb128 0xb
 2814 0017 0B       		.uleb128 0xb
 2815 0018 3E       		.uleb128 0x3e
 2816 0019 0B       		.uleb128 0xb
 2817 001a 03       		.uleb128 0x3
 2818 001b 08       		.uleb128 0x8
 2819 001c 00       		.byte	0
 2820 001d 00       		.byte	0
 2821 001e 03       		.uleb128 0x3
 2822 001f 24       		.uleb128 0x24
 2823 0020 00       		.byte	0
 2824 0021 0B       		.uleb128 0xb
 2825 0022 0B       		.uleb128 0xb
 2826 0023 3E       		.uleb128 0x3e
 2827 0024 0B       		.uleb128 0xb
 2828 0025 03       		.uleb128 0x3
 2829 0026 0E       		.uleb128 0xe
 2830 0027 00       		.byte	0
 2831 0028 00       		.byte	0
 2832 0029 04       		.uleb128 0x4
 2833 002a 16       		.uleb128 0x16
 2834 002b 00       		.byte	0
 2835 002c 03       		.uleb128 0x3
 2836 002d 0E       		.uleb128 0xe
 2837 002e 3A       		.uleb128 0x3a
 2838 002f 0B       		.uleb128 0xb
 2839 0030 3B       		.uleb128 0x3b
 2840 0031 0B       		.uleb128 0xb
 2841 0032 49       		.uleb128 0x49
 2842 0033 13       		.uleb128 0x13
 2843 0034 00       		.byte	0
 2844 0035 00       		.byte	0
 2845 0036 05       		.uleb128 0x5
 2846 0037 35       		.uleb128 0x35
 2847 0038 00       		.byte	0
 2848 0039 49       		.uleb128 0x49
 2849 003a 13       		.uleb128 0x13
 2850 003b 00       		.byte	0
ARM GAS  /var/tmp//ccGbfAGO.s 			page 51


 2851 003c 00       		.byte	0
 2852 003d 06       		.uleb128 0x6
 2853 003e 13       		.uleb128 0x13
 2854 003f 01       		.byte	0x1
 2855 0040 03       		.uleb128 0x3
 2856 0041 0E       		.uleb128 0xe
 2857 0042 0B       		.uleb128 0xb
 2858 0043 0B       		.uleb128 0xb
 2859 0044 3A       		.uleb128 0x3a
 2860 0045 0B       		.uleb128 0xb
 2861 0046 3B       		.uleb128 0x3b
 2862 0047 0B       		.uleb128 0xb
 2863 0048 01       		.uleb128 0x1
 2864 0049 13       		.uleb128 0x13
 2865 004a 00       		.byte	0
 2866 004b 00       		.byte	0
 2867 004c 07       		.uleb128 0x7
 2868 004d 0D       		.uleb128 0xd
 2869 004e 00       		.byte	0
 2870 004f 03       		.uleb128 0x3
 2871 0050 0E       		.uleb128 0xe
 2872 0051 3A       		.uleb128 0x3a
 2873 0052 0B       		.uleb128 0xb
 2874 0053 3B       		.uleb128 0x3b
 2875 0054 0B       		.uleb128 0xb
 2876 0055 49       		.uleb128 0x49
 2877 0056 13       		.uleb128 0x13
 2878 0057 38       		.uleb128 0x38
 2879 0058 0B       		.uleb128 0xb
 2880 0059 00       		.byte	0
 2881 005a 00       		.byte	0
 2882 005b 08       		.uleb128 0x8
 2883 005c 0D       		.uleb128 0xd
 2884 005d 00       		.byte	0
 2885 005e 03       		.uleb128 0x3
 2886 005f 08       		.uleb128 0x8
 2887 0060 3A       		.uleb128 0x3a
 2888 0061 0B       		.uleb128 0xb
 2889 0062 3B       		.uleb128 0x3b
 2890 0063 05       		.uleb128 0x5
 2891 0064 49       		.uleb128 0x49
 2892 0065 13       		.uleb128 0x13
 2893 0066 38       		.uleb128 0x38
 2894 0067 0B       		.uleb128 0xb
 2895 0068 00       		.byte	0
 2896 0069 00       		.byte	0
 2897 006a 09       		.uleb128 0x9
 2898 006b 0D       		.uleb128 0xd
 2899 006c 00       		.byte	0
 2900 006d 03       		.uleb128 0x3
 2901 006e 0E       		.uleb128 0xe
 2902 006f 3A       		.uleb128 0x3a
 2903 0070 0B       		.uleb128 0xb
 2904 0071 3B       		.uleb128 0x3b
 2905 0072 05       		.uleb128 0x5
 2906 0073 49       		.uleb128 0x49
 2907 0074 13       		.uleb128 0x13
ARM GAS  /var/tmp//ccGbfAGO.s 			page 52


 2908 0075 38       		.uleb128 0x38
 2909 0076 0B       		.uleb128 0xb
 2910 0077 00       		.byte	0
 2911 0078 00       		.byte	0
 2912 0079 0A       		.uleb128 0xa
 2913 007a 0F       		.uleb128 0xf
 2914 007b 00       		.byte	0
 2915 007c 0B       		.uleb128 0xb
 2916 007d 0B       		.uleb128 0xb
 2917 007e 49       		.uleb128 0x49
 2918 007f 13       		.uleb128 0x13
 2919 0080 00       		.byte	0
 2920 0081 00       		.byte	0
 2921 0082 0B       		.uleb128 0xb
 2922 0083 26       		.uleb128 0x26
 2923 0084 00       		.byte	0
 2924 0085 49       		.uleb128 0x49
 2925 0086 13       		.uleb128 0x13
 2926 0087 00       		.byte	0
 2927 0088 00       		.byte	0
 2928 0089 0C       		.uleb128 0xc
 2929 008a 13       		.uleb128 0x13
 2930 008b 01       		.byte	0x1
 2931 008c 03       		.uleb128 0x3
 2932 008d 0E       		.uleb128 0xe
 2933 008e 0B       		.uleb128 0xb
 2934 008f 0B       		.uleb128 0xb
 2935 0090 3A       		.uleb128 0x3a
 2936 0091 0B       		.uleb128 0xb
 2937 0092 3B       		.uleb128 0x3b
 2938 0093 05       		.uleb128 0x5
 2939 0094 01       		.uleb128 0x1
 2940 0095 13       		.uleb128 0x13
 2941 0096 00       		.byte	0
 2942 0097 00       		.byte	0
 2943 0098 0D       		.uleb128 0xd
 2944 0099 15       		.uleb128 0x15
 2945 009a 01       		.byte	0x1
 2946 009b 27       		.uleb128 0x27
 2947 009c 19       		.uleb128 0x19
 2948 009d 01       		.uleb128 0x1
 2949 009e 13       		.uleb128 0x13
 2950 009f 00       		.byte	0
 2951 00a0 00       		.byte	0
 2952 00a1 0E       		.uleb128 0xe
 2953 00a2 05       		.uleb128 0x5
 2954 00a3 00       		.byte	0
 2955 00a4 49       		.uleb128 0x49
 2956 00a5 13       		.uleb128 0x13
 2957 00a6 00       		.byte	0
 2958 00a7 00       		.byte	0
 2959 00a8 0F       		.uleb128 0xf
 2960 00a9 0F       		.uleb128 0xf
 2961 00aa 00       		.byte	0
 2962 00ab 0B       		.uleb128 0xb
 2963 00ac 0B       		.uleb128 0xb
 2964 00ad 00       		.byte	0
ARM GAS  /var/tmp//ccGbfAGO.s 			page 53


 2965 00ae 00       		.byte	0
 2966 00af 10       		.uleb128 0x10
 2967 00b0 13       		.uleb128 0x13
 2968 00b1 01       		.byte	0x1
 2969 00b2 03       		.uleb128 0x3
 2970 00b3 0E       		.uleb128 0xe
 2971 00b4 0B       		.uleb128 0xb
 2972 00b5 05       		.uleb128 0x5
 2973 00b6 3A       		.uleb128 0x3a
 2974 00b7 0B       		.uleb128 0xb
 2975 00b8 3B       		.uleb128 0x3b
 2976 00b9 05       		.uleb128 0x5
 2977 00ba 01       		.uleb128 0x1
 2978 00bb 13       		.uleb128 0x13
 2979 00bc 00       		.byte	0
 2980 00bd 00       		.byte	0
 2981 00be 11       		.uleb128 0x11
 2982 00bf 34       		.uleb128 0x34
 2983 00c0 00       		.byte	0
 2984 00c1 03       		.uleb128 0x3
 2985 00c2 0E       		.uleb128 0xe
 2986 00c3 3A       		.uleb128 0x3a
 2987 00c4 0B       		.uleb128 0xb
 2988 00c5 3B       		.uleb128 0x3b
 2989 00c6 05       		.uleb128 0x5
 2990 00c7 49       		.uleb128 0x49
 2991 00c8 13       		.uleb128 0x13
 2992 00c9 3F       		.uleb128 0x3f
 2993 00ca 19       		.uleb128 0x19
 2994 00cb 3C       		.uleb128 0x3c
 2995 00cc 19       		.uleb128 0x19
 2996 00cd 00       		.byte	0
 2997 00ce 00       		.byte	0
 2998 00cf 12       		.uleb128 0x12
 2999 00d0 34       		.uleb128 0x34
 3000 00d1 00       		.byte	0
 3001 00d2 03       		.uleb128 0x3
 3002 00d3 0E       		.uleb128 0xe
 3003 00d4 3A       		.uleb128 0x3a
 3004 00d5 0B       		.uleb128 0xb
 3005 00d6 3B       		.uleb128 0x3b
 3006 00d7 0B       		.uleb128 0xb
 3007 00d8 49       		.uleb128 0x49
 3008 00d9 13       		.uleb128 0x13
 3009 00da 3F       		.uleb128 0x3f
 3010 00db 19       		.uleb128 0x19
 3011 00dc 3C       		.uleb128 0x3c
 3012 00dd 19       		.uleb128 0x19
 3013 00de 00       		.byte	0
 3014 00df 00       		.byte	0
 3015 00e0 13       		.uleb128 0x13
 3016 00e1 0D       		.uleb128 0xd
 3017 00e2 00       		.byte	0
 3018 00e3 03       		.uleb128 0x3
 3019 00e4 08       		.uleb128 0x8
 3020 00e5 3A       		.uleb128 0x3a
 3021 00e6 0B       		.uleb128 0xb
ARM GAS  /var/tmp//ccGbfAGO.s 			page 54


 3022 00e7 3B       		.uleb128 0x3b
 3023 00e8 0B       		.uleb128 0xb
 3024 00e9 49       		.uleb128 0x49
 3025 00ea 13       		.uleb128 0x13
 3026 00eb 38       		.uleb128 0x38
 3027 00ec 0B       		.uleb128 0xb
 3028 00ed 00       		.byte	0
 3029 00ee 00       		.byte	0
 3030 00ef 14       		.uleb128 0x14
 3031 00f0 13       		.uleb128 0x13
 3032 00f1 01       		.byte	0x1
 3033 00f2 0B       		.uleb128 0xb
 3034 00f3 0B       		.uleb128 0xb
 3035 00f4 3A       		.uleb128 0x3a
 3036 00f5 0B       		.uleb128 0xb
 3037 00f6 3B       		.uleb128 0x3b
 3038 00f7 0B       		.uleb128 0xb
 3039 00f8 01       		.uleb128 0x1
 3040 00f9 13       		.uleb128 0x13
 3041 00fa 00       		.byte	0
 3042 00fb 00       		.byte	0
 3043 00fc 15       		.uleb128 0x15
 3044 00fd 17       		.uleb128 0x17
 3045 00fe 01       		.byte	0x1
 3046 00ff 0B       		.uleb128 0xb
 3047 0100 0B       		.uleb128 0xb
 3048 0101 3A       		.uleb128 0x3a
 3049 0102 0B       		.uleb128 0xb
 3050 0103 3B       		.uleb128 0x3b
 3051 0104 0B       		.uleb128 0xb
 3052 0105 01       		.uleb128 0x1
 3053 0106 13       		.uleb128 0x13
 3054 0107 00       		.byte	0
 3055 0108 00       		.byte	0
 3056 0109 16       		.uleb128 0x16
 3057 010a 0D       		.uleb128 0xd
 3058 010b 00       		.byte	0
 3059 010c 03       		.uleb128 0x3
 3060 010d 0E       		.uleb128 0xe
 3061 010e 3A       		.uleb128 0x3a
 3062 010f 0B       		.uleb128 0xb
 3063 0110 3B       		.uleb128 0x3b
 3064 0111 05       		.uleb128 0x5
 3065 0112 49       		.uleb128 0x49
 3066 0113 13       		.uleb128 0x13
 3067 0114 00       		.byte	0
 3068 0115 00       		.byte	0
 3069 0116 17       		.uleb128 0x17
 3070 0117 01       		.uleb128 0x1
 3071 0118 01       		.byte	0x1
 3072 0119 49       		.uleb128 0x49
 3073 011a 13       		.uleb128 0x13
 3074 011b 01       		.uleb128 0x1
 3075 011c 13       		.uleb128 0x13
 3076 011d 00       		.byte	0
 3077 011e 00       		.byte	0
 3078 011f 18       		.uleb128 0x18
ARM GAS  /var/tmp//ccGbfAGO.s 			page 55


 3079 0120 21       		.uleb128 0x21
 3080 0121 00       		.byte	0
 3081 0122 49       		.uleb128 0x49
 3082 0123 13       		.uleb128 0x13
 3083 0124 2F       		.uleb128 0x2f
 3084 0125 0B       		.uleb128 0xb
 3085 0126 00       		.byte	0
 3086 0127 00       		.byte	0
 3087 0128 19       		.uleb128 0x19
 3088 0129 34       		.uleb128 0x34
 3089 012a 00       		.byte	0
 3090 012b 03       		.uleb128 0x3
 3091 012c 08       		.uleb128 0x8
 3092 012d 3A       		.uleb128 0x3a
 3093 012e 0B       		.uleb128 0xb
 3094 012f 3B       		.uleb128 0x3b
 3095 0130 05       		.uleb128 0x5
 3096 0131 49       		.uleb128 0x49
 3097 0132 13       		.uleb128 0x13
 3098 0133 3F       		.uleb128 0x3f
 3099 0134 19       		.uleb128 0x19
 3100 0135 3C       		.uleb128 0x3c
 3101 0136 19       		.uleb128 0x19
 3102 0137 00       		.byte	0
 3103 0138 00       		.byte	0
 3104 0139 1A       		.uleb128 0x1a
 3105 013a 2E       		.uleb128 0x2e
 3106 013b 01       		.byte	0x1
 3107 013c 3F       		.uleb128 0x3f
 3108 013d 19       		.uleb128 0x19
 3109 013e 03       		.uleb128 0x3
 3110 013f 0E       		.uleb128 0xe
 3111 0140 3A       		.uleb128 0x3a
 3112 0141 0B       		.uleb128 0xb
 3113 0142 3B       		.uleb128 0x3b
 3114 0143 05       		.uleb128 0x5
 3115 0144 27       		.uleb128 0x27
 3116 0145 19       		.uleb128 0x19
 3117 0146 49       		.uleb128 0x49
 3118 0147 13       		.uleb128 0x13
 3119 0148 11       		.uleb128 0x11
 3120 0149 01       		.uleb128 0x1
 3121 014a 12       		.uleb128 0x12
 3122 014b 06       		.uleb128 0x6
 3123 014c 40       		.uleb128 0x40
 3124 014d 18       		.uleb128 0x18
 3125 014e 9742     		.uleb128 0x2117
 3126 0150 19       		.uleb128 0x19
 3127 0151 01       		.uleb128 0x1
 3128 0152 13       		.uleb128 0x13
 3129 0153 00       		.byte	0
 3130 0154 00       		.byte	0
 3131 0155 1B       		.uleb128 0x1b
 3132 0156 05       		.uleb128 0x5
 3133 0157 00       		.byte	0
 3134 0158 03       		.uleb128 0x3
 3135 0159 08       		.uleb128 0x8
ARM GAS  /var/tmp//ccGbfAGO.s 			page 56


 3136 015a 3A       		.uleb128 0x3a
 3137 015b 0B       		.uleb128 0xb
 3138 015c 3B       		.uleb128 0x3b
 3139 015d 05       		.uleb128 0x5
 3140 015e 49       		.uleb128 0x49
 3141 015f 13       		.uleb128 0x13
 3142 0160 02       		.uleb128 0x2
 3143 0161 17       		.uleb128 0x17
 3144 0162 00       		.byte	0
 3145 0163 00       		.byte	0
 3146 0164 1C       		.uleb128 0x1c
 3147 0165 05       		.uleb128 0x5
 3148 0166 00       		.byte	0
 3149 0167 03       		.uleb128 0x3
 3150 0168 0E       		.uleb128 0xe
 3151 0169 3A       		.uleb128 0x3a
 3152 016a 0B       		.uleb128 0xb
 3153 016b 3B       		.uleb128 0x3b
 3154 016c 05       		.uleb128 0x5
 3155 016d 49       		.uleb128 0x49
 3156 016e 13       		.uleb128 0x13
 3157 016f 02       		.uleb128 0x2
 3158 0170 17       		.uleb128 0x17
 3159 0171 00       		.byte	0
 3160 0172 00       		.byte	0
 3161 0173 1D       		.uleb128 0x1d
 3162 0174 34       		.uleb128 0x34
 3163 0175 00       		.byte	0
 3164 0176 03       		.uleb128 0x3
 3165 0177 08       		.uleb128 0x8
 3166 0178 3A       		.uleb128 0x3a
 3167 0179 0B       		.uleb128 0xb
 3168 017a 3B       		.uleb128 0x3b
 3169 017b 05       		.uleb128 0x5
 3170 017c 49       		.uleb128 0x49
 3171 017d 13       		.uleb128 0x13
 3172 017e 00       		.byte	0
 3173 017f 00       		.byte	0
 3174 0180 1E       		.uleb128 0x1e
 3175 0181 34       		.uleb128 0x34
 3176 0182 00       		.byte	0
 3177 0183 03       		.uleb128 0x3
 3178 0184 08       		.uleb128 0x8
 3179 0185 3A       		.uleb128 0x3a
 3180 0186 0B       		.uleb128 0xb
 3181 0187 3B       		.uleb128 0x3b
 3182 0188 05       		.uleb128 0x5
 3183 0189 49       		.uleb128 0x49
 3184 018a 13       		.uleb128 0x13
 3185 018b 02       		.uleb128 0x2
 3186 018c 17       		.uleb128 0x17
 3187 018d 00       		.byte	0
 3188 018e 00       		.byte	0
 3189 018f 1F       		.uleb128 0x1f
 3190 0190 34       		.uleb128 0x34
 3191 0191 00       		.byte	0
 3192 0192 03       		.uleb128 0x3
ARM GAS  /var/tmp//ccGbfAGO.s 			page 57


 3193 0193 0E       		.uleb128 0xe
 3194 0194 49       		.uleb128 0x49
 3195 0195 13       		.uleb128 0x13
 3196 0196 34       		.uleb128 0x34
 3197 0197 19       		.uleb128 0x19
 3198 0198 00       		.byte	0
 3199 0199 00       		.byte	0
 3200 019a 20       		.uleb128 0x20
 3201 019b 1D       		.uleb128 0x1d
 3202 019c 01       		.byte	0x1
 3203 019d 31       		.uleb128 0x31
 3204 019e 13       		.uleb128 0x13
 3205 019f 11       		.uleb128 0x11
 3206 01a0 01       		.uleb128 0x1
 3207 01a1 12       		.uleb128 0x12
 3208 01a2 06       		.uleb128 0x6
 3209 01a3 58       		.uleb128 0x58
 3210 01a4 0B       		.uleb128 0xb
 3211 01a5 59       		.uleb128 0x59
 3212 01a6 05       		.uleb128 0x5
 3213 01a7 01       		.uleb128 0x1
 3214 01a8 13       		.uleb128 0x13
 3215 01a9 00       		.byte	0
 3216 01aa 00       		.byte	0
 3217 01ab 21       		.uleb128 0x21
 3218 01ac 1D       		.uleb128 0x1d
 3219 01ad 00       		.byte	0
 3220 01ae 31       		.uleb128 0x31
 3221 01af 13       		.uleb128 0x13
 3222 01b0 11       		.uleb128 0x11
 3223 01b1 01       		.uleb128 0x1
 3224 01b2 12       		.uleb128 0x12
 3225 01b3 06       		.uleb128 0x6
 3226 01b4 58       		.uleb128 0x58
 3227 01b5 0B       		.uleb128 0xb
 3228 01b6 59       		.uleb128 0x59
 3229 01b7 0B       		.uleb128 0xb
 3230 01b8 00       		.byte	0
 3231 01b9 00       		.byte	0
 3232 01ba 22       		.uleb128 0x22
 3233 01bb 1D       		.uleb128 0x1d
 3234 01bc 01       		.byte	0x1
 3235 01bd 31       		.uleb128 0x31
 3236 01be 13       		.uleb128 0x13
 3237 01bf 52       		.uleb128 0x52
 3238 01c0 01       		.uleb128 0x1
 3239 01c1 55       		.uleb128 0x55
 3240 01c2 17       		.uleb128 0x17
 3241 01c3 58       		.uleb128 0x58
 3242 01c4 0B       		.uleb128 0xb
 3243 01c5 59       		.uleb128 0x59
 3244 01c6 05       		.uleb128 0x5
 3245 01c7 01       		.uleb128 0x1
 3246 01c8 13       		.uleb128 0x13
 3247 01c9 00       		.byte	0
 3248 01ca 00       		.byte	0
 3249 01cb 23       		.uleb128 0x23
ARM GAS  /var/tmp//ccGbfAGO.s 			page 58


 3250 01cc 05       		.uleb128 0x5
 3251 01cd 00       		.byte	0
 3252 01ce 31       		.uleb128 0x31
 3253 01cf 13       		.uleb128 0x13
 3254 01d0 02       		.uleb128 0x2
 3255 01d1 17       		.uleb128 0x17
 3256 01d2 00       		.byte	0
 3257 01d3 00       		.byte	0
 3258 01d4 24       		.uleb128 0x24
 3259 01d5 0B       		.uleb128 0xb
 3260 01d6 01       		.byte	0x1
 3261 01d7 55       		.uleb128 0x55
 3262 01d8 17       		.uleb128 0x17
 3263 01d9 00       		.byte	0
 3264 01da 00       		.byte	0
 3265 01db 25       		.uleb128 0x25
 3266 01dc 34       		.uleb128 0x34
 3267 01dd 00       		.byte	0
 3268 01de 31       		.uleb128 0x31
 3269 01df 13       		.uleb128 0x13
 3270 01e0 02       		.uleb128 0x2
 3271 01e1 17       		.uleb128 0x17
 3272 01e2 00       		.byte	0
 3273 01e3 00       		.byte	0
 3274 01e4 26       		.uleb128 0x26
 3275 01e5 898201   		.uleb128 0x4109
 3276 01e8 01       		.byte	0x1
 3277 01e9 11       		.uleb128 0x11
 3278 01ea 01       		.uleb128 0x1
 3279 01eb 31       		.uleb128 0x31
 3280 01ec 13       		.uleb128 0x13
 3281 01ed 01       		.uleb128 0x1
 3282 01ee 13       		.uleb128 0x13
 3283 01ef 00       		.byte	0
 3284 01f0 00       		.byte	0
 3285 01f1 27       		.uleb128 0x27
 3286 01f2 8A8201   		.uleb128 0x410a
 3287 01f5 00       		.byte	0
 3288 01f6 02       		.uleb128 0x2
 3289 01f7 18       		.uleb128 0x18
 3290 01f8 9142     		.uleb128 0x2111
 3291 01fa 18       		.uleb128 0x18
 3292 01fb 00       		.byte	0
 3293 01fc 00       		.byte	0
 3294 01fd 28       		.uleb128 0x28
 3295 01fe 898201   		.uleb128 0x4109
 3296 0201 01       		.byte	0x1
 3297 0202 11       		.uleb128 0x11
 3298 0203 01       		.uleb128 0x1
 3299 0204 31       		.uleb128 0x31
 3300 0205 13       		.uleb128 0x13
 3301 0206 00       		.byte	0
 3302 0207 00       		.byte	0
 3303 0208 29       		.uleb128 0x29
 3304 0209 34       		.uleb128 0x34
 3305 020a 00       		.byte	0
 3306 020b 03       		.uleb128 0x3
ARM GAS  /var/tmp//ccGbfAGO.s 			page 59


 3307 020c 08       		.uleb128 0x8
 3308 020d 3A       		.uleb128 0x3a
 3309 020e 0B       		.uleb128 0xb
 3310 020f 3B       		.uleb128 0x3b
 3311 0210 05       		.uleb128 0x5
 3312 0211 49       		.uleb128 0x49
 3313 0212 13       		.uleb128 0x13
 3314 0213 02       		.uleb128 0x2
 3315 0214 18       		.uleb128 0x18
 3316 0215 00       		.byte	0
 3317 0216 00       		.byte	0
 3318 0217 2A       		.uleb128 0x2a
 3319 0218 1D       		.uleb128 0x1d
 3320 0219 01       		.byte	0x1
 3321 021a 31       		.uleb128 0x31
 3322 021b 13       		.uleb128 0x13
 3323 021c 11       		.uleb128 0x11
 3324 021d 01       		.uleb128 0x1
 3325 021e 12       		.uleb128 0x12
 3326 021f 06       		.uleb128 0x6
 3327 0220 58       		.uleb128 0x58
 3328 0221 0B       		.uleb128 0xb
 3329 0222 59       		.uleb128 0x59
 3330 0223 05       		.uleb128 0x5
 3331 0224 00       		.byte	0
 3332 0225 00       		.byte	0
 3333 0226 2B       		.uleb128 0x2b
 3334 0227 0B       		.uleb128 0xb
 3335 0228 01       		.byte	0x1
 3336 0229 11       		.uleb128 0x11
 3337 022a 01       		.uleb128 0x1
 3338 022b 12       		.uleb128 0x12
 3339 022c 06       		.uleb128 0x6
 3340 022d 00       		.byte	0
 3341 022e 00       		.byte	0
 3342 022f 2C       		.uleb128 0x2c
 3343 0230 34       		.uleb128 0x34
 3344 0231 00       		.byte	0
 3345 0232 31       		.uleb128 0x31
 3346 0233 13       		.uleb128 0x13
 3347 0234 00       		.byte	0
 3348 0235 00       		.byte	0
 3349 0236 2D       		.uleb128 0x2d
 3350 0237 2E       		.uleb128 0x2e
 3351 0238 01       		.byte	0x1
 3352 0239 3F       		.uleb128 0x3f
 3353 023a 19       		.uleb128 0x19
 3354 023b 03       		.uleb128 0x3
 3355 023c 0E       		.uleb128 0xe
 3356 023d 3A       		.uleb128 0x3a
 3357 023e 0B       		.uleb128 0xb
 3358 023f 3B       		.uleb128 0x3b
 3359 0240 0B       		.uleb128 0xb
 3360 0241 27       		.uleb128 0x27
 3361 0242 19       		.uleb128 0x19
 3362 0243 49       		.uleb128 0x49
 3363 0244 13       		.uleb128 0x13
ARM GAS  /var/tmp//ccGbfAGO.s 			page 60


 3364 0245 11       		.uleb128 0x11
 3365 0246 01       		.uleb128 0x1
 3366 0247 12       		.uleb128 0x12
 3367 0248 06       		.uleb128 0x6
 3368 0249 40       		.uleb128 0x40
 3369 024a 18       		.uleb128 0x18
 3370 024b 9742     		.uleb128 0x2117
 3371 024d 19       		.uleb128 0x19
 3372 024e 01       		.uleb128 0x1
 3373 024f 13       		.uleb128 0x13
 3374 0250 00       		.byte	0
 3375 0251 00       		.byte	0
 3376 0252 2E       		.uleb128 0x2e
 3377 0253 05       		.uleb128 0x5
 3378 0254 00       		.byte	0
 3379 0255 03       		.uleb128 0x3
 3380 0256 08       		.uleb128 0x8
 3381 0257 3A       		.uleb128 0x3a
 3382 0258 0B       		.uleb128 0xb
 3383 0259 3B       		.uleb128 0x3b
 3384 025a 0B       		.uleb128 0xb
 3385 025b 49       		.uleb128 0x49
 3386 025c 13       		.uleb128 0x13
 3387 025d 02       		.uleb128 0x2
 3388 025e 17       		.uleb128 0x17
 3389 025f 00       		.byte	0
 3390 0260 00       		.byte	0
 3391 0261 2F       		.uleb128 0x2f
 3392 0262 34       		.uleb128 0x34
 3393 0263 00       		.byte	0
 3394 0264 03       		.uleb128 0x3
 3395 0265 08       		.uleb128 0x8
 3396 0266 3A       		.uleb128 0x3a
 3397 0267 0B       		.uleb128 0xb
 3398 0268 3B       		.uleb128 0x3b
 3399 0269 0B       		.uleb128 0xb
 3400 026a 49       		.uleb128 0x49
 3401 026b 13       		.uleb128 0x13
 3402 026c 02       		.uleb128 0x2
 3403 026d 17       		.uleb128 0x17
 3404 026e 00       		.byte	0
 3405 026f 00       		.byte	0
 3406 0270 30       		.uleb128 0x30
 3407 0271 34       		.uleb128 0x34
 3408 0272 00       		.byte	0
 3409 0273 03       		.uleb128 0x3
 3410 0274 08       		.uleb128 0x8
 3411 0275 3A       		.uleb128 0x3a
 3412 0276 0B       		.uleb128 0xb
 3413 0277 3B       		.uleb128 0x3b
 3414 0278 0B       		.uleb128 0xb
 3415 0279 49       		.uleb128 0x49
 3416 027a 13       		.uleb128 0x13
 3417 027b 00       		.byte	0
 3418 027c 00       		.byte	0
 3419 027d 31       		.uleb128 0x31
 3420 027e 1D       		.uleb128 0x1d
ARM GAS  /var/tmp//ccGbfAGO.s 			page 61


 3421 027f 01       		.byte	0x1
 3422 0280 31       		.uleb128 0x31
 3423 0281 13       		.uleb128 0x13
 3424 0282 52       		.uleb128 0x52
 3425 0283 01       		.uleb128 0x1
 3426 0284 55       		.uleb128 0x55
 3427 0285 17       		.uleb128 0x17
 3428 0286 58       		.uleb128 0x58
 3429 0287 0B       		.uleb128 0xb
 3430 0288 59       		.uleb128 0x59
 3431 0289 0B       		.uleb128 0xb
 3432 028a 01       		.uleb128 0x1
 3433 028b 13       		.uleb128 0x13
 3434 028c 00       		.byte	0
 3435 028d 00       		.byte	0
 3436 028e 32       		.uleb128 0x32
 3437 028f 34       		.uleb128 0x34
 3438 0290 00       		.byte	0
 3439 0291 03       		.uleb128 0x3
 3440 0292 08       		.uleb128 0x8
 3441 0293 3A       		.uleb128 0x3a
 3442 0294 0B       		.uleb128 0xb
 3443 0295 3B       		.uleb128 0x3b
 3444 0296 0B       		.uleb128 0xb
 3445 0297 49       		.uleb128 0x49
 3446 0298 13       		.uleb128 0x13
 3447 0299 02       		.uleb128 0x2
 3448 029a 18       		.uleb128 0x18
 3449 029b 00       		.byte	0
 3450 029c 00       		.byte	0
 3451 029d 33       		.uleb128 0x33
 3452 029e 1D       		.uleb128 0x1d
 3453 029f 01       		.byte	0x1
 3454 02a0 31       		.uleb128 0x31
 3455 02a1 13       		.uleb128 0x13
 3456 02a2 11       		.uleb128 0x11
 3457 02a3 01       		.uleb128 0x1
 3458 02a4 12       		.uleb128 0x12
 3459 02a5 06       		.uleb128 0x6
 3460 02a6 58       		.uleb128 0x58
 3461 02a7 0B       		.uleb128 0xb
 3462 02a8 59       		.uleb128 0x59
 3463 02a9 0B       		.uleb128 0xb
 3464 02aa 01       		.uleb128 0x1
 3465 02ab 13       		.uleb128 0x13
 3466 02ac 00       		.byte	0
 3467 02ad 00       		.byte	0
 3468 02ae 34       		.uleb128 0x34
 3469 02af 2E       		.uleb128 0x2e
 3470 02b0 01       		.byte	0x1
 3471 02b1 3F       		.uleb128 0x3f
 3472 02b2 19       		.uleb128 0x19
 3473 02b3 03       		.uleb128 0x3
 3474 02b4 0E       		.uleb128 0xe
 3475 02b5 3A       		.uleb128 0x3a
 3476 02b6 0B       		.uleb128 0xb
 3477 02b7 3B       		.uleb128 0x3b
ARM GAS  /var/tmp//ccGbfAGO.s 			page 62


 3478 02b8 0B       		.uleb128 0xb
 3479 02b9 27       		.uleb128 0x27
 3480 02ba 19       		.uleb128 0x19
 3481 02bb 20       		.uleb128 0x20
 3482 02bc 0B       		.uleb128 0xb
 3483 02bd 01       		.uleb128 0x1
 3484 02be 13       		.uleb128 0x13
 3485 02bf 00       		.byte	0
 3486 02c0 00       		.byte	0
 3487 02c1 35       		.uleb128 0x35
 3488 02c2 05       		.uleb128 0x5
 3489 02c3 00       		.byte	0
 3490 02c4 03       		.uleb128 0x3
 3491 02c5 08       		.uleb128 0x8
 3492 02c6 3A       		.uleb128 0x3a
 3493 02c7 0B       		.uleb128 0xb
 3494 02c8 3B       		.uleb128 0x3b
 3495 02c9 0B       		.uleb128 0xb
 3496 02ca 49       		.uleb128 0x49
 3497 02cb 13       		.uleb128 0x13
 3498 02cc 00       		.byte	0
 3499 02cd 00       		.byte	0
 3500 02ce 36       		.uleb128 0x36
 3501 02cf 34       		.uleb128 0x34
 3502 02d0 00       		.byte	0
 3503 02d1 03       		.uleb128 0x3
 3504 02d2 0E       		.uleb128 0xe
 3505 02d3 49       		.uleb128 0x49
 3506 02d4 13       		.uleb128 0x13
 3507 02d5 34       		.uleb128 0x34
 3508 02d6 19       		.uleb128 0x19
 3509 02d7 1C       		.uleb128 0x1c
 3510 02d8 0E       		.uleb128 0xe
 3511 02d9 00       		.byte	0
 3512 02da 00       		.byte	0
 3513 02db 37       		.uleb128 0x37
 3514 02dc 2E       		.uleb128 0x2e
 3515 02dd 01       		.byte	0x1
 3516 02de 3F       		.uleb128 0x3f
 3517 02df 19       		.uleb128 0x19
 3518 02e0 03       		.uleb128 0x3
 3519 02e1 0E       		.uleb128 0xe
 3520 02e2 3A       		.uleb128 0x3a
 3521 02e3 0B       		.uleb128 0xb
 3522 02e4 3B       		.uleb128 0x3b
 3523 02e5 0B       		.uleb128 0xb
 3524 02e6 27       		.uleb128 0x27
 3525 02e7 19       		.uleb128 0x19
 3526 02e8 11       		.uleb128 0x11
 3527 02e9 01       		.uleb128 0x1
 3528 02ea 12       		.uleb128 0x12
 3529 02eb 06       		.uleb128 0x6
 3530 02ec 40       		.uleb128 0x40
 3531 02ed 18       		.uleb128 0x18
 3532 02ee 9742     		.uleb128 0x2117
 3533 02f0 19       		.uleb128 0x19
 3534 02f1 01       		.uleb128 0x1
ARM GAS  /var/tmp//ccGbfAGO.s 			page 63


 3535 02f2 13       		.uleb128 0x13
 3536 02f3 00       		.byte	0
 3537 02f4 00       		.byte	0
 3538 02f5 38       		.uleb128 0x38
 3539 02f6 05       		.uleb128 0x5
 3540 02f7 00       		.byte	0
 3541 02f8 31       		.uleb128 0x31
 3542 02f9 13       		.uleb128 0x13
 3543 02fa 00       		.byte	0
 3544 02fb 00       		.byte	0
 3545 02fc 39       		.uleb128 0x39
 3546 02fd 898201   		.uleb128 0x4109
 3547 0300 00       		.byte	0
 3548 0301 11       		.uleb128 0x11
 3549 0302 01       		.uleb128 0x1
 3550 0303 31       		.uleb128 0x31
 3551 0304 13       		.uleb128 0x13
 3552 0305 00       		.byte	0
 3553 0306 00       		.byte	0
 3554 0307 3A       		.uleb128 0x3a
 3555 0308 0B       		.uleb128 0xb
 3556 0309 01       		.byte	0x1
 3557 030a 11       		.uleb128 0x11
 3558 030b 01       		.uleb128 0x1
 3559 030c 12       		.uleb128 0x12
 3560 030d 06       		.uleb128 0x6
 3561 030e 01       		.uleb128 0x1
 3562 030f 13       		.uleb128 0x13
 3563 0310 00       		.byte	0
 3564 0311 00       		.byte	0
 3565 0312 3B       		.uleb128 0x3b
 3566 0313 898201   		.uleb128 0x4109
 3567 0316 00       		.byte	0
 3568 0317 11       		.uleb128 0x11
 3569 0318 01       		.uleb128 0x1
 3570 0319 9542     		.uleb128 0x2115
 3571 031b 19       		.uleb128 0x19
 3572 031c 31       		.uleb128 0x31
 3573 031d 13       		.uleb128 0x13
 3574 031e 00       		.byte	0
 3575 031f 00       		.byte	0
 3576 0320 3C       		.uleb128 0x3c
 3577 0321 1D       		.uleb128 0x1d
 3578 0322 01       		.byte	0x1
 3579 0323 31       		.uleb128 0x31
 3580 0324 13       		.uleb128 0x13
 3581 0325 11       		.uleb128 0x11
 3582 0326 01       		.uleb128 0x1
 3583 0327 12       		.uleb128 0x12
 3584 0328 06       		.uleb128 0x6
 3585 0329 58       		.uleb128 0x58
 3586 032a 0B       		.uleb128 0xb
 3587 032b 59       		.uleb128 0x59
 3588 032c 0B       		.uleb128 0xb
 3589 032d 00       		.byte	0
 3590 032e 00       		.byte	0
 3591 032f 3D       		.uleb128 0x3d
ARM GAS  /var/tmp//ccGbfAGO.s 			page 64


 3592 0330 05       		.uleb128 0x5
 3593 0331 00       		.byte	0
 3594 0332 03       		.uleb128 0x3
 3595 0333 08       		.uleb128 0x8
 3596 0334 3A       		.uleb128 0x3a
 3597 0335 0B       		.uleb128 0xb
 3598 0336 3B       		.uleb128 0x3b
 3599 0337 0B       		.uleb128 0xb
 3600 0338 49       		.uleb128 0x49
 3601 0339 13       		.uleb128 0x13
 3602 033a 02       		.uleb128 0x2
 3603 033b 18       		.uleb128 0x18
 3604 033c 00       		.byte	0
 3605 033d 00       		.byte	0
 3606 033e 3E       		.uleb128 0x3e
 3607 033f 2E       		.uleb128 0x2e
 3608 0340 00       		.byte	0
 3609 0341 03       		.uleb128 0x3
 3610 0342 0E       		.uleb128 0xe
 3611 0343 3A       		.uleb128 0x3a
 3612 0344 0B       		.uleb128 0xb
 3613 0345 3B       		.uleb128 0x3b
 3614 0346 0B       		.uleb128 0xb
 3615 0347 27       		.uleb128 0x27
 3616 0348 19       		.uleb128 0x19
 3617 0349 49       		.uleb128 0x49
 3618 034a 13       		.uleb128 0x13
 3619 034b 20       		.uleb128 0x20
 3620 034c 0B       		.uleb128 0xb
 3621 034d 00       		.byte	0
 3622 034e 00       		.byte	0
 3623 034f 3F       		.uleb128 0x3f
 3624 0350 2E       		.uleb128 0x2e
 3625 0351 01       		.byte	0x1
 3626 0352 03       		.uleb128 0x3
 3627 0353 0E       		.uleb128 0xe
 3628 0354 3A       		.uleb128 0x3a
 3629 0355 0B       		.uleb128 0xb
 3630 0356 3B       		.uleb128 0x3b
 3631 0357 05       		.uleb128 0x5
 3632 0358 27       		.uleb128 0x27
 3633 0359 19       		.uleb128 0x19
 3634 035a 20       		.uleb128 0x20
 3635 035b 0B       		.uleb128 0xb
 3636 035c 01       		.uleb128 0x1
 3637 035d 13       		.uleb128 0x13
 3638 035e 00       		.byte	0
 3639 035f 00       		.byte	0
 3640 0360 40       		.uleb128 0x40
 3641 0361 2E       		.uleb128 0x2e
 3642 0362 00       		.byte	0
 3643 0363 03       		.uleb128 0x3
 3644 0364 0E       		.uleb128 0xe
 3645 0365 3A       		.uleb128 0x3a
 3646 0366 0B       		.uleb128 0xb
 3647 0367 3B       		.uleb128 0x3b
 3648 0368 05       		.uleb128 0x5
ARM GAS  /var/tmp//ccGbfAGO.s 			page 65


 3649 0369 27       		.uleb128 0x27
 3650 036a 19       		.uleb128 0x19
 3651 036b 20       		.uleb128 0x20
 3652 036c 0B       		.uleb128 0xb
 3653 036d 00       		.byte	0
 3654 036e 00       		.byte	0
 3655 036f 41       		.uleb128 0x41
 3656 0370 2E       		.uleb128 0x2e
 3657 0371 01       		.byte	0x1
 3658 0372 03       		.uleb128 0x3
 3659 0373 0E       		.uleb128 0xe
 3660 0374 3A       		.uleb128 0x3a
 3661 0375 0B       		.uleb128 0xb
 3662 0376 3B       		.uleb128 0x3b
 3663 0377 05       		.uleb128 0x5
 3664 0378 27       		.uleb128 0x27
 3665 0379 19       		.uleb128 0x19
 3666 037a 49       		.uleb128 0x49
 3667 037b 13       		.uleb128 0x13
 3668 037c 20       		.uleb128 0x20
 3669 037d 0B       		.uleb128 0xb
 3670 037e 01       		.uleb128 0x1
 3671 037f 13       		.uleb128 0x13
 3672 0380 00       		.byte	0
 3673 0381 00       		.byte	0
 3674 0382 42       		.uleb128 0x42
 3675 0383 05       		.uleb128 0x5
 3676 0384 00       		.byte	0
 3677 0385 03       		.uleb128 0x3
 3678 0386 08       		.uleb128 0x8
 3679 0387 3A       		.uleb128 0x3a
 3680 0388 0B       		.uleb128 0xb
 3681 0389 3B       		.uleb128 0x3b
 3682 038a 05       		.uleb128 0x5
 3683 038b 49       		.uleb128 0x49
 3684 038c 13       		.uleb128 0x13
 3685 038d 00       		.byte	0
 3686 038e 00       		.byte	0
 3687 038f 43       		.uleb128 0x43
 3688 0390 05       		.uleb128 0x5
 3689 0391 00       		.byte	0
 3690 0392 03       		.uleb128 0x3
 3691 0393 0E       		.uleb128 0xe
 3692 0394 3A       		.uleb128 0x3a
 3693 0395 0B       		.uleb128 0xb
 3694 0396 3B       		.uleb128 0x3b
 3695 0397 05       		.uleb128 0x5
 3696 0398 49       		.uleb128 0x49
 3697 0399 13       		.uleb128 0x13
 3698 039a 00       		.byte	0
 3699 039b 00       		.byte	0
 3700 039c 44       		.uleb128 0x44
 3701 039d 2E       		.uleb128 0x2e
 3702 039e 01       		.byte	0x1
 3703 039f 31       		.uleb128 0x31
 3704 03a0 13       		.uleb128 0x13
 3705 03a1 11       		.uleb128 0x11
ARM GAS  /var/tmp//ccGbfAGO.s 			page 66


 3706 03a2 01       		.uleb128 0x1
 3707 03a3 12       		.uleb128 0x12
 3708 03a4 06       		.uleb128 0x6
 3709 03a5 40       		.uleb128 0x40
 3710 03a6 18       		.uleb128 0x18
 3711 03a7 9742     		.uleb128 0x2117
 3712 03a9 19       		.uleb128 0x19
 3713 03aa 01       		.uleb128 0x1
 3714 03ab 13       		.uleb128 0x13
 3715 03ac 00       		.byte	0
 3716 03ad 00       		.byte	0
 3717 03ae 45       		.uleb128 0x45
 3718 03af 2E       		.uleb128 0x2e
 3719 03b0 00       		.byte	0
 3720 03b1 3F       		.uleb128 0x3f
 3721 03b2 19       		.uleb128 0x19
 3722 03b3 3C       		.uleb128 0x3c
 3723 03b4 19       		.uleb128 0x19
 3724 03b5 6E       		.uleb128 0x6e
 3725 03b6 0E       		.uleb128 0xe
 3726 03b7 03       		.uleb128 0x3
 3727 03b8 0E       		.uleb128 0xe
 3728 03b9 3A       		.uleb128 0x3a
 3729 03ba 0B       		.uleb128 0xb
 3730 03bb 3B       		.uleb128 0x3b
 3731 03bc 0B       		.uleb128 0xb
 3732 03bd 00       		.byte	0
 3733 03be 00       		.byte	0
 3734 03bf 46       		.uleb128 0x46
 3735 03c0 2E       		.uleb128 0x2e
 3736 03c1 00       		.byte	0
 3737 03c2 3F       		.uleb128 0x3f
 3738 03c3 19       		.uleb128 0x19
 3739 03c4 3C       		.uleb128 0x3c
 3740 03c5 19       		.uleb128 0x19
 3741 03c6 6E       		.uleb128 0x6e
 3742 03c7 0E       		.uleb128 0xe
 3743 03c8 03       		.uleb128 0x3
 3744 03c9 0E       		.uleb128 0xe
 3745 03ca 3A       		.uleb128 0x3a
 3746 03cb 0B       		.uleb128 0xb
 3747 03cc 3B       		.uleb128 0x3b
 3748 03cd 05       		.uleb128 0x5
 3749 03ce 00       		.byte	0
 3750 03cf 00       		.byte	0
 3751 03d0 00       		.byte	0
 3752              		.section	.debug_loc,"",%progbits
 3753              	.Ldebug_loc0:
 3754              	.LLST30:
 3755 0000 00000000 		.4byte	.LVL52
 3756 0004 0C000000 		.4byte	.LVL53
 3757 0008 0100     		.2byte	0x1
 3758 000a 50       		.byte	0x50
 3759 000b 0C000000 		.4byte	.LVL53
 3760 000f 4A000000 		.4byte	.LVL64
 3761 0013 0100     		.2byte	0x1
 3762 0015 55       		.byte	0x55
ARM GAS  /var/tmp//ccGbfAGO.s 			page 67


 3763 0016 4A000000 		.4byte	.LVL64
 3764 001a 50000000 		.4byte	.LFE227
 3765 001e 0400     		.2byte	0x4
 3766 0020 F3       		.byte	0xf3
 3767 0021 01       		.uleb128 0x1
 3768 0022 50       		.byte	0x50
 3769 0023 9F       		.byte	0x9f
 3770 0024 00000000 		.4byte	0
 3771 0028 00000000 		.4byte	0
 3772              	.LLST31:
 3773 002c 00000000 		.4byte	.LVL52
 3774 0030 11000000 		.4byte	.LVL54-1
 3775 0034 0100     		.2byte	0x1
 3776 0036 51       		.byte	0x51
 3777 0037 11000000 		.4byte	.LVL54-1
 3778 003b 4A000000 		.4byte	.LVL64
 3779 003f 0100     		.2byte	0x1
 3780 0041 57       		.byte	0x57
 3781 0042 4A000000 		.4byte	.LVL64
 3782 0046 50000000 		.4byte	.LFE227
 3783 004a 0400     		.2byte	0x4
 3784 004c F3       		.byte	0xf3
 3785 004d 01       		.uleb128 0x1
 3786 004e 51       		.byte	0x51
 3787 004f 9F       		.byte	0x9f
 3788 0050 00000000 		.4byte	0
 3789 0054 00000000 		.4byte	0
 3790              	.LLST32:
 3791 0058 3E000000 		.4byte	.LVL61
 3792 005c 42000000 		.4byte	.LVL62
 3793 0060 0100     		.2byte	0x1
 3794 0062 50       		.byte	0x50
 3795 0063 42000000 		.4byte	.LVL62
 3796 0067 4A000000 		.4byte	.LVL64
 3797 006b 0100     		.2byte	0x1
 3798 006d 54       		.byte	0x54
 3799 006e 4A000000 		.4byte	.LVL64
 3800 0072 50000000 		.4byte	.LFE227
 3801 0076 0100     		.2byte	0x1
 3802 0078 50       		.byte	0x50
 3803 0079 00000000 		.4byte	0
 3804 007d 00000000 		.4byte	0
 3805              	.LLST33:
 3806 0081 18000000 		.4byte	.LVL55
 3807 0085 36000000 		.4byte	.LVL59
 3808 0089 0100     		.2byte	0x1
 3809 008b 55       		.byte	0x55
 3810 008c 00000000 		.4byte	0
 3811 0090 00000000 		.4byte	0
 3812              	.LLST34:
 3813 0094 18000000 		.4byte	.LVL55
 3814 0098 36000000 		.4byte	.LVL59
 3815 009c 0100     		.2byte	0x1
 3816 009e 54       		.byte	0x54
 3817 009f 00000000 		.4byte	0
 3818 00a3 00000000 		.4byte	0
 3819              	.LLST35:
ARM GAS  /var/tmp//ccGbfAGO.s 			page 68


 3820 00a7 1A000000 		.4byte	.LVL56
 3821 00ab 36000000 		.4byte	.LVL59
 3822 00af 0100     		.2byte	0x1
 3823 00b1 53       		.byte	0x53
 3824 00b2 00000000 		.4byte	0
 3825 00b6 00000000 		.4byte	0
 3826              	.LLST36:
 3827 00ba 00000000 		.4byte	.LVL65
 3828 00be 0B000000 		.4byte	.LVL67-1
 3829 00c2 0100     		.2byte	0x1
 3830 00c4 50       		.byte	0x50
 3831 00c5 0B000000 		.4byte	.LVL67-1
 3832 00c9 14000000 		.4byte	.LFE226
 3833 00cd 0400     		.2byte	0x4
 3834 00cf F3       		.byte	0xf3
 3835 00d0 01       		.uleb128 0x1
 3836 00d1 50       		.byte	0x50
 3837 00d2 9F       		.byte	0x9f
 3838 00d3 00000000 		.4byte	0
 3839 00d7 00000000 		.4byte	0
 3840              	.LLST37:
 3841 00db 00000000 		.4byte	.LVL65
 3842 00df 0B000000 		.4byte	.LVL67-1
 3843 00e3 0100     		.2byte	0x1
 3844 00e5 51       		.byte	0x51
 3845 00e6 0B000000 		.4byte	.LVL67-1
 3846 00ea 14000000 		.4byte	.LFE226
 3847 00ee 0400     		.2byte	0x4
 3848 00f0 F3       		.byte	0xf3
 3849 00f1 01       		.uleb128 0x1
 3850 00f2 51       		.byte	0x51
 3851 00f3 9F       		.byte	0x9f
 3852 00f4 00000000 		.4byte	0
 3853 00f8 00000000 		.4byte	0
 3854              	.LLST38:
 3855 00fc 00000000 		.4byte	.LVL65
 3856 0100 08000000 		.4byte	.LVL66
 3857 0104 0300     		.2byte	0x3
 3858 0106 08       		.byte	0x8
 3859 0107 20       		.byte	0x20
 3860 0108 9F       		.byte	0x9f
 3861 0109 00000000 		.4byte	0
 3862 010d 00000000 		.4byte	0
 3863              	.LLST39:
 3864 0111 0C000000 		.4byte	.LVL67
 3865 0115 12000000 		.4byte	.LVL68
 3866 0119 0200     		.2byte	0x2
 3867 011b 30       		.byte	0x30
 3868 011c 9F       		.byte	0x9f
 3869 011d 00000000 		.4byte	0
 3870 0121 00000000 		.4byte	0
 3871              	.LLST21:
 3872 0125 00000000 		.4byte	.LVL35
 3873 0129 0C000000 		.4byte	.LVL37
 3874 012d 0100     		.2byte	0x1
 3875 012f 50       		.byte	0x50
 3876 0130 0C000000 		.4byte	.LVL37
ARM GAS  /var/tmp//ccGbfAGO.s 			page 69


 3877 0134 40000000 		.4byte	.LVL47
 3878 0138 0100     		.2byte	0x1
 3879 013a 55       		.byte	0x55
 3880 013b 40000000 		.4byte	.LVL47
 3881 013f 44000000 		.4byte	.LFE225
 3882 0143 0400     		.2byte	0x4
 3883 0145 F3       		.byte	0xf3
 3884 0146 01       		.uleb128 0x1
 3885 0147 50       		.byte	0x50
 3886 0148 9F       		.byte	0x9f
 3887 0149 00000000 		.4byte	0
 3888 014d 00000000 		.4byte	0
 3889              	.LLST22:
 3890 0151 06000000 		.4byte	.LVL36
 3891 0155 36000000 		.4byte	.LVL45
 3892 0159 0100     		.2byte	0x1
 3893 015b 54       		.byte	0x54
 3894 015c 00000000 		.4byte	0
 3895 0160 00000000 		.4byte	0
 3896              	.LLST23:
 3897 0164 36000000 		.4byte	.LVL45
 3898 0168 40000000 		.4byte	.LVL47
 3899 016c 0100     		.2byte	0x1
 3900 016e 54       		.byte	0x54
 3901 016f 40000000 		.4byte	.LVL47
 3902 0173 44000000 		.4byte	.LFE225
 3903 0177 0100     		.2byte	0x1
 3904 0179 50       		.byte	0x50
 3905 017a 00000000 		.4byte	0
 3906 017e 00000000 		.4byte	0
 3907              	.LLST24:
 3908 0182 12000000 		.4byte	.LVL39
 3909 0186 30000000 		.4byte	.LVL43
 3910 018a 0100     		.2byte	0x1
 3911 018c 55       		.byte	0x55
 3912 018d 00000000 		.4byte	0
 3913 0191 00000000 		.4byte	0
 3914              	.LLST25:
 3915 0195 12000000 		.4byte	.LVL39
 3916 0199 30000000 		.4byte	.LVL43
 3917 019d 0100     		.2byte	0x1
 3918 019f 54       		.byte	0x54
 3919 01a0 00000000 		.4byte	0
 3920 01a4 00000000 		.4byte	0
 3921              	.LLST26:
 3922 01a8 16000000 		.4byte	.LVL40
 3923 01ac 30000000 		.4byte	.LVL43
 3924 01b0 0100     		.2byte	0x1
 3925 01b2 53       		.byte	0x53
 3926 01b3 00000000 		.4byte	0
 3927 01b7 00000000 		.4byte	0
 3928              	.LLST27:
 3929 01bb 00000000 		.4byte	.LVL48
 3930 01bf 0B000000 		.4byte	.LVL50-1
 3931 01c3 0100     		.2byte	0x1
 3932 01c5 50       		.byte	0x50
 3933 01c6 0B000000 		.4byte	.LVL50-1
ARM GAS  /var/tmp//ccGbfAGO.s 			page 70


 3934 01ca 14000000 		.4byte	.LFE224
 3935 01ce 0400     		.2byte	0x4
 3936 01d0 F3       		.byte	0xf3
 3937 01d1 01       		.uleb128 0x1
 3938 01d2 50       		.byte	0x50
 3939 01d3 9F       		.byte	0x9f
 3940 01d4 00000000 		.4byte	0
 3941 01d8 00000000 		.4byte	0
 3942              	.LLST28:
 3943 01dc 00000000 		.4byte	.LVL48
 3944 01e0 08000000 		.4byte	.LVL49
 3945 01e4 0300     		.2byte	0x3
 3946 01e6 08       		.byte	0x8
 3947 01e7 20       		.byte	0x20
 3948 01e8 9F       		.byte	0x9f
 3949 01e9 00000000 		.4byte	0
 3950 01ed 00000000 		.4byte	0
 3951              	.LLST29:
 3952 01f1 0C000000 		.4byte	.LVL50
 3953 01f5 12000000 		.4byte	.LVL51
 3954 01f9 0200     		.2byte	0x2
 3955 01fb 30       		.byte	0x30
 3956 01fc 9F       		.byte	0x9f
 3957 01fd 00000000 		.4byte	0
 3958 0201 00000000 		.4byte	0
 3959              	.LLST11:
 3960 0205 00000000 		.4byte	.LVL17
 3961 0209 0C000000 		.4byte	.LVL19
 3962 020d 0100     		.2byte	0x1
 3963 020f 50       		.byte	0x50
 3964 0210 0C000000 		.4byte	.LVL19
 3965 0214 34000000 		.4byte	.LFE222
 3966 0218 0100     		.2byte	0x1
 3967 021a 54       		.byte	0x54
 3968 021b 00000000 		.4byte	0
 3969 021f 00000000 		.4byte	0
 3970              	.LLST12:
 3971 0223 00000000 		.4byte	.LVL17
 3972 0227 0A000000 		.4byte	.LVL18
 3973 022b 0300     		.2byte	0x3
 3974 022d 08       		.byte	0x8
 3975 022e 20       		.byte	0x20
 3976 022f 9F       		.byte	0x9f
 3977 0230 00000000 		.4byte	0
 3978 0234 00000000 		.4byte	0
 3979              	.LLST13:
 3980 0238 0A000000 		.4byte	.LVL18
 3981 023c 0C000000 		.4byte	.LVL19
 3982 0240 0100     		.2byte	0x1
 3983 0242 50       		.byte	0x50
 3984 0243 22000000 		.4byte	.LVL23
 3985 0247 24000000 		.4byte	.LVL24
 3986 024b 0100     		.2byte	0x1
 3987 024d 54       		.byte	0x54
 3988 024e 00000000 		.4byte	0
 3989 0252 00000000 		.4byte	0
 3990              	.LLST14:
ARM GAS  /var/tmp//ccGbfAGO.s 			page 71


 3991 0256 16000000 		.4byte	.LVL20
 3992 025a 1C000000 		.4byte	.LVL21
 3993 025e 0100     		.2byte	0x1
 3994 0260 54       		.byte	0x54
 3995 0261 00000000 		.4byte	0
 3996 0265 00000000 		.4byte	0
 3997              	.LLST15:
 3998 0269 16000000 		.4byte	.LVL20
 3999 026d 1C000000 		.4byte	.LVL21
 4000 0271 0100     		.2byte	0x1
 4001 0273 50       		.byte	0x50
 4002 0274 00000000 		.4byte	0
 4003 0278 00000000 		.4byte	0
 4004              	.LLST16:
 4005 027c 2C000000 		.4byte	.LVL25
 4006 0280 32000000 		.4byte	.LVL26
 4007 0284 0200     		.2byte	0x2
 4008 0286 30       		.byte	0x30
 4009 0287 9F       		.byte	0x9f
 4010 0288 00000000 		.4byte	0
 4011 028c 00000000 		.4byte	0
 4012              	.LLST7:
 4013 0290 00000000 		.4byte	.LVL10
 4014 0294 10000000 		.4byte	.LVL14
 4015 0298 0100     		.2byte	0x1
 4016 029a 50       		.byte	0x50
 4017 029b 10000000 		.4byte	.LVL14
 4018 029f 12000000 		.4byte	.LVL15
 4019 02a3 0200     		.2byte	0x2
 4020 02a5 72       		.byte	0x72
 4021 02a6 04       		.sleb128 4
 4022 02a7 12000000 		.4byte	.LVL15
 4023 02ab 16000000 		.4byte	.LVL16
 4024 02af 0400     		.2byte	0x4
 4025 02b1 F3       		.byte	0xf3
 4026 02b2 01       		.uleb128 0x1
 4027 02b3 50       		.byte	0x50
 4028 02b4 9F       		.byte	0x9f
 4029 02b5 16000000 		.4byte	.LVL16
 4030 02b9 18000000 		.4byte	.LFE221
 4031 02bd 0100     		.2byte	0x1
 4032 02bf 50       		.byte	0x50
 4033 02c0 00000000 		.4byte	0
 4034 02c4 00000000 		.4byte	0
 4035              	.LLST9:
 4036 02c8 06000000 		.4byte	.LVL12
 4037 02cc 0E000000 		.4byte	.LVL13
 4038 02d0 0100     		.2byte	0x1
 4039 02d2 50       		.byte	0x50
 4040 02d3 00000000 		.4byte	0
 4041 02d7 00000000 		.4byte	0
 4042              	.LLST10:
 4043 02db 06000000 		.4byte	.LVL12
 4044 02df 0E000000 		.4byte	.LVL13
 4045 02e3 0100     		.2byte	0x1
 4046 02e5 53       		.byte	0x53
 4047 02e6 00000000 		.4byte	0
ARM GAS  /var/tmp//ccGbfAGO.s 			page 72


 4048 02ea 00000000 		.4byte	0
 4049              	.LLST8:
 4050 02ee 00000000 		.4byte	.LVL10
 4051 02f2 02000000 		.4byte	.LVL11
 4052 02f6 0100     		.2byte	0x1
 4053 02f8 50       		.byte	0x50
 4054 02f9 00000000 		.4byte	0
 4055 02fd 00000000 		.4byte	0
 4056              	.LLST1:
 4057 0301 00000000 		.4byte	.LVL2
 4058 0305 18000000 		.4byte	.LVL7
 4059 0309 0100     		.2byte	0x1
 4060 030b 50       		.byte	0x50
 4061 030c 18000000 		.4byte	.LVL7
 4062 0310 1D000000 		.4byte	.LVL8-1
 4063 0314 0100     		.2byte	0x1
 4064 0316 53       		.byte	0x53
 4065 0317 1D000000 		.4byte	.LVL8-1
 4066 031b 26000000 		.4byte	.LFE220
 4067 031f 0400     		.2byte	0x4
 4068 0321 F3       		.byte	0xf3
 4069 0322 01       		.uleb128 0x1
 4070 0323 50       		.byte	0x50
 4071 0324 9F       		.byte	0x9f
 4072 0325 00000000 		.4byte	0
 4073 0329 00000000 		.4byte	0
 4074              	.LLST2:
 4075 032d 00000000 		.4byte	.LVL2
 4076 0331 08000000 		.4byte	.LVL3
 4077 0335 0300     		.2byte	0x3
 4078 0337 08       		.byte	0x8
 4079 0338 20       		.byte	0x20
 4080 0339 9F       		.byte	0x9f
 4081 033a 00000000 		.4byte	0
 4082 033e 00000000 		.4byte	0
 4083              	.LLST3:
 4084 0342 08000000 		.4byte	.LVL3
 4085 0346 0A000000 		.4byte	.LVL4
 4086 034a 0100     		.2byte	0x1
 4087 034c 50       		.byte	0x50
 4088 034d 00000000 		.4byte	0
 4089 0351 00000000 		.4byte	0
 4090              	.LLST4:
 4091 0355 14000000 		.4byte	.LVL5
 4092 0359 16000000 		.4byte	.LVL6
 4093 035d 0100     		.2byte	0x1
 4094 035f 50       		.byte	0x50
 4095 0360 00000000 		.4byte	0
 4096 0364 00000000 		.4byte	0
 4097              	.LLST5:
 4098 0368 14000000 		.4byte	.LVL5
 4099 036c 16000000 		.4byte	.LVL6
 4100 0370 0100     		.2byte	0x1
 4101 0372 52       		.byte	0x52
 4102 0373 00000000 		.4byte	0
 4103 0377 00000000 		.4byte	0
 4104              	.LLST6:
ARM GAS  /var/tmp//ccGbfAGO.s 			page 73


 4105 037b 1E000000 		.4byte	.LVL8
 4106 037f 24000000 		.4byte	.LVL9
 4107 0383 0200     		.2byte	0x2
 4108 0385 30       		.byte	0x30
 4109 0386 9F       		.byte	0x9f
 4110 0387 00000000 		.4byte	0
 4111 038b 00000000 		.4byte	0
 4112              	.LLST0:
 4113 038f 00000000 		.4byte	.LVL0
 4114 0393 04000000 		.4byte	.LVL1
 4115 0397 0100     		.2byte	0x1
 4116 0399 50       		.byte	0x50
 4117 039a 00000000 		.4byte	0
 4118 039e 00000000 		.4byte	0
 4119              	.LLST17:
 4120 03a2 00000000 		.4byte	.LVL27
 4121 03a6 06000000 		.4byte	.LVL29
 4122 03aa 0100     		.2byte	0x1
 4123 03ac 50       		.byte	0x50
 4124 03ad 06000000 		.4byte	.LVL29
 4125 03b1 22000000 		.4byte	.LFE223
 4126 03b5 0100     		.2byte	0x1
 4127 03b7 54       		.byte	0x54
 4128 03b8 00000000 		.4byte	0
 4129 03bc 00000000 		.4byte	0
 4130              	.LLST18:
 4131 03c0 04000000 		.4byte	.LVL28
 4132 03c4 06000000 		.4byte	.LVL29
 4133 03c8 0100     		.2byte	0x1
 4134 03ca 50       		.byte	0x50
 4135 03cb 1A000000 		.4byte	.LVL33
 4136 03cf 1C000000 		.4byte	.LVL34
 4137 03d3 0100     		.2byte	0x1
 4138 03d5 54       		.byte	0x54
 4139 03d6 00000000 		.4byte	0
 4140 03da 00000000 		.4byte	0
 4141              	.LLST19:
 4142 03de 0E000000 		.4byte	.LVL30
 4143 03e2 14000000 		.4byte	.LVL31
 4144 03e6 0100     		.2byte	0x1
 4145 03e8 54       		.byte	0x54
 4146 03e9 00000000 		.4byte	0
 4147 03ed 00000000 		.4byte	0
 4148              	.LLST20:
 4149 03f1 0E000000 		.4byte	.LVL30
 4150 03f5 14000000 		.4byte	.LVL31
 4151 03f9 0100     		.2byte	0x1
 4152 03fb 50       		.byte	0x50
 4153 03fc 00000000 		.4byte	0
 4154 0400 00000000 		.4byte	0
 4155              		.section	.debug_aranges,"",%progbits
 4156 0000 5C000000 		.4byte	0x5c
 4157 0004 0200     		.2byte	0x2
 4158 0006 00000000 		.4byte	.Ldebug_info0
 4159 000a 04       		.byte	0x4
 4160 000b 00       		.byte	0
 4161 000c 0000     		.2byte	0
ARM GAS  /var/tmp//ccGbfAGO.s 			page 74


 4162 000e 0000     		.2byte	0
 4163 0010 00000000 		.4byte	.LFB219
 4164 0014 06000000 		.4byte	.LFE219-.LFB219
 4165 0018 00000000 		.4byte	.LFB220
 4166 001c 26000000 		.4byte	.LFE220-.LFB220
 4167 0020 00000000 		.4byte	.LFB221
 4168 0024 18000000 		.4byte	.LFE221-.LFB221
 4169 0028 00000000 		.4byte	.LFB222
 4170 002c 34000000 		.4byte	.LFE222-.LFB222
 4171 0030 00000000 		.4byte	.LFB223
 4172 0034 22000000 		.4byte	.LFE223-.LFB223
 4173 0038 00000000 		.4byte	.LFB225
 4174 003c 44000000 		.4byte	.LFE225-.LFB225
 4175 0040 00000000 		.4byte	.LFB224
 4176 0044 14000000 		.4byte	.LFE224-.LFB224
 4177 0048 00000000 		.4byte	.LFB227
 4178 004c 50000000 		.4byte	.LFE227-.LFB227
 4179 0050 00000000 		.4byte	.LFB226
 4180 0054 14000000 		.4byte	.LFE226-.LFB226
 4181 0058 00000000 		.4byte	0
 4182 005c 00000000 		.4byte	0
 4183              		.section	.debug_ranges,"",%progbits
 4184              	.Ldebug_ranges0:
 4185 0000 06000000 		.4byte	.LBB107
 4186 0004 0A000000 		.4byte	.LBE107
 4187 0008 0C000000 		.4byte	.LBB110
 4188 000c 0E000000 		.4byte	.LBE110
 4189 0010 00000000 		.4byte	0
 4190 0014 00000000 		.4byte	0
 4191 0018 0A000000 		.4byte	.LBB117
 4192 001c 0C000000 		.4byte	.LBE117
 4193 0020 22000000 		.4byte	.LBB122
 4194 0024 24000000 		.4byte	.LBE122
 4195 0028 00000000 		.4byte	0
 4196 002c 00000000 		.4byte	0
 4197 0030 04000000 		.4byte	.LBB128
 4198 0034 06000000 		.4byte	.LBE128
 4199 0038 1A000000 		.4byte	.LBB133
 4200 003c 1C000000 		.4byte	.LBE133
 4201 0040 00000000 		.4byte	0
 4202 0044 00000000 		.4byte	0
 4203 0048 16000000 		.4byte	.LBB136
 4204 004c 2A000000 		.4byte	.LBE136
 4205 0050 2C000000 		.4byte	.LBB139
 4206 0054 30000000 		.4byte	.LBE139
 4207 0058 00000000 		.4byte	0
 4208 005c 00000000 		.4byte	0
 4209 0060 1A000000 		.4byte	.LBB153
 4210 0064 2E000000 		.4byte	.LBE153
 4211 0068 30000000 		.4byte	.LBB157
 4212 006c 32000000 		.4byte	.LBE157
 4213 0070 34000000 		.4byte	.LBB158
 4214 0074 36000000 		.4byte	.LBE158
 4215 0078 00000000 		.4byte	0
 4216 007c 00000000 		.4byte	0
 4217 0080 00000000 		.4byte	.LFB219
 4218 0084 06000000 		.4byte	.LFE219
ARM GAS  /var/tmp//ccGbfAGO.s 			page 75


 4219 0088 00000000 		.4byte	.LFB220
 4220 008c 26000000 		.4byte	.LFE220
 4221 0090 00000000 		.4byte	.LFB221
 4222 0094 18000000 		.4byte	.LFE221
 4223 0098 00000000 		.4byte	.LFB222
 4224 009c 34000000 		.4byte	.LFE222
 4225 00a0 00000000 		.4byte	.LFB223
 4226 00a4 22000000 		.4byte	.LFE223
 4227 00a8 00000000 		.4byte	.LFB225
 4228 00ac 44000000 		.4byte	.LFE225
 4229 00b0 00000000 		.4byte	.LFB224
 4230 00b4 14000000 		.4byte	.LFE224
 4231 00b8 00000000 		.4byte	.LFB227
 4232 00bc 50000000 		.4byte	.LFE227
 4233 00c0 00000000 		.4byte	.LFB226
 4234 00c4 14000000 		.4byte	.LFE226
 4235 00c8 00000000 		.4byte	0
 4236 00cc 00000000 		.4byte	0
 4237              		.section	.debug_line,"",%progbits
 4238              	.Ldebug_line0:
 4239 0000 71040000 		.section	.debug_str,"MS",%progbits,1
 4239      02007902 
 4239      00000201 
 4239      FB0E0D00 
 4239      01010101 
 4240              	.LASF50:
 4241 0000 74687265 		.ascii	"threads_list_t\000"
 4241      6164735F 
 4241      6C697374 
 4241      5F7400
 4242              	.LASF117:
 4243 000f 63665F6F 		.ascii	"cf_off_older\000"
 4243      66665F6F 
 4243      6C646572 
 4243      00
 4244              	.LASF55:
 4245 001c 72656164 		.ascii	"ready_list_t\000"
 4245      795F6C69 
 4245      73745F74 
 4245      00
 4246              	.LASF95:
 4247 0029 77747472 		.ascii	"wttrp\000"
 4247      7000
 4248              	.LASF92:
 4249 002f 7264796D 		.ascii	"rdymsg\000"
 4249      736700
 4250              	.LASF18:
 4251 0036 75696E74 		.ascii	"uint64_t\000"
 4251      36345F74 
 4251      00
 4252              	.LASF4:
 4253 003f 5F5F7569 		.ascii	"__uint8_t\000"
 4253      6E74385F 
 4253      7400
 4254              	.LASF89:
 4255 0049 706F7274 		.ascii	"port_intctx\000"
 4255      5F696E74 
ARM GAS  /var/tmp//ccGbfAGO.s 			page 76


 4255      63747800 
 4256              	.LASF74:
 4257 0055 73797374 		.ascii	"system_debug_t\000"
 4257      656D5F64 
 4257      65627567 
 4257      5F7400
 4258              	.LASF149:
 4259 0064 71756575 		.ascii	"queue_init\000"
 4259      655F696E 
 4259      697400
 4260              	.LASF152:
 4261 006f 706F7274 		.ascii	"port_lock\000"
 4261      5F6C6F63 
 4261      6B00
 4262              	.LASF143:
 4263 0079 6368436F 		.ascii	"chCondBroadcastI\000"
 4263      6E644272 
 4263      6F616463 
 4263      61737449 
 4263      00
 4264              	.LASF13:
 4265 008a 6C6F6E67 		.ascii	"long long unsigned int\000"
 4265      206C6F6E 
 4265      6720756E 
 4265      7369676E 
 4265      65642069 
 4266              	.LASF113:
 4267 00a1 63685F74 		.ascii	"ch_threadsize\000"
 4267      68726561 
 4267      6473697A 
 4267      6500
 4268              	.LASF93:
 4269 00af 65786974 		.ascii	"exitcode\000"
 4269      636F6465 
 4269      00
 4270              	.LASF81:
 4271 00b8 6D61696E 		.ascii	"mainthread\000"
 4271      74687265 
 4271      616400
 4272              	.LASF71:
 4273 00c3 76697274 		.ascii	"virtual_timers_list_t\000"
 4273      75616C5F 
 4273      74696D65 
 4273      72735F6C 
 4273      6973745F 
 4274              	.LASF84:
 4275 00d9 49544D5F 		.ascii	"ITM_RxBuffer\000"
 4275      52784275 
 4275      66666572 
 4275      00
 4276              	.LASF163:
 4277 00e6 43686962 		.ascii	"ChibiOS_3.0.2/os/rt/src/chcond.c\000"
 4277      694F535F 
 4277      332E302E 
 4277      322F6F73 
 4277      2F72742F 
 4278              	.LASF54:
ARM GAS  /var/tmp//ccGbfAGO.s 			page 77


 4279 0107 63685F74 		.ascii	"ch_threads_queue\000"
 4279      68726561 
 4279      64735F71 
 4279      75657565 
 4279      00
 4280              	.LASF32:
 4281 0118 705F7072 		.ascii	"p_prio\000"
 4281      696F00
 4282              	.LASF120:
 4283 011f 63665F6F 		.ascii	"cf_off_state\000"
 4283      66665F73 
 4283      74617465 
 4283      00
 4284              	.LASF11:
 4285 012c 6C6F6E67 		.ascii	"long long int\000"
 4285      206C6F6E 
 4285      6720696E 
 4285      7400
 4286              	.LASF1:
 4287 013a 7369676E 		.ascii	"signed char\000"
 4287      65642063 
 4287      68617200 
 4288              	.LASF130:
 4289 0146 636F6E64 		.ascii	"condition_variable_t\000"
 4289      6974696F 
 4289      6E5F7661 
 4289      72696162 
 4289      6C655F74 
 4290              	.LASF119:
 4291 015b 63665F6F 		.ascii	"cf_off_stklimit\000"
 4291      66665F73 
 4291      746B6C69 
 4291      6D697400 
 4292              	.LASF121:
 4293 016b 63665F6F 		.ascii	"cf_off_flags\000"
 4293      66665F66 
 4293      6C616773 
 4293      00
 4294              	.LASF48:
 4295 0178 705F6D70 		.ascii	"p_mpool\000"
 4295      6F6F6C00 
 4296              	.LASF103:
 4297 0180 6D5F7175 		.ascii	"m_queue\000"
 4297      65756500 
 4298              	.LASF80:
 4299 0188 76746C69 		.ascii	"vtlist\000"
 4299      737400
 4300              	.LASF151:
 4301 018f 706F7274 		.ascii	"port_unlock\000"
 4301      5F756E6C 
 4301      6F636B00 
 4302              	.LASF23:
 4303 019b 74736C69 		.ascii	"tslices_t\000"
 4303      6365735F 
 4303      7400
 4304              	.LASF78:
 4305 01a5 63685F73 		.ascii	"ch_system\000"
ARM GAS  /var/tmp//ccGbfAGO.s 			page 78


 4305      79737465 
 4305      6D00
 4306              	.LASF8:
 4307 01af 6C6F6E67 		.ascii	"long int\000"
 4307      20696E74 
 4307      00
 4308              	.LASF134:
 4309 01b8 6368436F 		.ascii	"chCondWaitS\000"
 4309      6E645761 
 4309      69745300 
 4310              	.LASF21:
 4311 01c4 74737461 		.ascii	"tstate_t\000"
 4311      74655F74 
 4311      00
 4312              	.LASF147:
 4313 01cd 71756575 		.ascii	"queue_notempty\000"
 4313      655F6E6F 
 4313      74656D70 
 4313      747900
 4314              	.LASF125:
 4315 01dc 63686465 		.ascii	"chdebug_t\000"
 4315      6275675F 
 4315      7400
 4316              	.LASF34:
 4317 01e6 705F6E65 		.ascii	"p_newer\000"
 4317      77657200 
 4318              	.LASF100:
 4319 01ee 735F7175 		.ascii	"s_queue\000"
 4319      65756500 
 4320              	.LASF160:
 4321 01f6 63685363 		.ascii	"chSchRescheduleS\000"
 4321      68526573 
 4321      63686564 
 4321      756C6553 
 4321      00
 4322              	.LASF60:
 4323 0207 725F6E65 		.ascii	"r_newer\000"
 4323      77657200 
 4324              	.LASF86:
 4325 020f 72656761 		.ascii	"regarm_t\000"
 4325      726D5F74 
 4325      00
 4326              	.LASF67:
 4327 0218 76745F70 		.ascii	"vt_prev\000"
 4327      72657600 
 4328              	.LASF75:
 4329 0220 63685F73 		.ascii	"ch_system_debug\000"
 4329      79737465 
 4329      6D5F6465 
 4329      62756700 
 4330              	.LASF127:
 4331 0230 6D757465 		.ascii	"mutex_t\000"
 4331      785F7400 
 4332              	.LASF154:
 4333 0238 76616C75 		.ascii	"value\000"
 4333      6500
 4334              	.LASF139:
ARM GAS  /var/tmp//ccGbfAGO.s 			page 79


 4335 023e 6368436F 		.ascii	"chCondSignal\000"
 4335      6E645369 
 4335      676E616C 
 4335      00
 4336              	.LASF82:
 4337 024b 69646C65 		.ascii	"idle_thread_wa\000"
 4337      5F746872 
 4337      6561645F 
 4337      776100
 4338              	.LASF27:
 4339 025a 636E745F 		.ascii	"cnt_t\000"
 4339      7400
 4340              	.LASF155:
 4341 0260 63684D74 		.ascii	"chMtxUnlockS\000"
 4341      78556E6C 
 4341      6F636B53 
 4341      00
 4342              	.LASF0:
 4343 026d 756E7369 		.ascii	"unsigned int\000"
 4343      676E6564 
 4343      20696E74 
 4343      00
 4344              	.LASF66:
 4345 027a 76745F6E 		.ascii	"vt_next\000"
 4345      65787400 
 4346              	.LASF15:
 4347 0282 75696E74 		.ascii	"uint16_t\000"
 4347      31365F74 
 4347      00
 4348              	.LASF85:
 4349 028b 53797374 		.ascii	"SystemCoreClock\000"
 4349      656D436F 
 4349      7265436C 
 4349      6F636B00 
 4350              	.LASF41:
 4351 029b 705F7469 		.ascii	"p_time\000"
 4351      6D6500
 4352              	.LASF96:
 4353 02a2 77747365 		.ascii	"wtsemp\000"
 4353      6D7000
 4354              	.LASF68:
 4355 02a9 76745F64 		.ascii	"vt_delta\000"
 4355      656C7461 
 4355      00
 4356              	.LASF43:
 4357 02b2 705F6D73 		.ascii	"p_msgqueue\000"
 4357      67717565 
 4357      756500
 4358              	.LASF126:
 4359 02bd 63685F64 		.ascii	"ch_debug\000"
 4359      65627567 
 4359      00
 4360              	.LASF101:
 4361 02c6 735F636E 		.ascii	"s_cnt\000"
 4361      7400
 4362              	.LASF6:
 4363 02cc 73686F72 		.ascii	"short unsigned int\000"
ARM GAS  /var/tmp//ccGbfAGO.s 			page 80


 4363      7420756E 
 4363      7369676E 
 4363      65642069 
 4363      6E7400
 4364              	.LASF51:
 4365 02df 63685F74 		.ascii	"ch_thread\000"
 4365      68726561 
 4365      6400
 4366              	.LASF161:
 4367 02e9 63685363 		.ascii	"chSchWakeupS\000"
 4367      6857616B 
 4367      65757053 
 4367      00
 4368              	.LASF25:
 4369 02f6 6D73675F 		.ascii	"msg_t\000"
 4369      7400
 4370              	.LASF164:
 4371 02fc 2F557365 		.ascii	"/Users/yanrudall/Documents/eBike/ebikeSystem\000"
 4371      72732F79 
 4371      616E7275 
 4371      64616C6C 
 4371      2F446F63 
 4372              	.LASF124:
 4373 0329 63665F6F 		.ascii	"cf_off_time\000"
 4373      66665F74 
 4373      696D6500 
 4374              	.LASF56:
 4375 0335 63685F72 		.ascii	"ch_ready_list\000"
 4375      65616479 
 4375      5F6C6973 
 4375      7400
 4376              	.LASF26:
 4377 0343 6576656E 		.ascii	"eventmask_t\000"
 4377      746D6173 
 4377      6B5F7400 
 4378              	.LASF7:
 4379 034f 5F5F696E 		.ascii	"__int32_t\000"
 4379      7433325F 
 4379      7400
 4380              	.LASF87:
 4381 0359 73746B61 		.ascii	"stkalign_t\000"
 4381      6C69676E 
 4381      5F7400
 4382              	.LASF162:
 4383 0364 474E5520 		.ascii	"GNU C99 6.3.1 20170620 (release) [ARM/embedded-6-br"
 4383      43393920 
 4383      362E332E 
 4383      31203230 
 4383      31373036 
 4384 0397 616E6368 		.ascii	"anch revision 249437] -mcpu=cortex-m4 -mfloat-abi=h"
 4384      20726576 
 4384      6973696F 
 4384      6E203234 
 4384      39343337 
 4385 03ca 61726420 		.ascii	"ard -mfpu=fpv4-sp-d16 -mno-thumb-interwork -mthumb "
 4385      2D6D6670 
 4385      753D6670 
ARM GAS  /var/tmp//ccGbfAGO.s 			page 81


 4385      76342D73 
 4385      702D6431 
 4386 03fd 2D676764 		.ascii	"-ggdb -O2 -std=gnu99 -fomit-frame-pointer -falign-f"
 4386      62202D4F 
 4386      32202D73 
 4386      74643D67 
 4386      6E753939 
 4387 0430 756E6374 		.ascii	"unctions=16 -ffunction-sections -fdata-sections -fn"
 4387      696F6E73 
 4387      3D313620 
 4387      2D666675 
 4387      6E637469 
 4388 0463 6F2D636F 		.ascii	"o-common -fsingle-precision-constant\000"
 4388      6D6D6F6E 
 4388      202D6673 
 4388      696E676C 
 4388      652D7072 
 4389              	.LASF129:
 4390 0488 635F7175 		.ascii	"c_queue\000"
 4390      65756500 
 4391              	.LASF108:
 4392 0490 63685F7A 		.ascii	"ch_zero\000"
 4392      65726F00 
 4393              	.LASF122:
 4394 0498 63665F6F 		.ascii	"cf_off_refs\000"
 4394      66665F72 
 4394      65667300 
 4395              	.LASF42:
 4396 04a4 705F7761 		.ascii	"p_waiting\000"
 4396      6974696E 
 4396      6700
 4397              	.LASF83:
 4398 04ae 73697A65 		.ascii	"sizetype\000"
 4398      74797065 
 4398      00
 4399              	.LASF72:
 4400 04b7 63685F76 		.ascii	"ch_virtual_timers_list\000"
 4400      69727475 
 4400      616C5F74 
 4400      696D6572 
 4400      735F6C69 
 4401              	.LASF128:
 4402 04ce 636F6E64 		.ascii	"condition_variable\000"
 4402      6974696F 
 4402      6E5F7661 
 4402      72696162 
 4402      6C6500
 4403              	.LASF132:
 4404 04e1 6368436F 		.ascii	"chCondWaitTimeoutS\000"
 4404      6E645761 
 4404      69745469 
 4404      6D656F75 
 4404      745300
 4405              	.LASF112:
 4406 04f4 63685F74 		.ascii	"ch_timesize\000"
 4406      696D6573 
 4406      697A6500 
ARM GAS  /var/tmp//ccGbfAGO.s 			page 82


 4407              	.LASF118:
 4408 0500 63665F6F 		.ascii	"cf_off_name\000"
 4408      66665F6E 
 4408      616D6500 
 4409              	.LASF35:
 4410 050c 705F6F6C 		.ascii	"p_older\000"
 4410      64657200 
 4411              	.LASF59:
 4412 0514 725F6374 		.ascii	"r_ctx\000"
 4412      7800
 4413              	.LASF33:
 4414 051a 705F6374 		.ascii	"p_ctx\000"
 4414      7800
 4415              	.LASF91:
 4416 0520 746D5F63 		.ascii	"tm_calibration_t\000"
 4416      616C6962 
 4416      72617469 
 4416      6F6E5F74 
 4416      00
 4417              	.LASF105:
 4418 0531 6D5F6E65 		.ascii	"m_next\000"
 4418      787400
 4419              	.LASF131:
 4420 0538 74696D65 		.ascii	"time\000"
 4420      00
 4421              	.LASF62:
 4422 053d 725F6375 		.ascii	"r_current\000"
 4422      7272656E 
 4422      7400
 4423              	.LASF61:
 4424 0547 725F6F6C 		.ascii	"r_older\000"
 4424      64657200 
 4425              	.LASF137:
 4426 054f 6368436F 		.ascii	"chCondBroadcast\000"
 4426      6E644272 
 4426      6F616463 
 4426      61737400 
 4427              	.LASF12:
 4428 055f 5F5F7569 		.ascii	"__uint64_t\000"
 4428      6E743634 
 4428      5F7400
 4429              	.LASF22:
 4430 056a 74726566 		.ascii	"trefs_t\000"
 4430      735F7400 
 4431              	.LASF111:
 4432 0572 63685F70 		.ascii	"ch_ptrsize\000"
 4432      74727369 
 4432      7A6500
 4433              	.LASF64:
 4434 057d 76697274 		.ascii	"virtual_timer_t\000"
 4434      75616C5F 
 4434      74696D65 
 4434      725F7400 
 4435              	.LASF31:
 4436 058d 705F7072 		.ascii	"p_prev\000"
 4436      657600
 4437              	.LASF24:
ARM GAS  /var/tmp//ccGbfAGO.s 			page 83


 4438 0594 74707269 		.ascii	"tprio_t\000"
 4438      6F5F7400 
 4439              	.LASF138:
 4440 059c 6368436F 		.ascii	"chCondSignalI\000"
 4440      6E645369 
 4440      676E616C 
 4440      4900
 4441              	.LASF148:
 4442 05aa 5F426F6F 		.ascii	"_Bool\000"
 4442      6C00
 4443              	.LASF16:
 4444 05b0 696E7433 		.ascii	"int32_t\000"
 4444      325F7400 
 4445              	.LASF2:
 4446 05b8 756E7369 		.ascii	"unsigned char\000"
 4446      676E6564 
 4446      20636861 
 4446      7200
 4447              	.LASF46:
 4448 05c6 705F6D74 		.ascii	"p_mtxlist\000"
 4448      786C6973 
 4448      7400
 4449              	.LASF3:
 4450 05d0 73686F72 		.ascii	"short int\000"
 4450      7420696E 
 4450      7400
 4451              	.LASF37:
 4452 05da 705F7374 		.ascii	"p_state\000"
 4452      61746500 
 4453              	.LASF40:
 4454 05e2 705F7072 		.ascii	"p_preempt\000"
 4454      65656D70 
 4454      7400
 4455              	.LASF58:
 4456 05ec 725F7072 		.ascii	"r_prio\000"
 4456      696F00
 4457              	.LASF98:
 4458 05f3 65776D61 		.ascii	"ewmask\000"
 4458      736B00
 4459              	.LASF30:
 4460 05fa 705F6E65 		.ascii	"p_next\000"
 4460      787400
 4461              	.LASF20:
 4462 0601 746D6F64 		.ascii	"tmode_t\000"
 4462      655F7400 
 4463              	.LASF123:
 4464 0609 63665F6F 		.ascii	"cf_off_preempt\000"
 4464      66665F70 
 4464      7265656D 
 4464      707400
 4465              	.LASF38:
 4466 0618 705F666C 		.ascii	"p_flags\000"
 4466      61677300 
 4467              	.LASF135:
 4468 0620 5F5F6675 		.ascii	"__func__\000"
 4468      6E635F5F 
 4468      00
ARM GAS  /var/tmp//ccGbfAGO.s 			page 84


 4469              	.LASF150:
 4470 0629 63685379 		.ascii	"chSysLock\000"
 4470      734C6F63 
 4470      6B00
 4471              	.LASF53:
 4472 0633 74687265 		.ascii	"threads_queue_t\000"
 4472      6164735F 
 4472      71756575 
 4472      655F7400 
 4473              	.LASF65:
 4474 0643 63685F76 		.ascii	"ch_virtual_timer\000"
 4474      69727475 
 4474      616C5F74 
 4474      696D6572 
 4474      00
 4475              	.LASF116:
 4476 0654 63665F6F 		.ascii	"cf_off_newer\000"
 4476      66665F6E 
 4476      65776572 
 4476      00
 4477              	.LASF99:
 4478 0661 63685F73 		.ascii	"ch_semaphore\000"
 4478      656D6170 
 4478      686F7265 
 4478      00
 4479              	.LASF158:
 4480 066e 63685363 		.ascii	"chSchGoSleepS\000"
 4480      68476F53 
 4480      6C656570 
 4480      5300
 4481              	.LASF45:
 4482 067c 705F6570 		.ascii	"p_epending\000"
 4482      656E6469 
 4482      6E6700
 4483              	.LASF141:
 4484 0687 63684D74 		.ascii	"chMtxGetNextMutexS\000"
 4484      78476574 
 4484      4E657874 
 4484      4D757465 
 4484      785300
 4485              	.LASF17:
 4486 069a 75696E74 		.ascii	"uint32_t\000"
 4486      33325F74 
 4486      00
 4487              	.LASF114:
 4488 06a3 63665F6F 		.ascii	"cf_off_prio\000"
 4488      66665F70 
 4488      72696F00 
 4489              	.LASF57:
 4490 06af 725F7175 		.ascii	"r_queue\000"
 4490      65756500 
 4491              	.LASF159:
 4492 06b7 63685363 		.ascii	"chSchReadyI\000"
 4492      68526561 
 4492      64794900 
 4493              	.LASF52:
 4494 06c3 63685F74 		.ascii	"ch_threads_list\000"
ARM GAS  /var/tmp//ccGbfAGO.s 			page 85


 4494      68726561 
 4494      64735F6C 
 4494      69737400 
 4495              	.LASF109:
 4496 06d3 63685F73 		.ascii	"ch_size\000"
 4496      697A6500 
 4497              	.LASF10:
 4498 06db 6C6F6E67 		.ascii	"long unsigned int\000"
 4498      20756E73 
 4498      69676E65 
 4498      6420696E 
 4498      7400
 4499              	.LASF106:
 4500 06ed 63686172 		.ascii	"char\000"
 4500      00
 4501              	.LASF97:
 4502 06f2 77746D74 		.ascii	"wtmtxp\000"
 4502      787000
 4503              	.LASF5:
 4504 06f9 5F5F7569 		.ascii	"__uint16_t\000"
 4504      6E743136 
 4504      5F7400
 4505              	.LASF140:
 4506 0704 6368436F 		.ascii	"chCondObjectInit\000"
 4506      6E644F62 
 4506      6A656374 
 4506      496E6974 
 4506      00
 4507              	.LASF146:
 4508 0715 71756575 		.ascii	"queue_fifo_remove\000"
 4508      655F6669 
 4508      666F5F72 
 4508      656D6F76 
 4508      6500
 4509              	.LASF28:
 4510 0727 73797374 		.ascii	"systime_t\000"
 4510      696D655F 
 4510      7400
 4511              	.LASF47:
 4512 0731 705F7265 		.ascii	"p_realprio\000"
 4512      616C7072 
 4512      696F00
 4513              	.LASF63:
 4514 073c 76746675 		.ascii	"vtfunc_t\000"
 4514      6E635F74 
 4514      00
 4515              	.LASF9:
 4516 0745 5F5F7569 		.ascii	"__uint32_t\000"
 4516      6E743332 
 4516      5F7400
 4517              	.LASF153:
 4518 0750 5F5F7365 		.ascii	"__set_BASEPRI\000"
 4518      745F4241 
 4518      53455052 
 4518      4900
 4519              	.LASF76:
 4520 075e 70616E69 		.ascii	"panic_msg\000"
ARM GAS  /var/tmp//ccGbfAGO.s 			page 86


 4520      635F6D73 
 4520      6700
 4521              	.LASF90:
 4522 0768 6F666673 		.ascii	"offset\000"
 4522      657400
 4523              	.LASF88:
 4524 076f 636F6E74 		.ascii	"context\000"
 4524      65787400 
 4525              	.LASF77:
 4526 0777 63685F73 		.ascii	"ch_system_t\000"
 4526      79737465 
 4526      6D5F7400 
 4527              	.LASF44:
 4528 0783 705F6D73 		.ascii	"p_msg\000"
 4528      6700
 4529              	.LASF19:
 4530 0789 7274636E 		.ascii	"rtcnt_t\000"
 4530      745F7400 
 4531              	.LASF136:
 4532 0791 6368436F 		.ascii	"chCondWait\000"
 4532      6E645761 
 4532      697400
 4533              	.LASF70:
 4534 079c 76745F70 		.ascii	"vt_par\000"
 4534      617200
 4535              	.LASF115:
 4536 07a3 63665F6F 		.ascii	"cf_off_ctx\000"
 4536      66665F63 
 4536      747800
 4537              	.LASF102:
 4538 07ae 63685F6D 		.ascii	"ch_mutex\000"
 4538      75746578 
 4538      00
 4539              	.LASF39:
 4540 07b7 705F7265 		.ascii	"p_refs\000"
 4540      667300
 4541              	.LASF29:
 4542 07be 74687265 		.ascii	"thread_t\000"
 4542      61645F74 
 4542      00
 4543              	.LASF79:
 4544 07c7 726C6973 		.ascii	"rlist\000"
 4544      7400
 4545              	.LASF142:
 4546 07cd 63685468 		.ascii	"chThdGetSelfX\000"
 4546      64476574 
 4546      53656C66 
 4546      5800
 4547              	.LASF14:
 4548 07db 75696E74 		.ascii	"uint8_t\000"
 4548      385F7400 
 4549              	.LASF49:
 4550 07e3 74687265 		.ascii	"thread_reference_t\000"
 4550      61645F72 
 4550      65666572 
 4550      656E6365 
 4550      5F7400
ARM GAS  /var/tmp//ccGbfAGO.s 			page 87


 4551              	.LASF94:
 4552 07f6 77746F62 		.ascii	"wtobjp\000"
 4552      6A7000
 4553              	.LASF36:
 4554 07fd 705F6E61 		.ascii	"p_name\000"
 4554      6D6500
 4555              	.LASF133:
 4556 0804 6368436F 		.ascii	"chCondWaitTimeout\000"
 4556      6E645761 
 4556      69745469 
 4556      6D656F75 
 4556      7400
 4557              	.LASF73:
 4558 0816 76745F73 		.ascii	"vt_systime\000"
 4558      79737469 
 4558      6D6500
 4559              	.LASF156:
 4560 0821 63685363 		.ascii	"chSchGoSleepTimeoutS\000"
 4560      68476F53 
 4560      6C656570 
 4560      54696D65 
 4560      6F757453 
 4561              	.LASF144:
 4562 0836 63685379 		.ascii	"chSysUnlock\000"
 4562      73556E6C 
 4562      6F636B00 
 4563              	.LASF110:
 4564 0842 63685F76 		.ascii	"ch_version\000"
 4564      65727369 
 4564      6F6E00
 4565              	.LASF157:
 4566 084d 63684D74 		.ascii	"chMtxLockS\000"
 4566      784C6F63 
 4566      6B5300
 4567              	.LASF145:
 4568 0858 71756575 		.ascii	"queue_prio_insert\000"
 4568      655F7072 
 4568      696F5F69 
 4568      6E736572 
 4568      7400
 4569              	.LASF104:
 4570 086a 6D5F6F77 		.ascii	"m_owner\000"
 4570      6E657200 
 4571              	.LASF107:
 4572 0872 63685F69 		.ascii	"ch_identifier\000"
 4572      64656E74 
 4572      69666965 
 4572      7200
 4573              	.LASF69:
 4574 0880 76745F66 		.ascii	"vt_func\000"
 4574      756E6300 
 4575              		.ident	"GCC: (GNU Tools for ARM Embedded Processors 6-2017-q2-update) 6.3.1 20170620 (release) [AR
ARM GAS  /var/tmp//ccGbfAGO.s 			page 88


DEFINED SYMBOLS
                            *ABS*:0000000000000000 chcond.c
/var/tmp//ccGbfAGO.s:18     .text.chCondObjectInit:0000000000000000 $t
/var/tmp//ccGbfAGO.s:26     .text.chCondObjectInit:0000000000000000 chCondObjectInit
/var/tmp//ccGbfAGO.s:50     .text.chCondSignal:0000000000000000 $t
/var/tmp//ccGbfAGO.s:58     .text.chCondSignal:0000000000000000 chCondSignal
/var/tmp//ccGbfAGO.s:140    .text.chCondSignalI:0000000000000000 $t
/var/tmp//ccGbfAGO.s:148    .text.chCondSignalI:0000000000000000 chCondSignalI
/var/tmp//ccGbfAGO.s:200    .text.chCondBroadcast:0000000000000000 $t
/var/tmp//ccGbfAGO.s:208    .text.chCondBroadcast:0000000000000000 chCondBroadcast
/var/tmp//ccGbfAGO.s:314    .text.chCondBroadcastI:0000000000000000 $t
/var/tmp//ccGbfAGO.s:322    .text.chCondBroadcastI:0000000000000000 chCondBroadcastI
/var/tmp//ccGbfAGO.s:383    .text.chCondWaitS:0000000000000000 $t
/var/tmp//ccGbfAGO.s:391    .text.chCondWaitS:0000000000000000 chCondWaitS
/var/tmp//ccGbfAGO.s:483    .text.chCondWaitS:0000000000000040 $d
/var/tmp//ccGbfAGO.s:488    .text.chCondWait:0000000000000000 $t
/var/tmp//ccGbfAGO.s:496    .text.chCondWait:0000000000000000 chCondWait
/var/tmp//ccGbfAGO.s:552    .text.chCondWaitTimeoutS:0000000000000000 $t
/var/tmp//ccGbfAGO.s:560    .text.chCondWaitTimeoutS:0000000000000000 chCondWaitTimeoutS
/var/tmp//ccGbfAGO.s:672    .text.chCondWaitTimeoutS:000000000000004c $d
/var/tmp//ccGbfAGO.s:677    .text.chCondWaitTimeout:0000000000000000 $t
/var/tmp//ccGbfAGO.s:685    .text.chCondWaitTimeout:0000000000000000 chCondWaitTimeout
                     .debug_frame:0000000000000010 $d

UNDEFINED SYMBOLS
chSchWakeupS
chSchReadyI
chSchRescheduleS
chMtxUnlockS
chSchGoSleepS
chMtxLockS
ch
chSchGoSleepTimeoutS
