ARM GAS  /var/tmp//ccGbfAGO.s 			page 1


   1              		.cpu cortex-m4
   2              		.eabi_attribute 27, 1
   3              		.eabi_attribute 28, 1
   4              		.eabi_attribute 20, 1
   5              		.eabi_attribute 21, 1
   6              		.eabi_attribute 23, 3
   7              		.eabi_attribute 24, 1
   8              		.eabi_attribute 25, 1
   9              		.eabi_attribute 26, 1
  10              		.eabi_attribute 30, 2
  11              		.eabi_attribute 34, 1
  12              		.eabi_attribute 18, 4
  13              		.file	"chcond.c"
  14              		.text
  15              	.Ltext0:
  16              		.cfi_sections	.debug_frame
  17              		.section	.text.chCondObjectInit,"ax",%progbits
  18              		.align	1
  19              		.p2align 4,,15
  20              		.global	chCondObjectInit
  21              		.syntax unified
  22              		.thumb
  23              		.thumb_func
  24              		.fpu fpv4-sp-d16
  25              		.type	chCondObjectInit, %function
  26              	chCondObjectInit:
  27              	.LFB219:
  28              		.file 1 "ChibiOS_3.0.2/os/rt/src/chcond.c"
  29              		.loc 1 75 0
  30              		.cfi_startproc
  31              		@ args = 0, pretend = 0, frame = 0
  32              		@ frame_needed = 0, uses_anonymous_args = 0
  33              		@ link register save eliminated.
  34              	.LVL0:
  35              	.LBB89:
  36              	.LBB90:
  37              		.file 2 "ChibiOS_3.0.2/os/rt/include/chschd.h"
  38              		.loc 2 604 0
  39 0000 0060     		str	r0, [r0]
  40              		.loc 2 605 0
  41 0002 4060     		str	r0, [r0, #4]
  42              	.LVL1:
  43 0004 7047     		bx	lr
  44              	.LBE90:
  45              	.LBE89:
  46              		.cfi_endproc
  47              	.LFE219:
  48              		.size	chCondObjectInit, .-chCondObjectInit
  49 0006 00BF     		.section	.text.chCondSignal,"ax",%progbits
  50              		.align	1
  51              		.p2align 4,,15
  52              		.global	chCondSignal
  53              		.syntax unified
  54              		.thumb
  55              		.thumb_func
  56              		.fpu fpv4-sp-d16
  57              		.type	chCondSignal, %function
ARM GAS  /var/tmp//ccGbfAGO.s 			page 2


  58              	chCondSignal:
  59              	.LFB220:
  60              		.loc 1 89 0
  61              		.cfi_startproc
  62              		@ args = 0, pretend = 0, frame = 0
  63              		@ frame_needed = 0, uses_anonymous_args = 0
  64              	.LVL2:
  65 0000 08B5     		push	{r3, lr}
  66              		.cfi_def_cfa_offset 8
  67              		.cfi_offset 3, -8
  68              		.cfi_offset 14, -4
  69              	.LBB91:
  70              	.LBB92:
  71              	.LBB93:
  72              	.LBB94:
  73              		.file 3 "ChibiOS_3.0.2/os/ext/CMSIS/include/core_cmFunc.h"
  74              		.loc 3 546 0
  75 0002 2023     		movs	r3, #32
  76              		.syntax unified
  77              	@ 546 "ChibiOS_3.0.2/os/ext/CMSIS/include/core_cmFunc.h" 1
  78 0004 83F31188 		MSR basepri, r3
  79              	@ 0 "" 2
  80              	.LVL3:
  81              		.thumb
  82              		.syntax unified
  83              	.LBE94:
  84              	.LBE93:
  85              	.LBE92:
  86              	.LBE91:
  87              	.LBB95:
  88              	.LBB96:
  89              		.loc 2 631 0
  90 0008 0268     		ldr	r2, [r0]
  91              	.LVL4:
  92              	.LBE96:
  93              	.LBE95:
  94              		.loc 1 94 0
  95 000a 9042     		cmp	r0, r2
  96 000c 07D0     		beq	.L3
  97              	.LBB97:
  98              	.LBB98:
  99              		.loc 2 674 0
 100 000e 1168     		ldr	r1, [r2]
 101 0010 0160     		str	r1, [r0]
 102 0012 0346     		mov	r3, r0
 103              	.LVL5:
 104              		.loc 2 675 0
 105 0014 4B60     		str	r3, [r1, #4]
 106              	.LVL6:
 107              	.LBE98:
 108              	.LBE97:
 109              		.loc 1 95 0
 110 0016 1046     		mov	r0, r2
 111              	.LVL7:
 112 0018 0021     		movs	r1, #0
 113 001a FFF7FEFF 		bl	chSchWakeupS
 114              	.LVL8:
ARM GAS  /var/tmp//ccGbfAGO.s 			page 3


 115              	.L3:
 116              	.LBB99:
 117              	.LBB100:
 118              	.LBB101:
 119              	.LBB102:
 120              	.LBB103:
 121              		.loc 3 546 0
 122 001e 0023     		movs	r3, #0
 123              		.syntax unified
 124              	@ 546 "ChibiOS_3.0.2/os/ext/CMSIS/include/core_cmFunc.h" 1
 125 0020 83F31188 		MSR basepri, r3
 126              	@ 0 "" 2
 127              	.LVL9:
 128              		.thumb
 129              		.syntax unified
 130 0024 08BD     		pop	{r3, pc}
 131              	.LBE103:
 132              	.LBE102:
 133              	.LBE101:
 134              	.LBE100:
 135              	.LBE99:
 136              		.cfi_endproc
 137              	.LFE220:
 138              		.size	chCondSignal, .-chCondSignal
 139 0026 00BF     		.section	.text.chCondSignalI,"ax",%progbits
 140              		.align	1
 141              		.p2align 4,,15
 142              		.global	chCondSignalI
 143              		.syntax unified
 144              		.thumb
 145              		.thumb_func
 146              		.fpu fpv4-sp-d16
 147              		.type	chCondSignalI, %function
 148              	chCondSignalI:
 149              	.LFB221:
 150              		.loc 1 111 0
 151              		.cfi_startproc
 152              		@ args = 0, pretend = 0, frame = 0
 153              		@ frame_needed = 0, uses_anonymous_args = 0
 154              		@ link register save eliminated.
 155              	.LVL10:
 156              	.LBB104:
 157              	.LBB105:
 158              		.loc 2 631 0
 159 0000 0368     		ldr	r3, [r0]
 160              	.LVL11:
 161              	.LBE105:
 162              	.LBE104:
 163              		.loc 1 116 0
 164 0002 9842     		cmp	r0, r3
 165 0004 07D0     		beq	.L6
 166              	.LVL12:
 167              	.LBB106:
 168              	.LBB107:
 169              	.LBB108:
 170              		.loc 2 674 0
 171 0006 1A68     		ldr	r2, [r3]
ARM GAS  /var/tmp//ccGbfAGO.s 			page 4


 172 0008 0260     		str	r2, [r0]
 173              	.LBE108:
 174              	.LBE107:
 175              		.loc 1 118 0
 176 000a 0021     		movs	r1, #0
 177              	.LBB110:
 178              	.LBB109:
 179              		.loc 2 675 0
 180 000c 5060     		str	r0, [r2, #4]
 181              	.LVL13:
 182              	.LBE109:
 183              	.LBE110:
 184              		.loc 1 119 0
 185 000e 1846     		mov	r0, r3
 186              	.LVL14:
 187              		.loc 1 118 0
 188 0010 5962     		str	r1, [r3, #36]
 189              	.LVL15:
 190              		.loc 1 119 0
 191 0012 FFF7FEBF 		b	chSchReadyI
 192              	.LVL16:
 193              	.L6:
 194 0016 7047     		bx	lr
 195              	.LBE106:
 196              		.cfi_endproc
 197              	.LFE221:
 198              		.size	chCondSignalI, .-chCondSignalI
 199              		.section	.text.chCondBroadcast,"ax",%progbits
 200              		.align	1
 201              		.p2align 4,,15
 202              		.global	chCondBroadcast
 203              		.syntax unified
 204              		.thumb
 205              		.thumb_func
 206              		.fpu fpv4-sp-d16
 207              		.type	chCondBroadcast, %function
 208              	chCondBroadcast:
 209              	.LFB222:
 210              		.loc 1 130 0
 211              		.cfi_startproc
 212              		@ args = 0, pretend = 0, frame = 0
 213              		@ frame_needed = 0, uses_anonymous_args = 0
 214              	.LVL17:
 215 0000 38B5     		push	{r3, r4, r5, lr}
 216              		.cfi_def_cfa_offset 16
 217              		.cfi_offset 3, -16
 218              		.cfi_offset 4, -12
 219              		.cfi_offset 5, -8
 220              		.cfi_offset 14, -4
 221              		.loc 1 130 0
 222 0002 0446     		mov	r4, r0
 223              	.LBB111:
 224              	.LBB112:
 225              	.LBB113:
 226              	.LBB114:
 227              		.loc 3 546 0
 228 0004 2023     		movs	r3, #32
ARM GAS  /var/tmp//ccGbfAGO.s 			page 5


 229              		.syntax unified
 230              	@ 546 "ChibiOS_3.0.2/os/ext/CMSIS/include/core_cmFunc.h" 1
 231 0006 83F31188 		MSR basepri, r3
 232              	@ 0 "" 2
 233              	.LVL18:
 234              		.thumb
 235              		.syntax unified
 236              	.LBE114:
 237              	.LBE113:
 238              	.LBE112:
 239              	.LBE111:
 240              	.LBB115:
 241              	.LBB116:
 242              	.LBB117:
 243              	.LBB118:
 244              		.loc 2 631 0
 245 000a 0068     		ldr	r0, [r0]
 246              	.LVL19:
 247              	.LBE118:
 248              	.LBE117:
 249              		.loc 1 157 0
 250 000c 8442     		cmp	r4, r0
 251              		.loc 1 158 0
 252 000e 18BF     		it	ne
 253 0010 6FF00105 		mvnne	r5, #1
 254              		.loc 1 157 0
 255 0014 08D0     		beq	.L11
 256              	.L10:
 257              	.LVL20:
 258              	.LBB120:
 259              	.LBB121:
 260              		.loc 2 674 0
 261 0016 0368     		ldr	r3, [r0]
 262 0018 2360     		str	r3, [r4]
 263              		.loc 2 675 0
 264 001a 5C60     		str	r4, [r3, #4]
 265              	.LVL21:
 266              	.LBE121:
 267              	.LBE120:
 268              		.loc 1 158 0
 269 001c FFF7FEFF 		bl	chSchReadyI
 270              	.LVL22:
 271 0020 4562     		str	r5, [r0, #36]
 272              	.LVL23:
 273              	.LBB122:
 274              	.LBB119:
 275              		.loc 2 631 0
 276 0022 2068     		ldr	r0, [r4]
 277              	.LVL24:
 278              	.LBE119:
 279              	.LBE122:
 280              		.loc 1 157 0
 281 0024 A042     		cmp	r0, r4
 282 0026 F6D1     		bne	.L10
 283              	.L11:
 284              	.LBE116:
 285              	.LBE115:
ARM GAS  /var/tmp//ccGbfAGO.s 			page 6


 286              		.loc 1 134 0
 287 0028 FFF7FEFF 		bl	chSchRescheduleS
 288              	.LVL25:
 289              	.LBB123:
 290              	.LBB124:
 291              	.LBB125:
 292              	.LBB126:
 293              	.LBB127:
 294              		.loc 3 546 0
 295 002c 0023     		movs	r3, #0
 296              		.syntax unified
 297              	@ 546 "ChibiOS_3.0.2/os/ext/CMSIS/include/core_cmFunc.h" 1
 298 002e 83F31188 		MSR basepri, r3
 299              	@ 0 "" 2
 300              	.LVL26:
 301              		.thumb
 302              		.syntax unified
 303              	.LBE127:
 304              	.LBE126:
 305              	.LBE125:
 306              	.LBE124:
 307              	.LBE123:
 308              		.loc 1 136 0
 309 0032 38BD     		pop	{r3, r4, r5, pc}
 310              		.cfi_endproc
 311              	.LFE222:
 312              		.size	chCondBroadcast, .-chCondBroadcast
 313              		.section	.text.chCondBroadcastI,"ax",%progbits
 314              		.align	1
 315              		.p2align 4,,15
 316              		.global	chCondBroadcastI
 317              		.syntax unified
 318              		.thumb
 319              		.thumb_func
 320              		.fpu fpv4-sp-d16
 321              		.type	chCondBroadcastI, %function
 322              	chCondBroadcastI:
 323              	.LFB223:
 324              		.loc 1 149 0
 325              		.cfi_startproc
 326              		@ args = 0, pretend = 0, frame = 0
 327              		@ frame_needed = 0, uses_anonymous_args = 0
 328              	.LVL27:
 329 0000 38B5     		push	{r3, r4, r5, lr}
 330              		.cfi_def_cfa_offset 16
 331              		.cfi_offset 3, -16
 332              		.cfi_offset 4, -12
 333              		.cfi_offset 5, -8
 334              		.cfi_offset 14, -4
 335              		.loc 1 149 0
 336 0002 0446     		mov	r4, r0
 337              	.LVL28:
 338              	.LBB128:
 339              	.LBB129:
 340              		.loc 2 631 0
 341 0004 0068     		ldr	r0, [r0]
 342              	.LVL29:
ARM GAS  /var/tmp//ccGbfAGO.s 			page 7


 343              	.LBE129:
 344              	.LBE128:
 345              		.loc 1 157 0
 346 0006 8442     		cmp	r4, r0
 347 0008 0AD0     		beq	.L15
 348              		.loc 1 158 0
 349 000a 6FF00105 		mvn	r5, #1
 350              	.L17:
 351              	.LVL30:
 352              	.LBB131:
 353              	.LBB132:
 354              		.loc 2 674 0
 355 000e 0368     		ldr	r3, [r0]
 356 0010 2360     		str	r3, [r4]
 357              		.loc 2 675 0
 358 0012 5C60     		str	r4, [r3, #4]
 359              	.LVL31:
 360              	.LBE132:
 361              	.LBE131:
 362              		.loc 1 158 0
 363 0014 FFF7FEFF 		bl	chSchReadyI
 364              	.LVL32:
 365 0018 4562     		str	r5, [r0, #36]
 366              	.LVL33:
 367              	.LBB133:
 368              	.LBB130:
 369              		.loc 2 631 0
 370 001a 2068     		ldr	r0, [r4]
 371              	.LVL34:
 372              	.LBE130:
 373              	.LBE133:
 374              		.loc 1 157 0
 375 001c A042     		cmp	r0, r4
 376 001e F6D1     		bne	.L17
 377              	.L15:
 378 0020 38BD     		pop	{r3, r4, r5, pc}
 379              		.cfi_endproc
 380              	.LFE223:
 381              		.size	chCondBroadcastI, .-chCondBroadcastI
 382 0022 00BF     		.section	.text.chCondWaitS,"ax",%progbits
 383              		.align	1
 384              		.p2align 4,,15
 385              		.global	chCondWaitS
 386              		.syntax unified
 387              		.thumb
 388              		.thumb_func
 389              		.fpu fpv4-sp-d16
 390              		.type	chCondWaitS, %function
 391              	chCondWaitS:
 392              	.LFB225:
 393              		.loc 1 205 0
 394              		.cfi_startproc
 395              		@ args = 0, pretend = 0, frame = 0
 396              		@ frame_needed = 0, uses_anonymous_args = 0
 397              	.LVL35:
 398              		.loc 1 206 0
 399 0000 0F4B     		ldr	r3, .L29
ARM GAS  /var/tmp//ccGbfAGO.s 			page 8


 400              		.loc 1 205 0
 401 0002 70B5     		push	{r4, r5, r6, lr}
 402              		.cfi_def_cfa_offset 16
 403              		.cfi_offset 4, -16
 404              		.cfi_offset 5, -12
 405              		.cfi_offset 6, -8
 406              		.cfi_offset 14, -4
 407              		.loc 1 206 0
 408 0004 9C69     		ldr	r4, [r3, #24]
 409              	.LVL36:
 410              	.LBB134:
 411              	.LBB135:
 412              		.file 4 "ChibiOS_3.0.2/os/rt/include/chmtx.h"
 413              		.loc 4 146 0
 414 0006 E66B     		ldr	r6, [r4, #60]
 415              	.LBE135:
 416              	.LBE134:
 417              		.loc 1 205 0
 418 0008 0546     		mov	r5, r0
 419              		.loc 1 216 0
 420 000a 3046     		mov	r0, r6
 421              	.LVL37:
 422 000c FFF7FEFF 		bl	chMtxUnlockS
 423              	.LVL38:
 424              		.loc 1 220 0
 425 0010 6562     		str	r5, [r4, #36]
 426              	.LVL39:
 427              		.loc 1 221 0
 428 0012 2B46     		mov	r3, r5
 429 0014 03E0     		b	.L23
 430              	.LVL40:
 431              	.L28:
 432              	.LBB136:
 433              	.LBB137:
 434              		.loc 2 656 0
 435 0016 9968     		ldr	r1, [r3, #8]
 436 0018 A268     		ldr	r2, [r4, #8]
 437 001a 9142     		cmp	r1, r2
 438 001c 02D3     		bcc	.L24
 439              	.LVL41:
 440              	.L23:
 441              		.loc 2 655 0
 442 001e 1B68     		ldr	r3, [r3]
 443              	.LVL42:
 444              		.loc 2 656 0
 445 0020 9D42     		cmp	r5, r3
 446 0022 F8D1     		bne	.L28
 447              	.L24:
 448              		.loc 2 658 0
 449 0024 5A68     		ldr	r2, [r3, #4]
 450 0026 6260     		str	r2, [r4, #4]
 451              		.loc 2 657 0
 452 0028 2360     		str	r3, [r4]
 453              	.LBE137:
 454              	.LBE136:
 455              		.loc 1 222 0
 456 002a 0720     		movs	r0, #7
ARM GAS  /var/tmp//ccGbfAGO.s 			page 9


 457              	.LBB139:
 458              	.LBB138:
 459              		.loc 2 659 0
 460 002c 1460     		str	r4, [r2]
 461              		.loc 2 660 0
 462 002e 5C60     		str	r4, [r3, #4]
 463              	.LVL43:
 464              	.LBE138:
 465              	.LBE139:
 466              		.loc 1 222 0
 467 0030 FFF7FEFF 		bl	chSchGoSleepS
 468              	.LVL44:
 469              		.loc 1 223 0
 470 0034 646A     		ldr	r4, [r4, #36]
 471              	.LVL45:
 472              		.loc 1 224 0
 473 0036 3046     		mov	r0, r6
 474 0038 FFF7FEFF 		bl	chMtxLockS
 475              	.LVL46:
 476              		.loc 1 227 0
 477 003c 2046     		mov	r0, r4
 478 003e 70BD     		pop	{r4, r5, r6, pc}
 479              	.LVL47:
 480              	.L30:
 481              		.align	2
 482              	.L29:
 483 0040 00000000 		.word	ch
 484              		.cfi_endproc
 485              	.LFE225:
 486              		.size	chCondWaitS, .-chCondWaitS
 487              		.section	.text.chCondWait,"ax",%progbits
 488              		.align	1
 489              		.p2align 4,,15
 490              		.global	chCondWait
 491              		.syntax unified
 492              		.thumb
 493              		.thumb_func
 494              		.fpu fpv4-sp-d16
 495              		.type	chCondWait, %function
 496              	chCondWait:
 497              	.LFB224:
 498              		.loc 1 179 0
 499              		.cfi_startproc
 500              		@ args = 0, pretend = 0, frame = 0
 501              		@ frame_needed = 0, uses_anonymous_args = 0
 502              	.LVL48:
 503 0000 08B5     		push	{r3, lr}
 504              		.cfi_def_cfa_offset 8
 505              		.cfi_offset 3, -8
 506              		.cfi_offset 14, -4
 507              	.LBB140:
 508              	.LBB141:
 509              	.LBB142:
 510              	.LBB143:
 511              		.loc 3 546 0
 512 0002 2023     		movs	r3, #32
 513              		.syntax unified
ARM GAS  /var/tmp//ccGbfAGO.s 			page 10


 514              	@ 546 "ChibiOS_3.0.2/os/ext/CMSIS/include/core_cmFunc.h" 1
 515 0004 83F31188 		MSR basepri, r3
 516              	@ 0 "" 2
 517              	.LVL49:
 518              		.thumb
 519              		.syntax unified
 520              	.LBE143:
 521              	.LBE142:
 522              	.LBE141:
 523              	.LBE140:
 524              		.loc 1 183 0
 525 0008 FFF7FEFF 		bl	chCondWaitS
 526              	.LVL50:
 527              	.LBB144:
 528              	.LBB145:
 529              	.LBB146:
 530              	.LBB147:
 531              	.LBB148:
 532              		.loc 3 546 0
 533 000c 0023     		movs	r3, #0
 534              		.syntax unified
 535              	@ 546 "ChibiOS_3.0.2/os/ext/CMSIS/include/core_cmFunc.h" 1
 536 000e 83F31188 		MSR basepri, r3
 537              	@ 0 "" 2
 538              	.LVL51:
 539              		.thumb
 540              		.syntax unified
 541              	.LBE148:
 542              	.LBE147:
 543              	.LBE146:
 544              	.LBE145:
 545              	.LBE144:
 546              		.loc 1 186 0
 547 0012 08BD     		pop	{r3, pc}
 548              		.cfi_endproc
 549              	.LFE224:
 550              		.size	chCondWait, .-chCondWait
 551              		.section	.text.chCondWaitTimeoutS,"ax",%progbits
 552              		.align	1
 553              		.p2align 4,,15
 554              		.global	chCondWaitTimeoutS
 555              		.syntax unified
 556              		.thumb
 557              		.thumb_func
 558              		.fpu fpv4-sp-d16
 559              		.type	chCondWaitTimeoutS, %function
 560              	chCondWaitTimeoutS:
 561              	.LFB227:
 562              		.loc 1 296 0
 563              		.cfi_startproc
 564              		@ args = 0, pretend = 0, frame = 0
 565              		@ frame_needed = 0, uses_anonymous_args = 0
 566              	.LVL52:
 567 0000 F8B5     		push	{r3, r4, r5, r6, r7, lr}
 568              		.cfi_def_cfa_offset 24
 569              		.cfi_offset 3, -24
 570              		.cfi_offset 4, -20
ARM GAS  /var/tmp//ccGbfAGO.s 			page 11


 571              		.cfi_offset 5, -16
 572              		.cfi_offset 6, -12
 573              		.cfi_offset 7, -8
 574              		.cfi_offset 14, -4
 575              	.LBB149:
 576              	.LBB150:
 577              	.LBB151:
 578              	.LBB152:
 579              		.file 5 "ChibiOS_3.0.2/os/rt/include/chthreads.h"
 580              		.loc 5 176 0
 581 0002 124C     		ldr	r4, .L41
 582              	.LBE152:
 583              	.LBE151:
 584              		.loc 4 146 0
 585 0004 A369     		ldr	r3, [r4, #24]
 586 0006 DE6B     		ldr	r6, [r3, #60]
 587              	.LBE150:
 588              	.LBE149:
 589              		.loc 1 296 0
 590 0008 0546     		mov	r5, r0
 591              		.loc 1 306 0
 592 000a 3046     		mov	r0, r6
 593              	.LVL53:
 594              		.loc 1 296 0
 595 000c 0F46     		mov	r7, r1
 596              		.loc 1 306 0
 597 000e FFF7FEFF 		bl	chMtxUnlockS
 598              	.LVL54:
 599              		.loc 1 310 0
 600 0012 A469     		ldr	r4, [r4, #24]
 601              		.loc 1 311 0
 602 0014 2B46     		mov	r3, r5
 603              		.loc 1 310 0
 604 0016 6562     		str	r5, [r4, #36]
 605              	.LVL55:
 606 0018 03E0     		b	.L37
 607              	.LVL56:
 608              	.L34:
 609              	.LBB153:
 610              	.LBB154:
 611              		.loc 2 656 0
 612 001a 9868     		ldr	r0, [r3, #8]
 613 001c A268     		ldr	r2, [r4, #8]
 614 001e 9042     		cmp	r0, r2
 615 0020 02D3     		bcc	.L38
 616              	.LVL57:
 617              	.L37:
 618              		.loc 2 655 0
 619 0022 1B68     		ldr	r3, [r3]
 620              	.LVL58:
 621              		.loc 2 656 0
 622 0024 9D42     		cmp	r5, r3
 623 0026 F8D1     		bne	.L34
 624              	.L38:
 625              		.loc 2 658 0
 626 0028 5A68     		ldr	r2, [r3, #4]
 627 002a 6260     		str	r2, [r4, #4]
ARM GAS  /var/tmp//ccGbfAGO.s 			page 12


 628              		.loc 2 657 0
 629 002c 2360     		str	r3, [r4]
 630              	.LBE154:
 631              	.LBE153:
 632              		.loc 1 312 0
 633 002e 3946     		mov	r1, r7
 634              	.LBB157:
 635              	.LBB155:
 636              		.loc 2 659 0
 637 0030 1460     		str	r4, [r2]
 638              	.LBE155:
 639              	.LBE157:
 640              		.loc 1 312 0
 641 0032 0720     		movs	r0, #7
 642              	.LBB158:
 643              	.LBB156:
 644              		.loc 2 660 0
 645 0034 5C60     		str	r4, [r3, #4]
 646              	.LVL59:
 647              	.LBE156:
 648              	.LBE158:
 649              		.loc 1 312 0
 650 0036 FFF7FEFF 		bl	chSchGoSleepTimeoutS
 651              	.LVL60:
 652              		.loc 1 313 0
 653 003a 431C     		adds	r3, r0, #1
 654              		.loc 1 312 0
 655 003c 0446     		mov	r4, r0
 656              	.LVL61:
 657              		.loc 1 313 0
 658 003e 02D0     		beq	.L33
 659              		.loc 1 314 0
 660 0040 3046     		mov	r0, r6
 661              	.LVL62:
 662 0042 FFF7FEFF 		bl	chMtxLockS
 663              	.LVL63:
 664              	.L33:
 665              		.loc 1 318 0
 666 0046 2046     		mov	r0, r4
 667 0048 F8BD     		pop	{r3, r4, r5, r6, r7, pc}
 668              	.LVL64:
 669              	.L42:
 670 004a 00BF     		.align	2
 671              	.L41:
 672 004c 00000000 		.word	ch
 673              		.cfi_endproc
 674              	.LFE227:
 675              		.size	chCondWaitTimeoutS, .-chCondWaitTimeoutS
 676              		.section	.text.chCondWaitTimeout,"ax",%progbits
 677              		.align	1
 678              		.p2align 4,,15
 679              		.global	chCondWaitTimeout
 680              		.syntax unified
 681              		.thumb
 682              		.thumb_func
 683              		.fpu fpv4-sp-d16
 684              		.type	chCondWaitTimeout, %function
ARM GAS  /var/tmp//ccGbfAGO.s 			page 13


 685              	chCondWaitTimeout:
 686              	.LFB226:
 687              		.loc 1 258 0
 688              		.cfi_startproc
 689              		@ args = 0, pretend = 0, frame = 0
 690              		@ frame_needed = 0, uses_anonymous_args = 0
 691              	.LVL65:
 692 0000 08B5     		push	{r3, lr}
 693              		.cfi_def_cfa_offset 8
 694              		.cfi_offset 3, -8
 695              		.cfi_offset 14, -4
 696              	.LBB159:
 697              	.LBB160:
 698              	.LBB161:
 699              	.LBB162:
 700              		.loc 3 546 0
 701 0002 2023     		movs	r3, #32
 702              		.syntax unified
 703              	@ 546 "ChibiOS_3.0.2/os/ext/CMSIS/include/core_cmFunc.h" 1
 704 0004 83F31188 		MSR basepri, r3
 705              	@ 0 "" 2
 706              	.LVL66:
 707              		.thumb
 708              		.syntax unified
 709              	.LBE162:
 710              	.LBE161:
 711              	.LBE160:
 712              	.LBE159:
 713              		.loc 1 262 0
 714 0008 FFF7FEFF 		bl	chCondWaitTimeoutS
 715              	.LVL67:
 716              	.LBB163:
 717              	.LBB164:
 718              	.LBB165:
 719              	.LBB166:
 720              	.LBB167:
 721              		.loc 3 546 0
 722 000c 0023     		movs	r3, #0
 723              		.syntax unified
 724              	@ 546 "ChibiOS_3.0.2/os/ext/CMSIS/include/core_cmFunc.h" 1
 725 000e 83F31188 		MSR basepri, r3
 726              	@ 0 "" 2
 727              	.LVL68:
 728              		.thumb
 729              		.syntax unified
 730              	.LBE167:
 731              	.LBE166:
 732              	.LBE165:
 733              	.LBE164:
 734              	.LBE163:
 735              		.loc 1 266 0
 736 0012 08BD     		pop	{r3, pc}
 737              		.cfi_endproc
 738              	.LFE226:
 739              		.size	chCondWaitTimeout, .-chCondWaitTimeout
 740              		.text
 741              	.Letext0:
ARM GAS  /var/tmp//ccGbfAGO.s 			page 14


 742              		.file 6 "/usr/local/gcc_arm/gcc-arm-none-eabi-6-2017-q2-update/arm-none-eabi/include/machine/_defa
 743              		.file 7 "/usr/local/gcc_arm/gcc-arm-none-eabi-6-2017-q2-update/arm-none-eabi/include/sys/_stdint.h
 744              		.file 8 "ChibiOS_3.0.2/os/rt/ports/ARMCMx/compilers/GCC/chtypes.h"
 745              		.file 9 "ChibiOS_3.0.2/os/rt/include/chsystypes.h"
 746              		.file 10 "ChibiOS_3.0.2/os/ext/CMSIS/include/core_cm4.h"
 747              		.file 11 "ChibiOS_3.0.2/os/ext/CMSIS/ST/system_stm32f4xx.h"
 748              		.file 12 "ChibiOS_3.0.2/os/rt/ports/ARMCMx/chcore.h"
 749              		.file 13 "ChibiOS_3.0.2/os/rt/ports/ARMCMx/chcore_v7m.h"
 750              		.file 14 "ChibiOS_3.0.2/os/rt/include/chtm.h"
 751              		.file 15 "ChibiOS_3.0.2/os/rt/include/chsem.h"
 752              		.file 16 "ChibiOS_3.0.2/os/rt/include/chregistry.h"
 753              		.file 17 "ChibiOS_3.0.2/os/rt/include/chcond.h"
 754              		.file 18 "ChibiOS_3.0.2/os/rt/include/chsys.h"