ARM GAS  /var/tmp//ccGUFlqh.s 			page 1


   1              		.cpu cortex-m4
   2              		.eabi_attribute 27, 1
   3              		.eabi_attribute 28, 1
   4              		.eabi_attribute 20, 1
   5              		.eabi_attribute 21, 1
   6              		.eabi_attribute 23, 3
   7              		.eabi_attribute 24, 1
   8              		.eabi_attribute 25, 1
   9              		.eabi_attribute 26, 1
  10              		.eabi_attribute 30, 2
  11              		.eabi_attribute 34, 1
  12              		.eabi_attribute 18, 4
  13              		.file	"chheap.c"
  14              		.text
  15              	.Ltext0:
  16              		.cfi_sections	.debug_frame
  17              		.section	.text._heap_init,"ax",%progbits
  18              		.align	1
  19              		.p2align 4,,15
  20              		.global	_heap_init
  21              		.syntax unified
  22              		.thumb
  23              		.thumb_func
  24              		.fpu fpv4-sp-d16
  25              		.type	_heap_init, %function
  26              	_heap_init:
  27              	.LFB219:
  28              		.file 1 "ChibiOS_3.0.2/os/rt/src/chheap.c"
  29              		.loc 1 91 0
  30              		.cfi_startproc
  31              		@ args = 0, pretend = 0, frame = 0
  32              		@ frame_needed = 0, uses_anonymous_args = 0
  33              		@ link register save eliminated.
  34              		.loc 1 93 0
  35 0000 044B     		ldr	r3, .L2
  36 0002 054A     		ldr	r2, .L2+4
  37 0004 1A60     		str	r2, [r3]
  38              		.loc 1 97 0
  39 0006 03F11000 		add	r0, r3, #16
  40              		.loc 1 94 0
  41 000a 0022     		movs	r2, #0
  42 000c 9A60     		str	r2, [r3, #8]
  43              		.loc 1 95 0
  44 000e DA60     		str	r2, [r3, #12]
  45              		.loc 1 97 0
  46 0010 FFF7FEBF 		b	chMtxObjectInit
  47              	.LVL0:
  48              	.L3:
  49              		.align	2
  50              	.L2:
  51 0014 00000000 		.word	.LANCHOR0
  52 0018 00000000 		.word	chCoreAlloc
  53              		.cfi_endproc
  54              	.LFE219:
  55              		.size	_heap_init, .-_heap_init
  56              		.section	.text.chHeapObjectInit,"ax",%progbits
  57              		.align	1
ARM GAS  /var/tmp//ccGUFlqh.s 			page 2


  58              		.p2align 4,,15
  59              		.global	chHeapObjectInit
  60              		.syntax unified
  61              		.thumb
  62              		.thumb_func
  63              		.fpu fpv4-sp-d16
  64              		.type	chHeapObjectInit, %function
  65              	chHeapObjectInit:
  66              	.LFB220:
  67              		.loc 1 114 0
  68              		.cfi_startproc
  69              		@ args = 0, pretend = 0, frame = 0
  70              		@ frame_needed = 0, uses_anonymous_args = 0
  71              		@ link register save eliminated.
  72              	.LVL1:
  73              		.loc 1 119 0
  74 0000 0023     		movs	r3, #0
  75              		.loc 1 123 0
  76 0002 083A     		subs	r2, r2, #8
  77              	.LVL2:
  78              		.loc 1 120 0
  79 0004 8160     		str	r1, [r0, #8]
  80              		.loc 1 119 0
  81 0006 0360     		str	r3, [r0]
  82              		.loc 1 121 0
  83 0008 C360     		str	r3, [r0, #12]
  84              		.loc 1 125 0
  85 000a 1030     		adds	r0, r0, #16
  86              	.LVL3:
  87              		.loc 1 123 0
  88 000c 4A60     		str	r2, [r1, #4]
  89              		.loc 1 122 0
  90 000e 0B60     		str	r3, [r1]
  91              		.loc 1 125 0
  92 0010 FFF7FEBF 		b	chMtxObjectInit
  93              	.LVL4:
  94              		.cfi_endproc
  95              	.LFE220:
  96              		.size	chHeapObjectInit, .-chHeapObjectInit
  97              		.section	.text.chHeapAlloc,"ax",%progbits
  98              		.align	1
  99              		.p2align 4,,15
 100              		.global	chHeapAlloc
 101              		.syntax unified
 102              		.thumb
 103              		.thumb_func
 104              		.fpu fpv4-sp-d16
 105              		.type	chHeapAlloc, %function
 106              	chHeapAlloc:
 107              	.LFB221:
 108              		.loc 1 147 0
 109              		.cfi_startproc
 110              		@ args = 0, pretend = 0, frame = 0
 111              		@ frame_needed = 0, uses_anonymous_args = 0
 112              	.LVL5:
 113 0000 F8B5     		push	{r3, r4, r5, r6, r7, lr}
 114              		.cfi_def_cfa_offset 24
ARM GAS  /var/tmp//ccGUFlqh.s 			page 3


 115              		.cfi_offset 3, -24
 116              		.cfi_offset 4, -20
 117              		.cfi_offset 5, -16
 118              		.cfi_offset 6, -12
 119              		.cfi_offset 7, -8
 120              		.cfi_offset 14, -4
 121              		.loc 1 151 0
 122 0002 204E     		ldr	r6, .L21
 123 0004 0028     		cmp	r0, #0
 124 0006 18BF     		it	ne
 125 0008 0646     		movne	r6, r0
 126              	.LVL6:
 127              		.loc 1 157 0
 128 000a 06F11007 		add	r7, r6, #16
 129              		.loc 1 154 0
 130 000e 0731     		adds	r1, r1, #7
 131              	.LVL7:
 132              		.loc 1 157 0
 133 0010 3846     		mov	r0, r7
 134              		.loc 1 154 0
 135 0012 21F00705 		bic	r5, r1, #7
 136              	.LVL8:
 137              		.loc 1 155 0
 138 0016 06F10804 		add	r4, r6, #8
 139              	.LVL9:
 140              		.loc 1 157 0
 141 001a FFF7FEFF 		bl	chMtxLock
 142              	.LVL10:
 143              		.loc 1 158 0
 144 001e 03E0     		b	.L7
 145              	.LVL11:
 146              	.L11:
 147              		.loc 1 160 0
 148 0020 4368     		ldr	r3, [r0, #4]
 149 0022 9D42     		cmp	r5, r3
 150 0024 12D9     		bls	.L20
 151 0026 0446     		mov	r4, r0
 152              	.LVL12:
 153              	.L7:
 154              		.loc 1 158 0
 155 0028 2068     		ldr	r0, [r4]
 156              	.LVL13:
 157 002a 0028     		cmp	r0, #0
 158 002c F8D1     		bne	.L11
 159              		.loc 1 186 0
 160 002e 3846     		mov	r0, r7
 161              	.LVL14:
 162 0030 FFF7FEFF 		bl	chMtxUnlock
 163              	.LVL15:
 164              		.loc 1 190 0
 165 0034 3368     		ldr	r3, [r6]
 166 0036 13B3     		cbz	r3, .L13
 167              		.loc 1 191 0
 168 0038 05F10800 		add	r0, r5, #8
 169 003c 9847     		blx	r3
 170              	.LVL16:
 171              		.loc 1 192 0
ARM GAS  /var/tmp//ccGUFlqh.s 			page 4


 172 003e F0B1     		cbz	r0, .L13
 173              		.loc 1 193 0
 174 0040 0660     		str	r6, [r0]
 175              		.loc 1 194 0
 176 0042 4560     		str	r5, [r0, #4]
 177              		.loc 1 195 0
 178 0044 00F10804 		add	r4, r0, #8
 179              	.LVL17:
 180              	.L5:
 181              		.loc 1 204 0
 182 0048 2046     		mov	r0, r4
 183 004a F8BD     		pop	{r3, r4, r5, r6, r7, pc}
 184              	.LVL18:
 185              	.L20:
 186              		.loc 1 161 0
 187 004c 05F10802 		add	r2, r5, #8
 188 0050 9342     		cmp	r3, r2
 189 0052 09D2     		bcs	.L8
 190              		.loc 1 165 0
 191 0054 0368     		ldr	r3, [r0]
 192 0056 2360     		str	r3, [r4]
 193              	.L9:
 194              		.loc 1 177 0
 195 0058 0446     		mov	r4, r0
 196              	.LVL19:
 197              		.loc 1 178 0
 198 005a 3846     		mov	r0, r7
 199              	.LVL20:
 200              		.loc 1 177 0
 201 005c 44F8086B 		str	r6, [r4], #8
 202              	.LVL21:
 203              		.loc 1 178 0
 204 0060 FFF7FEFF 		bl	chMtxUnlock
 205              	.LVL22:
 206              		.loc 1 204 0
 207 0064 2046     		mov	r0, r4
 208 0066 F8BD     		pop	{r3, r4, r5, r6, r7, pc}
 209              	.LVL23:
 210              	.L8:
 211              		.loc 1 173 0
 212 0068 5B1B     		subs	r3, r3, r5
 213              		.loc 1 170 0
 214 006a 8118     		adds	r1, r0, r2
 215              	.LVL24:
 216              		.loc 1 173 0
 217 006c A3F1080E 		sub	lr, r3, #8
 218              		.loc 1 172 0
 219 0070 0368     		ldr	r3, [r0]
 220 0072 8350     		str	r3, [r0, r2]
 221              		.loc 1 173 0
 222 0074 C1F804E0 		str	lr, [r1, #4]
 223              		.loc 1 174 0
 224 0078 2160     		str	r1, [r4]
 225              		.loc 1 175 0
 226 007a 4560     		str	r5, [r0, #4]
 227 007c ECE7     		b	.L9
 228              	.LVL25:
ARM GAS  /var/tmp//ccGUFlqh.s 			page 5


 229              	.L13:
 230              		.loc 1 203 0
 231 007e 0024     		movs	r4, #0
 232              	.LVL26:
 233 0080 E2E7     		b	.L5
 234              	.L22:
 235 0082 00BF     		.align	2
 236              	.L21:
 237 0084 00000000 		.word	.LANCHOR0
 238              		.cfi_endproc
 239              	.LFE221:
 240              		.size	chHeapAlloc, .-chHeapAlloc
 241              		.section	.text.chHeapFree,"ax",%progbits
 242              		.align	1
 243              		.p2align 4,,15
 244              		.global	chHeapFree
 245              		.syntax unified
 246              		.thumb
 247              		.thumb_func
 248              		.fpu fpv4-sp-d16
 249              		.type	chHeapFree, %function
 250              	chHeapFree:
 251              	.LFB222:
 252              		.loc 1 213 0
 253              		.cfi_startproc
 254              		@ args = 0, pretend = 0, frame = 0
 255              		@ frame_needed = 0, uses_anonymous_args = 0
 256              	.LVL27:
 257 0000 F8B5     		push	{r3, r4, r5, r6, r7, lr}
 258              		.cfi_def_cfa_offset 24
 259              		.cfi_offset 3, -24
 260              		.cfi_offset 4, -20
 261              		.cfi_offset 5, -16
 262              		.cfi_offset 6, -12
 263              		.cfi_offset 7, -8
 264              		.cfi_offset 14, -4
 265              		.loc 1 222 0
 266 0002 50F8085C 		ldr	r5, [r0, #-8]
 267              		.loc 1 225 0
 268 0006 05F11007 		add	r7, r5, #16
 269              		.loc 1 213 0
 270 000a 0646     		mov	r6, r0
 271              		.loc 1 220 0
 272 000c A0F10804 		sub	r4, r0, #8
 273              	.LVL28:
 274              		.loc 1 223 0
 275 0010 0835     		adds	r5, r5, #8
 276              	.LVL29:
 277              		.loc 1 225 0
 278 0012 3846     		mov	r0, r7
 279              	.LVL30:
 280 0014 FFF7FEFF 		bl	chMtxLock
 281              	.LVL31:
 282              		.loc 1 223 0
 283 0018 2B46     		mov	r3, r5
 284              	.LVL32:
 285              	.L30:
ARM GAS  /var/tmp//ccGUFlqh.s 			page 6


 286              		.loc 1 229 0
 287 001a AB42     		cmp	r3, r5
 288              		.loc 1 230 0
 289 001c 1A68     		ldr	r2, [r3]
 290              		.loc 1 229 0
 291 001e 01D0     		beq	.L24
 292              		.loc 1 229 0 is_stmt 0 discriminator 2
 293 0020 A342     		cmp	r3, r4
 294 0022 02D2     		bcs	.L27
 295              	.L24:
 296              		.loc 1 229 0 discriminator 3
 297 0024 1AB1     		cbz	r2, .L26
 298              		.loc 1 230 0 is_stmt 1
 299 0026 9442     		cmp	r4, r2
 300 0028 01D3     		bcc	.L26
 301              	.L27:
 302              	.LVL33:
 303              		.loc 1 247 0
 304 002a 1346     		mov	r3, r2
 305              		.loc 1 227 0
 306 002c F5E7     		b	.L30
 307              	.LVL34:
 308              	.L26:
 309              		.loc 1 232 0
 310 002e 46F8082C 		str	r2, [r6, #-8]
 311              	.LVL35:
 312              		.loc 1 233 0
 313 0032 1C60     		str	r4, [r3]
 314              		.loc 1 235 0
 315 0034 16E90500 		ldmdb	r6, {r0, r2}
 316 0038 B118     		adds	r1, r6, r2
 317 003a 8142     		cmp	r1, r0
 318 003c 0AD0     		beq	.L35
 319              		.loc 1 240 0
 320 003e 5968     		ldr	r1, [r3, #4]
 321 0040 01F10802 		add	r2, r1, #8
 322 0044 1A44     		add	r2, r2, r3
 323 0046 9442     		cmp	r4, r2
 324 0048 13D0     		beq	.L36
 325              	.L29:
 326              		.loc 1 249 0
 327 004a 3846     		mov	r0, r7
 328              		.loc 1 252 0
 329 004c BDE8F840 		pop	{r3, r4, r5, r6, r7, lr}
 330              		.cfi_remember_state
 331              		.cfi_restore 14
 332              		.cfi_restore 7
 333              		.cfi_restore 6
 334              		.cfi_restore 5
 335              		.cfi_restore 4
 336              		.cfi_restore 3
 337              		.cfi_def_cfa_offset 0
 338              	.LVL36:
 339              		.loc 1 249 0
 340 0050 FFF7FEBF 		b	chMtxUnlock
 341              	.LVL37:
 342              	.L35:
ARM GAS  /var/tmp//ccGUFlqh.s 			page 7


 343              		.cfi_restore_state
 344              		.loc 1 237 0
 345 0054 4968     		ldr	r1, [r1, #4]
 346 0056 02F10800 		add	r0, r2, #8
 347 005a 0144     		add	r1, r1, r0
 348 005c 46F8041C 		str	r1, [r6, #-4]
 349              		.loc 1 238 0
 350 0060 B258     		ldr	r2, [r6, r2]
 351 0062 46F8082C 		str	r2, [r6, #-8]
 352              		.loc 1 240 0
 353 0066 5968     		ldr	r1, [r3, #4]
 354 0068 01F10802 		add	r2, r1, #8
 355 006c 1A44     		add	r2, r2, r3
 356 006e 9442     		cmp	r4, r2
 357 0070 EBD1     		bne	.L29
 358              	.L36:
 359              		.loc 1 242 0
 360 0072 56F8042C 		ldr	r2, [r6, #-4]
 361 0076 0832     		adds	r2, r2, #8
 362 0078 1144     		add	r1, r1, r2
 363 007a 5960     		str	r1, [r3, #4]
 364              		.loc 1 243 0
 365 007c 56F8082C 		ldr	r2, [r6, #-8]
 366 0080 1A60     		str	r2, [r3]
 367              		.loc 1 249 0
 368 0082 3846     		mov	r0, r7
 369              		.loc 1 252 0
 370 0084 BDE8F840 		pop	{r3, r4, r5, r6, r7, lr}
 371              		.cfi_restore 3
 372              		.cfi_restore 4
 373              		.cfi_restore 5
 374              		.cfi_restore 6
 375              		.cfi_restore 7
 376              		.cfi_restore 14
 377              		.cfi_def_cfa_offset 0
 378              	.LVL38:
 379              		.loc 1 249 0
 380 0088 FFF7FEBF 		b	chMtxUnlock
 381              	.LVL39:
 382              		.cfi_endproc
 383              	.LFE222:
 384              		.size	chHeapFree, .-chHeapFree
 385              		.section	.text.chHeapStatus,"ax",%progbits
 386              		.align	1
 387              		.p2align 4,,15
 388              		.global	chHeapStatus
 389              		.syntax unified
 390              		.thumb
 391              		.thumb_func
 392              		.fpu fpv4-sp-d16
 393              		.type	chHeapStatus, %function
 394              	chHeapStatus:
 395              	.LFB223:
 396              		.loc 1 267 0
 397              		.cfi_startproc
 398              		@ args = 0, pretend = 0, frame = 0
 399              		@ frame_needed = 0, uses_anonymous_args = 0
ARM GAS  /var/tmp//ccGUFlqh.s 			page 8


 400              	.LVL40:
 401 0000 70B5     		push	{r4, r5, r6, lr}
 402              		.cfi_def_cfa_offset 16
 403              		.cfi_offset 4, -16
 404              		.cfi_offset 5, -12
 405              		.cfi_offset 6, -8
 406              		.cfi_offset 14, -4
 407              		.loc 1 272 0
 408 0002 0F4C     		ldr	r4, .L48
 409 0004 0028     		cmp	r0, #0
 410 0006 18BF     		it	ne
 411 0008 0446     		movne	r4, r0
 412              	.LVL41:
 413              		.loc 1 275 0
 414 000a 04F11005 		add	r5, r4, #16
 415 000e 2846     		mov	r0, r5
 416              		.loc 1 267 0
 417 0010 0E46     		mov	r6, r1
 418              		.loc 1 275 0
 419 0012 FFF7FEFF 		bl	chMtxLock
 420              	.LVL42:
 421              		.loc 1 279 0
 422 0016 A368     		ldr	r3, [r4, #8]
 423 0018 73B1     		cbz	r3, .L42
 424 001a 0022     		movs	r2, #0
 425 001c 1446     		mov	r4, r2
 426              	.LVL43:
 427              	.L40:
 428              		.loc 1 280 0
 429 001e 5868     		ldr	r0, [r3, #4]
 430              		.loc 1 279 0
 431 0020 1B68     		ldr	r3, [r3]
 432              		.loc 1 281 0
 433 0022 0134     		adds	r4, r4, #1
 434              	.LVL44:
 435              		.loc 1 280 0
 436 0024 0244     		add	r2, r2, r0
 437              	.LVL45:
 438              		.loc 1 279 0
 439 0026 002B     		cmp	r3, #0
 440 0028 F9D1     		bne	.L40
 441              	.LVL46:
 442              	.L39:
 443              		.loc 1 284 0
 444 002a 06B1     		cbz	r6, .L41
 445              		.loc 1 285 0
 446 002c 3260     		str	r2, [r6]
 447              	.L41:
 448              		.loc 1 287 0
 449 002e 2846     		mov	r0, r5
 450 0030 FFF7FEFF 		bl	chMtxUnlock
 451              	.LVL47:
 452              		.loc 1 290 0
 453 0034 2046     		mov	r0, r4
 454 0036 70BD     		pop	{r4, r5, r6, pc}
 455              	.LVL48:
 456              	.L42:
ARM GAS  /var/tmp//ccGUFlqh.s 			page 9


 457              		.loc 1 276 0
 458 0038 1A46     		mov	r2, r3
 459              		.loc 1 277 0
 460 003a 1C46     		mov	r4, r3
 461              	.LVL49:
 462 003c F5E7     		b	.L39
 463              	.L49:
 464 003e 00BF     		.align	2
 465              	.L48:
 466 0040 00000000 		.word	.LANCHOR0
 467              		.cfi_endproc
 468              	.LFE223:
 469              		.size	chHeapStatus, .-chHeapStatus
 470              		.section	.bss.default_heap,"aw",%nobits
 471              		.align	3
 472              		.set	.LANCHOR0,. + 0
 473              		.type	default_heap, %object
 474              		.size	default_heap, 32
 475              	default_heap:
 476 0000 00000000 		.space	32
 476      00000000 
 476      00000000 
 476      00000000 
 476      00000000 
 477              		.text
 478              	.Letext0:
 479              		.file 2 "/usr/local/gcc_arm/gcc-arm-none-eabi-6-2017-q2-update/lib/gcc/arm-none-eabi/6.3.1/include
 480              		.file 3 "/usr/local/gcc_arm/gcc-arm-none-eabi-6-2017-q2-update/arm-none-eabi/include/machine/_defa
 481              		.file 4 "/usr/local/gcc_arm/gcc-arm-none-eabi-6-2017-q2-update/arm-none-eabi/include/sys/_stdint.h
 482              		.file 5 "ChibiOS_3.0.2/os/rt/ports/ARMCMx/compilers/GCC/chtypes.h"
 483              		.file 6 "ChibiOS_3.0.2/os/rt/include/chsystypes.h"
 484              		.file 7 "ChibiOS_3.0.2/os/rt/include/chschd.h"
 485              		.file 8 "ChibiOS_3.0.2/os/ext/CMSIS/include/core_cm4.h"
 486              		.file 9 "ChibiOS_3.0.2/os/ext/CMSIS/ST/system_stm32f4xx.h"
 487              		.file 10 "ChibiOS_3.0.2/os/rt/ports/ARMCMx/chcore.h"
 488              		.file 11 "ChibiOS_3.0.2/os/rt/ports/ARMCMx/chcore_v7m.h"
 489              		.file 12 "ChibiOS_3.0.2/os/rt/include/chtm.h"
 490              		.file 13 "ChibiOS_3.0.2/os/rt/include/chsem.h"
 491              		.file 14 "ChibiOS_3.0.2/os/rt/include/chmtx.h"
 492              		.file 15 "ChibiOS_3.0.2/os/rt/include/chregistry.h"
 493              		.file 16 "ChibiOS_3.0.2/os/rt/include/chmemcore.h"
 494              		.file 17 "ChibiOS_3.0.2/os/rt/include/chheap.h"
 495              		.section	.debug_info,"",%progbits
 496              	.Ldebug_info0:
 497 0000 C60B0000 		.4byte	0xbc6
 498 0004 0400     		.2byte	0x4
 499 0006 00000000 		.4byte	.Ldebug_abbrev0
 500 000a 04       		.byte	0x4
 501 000b 01       		.uleb128 0x1
 502 000c 27030000 		.4byte	.LASF151
 503 0010 0C       		.byte	0xc
 504 0011 59020000 		.4byte	.LASF152
 505 0015 AE020000 		.4byte	.LASF153
 506 0019 00000000 		.4byte	.Ldebug_ranges0+0
 507 001d 00000000 		.4byte	0
 508 0021 00000000 		.4byte	.Ldebug_line0
 509 0025 02       		.uleb128 0x2
ARM GAS  /var/tmp//ccGUFlqh.s 			page 10


 510 0026 04       		.byte	0x4
 511 0027 05       		.byte	0x5
 512 0028 696E7400 		.ascii	"int\000"
 513 002c 03       		.uleb128 0x3
 514 002d 1C000000 		.4byte	.LASF2
 515 0031 02       		.byte	0x2
 516 0032 D8       		.byte	0xd8
 517 0033 37000000 		.4byte	0x37
 518 0037 04       		.uleb128 0x4
 519 0038 04       		.byte	0x4
 520 0039 07       		.byte	0x7
 521 003a F3010000 		.4byte	.LASF0
 522 003e 04       		.uleb128 0x4
 523 003f 01       		.byte	0x1
 524 0040 06       		.byte	0x6
 525 0041 07010000 		.4byte	.LASF1
 526 0045 03       		.uleb128 0x3
 527 0046 38000000 		.4byte	.LASF3
 528 004a 03       		.byte	0x3
 529 004b 2B       		.byte	0x2b
 530 004c 50000000 		.4byte	0x50
 531 0050 04       		.uleb128 0x4
 532 0051 01       		.byte	0x1
 533 0052 08       		.byte	0x8
 534 0053 47050000 		.4byte	.LASF4
 535 0057 04       		.uleb128 0x4
 536 0058 02       		.byte	0x2
 537 0059 05       		.byte	0x5
 538 005a 6B050000 		.4byte	.LASF5
 539 005e 03       		.uleb128 0x3
 540 005f 70060000 		.4byte	.LASF6
 541 0063 03       		.byte	0x3
 542 0064 39       		.byte	0x39
 543 0065 69000000 		.4byte	0x69
 544 0069 04       		.uleb128 0x4
 545 006a 02       		.byte	0x2
 546 006b 07       		.byte	0x7
 547 006c 80020000 		.4byte	.LASF7
 548 0070 03       		.uleb128 0x3
 549 0071 01030000 		.4byte	.LASF8
 550 0075 03       		.byte	0x3
 551 0076 4D       		.byte	0x4d
 552 0077 7B000000 		.4byte	0x7b
 553 007b 04       		.uleb128 0x4
 554 007c 04       		.byte	0x4
 555 007d 05       		.byte	0x5
 556 007e 72010000 		.4byte	.LASF9
 557 0082 03       		.uleb128 0x3
 558 0083 B6060000 		.4byte	.LASF10
 559 0087 03       		.byte	0x3
 560 0088 4F       		.byte	0x4f
 561 0089 8D000000 		.4byte	0x8d
 562 008d 04       		.uleb128 0x4
 563 008e 04       		.byte	0x4
 564 008f 07       		.byte	0x7
 565 0090 3F060000 		.4byte	.LASF11
 566 0094 04       		.uleb128 0x4
ARM GAS  /var/tmp//ccGUFlqh.s 			page 11


 567 0095 08       		.byte	0x8
 568 0096 05       		.byte	0x5
 569 0097 C5010000 		.4byte	.LASF12
 570 009b 03       		.uleb128 0x3
 571 009c E2040000 		.4byte	.LASF13
 572 00a0 03       		.byte	0x3
 573 00a1 69       		.byte	0x69
 574 00a2 A6000000 		.4byte	0xa6
 575 00a6 04       		.uleb128 0x4
 576 00a7 08       		.byte	0x8
 577 00a8 07       		.byte	0x7
 578 00a9 6A000000 		.4byte	.LASF14
 579 00ad 03       		.uleb128 0x3
 580 00ae 27070000 		.4byte	.LASF15
 581 00b2 04       		.byte	0x4
 582 00b3 18       		.byte	0x18
 583 00b4 45000000 		.4byte	0x45
 584 00b8 03       		.uleb128 0x3
 585 00b9 08020000 		.4byte	.LASF16
 586 00bd 04       		.byte	0x4
 587 00be 24       		.byte	0x24
 588 00bf 5E000000 		.4byte	0x5e
 589 00c3 03       		.uleb128 0x3
 590 00c4 3F050000 		.4byte	.LASF17
 591 00c8 04       		.byte	0x4
 592 00c9 2C       		.byte	0x2c
 593 00ca 70000000 		.4byte	0x70
 594 00ce 05       		.uleb128 0x5
 595 00cf C3000000 		.4byte	0xc3
 596 00d3 03       		.uleb128 0x3
 597 00d4 05060000 		.4byte	.LASF18
 598 00d8 04       		.byte	0x4
 599 00d9 30       		.byte	0x30
 600 00da 82000000 		.4byte	0x82
 601 00de 03       		.uleb128 0x3
 602 00df 2F000000 		.4byte	.LASF19
 603 00e3 04       		.byte	0x4
 604 00e4 3C       		.byte	0x3c
 605 00e5 9B000000 		.4byte	0x9b
 606 00e9 03       		.uleb128 0x3
 607 00ea F7060000 		.4byte	.LASF20
 608 00ee 05       		.byte	0x5
 609 00ef 45       		.byte	0x45
 610 00f0 D3000000 		.4byte	0xd3
 611 00f4 03       		.uleb128 0x3
 612 00f5 9C050000 		.4byte	.LASF21
 613 00f9 05       		.byte	0x5
 614 00fa 48       		.byte	0x48
 615 00fb AD000000 		.4byte	0xad
 616 00ff 03       		.uleb128 0x3
 617 0100 7B010000 		.4byte	.LASF22
 618 0104 05       		.byte	0x5
 619 0105 49       		.byte	0x49
 620 0106 AD000000 		.4byte	0xad
 621 010a 03       		.uleb128 0x3
 622 010b ED040000 		.4byte	.LASF23
 623 010f 05       		.byte	0x5
ARM GAS  /var/tmp//ccGUFlqh.s 			page 12


 624 0110 4A       		.byte	0x4a
 625 0111 AD000000 		.4byte	0xad
 626 0115 03       		.uleb128 0x3
 627 0116 58010000 		.4byte	.LASF24
 628 011a 05       		.byte	0x5
 629 011b 4B       		.byte	0x4b
 630 011c AD000000 		.4byte	0xad
 631 0120 03       		.uleb128 0x3
 632 0121 17050000 		.4byte	.LASF25
 633 0125 05       		.byte	0x5
 634 0126 4C       		.byte	0x4c
 635 0127 D3000000 		.4byte	0xd3
 636 012b 03       		.uleb128 0x3
 637 012c A8020000 		.4byte	.LASF26
 638 0130 05       		.byte	0x5
 639 0131 4D       		.byte	0x4d
 640 0132 C3000000 		.4byte	0xc3
 641 0136 03       		.uleb128 0x3
 642 0137 F5020000 		.4byte	.LASF27
 643 013b 05       		.byte	0x5
 644 013c 4F       		.byte	0x4f
 645 013d D3000000 		.4byte	0xd3
 646 0141 03       		.uleb128 0x3
 647 0142 ED010000 		.4byte	.LASF28
 648 0146 05       		.byte	0x5
 649 0147 51       		.byte	0x51
 650 0148 C3000000 		.4byte	0xc3
 651 014c 03       		.uleb128 0x3
 652 014d 98060000 		.4byte	.LASF29
 653 0151 06       		.byte	0x6
 654 0152 33       		.byte	0x33
 655 0153 D3000000 		.4byte	0xd3
 656 0157 05       		.uleb128 0x5
 657 0158 4C010000 		.4byte	0x14c
 658 015c 03       		.uleb128 0x3
 659 015d 7B060000 		.4byte	.LASF30
 660 0161 06       		.byte	0x6
 661 0162 3F       		.byte	0x3f
 662 0163 67010000 		.4byte	0x167
 663 0167 06       		.uleb128 0x6
 664 0168 93020000 		.4byte	.LASF52
 665 016c 48       		.byte	0x48
 666 016d 07       		.byte	0x7
 667 016e C2       		.byte	0xc2
 668 016f 6C020000 		.4byte	0x26c
 669 0173 07       		.uleb128 0x7
 670 0174 95050000 		.4byte	.LASF31
 671 0178 07       		.byte	0x7
 672 0179 C3       		.byte	0xc3
 673 017a 77020000 		.4byte	0x277
 674 017e 00       		.byte	0
 675 017f 07       		.uleb128 0x7
 676 0180 10050000 		.4byte	.LASF32
 677 0184 07       		.byte	0x7
 678 0185 C5       		.byte	0xc5
 679 0186 77020000 		.4byte	0x277
 680 018a 04       		.byte	0x4
ARM GAS  /var/tmp//ccGUFlqh.s 			page 13


 681 018b 07       		.uleb128 0x7
 682 018c DF000000 		.4byte	.LASF33
 683 0190 07       		.byte	0x7
 684 0191 C7       		.byte	0xc7
 685 0192 20010000 		.4byte	0x120
 686 0196 08       		.byte	0x8
 687 0197 07       		.uleb128 0x7
 688 0198 B9040000 		.4byte	.LASF34
 689 019c 07       		.byte	0x7
 690 019d C8       		.byte	0xc8
 691 019e BE040000 		.4byte	0x4be
 692 01a2 0C       		.byte	0xc
 693 01a3 07       		.uleb128 0x7
 694 01a4 9C010000 		.4byte	.LASF35
 695 01a8 07       		.byte	0x7
 696 01a9 CA       		.byte	0xca
 697 01aa 77020000 		.4byte	0x277
 698 01ae 10       		.byte	0x10
 699 01af 07       		.uleb128 0x7
 700 01b0 AB040000 		.4byte	.LASF36
 701 01b4 07       		.byte	0x7
 702 01b5 CB       		.byte	0xcb
 703 01b6 77020000 		.4byte	0x277
 704 01ba 14       		.byte	0x14
 705 01bb 07       		.uleb128 0x7
 706 01bc 5A070000 		.4byte	.LASF37
 707 01c0 07       		.byte	0x7
 708 01c1 D2       		.byte	0xd2
 709 01c2 03070000 		.4byte	0x703
 710 01c6 18       		.byte	0x18
 711 01c7 07       		.uleb128 0x7
 712 01c8 75050000 		.4byte	.LASF38
 713 01cc 07       		.byte	0x7
 714 01cd DD       		.byte	0xdd
 715 01ce FF000000 		.4byte	0xff
 716 01d2 1C       		.byte	0x1c
 717 01d3 07       		.uleb128 0x7
 718 01d4 B3050000 		.4byte	.LASF39
 719 01d8 07       		.byte	0x7
 720 01d9 E1       		.byte	0xe1
 721 01da F4000000 		.4byte	0xf4
 722 01de 1D       		.byte	0x1d
 723 01df 07       		.uleb128 0x7
 724 01e0 1A070000 		.4byte	.LASF40
 725 01e4 07       		.byte	0x7
 726 01e5 E6       		.byte	0xe6
 727 01e6 0A010000 		.4byte	0x10a
 728 01ea 1E       		.byte	0x1e
 729 01eb 07       		.uleb128 0x7
 730 01ec 7D050000 		.4byte	.LASF41
 731 01f0 07       		.byte	0x7
 732 01f1 EC       		.byte	0xec
 733 01f2 15010000 		.4byte	0x115
 734 01f6 1F       		.byte	0x1f
 735 01f7 07       		.uleb128 0x7
 736 01f8 21020000 		.4byte	.LASF42
 737 01fc 07       		.byte	0x7
ARM GAS  /var/tmp//ccGUFlqh.s 			page 14


 738 01fd F3       		.byte	0xf3
 739 01fe 57010000 		.4byte	0x157
 740 0202 20       		.byte	0x20
 741 0203 08       		.uleb128 0x8
 742 0204 705F7500 		.ascii	"p_u\000"
 743 0208 07       		.byte	0x7
 744 0209 3101     		.2byte	0x131
 745 020b 3E060000 		.4byte	0x63e
 746 020f 24       		.byte	0x24
 747 0210 09       		.uleb128 0x9
 748 0211 5F040000 		.4byte	.LASF43
 749 0215 07       		.byte	0x7
 750 0216 3601     		.2byte	0x136
 751 0218 7D020000 		.4byte	0x27d
 752 021c 28       		.byte	0x28
 753 021d 09       		.uleb128 0x9
 754 021e 45020000 		.4byte	.LASF44
 755 0222 07       		.byte	0x7
 756 0223 3C01     		.2byte	0x13c
 757 0225 A1020000 		.4byte	0x2a1
 758 0229 2C       		.byte	0x2c
 759 022a 09       		.uleb128 0x9
 760 022b 6A060000 		.4byte	.LASF45
 761 022f 07       		.byte	0x7
 762 0230 4001     		.2byte	0x140
 763 0232 2B010000 		.4byte	0x12b
 764 0236 34       		.byte	0x34
 765 0237 09       		.uleb128 0x9
 766 0238 FA050000 		.4byte	.LASF46
 767 023c 07       		.byte	0x7
 768 023d 4601     		.2byte	0x146
 769 023f 36010000 		.4byte	0x136
 770 0243 38       		.byte	0x38
 771 0244 09       		.uleb128 0x9
 772 0245 61050000 		.4byte	.LASF47
 773 0249 07       		.byte	0x7
 774 024a 4D01     		.2byte	0x14d
 775 024c FD060000 		.4byte	0x6fd
 776 0250 3C       		.byte	0x3c
 777 0251 09       		.uleb128 0x9
 778 0252 A2060000 		.4byte	.LASF48
 779 0256 07       		.byte	0x7
 780 0257 5101     		.2byte	0x151
 781 0259 20010000 		.4byte	0x120
 782 025d 40       		.byte	0x40
 783 025e 09       		.uleb128 0x9
 784 025f 36010000 		.4byte	.LASF49
 785 0263 07       		.byte	0x7
 786 0264 5801     		.2byte	0x158
 787 0266 54030000 		.4byte	0x354
 788 026a 44       		.byte	0x44
 789 026b 00       		.byte	0
 790 026c 03       		.uleb128 0x3
 791 026d 3A070000 		.4byte	.LASF50
 792 0271 06       		.byte	0x6
 793 0272 44       		.byte	0x44
 794 0273 77020000 		.4byte	0x277
ARM GAS  /var/tmp//ccGUFlqh.s 			page 15


 795 0277 0A       		.uleb128 0xa
 796 0278 04       		.byte	0x4
 797 0279 5C010000 		.4byte	0x15c
 798 027d 03       		.uleb128 0x3
 799 027e 00000000 		.4byte	.LASF51
 800 0282 06       		.byte	0x6
 801 0283 49       		.byte	0x49
 802 0284 88020000 		.4byte	0x288
 803 0288 06       		.uleb128 0x6
 804 0289 22060000 		.4byte	.LASF53
 805 028d 04       		.byte	0x4
 806 028e 07       		.byte	0x7
 807 028f B0       		.byte	0xb0
 808 0290 A1020000 		.4byte	0x2a1
 809 0294 07       		.uleb128 0x7
 810 0295 95050000 		.4byte	.LASF31
 811 0299 07       		.byte	0x7
 812 029a B1       		.byte	0xb1
 813 029b 77020000 		.4byte	0x277
 814 029f 00       		.byte	0
 815 02a0 00       		.byte	0
 816 02a1 03       		.uleb128 0x3
 817 02a2 C4050000 		.4byte	.LASF54
 818 02a6 06       		.byte	0x6
 819 02a7 50       		.byte	0x50
 820 02a8 AC020000 		.4byte	0x2ac
 821 02ac 06       		.uleb128 0x6
 822 02ad CE000000 		.4byte	.LASF55
 823 02b1 08       		.byte	0x8
 824 02b2 07       		.byte	0x7
 825 02b3 B7       		.byte	0xb7
 826 02b4 D1020000 		.4byte	0x2d1
 827 02b8 07       		.uleb128 0x7
 828 02b9 95050000 		.4byte	.LASF31
 829 02bd 07       		.byte	0x7
 830 02be B8       		.byte	0xb8
 831 02bf 77020000 		.4byte	0x277
 832 02c3 00       		.byte	0
 833 02c4 07       		.uleb128 0x7
 834 02c5 10050000 		.4byte	.LASF32
 835 02c9 07       		.byte	0x7
 836 02ca B9       		.byte	0xb9
 837 02cb 77020000 		.4byte	0x277
 838 02cf 04       		.byte	0x4
 839 02d0 00       		.byte	0
 840 02d1 03       		.uleb128 0x3
 841 02d2 0F000000 		.4byte	.LASF56
 842 02d6 06       		.byte	0x6
 843 02d7 57       		.byte	0x57
 844 02d8 DC020000 		.4byte	0x2dc
 845 02dc 0B       		.uleb128 0xb
 846 02dd E7020000 		.4byte	.LASF57
 847 02e1 1C       		.byte	0x1c
 848 02e2 07       		.byte	0x7
 849 02e3 9001     		.2byte	0x190
 850 02e5 38030000 		.4byte	0x338
 851 02e9 09       		.uleb128 0x9
ARM GAS  /var/tmp//ccGUFlqh.s 			page 16


 852 02ea 1A060000 		.4byte	.LASF58
 853 02ee 07       		.byte	0x7
 854 02ef 9101     		.2byte	0x191
 855 02f1 A1020000 		.4byte	0x2a1
 856 02f5 00       		.byte	0
 857 02f6 09       		.uleb128 0x9
 858 02f7 87050000 		.4byte	.LASF59
 859 02fb 07       		.byte	0x7
 860 02fc 9201     		.2byte	0x192
 861 02fe 20010000 		.4byte	0x120
 862 0302 08       		.byte	0x8
 863 0303 09       		.uleb128 0x9
 864 0304 B3040000 		.4byte	.LASF60
 865 0308 07       		.byte	0x7
 866 0309 9401     		.2byte	0x194
 867 030b BE040000 		.4byte	0x4be
 868 030f 0C       		.byte	0xc
 869 0310 09       		.uleb128 0x9
 870 0311 AC010000 		.4byte	.LASF61
 871 0315 07       		.byte	0x7
 872 0316 9701     		.2byte	0x197
 873 0318 77020000 		.4byte	0x277
 874 031c 10       		.byte	0x10
 875 031d 09       		.uleb128 0x9
 876 031e DA040000 		.4byte	.LASF62
 877 0322 07       		.byte	0x7
 878 0323 9801     		.2byte	0x198
 879 0325 77020000 		.4byte	0x277
 880 0329 14       		.byte	0x14
 881 032a 09       		.uleb128 0x9
 882 032b D0040000 		.4byte	.LASF63
 883 032f 07       		.byte	0x7
 884 0330 9B01     		.2byte	0x19b
 885 0332 77020000 		.4byte	0x277
 886 0336 18       		.byte	0x18
 887 0337 00       		.byte	0
 888 0338 03       		.uleb128 0x3
 889 0339 AD060000 		.4byte	.LASF64
 890 033d 06       		.byte	0x6
 891 033e 5C       		.byte	0x5c
 892 033f 43030000 		.4byte	0x343
 893 0343 0A       		.uleb128 0xa
 894 0344 04       		.byte	0x4
 895 0345 49030000 		.4byte	0x349
 896 0349 0C       		.uleb128 0xc
 897 034a 54030000 		.4byte	0x354
 898 034e 0D       		.uleb128 0xd
 899 034f 54030000 		.4byte	0x354
 900 0353 00       		.byte	0
 901 0354 0E       		.uleb128 0xe
 902 0355 04       		.byte	0x4
 903 0356 03       		.uleb128 0x3
 904 0357 00050000 		.4byte	.LASF65
 905 035b 06       		.byte	0x6
 906 035c 61       		.byte	0x61
 907 035d 61030000 		.4byte	0x361
 908 0361 0B       		.uleb128 0xb
ARM GAS  /var/tmp//ccGUFlqh.s 			page 17


 909 0362 E6060000 		.4byte	.LASF66
 910 0366 14       		.byte	0x14
 911 0367 07       		.byte	0x7
 912 0368 6B01     		.2byte	0x16b
 913 036a B0030000 		.4byte	0x3b0
 914 036e 09       		.uleb128 0x9
 915 036f 00020000 		.4byte	.LASF67
 916 0373 07       		.byte	0x7
 917 0374 6C01     		.2byte	0x16c
 918 0376 1A070000 		.4byte	0x71a
 919 037a 00       		.byte	0
 920 037b 09       		.uleb128 0x9
 921 037c BD010000 		.4byte	.LASF68
 922 0380 07       		.byte	0x7
 923 0381 6D01     		.2byte	0x16d
 924 0383 1A070000 		.4byte	0x71a
 925 0387 04       		.byte	0x4
 926 0388 09       		.uleb128 0x9
 927 0389 3C020000 		.4byte	.LASF69
 928 038d 07       		.byte	0x7
 929 038e 6E01     		.2byte	0x16e
 930 0390 4C010000 		.4byte	0x14c
 931 0394 08       		.byte	0x8
 932 0395 09       		.uleb128 0x9
 933 0396 92070000 		.4byte	.LASF70
 934 039a 07       		.byte	0x7
 935 039b 6F01     		.2byte	0x16f
 936 039d 38030000 		.4byte	0x338
 937 03a1 0C       		.byte	0xc
 938 03a2 09       		.uleb128 0x9
 939 03a3 FF060000 		.4byte	.LASF71
 940 03a7 07       		.byte	0x7
 941 03a8 7101     		.2byte	0x171
 942 03aa 54030000 		.4byte	0x354
 943 03ae 10       		.byte	0x10
 944 03af 00       		.byte	0
 945 03b0 03       		.uleb128 0x3
 946 03b1 9F000000 		.4byte	.LASF72
 947 03b5 06       		.byte	0x6
 948 03b6 66       		.byte	0x66
 949 03b7 BB030000 		.4byte	0x3bb
 950 03bb 0B       		.uleb128 0xb
 951 03bc 72040000 		.4byte	.LASF73
 952 03c0 10       		.byte	0x10
 953 03c1 07       		.byte	0x7
 954 03c2 7B01     		.2byte	0x17b
 955 03c4 FD030000 		.4byte	0x3fd
 956 03c8 09       		.uleb128 0x9
 957 03c9 00020000 		.4byte	.LASF67
 958 03cd 07       		.byte	0x7
 959 03ce 7C01     		.2byte	0x17c
 960 03d0 1A070000 		.4byte	0x71a
 961 03d4 00       		.byte	0
 962 03d5 09       		.uleb128 0x9
 963 03d6 BD010000 		.4byte	.LASF68
 964 03da 07       		.byte	0x7
 965 03db 7E01     		.2byte	0x17e
ARM GAS  /var/tmp//ccGUFlqh.s 			page 18


 966 03dd 1A070000 		.4byte	0x71a
 967 03e1 04       		.byte	0x4
 968 03e2 09       		.uleb128 0x9
 969 03e3 3C020000 		.4byte	.LASF69
 970 03e7 07       		.byte	0x7
 971 03e8 8001     		.2byte	0x180
 972 03ea 4C010000 		.4byte	0x14c
 973 03ee 08       		.byte	0x8
 974 03ef 09       		.uleb128 0x9
 975 03f0 66070000 		.4byte	.LASF74
 976 03f4 07       		.byte	0x7
 977 03f5 8201     		.2byte	0x182
 978 03f7 57010000 		.4byte	0x157
 979 03fb 0C       		.byte	0xc
 980 03fc 00       		.byte	0
 981 03fd 03       		.uleb128 0x3
 982 03fe 4E000000 		.4byte	.LASF75
 983 0402 06       		.byte	0x6
 984 0403 6B       		.byte	0x6b
 985 0404 08040000 		.4byte	0x408
 986 0408 0B       		.uleb128 0xb
 987 0409 2F050000 		.4byte	.LASF76
 988 040d 04       		.byte	0x4
 989 040e 07       		.byte	0x7
 990 040f A201     		.2byte	0x1a2
 991 0411 23040000 		.4byte	0x423
 992 0415 09       		.uleb128 0x9
 993 0416 C1060000 		.4byte	.LASF77
 994 041a 07       		.byte	0x7
 995 041b AA01     		.2byte	0x1aa
 996 041d 09070000 		.4byte	0x709
 997 0421 00       		.byte	0
 998 0422 00       		.byte	0
 999 0423 03       		.uleb128 0x3
 1000 0424 DA060000 		.4byte	.LASF78
 1001 0428 06       		.byte	0x6
 1002 0429 70       		.byte	0x70
 1003 042a 2E040000 		.4byte	0x42e
 1004 042e 0F       		.uleb128 0xf
 1005 042f 68010000 		.4byte	.LASF79
 1006 0433 5802     		.2byte	0x258
 1007 0435 07       		.byte	0x7
 1008 0436 C201     		.2byte	0x1c2
 1009 0438 8A040000 		.4byte	0x48a
 1010 043c 09       		.uleb128 0x9
 1011 043d 21070000 		.4byte	.LASF80
 1012 0441 07       		.byte	0x7
 1013 0442 C601     		.2byte	0x1c6
 1014 0444 D1020000 		.4byte	0x2d1
 1015 0448 00       		.byte	0
 1016 0449 09       		.uleb128 0x9
 1017 044a 51010000 		.4byte	.LASF81
 1018 044e 07       		.byte	0x7
 1019 044f CA01     		.2byte	0x1ca
 1020 0451 B0030000 		.4byte	0x3b0
 1021 0455 1C       		.byte	0x1c
 1022 0456 08       		.uleb128 0x8
ARM GAS  /var/tmp//ccGUFlqh.s 			page 19


 1023 0457 64626700 		.ascii	"dbg\000"
 1024 045b 07       		.byte	0x7
 1025 045c CE01     		.2byte	0x1ce
 1026 045e FD030000 		.4byte	0x3fd
 1027 0462 2C       		.byte	0x2c
 1028 0463 09       		.uleb128 0x9
 1029 0464 9D020000 		.4byte	.LASF82
 1030 0468 07       		.byte	0x7
 1031 0469 D201     		.2byte	0x1d2
 1032 046b 5C010000 		.4byte	0x15c
 1033 046f 30       		.byte	0x30
 1034 0470 08       		.uleb128 0x8
 1035 0471 746D00   		.ascii	"tm\000"
 1036 0474 07       		.byte	0x7
 1037 0475 D701     		.2byte	0x1d7
 1038 0477 33060000 		.4byte	0x633
 1039 047b 78       		.byte	0x78
 1040 047c 09       		.uleb128 0x9
 1041 047d DE010000 		.4byte	.LASF83
 1042 0481 07       		.byte	0x7
 1043 0482 E301     		.2byte	0x1e3
 1044 0484 20070000 		.4byte	0x720
 1045 0488 80       		.byte	0x80
 1046 0489 00       		.byte	0
 1047 048a 04       		.uleb128 0x4
 1048 048b 04       		.byte	0x4
 1049 048c 07       		.byte	0x7
 1050 048d 69040000 		.4byte	.LASF84
 1051 0491 10       		.uleb128 0x10
 1052 0492 B5000000 		.4byte	.LASF85
 1053 0496 08       		.byte	0x8
 1054 0497 A706     		.2byte	0x6a7
 1055 0499 CE000000 		.4byte	0xce
 1056 049d 11       		.uleb128 0x11
 1057 049e 11020000 		.4byte	.LASF86
 1058 04a2 09       		.byte	0x9
 1059 04a3 4C       		.byte	0x4c
 1060 04a4 D3000000 		.4byte	0xd3
 1061 04a8 03       		.uleb128 0x3
 1062 04a9 B4010000 		.4byte	.LASF87
 1063 04ad 0A       		.byte	0xa
 1064 04ae 65       		.byte	0x65
 1065 04af 54030000 		.4byte	0x354
 1066 04b3 03       		.uleb128 0x3
 1067 04b4 0B030000 		.4byte	.LASF88
 1068 04b8 0A       		.byte	0xa
 1069 04b9 6D       		.byte	0x6d
 1070 04ba DE000000 		.4byte	0xde
 1071 04be 06       		.uleb128 0x6
 1072 04bf D2060000 		.4byte	.LASF89
 1073 04c3 04       		.byte	0x4
 1074 04c4 0A       		.byte	0xa
 1075 04c5 89       		.byte	0x89
 1076 04c6 D7040000 		.4byte	0x4d7
 1077 04ca 12       		.uleb128 0x12
 1078 04cb 72313300 		.ascii	"r13\000"
 1079 04cf 0A       		.byte	0xa
ARM GAS  /var/tmp//ccGUFlqh.s 			page 20


 1080 04d0 8A       		.byte	0x8a
 1081 04d1 18060000 		.4byte	0x618
 1082 04d5 00       		.byte	0
 1083 04d6 00       		.byte	0
 1084 04d7 06       		.uleb128 0x6
 1085 04d8 42000000 		.4byte	.LASF90
 1086 04dc 64       		.byte	0x64
 1087 04dd 0B       		.byte	0xb
 1088 04de F4       		.byte	0xf4
 1089 04df 18060000 		.4byte	0x618
 1090 04e3 12       		.uleb128 0x12
 1091 04e4 73313600 		.ascii	"s16\000"
 1092 04e8 0B       		.byte	0xb
 1093 04e9 F6       		.byte	0xf6
 1094 04ea A8040000 		.4byte	0x4a8
 1095 04ee 00       		.byte	0
 1096 04ef 12       		.uleb128 0x12
 1097 04f0 73313700 		.ascii	"s17\000"
 1098 04f4 0B       		.byte	0xb
 1099 04f5 F7       		.byte	0xf7
 1100 04f6 A8040000 		.4byte	0x4a8
 1101 04fa 04       		.byte	0x4
 1102 04fb 12       		.uleb128 0x12
 1103 04fc 73313800 		.ascii	"s18\000"
 1104 0500 0B       		.byte	0xb
 1105 0501 F8       		.byte	0xf8
 1106 0502 A8040000 		.4byte	0x4a8
 1107 0506 08       		.byte	0x8
 1108 0507 12       		.uleb128 0x12
 1109 0508 73313900 		.ascii	"s19\000"
 1110 050c 0B       		.byte	0xb
 1111 050d F9       		.byte	0xf9
 1112 050e A8040000 		.4byte	0x4a8
 1113 0512 0C       		.byte	0xc
 1114 0513 12       		.uleb128 0x12
 1115 0514 73323000 		.ascii	"s20\000"
 1116 0518 0B       		.byte	0xb
 1117 0519 FA       		.byte	0xfa
 1118 051a A8040000 		.4byte	0x4a8
 1119 051e 10       		.byte	0x10
 1120 051f 12       		.uleb128 0x12
 1121 0520 73323100 		.ascii	"s21\000"
 1122 0524 0B       		.byte	0xb
 1123 0525 FB       		.byte	0xfb
 1124 0526 A8040000 		.4byte	0x4a8
 1125 052a 14       		.byte	0x14
 1126 052b 12       		.uleb128 0x12
 1127 052c 73323200 		.ascii	"s22\000"
 1128 0530 0B       		.byte	0xb
 1129 0531 FC       		.byte	0xfc
 1130 0532 A8040000 		.4byte	0x4a8
 1131 0536 18       		.byte	0x18
 1132 0537 12       		.uleb128 0x12
 1133 0538 73323300 		.ascii	"s23\000"
 1134 053c 0B       		.byte	0xb
 1135 053d FD       		.byte	0xfd
 1136 053e A8040000 		.4byte	0x4a8
ARM GAS  /var/tmp//ccGUFlqh.s 			page 21


 1137 0542 1C       		.byte	0x1c
 1138 0543 12       		.uleb128 0x12
 1139 0544 73323400 		.ascii	"s24\000"
 1140 0548 0B       		.byte	0xb
 1141 0549 FE       		.byte	0xfe
 1142 054a A8040000 		.4byte	0x4a8
 1143 054e 20       		.byte	0x20
 1144 054f 12       		.uleb128 0x12
 1145 0550 73323500 		.ascii	"s25\000"
 1146 0554 0B       		.byte	0xb
 1147 0555 FF       		.byte	0xff
 1148 0556 A8040000 		.4byte	0x4a8
 1149 055a 24       		.byte	0x24
 1150 055b 08       		.uleb128 0x8
 1151 055c 73323600 		.ascii	"s26\000"
 1152 0560 0B       		.byte	0xb
 1153 0561 0001     		.2byte	0x100
 1154 0563 A8040000 		.4byte	0x4a8
 1155 0567 28       		.byte	0x28
 1156 0568 08       		.uleb128 0x8
 1157 0569 73323700 		.ascii	"s27\000"
 1158 056d 0B       		.byte	0xb
 1159 056e 0101     		.2byte	0x101
 1160 0570 A8040000 		.4byte	0x4a8
 1161 0574 2C       		.byte	0x2c
 1162 0575 08       		.uleb128 0x8
 1163 0576 73323800 		.ascii	"s28\000"
 1164 057a 0B       		.byte	0xb
 1165 057b 0201     		.2byte	0x102
 1166 057d A8040000 		.4byte	0x4a8
 1167 0581 30       		.byte	0x30
 1168 0582 08       		.uleb128 0x8
 1169 0583 73323900 		.ascii	"s29\000"
 1170 0587 0B       		.byte	0xb
 1171 0588 0301     		.2byte	0x103
 1172 058a A8040000 		.4byte	0x4a8
 1173 058e 34       		.byte	0x34
 1174 058f 08       		.uleb128 0x8
 1175 0590 73333000 		.ascii	"s30\000"
 1176 0594 0B       		.byte	0xb
 1177 0595 0401     		.2byte	0x104
 1178 0597 A8040000 		.4byte	0x4a8
 1179 059b 38       		.byte	0x38
 1180 059c 08       		.uleb128 0x8
 1181 059d 73333100 		.ascii	"s31\000"
 1182 05a1 0B       		.byte	0xb
 1183 05a2 0501     		.2byte	0x105
 1184 05a4 A8040000 		.4byte	0x4a8
 1185 05a8 3C       		.byte	0x3c
 1186 05a9 08       		.uleb128 0x8
 1187 05aa 723400   		.ascii	"r4\000"
 1188 05ad 0B       		.byte	0xb
 1189 05ae 0701     		.2byte	0x107
 1190 05b0 A8040000 		.4byte	0x4a8
 1191 05b4 40       		.byte	0x40
 1192 05b5 08       		.uleb128 0x8
 1193 05b6 723500   		.ascii	"r5\000"
ARM GAS  /var/tmp//ccGUFlqh.s 			page 22


 1194 05b9 0B       		.byte	0xb
 1195 05ba 0801     		.2byte	0x108
 1196 05bc A8040000 		.4byte	0x4a8
 1197 05c0 44       		.byte	0x44
 1198 05c1 08       		.uleb128 0x8
 1199 05c2 723600   		.ascii	"r6\000"
 1200 05c5 0B       		.byte	0xb
 1201 05c6 0901     		.2byte	0x109
 1202 05c8 A8040000 		.4byte	0x4a8
 1203 05cc 48       		.byte	0x48
 1204 05cd 08       		.uleb128 0x8
 1205 05ce 723700   		.ascii	"r7\000"
 1206 05d1 0B       		.byte	0xb
 1207 05d2 0A01     		.2byte	0x10a
 1208 05d4 A8040000 		.4byte	0x4a8
 1209 05d8 4C       		.byte	0x4c
 1210 05d9 08       		.uleb128 0x8
 1211 05da 723800   		.ascii	"r8\000"
 1212 05dd 0B       		.byte	0xb
 1213 05de 0B01     		.2byte	0x10b
 1214 05e0 A8040000 		.4byte	0x4a8
 1215 05e4 50       		.byte	0x50
 1216 05e5 08       		.uleb128 0x8
 1217 05e6 723900   		.ascii	"r9\000"
 1218 05e9 0B       		.byte	0xb
 1219 05ea 0C01     		.2byte	0x10c
 1220 05ec A8040000 		.4byte	0x4a8
 1221 05f0 54       		.byte	0x54
 1222 05f1 08       		.uleb128 0x8
 1223 05f2 72313000 		.ascii	"r10\000"
 1224 05f6 0B       		.byte	0xb
 1225 05f7 0D01     		.2byte	0x10d
 1226 05f9 A8040000 		.4byte	0x4a8
 1227 05fd 58       		.byte	0x58
 1228 05fe 08       		.uleb128 0x8
 1229 05ff 72313100 		.ascii	"r11\000"
 1230 0603 0B       		.byte	0xb
 1231 0604 0E01     		.2byte	0x10e
 1232 0606 A8040000 		.4byte	0x4a8
 1233 060a 5C       		.byte	0x5c
 1234 060b 08       		.uleb128 0x8
 1235 060c 6C7200   		.ascii	"lr\000"
 1236 060f 0B       		.byte	0xb
 1237 0610 0F01     		.2byte	0x10f
 1238 0612 A8040000 		.4byte	0x4a8
 1239 0616 60       		.byte	0x60
 1240 0617 00       		.byte	0
 1241 0618 0A       		.uleb128 0xa
 1242 0619 04       		.byte	0x4
 1243 061a D7040000 		.4byte	0x4d7
 1244 061e 13       		.uleb128 0x13
 1245 061f 04       		.byte	0x4
 1246 0620 0C       		.byte	0xc
 1247 0621 38       		.byte	0x38
 1248 0622 33060000 		.4byte	0x633
 1249 0626 07       		.uleb128 0x7
 1250 0627 CB060000 		.4byte	.LASF91
ARM GAS  /var/tmp//ccGUFlqh.s 			page 23


 1251 062b 0C       		.byte	0xc
 1252 062c 3C       		.byte	0x3c
 1253 062d E9000000 		.4byte	0xe9
 1254 0631 00       		.byte	0
 1255 0632 00       		.byte	0
 1256 0633 03       		.uleb128 0x3
 1257 0634 BF040000 		.4byte	.LASF92
 1258 0638 0C       		.byte	0xc
 1259 0639 3D       		.byte	0x3d
 1260 063a 1E060000 		.4byte	0x61e
 1261 063e 14       		.uleb128 0x14
 1262 063f 04       		.byte	0x4
 1263 0640 07       		.byte	0x7
 1264 0641 FA       		.byte	0xfa
 1265 0642 9B060000 		.4byte	0x69b
 1266 0646 15       		.uleb128 0x15
 1267 0647 28000000 		.4byte	.LASF93
 1268 064b 07       		.byte	0x7
 1269 064c 0101     		.2byte	0x101
 1270 064e 2B010000 		.4byte	0x12b
 1271 0652 15       		.uleb128 0x15
 1272 0653 8F000000 		.4byte	.LASF94
 1273 0657 07       		.byte	0x7
 1274 0658 0801     		.2byte	0x108
 1275 065a 2B010000 		.4byte	0x12b
 1276 065e 15       		.uleb128 0x15
 1277 065f 4D070000 		.4byte	.LASF95
 1278 0663 07       		.byte	0x7
 1279 0664 0F01     		.2byte	0x10f
 1280 0666 54030000 		.4byte	0x354
 1281 066a 15       		.uleb128 0x15
 1282 066b 62010000 		.4byte	.LASF96
 1283 066f 07       		.byte	0x7
 1284 0670 1601     		.2byte	0x116
 1285 0672 9B060000 		.4byte	0x69b
 1286 0676 15       		.uleb128 0x15
 1287 0677 28020000 		.4byte	.LASF97
 1288 067b 07       		.byte	0x7
 1289 067c 1E01     		.2byte	0x11e
 1290 067e C6060000 		.4byte	0x6c6
 1291 0682 15       		.uleb128 0x15
 1292 0683 63060000 		.4byte	.LASF98
 1293 0687 07       		.byte	0x7
 1294 0688 2701     		.2byte	0x127
 1295 068a FD060000 		.4byte	0x6fd
 1296 068e 15       		.uleb128 0x15
 1297 068f 8E050000 		.4byte	.LASF99
 1298 0693 07       		.byte	0x7
 1299 0694 2F01     		.2byte	0x12f
 1300 0696 36010000 		.4byte	0x136
 1301 069a 00       		.byte	0
 1302 069b 0A       		.uleb128 0xa
 1303 069c 04       		.byte	0x4
 1304 069d 6C020000 		.4byte	0x26c
 1305 06a1 06       		.uleb128 0x6
 1306 06a2 ED050000 		.4byte	.LASF100
 1307 06a6 0C       		.byte	0xc
ARM GAS  /var/tmp//ccGUFlqh.s 			page 24


 1308 06a7 0D       		.byte	0xd
 1309 06a8 34       		.byte	0x34
 1310 06a9 C6060000 		.4byte	0x6c6
 1311 06ad 07       		.uleb128 0x7
 1312 06ae A4010000 		.4byte	.LASF101
 1313 06b2 0D       		.byte	0xd
 1314 06b3 35       		.byte	0x35
 1315 06b4 A1020000 		.4byte	0x2a1
 1316 06b8 00       		.byte	0
 1317 06b9 07       		.uleb128 0x7
 1318 06ba 7A020000 		.4byte	.LASF102
 1319 06be 0D       		.byte	0xd
 1320 06bf 37       		.byte	0x37
 1321 06c0 41010000 		.4byte	0x141
 1322 06c4 08       		.byte	0x8
 1323 06c5 00       		.byte	0
 1324 06c6 0A       		.uleb128 0xa
 1325 06c7 04       		.byte	0x4
 1326 06c8 A1060000 		.4byte	0x6a1
 1327 06cc 06       		.uleb128 0x6
 1328 06cd 11070000 		.4byte	.LASF103
 1329 06d1 10       		.byte	0x10
 1330 06d2 0E       		.byte	0xe
 1331 06d3 39       		.byte	0x39
 1332 06d4 FD060000 		.4byte	0x6fd
 1333 06d8 07       		.uleb128 0x7
 1334 06d9 3E010000 		.4byte	.LASF104
 1335 06dd 0E       		.byte	0xe
 1336 06de 3A       		.byte	0x3a
 1337 06df A1020000 		.4byte	0x2a1
 1338 06e3 00       		.byte	0
 1339 06e4 07       		.uleb128 0x7
 1340 06e5 7C070000 		.4byte	.LASF105
 1341 06e9 0E       		.byte	0xe
 1342 06ea 3C       		.byte	0x3c
 1343 06eb 77020000 		.4byte	0x277
 1344 06ef 08       		.byte	0x8
 1345 06f0 07       		.uleb128 0x7
 1346 06f1 91060000 		.4byte	.LASF106
 1347 06f5 0E       		.byte	0xe
 1348 06f6 3E       		.byte	0x3e
 1349 06f7 52080000 		.4byte	0x852
 1350 06fb 0C       		.byte	0xc
 1351 06fc 00       		.byte	0
 1352 06fd 0A       		.uleb128 0xa
 1353 06fe 04       		.byte	0x4
 1354 06ff CC060000 		.4byte	0x6cc
 1355 0703 0A       		.uleb128 0xa
 1356 0704 04       		.byte	0x4
 1357 0705 15070000 		.4byte	0x715
 1358 0709 05       		.uleb128 0x5
 1359 070a 03070000 		.4byte	0x703
 1360 070e 04       		.uleb128 0x4
 1361 070f 01       		.byte	0x1
 1362 0710 08       		.byte	0x8
 1363 0711 5E060000 		.4byte	.LASF107
 1364 0715 16       		.uleb128 0x16
ARM GAS  /var/tmp//ccGUFlqh.s 			page 25


 1365 0716 0E070000 		.4byte	0x70e
 1366 071a 0A       		.uleb128 0xa
 1367 071b 04       		.byte	0x4
 1368 071c 56030000 		.4byte	0x356
 1369 0720 17       		.uleb128 0x17
 1370 0721 B3040000 		.4byte	0x4b3
 1371 0725 30070000 		.4byte	0x730
 1372 0729 18       		.uleb128 0x18
 1373 072a 8A040000 		.4byte	0x48a
 1374 072e 3A       		.byte	0x3a
 1375 072f 00       		.byte	0
 1376 0730 19       		.uleb128 0x19
 1377 0731 636800   		.ascii	"ch\000"
 1378 0734 07       		.byte	0x7
 1379 0735 0902     		.2byte	0x209
 1380 0737 23040000 		.4byte	0x423
 1381 073b 13       		.uleb128 0x13
 1382 073c 16       		.byte	0x16
 1383 073d 0F       		.byte	0xf
 1384 073e 34       		.byte	0x34
 1385 073f 1C080000 		.4byte	0x81c
 1386 0743 07       		.uleb128 0x7
 1387 0744 84070000 		.4byte	.LASF108
 1388 0748 0F       		.byte	0xf
 1389 0749 35       		.byte	0x35
 1390 074a 1C080000 		.4byte	0x81c
 1391 074e 00       		.byte	0
 1392 074f 07       		.uleb128 0x7
 1393 0750 4B040000 		.4byte	.LASF109
 1394 0754 0F       		.byte	0xf
 1395 0755 36       		.byte	0x36
 1396 0756 AD000000 		.4byte	0xad
 1397 075a 04       		.byte	0x4
 1398 075b 07       		.uleb128 0x7
 1399 075c 32060000 		.4byte	.LASF110
 1400 0760 0F       		.byte	0xf
 1401 0761 37       		.byte	0x37
 1402 0762 AD000000 		.4byte	0xad
 1403 0766 05       		.byte	0x5
 1404 0767 07       		.uleb128 0x7
 1405 0768 71070000 		.4byte	.LASF111
 1406 076c 0F       		.byte	0xf
 1407 076d 38       		.byte	0x38
 1408 076e B8000000 		.4byte	0xb8
 1409 0772 06       		.byte	0x6
 1410 0773 07       		.uleb128 0x7
 1411 0774 F5040000 		.4byte	.LASF112
 1412 0778 0F       		.byte	0xf
 1413 0779 39       		.byte	0x39
 1414 077a AD000000 		.4byte	0xad
 1415 077e 08       		.byte	0x8
 1416 077f 07       		.uleb128 0x7
 1417 0780 89040000 		.4byte	.LASF113
 1418 0784 0F       		.byte	0xf
 1419 0785 3A       		.byte	0x3a
 1420 0786 AD000000 		.4byte	0xad
 1421 078a 09       		.byte	0x9
ARM GAS  /var/tmp//ccGUFlqh.s 			page 26


 1422 078b 07       		.uleb128 0x7
 1423 078c 81000000 		.4byte	.LASF114
 1424 0790 0F       		.byte	0xf
 1425 0791 3B       		.byte	0x3b
 1426 0792 AD000000 		.4byte	0xad
 1427 0796 0A       		.byte	0xa
 1428 0797 07       		.uleb128 0x7
 1429 0798 0E060000 		.4byte	.LASF115
 1430 079c 0F       		.byte	0xf
 1431 079d 3C       		.byte	0x3c
 1432 079e AD000000 		.4byte	0xad
 1433 07a2 0B       		.byte	0xb
 1434 07a3 07       		.uleb128 0x7
 1435 07a4 06070000 		.4byte	.LASF116
 1436 07a8 0F       		.byte	0xf
 1437 07a9 3D       		.byte	0x3d
 1438 07aa AD000000 		.4byte	0xad
 1439 07ae 0C       		.byte	0xc
 1440 07af 07       		.uleb128 0x7
 1441 07b0 E0050000 		.4byte	.LASF117
 1442 07b4 0F       		.byte	0xf
 1443 07b5 3E       		.byte	0x3e
 1444 07b6 AD000000 		.4byte	0xad
 1445 07ba 0D       		.byte	0xd
 1446 07bb 07       		.uleb128 0x7
 1447 07bc 2F020000 		.4byte	.LASF118
 1448 07c0 0F       		.byte	0xf
 1449 07c1 3F       		.byte	0x3f
 1450 07c2 AD000000 		.4byte	0xad
 1451 07c6 0E       		.byte	0xe
 1452 07c7 07       		.uleb128 0x7
 1453 07c8 95040000 		.4byte	.LASF119
 1454 07cc 0F       		.byte	0xf
 1455 07cd 40       		.byte	0x40
 1456 07ce AD000000 		.4byte	0xad
 1457 07d2 0F       		.byte	0xf
 1458 07d3 07       		.uleb128 0x7
 1459 07d4 19010000 		.4byte	.LASF120
 1460 07d8 0F       		.byte	0xf
 1461 07d9 41       		.byte	0x41
 1462 07da AD000000 		.4byte	0xad
 1463 07de 10       		.byte	0x10
 1464 07df 07       		.uleb128 0x7
 1465 07e0 E6000000 		.4byte	.LASF121
 1466 07e4 0F       		.byte	0xf
 1467 07e5 43       		.byte	0x43
 1468 07e6 AD000000 		.4byte	0xad
 1469 07ea 11       		.byte	0x11
 1470 07eb 07       		.uleb128 0x7
 1471 07ec 29010000 		.4byte	.LASF122
 1472 07f0 0F       		.byte	0xf
 1473 07f1 44       		.byte	0x44
 1474 07f2 AD000000 		.4byte	0xad
 1475 07f6 12       		.byte	0x12
 1476 07f7 07       		.uleb128 0x7
 1477 07f8 53040000 		.4byte	.LASF123
 1478 07fc 0F       		.byte	0xf
ARM GAS  /var/tmp//ccGUFlqh.s 			page 27


 1479 07fd 45       		.byte	0x45
 1480 07fe AD000000 		.4byte	0xad
 1481 0802 13       		.byte	0x13
 1482 0803 07       		.uleb128 0x7
 1483 0804 A4050000 		.4byte	.LASF124
 1484 0808 0F       		.byte	0xf
 1485 0809 46       		.byte	0x46
 1486 080a AD000000 		.4byte	0xad
 1487 080e 14       		.byte	0x14
 1488 080f 07       		.uleb128 0x7
 1489 0810 DB020000 		.4byte	.LASF125
 1490 0814 0F       		.byte	0xf
 1491 0815 48       		.byte	0x48
 1492 0816 AD000000 		.4byte	0xad
 1493 081a 15       		.byte	0x15
 1494 081b 00       		.byte	0
 1495 081c 17       		.uleb128 0x17
 1496 081d 0E070000 		.4byte	0x70e
 1497 0821 2C080000 		.4byte	0x82c
 1498 0825 18       		.uleb128 0x18
 1499 0826 8A040000 		.4byte	0x48a
 1500 082a 03       		.byte	0x3
 1501 082b 00       		.byte	0
 1502 082c 03       		.uleb128 0x3
 1503 082d 92010000 		.4byte	.LASF126
 1504 0831 0F       		.byte	0xf
 1505 0832 49       		.byte	0x49
 1506 0833 3B070000 		.4byte	0x73b
 1507 0837 16       		.uleb128 0x16
 1508 0838 2C080000 		.4byte	0x82c
 1509 083c 11       		.uleb128 0x11
 1510 083d 50020000 		.4byte	.LASF127
 1511 0841 0F       		.byte	0xf
 1512 0842 6E       		.byte	0x6e
 1513 0843 37080000 		.4byte	0x837
 1514 0847 03       		.uleb128 0x3
 1515 0848 F3000000 		.4byte	.LASF128
 1516 084c 0E       		.byte	0xe
 1517 084d 34       		.byte	0x34
 1518 084e CC060000 		.4byte	0x6cc
 1519 0852 0A       		.uleb128 0xa
 1520 0853 04       		.byte	0x4
 1521 0854 47080000 		.4byte	0x847
 1522 0858 03       		.uleb128 0x3
 1523 0859 5D000000 		.4byte	.LASF129
 1524 085d 10       		.byte	0x10
 1525 085e 36       		.byte	0x36
 1526 085f 63080000 		.4byte	0x863
 1527 0863 0A       		.uleb128 0xa
 1528 0864 04       		.byte	0x4
 1529 0865 69080000 		.4byte	0x869
 1530 0869 1A       		.uleb128 0x1a
 1531 086a 54030000 		.4byte	0x354
 1532 086e 78080000 		.4byte	0x878
 1533 0872 0D       		.uleb128 0xd
 1534 0873 2C000000 		.4byte	0x2c
 1535 0877 00       		.byte	0
ARM GAS  /var/tmp//ccGUFlqh.s 			page 28


 1536 0878 03       		.uleb128 0x3
 1537 0879 84010000 		.4byte	.LASF130
 1538 087d 11       		.byte	0x11
 1539 087e 3C       		.byte	0x3c
 1540 087f 83080000 		.4byte	0x883
 1541 0883 06       		.uleb128 0x6
 1542 0884 9A070000 		.4byte	.LASF131
 1543 0888 20       		.byte	0x20
 1544 0889 11       		.byte	0x11
 1545 088a 4F       		.byte	0x4f
 1546 088b B4080000 		.4byte	0x8b4
 1547 088f 07       		.uleb128 0x7
 1548 0890 2F070000 		.4byte	.LASF132
 1549 0894 11       		.byte	0x11
 1550 0895 50       		.byte	0x50
 1551 0896 58080000 		.4byte	0x858
 1552 089a 00       		.byte	0
 1553 089b 07       		.uleb128 0x7
 1554 089c 98000000 		.4byte	.LASF133
 1555 08a0 11       		.byte	0x11
 1556 08a1 52       		.byte	0x52
 1557 08a2 D3080000 		.4byte	0x8d3
 1558 08a6 08       		.byte	0x8
 1559 08a7 07       		.uleb128 0x7
 1560 08a8 13010000 		.4byte	.LASF134
 1561 08ac 11       		.byte	0x11
 1562 08ad 54       		.byte	0x54
 1563 08ae 47080000 		.4byte	0x847
 1564 08b2 10       		.byte	0x10
 1565 08b3 00       		.byte	0
 1566 08b4 14       		.uleb128 0x14
 1567 08b5 04       		.byte	0x4
 1568 08b6 11       		.byte	0x11
 1569 08b7 44       		.byte	0x44
 1570 08b8 D3080000 		.4byte	0x8d3
 1571 08bc 1B       		.uleb128 0x1b
 1572 08bd 23000000 		.4byte	.LASF135
 1573 08c1 11       		.byte	0x11
 1574 08c2 45       		.byte	0x45
 1575 08c3 F4080000 		.4byte	0x8f4
 1576 08c7 1B       		.uleb128 0x1b
 1577 08c8 3A060000 		.4byte	.LASF136
 1578 08cc 11       		.byte	0x11
 1579 08cd 46       		.byte	0x46
 1580 08ce FA080000 		.4byte	0x8fa
 1581 08d2 00       		.byte	0
 1582 08d3 1C       		.uleb128 0x1c
 1583 08d4 55050000 		.4byte	.LASF154
 1584 08d8 08       		.byte	0x8
 1585 08d9 11       		.byte	0x11
 1586 08da 41       		.byte	0x41
 1587 08db F4080000 		.4byte	0x8f4
 1588 08df 1B       		.uleb128 0x1b
 1589 08e0 C8000000 		.4byte	.LASF137
 1590 08e4 11       		.byte	0x11
 1591 08e5 42       		.byte	0x42
 1592 08e6 B3040000 		.4byte	0x4b3
ARM GAS  /var/tmp//ccGUFlqh.s 			page 29


 1593 08ea 1D       		.uleb128 0x1d
 1594 08eb 6800     		.ascii	"h\000"
 1595 08ed 11       		.byte	0x11
 1596 08ee 49       		.byte	0x49
 1597 08ef 00090000 		.4byte	0x900
 1598 08f3 00       		.byte	0
 1599 08f4 0A       		.uleb128 0xa
 1600 08f5 04       		.byte	0x4
 1601 08f6 D3080000 		.4byte	0x8d3
 1602 08fa 0A       		.uleb128 0xa
 1603 08fb 04       		.byte	0x4
 1604 08fc 78080000 		.4byte	0x878
 1605 0900 13       		.uleb128 0x13
 1606 0901 08       		.byte	0x8
 1607 0902 11       		.byte	0x11
 1608 0903 43       		.byte	0x43
 1609 0904 1F090000 		.4byte	0x91f
 1610 0908 12       		.uleb128 0x12
 1611 0909 7500     		.ascii	"u\000"
 1612 090b 11       		.byte	0x11
 1613 090c 47       		.byte	0x47
 1614 090d B4080000 		.4byte	0x8b4
 1615 0911 00       		.byte	0
 1616 0912 07       		.uleb128 0x7
 1617 0913 61070000 		.4byte	.LASF138
 1618 0917 11       		.byte	0x11
 1619 0918 48       		.byte	0x48
 1620 0919 2C000000 		.4byte	0x2c
 1621 091d 04       		.byte	0x4
 1622 091e 00       		.byte	0
 1623 091f 1E       		.uleb128 0x1e
 1624 0920 51060000 		.4byte	.LASF141
 1625 0924 01       		.byte	0x1
 1626 0925 4C       		.byte	0x4c
 1627 0926 78080000 		.4byte	0x878
 1628 092a 05       		.uleb128 0x5
 1629 092b 03       		.byte	0x3
 1630 092c 00000000 		.4byte	default_heap
 1631 0930 1F       		.uleb128 0x1f
 1632 0931 84060000 		.4byte	.LASF142
 1633 0935 01       		.byte	0x1
 1634 0936 0B01     		.2byte	0x10b
 1635 0938 2C000000 		.4byte	0x2c
 1636 093c 00000000 		.4byte	.LFB223
 1637 0940 44000000 		.4byte	.LFE223-.LFB223
 1638 0944 01       		.uleb128 0x1
 1639 0945 9C       		.byte	0x9c
 1640 0946 BB090000 		.4byte	0x9bb
 1641 094a 20       		.uleb128 0x20
 1642 094b C2000000 		.4byte	.LASF139
 1643 094f 01       		.byte	0x1
 1644 0950 0B01     		.2byte	0x10b
 1645 0952 FA080000 		.4byte	0x8fa
 1646 0956 00000000 		.4byte	.LLST13
 1647 095a 20       		.uleb128 0x20
 1648 095b 54070000 		.4byte	.LASF140
 1649 095f 01       		.byte	0x1
ARM GAS  /var/tmp//ccGUFlqh.s 			page 30


 1650 0960 0B01     		.2byte	0x10b
 1651 0962 BB090000 		.4byte	0x9bb
 1652 0966 43000000 		.4byte	.LLST14
 1653 096a 21       		.uleb128 0x21
 1654 096b 717000   		.ascii	"qp\000"
 1655 096e 01       		.byte	0x1
 1656 096f 0C01     		.2byte	0x10c
 1657 0971 F4080000 		.4byte	0x8f4
 1658 0975 61000000 		.4byte	.LLST15
 1659 0979 21       		.uleb128 0x21
 1660 097a 6E00     		.ascii	"n\000"
 1661 097c 01       		.byte	0x1
 1662 097d 0D01     		.2byte	0x10d
 1663 097f 2C000000 		.4byte	0x2c
 1664 0983 9D000000 		.4byte	.LLST16
 1665 0987 21       		.uleb128 0x21
 1666 0988 737A00   		.ascii	"sz\000"
 1667 098b 01       		.byte	0x1
 1668 098c 0D01     		.2byte	0x10d
 1669 098e 2C000000 		.4byte	0x2c
 1670 0992 E0000000 		.4byte	.LLST17
 1671 0996 22       		.uleb128 0x22
 1672 0997 16000000 		.4byte	.LVL42
 1673 099b A80B0000 		.4byte	0xba8
 1674 099f AA090000 		.4byte	0x9aa
 1675 09a3 23       		.uleb128 0x23
 1676 09a4 01       		.uleb128 0x1
 1677 09a5 50       		.byte	0x50
 1678 09a6 02       		.uleb128 0x2
 1679 09a7 75       		.byte	0x75
 1680 09a8 00       		.sleb128 0
 1681 09a9 00       		.byte	0
 1682 09aa 24       		.uleb128 0x24
 1683 09ab 34000000 		.4byte	.LVL47
 1684 09af B30B0000 		.4byte	0xbb3
 1685 09b3 23       		.uleb128 0x23
 1686 09b4 01       		.uleb128 0x1
 1687 09b5 50       		.byte	0x50
 1688 09b6 02       		.uleb128 0x2
 1689 09b7 75       		.byte	0x75
 1690 09b8 00       		.sleb128 0
 1691 09b9 00       		.byte	0
 1692 09ba 00       		.byte	0
 1693 09bb 0A       		.uleb128 0xa
 1694 09bc 04       		.byte	0x4
 1695 09bd 2C000000 		.4byte	0x2c
 1696 09c1 25       		.uleb128 0x25
 1697 09c2 46010000 		.4byte	.LASF144
 1698 09c6 01       		.byte	0x1
 1699 09c7 D5       		.byte	0xd5
 1700 09c8 00000000 		.4byte	.LFB222
 1701 09cc 8C000000 		.4byte	.LFE222-.LFB222
 1702 09d0 01       		.uleb128 0x1
 1703 09d1 9C       		.byte	0x9c
 1704 09d2 3E0A0000 		.4byte	0xa3e
 1705 09d6 26       		.uleb128 0x26
 1706 09d7 7000     		.ascii	"p\000"
ARM GAS  /var/tmp//ccGUFlqh.s 			page 31


 1707 09d9 01       		.byte	0x1
 1708 09da D5       		.byte	0xd5
 1709 09db 54030000 		.4byte	0x354
 1710 09df 0B010000 		.4byte	.LLST9
 1711 09e3 27       		.uleb128 0x27
 1712 09e4 717000   		.ascii	"qp\000"
 1713 09e7 01       		.byte	0x1
 1714 09e8 D6       		.byte	0xd6
 1715 09e9 F4080000 		.4byte	0x8f4
 1716 09ed 50010000 		.4byte	.LLST10
 1717 09f1 27       		.uleb128 0x27
 1718 09f2 687000   		.ascii	"hp\000"
 1719 09f5 01       		.byte	0x1
 1720 09f6 D6       		.byte	0xd6
 1721 09f7 F4080000 		.4byte	0x8f4
 1722 09fb 87010000 		.4byte	.LLST11
 1723 09ff 28       		.uleb128 0x28
 1724 0a00 C2000000 		.4byte	.LASF139
 1725 0a04 01       		.byte	0x1
 1726 0a05 D7       		.byte	0xd7
 1727 0a06 FA080000 		.4byte	0x8fa
 1728 0a0a C5010000 		.4byte	.LLST12
 1729 0a0e 29       		.uleb128 0x29
 1730 0a0f BB050000 		.4byte	.LASF146
 1731 0a13 4E0A0000 		.4byte	0xa4e
 1732 0a17 22       		.uleb128 0x22
 1733 0a18 18000000 		.4byte	.LVL31
 1734 0a1c A80B0000 		.4byte	0xba8
 1735 0a20 2B0A0000 		.4byte	0xa2b
 1736 0a24 23       		.uleb128 0x23
 1737 0a25 01       		.uleb128 0x1
 1738 0a26 50       		.byte	0x50
 1739 0a27 02       		.uleb128 0x2
 1740 0a28 77       		.byte	0x77
 1741 0a29 00       		.sleb128 0
 1742 0a2a 00       		.byte	0
 1743 0a2b 2A       		.uleb128 0x2a
 1744 0a2c 54000000 		.4byte	.LVL37
 1745 0a30 B30B0000 		.4byte	0xbb3
 1746 0a34 2A       		.uleb128 0x2a
 1747 0a35 8C000000 		.4byte	.LVL39
 1748 0a39 B30B0000 		.4byte	0xbb3
 1749 0a3d 00       		.byte	0
 1750 0a3e 17       		.uleb128 0x17
 1751 0a3f 15070000 		.4byte	0x715
 1752 0a43 4E0A0000 		.4byte	0xa4e
 1753 0a47 18       		.uleb128 0x18
 1754 0a48 8A040000 		.4byte	0x48a
 1755 0a4c 0A       		.byte	0xa
 1756 0a4d 00       		.byte	0
 1757 0a4e 16       		.uleb128 0x16
 1758 0a4f 3E0A0000 		.4byte	0xa3e
 1759 0a53 2B       		.uleb128 0x2b
 1760 0a54 D4050000 		.4byte	.LASF143
 1761 0a58 01       		.byte	0x1
 1762 0a59 93       		.byte	0x93
 1763 0a5a 54030000 		.4byte	0x354
ARM GAS  /var/tmp//ccGUFlqh.s 			page 32


 1764 0a5e 00000000 		.4byte	.LFB221
 1765 0a62 88000000 		.4byte	.LFE221-.LFB221
 1766 0a66 01       		.uleb128 0x1
 1767 0a67 9C       		.byte	0x9c
 1768 0a68 FD0A0000 		.4byte	0xafd
 1769 0a6c 2C       		.uleb128 0x2c
 1770 0a6d C2000000 		.4byte	.LASF139
 1771 0a71 01       		.byte	0x1
 1772 0a72 93       		.byte	0x93
 1773 0a73 FA080000 		.4byte	0x8fa
 1774 0a77 18020000 		.4byte	.LLST4
 1775 0a7b 2C       		.uleb128 0x2c
 1776 0a7c 61070000 		.4byte	.LASF138
 1777 0a80 01       		.byte	0x1
 1778 0a81 93       		.byte	0x93
 1779 0a82 2C000000 		.4byte	0x2c
 1780 0a86 36020000 		.4byte	.LLST5
 1781 0a8a 27       		.uleb128 0x27
 1782 0a8b 717000   		.ascii	"qp\000"
 1783 0a8e 01       		.byte	0x1
 1784 0a8f 94       		.byte	0x94
 1785 0a90 F4080000 		.4byte	0x8f4
 1786 0a94 61020000 		.4byte	.LLST6
 1787 0a98 27       		.uleb128 0x27
 1788 0a99 687000   		.ascii	"hp\000"
 1789 0a9c 01       		.byte	0x1
 1790 0a9d 94       		.byte	0x94
 1791 0a9e F4080000 		.4byte	0x8f4
 1792 0aa2 8A020000 		.4byte	.LLST7
 1793 0aa6 27       		.uleb128 0x27
 1794 0aa7 667000   		.ascii	"fp\000"
 1795 0aaa 01       		.byte	0x1
 1796 0aab 94       		.byte	0x94
 1797 0aac F4080000 		.4byte	0x8f4
 1798 0ab0 ED020000 		.4byte	.LLST8
 1799 0ab4 22       		.uleb128 0x22
 1800 0ab5 1E000000 		.4byte	.LVL10
 1801 0ab9 A80B0000 		.4byte	0xba8
 1802 0abd C80A0000 		.4byte	0xac8
 1803 0ac1 23       		.uleb128 0x23
 1804 0ac2 01       		.uleb128 0x1
 1805 0ac3 50       		.byte	0x50
 1806 0ac4 02       		.uleb128 0x2
 1807 0ac5 77       		.byte	0x77
 1808 0ac6 00       		.sleb128 0
 1809 0ac7 00       		.byte	0
 1810 0ac8 22       		.uleb128 0x22
 1811 0ac9 34000000 		.4byte	.LVL15
 1812 0acd B30B0000 		.4byte	0xbb3
 1813 0ad1 DC0A0000 		.4byte	0xadc
 1814 0ad5 23       		.uleb128 0x23
 1815 0ad6 01       		.uleb128 0x1
 1816 0ad7 50       		.byte	0x50
 1817 0ad8 02       		.uleb128 0x2
 1818 0ad9 77       		.byte	0x77
 1819 0ada 00       		.sleb128 0
 1820 0adb 00       		.byte	0
ARM GAS  /var/tmp//ccGUFlqh.s 			page 33


 1821 0adc 2D       		.uleb128 0x2d
 1822 0add 3E000000 		.4byte	.LVL16
 1823 0ae1 EC0A0000 		.4byte	0xaec
 1824 0ae5 23       		.uleb128 0x23
 1825 0ae6 01       		.uleb128 0x1
 1826 0ae7 50       		.byte	0x50
 1827 0ae8 02       		.uleb128 0x2
 1828 0ae9 75       		.byte	0x75
 1829 0aea 08       		.sleb128 8
 1830 0aeb 00       		.byte	0
 1831 0aec 24       		.uleb128 0x24
 1832 0aed 64000000 		.4byte	.LVL22
 1833 0af1 B30B0000 		.4byte	0xbb3
 1834 0af5 23       		.uleb128 0x23
 1835 0af6 01       		.uleb128 0x1
 1836 0af7 50       		.byte	0x50
 1837 0af8 02       		.uleb128 0x2
 1838 0af9 77       		.byte	0x77
 1839 0afa 00       		.sleb128 0
 1840 0afb 00       		.byte	0
 1841 0afc 00       		.byte	0
 1842 0afd 25       		.uleb128 0x25
 1843 0afe 16030000 		.4byte	.LASF145
 1844 0b02 01       		.byte	0x1
 1845 0b03 72       		.byte	0x72
 1846 0b04 00000000 		.4byte	.LFB220
 1847 0b08 14000000 		.4byte	.LFE220-.LFB220
 1848 0b0c 01       		.uleb128 0x1
 1849 0b0d 9C       		.byte	0x9c
 1850 0b0e 6A0B0000 		.4byte	0xb6a
 1851 0b12 2C       		.uleb128 0x2c
 1852 0b13 C2000000 		.4byte	.LASF139
 1853 0b17 01       		.byte	0x1
 1854 0b18 72       		.byte	0x72
 1855 0b19 FA080000 		.4byte	0x8fa
 1856 0b1d 00030000 		.4byte	.LLST0
 1857 0b21 26       		.uleb128 0x26
 1858 0b22 62756600 		.ascii	"buf\000"
 1859 0b26 01       		.byte	0x1
 1860 0b27 72       		.byte	0x72
 1861 0b28 54030000 		.4byte	0x354
 1862 0b2c 2E030000 		.4byte	.LLST1
 1863 0b30 2C       		.uleb128 0x2c
 1864 0b31 61070000 		.4byte	.LASF138
 1865 0b35 01       		.byte	0x1
 1866 0b36 72       		.byte	0x72
 1867 0b37 2C000000 		.4byte	0x2c
 1868 0b3b 4F030000 		.4byte	.LLST2
 1869 0b3f 27       		.uleb128 0x27
 1870 0b40 687000   		.ascii	"hp\000"
 1871 0b43 01       		.byte	0x1
 1872 0b44 73       		.byte	0x73
 1873 0b45 F4080000 		.4byte	0x8f4
 1874 0b49 7D030000 		.4byte	.LLST3
 1875 0b4d 29       		.uleb128 0x29
 1876 0b4e BB050000 		.4byte	.LASF146
 1877 0b52 7A0B0000 		.4byte	0xb7a
ARM GAS  /var/tmp//ccGUFlqh.s 			page 34


 1878 0b56 2E       		.uleb128 0x2e
 1879 0b57 14000000 		.4byte	.LVL4
 1880 0b5b BE0B0000 		.4byte	0xbbe
 1881 0b5f 23       		.uleb128 0x23
 1882 0b60 01       		.uleb128 0x1
 1883 0b61 50       		.byte	0x50
 1884 0b62 05       		.uleb128 0x5
 1885 0b63 F3       		.byte	0xf3
 1886 0b64 01       		.uleb128 0x1
 1887 0b65 50       		.byte	0x50
 1888 0b66 23       		.byte	0x23
 1889 0b67 10       		.uleb128 0x10
 1890 0b68 00       		.byte	0
 1891 0b69 00       		.byte	0
 1892 0b6a 17       		.uleb128 0x17
 1893 0b6b 15070000 		.4byte	0x715
 1894 0b6f 7A0B0000 		.4byte	0xb7a
 1895 0b73 18       		.uleb128 0x18
 1896 0b74 8A040000 		.4byte	0x48a
 1897 0b78 10       		.byte	0x10
 1898 0b79 00       		.byte	0
 1899 0b7a 16       		.uleb128 0x16
 1900 0b7b 6A0B0000 		.4byte	0xb6a
 1901 0b7f 25       		.uleb128 0x25
 1902 0b80 D3010000 		.4byte	.LASF147
 1903 0b84 01       		.byte	0x1
 1904 0b85 5B       		.byte	0x5b
 1905 0b86 00000000 		.4byte	.LFB219
 1906 0b8a 1C000000 		.4byte	.LFE219-.LFB219
 1907 0b8e 01       		.uleb128 0x1
 1908 0b8f 9C       		.byte	0x9c
 1909 0b90 A80B0000 		.4byte	0xba8
 1910 0b94 2E       		.uleb128 0x2e
 1911 0b95 14000000 		.4byte	.LVL0
 1912 0b99 BE0B0000 		.4byte	0xbbe
 1913 0b9d 23       		.uleb128 0x23
 1914 0b9e 01       		.uleb128 0x1
 1915 0b9f 50       		.byte	0x50
 1916 0ba0 05       		.uleb128 0x5
 1917 0ba1 03       		.byte	0x3
 1918 0ba2 10000000 		.4byte	.LANCHOR0+16
 1919 0ba6 00       		.byte	0
 1920 0ba7 00       		.byte	0
 1921 0ba8 2F       		.uleb128 0x2f
 1922 0ba9 A1040000 		.4byte	.LASF148
 1923 0bad A1040000 		.4byte	.LASF148
 1924 0bb1 0E       		.byte	0xe
 1925 0bb2 68       		.byte	0x68
 1926 0bb3 2F       		.uleb128 0x2f
 1927 0bb4 FB000000 		.4byte	.LASF149
 1928 0bb8 FB000000 		.4byte	.LASF149
 1929 0bbc 0E       		.byte	0xe
 1930 0bbd 6C       		.byte	0x6c
 1931 0bbe 2F       		.uleb128 0x2f
 1932 0bbf 1F050000 		.4byte	.LASF150
 1933 0bc3 1F050000 		.4byte	.LASF150
 1934 0bc7 0E       		.byte	0xe
ARM GAS  /var/tmp//ccGUFlqh.s 			page 35


 1935 0bc8 67       		.byte	0x67
 1936 0bc9 00       		.byte	0
 1937              		.section	.debug_abbrev,"",%progbits
 1938              	.Ldebug_abbrev0:
 1939 0000 01       		.uleb128 0x1
 1940 0001 11       		.uleb128 0x11
 1941 0002 01       		.byte	0x1
 1942 0003 25       		.uleb128 0x25
 1943 0004 0E       		.uleb128 0xe
 1944 0005 13       		.uleb128 0x13
 1945 0006 0B       		.uleb128 0xb
 1946 0007 03       		.uleb128 0x3
 1947 0008 0E       		.uleb128 0xe
 1948 0009 1B       		.uleb128 0x1b
 1949 000a 0E       		.uleb128 0xe
 1950 000b 55       		.uleb128 0x55
 1951 000c 17       		.uleb128 0x17
 1952 000d 11       		.uleb128 0x11
 1953 000e 01       		.uleb128 0x1
 1954 000f 10       		.uleb128 0x10
 1955 0010 17       		.uleb128 0x17
 1956 0011 00       		.byte	0
 1957 0012 00       		.byte	0
 1958 0013 02       		.uleb128 0x2
 1959 0014 24       		.uleb128 0x24
 1960 0015 00       		.byte	0
 1961 0016 0B       		.uleb128 0xb
 1962 0017 0B       		.uleb128 0xb
 1963 0018 3E       		.uleb128 0x3e
 1964 0019 0B       		.uleb128 0xb
 1965 001a 03       		.uleb128 0x3
 1966 001b 08       		.uleb128 0x8
 1967 001c 00       		.byte	0
 1968 001d 00       		.byte	0
 1969 001e 03       		.uleb128 0x3
 1970 001f 16       		.uleb128 0x16
 1971 0020 00       		.byte	0
 1972 0021 03       		.uleb128 0x3
 1973 0022 0E       		.uleb128 0xe
 1974 0023 3A       		.uleb128 0x3a
 1975 0024 0B       		.uleb128 0xb
 1976 0025 3B       		.uleb128 0x3b
 1977 0026 0B       		.uleb128 0xb
 1978 0027 49       		.uleb128 0x49
 1979 0028 13       		.uleb128 0x13
 1980 0029 00       		.byte	0
 1981 002a 00       		.byte	0
 1982 002b 04       		.uleb128 0x4
 1983 002c 24       		.uleb128 0x24
 1984 002d 00       		.byte	0
 1985 002e 0B       		.uleb128 0xb
 1986 002f 0B       		.uleb128 0xb
 1987 0030 3E       		.uleb128 0x3e
 1988 0031 0B       		.uleb128 0xb
 1989 0032 03       		.uleb128 0x3
 1990 0033 0E       		.uleb128 0xe
 1991 0034 00       		.byte	0
ARM GAS  /var/tmp//ccGUFlqh.s 			page 36


 1992 0035 00       		.byte	0
 1993 0036 05       		.uleb128 0x5
 1994 0037 35       		.uleb128 0x35
 1995 0038 00       		.byte	0
 1996 0039 49       		.uleb128 0x49
 1997 003a 13       		.uleb128 0x13
 1998 003b 00       		.byte	0
 1999 003c 00       		.byte	0
 2000 003d 06       		.uleb128 0x6
 2001 003e 13       		.uleb128 0x13
 2002 003f 01       		.byte	0x1
 2003 0040 03       		.uleb128 0x3
 2004 0041 0E       		.uleb128 0xe
 2005 0042 0B       		.uleb128 0xb
 2006 0043 0B       		.uleb128 0xb
 2007 0044 3A       		.uleb128 0x3a
 2008 0045 0B       		.uleb128 0xb
 2009 0046 3B       		.uleb128 0x3b
 2010 0047 0B       		.uleb128 0xb
 2011 0048 01       		.uleb128 0x1
 2012 0049 13       		.uleb128 0x13
 2013 004a 00       		.byte	0
 2014 004b 00       		.byte	0
 2015 004c 07       		.uleb128 0x7
 2016 004d 0D       		.uleb128 0xd
 2017 004e 00       		.byte	0
 2018 004f 03       		.uleb128 0x3
 2019 0050 0E       		.uleb128 0xe
 2020 0051 3A       		.uleb128 0x3a
 2021 0052 0B       		.uleb128 0xb
 2022 0053 3B       		.uleb128 0x3b
 2023 0054 0B       		.uleb128 0xb
 2024 0055 49       		.uleb128 0x49
 2025 0056 13       		.uleb128 0x13
 2026 0057 38       		.uleb128 0x38
 2027 0058 0B       		.uleb128 0xb
 2028 0059 00       		.byte	0
 2029 005a 00       		.byte	0
 2030 005b 08       		.uleb128 0x8
 2031 005c 0D       		.uleb128 0xd
 2032 005d 00       		.byte	0
 2033 005e 03       		.uleb128 0x3
 2034 005f 08       		.uleb128 0x8
 2035 0060 3A       		.uleb128 0x3a
 2036 0061 0B       		.uleb128 0xb
 2037 0062 3B       		.uleb128 0x3b
 2038 0063 05       		.uleb128 0x5
 2039 0064 49       		.uleb128 0x49
 2040 0065 13       		.uleb128 0x13
 2041 0066 38       		.uleb128 0x38
 2042 0067 0B       		.uleb128 0xb
 2043 0068 00       		.byte	0
 2044 0069 00       		.byte	0
 2045 006a 09       		.uleb128 0x9
 2046 006b 0D       		.uleb128 0xd
 2047 006c 00       		.byte	0
 2048 006d 03       		.uleb128 0x3
ARM GAS  /var/tmp//ccGUFlqh.s 			page 37


 2049 006e 0E       		.uleb128 0xe
 2050 006f 3A       		.uleb128 0x3a
 2051 0070 0B       		.uleb128 0xb
 2052 0071 3B       		.uleb128 0x3b
 2053 0072 05       		.uleb128 0x5
 2054 0073 49       		.uleb128 0x49
 2055 0074 13       		.uleb128 0x13
 2056 0075 38       		.uleb128 0x38
 2057 0076 0B       		.uleb128 0xb
 2058 0077 00       		.byte	0
 2059 0078 00       		.byte	0
 2060 0079 0A       		.uleb128 0xa
 2061 007a 0F       		.uleb128 0xf
 2062 007b 00       		.byte	0
 2063 007c 0B       		.uleb128 0xb
 2064 007d 0B       		.uleb128 0xb
 2065 007e 49       		.uleb128 0x49
 2066 007f 13       		.uleb128 0x13
 2067 0080 00       		.byte	0
 2068 0081 00       		.byte	0
 2069 0082 0B       		.uleb128 0xb
 2070 0083 13       		.uleb128 0x13
 2071 0084 01       		.byte	0x1
 2072 0085 03       		.uleb128 0x3
 2073 0086 0E       		.uleb128 0xe
 2074 0087 0B       		.uleb128 0xb
 2075 0088 0B       		.uleb128 0xb
 2076 0089 3A       		.uleb128 0x3a
 2077 008a 0B       		.uleb128 0xb
 2078 008b 3B       		.uleb128 0x3b
 2079 008c 05       		.uleb128 0x5
 2080 008d 01       		.uleb128 0x1
 2081 008e 13       		.uleb128 0x13
 2082 008f 00       		.byte	0
 2083 0090 00       		.byte	0
 2084 0091 0C       		.uleb128 0xc
 2085 0092 15       		.uleb128 0x15
 2086 0093 01       		.byte	0x1
 2087 0094 27       		.uleb128 0x27
 2088 0095 19       		.uleb128 0x19
 2089 0096 01       		.uleb128 0x1
 2090 0097 13       		.uleb128 0x13
 2091 0098 00       		.byte	0
 2092 0099 00       		.byte	0
 2093 009a 0D       		.uleb128 0xd
 2094 009b 05       		.uleb128 0x5
 2095 009c 00       		.byte	0
 2096 009d 49       		.uleb128 0x49
 2097 009e 13       		.uleb128 0x13
 2098 009f 00       		.byte	0
 2099 00a0 00       		.byte	0
 2100 00a1 0E       		.uleb128 0xe
 2101 00a2 0F       		.uleb128 0xf
 2102 00a3 00       		.byte	0
 2103 00a4 0B       		.uleb128 0xb
 2104 00a5 0B       		.uleb128 0xb
 2105 00a6 00       		.byte	0
ARM GAS  /var/tmp//ccGUFlqh.s 			page 38


 2106 00a7 00       		.byte	0
 2107 00a8 0F       		.uleb128 0xf
 2108 00a9 13       		.uleb128 0x13
 2109 00aa 01       		.byte	0x1
 2110 00ab 03       		.uleb128 0x3
 2111 00ac 0E       		.uleb128 0xe
 2112 00ad 0B       		.uleb128 0xb
 2113 00ae 05       		.uleb128 0x5
 2114 00af 3A       		.uleb128 0x3a
 2115 00b0 0B       		.uleb128 0xb
 2116 00b1 3B       		.uleb128 0x3b
 2117 00b2 05       		.uleb128 0x5
 2118 00b3 01       		.uleb128 0x1
 2119 00b4 13       		.uleb128 0x13
 2120 00b5 00       		.byte	0
 2121 00b6 00       		.byte	0
 2122 00b7 10       		.uleb128 0x10
 2123 00b8 34       		.uleb128 0x34
 2124 00b9 00       		.byte	0
 2125 00ba 03       		.uleb128 0x3
 2126 00bb 0E       		.uleb128 0xe
 2127 00bc 3A       		.uleb128 0x3a
 2128 00bd 0B       		.uleb128 0xb
 2129 00be 3B       		.uleb128 0x3b
 2130 00bf 05       		.uleb128 0x5
 2131 00c0 49       		.uleb128 0x49
 2132 00c1 13       		.uleb128 0x13
 2133 00c2 3F       		.uleb128 0x3f
 2134 00c3 19       		.uleb128 0x19
 2135 00c4 3C       		.uleb128 0x3c
 2136 00c5 19       		.uleb128 0x19
 2137 00c6 00       		.byte	0
 2138 00c7 00       		.byte	0
 2139 00c8 11       		.uleb128 0x11
 2140 00c9 34       		.uleb128 0x34
 2141 00ca 00       		.byte	0
 2142 00cb 03       		.uleb128 0x3
 2143 00cc 0E       		.uleb128 0xe
 2144 00cd 3A       		.uleb128 0x3a
 2145 00ce 0B       		.uleb128 0xb
 2146 00cf 3B       		.uleb128 0x3b
 2147 00d0 0B       		.uleb128 0xb
 2148 00d1 49       		.uleb128 0x49
 2149 00d2 13       		.uleb128 0x13
 2150 00d3 3F       		.uleb128 0x3f
 2151 00d4 19       		.uleb128 0x19
 2152 00d5 3C       		.uleb128 0x3c
 2153 00d6 19       		.uleb128 0x19
 2154 00d7 00       		.byte	0
 2155 00d8 00       		.byte	0
 2156 00d9 12       		.uleb128 0x12
 2157 00da 0D       		.uleb128 0xd
 2158 00db 00       		.byte	0
 2159 00dc 03       		.uleb128 0x3
 2160 00dd 08       		.uleb128 0x8
 2161 00de 3A       		.uleb128 0x3a
 2162 00df 0B       		.uleb128 0xb
ARM GAS  /var/tmp//ccGUFlqh.s 			page 39


 2163 00e0 3B       		.uleb128 0x3b
 2164 00e1 0B       		.uleb128 0xb
 2165 00e2 49       		.uleb128 0x49
 2166 00e3 13       		.uleb128 0x13
 2167 00e4 38       		.uleb128 0x38
 2168 00e5 0B       		.uleb128 0xb
 2169 00e6 00       		.byte	0
 2170 00e7 00       		.byte	0
 2171 00e8 13       		.uleb128 0x13
 2172 00e9 13       		.uleb128 0x13
 2173 00ea 01       		.byte	0x1
 2174 00eb 0B       		.uleb128 0xb
 2175 00ec 0B       		.uleb128 0xb
 2176 00ed 3A       		.uleb128 0x3a
 2177 00ee 0B       		.uleb128 0xb
 2178 00ef 3B       		.uleb128 0x3b
 2179 00f0 0B       		.uleb128 0xb
 2180 00f1 01       		.uleb128 0x1
 2181 00f2 13       		.uleb128 0x13
 2182 00f3 00       		.byte	0
 2183 00f4 00       		.byte	0
 2184 00f5 14       		.uleb128 0x14
 2185 00f6 17       		.uleb128 0x17
 2186 00f7 01       		.byte	0x1
 2187 00f8 0B       		.uleb128 0xb
 2188 00f9 0B       		.uleb128 0xb
 2189 00fa 3A       		.uleb128 0x3a
 2190 00fb 0B       		.uleb128 0xb
 2191 00fc 3B       		.uleb128 0x3b
 2192 00fd 0B       		.uleb128 0xb
 2193 00fe 01       		.uleb128 0x1
 2194 00ff 13       		.uleb128 0x13
 2195 0100 00       		.byte	0
 2196 0101 00       		.byte	0
 2197 0102 15       		.uleb128 0x15
 2198 0103 0D       		.uleb128 0xd
 2199 0104 00       		.byte	0
 2200 0105 03       		.uleb128 0x3
 2201 0106 0E       		.uleb128 0xe
 2202 0107 3A       		.uleb128 0x3a
 2203 0108 0B       		.uleb128 0xb
 2204 0109 3B       		.uleb128 0x3b
 2205 010a 05       		.uleb128 0x5
 2206 010b 49       		.uleb128 0x49
 2207 010c 13       		.uleb128 0x13
 2208 010d 00       		.byte	0
 2209 010e 00       		.byte	0
 2210 010f 16       		.uleb128 0x16
 2211 0110 26       		.uleb128 0x26
 2212 0111 00       		.byte	0
 2213 0112 49       		.uleb128 0x49
 2214 0113 13       		.uleb128 0x13
 2215 0114 00       		.byte	0
 2216 0115 00       		.byte	0
 2217 0116 17       		.uleb128 0x17
 2218 0117 01       		.uleb128 0x1
 2219 0118 01       		.byte	0x1
ARM GAS  /var/tmp//ccGUFlqh.s 			page 40


 2220 0119 49       		.uleb128 0x49
 2221 011a 13       		.uleb128 0x13
 2222 011b 01       		.uleb128 0x1
 2223 011c 13       		.uleb128 0x13
 2224 011d 00       		.byte	0
 2225 011e 00       		.byte	0
 2226 011f 18       		.uleb128 0x18
 2227 0120 21       		.uleb128 0x21
 2228 0121 00       		.byte	0
 2229 0122 49       		.uleb128 0x49
 2230 0123 13       		.uleb128 0x13
 2231 0124 2F       		.uleb128 0x2f
 2232 0125 0B       		.uleb128 0xb
 2233 0126 00       		.byte	0
 2234 0127 00       		.byte	0
 2235 0128 19       		.uleb128 0x19
 2236 0129 34       		.uleb128 0x34
 2237 012a 00       		.byte	0
 2238 012b 03       		.uleb128 0x3
 2239 012c 08       		.uleb128 0x8
 2240 012d 3A       		.uleb128 0x3a
 2241 012e 0B       		.uleb128 0xb
 2242 012f 3B       		.uleb128 0x3b
 2243 0130 05       		.uleb128 0x5
 2244 0131 49       		.uleb128 0x49
 2245 0132 13       		.uleb128 0x13
 2246 0133 3F       		.uleb128 0x3f
 2247 0134 19       		.uleb128 0x19
 2248 0135 3C       		.uleb128 0x3c
 2249 0136 19       		.uleb128 0x19
 2250 0137 00       		.byte	0
 2251 0138 00       		.byte	0
 2252 0139 1A       		.uleb128 0x1a
 2253 013a 15       		.uleb128 0x15
 2254 013b 01       		.byte	0x1
 2255 013c 27       		.uleb128 0x27
 2256 013d 19       		.uleb128 0x19
 2257 013e 49       		.uleb128 0x49
 2258 013f 13       		.uleb128 0x13
 2259 0140 01       		.uleb128 0x1
 2260 0141 13       		.uleb128 0x13
 2261 0142 00       		.byte	0
 2262 0143 00       		.byte	0
 2263 0144 1B       		.uleb128 0x1b
 2264 0145 0D       		.uleb128 0xd
 2265 0146 00       		.byte	0
 2266 0147 03       		.uleb128 0x3
 2267 0148 0E       		.uleb128 0xe
 2268 0149 3A       		.uleb128 0x3a
 2269 014a 0B       		.uleb128 0xb
 2270 014b 3B       		.uleb128 0x3b
 2271 014c 0B       		.uleb128 0xb
 2272 014d 49       		.uleb128 0x49
 2273 014e 13       		.uleb128 0x13
 2274 014f 00       		.byte	0
 2275 0150 00       		.byte	0
 2276 0151 1C       		.uleb128 0x1c
ARM GAS  /var/tmp//ccGUFlqh.s 			page 41


 2277 0152 17       		.uleb128 0x17
 2278 0153 01       		.byte	0x1
 2279 0154 03       		.uleb128 0x3
 2280 0155 0E       		.uleb128 0xe
 2281 0156 0B       		.uleb128 0xb
 2282 0157 0B       		.uleb128 0xb
 2283 0158 3A       		.uleb128 0x3a
 2284 0159 0B       		.uleb128 0xb
 2285 015a 3B       		.uleb128 0x3b
 2286 015b 0B       		.uleb128 0xb
 2287 015c 01       		.uleb128 0x1
 2288 015d 13       		.uleb128 0x13
 2289 015e 00       		.byte	0
 2290 015f 00       		.byte	0
 2291 0160 1D       		.uleb128 0x1d
 2292 0161 0D       		.uleb128 0xd
 2293 0162 00       		.byte	0
 2294 0163 03       		.uleb128 0x3
 2295 0164 08       		.uleb128 0x8
 2296 0165 3A       		.uleb128 0x3a
 2297 0166 0B       		.uleb128 0xb
 2298 0167 3B       		.uleb128 0x3b
 2299 0168 0B       		.uleb128 0xb
 2300 0169 49       		.uleb128 0x49
 2301 016a 13       		.uleb128 0x13
 2302 016b 00       		.byte	0
 2303 016c 00       		.byte	0
 2304 016d 1E       		.uleb128 0x1e
 2305 016e 34       		.uleb128 0x34
 2306 016f 00       		.byte	0
 2307 0170 03       		.uleb128 0x3
 2308 0171 0E       		.uleb128 0xe
 2309 0172 3A       		.uleb128 0x3a
 2310 0173 0B       		.uleb128 0xb
 2311 0174 3B       		.uleb128 0x3b
 2312 0175 0B       		.uleb128 0xb
 2313 0176 49       		.uleb128 0x49
 2314 0177 13       		.uleb128 0x13
 2315 0178 02       		.uleb128 0x2
 2316 0179 18       		.uleb128 0x18
 2317 017a 00       		.byte	0
 2318 017b 00       		.byte	0
 2319 017c 1F       		.uleb128 0x1f
 2320 017d 2E       		.uleb128 0x2e
 2321 017e 01       		.byte	0x1
 2322 017f 3F       		.uleb128 0x3f
 2323 0180 19       		.uleb128 0x19
 2324 0181 03       		.uleb128 0x3
 2325 0182 0E       		.uleb128 0xe
 2326 0183 3A       		.uleb128 0x3a
 2327 0184 0B       		.uleb128 0xb
 2328 0185 3B       		.uleb128 0x3b
 2329 0186 05       		.uleb128 0x5
 2330 0187 27       		.uleb128 0x27
 2331 0188 19       		.uleb128 0x19
 2332 0189 49       		.uleb128 0x49
 2333 018a 13       		.uleb128 0x13
ARM GAS  /var/tmp//ccGUFlqh.s 			page 42


 2334 018b 11       		.uleb128 0x11
 2335 018c 01       		.uleb128 0x1
 2336 018d 12       		.uleb128 0x12
 2337 018e 06       		.uleb128 0x6
 2338 018f 40       		.uleb128 0x40
 2339 0190 18       		.uleb128 0x18
 2340 0191 9742     		.uleb128 0x2117
 2341 0193 19       		.uleb128 0x19
 2342 0194 01       		.uleb128 0x1
 2343 0195 13       		.uleb128 0x13
 2344 0196 00       		.byte	0
 2345 0197 00       		.byte	0
 2346 0198 20       		.uleb128 0x20
 2347 0199 05       		.uleb128 0x5
 2348 019a 00       		.byte	0
 2349 019b 03       		.uleb128 0x3
 2350 019c 0E       		.uleb128 0xe
 2351 019d 3A       		.uleb128 0x3a
 2352 019e 0B       		.uleb128 0xb
 2353 019f 3B       		.uleb128 0x3b
 2354 01a0 05       		.uleb128 0x5
 2355 01a1 49       		.uleb128 0x49
 2356 01a2 13       		.uleb128 0x13
 2357 01a3 02       		.uleb128 0x2
 2358 01a4 17       		.uleb128 0x17
 2359 01a5 00       		.byte	0
 2360 01a6 00       		.byte	0
 2361 01a7 21       		.uleb128 0x21
 2362 01a8 34       		.uleb128 0x34
 2363 01a9 00       		.byte	0
 2364 01aa 03       		.uleb128 0x3
 2365 01ab 08       		.uleb128 0x8
 2366 01ac 3A       		.uleb128 0x3a
 2367 01ad 0B       		.uleb128 0xb
 2368 01ae 3B       		.uleb128 0x3b
 2369 01af 05       		.uleb128 0x5
 2370 01b0 49       		.uleb128 0x49
 2371 01b1 13       		.uleb128 0x13
 2372 01b2 02       		.uleb128 0x2
 2373 01b3 17       		.uleb128 0x17
 2374 01b4 00       		.byte	0
 2375 01b5 00       		.byte	0
 2376 01b6 22       		.uleb128 0x22
 2377 01b7 898201   		.uleb128 0x4109
 2378 01ba 01       		.byte	0x1
 2379 01bb 11       		.uleb128 0x11
 2380 01bc 01       		.uleb128 0x1
 2381 01bd 31       		.uleb128 0x31
 2382 01be 13       		.uleb128 0x13
 2383 01bf 01       		.uleb128 0x1
 2384 01c0 13       		.uleb128 0x13
 2385 01c1 00       		.byte	0
 2386 01c2 00       		.byte	0
 2387 01c3 23       		.uleb128 0x23
 2388 01c4 8A8201   		.uleb128 0x410a
 2389 01c7 00       		.byte	0
 2390 01c8 02       		.uleb128 0x2
ARM GAS  /var/tmp//ccGUFlqh.s 			page 43


 2391 01c9 18       		.uleb128 0x18
 2392 01ca 9142     		.uleb128 0x2111
 2393 01cc 18       		.uleb128 0x18
 2394 01cd 00       		.byte	0
 2395 01ce 00       		.byte	0
 2396 01cf 24       		.uleb128 0x24
 2397 01d0 898201   		.uleb128 0x4109
 2398 01d3 01       		.byte	0x1
 2399 01d4 11       		.uleb128 0x11
 2400 01d5 01       		.uleb128 0x1
 2401 01d6 31       		.uleb128 0x31
 2402 01d7 13       		.uleb128 0x13
 2403 01d8 00       		.byte	0
 2404 01d9 00       		.byte	0
 2405 01da 25       		.uleb128 0x25
 2406 01db 2E       		.uleb128 0x2e
 2407 01dc 01       		.byte	0x1
 2408 01dd 3F       		.uleb128 0x3f
 2409 01de 19       		.uleb128 0x19
 2410 01df 03       		.uleb128 0x3
 2411 01e0 0E       		.uleb128 0xe
 2412 01e1 3A       		.uleb128 0x3a
 2413 01e2 0B       		.uleb128 0xb
 2414 01e3 3B       		.uleb128 0x3b
 2415 01e4 0B       		.uleb128 0xb
 2416 01e5 27       		.uleb128 0x27
 2417 01e6 19       		.uleb128 0x19
 2418 01e7 11       		.uleb128 0x11
 2419 01e8 01       		.uleb128 0x1
 2420 01e9 12       		.uleb128 0x12
 2421 01ea 06       		.uleb128 0x6
 2422 01eb 40       		.uleb128 0x40
 2423 01ec 18       		.uleb128 0x18
 2424 01ed 9742     		.uleb128 0x2117
 2425 01ef 19       		.uleb128 0x19
 2426 01f0 01       		.uleb128 0x1
 2427 01f1 13       		.uleb128 0x13
 2428 01f2 00       		.byte	0
 2429 01f3 00       		.byte	0
 2430 01f4 26       		.uleb128 0x26
 2431 01f5 05       		.uleb128 0x5
 2432 01f6 00       		.byte	0
 2433 01f7 03       		.uleb128 0x3
 2434 01f8 08       		.uleb128 0x8
 2435 01f9 3A       		.uleb128 0x3a
 2436 01fa 0B       		.uleb128 0xb
 2437 01fb 3B       		.uleb128 0x3b
 2438 01fc 0B       		.uleb128 0xb
 2439 01fd 49       		.uleb128 0x49
 2440 01fe 13       		.uleb128 0x13
 2441 01ff 02       		.uleb128 0x2
 2442 0200 17       		.uleb128 0x17
 2443 0201 00       		.byte	0
 2444 0202 00       		.byte	0
 2445 0203 27       		.uleb128 0x27
 2446 0204 34       		.uleb128 0x34
 2447 0205 00       		.byte	0
ARM GAS  /var/tmp//ccGUFlqh.s 			page 44


 2448 0206 03       		.uleb128 0x3
 2449 0207 08       		.uleb128 0x8
 2450 0208 3A       		.uleb128 0x3a
 2451 0209 0B       		.uleb128 0xb
 2452 020a 3B       		.uleb128 0x3b
 2453 020b 0B       		.uleb128 0xb
 2454 020c 49       		.uleb128 0x49
 2455 020d 13       		.uleb128 0x13
 2456 020e 02       		.uleb128 0x2
 2457 020f 17       		.uleb128 0x17
 2458 0210 00       		.byte	0
 2459 0211 00       		.byte	0
 2460 0212 28       		.uleb128 0x28
 2461 0213 34       		.uleb128 0x34
 2462 0214 00       		.byte	0
 2463 0215 03       		.uleb128 0x3
 2464 0216 0E       		.uleb128 0xe
 2465 0217 3A       		.uleb128 0x3a
 2466 0218 0B       		.uleb128 0xb
 2467 0219 3B       		.uleb128 0x3b
 2468 021a 0B       		.uleb128 0xb
 2469 021b 49       		.uleb128 0x49
 2470 021c 13       		.uleb128 0x13
 2471 021d 02       		.uleb128 0x2
 2472 021e 17       		.uleb128 0x17
 2473 021f 00       		.byte	0
 2474 0220 00       		.byte	0
 2475 0221 29       		.uleb128 0x29
 2476 0222 34       		.uleb128 0x34
 2477 0223 00       		.byte	0
 2478 0224 03       		.uleb128 0x3
 2479 0225 0E       		.uleb128 0xe
 2480 0226 49       		.uleb128 0x49
 2481 0227 13       		.uleb128 0x13
 2482 0228 34       		.uleb128 0x34
 2483 0229 19       		.uleb128 0x19
 2484 022a 00       		.byte	0
 2485 022b 00       		.byte	0
 2486 022c 2A       		.uleb128 0x2a
 2487 022d 898201   		.uleb128 0x4109
 2488 0230 00       		.byte	0
 2489 0231 11       		.uleb128 0x11
 2490 0232 01       		.uleb128 0x1
 2491 0233 9542     		.uleb128 0x2115
 2492 0235 19       		.uleb128 0x19
 2493 0236 31       		.uleb128 0x31
 2494 0237 13       		.uleb128 0x13
 2495 0238 00       		.byte	0
 2496 0239 00       		.byte	0
 2497 023a 2B       		.uleb128 0x2b
 2498 023b 2E       		.uleb128 0x2e
 2499 023c 01       		.byte	0x1
 2500 023d 3F       		.uleb128 0x3f
 2501 023e 19       		.uleb128 0x19
 2502 023f 03       		.uleb128 0x3
 2503 0240 0E       		.uleb128 0xe
 2504 0241 3A       		.uleb128 0x3a
ARM GAS  /var/tmp//ccGUFlqh.s 			page 45


 2505 0242 0B       		.uleb128 0xb
 2506 0243 3B       		.uleb128 0x3b
 2507 0244 0B       		.uleb128 0xb
 2508 0245 27       		.uleb128 0x27
 2509 0246 19       		.uleb128 0x19
 2510 0247 49       		.uleb128 0x49
 2511 0248 13       		.uleb128 0x13
 2512 0249 11       		.uleb128 0x11
 2513 024a 01       		.uleb128 0x1
 2514 024b 12       		.uleb128 0x12
 2515 024c 06       		.uleb128 0x6
 2516 024d 40       		.uleb128 0x40
 2517 024e 18       		.uleb128 0x18
 2518 024f 9742     		.uleb128 0x2117
 2519 0251 19       		.uleb128 0x19
 2520 0252 01       		.uleb128 0x1
 2521 0253 13       		.uleb128 0x13
 2522 0254 00       		.byte	0
 2523 0255 00       		.byte	0
 2524 0256 2C       		.uleb128 0x2c
 2525 0257 05       		.uleb128 0x5
 2526 0258 00       		.byte	0
 2527 0259 03       		.uleb128 0x3
 2528 025a 0E       		.uleb128 0xe
 2529 025b 3A       		.uleb128 0x3a
 2530 025c 0B       		.uleb128 0xb
 2531 025d 3B       		.uleb128 0x3b
 2532 025e 0B       		.uleb128 0xb
 2533 025f 49       		.uleb128 0x49
 2534 0260 13       		.uleb128 0x13
 2535 0261 02       		.uleb128 0x2
 2536 0262 17       		.uleb128 0x17
 2537 0263 00       		.byte	0
 2538 0264 00       		.byte	0
 2539 0265 2D       		.uleb128 0x2d
 2540 0266 898201   		.uleb128 0x4109
 2541 0269 01       		.byte	0x1
 2542 026a 11       		.uleb128 0x11
 2543 026b 01       		.uleb128 0x1
 2544 026c 01       		.uleb128 0x1
 2545 026d 13       		.uleb128 0x13
 2546 026e 00       		.byte	0
 2547 026f 00       		.byte	0
 2548 0270 2E       		.uleb128 0x2e
 2549 0271 898201   		.uleb128 0x4109
 2550 0274 01       		.byte	0x1
 2551 0275 11       		.uleb128 0x11
 2552 0276 01       		.uleb128 0x1
 2553 0277 9542     		.uleb128 0x2115
 2554 0279 19       		.uleb128 0x19
 2555 027a 31       		.uleb128 0x31
 2556 027b 13       		.uleb128 0x13
 2557 027c 00       		.byte	0
 2558 027d 00       		.byte	0
 2559 027e 2F       		.uleb128 0x2f
 2560 027f 2E       		.uleb128 0x2e
 2561 0280 00       		.byte	0
ARM GAS  /var/tmp//ccGUFlqh.s 			page 46


 2562 0281 3F       		.uleb128 0x3f
 2563 0282 19       		.uleb128 0x19
 2564 0283 3C       		.uleb128 0x3c
 2565 0284 19       		.uleb128 0x19
 2566 0285 6E       		.uleb128 0x6e
 2567 0286 0E       		.uleb128 0xe
 2568 0287 03       		.uleb128 0x3
 2569 0288 0E       		.uleb128 0xe
 2570 0289 3A       		.uleb128 0x3a
 2571 028a 0B       		.uleb128 0xb
 2572 028b 3B       		.uleb128 0x3b
 2573 028c 0B       		.uleb128 0xb
 2574 028d 00       		.byte	0
 2575 028e 00       		.byte	0
 2576 028f 00       		.byte	0
 2577              		.section	.debug_loc,"",%progbits
 2578              	.Ldebug_loc0:
 2579              	.LLST13:
 2580 0000 00000000 		.4byte	.LVL40
 2581 0004 0A000000 		.4byte	.LVL41
 2582 0008 0100     		.2byte	0x1
 2583 000a 50       		.byte	0x50
 2584 000b 0A000000 		.4byte	.LVL41
 2585 000f 1E000000 		.4byte	.LVL43
 2586 0013 0100     		.2byte	0x1
 2587 0015 54       		.byte	0x54
 2588 0016 1E000000 		.4byte	.LVL43
 2589 001a 38000000 		.4byte	.LVL48
 2590 001e 0300     		.2byte	0x3
 2591 0020 75       		.byte	0x75
 2592 0021 70       		.sleb128 -16
 2593 0022 9F       		.byte	0x9f
 2594 0023 38000000 		.4byte	.LVL48
 2595 0027 3C000000 		.4byte	.LVL49
 2596 002b 0100     		.2byte	0x1
 2597 002d 54       		.byte	0x54
 2598 002e 3C000000 		.4byte	.LVL49
 2599 0032 44000000 		.4byte	.LFE223
 2600 0036 0300     		.2byte	0x3
 2601 0038 75       		.byte	0x75
 2602 0039 70       		.sleb128 -16
 2603 003a 9F       		.byte	0x9f
 2604 003b 00000000 		.4byte	0
 2605 003f 00000000 		.4byte	0
 2606              	.LLST14:
 2607 0043 00000000 		.4byte	.LVL40
 2608 0047 15000000 		.4byte	.LVL42-1
 2609 004b 0100     		.2byte	0x1
 2610 004d 51       		.byte	0x51
 2611 004e 15000000 		.4byte	.LVL42-1
 2612 0052 44000000 		.4byte	.LFE223
 2613 0056 0100     		.2byte	0x1
 2614 0058 56       		.byte	0x56
 2615 0059 00000000 		.4byte	0
 2616 005d 00000000 		.4byte	0
 2617              	.LLST15:
 2618 0061 16000000 		.4byte	.LVL42
ARM GAS  /var/tmp//ccGUFlqh.s 			page 47


 2619 0065 1E000000 		.4byte	.LVL43
 2620 0069 0300     		.2byte	0x3
 2621 006b 74       		.byte	0x74
 2622 006c 08       		.sleb128 8
 2623 006d 9F       		.byte	0x9f
 2624 006e 1E000000 		.4byte	.LVL43
 2625 0072 26000000 		.4byte	.LVL45
 2626 0076 0300     		.2byte	0x3
 2627 0078 75       		.byte	0x75
 2628 0079 78       		.sleb128 -8
 2629 007a 9F       		.byte	0x9f
 2630 007b 38000000 		.4byte	.LVL48
 2631 007f 3C000000 		.4byte	.LVL49
 2632 0083 0300     		.2byte	0x3
 2633 0085 74       		.byte	0x74
 2634 0086 08       		.sleb128 8
 2635 0087 9F       		.byte	0x9f
 2636 0088 3C000000 		.4byte	.LVL49
 2637 008c 44000000 		.4byte	.LFE223
 2638 0090 0300     		.2byte	0x3
 2639 0092 75       		.byte	0x75
 2640 0093 78       		.sleb128 -8
 2641 0094 9F       		.byte	0x9f
 2642 0095 00000000 		.4byte	0
 2643 0099 00000000 		.4byte	0
 2644              	.LLST16:
 2645 009d 16000000 		.4byte	.LVL42
 2646 00a1 1E000000 		.4byte	.LVL43
 2647 00a5 0200     		.2byte	0x2
 2648 00a7 30       		.byte	0x30
 2649 00a8 9F       		.byte	0x9f
 2650 00a9 1E000000 		.4byte	.LVL43
 2651 00ad 24000000 		.4byte	.LVL44
 2652 00b1 0100     		.2byte	0x1
 2653 00b3 54       		.byte	0x54
 2654 00b4 24000000 		.4byte	.LVL44
 2655 00b8 26000000 		.4byte	.LVL45
 2656 00bc 0300     		.2byte	0x3
 2657 00be 74       		.byte	0x74
 2658 00bf 7F       		.sleb128 -1
 2659 00c0 9F       		.byte	0x9f
 2660 00c1 26000000 		.4byte	.LVL45
 2661 00c5 2A000000 		.4byte	.LVL46
 2662 00c9 0100     		.2byte	0x1
 2663 00cb 54       		.byte	0x54
 2664 00cc 38000000 		.4byte	.LVL48
 2665 00d0 44000000 		.4byte	.LFE223
 2666 00d4 0200     		.2byte	0x2
 2667 00d6 30       		.byte	0x30
 2668 00d7 9F       		.byte	0x9f
 2669 00d8 00000000 		.4byte	0
 2670 00dc 00000000 		.4byte	0
 2671              	.LLST17:
 2672 00e0 16000000 		.4byte	.LVL42
 2673 00e4 1E000000 		.4byte	.LVL43
 2674 00e8 0200     		.2byte	0x2
 2675 00ea 30       		.byte	0x30
ARM GAS  /var/tmp//ccGUFlqh.s 			page 48


 2676 00eb 9F       		.byte	0x9f
 2677 00ec 1E000000 		.4byte	.LVL43
 2678 00f0 2A000000 		.4byte	.LVL46
 2679 00f4 0100     		.2byte	0x1
 2680 00f6 52       		.byte	0x52
 2681 00f7 38000000 		.4byte	.LVL48
 2682 00fb 44000000 		.4byte	.LFE223
 2683 00ff 0200     		.2byte	0x2
 2684 0101 30       		.byte	0x30
 2685 0102 9F       		.byte	0x9f
 2686 0103 00000000 		.4byte	0
 2687 0107 00000000 		.4byte	0
 2688              	.LLST9:
 2689 010b 00000000 		.4byte	.LVL27
 2690 010f 14000000 		.4byte	.LVL30
 2691 0113 0100     		.2byte	0x1
 2692 0115 50       		.byte	0x50
 2693 0116 14000000 		.4byte	.LVL30
 2694 011a 50000000 		.4byte	.LVL36
 2695 011e 0100     		.2byte	0x1
 2696 0120 56       		.byte	0x56
 2697 0121 50000000 		.4byte	.LVL36
 2698 0125 54000000 		.4byte	.LVL37
 2699 0129 0400     		.2byte	0x4
 2700 012b F3       		.byte	0xf3
 2701 012c 01       		.uleb128 0x1
 2702 012d 50       		.byte	0x50
 2703 012e 9F       		.byte	0x9f
 2704 012f 54000000 		.4byte	.LVL37
 2705 0133 88000000 		.4byte	.LVL38
 2706 0137 0100     		.2byte	0x1
 2707 0139 56       		.byte	0x56
 2708 013a 88000000 		.4byte	.LVL38
 2709 013e 8C000000 		.4byte	.LFE222
 2710 0142 0400     		.2byte	0x4
 2711 0144 F3       		.byte	0xf3
 2712 0145 01       		.uleb128 0x1
 2713 0146 50       		.byte	0x50
 2714 0147 9F       		.byte	0x9f
 2715 0148 00000000 		.4byte	0
 2716 014c 00000000 		.4byte	0
 2717              	.LLST10:
 2718 0150 12000000 		.4byte	.LVL29
 2719 0154 1A000000 		.4byte	.LVL32
 2720 0158 0100     		.2byte	0x1
 2721 015a 55       		.byte	0x55
 2722 015b 1A000000 		.4byte	.LVL32
 2723 015f 2A000000 		.4byte	.LVL33
 2724 0163 0200     		.2byte	0x2
 2725 0165 73       		.byte	0x73
 2726 0166 00       		.sleb128 0
 2727 0167 2A000000 		.4byte	.LVL33
 2728 016b 2E000000 		.4byte	.LVL34
 2729 016f 0200     		.2byte	0x2
 2730 0171 72       		.byte	0x72
 2731 0172 00       		.sleb128 0
 2732 0173 2E000000 		.4byte	.LVL34
ARM GAS  /var/tmp//ccGUFlqh.s 			page 49


 2733 0177 32000000 		.4byte	.LVL35
 2734 017b 0200     		.2byte	0x2
 2735 017d 73       		.byte	0x73
 2736 017e 00       		.sleb128 0
 2737 017f 00000000 		.4byte	0
 2738 0183 00000000 		.4byte	0
 2739              	.LLST11:
 2740 0187 10000000 		.4byte	.LVL28
 2741 018b 50000000 		.4byte	.LVL36
 2742 018f 0100     		.2byte	0x1
 2743 0191 54       		.byte	0x54
 2744 0192 50000000 		.4byte	.LVL36
 2745 0196 54000000 		.4byte	.LVL37
 2746 019a 0600     		.2byte	0x6
 2747 019c F3       		.byte	0xf3
 2748 019d 01       		.uleb128 0x1
 2749 019e 50       		.byte	0x50
 2750 019f 38       		.byte	0x38
 2751 01a0 1C       		.byte	0x1c
 2752 01a1 9F       		.byte	0x9f
 2753 01a2 54000000 		.4byte	.LVL37
 2754 01a6 88000000 		.4byte	.LVL38
 2755 01aa 0100     		.2byte	0x1
 2756 01ac 54       		.byte	0x54
 2757 01ad 88000000 		.4byte	.LVL38
 2758 01b1 8C000000 		.4byte	.LFE222
 2759 01b5 0600     		.2byte	0x6
 2760 01b7 F3       		.byte	0xf3
 2761 01b8 01       		.uleb128 0x1
 2762 01b9 50       		.byte	0x50
 2763 01ba 38       		.byte	0x38
 2764 01bb 1C       		.byte	0x1c
 2765 01bc 9F       		.byte	0x9f
 2766 01bd 00000000 		.4byte	0
 2767 01c1 00000000 		.4byte	0
 2768              	.LLST12:
 2769 01c5 10000000 		.4byte	.LVL28
 2770 01c9 12000000 		.4byte	.LVL29
 2771 01cd 0100     		.2byte	0x1
 2772 01cf 55       		.byte	0x55
 2773 01d0 12000000 		.4byte	.LVL29
 2774 01d4 17000000 		.4byte	.LVL31-1
 2775 01d8 0200     		.2byte	0x2
 2776 01da 74       		.byte	0x74
 2777 01db 00       		.sleb128 0
 2778 01dc 17000000 		.4byte	.LVL31-1
 2779 01e0 50000000 		.4byte	.LVL36
 2780 01e4 0300     		.2byte	0x3
 2781 01e6 75       		.byte	0x75
 2782 01e7 78       		.sleb128 -8
 2783 01e8 9F       		.byte	0x9f
 2784 01e9 50000000 		.4byte	.LVL36
 2785 01ed 53000000 		.4byte	.LVL37-1
 2786 01f1 0300     		.2byte	0x3
 2787 01f3 70       		.byte	0x70
 2788 01f4 70       		.sleb128 -16
 2789 01f5 9F       		.byte	0x9f
ARM GAS  /var/tmp//ccGUFlqh.s 			page 50


 2790 01f6 54000000 		.4byte	.LVL37
 2791 01fa 88000000 		.4byte	.LVL38
 2792 01fe 0300     		.2byte	0x3
 2793 0200 75       		.byte	0x75
 2794 0201 78       		.sleb128 -8
 2795 0202 9F       		.byte	0x9f
 2796 0203 88000000 		.4byte	.LVL38
 2797 0207 8B000000 		.4byte	.LVL39-1
 2798 020b 0300     		.2byte	0x3
 2799 020d 70       		.byte	0x70
 2800 020e 70       		.sleb128 -16
 2801 020f 9F       		.byte	0x9f
 2802 0210 00000000 		.4byte	0
 2803 0214 00000000 		.4byte	0
 2804              	.LLST4:
 2805 0218 00000000 		.4byte	.LVL5
 2806 021c 0A000000 		.4byte	.LVL6
 2807 0220 0100     		.2byte	0x1
 2808 0222 50       		.byte	0x50
 2809 0223 0A000000 		.4byte	.LVL6
 2810 0227 88000000 		.4byte	.LFE221
 2811 022b 0100     		.2byte	0x1
 2812 022d 56       		.byte	0x56
 2813 022e 00000000 		.4byte	0
 2814 0232 00000000 		.4byte	0
 2815              	.LLST5:
 2816 0236 00000000 		.4byte	.LVL5
 2817 023a 10000000 		.4byte	.LVL7
 2818 023e 0100     		.2byte	0x1
 2819 0240 51       		.byte	0x51
 2820 0241 10000000 		.4byte	.LVL7
 2821 0245 16000000 		.4byte	.LVL8
 2822 0249 0300     		.2byte	0x3
 2823 024b 71       		.byte	0x71
 2824 024c 79       		.sleb128 -7
 2825 024d 9F       		.byte	0x9f
 2826 024e 16000000 		.4byte	.LVL8
 2827 0252 88000000 		.4byte	.LFE221
 2828 0256 0100     		.2byte	0x1
 2829 0258 55       		.byte	0x55
 2830 0259 00000000 		.4byte	0
 2831 025d 00000000 		.4byte	0
 2832              	.LLST6:
 2833 0261 1A000000 		.4byte	.LVL9
 2834 0265 48000000 		.4byte	.LVL17
 2835 0269 0100     		.2byte	0x1
 2836 026b 54       		.byte	0x54
 2837 026c 4C000000 		.4byte	.LVL18
 2838 0270 5A000000 		.4byte	.LVL19
 2839 0274 0100     		.2byte	0x1
 2840 0276 54       		.byte	0x54
 2841 0277 68000000 		.4byte	.LVL23
 2842 027b 80000000 		.4byte	.LVL26
 2843 027f 0100     		.2byte	0x1
 2844 0281 54       		.byte	0x54
 2845 0282 00000000 		.4byte	0
 2846 0286 00000000 		.4byte	0
ARM GAS  /var/tmp//ccGUFlqh.s 			page 51


 2847              	.LLST7:
 2848 028a 20000000 		.4byte	.LVL11
 2849 028e 28000000 		.4byte	.LVL12
 2850 0292 0100     		.2byte	0x1
 2851 0294 50       		.byte	0x50
 2852 0295 2A000000 		.4byte	.LVL13
 2853 0299 30000000 		.4byte	.LVL14
 2854 029d 0100     		.2byte	0x1
 2855 029f 50       		.byte	0x50
 2856 02a0 30000000 		.4byte	.LVL14
 2857 02a4 33000000 		.4byte	.LVL15-1
 2858 02a8 0200     		.2byte	0x2
 2859 02aa 74       		.byte	0x74
 2860 02ab 00       		.sleb128 0
 2861 02ac 3E000000 		.4byte	.LVL16
 2862 02b0 48000000 		.4byte	.LVL17
 2863 02b4 0100     		.2byte	0x1
 2864 02b6 50       		.byte	0x50
 2865 02b7 4C000000 		.4byte	.LVL18
 2866 02bb 5C000000 		.4byte	.LVL20
 2867 02bf 0100     		.2byte	0x1
 2868 02c1 50       		.byte	0x50
 2869 02c2 5C000000 		.4byte	.LVL20
 2870 02c6 60000000 		.4byte	.LVL21
 2871 02ca 0100     		.2byte	0x1
 2872 02cc 54       		.byte	0x54
 2873 02cd 60000000 		.4byte	.LVL21
 2874 02d1 68000000 		.4byte	.LVL23
 2875 02d5 0300     		.2byte	0x3
 2876 02d7 74       		.byte	0x74
 2877 02d8 78       		.sleb128 -8
 2878 02d9 9F       		.byte	0x9f
 2879 02da 68000000 		.4byte	.LVL23
 2880 02de 7E000000 		.4byte	.LVL25
 2881 02e2 0100     		.2byte	0x1
 2882 02e4 50       		.byte	0x50
 2883 02e5 00000000 		.4byte	0
 2884 02e9 00000000 		.4byte	0
 2885              	.LLST8:
 2886 02ed 6C000000 		.4byte	.LVL24
 2887 02f1 7E000000 		.4byte	.LVL25
 2888 02f5 0100     		.2byte	0x1
 2889 02f7 51       		.byte	0x51
 2890 02f8 00000000 		.4byte	0
 2891 02fc 00000000 		.4byte	0
 2892              	.LLST0:
 2893 0300 00000000 		.4byte	.LVL1
 2894 0304 0C000000 		.4byte	.LVL3
 2895 0308 0100     		.2byte	0x1
 2896 030a 50       		.byte	0x50
 2897 030b 0C000000 		.4byte	.LVL3
 2898 030f 13000000 		.4byte	.LVL4-1
 2899 0313 0300     		.2byte	0x3
 2900 0315 70       		.byte	0x70
 2901 0316 70       		.sleb128 -16
 2902 0317 9F       		.byte	0x9f
 2903 0318 13000000 		.4byte	.LVL4-1
ARM GAS  /var/tmp//ccGUFlqh.s 			page 52


 2904 031c 14000000 		.4byte	.LFE220
 2905 0320 0400     		.2byte	0x4
 2906 0322 F3       		.byte	0xf3
 2907 0323 01       		.uleb128 0x1
 2908 0324 50       		.byte	0x50
 2909 0325 9F       		.byte	0x9f
 2910 0326 00000000 		.4byte	0
 2911 032a 00000000 		.4byte	0
 2912              	.LLST1:
 2913 032e 00000000 		.4byte	.LVL1
 2914 0332 13000000 		.4byte	.LVL4-1
 2915 0336 0100     		.2byte	0x1
 2916 0338 51       		.byte	0x51
 2917 0339 13000000 		.4byte	.LVL4-1
 2918 033d 14000000 		.4byte	.LFE220
 2919 0341 0400     		.2byte	0x4
 2920 0343 F3       		.byte	0xf3
 2921 0344 01       		.uleb128 0x1
 2922 0345 51       		.byte	0x51
 2923 0346 9F       		.byte	0x9f
 2924 0347 00000000 		.4byte	0
 2925 034b 00000000 		.4byte	0
 2926              	.LLST2:
 2927 034f 00000000 		.4byte	.LVL1
 2928 0353 04000000 		.4byte	.LVL2
 2929 0357 0100     		.2byte	0x1
 2930 0359 52       		.byte	0x52
 2931 035a 04000000 		.4byte	.LVL2
 2932 035e 13000000 		.4byte	.LVL4-1
 2933 0362 0300     		.2byte	0x3
 2934 0364 72       		.byte	0x72
 2935 0365 08       		.sleb128 8
 2936 0366 9F       		.byte	0x9f
 2937 0367 13000000 		.4byte	.LVL4-1
 2938 036b 14000000 		.4byte	.LFE220
 2939 036f 0400     		.2byte	0x4
 2940 0371 F3       		.byte	0xf3
 2941 0372 01       		.uleb128 0x1
 2942 0373 52       		.byte	0x52
 2943 0374 9F       		.byte	0x9f
 2944 0375 00000000 		.4byte	0
 2945 0379 00000000 		.4byte	0
 2946              	.LLST3:
 2947 037d 00000000 		.4byte	.LVL1
 2948 0381 13000000 		.4byte	.LVL4-1
 2949 0385 0100     		.2byte	0x1
 2950 0387 51       		.byte	0x51
 2951 0388 13000000 		.4byte	.LVL4-1
 2952 038c 14000000 		.4byte	.LFE220
 2953 0390 0400     		.2byte	0x4
 2954 0392 F3       		.byte	0xf3
 2955 0393 01       		.uleb128 0x1
 2956 0394 51       		.byte	0x51
 2957 0395 9F       		.byte	0x9f
 2958 0396 00000000 		.4byte	0
 2959 039a 00000000 		.4byte	0
 2960              		.section	.debug_aranges,"",%progbits
ARM GAS  /var/tmp//ccGUFlqh.s 			page 53


 2961 0000 3C000000 		.4byte	0x3c
 2962 0004 0200     		.2byte	0x2
 2963 0006 00000000 		.4byte	.Ldebug_info0
 2964 000a 04       		.byte	0x4
 2965 000b 00       		.byte	0
 2966 000c 0000     		.2byte	0
 2967 000e 0000     		.2byte	0
 2968 0010 00000000 		.4byte	.LFB219
 2969 0014 1C000000 		.4byte	.LFE219-.LFB219
 2970 0018 00000000 		.4byte	.LFB220
 2971 001c 14000000 		.4byte	.LFE220-.LFB220
 2972 0020 00000000 		.4byte	.LFB221
 2973 0024 88000000 		.4byte	.LFE221-.LFB221
 2974 0028 00000000 		.4byte	.LFB222
 2975 002c 8C000000 		.4byte	.LFE222-.LFB222
 2976 0030 00000000 		.4byte	.LFB223
 2977 0034 44000000 		.4byte	.LFE223-.LFB223
 2978 0038 00000000 		.4byte	0
 2979 003c 00000000 		.4byte	0
 2980              		.section	.debug_ranges,"",%progbits
 2981              	.Ldebug_ranges0:
 2982 0000 00000000 		.4byte	.LFB219
 2983 0004 1C000000 		.4byte	.LFE219
 2984 0008 00000000 		.4byte	.LFB220
 2985 000c 14000000 		.4byte	.LFE220
 2986 0010 00000000 		.4byte	.LFB221
 2987 0014 88000000 		.4byte	.LFE221
 2988 0018 00000000 		.4byte	.LFB222
 2989 001c 8C000000 		.4byte	.LFE222
 2990 0020 00000000 		.4byte	.LFB223
 2991 0024 44000000 		.4byte	.LFE223
 2992 0028 00000000 		.4byte	0
 2993 002c 00000000 		.4byte	0
 2994              		.section	.debug_line,"",%progbits
 2995              	.Ldebug_line0:
 2996 0000 9E030000 		.section	.debug_str,"MS",%progbits,1
 2996      0200C302 
 2996      00000201 
 2996      FB0E0D00 
 2996      01010101 
 2997              	.LASF51:
 2998 0000 74687265 		.ascii	"threads_list_t\000"
 2998      6164735F 
 2998      6C697374 
 2998      5F7400
 2999              	.LASF56:
 3000 000f 72656164 		.ascii	"ready_list_t\000"
 3000      795F6C69 
 3000      73745F74 
 3000      00
 3001              	.LASF2:
 3002 001c 73697A65 		.ascii	"size_t\000"
 3002      5F7400
 3003              	.LASF135:
 3004 0023 6E657874 		.ascii	"next\000"
 3004      00
 3005              	.LASF93:
ARM GAS  /var/tmp//ccGUFlqh.s 			page 54


 3006 0028 7264796D 		.ascii	"rdymsg\000"
 3006      736700
 3007              	.LASF19:
 3008 002f 75696E74 		.ascii	"uint64_t\000"
 3008      36345F74 
 3008      00
 3009              	.LASF3:
 3010 0038 5F5F7569 		.ascii	"__uint8_t\000"
 3010      6E74385F 
 3010      7400
 3011              	.LASF90:
 3012 0042 706F7274 		.ascii	"port_intctx\000"
 3012      5F696E74 
 3012      63747800 
 3013              	.LASF75:
 3014 004e 73797374 		.ascii	"system_debug_t\000"
 3014      656D5F64 
 3014      65627567 
 3014      5F7400
 3015              	.LASF129:
 3016 005d 6D656D67 		.ascii	"memgetfunc_t\000"
 3016      65746675 
 3016      6E635F74 
 3016      00
 3017              	.LASF14:
 3018 006a 6C6F6E67 		.ascii	"long long unsigned int\000"
 3018      206C6F6E 
 3018      6720756E 
 3018      7369676E 
 3018      65642069 
 3019              	.LASF114:
 3020 0081 63685F74 		.ascii	"ch_threadsize\000"
 3020      68726561 
 3020      6473697A 
 3020      6500
 3021              	.LASF94:
 3022 008f 65786974 		.ascii	"exitcode\000"
 3022      636F6465 
 3022      00
 3023              	.LASF133:
 3024 0098 685F6672 		.ascii	"h_free\000"
 3024      656500
 3025              	.LASF72:
 3026 009f 76697274 		.ascii	"virtual_timers_list_t\000"
 3026      75616C5F 
 3026      74696D65 
 3026      72735F6C 
 3026      6973745F 
 3027              	.LASF85:
 3028 00b5 49544D5F 		.ascii	"ITM_RxBuffer\000"
 3028      52784275 
 3028      66666572 
 3028      00
 3029              	.LASF139:
 3030 00c2 68656170 		.ascii	"heapp\000"
 3030      7000
 3031              	.LASF137:
ARM GAS  /var/tmp//ccGUFlqh.s 			page 55


 3032 00c8 616C6967 		.ascii	"align\000"
 3032      6E00
 3033              	.LASF55:
 3034 00ce 63685F74 		.ascii	"ch_threads_queue\000"
 3034      68726561 
 3034      64735F71 
 3034      75657565 
 3034      00
 3035              	.LASF33:
 3036 00df 705F7072 		.ascii	"p_prio\000"
 3036      696F00
 3037              	.LASF121:
 3038 00e6 63665F6F 		.ascii	"cf_off_state\000"
 3038      66665F73 
 3038      74617465 
 3038      00
 3039              	.LASF128:
 3040 00f3 6D757465 		.ascii	"mutex_t\000"
 3040      785F7400 
 3041              	.LASF149:
 3042 00fb 63684D74 		.ascii	"chMtxUnlock\000"
 3042      78556E6C 
 3042      6F636B00 
 3043              	.LASF1:
 3044 0107 7369676E 		.ascii	"signed char\000"
 3044      65642063 
 3044      68617200 
 3045              	.LASF134:
 3046 0113 685F6D74 		.ascii	"h_mtx\000"
 3046      7800
 3047              	.LASF120:
 3048 0119 63665F6F 		.ascii	"cf_off_stklimit\000"
 3048      66665F73 
 3048      746B6C69 
 3048      6D697400 
 3049              	.LASF122:
 3050 0129 63665F6F 		.ascii	"cf_off_flags\000"
 3050      66665F66 
 3050      6C616773 
 3050      00
 3051              	.LASF49:
 3052 0136 705F6D70 		.ascii	"p_mpool\000"
 3052      6F6F6C00 
 3053              	.LASF104:
 3054 013e 6D5F7175 		.ascii	"m_queue\000"
 3054      65756500 
 3055              	.LASF144:
 3056 0146 63684865 		.ascii	"chHeapFree\000"
 3056      61704672 
 3056      656500
 3057              	.LASF81:
 3058 0151 76746C69 		.ascii	"vtlist\000"
 3058      737400
 3059              	.LASF24:
 3060 0158 74736C69 		.ascii	"tslices_t\000"
 3060      6365735F 
 3060      7400
ARM GAS  /var/tmp//ccGUFlqh.s 			page 56


 3061              	.LASF96:
 3062 0162 77747472 		.ascii	"wttrp\000"
 3062      7000
 3063              	.LASF79:
 3064 0168 63685F73 		.ascii	"ch_system\000"
 3064      79737465 
 3064      6D00
 3065              	.LASF9:
 3066 0172 6C6F6E67 		.ascii	"long int\000"
 3066      20696E74 
 3066      00
 3067              	.LASF22:
 3068 017b 74737461 		.ascii	"tstate_t\000"
 3068      74655F74 
 3068      00
 3069              	.LASF130:
 3070 0184 6D656D6F 		.ascii	"memory_heap_t\000"
 3070      72795F68 
 3070      6561705F 
 3070      7400
 3071              	.LASF126:
 3072 0192 63686465 		.ascii	"chdebug_t\000"
 3072      6275675F 
 3072      7400
 3073              	.LASF35:
 3074 019c 705F6E65 		.ascii	"p_newer\000"
 3074      77657200 
 3075              	.LASF101:
 3076 01a4 735F7175 		.ascii	"s_queue\000"
 3076      65756500 
 3077              	.LASF61:
 3078 01ac 725F6E65 		.ascii	"r_newer\000"
 3078      77657200 
 3079              	.LASF87:
 3080 01b4 72656761 		.ascii	"regarm_t\000"
 3080      726D5F74 
 3080      00
 3081              	.LASF68:
 3082 01bd 76745F70 		.ascii	"vt_prev\000"
 3082      72657600 
 3083              	.LASF12:
 3084 01c5 6C6F6E67 		.ascii	"long long int\000"
 3084      206C6F6E 
 3084      6720696E 
 3084      7400
 3085              	.LASF147:
 3086 01d3 5F686561 		.ascii	"_heap_init\000"
 3086      705F696E 
 3086      697400
 3087              	.LASF83:
 3088 01de 69646C65 		.ascii	"idle_thread_wa\000"
 3088      5F746872 
 3088      6561645F 
 3088      776100
 3089              	.LASF28:
 3090 01ed 636E745F 		.ascii	"cnt_t\000"
 3090      7400
ARM GAS  /var/tmp//ccGUFlqh.s 			page 57


 3091              	.LASF0:
 3092 01f3 756E7369 		.ascii	"unsigned int\000"
 3092      676E6564 
 3092      20696E74 
 3092      00
 3093              	.LASF67:
 3094 0200 76745F6E 		.ascii	"vt_next\000"
 3094      65787400 
 3095              	.LASF16:
 3096 0208 75696E74 		.ascii	"uint16_t\000"
 3096      31365F74 
 3096      00
 3097              	.LASF86:
 3098 0211 53797374 		.ascii	"SystemCoreClock\000"
 3098      656D436F 
 3098      7265436C 
 3098      6F636B00 
 3099              	.LASF42:
 3100 0221 705F7469 		.ascii	"p_time\000"
 3100      6D6500
 3101              	.LASF97:
 3102 0228 77747365 		.ascii	"wtsemp\000"
 3102      6D7000
 3103              	.LASF118:
 3104 022f 63665F6F 		.ascii	"cf_off_older\000"
 3104      66665F6F 
 3104      6C646572 
 3104      00
 3105              	.LASF69:
 3106 023c 76745F64 		.ascii	"vt_delta\000"
 3106      656C7461 
 3106      00
 3107              	.LASF44:
 3108 0245 705F6D73 		.ascii	"p_msgqueue\000"
 3108      67717565 
 3108      756500
 3109              	.LASF127:
 3110 0250 63685F64 		.ascii	"ch_debug\000"
 3110      65627567 
 3110      00
 3111              	.LASF152:
 3112 0259 43686962 		.ascii	"ChibiOS_3.0.2/os/rt/src/chheap.c\000"
 3112      694F535F 
 3112      332E302E 
 3112      322F6F73 
 3112      2F72742F 
 3113              	.LASF102:
 3114 027a 735F636E 		.ascii	"s_cnt\000"
 3114      7400
 3115              	.LASF7:
 3116 0280 73686F72 		.ascii	"short unsigned int\000"
 3116      7420756E 
 3116      7369676E 
 3116      65642069 
 3116      6E7400
 3117              	.LASF52:
 3118 0293 63685F74 		.ascii	"ch_thread\000"
ARM GAS  /var/tmp//ccGUFlqh.s 			page 58


 3118      68726561 
 3118      6400
 3119              	.LASF82:
 3120 029d 6D61696E 		.ascii	"mainthread\000"
 3120      74687265 
 3120      616400
 3121              	.LASF26:
 3122 02a8 6D73675F 		.ascii	"msg_t\000"
 3122      7400
 3123              	.LASF153:
 3124 02ae 2F557365 		.ascii	"/Users/yanrudall/Documents/eBike/ebikeSystem\000"
 3124      72732F79 
 3124      616E7275 
 3124      64616C6C 
 3124      2F446F63 
 3125              	.LASF125:
 3126 02db 63665F6F 		.ascii	"cf_off_time\000"
 3126      66665F74 
 3126      696D6500 
 3127              	.LASF57:
 3128 02e7 63685F72 		.ascii	"ch_ready_list\000"
 3128      65616479 
 3128      5F6C6973 
 3128      7400
 3129              	.LASF27:
 3130 02f5 6576656E 		.ascii	"eventmask_t\000"
 3130      746D6173 
 3130      6B5F7400 
 3131              	.LASF8:
 3132 0301 5F5F696E 		.ascii	"__int32_t\000"
 3132      7433325F 
 3132      7400
 3133              	.LASF88:
 3134 030b 73746B61 		.ascii	"stkalign_t\000"
 3134      6C69676E 
 3134      5F7400
 3135              	.LASF145:
 3136 0316 63684865 		.ascii	"chHeapObjectInit\000"
 3136      61704F62 
 3136      6A656374 
 3136      496E6974 
 3136      00
 3137              	.LASF151:
 3138 0327 474E5520 		.ascii	"GNU C99 6.3.1 20170620 (release) [ARM/embedded-6-br"
 3138      43393920 
 3138      362E332E 
 3138      31203230 
 3138      31373036 
 3139 035a 616E6368 		.ascii	"anch revision 249437] -mcpu=cortex-m4 -mfloat-abi=h"
 3139      20726576 
 3139      6973696F 
 3139      6E203234 
 3139      39343337 
 3140 038d 61726420 		.ascii	"ard -mfpu=fpv4-sp-d16 -mno-thumb-interwork -mthumb "
 3140      2D6D6670 
 3140      753D6670 
 3140      76342D73 
ARM GAS  /var/tmp//ccGUFlqh.s 			page 59


 3140      702D6431 
 3141 03c0 2D676764 		.ascii	"-ggdb -O2 -std=gnu99 -fomit-frame-pointer -falign-f"
 3141      62202D4F 
 3141      32202D73 
 3141      74643D67 
 3141      6E753939 
 3142 03f3 756E6374 		.ascii	"unctions=16 -ffunction-sections -fdata-sections -fn"
 3142      696F6E73 
 3142      3D313620 
 3142      2D666675 
 3142      6E637469 
 3143 0426 6F2D636F 		.ascii	"o-common -fsingle-precision-constant\000"
 3143      6D6D6F6E 
 3143      202D6673 
 3143      696E676C 
 3143      652D7072 
 3144              	.LASF109:
 3145 044b 63685F7A 		.ascii	"ch_zero\000"
 3145      65726F00 
 3146              	.LASF123:
 3147 0453 63665F6F 		.ascii	"cf_off_refs\000"
 3147      66665F72 
 3147      65667300 
 3148              	.LASF43:
 3149 045f 705F7761 		.ascii	"p_waiting\000"
 3149      6974696E 
 3149      6700
 3150              	.LASF84:
 3151 0469 73697A65 		.ascii	"sizetype\000"
 3151      74797065 
 3151      00
 3152              	.LASF73:
 3153 0472 63685F76 		.ascii	"ch_virtual_timers_list\000"
 3153      69727475 
 3153      616C5F74 
 3153      696D6572 
 3153      735F6C69 
 3154              	.LASF113:
 3155 0489 63685F74 		.ascii	"ch_timesize\000"
 3155      696D6573 
 3155      697A6500 
 3156              	.LASF119:
 3157 0495 63665F6F 		.ascii	"cf_off_name\000"
 3157      66665F6E 
 3157      616D6500 
 3158              	.LASF148:
 3159 04a1 63684D74 		.ascii	"chMtxLock\000"
 3159      784C6F63 
 3159      6B00
 3160              	.LASF36:
 3161 04ab 705F6F6C 		.ascii	"p_older\000"
 3161      64657200 
 3162              	.LASF60:
 3163 04b3 725F6374 		.ascii	"r_ctx\000"
 3163      7800
 3164              	.LASF34:
 3165 04b9 705F6374 		.ascii	"p_ctx\000"
ARM GAS  /var/tmp//ccGUFlqh.s 			page 60


 3165      7800
 3166              	.LASF92:
 3167 04bf 746D5F63 		.ascii	"tm_calibration_t\000"
 3167      616C6962 
 3167      72617469 
 3167      6F6E5F74 
 3167      00
 3168              	.LASF63:
 3169 04d0 725F6375 		.ascii	"r_current\000"
 3169      7272656E 
 3169      7400
 3170              	.LASF62:
 3171 04da 725F6F6C 		.ascii	"r_older\000"
 3171      64657200 
 3172              	.LASF13:
 3173 04e2 5F5F7569 		.ascii	"__uint64_t\000"
 3173      6E743634 
 3173      5F7400
 3174              	.LASF23:
 3175 04ed 74726566 		.ascii	"trefs_t\000"
 3175      735F7400 
 3176              	.LASF112:
 3177 04f5 63685F70 		.ascii	"ch_ptrsize\000"
 3177      74727369 
 3177      7A6500
 3178              	.LASF65:
 3179 0500 76697274 		.ascii	"virtual_timer_t\000"
 3179      75616C5F 
 3179      74696D65 
 3179      725F7400 
 3180              	.LASF32:
 3181 0510 705F7072 		.ascii	"p_prev\000"
 3181      657600
 3182              	.LASF25:
 3183 0517 74707269 		.ascii	"tprio_t\000"
 3183      6F5F7400 
 3184              	.LASF150:
 3185 051f 63684D74 		.ascii	"chMtxObjectInit\000"
 3185      784F626A 
 3185      65637449 
 3185      6E697400 
 3186              	.LASF76:
 3187 052f 63685F73 		.ascii	"ch_system_debug\000"
 3187      79737465 
 3187      6D5F6465 
 3187      62756700 
 3188              	.LASF17:
 3189 053f 696E7433 		.ascii	"int32_t\000"
 3189      325F7400 
 3190              	.LASF4:
 3191 0547 756E7369 		.ascii	"unsigned char\000"
 3191      676E6564 
 3191      20636861 
 3191      7200
 3192              	.LASF154:
 3193 0555 68656170 		.ascii	"heap_header\000"
 3193      5F686561 
ARM GAS  /var/tmp//ccGUFlqh.s 			page 61


 3193      64657200 
 3194              	.LASF47:
 3195 0561 705F6D74 		.ascii	"p_mtxlist\000"
 3195      786C6973 
 3195      7400
 3196              	.LASF5:
 3197 056b 73686F72 		.ascii	"short int\000"
 3197      7420696E 
 3197      7400
 3198              	.LASF38:
 3199 0575 705F7374 		.ascii	"p_state\000"
 3199      61746500 
 3200              	.LASF41:
 3201 057d 705F7072 		.ascii	"p_preempt\000"
 3201      65656D70 
 3201      7400
 3202              	.LASF59:
 3203 0587 725F7072 		.ascii	"r_prio\000"
 3203      696F00
 3204              	.LASF99:
 3205 058e 65776D61 		.ascii	"ewmask\000"
 3205      736B00
 3206              	.LASF31:
 3207 0595 705F6E65 		.ascii	"p_next\000"
 3207      787400
 3208              	.LASF21:
 3209 059c 746D6F64 		.ascii	"tmode_t\000"
 3209      655F7400 
 3210              	.LASF124:
 3211 05a4 63665F6F 		.ascii	"cf_off_preempt\000"
 3211      66665F70 
 3211      7265656D 
 3211      707400
 3212              	.LASF39:
 3213 05b3 705F666C 		.ascii	"p_flags\000"
 3213      61677300 
 3214              	.LASF146:
 3215 05bb 5F5F6675 		.ascii	"__func__\000"
 3215      6E635F5F 
 3215      00
 3216              	.LASF54:
 3217 05c4 74687265 		.ascii	"threads_queue_t\000"
 3217      6164735F 
 3217      71756575 
 3217      655F7400 
 3218              	.LASF143:
 3219 05d4 63684865 		.ascii	"chHeapAlloc\000"
 3219      6170416C 
 3219      6C6F6300 
 3220              	.LASF117:
 3221 05e0 63665F6F 		.ascii	"cf_off_newer\000"
 3221      66665F6E 
 3221      65776572 
 3221      00
 3222              	.LASF100:
 3223 05ed 63685F73 		.ascii	"ch_semaphore\000"
 3223      656D6170 
ARM GAS  /var/tmp//ccGUFlqh.s 			page 62


 3223      686F7265 
 3223      00
 3224              	.LASF46:
 3225 05fa 705F6570 		.ascii	"p_epending\000"
 3225      656E6469 
 3225      6E6700
 3226              	.LASF18:
 3227 0605 75696E74 		.ascii	"uint32_t\000"
 3227      33325F74 
 3227      00
 3228              	.LASF115:
 3229 060e 63665F6F 		.ascii	"cf_off_prio\000"
 3229      66665F70 
 3229      72696F00 
 3230              	.LASF58:
 3231 061a 725F7175 		.ascii	"r_queue\000"
 3231      65756500 
 3232              	.LASF53:
 3233 0622 63685F74 		.ascii	"ch_threads_list\000"
 3233      68726561 
 3233      64735F6C 
 3233      69737400 
 3234              	.LASF110:
 3235 0632 63685F73 		.ascii	"ch_size\000"
 3235      697A6500 
 3236              	.LASF136:
 3237 063a 68656170 		.ascii	"heap\000"
 3237      00
 3238              	.LASF11:
 3239 063f 6C6F6E67 		.ascii	"long unsigned int\000"
 3239      20756E73 
 3239      69676E65 
 3239      6420696E 
 3239      7400
 3240              	.LASF141:
 3241 0651 64656661 		.ascii	"default_heap\000"
 3241      756C745F 
 3241      68656170 
 3241      00
 3242              	.LASF107:
 3243 065e 63686172 		.ascii	"char\000"
 3243      00
 3244              	.LASF98:
 3245 0663 77746D74 		.ascii	"wtmtxp\000"
 3245      787000
 3246              	.LASF45:
 3247 066a 705F6D73 		.ascii	"p_msg\000"
 3247      6700
 3248              	.LASF6:
 3249 0670 5F5F7569 		.ascii	"__uint16_t\000"
 3249      6E743136 
 3249      5F7400
 3250              	.LASF30:
 3251 067b 74687265 		.ascii	"thread_t\000"
 3251      61645F74 
 3251      00
 3252              	.LASF142:
ARM GAS  /var/tmp//ccGUFlqh.s 			page 63


 3253 0684 63684865 		.ascii	"chHeapStatus\000"
 3253      61705374 
 3253      61747573 
 3253      00
 3254              	.LASF106:
 3255 0691 6D5F6E65 		.ascii	"m_next\000"
 3255      787400
 3256              	.LASF29:
 3257 0698 73797374 		.ascii	"systime_t\000"
 3257      696D655F 
 3257      7400
 3258              	.LASF48:
 3259 06a2 705F7265 		.ascii	"p_realprio\000"
 3259      616C7072 
 3259      696F00
 3260              	.LASF64:
 3261 06ad 76746675 		.ascii	"vtfunc_t\000"
 3261      6E635F74 
 3261      00
 3262              	.LASF10:
 3263 06b6 5F5F7569 		.ascii	"__uint32_t\000"
 3263      6E743332 
 3263      5F7400
 3264              	.LASF77:
 3265 06c1 70616E69 		.ascii	"panic_msg\000"
 3265      635F6D73 
 3265      6700
 3266              	.LASF91:
 3267 06cb 6F666673 		.ascii	"offset\000"
 3267      657400
 3268              	.LASF89:
 3269 06d2 636F6E74 		.ascii	"context\000"
 3269      65787400 
 3270              	.LASF78:
 3271 06da 63685F73 		.ascii	"ch_system_t\000"
 3271      79737465 
 3271      6D5F7400 
 3272              	.LASF66:
 3273 06e6 63685F76 		.ascii	"ch_virtual_timer\000"
 3273      69727475 
 3273      616C5F74 
 3273      696D6572 
 3273      00
 3274              	.LASF20:
 3275 06f7 7274636E 		.ascii	"rtcnt_t\000"
 3275      745F7400 
 3276              	.LASF71:
 3277 06ff 76745F70 		.ascii	"vt_par\000"
 3277      617200
 3278              	.LASF116:
 3279 0706 63665F6F 		.ascii	"cf_off_ctx\000"
 3279      66665F63 
 3279      747800
 3280              	.LASF103:
 3281 0711 63685F6D 		.ascii	"ch_mutex\000"
 3281      75746578 
 3281      00
ARM GAS  /var/tmp//ccGUFlqh.s 			page 64


 3282              	.LASF40:
 3283 071a 705F7265 		.ascii	"p_refs\000"
 3283      667300
 3284              	.LASF80:
 3285 0721 726C6973 		.ascii	"rlist\000"
 3285      7400
 3286              	.LASF15:
 3287 0727 75696E74 		.ascii	"uint8_t\000"
 3287      385F7400 
 3288              	.LASF132:
 3289 072f 685F7072 		.ascii	"h_provider\000"
 3289      6F766964 
 3289      657200
 3290              	.LASF50:
 3291 073a 74687265 		.ascii	"thread_reference_t\000"
 3291      61645F72 
 3291      65666572 
 3291      656E6365 
 3291      5F7400
 3292              	.LASF95:
 3293 074d 77746F62 		.ascii	"wtobjp\000"
 3293      6A7000
 3294              	.LASF140:
 3295 0754 73697A65 		.ascii	"sizep\000"
 3295      7000
 3296              	.LASF37:
 3297 075a 705F6E61 		.ascii	"p_name\000"
 3297      6D6500
 3298              	.LASF138:
 3299 0761 73697A65 		.ascii	"size\000"
 3299      00
 3300              	.LASF74:
 3301 0766 76745F73 		.ascii	"vt_systime\000"
 3301      79737469 
 3301      6D6500
 3302              	.LASF111:
 3303 0771 63685F76 		.ascii	"ch_version\000"
 3303      65727369 
 3303      6F6E00
 3304              	.LASF105:
 3305 077c 6D5F6F77 		.ascii	"m_owner\000"
 3305      6E657200 
 3306              	.LASF108:
 3307 0784 63685F69 		.ascii	"ch_identifier\000"
 3307      64656E74 
 3307      69666965 
 3307      7200
 3308              	.LASF70:
 3309 0792 76745F66 		.ascii	"vt_func\000"
 3309      756E6300 
 3310              	.LASF131:
 3311 079a 6D656D6F 		.ascii	"memory_heap\000"
 3311      72795F68 
 3311      65617000 
 3312              		.ident	"GCC: (GNU Tools for ARM Embedded Processors 6-2017-q2-update) 6.3.1 20170620 (release) [AR
ARM GAS  /var/tmp//ccGUFlqh.s 			page 65


DEFINED SYMBOLS
                            *ABS*:0000000000000000 chheap.c
/var/tmp//ccGUFlqh.s:18     .text._heap_init:0000000000000000 $t
/var/tmp//ccGUFlqh.s:26     .text._heap_init:0000000000000000 _heap_init
/var/tmp//ccGUFlqh.s:51     .text._heap_init:0000000000000014 $d
/var/tmp//ccGUFlqh.s:57     .text.chHeapObjectInit:0000000000000000 $t
/var/tmp//ccGUFlqh.s:65     .text.chHeapObjectInit:0000000000000000 chHeapObjectInit
/var/tmp//ccGUFlqh.s:98     .text.chHeapAlloc:0000000000000000 $t
/var/tmp//ccGUFlqh.s:106    .text.chHeapAlloc:0000000000000000 chHeapAlloc
/var/tmp//ccGUFlqh.s:237    .text.chHeapAlloc:0000000000000084 $d
/var/tmp//ccGUFlqh.s:242    .text.chHeapFree:0000000000000000 $t
/var/tmp//ccGUFlqh.s:250    .text.chHeapFree:0000000000000000 chHeapFree
/var/tmp//ccGUFlqh.s:386    .text.chHeapStatus:0000000000000000 $t
/var/tmp//ccGUFlqh.s:394    .text.chHeapStatus:0000000000000000 chHeapStatus
/var/tmp//ccGUFlqh.s:466    .text.chHeapStatus:0000000000000040 $d
/var/tmp//ccGUFlqh.s:471    .bss.default_heap:0000000000000000 $d
/var/tmp//ccGUFlqh.s:475    .bss.default_heap:0000000000000000 default_heap
                     .debug_frame:0000000000000010 $d

UNDEFINED SYMBOLS
chMtxObjectInit
chCoreAlloc
chMtxLock
chMtxUnlock
