ARM GAS  /var/tmp//ccGUFlqh.s 			page 1


   1              		.cpu cortex-m4
   2              		.eabi_attribute 27, 1
   3              		.eabi_attribute 28, 1
   4              		.eabi_attribute 20, 1
   5              		.eabi_attribute 21, 1
   6              		.eabi_attribute 23, 3
   7              		.eabi_attribute 24, 1
   8              		.eabi_attribute 25, 1
   9              		.eabi_attribute 26, 1
  10              		.eabi_attribute 30, 2
  11              		.eabi_attribute 34, 1
  12              		.eabi_attribute 18, 4
  13              		.file	"chheap.c"
  14              		.text
  15              	.Ltext0:
  16              		.cfi_sections	.debug_frame
  17              		.section	.text._heap_init,"ax",%progbits
  18              		.align	1
  19              		.p2align 4,,15
  20              		.global	_heap_init
  21              		.syntax unified
  22              		.thumb
  23              		.thumb_func
  24              		.fpu fpv4-sp-d16
  25              		.type	_heap_init, %function
  26              	_heap_init:
  27              	.LFB219:
  28              		.file 1 "ChibiOS_3.0.2/os/rt/src/chheap.c"
  29              		.loc 1 91 0
  30              		.cfi_startproc
  31              		@ args = 0, pretend = 0, frame = 0
  32              		@ frame_needed = 0, uses_anonymous_args = 0
  33              		@ link register save eliminated.
  34              		.loc 1 93 0
  35 0000 044B     		ldr	r3, .L2
  36 0002 054A     		ldr	r2, .L2+4
  37 0004 1A60     		str	r2, [r3]
  38              		.loc 1 97 0
  39 0006 03F11000 		add	r0, r3, #16
  40              		.loc 1 94 0
  41 000a 0022     		movs	r2, #0
  42 000c 9A60     		str	r2, [r3, #8]
  43              		.loc 1 95 0
  44 000e DA60     		str	r2, [r3, #12]
  45              		.loc 1 97 0
  46 0010 FFF7FEBF 		b	chMtxObjectInit
  47              	.LVL0:
  48              	.L3:
  49              		.align	2
  50              	.L2:
  51 0014 00000000 		.word	.LANCHOR0
  52 0018 00000000 		.word	chCoreAlloc
  53              		.cfi_endproc
  54              	.LFE219:
  55              		.size	_heap_init, .-_heap_init
  56              		.section	.text.chHeapObjectInit,"ax",%progbits
  57              		.align	1
ARM GAS  /var/tmp//ccGUFlqh.s 			page 2


  58              		.p2align 4,,15
  59              		.global	chHeapObjectInit
  60              		.syntax unified
  61              		.thumb
  62              		.thumb_func
  63              		.fpu fpv4-sp-d16
  64              		.type	chHeapObjectInit, %function
  65              	chHeapObjectInit:
  66              	.LFB220:
  67              		.loc 1 114 0
  68              		.cfi_startproc
  69              		@ args = 0, pretend = 0, frame = 0
  70              		@ frame_needed = 0, uses_anonymous_args = 0
  71              		@ link register save eliminated.
  72              	.LVL1:
  73              		.loc 1 119 0
  74 0000 0023     		movs	r3, #0
  75              		.loc 1 123 0
  76 0002 083A     		subs	r2, r2, #8
  77              	.LVL2:
  78              		.loc 1 120 0
  79 0004 8160     		str	r1, [r0, #8]
  80              		.loc 1 119 0
  81 0006 0360     		str	r3, [r0]
  82              		.loc 1 121 0
  83 0008 C360     		str	r3, [r0, #12]
  84              		.loc 1 125 0
  85 000a 1030     		adds	r0, r0, #16
  86              	.LVL3:
  87              		.loc 1 123 0
  88 000c 4A60     		str	r2, [r1, #4]
  89              		.loc 1 122 0
  90 000e 0B60     		str	r3, [r1]
  91              		.loc 1 125 0
  92 0010 FFF7FEBF 		b	chMtxObjectInit
  93              	.LVL4:
  94              		.cfi_endproc
  95              	.LFE220:
  96              		.size	chHeapObjectInit, .-chHeapObjectInit
  97              		.section	.text.chHeapAlloc,"ax",%progbits
  98              		.align	1
  99              		.p2align 4,,15
 100              		.global	chHeapAlloc
 101              		.syntax unified
 102              		.thumb
 103              		.thumb_func
 104              		.fpu fpv4-sp-d16
 105              		.type	chHeapAlloc, %function
 106              	chHeapAlloc:
 107              	.LFB221:
 108              		.loc 1 147 0
 109              		.cfi_startproc
 110              		@ args = 0, pretend = 0, frame = 0
 111              		@ frame_needed = 0, uses_anonymous_args = 0
 112              	.LVL5:
 113 0000 F8B5     		push	{r3, r4, r5, r6, r7, lr}
 114              		.cfi_def_cfa_offset 24
ARM GAS  /var/tmp//ccGUFlqh.s 			page 3


 115              		.cfi_offset 3, -24
 116              		.cfi_offset 4, -20
 117              		.cfi_offset 5, -16
 118              		.cfi_offset 6, -12
 119              		.cfi_offset 7, -8
 120              		.cfi_offset 14, -4
 121              		.loc 1 151 0
 122 0002 204E     		ldr	r6, .L21
 123 0004 0028     		cmp	r0, #0
 124 0006 18BF     		it	ne
 125 0008 0646     		movne	r6, r0
 126              	.LVL6:
 127              		.loc 1 157 0
 128 000a 06F11007 		add	r7, r6, #16
 129              		.loc 1 154 0
 130 000e 0731     		adds	r1, r1, #7
 131              	.LVL7:
 132              		.loc 1 157 0
 133 0010 3846     		mov	r0, r7
 134              		.loc 1 154 0
 135 0012 21F00705 		bic	r5, r1, #7
 136              	.LVL8:
 137              		.loc 1 155 0
 138 0016 06F10804 		add	r4, r6, #8
 139              	.LVL9:
 140              		.loc 1 157 0
 141 001a FFF7FEFF 		bl	chMtxLock
 142              	.LVL10:
 143              		.loc 1 158 0
 144 001e 03E0     		b	.L7
 145              	.LVL11:
 146              	.L11:
 147              		.loc 1 160 0
 148 0020 4368     		ldr	r3, [r0, #4]
 149 0022 9D42     		cmp	r5, r3
 150 0024 12D9     		bls	.L20
 151 0026 0446     		mov	r4, r0
 152              	.LVL12:
 153              	.L7:
 154              		.loc 1 158 0
 155 0028 2068     		ldr	r0, [r4]
 156              	.LVL13:
 157 002a 0028     		cmp	r0, #0
 158 002c F8D1     		bne	.L11
 159              		.loc 1 186 0
 160 002e 3846     		mov	r0, r7
 161              	.LVL14:
 162 0030 FFF7FEFF 		bl	chMtxUnlock
 163              	.LVL15:
 164              		.loc 1 190 0
 165 0034 3368     		ldr	r3, [r6]
 166 0036 13B3     		cbz	r3, .L13
 167              		.loc 1 191 0
 168 0038 05F10800 		add	r0, r5, #8
 169 003c 9847     		blx	r3
 170              	.LVL16:
 171              		.loc 1 192 0
ARM GAS  /var/tmp//ccGUFlqh.s 			page 4


 172 003e F0B1     		cbz	r0, .L13
 173              		.loc 1 193 0
 174 0040 0660     		str	r6, [r0]
 175              		.loc 1 194 0
 176 0042 4560     		str	r5, [r0, #4]
 177              		.loc 1 195 0
 178 0044 00F10804 		add	r4, r0, #8
 179              	.LVL17:
 180              	.L5:
 181              		.loc 1 204 0
 182 0048 2046     		mov	r0, r4
 183 004a F8BD     		pop	{r3, r4, r5, r6, r7, pc}
 184              	.LVL18:
 185              	.L20:
 186              		.loc 1 161 0
 187 004c 05F10802 		add	r2, r5, #8
 188 0050 9342     		cmp	r3, r2
 189 0052 09D2     		bcs	.L8
 190              		.loc 1 165 0
 191 0054 0368     		ldr	r3, [r0]
 192 0056 2360     		str	r3, [r4]
 193              	.L9:
 194              		.loc 1 177 0
 195 0058 0446     		mov	r4, r0
 196              	.LVL19:
 197              		.loc 1 178 0
 198 005a 3846     		mov	r0, r7
 199              	.LVL20:
 200              		.loc 1 177 0
 201 005c 44F8086B 		str	r6, [r4], #8
 202              	.LVL21:
 203              		.loc 1 178 0
 204 0060 FFF7FEFF 		bl	chMtxUnlock
 205              	.LVL22:
 206              		.loc 1 204 0
 207 0064 2046     		mov	r0, r4
 208 0066 F8BD     		pop	{r3, r4, r5, r6, r7, pc}
 209              	.LVL23:
 210              	.L8:
 211              		.loc 1 173 0
 212 0068 5B1B     		subs	r3, r3, r5
 213              		.loc 1 170 0
 214 006a 8118     		adds	r1, r0, r2
 215              	.LVL24:
 216              		.loc 1 173 0
 217 006c A3F1080E 		sub	lr, r3, #8
 218              		.loc 1 172 0
 219 0070 0368     		ldr	r3, [r0]
 220 0072 8350     		str	r3, [r0, r2]
 221              		.loc 1 173 0
 222 0074 C1F804E0 		str	lr, [r1, #4]
 223              		.loc 1 174 0
 224 0078 2160     		str	r1, [r4]
 225              		.loc 1 175 0
 226 007a 4560     		str	r5, [r0, #4]
 227 007c ECE7     		b	.L9
 228              	.LVL25:
ARM GAS  /var/tmp//ccGUFlqh.s 			page 5


 229              	.L13:
 230              		.loc 1 203 0
 231 007e 0024     		movs	r4, #0
 232              	.LVL26:
 233 0080 E2E7     		b	.L5
 234              	.L22:
 235 0082 00BF     		.align	2
 236              	.L21:
 237 0084 00000000 		.word	.LANCHOR0
 238              		.cfi_endproc
 239              	.LFE221:
 240              		.size	chHeapAlloc, .-chHeapAlloc
 241              		.section	.text.chHeapFree,"ax",%progbits
 242              		.align	1
 243              		.p2align 4,,15
 244              		.global	chHeapFree
 245              		.syntax unified
 246              		.thumb
 247              		.thumb_func
 248              		.fpu fpv4-sp-d16
 249              		.type	chHeapFree, %function
 250              	chHeapFree:
 251              	.LFB222:
 252              		.loc 1 213 0
 253              		.cfi_startproc
 254              		@ args = 0, pretend = 0, frame = 0
 255              		@ frame_needed = 0, uses_anonymous_args = 0
 256              	.LVL27:
 257 0000 F8B5     		push	{r3, r4, r5, r6, r7, lr}
 258              		.cfi_def_cfa_offset 24
 259              		.cfi_offset 3, -24
 260              		.cfi_offset 4, -20
 261              		.cfi_offset 5, -16
 262              		.cfi_offset 6, -12
 263              		.cfi_offset 7, -8
 264              		.cfi_offset 14, -4
 265              		.loc 1 222 0
 266 0002 50F8085C 		ldr	r5, [r0, #-8]
 267              		.loc 1 225 0
 268 0006 05F11007 		add	r7, r5, #16
 269              		.loc 1 213 0
 270 000a 0646     		mov	r6, r0
 271              		.loc 1 220 0
 272 000c A0F10804 		sub	r4, r0, #8
 273              	.LVL28:
 274              		.loc 1 223 0
 275 0010 0835     		adds	r5, r5, #8
 276              	.LVL29:
 277              		.loc 1 225 0
 278 0012 3846     		mov	r0, r7
 279              	.LVL30:
 280 0014 FFF7FEFF 		bl	chMtxLock
 281              	.LVL31:
 282              		.loc 1 223 0
 283 0018 2B46     		mov	r3, r5
 284              	.LVL32:
 285              	.L30:
ARM GAS  /var/tmp//ccGUFlqh.s 			page 6


 286              		.loc 1 229 0
 287 001a AB42     		cmp	r3, r5
 288              		.loc 1 230 0
 289 001c 1A68     		ldr	r2, [r3]
 290              		.loc 1 229 0
 291 001e 01D0     		beq	.L24
 292              		.loc 1 229 0 is_stmt 0 discriminator 2
 293 0020 A342     		cmp	r3, r4
 294 0022 02D2     		bcs	.L27
 295              	.L24:
 296              		.loc 1 229 0 discriminator 3
 297 0024 1AB1     		cbz	r2, .L26
 298              		.loc 1 230 0 is_stmt 1
 299 0026 9442     		cmp	r4, r2
 300 0028 01D3     		bcc	.L26
 301              	.L27:
 302              	.LVL33:
 303              		.loc 1 247 0
 304 002a 1346     		mov	r3, r2
 305              		.loc 1 227 0
 306 002c F5E7     		b	.L30
 307              	.LVL34:
 308              	.L26:
 309              		.loc 1 232 0
 310 002e 46F8082C 		str	r2, [r6, #-8]
 311              	.LVL35:
 312              		.loc 1 233 0
 313 0032 1C60     		str	r4, [r3]
 314              		.loc 1 235 0
 315 0034 16E90500 		ldmdb	r6, {r0, r2}
 316 0038 B118     		adds	r1, r6, r2
 317 003a 8142     		cmp	r1, r0
 318 003c 0AD0     		beq	.L35
 319              		.loc 1 240 0
 320 003e 5968     		ldr	r1, [r3, #4]
 321 0040 01F10802 		add	r2, r1, #8
 322 0044 1A44     		add	r2, r2, r3
 323 0046 9442     		cmp	r4, r2
 324 0048 13D0     		beq	.L36
 325              	.L29:
 326              		.loc 1 249 0
 327 004a 3846     		mov	r0, r7
 328              		.loc 1 252 0
 329 004c BDE8F840 		pop	{r3, r4, r5, r6, r7, lr}
 330              		.cfi_remember_state
 331              		.cfi_restore 14
 332              		.cfi_restore 7
 333              		.cfi_restore 6
 334              		.cfi_restore 5
 335              		.cfi_restore 4
 336              		.cfi_restore 3
 337              		.cfi_def_cfa_offset 0
 338              	.LVL36:
 339              		.loc 1 249 0
 340 0050 FFF7FEBF 		b	chMtxUnlock
 341              	.LVL37:
 342              	.L35:
ARM GAS  /var/tmp//ccGUFlqh.s 			page 7


 343              		.cfi_restore_state
 344              		.loc 1 237 0
 345 0054 4968     		ldr	r1, [r1, #4]
 346 0056 02F10800 		add	r0, r2, #8
 347 005a 0144     		add	r1, r1, r0
 348 005c 46F8041C 		str	r1, [r6, #-4]
 349              		.loc 1 238 0
 350 0060 B258     		ldr	r2, [r6, r2]
 351 0062 46F8082C 		str	r2, [r6, #-8]
 352              		.loc 1 240 0
 353 0066 5968     		ldr	r1, [r3, #4]
 354 0068 01F10802 		add	r2, r1, #8
 355 006c 1A44     		add	r2, r2, r3
 356 006e 9442     		cmp	r4, r2
 357 0070 EBD1     		bne	.L29
 358              	.L36:
 359              		.loc 1 242 0
 360 0072 56F8042C 		ldr	r2, [r6, #-4]
 361 0076 0832     		adds	r2, r2, #8
 362 0078 1144     		add	r1, r1, r2
 363 007a 5960     		str	r1, [r3, #4]
 364              		.loc 1 243 0
 365 007c 56F8082C 		ldr	r2, [r6, #-8]
 366 0080 1A60     		str	r2, [r3]
 367              		.loc 1 249 0
 368 0082 3846     		mov	r0, r7
 369              		.loc 1 252 0
 370 0084 BDE8F840 		pop	{r3, r4, r5, r6, r7, lr}
 371              		.cfi_restore 3
 372              		.cfi_restore 4
 373              		.cfi_restore 5
 374              		.cfi_restore 6
 375              		.cfi_restore 7
 376              		.cfi_restore 14
 377              		.cfi_def_cfa_offset 0
 378              	.LVL38:
 379              		.loc 1 249 0
 380 0088 FFF7FEBF 		b	chMtxUnlock
 381              	.LVL39:
 382              		.cfi_endproc
 383              	.LFE222:
 384              		.size	chHeapFree, .-chHeapFree
 385              		.section	.text.chHeapStatus,"ax",%progbits
 386              		.align	1
 387              		.p2align 4,,15
 388              		.global	chHeapStatus
 389              		.syntax unified
 390              		.thumb
 391              		.thumb_func
 392              		.fpu fpv4-sp-d16
 393              		.type	chHeapStatus, %function
 394              	chHeapStatus:
 395              	.LFB223:
 396              		.loc 1 267 0
 397              		.cfi_startproc
 398              		@ args = 0, pretend = 0, frame = 0
 399              		@ frame_needed = 0, uses_anonymous_args = 0
ARM GAS  /var/tmp//ccGUFlqh.s 			page 8


 400              	.LVL40:
 401 0000 70B5     		push	{r4, r5, r6, lr}
 402              		.cfi_def_cfa_offset 16
 403              		.cfi_offset 4, -16
 404              		.cfi_offset 5, -12
 405              		.cfi_offset 6, -8
 406              		.cfi_offset 14, -4
 407              		.loc 1 272 0
 408 0002 0F4C     		ldr	r4, .L48
 409 0004 0028     		cmp	r0, #0
 410 0006 18BF     		it	ne
 411 0008 0446     		movne	r4, r0
 412              	.LVL41:
 413              		.loc 1 275 0
 414 000a 04F11005 		add	r5, r4, #16
 415 000e 2846     		mov	r0, r5
 416              		.loc 1 267 0
 417 0010 0E46     		mov	r6, r1
 418              		.loc 1 275 0
 419 0012 FFF7FEFF 		bl	chMtxLock
 420              	.LVL42:
 421              		.loc 1 279 0
 422 0016 A368     		ldr	r3, [r4, #8]
 423 0018 73B1     		cbz	r3, .L42
 424 001a 0022     		movs	r2, #0
 425 001c 1446     		mov	r4, r2
 426              	.LVL43:
 427              	.L40:
 428              		.loc 1 280 0
 429 001e 5868     		ldr	r0, [r3, #4]
 430              		.loc 1 279 0
 431 0020 1B68     		ldr	r3, [r3]
 432              		.loc 1 281 0
 433 0022 0134     		adds	r4, r4, #1
 434              	.LVL44:
 435              		.loc 1 280 0
 436 0024 0244     		add	r2, r2, r0
 437              	.LVL45:
 438              		.loc 1 279 0
 439 0026 002B     		cmp	r3, #0
 440 0028 F9D1     		bne	.L40
 441              	.LVL46:
 442              	.L39:
 443              		.loc 1 284 0
 444 002a 06B1     		cbz	r6, .L41
 445              		.loc 1 285 0
 446 002c 3260     		str	r2, [r6]
 447              	.L41:
 448              		.loc 1 287 0
 449 002e 2846     		mov	r0, r5
 450 0030 FFF7FEFF 		bl	chMtxUnlock
 451              	.LVL47:
 452              		.loc 1 290 0
 453 0034 2046     		mov	r0, r4
 454 0036 70BD     		pop	{r4, r5, r6, pc}
 455              	.LVL48:
 456              	.L42:
ARM GAS  /var/tmp//ccGUFlqh.s 			page 9


 457              		.loc 1 276 0
 458 0038 1A46     		mov	r2, r3
 459              		.loc 1 277 0
 460 003a 1C46     		mov	r4, r3
 461              	.LVL49:
 462 003c F5E7     		b	.L39
 463              	.L49:
 464 003e 00BF     		.align	2
 465              	.L48:
 466 0040 00000000 		.word	.LANCHOR0
 467              		.cfi_endproc
 468              	.LFE223:
 469              		.size	chHeapStatus, .-chHeapStatus
 470              		.section	.bss.default_heap,"aw",%nobits
 471              		.align	3
 472              		.set	.LANCHOR0,. + 0
 473              		.type	default_heap, %object
 474              		.size	default_heap, 32
 475              	default_heap:
 476 0000 00000000 		.space	32
 476      00000000 
 476      00000000 
 476      00000000 
 476      00000000 
 477              		.text
 478              	.Letext0:
 479              		.file 2 "/usr/local/gcc_arm/gcc-arm-none-eabi-6-2017-q2-update/lib/gcc/arm-none-eabi/6.3.1/include
 480              		.file 3 "/usr/local/gcc_arm/gcc-arm-none-eabi-6-2017-q2-update/arm-none-eabi/include/machine/_defa
 481              		.file 4 "/usr/local/gcc_arm/gcc-arm-none-eabi-6-2017-q2-update/arm-none-eabi/include/sys/_stdint.h
 482              		.file 5 "ChibiOS_3.0.2/os/rt/ports/ARMCMx/compilers/GCC/chtypes.h"
 483              		.file 6 "ChibiOS_3.0.2/os/rt/include/chsystypes.h"
 484              		.file 7 "ChibiOS_3.0.2/os/rt/include/chschd.h"
 485              		.file 8 "ChibiOS_3.0.2/os/ext/CMSIS/include/core_cm4.h"
 486              		.file 9 "ChibiOS_3.0.2/os/ext/CMSIS/ST/system_stm32f4xx.h"
 487              		.file 10 "ChibiOS_3.0.2/os/rt/ports/ARMCMx/chcore.h"
 488              		.file 11 "ChibiOS_3.0.2/os/rt/ports/ARMCMx/chcore_v7m.h"
 489              		.file 12 "ChibiOS_3.0.2/os/rt/include/chtm.h"
 490              		.file 13 "ChibiOS_3.0.2/os/rt/include/chsem.h"
 491              		.file 14 "ChibiOS_3.0.2/os/rt/include/chmtx.h"
 492              		.file 15 "ChibiOS_3.0.2/os/rt/include/chregistry.h"
 493              		.file 16 "ChibiOS_3.0.2/os/rt/include/chmemcore.h"
 494              		.file 17 "ChibiOS_3.0.2/os/rt/include/chheap.h"