ARM GAS  /var/tmp//ccEVCPFC.s 			page 1


   1              		.cpu cortex-m4
   2              		.eabi_attribute 27, 1
   3              		.eabi_attribute 28, 1
   4              		.eabi_attribute 20, 1
   5              		.eabi_attribute 21, 1
   6              		.eabi_attribute 23, 3
   7              		.eabi_attribute 24, 1
   8              		.eabi_attribute 25, 1
   9              		.eabi_attribute 26, 1
  10              		.eabi_attribute 30, 2
  11              		.eabi_attribute 34, 1
  12              		.eabi_attribute 18, 4
  13              		.file	"chmboxes.c"
  14              		.text
  15              	.Ltext0:
  16              		.cfi_sections	.debug_frame
  17              		.section	.text.chMBObjectInit,"ax",%progbits
  18              		.align	1
  19              		.p2align 4,,15
  20              		.global	chMBObjectInit
  21              		.syntax unified
  22              		.thumb
  23              		.thumb_func
  24              		.fpu fpv4-sp-d16
  25              		.type	chMBObjectInit, %function
  26              	chMBObjectInit:
  27              	.LFB219:
  28              		.file 1 "ChibiOS_3.0.2/os/rt/src/chmboxes.c"
  29              		.loc 1 86 0
  30              		.cfi_startproc
  31              		@ args = 0, pretend = 0, frame = 0
  32              		@ frame_needed = 0, uses_anonymous_args = 0
  33              	.LVL0:
  34 0000 10B5     		push	{r4, lr}
  35              		.cfi_def_cfa_offset 8
  36              		.cfi_offset 4, -8
  37              		.cfi_offset 14, -4
  38              		.loc 1 86 0
  39 0002 0B46     		mov	r3, r1
  40              		.loc 1 93 0
  41 0004 01EB8201 		add	r1, r1, r2, lsl #2
  42              	.LVL1:
  43 0008 4160     		str	r1, [r0, #4]
  44              		.loc 1 86 0
  45 000a 0446     		mov	r4, r0
  46              		.loc 1 90 0
  47 000c 0360     		str	r3, [r0]
  48              		.loc 1 91 0
  49 000e C360     		str	r3, [r0, #12]
  50              		.loc 1 92 0
  51 0010 8360     		str	r3, [r0, #8]
  52              		.loc 1 94 0
  53 0012 1146     		mov	r1, r2
  54 0014 1C30     		adds	r0, r0, #28
  55              	.LVL2:
  56 0016 FFF7FEFF 		bl	chSemObjectInit
  57              	.LVL3:
ARM GAS  /var/tmp//ccEVCPFC.s 			page 2


  58              		.loc 1 95 0
  59 001a 04F11000 		add	r0, r4, #16
  60 001e 0021     		movs	r1, #0
  61              		.loc 1 96 0
  62 0020 BDE81040 		pop	{r4, lr}
  63              		.cfi_restore 14
  64              		.cfi_restore 4
  65              		.cfi_def_cfa_offset 0
  66              	.LVL4:
  67              		.loc 1 95 0
  68 0024 FFF7FEBF 		b	chSemObjectInit
  69              	.LVL5:
  70              		.cfi_endproc
  71              	.LFE219:
  72              		.size	chMBObjectInit, .-chMBObjectInit
  73              		.section	.text.chMBResetI,"ax",%progbits
  74              		.align	1
  75              		.p2align 4,,15
  76              		.global	chMBResetI
  77              		.syntax unified
  78              		.thumb
  79              		.thumb_func
  80              		.fpu fpv4-sp-d16
  81              		.type	chMBResetI, %function
  82              	chMBResetI:
  83              	.LFB221:
  84              		.loc 1 124 0
  85              		.cfi_startproc
  86              		@ args = 0, pretend = 0, frame = 0
  87              		@ frame_needed = 0, uses_anonymous_args = 0
  88              	.LVL6:
  89 0000 10B5     		push	{r4, lr}
  90              		.cfi_def_cfa_offset 8
  91              		.cfi_offset 4, -8
  92              		.cfi_offset 14, -4
  93              		.loc 1 124 0
  94 0002 0446     		mov	r4, r0
  95              		.loc 1 131 0
  96 0004 1C30     		adds	r0, r0, #28
  97              	.LVL7:
  98              		.loc 1 129 0
  99 0006 2368     		ldr	r3, [r4]
 100              		.loc 1 131 0
 101 0008 6168     		ldr	r1, [r4, #4]
 102              		.loc 1 129 0
 103 000a A360     		str	r3, [r4, #8]
 104              		.loc 1 131 0
 105 000c C91A     		subs	r1, r1, r3
 106              		.loc 1 130 0
 107 000e E360     		str	r3, [r4, #12]
 108              		.loc 1 131 0
 109 0010 8910     		asrs	r1, r1, #2
 110 0012 FFF7FEFF 		bl	chSemResetI
 111              	.LVL8:
 112              		.loc 1 132 0
 113 0016 04F11000 		add	r0, r4, #16
 114 001a 0021     		movs	r1, #0
ARM GAS  /var/tmp//ccEVCPFC.s 			page 3


 115              		.loc 1 133 0
 116 001c BDE81040 		pop	{r4, lr}
 117              		.cfi_restore 14
 118              		.cfi_restore 4
 119              		.cfi_def_cfa_offset 0
 120              	.LVL9:
 121              		.loc 1 132 0
 122 0020 FFF7FEBF 		b	chSemResetI
 123              	.LVL10:
 124              		.cfi_endproc
 125              	.LFE221:
 126              		.size	chMBResetI, .-chMBResetI
 127              		.section	.text.chMBReset,"ax",%progbits
 128              		.align	1
 129              		.p2align 4,,15
 130              		.global	chMBReset
 131              		.syntax unified
 132              		.thumb
 133              		.thumb_func
 134              		.fpu fpv4-sp-d16
 135              		.type	chMBReset, %function
 136              	chMBReset:
 137              	.LFB220:
 138              		.loc 1 107 0
 139              		.cfi_startproc
 140              		@ args = 0, pretend = 0, frame = 0
 141              		@ frame_needed = 0, uses_anonymous_args = 0
 142              	.LVL11:
 143 0000 08B5     		push	{r3, lr}
 144              		.cfi_def_cfa_offset 8
 145              		.cfi_offset 3, -8
 146              		.cfi_offset 14, -4
 147              	.LBB72:
 148              	.LBB73:
 149              	.LBB74:
 150              	.LBB75:
 151              		.file 2 "ChibiOS_3.0.2/os/ext/CMSIS/include/core_cmFunc.h"
 152              		.loc 2 546 0
 153 0002 2023     		movs	r3, #32
 154              		.syntax unified
 155              	@ 546 "ChibiOS_3.0.2/os/ext/CMSIS/include/core_cmFunc.h" 1
 156 0004 83F31188 		MSR basepri, r3
 157              	@ 0 "" 2
 158              	.LVL12:
 159              		.thumb
 160              		.syntax unified
 161              	.LBE75:
 162              	.LBE74:
 163              	.LBE73:
 164              	.LBE72:
 165              		.loc 1 110 0
 166 0008 FFF7FEFF 		bl	chMBResetI
 167              	.LVL13:
 168              		.loc 1 111 0
 169 000c FFF7FEFF 		bl	chSchRescheduleS
 170              	.LVL14:
 171              	.LBB76:
ARM GAS  /var/tmp//ccEVCPFC.s 			page 4


 172              	.LBB77:
 173              	.LBB78:
 174              	.LBB79:
 175              	.LBB80:
 176              		.loc 2 546 0
 177 0010 0023     		movs	r3, #0
 178              		.syntax unified
 179              	@ 546 "ChibiOS_3.0.2/os/ext/CMSIS/include/core_cmFunc.h" 1
 180 0012 83F31188 		MSR basepri, r3
 181              	@ 0 "" 2
 182              	.LVL15:
 183              		.thumb
 184              		.syntax unified
 185 0016 08BD     		pop	{r3, pc}
 186              	.LBE80:
 187              	.LBE79:
 188              	.LBE78:
 189              	.LBE77:
 190              	.LBE76:
 191              		.cfi_endproc
 192              	.LFE220:
 193              		.size	chMBReset, .-chMBReset
 194              		.section	.text.chMBPost,"ax",%progbits
 195              		.align	1
 196              		.p2align 4,,15
 197              		.global	chMBPost
 198              		.syntax unified
 199              		.thumb
 200              		.thumb_func
 201              		.fpu fpv4-sp-d16
 202              		.type	chMBPost, %function
 203              	chMBPost:
 204              	.LFB222:
 205              		.loc 1 154 0
 206              		.cfi_startproc
 207              		@ args = 0, pretend = 0, frame = 0
 208              		@ frame_needed = 0, uses_anonymous_args = 0
 209              	.LVL16:
 210 0000 70B5     		push	{r4, r5, r6, lr}
 211              		.cfi_def_cfa_offset 16
 212              		.cfi_offset 4, -16
 213              		.cfi_offset 5, -12
 214              		.cfi_offset 6, -8
 215              		.cfi_offset 14, -4
 216              	.LBB94:
 217              	.LBB95:
 218              	.LBB96:
 219              	.LBB97:
 220              		.loc 2 546 0
 221 0002 2023     		movs	r3, #32
 222              	.LBE97:
 223              	.LBE96:
 224              	.LBE95:
 225              	.LBE94:
 226              		.loc 1 154 0
 227 0004 0446     		mov	r4, r0
 228 0006 0E46     		mov	r6, r1
ARM GAS  /var/tmp//ccEVCPFC.s 			page 5


 229              	.LVL17:
 230              	.LBB101:
 231              	.LBB100:
 232              	.LBB99:
 233              	.LBB98:
 234              		.loc 2 546 0
 235              		.syntax unified
 236              	@ 546 "ChibiOS_3.0.2/os/ext/CMSIS/include/core_cmFunc.h" 1
 237 0008 83F31188 		MSR basepri, r3
 238              	@ 0 "" 2
 239              	.LVL18:
 240              		.thumb
 241              		.syntax unified
 242              	.LBE98:
 243              	.LBE99:
 244              	.LBE100:
 245              	.LBE101:
 246              	.LBB102:
 247              	.LBB103:
 248              		.loc 1 189 0
 249 000c 1146     		mov	r1, r2
 250              	.LVL19:
 251 000e 1C30     		adds	r0, r0, #28
 252              	.LVL20:
 253 0010 FFF7FEFF 		bl	chSemWaitTimeoutS
 254              	.LVL21:
 255              		.loc 1 190 0
 256 0014 0546     		mov	r5, r0
 257 0016 78B9     		cbnz	r0, .L8
 258              	.LVL22:
 259              	.LBB104:
 260              	.LBB105:
 261              		.loc 1 191 0
 262 0018 A268     		ldr	r2, [r4, #8]
 263              		.loc 1 192 0
 264 001a 6168     		ldr	r1, [r4, #4]
 265              		.loc 1 191 0
 266 001c 131D     		adds	r3, r2, #4
 267              		.loc 1 192 0
 268 001e 8B42     		cmp	r3, r1
 269              		.loc 1 191 0
 270 0020 A360     		str	r3, [r4, #8]
 271              		.loc 1 193 0
 272 0022 28BF     		it	cs
 273 0024 2368     		ldrcs	r3, [r4]
 274              		.loc 1 191 0
 275 0026 1660     		str	r6, [r2]
 276              		.loc 1 195 0
 277 0028 04F11000 		add	r0, r4, #16
 278              	.LVL23:
 279              		.loc 1 193 0
 280 002c 28BF     		it	cs
 281 002e A360     		strcs	r3, [r4, #8]
 282              		.loc 1 195 0
 283 0030 FFF7FEFF 		bl	chSemSignalI
 284              	.LVL24:
 285              		.loc 1 196 0
ARM GAS  /var/tmp//ccEVCPFC.s 			page 6


 286 0034 FFF7FEFF 		bl	chSchRescheduleS
 287              	.LVL25:
 288              	.L8:
 289              	.LBE105:
 290              	.LBE104:
 291              	.LBE103:
 292              	.LBE102:
 293              	.LBB106:
 294              	.LBB107:
 295              	.LBB108:
 296              	.LBB109:
 297              	.LBB110:
 298              		.loc 2 546 0
 299 0038 0023     		movs	r3, #0
 300              		.syntax unified
 301              	@ 546 "ChibiOS_3.0.2/os/ext/CMSIS/include/core_cmFunc.h" 1
 302 003a 83F31188 		MSR basepri, r3
 303              	@ 0 "" 2
 304              	.LVL26:
 305              		.thumb
 306              		.syntax unified
 307              	.LBE110:
 308              	.LBE109:
 309              	.LBE108:
 310              	.LBE107:
 311              	.LBE106:
 312              		.loc 1 162 0
 313 003e 2846     		mov	r0, r5
 314 0040 70BD     		pop	{r4, r5, r6, pc}
 315              		.cfi_endproc
 316              	.LFE222:
 317              		.size	chMBPost, .-chMBPost
 318 0042 00BF     		.section	.text.chMBPostS,"ax",%progbits
 319              		.align	1
 320              		.p2align 4,,15
 321              		.global	chMBPostS
 322              		.syntax unified
 323              		.thumb
 324              		.thumb_func
 325              		.fpu fpv4-sp-d16
 326              		.type	chMBPostS, %function
 327              	chMBPostS:
 328              	.LFB223:
 329              		.loc 1 183 0
 330              		.cfi_startproc
 331              		@ args = 0, pretend = 0, frame = 0
 332              		@ frame_needed = 0, uses_anonymous_args = 0
 333              	.LVL27:
 334 0000 70B5     		push	{r4, r5, r6, lr}
 335              		.cfi_def_cfa_offset 16
 336              		.cfi_offset 4, -16
 337              		.cfi_offset 5, -12
 338              		.cfi_offset 6, -8
 339              		.cfi_offset 14, -4
 340              		.loc 1 183 0
 341 0002 0446     		mov	r4, r0
 342 0004 0E46     		mov	r6, r1
ARM GAS  /var/tmp//ccEVCPFC.s 			page 7


 343              		.loc 1 189 0
 344 0006 1C30     		adds	r0, r0, #28
 345              	.LVL28:
 346 0008 1146     		mov	r1, r2
 347              	.LVL29:
 348 000a FFF7FEFF 		bl	chSemWaitTimeoutS
 349              	.LVL30:
 350              		.loc 1 190 0
 351 000e 0546     		mov	r5, r0
 352 0010 78B9     		cbnz	r0, .L12
 353              	.LVL31:
 354              	.LBB113:
 355              	.LBB114:
 356              		.loc 1 191 0
 357 0012 A268     		ldr	r2, [r4, #8]
 358              		.loc 1 192 0
 359 0014 6168     		ldr	r1, [r4, #4]
 360              		.loc 1 191 0
 361 0016 131D     		adds	r3, r2, #4
 362              		.loc 1 192 0
 363 0018 8B42     		cmp	r3, r1
 364              		.loc 1 191 0
 365 001a A360     		str	r3, [r4, #8]
 366              		.loc 1 193 0
 367 001c 28BF     		it	cs
 368 001e 2368     		ldrcs	r3, [r4]
 369              		.loc 1 191 0
 370 0020 1660     		str	r6, [r2]
 371              		.loc 1 195 0
 372 0022 04F11000 		add	r0, r4, #16
 373              	.LVL32:
 374              		.loc 1 193 0
 375 0026 28BF     		it	cs
 376 0028 A360     		strcs	r3, [r4, #8]
 377              		.loc 1 195 0
 378 002a FFF7FEFF 		bl	chSemSignalI
 379              	.LVL33:
 380              		.loc 1 196 0
 381 002e FFF7FEFF 		bl	chSchRescheduleS
 382              	.LVL34:
 383              	.L12:
 384              	.LBE114:
 385              	.LBE113:
 386              		.loc 1 200 0
 387 0032 2846     		mov	r0, r5
 388 0034 70BD     		pop	{r4, r5, r6, pc}
 389              		.cfi_endproc
 390              	.LFE223:
 391              		.size	chMBPostS, .-chMBPostS
 392 0036 00BF     		.section	.text.chMBPostI,"ax",%progbits
 393              		.align	1
 394              		.p2align 4,,15
 395              		.global	chMBPostI
 396              		.syntax unified
 397              		.thumb
 398              		.thumb_func
 399              		.fpu fpv4-sp-d16
ARM GAS  /var/tmp//ccEVCPFC.s 			page 8


 400              		.type	chMBPostI, %function
 401              	chMBPostI:
 402              	.LFB224:
 403              		.loc 1 216 0
 404              		.cfi_startproc
 405              		@ args = 0, pretend = 0, frame = 0
 406              		@ frame_needed = 0, uses_anonymous_args = 0
 407              	.LVL35:
 408 0000 38B5     		push	{r3, r4, r5, lr}
 409              		.cfi_def_cfa_offset 16
 410              		.cfi_offset 3, -16
 411              		.cfi_offset 4, -12
 412              		.cfi_offset 5, -8
 413              		.cfi_offset 14, -4
 414 0002 436A     		ldr	r3, [r0, #36]
 415              	.LVL36:
 416              		.loc 1 221 0
 417 0004 002B     		cmp	r3, #0
 418 0006 12DD     		ble	.L19
 419              	.LVL37:
 420              		.loc 1 226 0
 421 0008 8468     		ldr	r4, [r0, #8]
 422              		.loc 1 227 0
 423 000a 4568     		ldr	r5, [r0, #4]
 424              		.loc 1 226 0
 425 000c 221D     		adds	r2, r4, #4
 426              	.LBB115:
 427              	.LBB116:
 428              		.file 3 "ChibiOS_3.0.2/os/rt/include/chsem.h"
 429              		.loc 3 122 0
 430 000e 013B     		subs	r3, r3, #1
 431              	.LBE116:
 432              	.LBE115:
 433              		.loc 1 227 0
 434 0010 AA42     		cmp	r2, r5
 435              	.LBB118:
 436              	.LBB117:
 437              		.loc 3 122 0
 438 0012 4362     		str	r3, [r0, #36]
 439              	.LBE117:
 440              	.LBE118:
 441              		.loc 1 228 0
 442 0014 28BF     		it	cs
 443 0016 0368     		ldrcs	r3, [r0]
 444              		.loc 1 226 0
 445 0018 8260     		str	r2, [r0, #8]
 446 001a 2160     		str	r1, [r4]
 447              		.loc 1 230 0
 448 001c 00F11000 		add	r0, r0, #16
 449              	.LVL38:
 450              		.loc 1 228 0
 451 0020 28BF     		it	cs
 452 0022 40F8083C 		strcs	r3, [r0, #-8]
 453              		.loc 1 230 0
 454 0026 FFF7FEFF 		bl	chSemSignalI
 455              	.LVL39:
 456              		.loc 1 232 0
ARM GAS  /var/tmp//ccEVCPFC.s 			page 9


 457 002a 0020     		movs	r0, #0
 458 002c 38BD     		pop	{r3, r4, r5, pc}
 459              	.LVL40:
 460              	.L19:
 461              		.loc 1 222 0
 462 002e 4FF0FF30 		mov	r0, #-1
 463              	.LVL41:
 464              		.loc 1 233 0
 465 0032 38BD     		pop	{r3, r4, r5, pc}
 466              		.cfi_endproc
 467              	.LFE224:
 468              		.size	chMBPostI, .-chMBPostI
 469              		.section	.text.chMBPostAhead,"ax",%progbits
 470              		.align	1
 471              		.p2align 4,,15
 472              		.global	chMBPostAhead
 473              		.syntax unified
 474              		.thumb
 475              		.thumb_func
 476              		.fpu fpv4-sp-d16
 477              		.type	chMBPostAhead, %function
 478              	chMBPostAhead:
 479              	.LFB225:
 480              		.loc 1 254 0
 481              		.cfi_startproc
 482              		@ args = 0, pretend = 0, frame = 0
 483              		@ frame_needed = 0, uses_anonymous_args = 0
 484              	.LVL42:
 485 0000 70B5     		push	{r4, r5, r6, lr}
 486              		.cfi_def_cfa_offset 16
 487              		.cfi_offset 4, -16
 488              		.cfi_offset 5, -12
 489              		.cfi_offset 6, -8
 490              		.cfi_offset 14, -4
 491              	.LBB132:
 492              	.LBB133:
 493              	.LBB134:
 494              	.LBB135:
 495              		.loc 2 546 0
 496 0002 2023     		movs	r3, #32
 497              	.LBE135:
 498              	.LBE134:
 499              	.LBE133:
 500              	.LBE132:
 501              		.loc 1 254 0
 502 0004 0446     		mov	r4, r0
 503 0006 0E46     		mov	r6, r1
 504              	.LVL43:
 505              	.LBB139:
 506              	.LBB138:
 507              	.LBB137:
 508              	.LBB136:
 509              		.loc 2 546 0
 510              		.syntax unified
 511              	@ 546 "ChibiOS_3.0.2/os/ext/CMSIS/include/core_cmFunc.h" 1
 512 0008 83F31188 		MSR basepri, r3
 513              	@ 0 "" 2
ARM GAS  /var/tmp//ccEVCPFC.s 			page 10


 514              	.LVL44:
 515              		.thumb
 516              		.syntax unified
 517              	.LBE136:
 518              	.LBE137:
 519              	.LBE138:
 520              	.LBE139:
 521              	.LBB140:
 522              	.LBB141:
 523              		.loc 1 289 0
 524 000c 1146     		mov	r1, r2
 525              	.LVL45:
 526 000e 1C30     		adds	r0, r0, #28
 527              	.LVL46:
 528 0010 FFF7FEFF 		bl	chSemWaitTimeoutS
 529              	.LVL47:
 530              		.loc 1 290 0
 531 0014 0546     		mov	r5, r0
 532 0016 20B1     		cbz	r0, .L25
 533              	.LVL48:
 534              	.LBE141:
 535              	.LBE140:
 536              	.LBB145:
 537              	.LBB146:
 538              	.LBB147:
 539              	.LBB148:
 540              	.LBB149:
 541              		.loc 2 546 0
 542 0018 0023     		movs	r3, #0
 543              		.syntax unified
 544              	@ 546 "ChibiOS_3.0.2/os/ext/CMSIS/include/core_cmFunc.h" 1
 545 001a 83F31188 		MSR basepri, r3
 546              	@ 0 "" 2
 547              	.LVL49:
 548              		.thumb
 549              		.syntax unified
 550              	.LBE149:
 551              	.LBE148:
 552              	.LBE147:
 553              	.LBE146:
 554              	.LBE145:
 555              		.loc 1 262 0
 556 001e 2846     		mov	r0, r5
 557 0020 70BD     		pop	{r4, r5, r6, pc}
 558              	.LVL50:
 559              	.L25:
 560              	.LBB154:
 561              	.LBB144:
 562              	.LBB142:
 563              	.LBB143:
 564              		.loc 1 291 0
 565 0022 E368     		ldr	r3, [r4, #12]
 566 0024 2268     		ldr	r2, [r4]
 567 0026 043B     		subs	r3, r3, #4
 568 0028 9342     		cmp	r3, r2
 569 002a E360     		str	r3, [r4, #12]
 570 002c 02D2     		bcs	.L23
ARM GAS  /var/tmp//ccEVCPFC.s 			page 11


 571              		.loc 1 292 0
 572 002e 6368     		ldr	r3, [r4, #4]
 573 0030 043B     		subs	r3, r3, #4
 574 0032 E360     		str	r3, [r4, #12]
 575              	.L23:
 576              		.loc 1 294 0
 577 0034 1E60     		str	r6, [r3]
 578              		.loc 1 295 0
 579 0036 04F11000 		add	r0, r4, #16
 580              	.LVL51:
 581 003a FFF7FEFF 		bl	chSemSignalI
 582              	.LVL52:
 583              		.loc 1 296 0
 584 003e FFF7FEFF 		bl	chSchRescheduleS
 585              	.LVL53:
 586              	.LBE143:
 587              	.LBE142:
 588              	.LBE144:
 589              	.LBE154:
 590              	.LBB155:
 591              	.LBB153:
 592              	.LBB152:
 593              	.LBB151:
 594              	.LBB150:
 595              		.loc 2 546 0
 596 0042 0023     		movs	r3, #0
 597              		.syntax unified
 598              	@ 546 "ChibiOS_3.0.2/os/ext/CMSIS/include/core_cmFunc.h" 1
 599 0044 83F31188 		MSR basepri, r3
 600              	@ 0 "" 2
 601              	.LVL54:
 602              		.thumb
 603              		.syntax unified
 604              	.LBE150:
 605              	.LBE151:
 606              	.LBE152:
 607              	.LBE153:
 608              	.LBE155:
 609              		.loc 1 262 0
 610 0048 2846     		mov	r0, r5
 611 004a 70BD     		pop	{r4, r5, r6, pc}
 612              		.cfi_endproc
 613              	.LFE225:
 614              		.size	chMBPostAhead, .-chMBPostAhead
 615              		.section	.text.chMBPostAheadS,"ax",%progbits
 616              		.align	1
 617              		.p2align 4,,15
 618              		.global	chMBPostAheadS
 619              		.syntax unified
 620              		.thumb
 621              		.thumb_func
 622              		.fpu fpv4-sp-d16
 623              		.type	chMBPostAheadS, %function
 624              	chMBPostAheadS:
 625              	.LFB226:
 626              		.loc 1 283 0
 627              		.cfi_startproc
ARM GAS  /var/tmp//ccEVCPFC.s 			page 12


 628              		@ args = 0, pretend = 0, frame = 0
 629              		@ frame_needed = 0, uses_anonymous_args = 0
 630              	.LVL55:
 631 0000 70B5     		push	{r4, r5, r6, lr}
 632              		.cfi_def_cfa_offset 16
 633              		.cfi_offset 4, -16
 634              		.cfi_offset 5, -12
 635              		.cfi_offset 6, -8
 636              		.cfi_offset 14, -4
 637              		.loc 1 283 0
 638 0002 0446     		mov	r4, r0
 639 0004 0E46     		mov	r6, r1
 640              		.loc 1 289 0
 641 0006 1C30     		adds	r0, r0, #28
 642              	.LVL56:
 643 0008 1146     		mov	r1, r2
 644              	.LVL57:
 645 000a FFF7FEFF 		bl	chSemWaitTimeoutS
 646              	.LVL58:
 647              		.loc 1 290 0
 648 000e 0546     		mov	r5, r0
 649 0010 60B9     		cbnz	r0, .L26
 650              	.LVL59:
 651              	.LBB158:
 652              	.LBB159:
 653              		.loc 1 291 0
 654 0012 E368     		ldr	r3, [r4, #12]
 655 0014 2268     		ldr	r2, [r4]
 656 0016 043B     		subs	r3, r3, #4
 657 0018 9342     		cmp	r3, r2
 658 001a E360     		str	r3, [r4, #12]
 659 001c 08D3     		bcc	.L30
 660              	.L28:
 661              		.loc 1 294 0
 662 001e 1E60     		str	r6, [r3]
 663              		.loc 1 295 0
 664 0020 04F11000 		add	r0, r4, #16
 665              	.LVL60:
 666 0024 FFF7FEFF 		bl	chSemSignalI
 667              	.LVL61:
 668              		.loc 1 296 0
 669 0028 FFF7FEFF 		bl	chSchRescheduleS
 670              	.LVL62:
 671              	.L26:
 672              	.LBE159:
 673              	.LBE158:
 674              		.loc 1 300 0
 675 002c 2846     		mov	r0, r5
 676 002e 70BD     		pop	{r4, r5, r6, pc}
 677              	.LVL63:
 678              	.L30:
 679              	.LBB161:
 680              	.LBB160:
 681              		.loc 1 292 0
 682 0030 6368     		ldr	r3, [r4, #4]
 683 0032 043B     		subs	r3, r3, #4
 684 0034 E360     		str	r3, [r4, #12]
ARM GAS  /var/tmp//ccEVCPFC.s 			page 13


 685 0036 F2E7     		b	.L28
 686              	.LBE160:
 687              	.LBE161:
 688              		.cfi_endproc
 689              	.LFE226:
 690              		.size	chMBPostAheadS, .-chMBPostAheadS
 691              		.section	.text.chMBPostAheadI,"ax",%progbits
 692              		.align	1
 693              		.p2align 4,,15
 694              		.global	chMBPostAheadI
 695              		.syntax unified
 696              		.thumb
 697              		.thumb_func
 698              		.fpu fpv4-sp-d16
 699              		.type	chMBPostAheadI, %function
 700              	chMBPostAheadI:
 701              	.LFB227:
 702              		.loc 1 316 0
 703              		.cfi_startproc
 704              		@ args = 0, pretend = 0, frame = 0
 705              		@ frame_needed = 0, uses_anonymous_args = 0
 706              	.LVL64:
 707 0000 426A     		ldr	r2, [r0, #36]
 708              	.LVL65:
 709              		.loc 1 321 0
 710 0002 002A     		cmp	r2, #0
 711 0004 11DD     		ble	.L34
 712              	.LVL66:
 713              		.loc 1 325 0
 714 0006 C368     		ldr	r3, [r0, #12]
 715              		.loc 1 316 0
 716 0008 10B5     		push	{r4, lr}
 717              		.cfi_def_cfa_offset 8
 718              		.cfi_offset 4, -8
 719              		.cfi_offset 14, -4
 720              		.loc 1 325 0
 721 000a 0468     		ldr	r4, [r0]
 722 000c 043B     		subs	r3, r3, #4
 723              	.LBB162:
 724              	.LBB163:
 725              		.loc 3 122 0
 726 000e 013A     		subs	r2, r2, #1
 727              	.LBE163:
 728              	.LBE162:
 729              		.loc 1 325 0
 730 0010 A342     		cmp	r3, r4
 731              	.LBB165:
 732              	.LBB164:
 733              		.loc 3 122 0
 734 0012 4262     		str	r2, [r0, #36]
 735              	.LBE164:
 736              	.LBE165:
 737              		.loc 1 325 0
 738 0014 C360     		str	r3, [r0, #12]
 739 0016 02D2     		bcs	.L33
 740              		.loc 1 326 0
 741 0018 4368     		ldr	r3, [r0, #4]
ARM GAS  /var/tmp//ccEVCPFC.s 			page 14


 742 001a 043B     		subs	r3, r3, #4
 743 001c C360     		str	r3, [r0, #12]
 744              	.L33:
 745              		.loc 1 328 0
 746 001e 1960     		str	r1, [r3]
 747              		.loc 1 329 0
 748 0020 1030     		adds	r0, r0, #16
 749              	.LVL67:
 750 0022 FFF7FEFF 		bl	chSemSignalI
 751              	.LVL68:
 752              		.loc 1 331 0
 753 0026 0020     		movs	r0, #0
 754 0028 10BD     		pop	{r4, pc}
 755              	.LVL69:
 756              	.L34:
 757              		.cfi_def_cfa_offset 0
 758              		.cfi_restore 4
 759              		.cfi_restore 14
 760              		.loc 1 322 0
 761 002a 4FF0FF30 		mov	r0, #-1
 762              	.LVL70:
 763 002e 7047     		bx	lr
 764              		.cfi_endproc
 765              	.LFE227:
 766              		.size	chMBPostAheadI, .-chMBPostAheadI
 767              		.section	.text.chMBFetch,"ax",%progbits
 768              		.align	1
 769              		.p2align 4,,15
 770              		.global	chMBFetch
 771              		.syntax unified
 772              		.thumb
 773              		.thumb_func
 774              		.fpu fpv4-sp-d16
 775              		.type	chMBFetch, %function
 776              	chMBFetch:
 777              	.LFB228:
 778              		.loc 1 353 0
 779              		.cfi_startproc
 780              		@ args = 0, pretend = 0, frame = 0
 781              		@ frame_needed = 0, uses_anonymous_args = 0
 782              	.LVL71:
 783 0000 70B5     		push	{r4, r5, r6, lr}
 784              		.cfi_def_cfa_offset 16
 785              		.cfi_offset 4, -16
 786              		.cfi_offset 5, -12
 787              		.cfi_offset 6, -8
 788              		.cfi_offset 14, -4
 789              	.LBB179:
 790              	.LBB180:
 791              	.LBB181:
 792              	.LBB182:
 793              		.loc 2 546 0
 794 0002 2023     		movs	r3, #32
 795              	.LBE182:
 796              	.LBE181:
 797              	.LBE180:
 798              	.LBE179:
ARM GAS  /var/tmp//ccEVCPFC.s 			page 15


 799              		.loc 1 353 0
 800 0004 0446     		mov	r4, r0
 801 0006 0E46     		mov	r6, r1
 802              	.LVL72:
 803              	.LBB186:
 804              	.LBB185:
 805              	.LBB184:
 806              	.LBB183:
 807              		.loc 2 546 0
 808              		.syntax unified
 809              	@ 546 "ChibiOS_3.0.2/os/ext/CMSIS/include/core_cmFunc.h" 1
 810 0008 83F31188 		MSR basepri, r3
 811              	@ 0 "" 2
 812              	.LVL73:
 813              		.thumb
 814              		.syntax unified
 815              	.LBE183:
 816              	.LBE184:
 817              	.LBE185:
 818              	.LBE186:
 819              	.LBB187:
 820              	.LBB188:
 821              		.loc 1 388 0
 822 000c 1146     		mov	r1, r2
 823              	.LVL74:
 824 000e 1030     		adds	r0, r0, #16
 825              	.LVL75:
 826 0010 FFF7FEFF 		bl	chSemWaitTimeoutS
 827              	.LVL76:
 828              		.loc 1 389 0
 829 0014 0546     		mov	r5, r0
 830 0016 80B9     		cbnz	r0, .L40
 831              	.LVL77:
 832              	.LBB189:
 833              	.LBB190:
 834              		.loc 1 390 0
 835 0018 E368     		ldr	r3, [r4, #12]
 836              		.loc 1 391 0
 837 001a 6268     		ldr	r2, [r4, #4]
 838              		.loc 1 390 0
 839 001c 1968     		ldr	r1, [r3]
 840 001e 0433     		adds	r3, r3, #4
 841              		.loc 1 391 0
 842 0020 9342     		cmp	r3, r2
 843              		.loc 1 390 0
 844 0022 E360     		str	r3, [r4, #12]
 845              		.loc 1 392 0
 846 0024 28BF     		it	cs
 847 0026 2368     		ldrcs	r3, [r4]
 848              		.loc 1 390 0
 849 0028 3160     		str	r1, [r6]
 850              		.loc 1 394 0
 851 002a 04F11C00 		add	r0, r4, #28
 852              	.LVL78:
 853              		.loc 1 392 0
 854 002e 28BF     		it	cs
 855 0030 E360     		strcs	r3, [r4, #12]
ARM GAS  /var/tmp//ccEVCPFC.s 			page 16


 856              		.loc 1 394 0
 857 0032 FFF7FEFF 		bl	chSemSignalI
 858              	.LVL79:
 859              		.loc 1 395 0
 860 0036 FFF7FEFF 		bl	chSchRescheduleS
 861              	.LVL80:
 862              	.L40:
 863              	.LBE190:
 864              	.LBE189:
 865              	.LBE188:
 866              	.LBE187:
 867              	.LBB191:
 868              	.LBB192:
 869              	.LBB193:
 870              	.LBB194:
 871              	.LBB195:
 872              		.loc 2 546 0
 873 003a 0023     		movs	r3, #0
 874              		.syntax unified
 875              	@ 546 "ChibiOS_3.0.2/os/ext/CMSIS/include/core_cmFunc.h" 1
 876 003c 83F31188 		MSR basepri, r3
 877              	@ 0 "" 2
 878              	.LVL81:
 879              		.thumb
 880              		.syntax unified
 881              	.LBE195:
 882              	.LBE194:
 883              	.LBE193:
 884              	.LBE192:
 885              	.LBE191:
 886              		.loc 1 361 0
 887 0040 2846     		mov	r0, r5
 888 0042 70BD     		pop	{r4, r5, r6, pc}
 889              		.cfi_endproc
 890              	.LFE228:
 891              		.size	chMBFetch, .-chMBFetch
 892              		.section	.text.chMBFetchS,"ax",%progbits
 893              		.align	1
 894              		.p2align 4,,15
 895              		.global	chMBFetchS
 896              		.syntax unified
 897              		.thumb
 898              		.thumb_func
 899              		.fpu fpv4-sp-d16
 900              		.type	chMBFetchS, %function
 901              	chMBFetchS:
 902              	.LFB229:
 903              		.loc 1 382 0
 904              		.cfi_startproc
 905              		@ args = 0, pretend = 0, frame = 0
 906              		@ frame_needed = 0, uses_anonymous_args = 0
 907              	.LVL82:
 908 0000 70B5     		push	{r4, r5, r6, lr}
 909              		.cfi_def_cfa_offset 16
 910              		.cfi_offset 4, -16
 911              		.cfi_offset 5, -12
 912              		.cfi_offset 6, -8
ARM GAS  /var/tmp//ccEVCPFC.s 			page 17


 913              		.cfi_offset 14, -4
 914              		.loc 1 382 0
 915 0002 0446     		mov	r4, r0
 916 0004 0E46     		mov	r6, r1
 917              		.loc 1 388 0
 918 0006 1030     		adds	r0, r0, #16
 919              	.LVL83:
 920 0008 1146     		mov	r1, r2
 921              	.LVL84:
 922 000a FFF7FEFF 		bl	chSemWaitTimeoutS
 923              	.LVL85:
 924              		.loc 1 389 0
 925 000e 0546     		mov	r5, r0
 926 0010 80B9     		cbnz	r0, .L43
 927              	.LVL86:
 928              	.LBB198:
 929              	.LBB199:
 930              		.loc 1 390 0
 931 0012 E368     		ldr	r3, [r4, #12]
 932              		.loc 1 391 0
 933 0014 6268     		ldr	r2, [r4, #4]
 934              		.loc 1 390 0
 935 0016 1968     		ldr	r1, [r3]
 936 0018 0433     		adds	r3, r3, #4
 937              		.loc 1 391 0
 938 001a 9342     		cmp	r3, r2
 939              		.loc 1 390 0
 940 001c E360     		str	r3, [r4, #12]
 941              		.loc 1 392 0
 942 001e 28BF     		it	cs
 943 0020 2368     		ldrcs	r3, [r4]
 944              		.loc 1 390 0
 945 0022 3160     		str	r1, [r6]
 946              		.loc 1 394 0
 947 0024 04F11C00 		add	r0, r4, #28
 948              	.LVL87:
 949              		.loc 1 392 0
 950 0028 28BF     		it	cs
 951 002a E360     		strcs	r3, [r4, #12]
 952              		.loc 1 394 0
 953 002c FFF7FEFF 		bl	chSemSignalI
 954              	.LVL88:
 955              		.loc 1 395 0
 956 0030 FFF7FEFF 		bl	chSchRescheduleS
 957              	.LVL89:
 958              	.L43:
 959              	.LBE199:
 960              	.LBE198:
 961              		.loc 1 399 0
 962 0034 2846     		mov	r0, r5
 963 0036 70BD     		pop	{r4, r5, r6, pc}
 964              		.cfi_endproc
 965              	.LFE229:
 966              		.size	chMBFetchS, .-chMBFetchS
 967              		.section	.text.chMBFetchI,"ax",%progbits
 968              		.align	1
 969              		.p2align 4,,15
ARM GAS  /var/tmp//ccEVCPFC.s 			page 18


 970              		.global	chMBFetchI
 971              		.syntax unified
 972              		.thumb
 973              		.thumb_func
 974              		.fpu fpv4-sp-d16
 975              		.type	chMBFetchI, %function
 976              	chMBFetchI:
 977              	.LFB230:
 978              		.loc 1 415 0
 979              		.cfi_startproc
 980              		@ args = 0, pretend = 0, frame = 0
 981              		@ frame_needed = 0, uses_anonymous_args = 0
 982              	.LVL90:
 983 0000 8269     		ldr	r2, [r0, #24]
 984              	.LVL91:
 985              		.loc 1 420 0
 986 0002 002A     		cmp	r2, #0
 987 0004 14DD     		ble	.L50
 988              	.LVL92:
 989              		.loc 1 424 0
 990 0006 C368     		ldr	r3, [r0, #12]
 991              	.LBB200:
 992              	.LBB201:
 993              		.loc 3 122 0
 994 0008 013A     		subs	r2, r2, #1
 995              	.LBE201:
 996              	.LBE200:
 997              		.loc 1 415 0
 998 000a 10B5     		push	{r4, lr}
 999              		.cfi_def_cfa_offset 8
 1000              		.cfi_offset 4, -8
 1001              		.cfi_offset 14, -4
 1002              	.LBB203:
 1003              	.LBB202:
 1004              		.loc 3 122 0
 1005 000c 8261     		str	r2, [r0, #24]
 1006              	.LBE202:
 1007              	.LBE203:
 1008              		.loc 1 425 0
 1009 000e 4268     		ldr	r2, [r0, #4]
 1010              		.loc 1 424 0
 1011 0010 1C68     		ldr	r4, [r3]
 1012 0012 0433     		adds	r3, r3, #4
 1013              		.loc 1 425 0
 1014 0014 9342     		cmp	r3, r2
 1015              		.loc 1 424 0
 1016 0016 C360     		str	r3, [r0, #12]
 1017              		.loc 1 426 0
 1018 0018 28BF     		it	cs
 1019 001a 0368     		ldrcs	r3, [r0]
 1020              		.loc 1 424 0
 1021 001c 0C60     		str	r4, [r1]
 1022              		.loc 1 428 0
 1023 001e 00F11C00 		add	r0, r0, #28
 1024              	.LVL93:
 1025              		.loc 1 426 0
 1026 0022 28BF     		it	cs
ARM GAS  /var/tmp//ccEVCPFC.s 			page 19


 1027 0024 40F8103C 		strcs	r3, [r0, #-16]
 1028              		.loc 1 428 0
 1029 0028 FFF7FEFF 		bl	chSemSignalI
 1030              	.LVL94:
 1031              		.loc 1 430 0
 1032 002c 0020     		movs	r0, #0
 1033 002e 10BD     		pop	{r4, pc}
 1034              	.LVL95:
 1035              	.L50:
 1036              		.cfi_def_cfa_offset 0
 1037              		.cfi_restore 4
 1038              		.cfi_restore 14
 1039              		.loc 1 421 0
 1040 0030 4FF0FF30 		mov	r0, #-1
 1041              	.LVL96:
 1042 0034 7047     		bx	lr
 1043              		.cfi_endproc
 1044              	.LFE230:
 1045              		.size	chMBFetchI, .-chMBFetchI
 1046 0036 00BF     		.text
 1047              	.Letext0:
 1048              		.file 4 "/usr/local/gcc_arm/gcc-arm-none-eabi-6-2017-q2-update/arm-none-eabi/include/machine/_defa
 1049              		.file 5 "/usr/local/gcc_arm/gcc-arm-none-eabi-6-2017-q2-update/arm-none-eabi/include/sys/_stdint.h
 1050              		.file 6 "ChibiOS_3.0.2/os/rt/ports/ARMCMx/compilers/GCC/chtypes.h"
 1051              		.file 7 "ChibiOS_3.0.2/os/rt/include/chsystypes.h"
 1052              		.file 8 "ChibiOS_3.0.2/os/rt/include/chschd.h"
 1053              		.file 9 "ChibiOS_3.0.2/os/ext/CMSIS/include/core_cm4.h"
 1054              		.file 10 "ChibiOS_3.0.2/os/ext/CMSIS/ST/system_stm32f4xx.h"
 1055              		.file 11 "ChibiOS_3.0.2/os/rt/ports/ARMCMx/chcore.h"
 1056              		.file 12 "ChibiOS_3.0.2/os/rt/ports/ARMCMx/chcore_v7m.h"
 1057              		.file 13 "ChibiOS_3.0.2/os/rt/include/chtm.h"
 1058              		.file 14 "ChibiOS_3.0.2/os/rt/include/chmtx.h"
 1059              		.file 15 "ChibiOS_3.0.2/os/rt/include/chregistry.h"
 1060              		.file 16 "ChibiOS_3.0.2/os/rt/include/chmboxes.h"
 1061              		.file 17 "ChibiOS_3.0.2/os/rt/include/chsys.h"