ARM GAS  /var/tmp//cc3kRWEe.s 			page 1


   1              		.cpu cortex-m4
   2              		.eabi_attribute 27, 1
   3              		.eabi_attribute 28, 1
   4              		.eabi_attribute 20, 1
   5              		.eabi_attribute 21, 1
   6              		.eabi_attribute 23, 3
   7              		.eabi_attribute 24, 1
   8              		.eabi_attribute 25, 1
   9              		.eabi_attribute 26, 1
  10              		.eabi_attribute 30, 2
  11              		.eabi_attribute 34, 1
  12              		.eabi_attribute 18, 4
  13              		.file	"chmtx.c"
  14              		.text
  15              	.Ltext0:
  16              		.cfi_sections	.debug_frame
  17              		.section	.text.chMtxObjectInit,"ax",%progbits
  18              		.align	1
  19              		.p2align 4,,15
  20              		.global	chMtxObjectInit
  21              		.syntax unified
  22              		.thumb
  23              		.thumb_func
  24              		.fpu fpv4-sp-d16
  25              		.type	chMtxObjectInit, %function
  26              	chMtxObjectInit:
  27              	.LFB219:
  28              		.file 1 "ChibiOS_3.0.2/os/rt/src/chmtx.c"
  29              		.loc 1 103 0
  30              		.cfi_startproc
  31              		@ args = 0, pretend = 0, frame = 0
  32              		@ frame_needed = 0, uses_anonymous_args = 0
  33              		@ link register save eliminated.
  34              	.LVL0:
  35              		.loc 1 108 0
  36 0000 0023     		movs	r3, #0
  37              	.LBB103:
  38              	.LBB104:
  39              		.file 2 "ChibiOS_3.0.2/os/rt/include/chschd.h"
  40              		.loc 2 604 0
  41 0002 0060     		str	r0, [r0]
  42              		.loc 2 605 0
  43 0004 4060     		str	r0, [r0, #4]
  44              	.LVL1:
  45              	.LBE104:
  46              	.LBE103:
  47              		.loc 1 108 0
  48 0006 8360     		str	r3, [r0, #8]
  49 0008 7047     		bx	lr
  50              		.cfi_endproc
  51              	.LFE219:
  52              		.size	chMtxObjectInit, .-chMtxObjectInit
  53 000a 00BF     		.section	.text.chMtxLockS,"ax",%progbits
  54              		.align	1
  55              		.p2align 4,,15
  56              		.global	chMtxLockS
  57              		.syntax unified
ARM GAS  /var/tmp//cc3kRWEe.s 			page 2


  58              		.thumb
  59              		.thumb_func
  60              		.fpu fpv4-sp-d16
  61              		.type	chMtxLockS, %function
  62              	chMtxLockS:
  63              	.LFB221:
  64              		.loc 1 139 0
  65              		.cfi_startproc
  66              		@ args = 0, pretend = 0, frame = 0
  67              		@ frame_needed = 0, uses_anonymous_args = 0
  68              	.LVL2:
  69              		.loc 1 140 0
  70 0000 304B     		ldr	r3, .L28
  71              		.loc 1 146 0
  72 0002 8268     		ldr	r2, [r0, #8]
  73              		.loc 1 139 0
  74 0004 70B5     		push	{r4, r5, r6, lr}
  75              		.cfi_def_cfa_offset 16
  76              		.cfi_offset 4, -16
  77              		.cfi_offset 5, -12
  78              		.cfi_offset 6, -8
  79              		.cfi_offset 14, -4
  80              		.loc 1 140 0
  81 0006 9C69     		ldr	r4, [r3, #24]
  82              	.LVL3:
  83              		.loc 1 146 0
  84 0008 002A     		cmp	r2, #0
  85 000a 55D0     		beq	.L3
  86              	.LBB105:
  87              		.loc 1 165 0
  88 000c A168     		ldr	r1, [r4, #8]
  89 000e 9368     		ldr	r3, [r2, #8]
  90 0010 8B42     		cmp	r3, r1
  91 0012 0546     		mov	r5, r0
  92              	.LVL4:
  93 0014 06D2     		bcs	.L5
  94              	.LVL5:
  95              	.L10:
  96              		.loc 1 170 0
  97 0016 137F     		ldrb	r3, [r2, #28]	@ zero_extendqisi2
  98              		.loc 1 167 0
  99 0018 9160     		str	r1, [r2, #8]
 100              		.loc 1 170 0
 101 001a 062B     		cmp	r3, #6
 102 001c 33D0     		beq	.L6
 103 001e 072B     		cmp	r3, #7
 104 0020 1DD0     		beq	.L7
 105 0022 9BB1     		cbz	r3, .L27
 106              	.LVL6:
 107              	.L5:
 108              		.loc 1 212 0
 109 0024 2B46     		mov	r3, r5
 110 0026 03E0     		b	.L18
 111              	.LVL7:
 112              	.L17:
 113              	.LBB106:
 114              	.LBB107:
ARM GAS  /var/tmp//cc3kRWEe.s 			page 3


 115              		.loc 2 656 0
 116 0028 9968     		ldr	r1, [r3, #8]
 117 002a A268     		ldr	r2, [r4, #8]
 118 002c 9142     		cmp	r1, r2
 119 002e 02D3     		bcc	.L19
 120              	.L18:
 121              		.loc 2 655 0
 122 0030 1B68     		ldr	r3, [r3]
 123              	.LVL8:
 124              		.loc 2 656 0
 125 0032 9D42     		cmp	r5, r3
 126 0034 F8D1     		bne	.L17
 127              	.L19:
 128              		.loc 2 658 0
 129 0036 5A68     		ldr	r2, [r3, #4]
 130 0038 6260     		str	r2, [r4, #4]
 131              		.loc 2 657 0
 132 003a 2360     		str	r3, [r4]
 133              		.loc 2 659 0
 134 003c 1460     		str	r4, [r2]
 135              		.loc 2 660 0
 136 003e 5C60     		str	r4, [r3, #4]
 137              	.LVL9:
 138              	.LBE107:
 139              	.LBE106:
 140              		.loc 1 213 0
 141 0040 6562     		str	r5, [r4, #36]
 142              		.loc 1 214 0
 143 0042 0620     		movs	r0, #6
 144              	.LBE105:
 145              		.loc 1 236 0
 146 0044 BDE87040 		pop	{r4, r5, r6, lr}
 147              		.cfi_remember_state
 148              		.cfi_restore 14
 149              		.cfi_restore 6
 150              		.cfi_restore 5
 151              		.cfi_restore 4
 152              		.cfi_def_cfa_offset 0
 153              	.LVL10:
 154              	.LBB120:
 155              		.loc 1 214 0
 156 0048 FFF7FEBF 		b	chSchGoSleepS
 157              	.LVL11:
 158              	.L27:
 159              		.cfi_restore_state
 160              	.LBB108:
 161              	.LBB109:
 162              		.loc 2 691 0
 163 004c 92E80A00 		ldm	r2, {r1, r3}
 164 0050 1960     		str	r1, [r3]
 165              		.loc 2 692 0
 166 0052 1168     		ldr	r1, [r2]
 167              	.LBE109:
 168              	.LBE108:
 169              		.loc 1 202 0
 170 0054 1046     		mov	r0, r2
 171              	.LBB111:
ARM GAS  /var/tmp//cc3kRWEe.s 			page 4


 172              	.LBB110:
 173              		.loc 2 692 0
 174 0056 4B60     		str	r3, [r1, #4]
 175              	.LVL12:
 176              	.LBE110:
 177              	.LBE111:
 178              		.loc 1 202 0
 179 0058 FFF7FEFF 		bl	chSchReadyI
 180              	.LVL13:
 181              		.loc 1 203 0
 182 005c E2E7     		b	.L5
 183              	.LVL14:
 184              	.L7:
 185              	.LBB112:
 186              	.LBB113:
 187              		.loc 2 691 0
 188 005e 92E80900 		ldm	r2, {r0, r3}
 189 0062 1860     		str	r0, [r3]
 190              		.loc 2 692 0
 191 0064 1068     		ldr	r0, [r2]
 192 0066 4360     		str	r3, [r0, #4]
 193              	.LVL15:
 194              	.LBE113:
 195              	.LBE112:
 196              		.loc 1 193 0
 197 0068 566A     		ldr	r6, [r2, #36]
 198              	.LVL16:
 199 006a 3346     		mov	r3, r6
 200 006c 02E0     		b	.L15
 201              	.LVL17:
 202              	.L14:
 203              	.LBB114:
 204              	.LBB115:
 205              		.loc 2 656 0
 206 006e 9868     		ldr	r0, [r3, #8]
 207 0070 8842     		cmp	r0, r1
 208 0072 02D3     		bcc	.L16
 209              	.LVL18:
 210              	.L15:
 211              		.loc 2 655 0
 212 0074 1B68     		ldr	r3, [r3]
 213              	.LVL19:
 214              		.loc 2 656 0
 215 0076 9E42     		cmp	r6, r3
 216 0078 F9D1     		bne	.L14
 217              	.L16:
 218              		.loc 2 658 0
 219 007a 5968     		ldr	r1, [r3, #4]
 220 007c 5160     		str	r1, [r2, #4]
 221              		.loc 2 657 0
 222 007e 1360     		str	r3, [r2]
 223              		.loc 2 659 0
 224 0080 0A60     		str	r2, [r1]
 225              		.loc 2 660 0
 226 0082 5A60     		str	r2, [r3, #4]
 227 0084 CEE7     		b	.L5
 228              	.LVL20:
ARM GAS  /var/tmp//cc3kRWEe.s 			page 5


 229              	.L6:
 230              	.LBE115:
 231              	.LBE114:
 232              	.LBB116:
 233              	.LBB117:
 234              		.loc 2 691 0
 235 0086 92E80900 		ldm	r2, {r0, r3}
 236 008a 1860     		str	r0, [r3]
 237              		.loc 2 692 0
 238 008c 1068     		ldr	r0, [r2]
 239 008e 4360     		str	r3, [r0, #4]
 240              	.LVL21:
 241              	.LBE117:
 242              	.LBE116:
 243              		.loc 1 173 0
 244 0090 566A     		ldr	r6, [r2, #36]
 245              	.LVL22:
 246 0092 3346     		mov	r3, r6
 247 0094 02E0     		b	.L12
 248              	.LVL23:
 249              	.L9:
 250              	.LBB118:
 251              	.LBB119:
 252              		.loc 2 656 0
 253 0096 9868     		ldr	r0, [r3, #8]
 254 0098 8842     		cmp	r0, r1
 255 009a 02D3     		bcc	.L13
 256              	.LVL24:
 257              	.L12:
 258              		.loc 2 655 0
 259 009c 1B68     		ldr	r3, [r3]
 260              	.LVL25:
 261              		.loc 2 656 0
 262 009e 9E42     		cmp	r6, r3
 263 00a0 F9D1     		bne	.L9
 264              	.L13:
 265              		.loc 2 658 0
 266 00a2 5968     		ldr	r1, [r3, #4]
 267 00a4 5160     		str	r1, [r2, #4]
 268              		.loc 2 657 0
 269 00a6 1360     		str	r3, [r2]
 270              		.loc 2 659 0
 271 00a8 0A60     		str	r2, [r1]
 272              		.loc 2 660 0
 273 00aa 5A60     		str	r2, [r3, #4]
 274              	.LVL26:
 275              	.LBE119:
 276              	.LBE118:
 277              		.loc 1 174 0
 278 00ac B268     		ldr	r2, [r6, #8]
 279              	.LVL27:
 280              		.loc 1 165 0
 281 00ae A168     		ldr	r1, [r4, #8]
 282 00b0 9368     		ldr	r3, [r2, #8]
 283 00b2 8B42     		cmp	r3, r1
 284 00b4 AFD3     		bcc	.L10
 285 00b6 B5E7     		b	.L5
ARM GAS  /var/tmp//cc3kRWEe.s 			page 6


 286              	.LVL28:
 287              	.L3:
 288              	.LBE120:
 289              		.loc 1 233 0
 290 00b8 E36B     		ldr	r3, [r4, #60]
 291 00ba C360     		str	r3, [r0, #12]
 292              		.loc 1 232 0
 293 00bc 8460     		str	r4, [r0, #8]
 294              		.loc 1 234 0
 295 00be E063     		str	r0, [r4, #60]
 296 00c0 70BD     		pop	{r4, r5, r6, pc}
 297              	.LVL29:
 298              	.L29:
 299 00c2 00BF     		.align	2
 300              	.L28:
 301 00c4 00000000 		.word	ch
 302              		.cfi_endproc
 303              	.LFE221:
 304              		.size	chMtxLockS, .-chMtxLockS
 305              		.section	.text.chMtxLock,"ax",%progbits
 306              		.align	1
 307              		.p2align 4,,15
 308              		.global	chMtxLock
 309              		.syntax unified
 310              		.thumb
 311              		.thumb_func
 312              		.fpu fpv4-sp-d16
 313              		.type	chMtxLock, %function
 314              	chMtxLock:
 315              	.LFB220:
 316              		.loc 1 123 0
 317              		.cfi_startproc
 318              		@ args = 0, pretend = 0, frame = 0
 319              		@ frame_needed = 0, uses_anonymous_args = 0
 320              	.LVL30:
 321 0000 08B5     		push	{r3, lr}
 322              		.cfi_def_cfa_offset 8
 323              		.cfi_offset 3, -8
 324              		.cfi_offset 14, -4
 325              	.LBB121:
 326              	.LBB122:
 327              	.LBB123:
 328              	.LBB124:
 329              		.file 3 "ChibiOS_3.0.2/os/ext/CMSIS/include/core_cmFunc.h"
 330              		.loc 3 546 0
 331 0002 2023     		movs	r3, #32
 332              		.syntax unified
 333              	@ 546 "ChibiOS_3.0.2/os/ext/CMSIS/include/core_cmFunc.h" 1
 334 0004 83F31188 		MSR basepri, r3
 335              	@ 0 "" 2
 336              	.LVL31:
 337              		.thumb
 338              		.syntax unified
 339              	.LBE124:
 340              	.LBE123:
 341              	.LBE122:
 342              	.LBE121:
ARM GAS  /var/tmp//cc3kRWEe.s 			page 7


 343              		.loc 1 126 0
 344 0008 FFF7FEFF 		bl	chMtxLockS
 345              	.LVL32:
 346              	.LBB125:
 347              	.LBB126:
 348              	.LBB127:
 349              	.LBB128:
 350              	.LBB129:
 351              		.loc 3 546 0
 352 000c 0023     		movs	r3, #0
 353              		.syntax unified
 354              	@ 546 "ChibiOS_3.0.2/os/ext/CMSIS/include/core_cmFunc.h" 1
 355 000e 83F31188 		MSR basepri, r3
 356              	@ 0 "" 2
 357              	.LVL33:
 358              		.thumb
 359              		.syntax unified
 360 0012 08BD     		pop	{r3, pc}
 361              	.LBE129:
 362              	.LBE128:
 363              	.LBE127:
 364              	.LBE126:
 365              	.LBE125:
 366              		.cfi_endproc
 367              	.LFE220:
 368              		.size	chMtxLock, .-chMtxLock
 369              		.section	.text.chMtxTryLock,"ax",%progbits
 370              		.align	1
 371              		.p2align 4,,15
 372              		.global	chMtxTryLock
 373              		.syntax unified
 374              		.thumb
 375              		.thumb_func
 376              		.fpu fpv4-sp-d16
 377              		.type	chMtxTryLock, %function
 378              	chMtxTryLock:
 379              	.LFB222:
 380              		.loc 1 255 0
 381              		.cfi_startproc
 382              		@ args = 0, pretend = 0, frame = 0
 383              		@ frame_needed = 0, uses_anonymous_args = 0
 384              		@ link register save eliminated.
 385              	.LVL34:
 386              		.loc 1 255 0
 387 0000 0346     		mov	r3, r0
 388              	.LBB143:
 389              	.LBB144:
 390              	.LBB145:
 391              	.LBB146:
 392              		.loc 3 546 0
 393 0002 2022     		movs	r2, #32
 394              		.syntax unified
 395              	@ 546 "ChibiOS_3.0.2/os/ext/CMSIS/include/core_cmFunc.h" 1
 396 0004 82F31188 		MSR basepri, r2
 397              	@ 0 "" 2
 398              	.LVL35:
 399              		.thumb
ARM GAS  /var/tmp//cc3kRWEe.s 			page 8


 400              		.syntax unified
 401              	.LBE146:
 402              	.LBE145:
 403              	.LBE144:
 404              	.LBE143:
 405              	.LBB147:
 406              	.LBB148:
 407              		.loc 1 287 0
 408 0008 8268     		ldr	r2, [r0, #8]
 409              		.loc 1 297 0
 410 000a 0020     		movs	r0, #0
 411              	.LVL36:
 412              		.loc 1 287 0
 413 000c 1AB1     		cbz	r2, .L35
 414              	.LVL37:
 415              	.LBE148:
 416              	.LBE147:
 417              	.LBB152:
 418              	.LBB153:
 419              	.LBB154:
 420              	.LBB155:
 421              	.LBB156:
 422              		.loc 3 546 0
 423 000e 0023     		movs	r3, #0
 424              	.LVL38:
 425              		.syntax unified
 426              	@ 546 "ChibiOS_3.0.2/os/ext/CMSIS/include/core_cmFunc.h" 1
 427 0010 83F31188 		MSR basepri, r3
 428              	@ 0 "" 2
 429              	.LVL39:
 430              		.thumb
 431              		.syntax unified
 432              	.LBE156:
 433              	.LBE155:
 434              	.LBE154:
 435              	.LBE153:
 436              	.LBE152:
 437              		.loc 1 263 0
 438 0014 7047     		bx	lr
 439              	.LVL40:
 440              	.L35:
 441              	.LBB161:
 442              	.LBB151:
 443              	.LBB149:
 444              	.LBB150:
 445              		.loc 1 305 0
 446 0016 054A     		ldr	r2, .L36
 447 0018 9269     		ldr	r2, [r2, #24]
 448 001a 9A60     		str	r2, [r3, #8]
 449              		.loc 1 306 0
 450 001c D16B     		ldr	r1, [r2, #60]
 451 001e D960     		str	r1, [r3, #12]
 452              		.loc 1 307 0
 453 0020 0120     		movs	r0, #1
 454 0022 D363     		str	r3, [r2, #60]
 455              	.LVL41:
 456              	.LBE150:
ARM GAS  /var/tmp//cc3kRWEe.s 			page 9


 457              	.LBE149:
 458              	.LBE151:
 459              	.LBE161:
 460              	.LBB162:
 461              	.LBB160:
 462              	.LBB159:
 463              	.LBB158:
 464              	.LBB157:
 465              		.loc 3 546 0
 466 0024 0023     		movs	r3, #0
 467              	.LVL42:
 468              		.syntax unified
 469              	@ 546 "ChibiOS_3.0.2/os/ext/CMSIS/include/core_cmFunc.h" 1
 470 0026 83F31188 		MSR basepri, r3
 471              	@ 0 "" 2
 472              	.LVL43:
 473              		.thumb
 474              		.syntax unified
 475              	.LBE157:
 476              	.LBE158:
 477              	.LBE159:
 478              	.LBE160:
 479              	.LBE162:
 480              		.loc 1 263 0
 481 002a 7047     		bx	lr
 482              	.L37:
 483              		.align	2
 484              	.L36:
 485 002c 00000000 		.word	ch
 486              		.cfi_endproc
 487              	.LFE222:
 488              		.size	chMtxTryLock, .-chMtxTryLock
 489              		.section	.text.chMtxTryLockS,"ax",%progbits
 490              		.align	1
 491              		.p2align 4,,15
 492              		.global	chMtxTryLockS
 493              		.syntax unified
 494              		.thumb
 495              		.thumb_func
 496              		.fpu fpv4-sp-d16
 497              		.type	chMtxTryLockS, %function
 498              	chMtxTryLockS:
 499              	.LFB223:
 500              		.loc 1 282 0
 501              		.cfi_startproc
 502              		@ args = 0, pretend = 0, frame = 0
 503              		@ frame_needed = 0, uses_anonymous_args = 0
 504              		@ link register save eliminated.
 505              	.LVL44:
 506              		.loc 1 287 0
 507 0000 8268     		ldr	r2, [r0, #8]
 508              		.loc 1 282 0
 509 0002 0346     		mov	r3, r0
 510              		.loc 1 287 0
 511 0004 0AB1     		cbz	r2, .L41
 512              		.loc 1 297 0
 513 0006 0020     		movs	r0, #0
ARM GAS  /var/tmp//cc3kRWEe.s 			page 10


 514              	.LVL45:
 515              		.loc 1 309 0
 516 0008 7047     		bx	lr
 517              	.LVL46:
 518              	.L41:
 519              	.LBB165:
 520              	.LBB166:
 521              		.loc 1 305 0
 522 000a 044A     		ldr	r2, .L42
 523 000c 9269     		ldr	r2, [r2, #24]
 524 000e 8260     		str	r2, [r0, #8]
 525              		.loc 1 306 0
 526 0010 D16B     		ldr	r1, [r2, #60]
 527 0012 C160     		str	r1, [r0, #12]
 528              		.loc 1 307 0
 529 0014 0120     		movs	r0, #1
 530              	.LVL47:
 531 0016 D363     		str	r3, [r2, #60]
 532              	.LVL48:
 533 0018 7047     		bx	lr
 534              	.L43:
 535 001a 00BF     		.align	2
 536              	.L42:
 537 001c 00000000 		.word	ch
 538              	.LBE166:
 539              	.LBE165:
 540              		.cfi_endproc
 541              	.LFE223:
 542              		.size	chMtxTryLockS, .-chMtxTryLockS
 543              		.section	.text.chMtxUnlock,"ax",%progbits
 544              		.align	1
 545              		.p2align 4,,15
 546              		.global	chMtxUnlock
 547              		.syntax unified
 548              		.thumb
 549              		.thumb_func
 550              		.fpu fpv4-sp-d16
 551              		.type	chMtxUnlock, %function
 552              	chMtxUnlock:
 553              	.LFB224:
 554              		.loc 1 323 0
 555              		.cfi_startproc
 556              		@ args = 0, pretend = 0, frame = 0
 557              		@ frame_needed = 0, uses_anonymous_args = 0
 558              	.LVL49:
 559              		.loc 1 324 0
 560 0000 174B     		ldr	r3, .L55
 561              		.loc 1 323 0
 562 0002 70B5     		push	{r4, r5, r6, lr}
 563              		.cfi_def_cfa_offset 16
 564              		.cfi_offset 4, -16
 565              		.cfi_offset 5, -12
 566              		.cfi_offset 6, -8
 567              		.cfi_offset 14, -4
 568              		.loc 1 324 0
 569 0004 9D69     		ldr	r5, [r3, #24]
 570              	.LVL50:
ARM GAS  /var/tmp//cc3kRWEe.s 			page 11


 571              	.LBB167:
 572              	.LBB168:
 573              	.LBB169:
 574              	.LBB170:
 575              		.loc 3 546 0
 576 0006 2023     		movs	r3, #32
 577              		.syntax unified
 578              	@ 546 "ChibiOS_3.0.2/os/ext/CMSIS/include/core_cmFunc.h" 1
 579 0008 83F31188 		MSR basepri, r3
 580              	@ 0 "" 2
 581              	.LVL51:
 582              		.thumb
 583              		.syntax unified
 584              	.LBE170:
 585              	.LBE169:
 586              	.LBE168:
 587              	.LBE167:
 588              	.LBB171:
 589              	.LBB172:
 590              	.LBB173:
 591              	.LBB174:
 592              		.loc 2 631 0
 593 000c 0468     		ldr	r4, [r0]
 594              	.LBE174:
 595              	.LBE173:
 596              	.LBE172:
 597              	.LBE171:
 598              		.loc 1 344 0
 599 000e C368     		ldr	r3, [r0, #12]
 600 0010 EB63     		str	r3, [r5, #60]
 601              		.loc 1 347 0
 602 0012 8442     		cmp	r4, r0
 603 0014 1DD0     		beq	.L45
 604              	.LBB175:
 605              		.loc 1 352 0
 606 0016 296C     		ldr	r1, [r5, #64]
 607              	.LVL52:
 608              		.loc 1 354 0
 609 0018 4BB1     		cbz	r3, .L46
 610              	.L48:
 611              	.LVL53:
 612              	.LBB176:
 613              	.LBB177:
 614              	.LBB178:
 615              	.LBB179:
 616              		.loc 2 631 0
 617 001a 1A68     		ldr	r2, [r3]
 618              	.LVL54:
 619              	.LBE179:
 620              	.LBE178:
 621              	.LBE177:
 622              	.LBE176:
 623              		.loc 1 358 0
 624 001c 9342     		cmp	r3, r2
 625 001e 03D0     		beq	.L47
 626 0020 9268     		ldr	r2, [r2, #8]
 627 0022 9142     		cmp	r1, r2
ARM GAS  /var/tmp//cc3kRWEe.s 			page 12


 628 0024 38BF     		it	cc
 629 0026 1146     		movcc	r1, r2
 630              	.LVL55:
 631              	.L47:
 632              		.loc 1 362 0
 633 0028 DB68     		ldr	r3, [r3, #12]
 634              	.LVL56:
 635              		.loc 1 354 0
 636 002a 002B     		cmp	r3, #0
 637 002c F5D1     		bne	.L48
 638              	.L46:
 639 002e 0346     		mov	r3, r0
 640              	.LVL57:
 641              	.LBB180:
 642              	.LBB181:
 643              		.loc 2 674 0
 644 0030 2268     		ldr	r2, [r4]
 645              	.LBE181:
 646              	.LBE180:
 647              		.loc 1 376 0
 648 0032 E66B     		ldr	r6, [r4, #60]
 649              		.loc 1 367 0
 650 0034 A960     		str	r1, [r5, #8]
 651              	.LVL58:
 652              		.loc 1 383 0
 653 0036 2046     		mov	r0, r4
 654              	.LVL59:
 655              	.LBB183:
 656              	.LBB182:
 657              		.loc 2 674 0
 658 0038 1A60     		str	r2, [r3]
 659              		.loc 2 675 0
 660 003a 5360     		str	r3, [r2, #4]
 661              	.LVL60:
 662              	.LBE182:
 663              	.LBE183:
 664              		.loc 1 375 0
 665 003c 9C60     		str	r4, [r3, #8]
 666              		.loc 1 376 0
 667 003e DE60     		str	r6, [r3, #12]
 668              		.loc 1 377 0
 669 0040 E363     		str	r3, [r4, #60]
 670              		.loc 1 383 0
 671 0042 FFF7FEFF 		bl	chSchReadyI
 672              	.LVL61:
 673              		.loc 1 384 0
 674 0046 FFF7FEFF 		bl	chSchRescheduleS
 675              	.LVL62:
 676              	.LBE175:
 677              	.LBB184:
 678              	.LBB185:
 679              	.LBB186:
 680              	.LBB187:
 681              	.LBB188:
 682              		.loc 3 546 0
 683 004a 0023     		movs	r3, #0
 684              		.syntax unified
ARM GAS  /var/tmp//cc3kRWEe.s 			page 13


 685              	@ 546 "ChibiOS_3.0.2/os/ext/CMSIS/include/core_cmFunc.h" 1
 686 004c 83F31188 		MSR basepri, r3
 687              	@ 0 "" 2
 688              	.LVL63:
 689              		.thumb
 690              		.syntax unified
 691 0050 70BD     		pop	{r4, r5, r6, pc}
 692              	.LVL64:
 693              	.L45:
 694              	.LBE188:
 695              	.LBE187:
 696              	.LBE186:
 697              	.LBE185:
 698              	.LBE184:
 699              		.loc 1 387 0
 700 0052 0023     		movs	r3, #0
 701 0054 A360     		str	r3, [r4, #8]
 702              	.LVL65:
 703              	.LBB193:
 704              	.LBB192:
 705              	.LBB191:
 706              	.LBB190:
 707              	.LBB189:
 708              		.loc 3 546 0
 709 0056 0023     		movs	r3, #0
 710              		.syntax unified
 711              	@ 546 "ChibiOS_3.0.2/os/ext/CMSIS/include/core_cmFunc.h" 1
 712 0058 83F31188 		MSR basepri, r3
 713              	@ 0 "" 2
 714              	.LVL66:
 715              		.thumb
 716              		.syntax unified
 717 005c 70BD     		pop	{r4, r5, r6, pc}
 718              	.LVL67:
 719              	.L56:
 720 005e 00BF     		.align	2
 721              	.L55:
 722 0060 00000000 		.word	ch
 723              	.LBE189:
 724              	.LBE190:
 725              	.LBE191:
 726              	.LBE192:
 727              	.LBE193:
 728              		.cfi_endproc
 729              	.LFE224:
 730              		.size	chMtxUnlock, .-chMtxUnlock
 731              		.section	.text.chMtxUnlockS,"ax",%progbits
 732              		.align	1
 733              		.p2align 4,,15
 734              		.global	chMtxUnlockS
 735              		.syntax unified
 736              		.thumb
 737              		.thumb_func
 738              		.fpu fpv4-sp-d16
 739              		.type	chMtxUnlockS, %function
 740              	chMtxUnlockS:
 741              	.LFB225:
ARM GAS  /var/tmp//cc3kRWEe.s 			page 14


 742              		.loc 1 410 0
 743              		.cfi_startproc
 744              		@ args = 0, pretend = 0, frame = 0
 745              		@ frame_needed = 0, uses_anonymous_args = 0
 746              		@ link register save eliminated.
 747              	.LVL68:
 748              		.loc 1 411 0
 749 0000 124B     		ldr	r3, .L67
 750              		.loc 1 410 0
 751 0002 30B4     		push	{r4, r5}
 752              		.cfi_def_cfa_offset 8
 753              		.cfi_offset 4, -8
 754              		.cfi_offset 5, -4
 755              		.loc 1 410 0
 756 0004 0446     		mov	r4, r0
 757              	.LBB194:
 758              	.LBB195:
 759              	.LBB196:
 760              	.LBB197:
 761              		.loc 2 631 0
 762 0006 0568     		ldr	r5, [r0]
 763              	.LBE197:
 764              	.LBE196:
 765              	.LBE195:
 766              	.LBE194:
 767              		.loc 1 411 0
 768 0008 9869     		ldr	r0, [r3, #24]
 769              	.LVL69:
 770              		.loc 1 430 0
 771 000a E368     		ldr	r3, [r4, #12]
 772 000c C363     		str	r3, [r0, #60]
 773              		.loc 1 433 0
 774 000e A542     		cmp	r5, r4
 775 0010 17D0     		beq	.L58
 776              	.LBB198:
 777              		.loc 1 438 0
 778 0012 016C     		ldr	r1, [r0, #64]
 779              	.LVL70:
 780              		.loc 1 440 0
 781 0014 4BB1     		cbz	r3, .L59
 782              	.L61:
 783              	.LVL71:
 784              	.LBB199:
 785              	.LBB200:
 786              	.LBB201:
 787              	.LBB202:
 788              		.loc 2 631 0
 789 0016 1A68     		ldr	r2, [r3]
 790              	.LVL72:
 791              	.LBE202:
 792              	.LBE201:
 793              	.LBE200:
 794              	.LBE199:
 795              		.loc 1 444 0
 796 0018 9342     		cmp	r3, r2
 797 001a 03D0     		beq	.L60
 798 001c 9268     		ldr	r2, [r2, #8]
ARM GAS  /var/tmp//cc3kRWEe.s 			page 15


 799 001e 9142     		cmp	r1, r2
 800 0020 38BF     		it	cc
 801 0022 1146     		movcc	r1, r2
 802              	.LVL73:
 803              	.L60:
 804              		.loc 1 448 0
 805 0024 DB68     		ldr	r3, [r3, #12]
 806              	.LVL74:
 807              		.loc 1 440 0
 808 0026 002B     		cmp	r3, #0
 809 0028 F5D1     		bne	.L61
 810              	.L59:
 811              	.LBB203:
 812              	.LBB204:
 813              		.loc 2 674 0
 814 002a 2B68     		ldr	r3, [r5]
 815              	.LVL75:
 816              	.LBE204:
 817              	.LBE203:
 818              		.loc 1 462 0
 819 002c EA6B     		ldr	r2, [r5, #60]
 820              		.loc 1 453 0
 821 002e 8160     		str	r1, [r0, #8]
 822              	.LVL76:
 823              	.LBB207:
 824              	.LBB205:
 825              		.loc 2 674 0
 826 0030 2360     		str	r3, [r4]
 827              	.LBE205:
 828              	.LBE207:
 829              		.loc 1 464 0
 830 0032 2846     		mov	r0, r5
 831              	.LVL77:
 832              	.LBB208:
 833              	.LBB206:
 834              		.loc 2 675 0
 835 0034 5C60     		str	r4, [r3, #4]
 836              	.LVL78:
 837              	.LBE206:
 838              	.LBE208:
 839              		.loc 1 461 0
 840 0036 A560     		str	r5, [r4, #8]
 841              		.loc 1 462 0
 842 0038 E260     		str	r2, [r4, #12]
 843              		.loc 1 463 0
 844 003a EC63     		str	r4, [r5, #60]
 845              	.LBE198:
 846              		.loc 1 472 0
 847 003c 30BC     		pop	{r4, r5}
 848              		.cfi_remember_state
 849              		.cfi_restore 5
 850              		.cfi_restore 4
 851              		.cfi_def_cfa_offset 0
 852              	.LVL79:
 853              	.LBB209:
 854              		.loc 1 464 0
 855 003e FFF7FEBF 		b	chSchReadyI
ARM GAS  /var/tmp//cc3kRWEe.s 			page 16


 856              	.LVL80:
 857              	.L58:
 858              		.cfi_restore_state
 859              	.LBE209:
 860              		.loc 1 467 0
 861 0042 0023     		movs	r3, #0
 862 0044 AB60     		str	r3, [r5, #8]
 863              		.loc 1 472 0
 864 0046 30BC     		pop	{r4, r5}
 865              		.cfi_restore 5
 866              		.cfi_restore 4
 867              		.cfi_def_cfa_offset 0
 868              	.LVL81:
 869 0048 7047     		bx	lr
 870              	.L68:
 871 004a 00BF     		.align	2
 872              	.L67:
 873 004c 00000000 		.word	ch
 874              		.cfi_endproc
 875              	.LFE225:
 876              		.size	chMtxUnlockS, .-chMtxUnlockS
 877              		.section	.text.chMtxUnlockAll,"ax",%progbits
 878              		.align	1
 879              		.p2align 4,,15
 880              		.global	chMtxUnlockAll
 881              		.syntax unified
 882              		.thumb
 883              		.thumb_func
 884              		.fpu fpv4-sp-d16
 885              		.type	chMtxUnlockAll, %function
 886              	chMtxUnlockAll:
 887              	.LFB226:
 888              		.loc 1 485 0
 889              		.cfi_startproc
 890              		@ args = 0, pretend = 0, frame = 0
 891              		@ frame_needed = 0, uses_anonymous_args = 0
 892              		.loc 1 486 0
 893 0000 134A     		ldr	r2, .L80
 894              		.loc 1 485 0
 895 0002 70B5     		push	{r4, r5, r6, lr}
 896              		.cfi_def_cfa_offset 16
 897              		.cfi_offset 4, -16
 898              		.cfi_offset 5, -12
 899              		.cfi_offset 6, -8
 900              		.cfi_offset 14, -4
 901              	.LBB210:
 902              	.LBB211:
 903              	.LBB212:
 904              	.LBB213:
 905              		.loc 3 546 0
 906 0004 2023     		movs	r3, #32
 907              	.LBE213:
 908              	.LBE212:
 909              	.LBE211:
 910              	.LBE210:
 911              		.loc 1 486 0
 912 0006 9469     		ldr	r4, [r2, #24]
ARM GAS  /var/tmp//cc3kRWEe.s 			page 17


 913              	.LVL82:
 914              	.LBB217:
 915              	.LBB216:
 916              	.LBB215:
 917              	.LBB214:
 918              		.loc 3 546 0
 919              		.syntax unified
 920              	@ 546 "ChibiOS_3.0.2/os/ext/CMSIS/include/core_cmFunc.h" 1
 921 0008 83F31188 		MSR basepri, r3
 922              	@ 0 "" 2
 923              	.LVL83:
 924              		.thumb
 925              		.syntax unified
 926              	.LBE214:
 927              	.LBE215:
 928              	.LBE216:
 929              	.LBE217:
 930              		.loc 1 489 0
 931 000c E36B     		ldr	r3, [r4, #60]
 932 000e B3B1     		cbz	r3, .L70
 933              	.LBB218:
 934              		.loc 1 507 0
 935 0010 0026     		movs	r6, #0
 936              	.L73:
 937              	.LVL84:
 938              	.LBB219:
 939              	.LBB220:
 940              	.LBB221:
 941              	.LBB222:
 942              		.loc 2 631 0
 943 0012 1A68     		ldr	r2, [r3]
 944              	.LVL85:
 945              	.LBE222:
 946              	.LBE221:
 947              	.LBE220:
 948              	.LBE219:
 949              		.loc 1 492 0
 950 0014 D968     		ldr	r1, [r3, #12]
 951 0016 E163     		str	r1, [r4, #60]
 952              	.LVL86:
 953              		.loc 1 493 0
 954 0018 9342     		cmp	r3, r2
 955              	.LBB223:
 956              		.loc 1 501 0
 957 001a 1046     		mov	r0, r2
 958              	.LBE223:
 959              		.loc 1 493 0
 960 001c 13D0     		beq	.L71
 961              	.LBB228:
 962              	.LBB224:
 963              	.LBB225:
 964              		.loc 2 674 0
 965 001e 1168     		ldr	r1, [r2]
 966              	.LBE225:
 967              	.LBE224:
 968              		.loc 1 499 0
 969 0020 D56B     		ldr	r5, [r2, #60]
ARM GAS  /var/tmp//cc3kRWEe.s 			page 18


 970              	.LBB227:
 971              	.LBB226:
 972              		.loc 2 674 0
 973 0022 1960     		str	r1, [r3]
 974              		.loc 2 675 0
 975 0024 4B60     		str	r3, [r1, #4]
 976              	.LVL87:
 977              	.LBE226:
 978              	.LBE227:
 979              		.loc 1 498 0
 980 0026 9A60     		str	r2, [r3, #8]
 981              		.loc 1 499 0
 982 0028 DD60     		str	r5, [r3, #12]
 983              		.loc 1 500 0
 984 002a D363     		str	r3, [r2, #60]
 985              		.loc 1 501 0
 986 002c FFF7FEFF 		bl	chSchReadyI
 987              	.LVL88:
 988 0030 E36B     		ldr	r3, [r4, #60]
 989              	.LBE228:
 990              	.LBE218:
 991              		.loc 1 509 0
 992 0032 002B     		cmp	r3, #0
 993 0034 EDD1     		bne	.L73
 994              	.L79:
 995              		.loc 1 510 0
 996 0036 236C     		ldr	r3, [r4, #64]
 997 0038 A360     		str	r3, [r4, #8]
 998              		.loc 1 511 0
 999 003a FFF7FEFF 		bl	chSchRescheduleS
 1000              	.LVL89:
 1001              	.L70:
 1002              	.LBB229:
 1003              	.LBB230:
 1004              	.LBB231:
 1005              	.LBB232:
 1006              	.LBB233:
 1007              		.loc 3 546 0
 1008 003e 0023     		movs	r3, #0
 1009              		.syntax unified
 1010              	@ 546 "ChibiOS_3.0.2/os/ext/CMSIS/include/core_cmFunc.h" 1
 1011 0040 83F31188 		MSR basepri, r3
 1012              	@ 0 "" 2
 1013              	.LVL90:
 1014              		.thumb
 1015              		.syntax unified
 1016 0044 70BD     		pop	{r4, r5, r6, pc}
 1017              	.LVL91:
 1018              	.L71:
 1019              	.LBE233:
 1020              	.LBE232:
 1021              	.LBE231:
 1022              	.LBE230:
 1023              	.LBE229:
 1024              	.LBB234:
 1025              		.loc 1 507 0
 1026 0046 9E60     		str	r6, [r3, #8]
ARM GAS  /var/tmp//cc3kRWEe.s 			page 19


 1027 0048 0B46     		mov	r3, r1
 1028              	.LVL92:
 1029              	.LBE234:
 1030              		.loc 1 509 0
 1031 004a 002B     		cmp	r3, #0
 1032 004c E1D1     		bne	.L73
 1033 004e F2E7     		b	.L79
 1034              	.L81:
 1035              		.align	2
 1036              	.L80:
 1037 0050 00000000 		.word	ch
 1038              		.cfi_endproc
 1039              	.LFE226:
 1040              		.size	chMtxUnlockAll, .-chMtxUnlockAll
 1041              		.text
 1042              	.Letext0:
 1043              		.file 4 "/usr/local/gcc_arm/gcc-arm-none-eabi-6-2017-q2-update/arm-none-eabi/include/machine/_defa
 1044              		.file 5 "/usr/local/gcc_arm/gcc-arm-none-eabi-6-2017-q2-update/arm-none-eabi/include/sys/_stdint.h
 1045              		.file 6 "ChibiOS_3.0.2/os/rt/ports/ARMCMx/compilers/GCC/chtypes.h"
 1046              		.file 7 "ChibiOS_3.0.2/os/rt/include/chsystypes.h"
 1047              		.file 8 "ChibiOS_3.0.2/os/ext/CMSIS/include/core_cm4.h"
 1048              		.file 9 "ChibiOS_3.0.2/os/ext/CMSIS/ST/system_stm32f4xx.h"
 1049              		.file 10 "ChibiOS_3.0.2/os/rt/ports/ARMCMx/chcore.h"
 1050              		.file 11 "ChibiOS_3.0.2/os/rt/ports/ARMCMx/chcore_v7m.h"
 1051              		.file 12 "ChibiOS_3.0.2/os/rt/include/chtm.h"
 1052              		.file 13 "ChibiOS_3.0.2/os/rt/include/chsem.h"
 1053              		.file 14 "ChibiOS_3.0.2/os/rt/include/chmtx.h"
 1054              		.file 15 "ChibiOS_3.0.2/os/rt/include/chregistry.h"
 1055              		.file 16 "ChibiOS_3.0.2/os/rt/include/chsys.h"
 1056              		.section	.debug_info,"",%progbits
 1057              	.Ldebug_info0:
 1058 0000 ED110000 		.4byte	0x11ed
 1059 0004 0400     		.2byte	0x4
 1060 0006 00000000 		.4byte	.Ldebug_abbrev0
 1061 000a 04       		.byte	0x4
 1062 000b 01       		.uleb128 0x1
 1063 000c 24030000 		.4byte	.LASF153
 1064 0010 0C       		.byte	0xc
 1065 0011 10070000 		.4byte	.LASF154
 1066 0015 98020000 		.4byte	.LASF155
 1067 0019 28010000 		.4byte	.Ldebug_ranges0+0x128
 1068 001d 00000000 		.4byte	0
 1069 0021 00000000 		.4byte	.Ldebug_line0
 1070 0025 02       		.uleb128 0x2
 1071 0026 04       		.byte	0x4
 1072 0027 05       		.byte	0x5
 1073 0028 696E7400 		.ascii	"int\000"
 1074 002c 03       		.uleb128 0x3
 1075 002d 04       		.byte	0x4
 1076 002e 07       		.byte	0x7
 1077 002f 16020000 		.4byte	.LASF0
 1078 0033 03       		.uleb128 0x3
 1079 0034 01       		.byte	0x1
 1080 0035 06       		.byte	0x6
 1081 0036 FF000000 		.4byte	.LASF1
 1082 003a 04       		.uleb128 0x4
 1083 003b 30000000 		.4byte	.LASF4
ARM GAS  /var/tmp//cc3kRWEe.s 			page 20


 1084 003f 04       		.byte	0x4
 1085 0040 2B       		.byte	0x2b
 1086 0041 45000000 		.4byte	0x45
 1087 0045 03       		.uleb128 0x3
 1088 0046 01       		.byte	0x1
 1089 0047 08       		.byte	0x8
 1090 0048 6E050000 		.4byte	.LASF2
 1091 004c 03       		.uleb128 0x3
 1092 004d 02       		.byte	0x2
 1093 004e 05       		.byte	0x5
 1094 004f 8E050000 		.4byte	.LASF3
 1095 0053 04       		.uleb128 0x4
 1096 0054 9C060000 		.4byte	.LASF5
 1097 0058 04       		.byte	0x4
 1098 0059 39       		.byte	0x39
 1099 005a 5E000000 		.4byte	0x5e
 1100 005e 03       		.uleb128 0x3
 1101 005f 02       		.byte	0x2
 1102 0060 07       		.byte	0x7
 1103 0061 75020000 		.4byte	.LASF6
 1104 0065 04       		.uleb128 0x4
 1105 0066 0F030000 		.4byte	.LASF7
 1106 006a 04       		.byte	0x4
 1107 006b 4D       		.byte	0x4d
 1108 006c 70000000 		.4byte	0x70
 1109 0070 03       		.uleb128 0x3
 1110 0071 04       		.byte	0x4
 1111 0072 05       		.byte	0x5
 1112 0073 5F010000 		.4byte	.LASF8
 1113 0077 04       		.uleb128 0x4
 1114 0078 E0060000 		.4byte	.LASF9
 1115 007c 04       		.byte	0x4
 1116 007d 4F       		.byte	0x4f
 1117 007e 82000000 		.4byte	0x82
 1118 0082 03       		.uleb128 0x3
 1119 0083 04       		.byte	0x4
 1120 0084 07       		.byte	0x7
 1121 0085 7E060000 		.4byte	.LASF10
 1122 0089 03       		.uleb128 0x3
 1123 008a 08       		.byte	0x8
 1124 008b 05       		.byte	0x5
 1125 008c E0010000 		.4byte	.LASF11
 1126 0090 04       		.uleb128 0x4
 1127 0091 03050000 		.4byte	.LASF12
 1128 0095 04       		.byte	0x4
 1129 0096 69       		.byte	0x69
 1130 0097 9B000000 		.4byte	0x9b
 1131 009b 03       		.uleb128 0x3
 1132 009c 08       		.byte	0x8
 1133 009d 07       		.byte	0x7
 1134 009e 6A000000 		.4byte	.LASF13
 1135 00a2 04       		.uleb128 0x4
 1136 00a3 7A070000 		.4byte	.LASF14
 1137 00a7 05       		.byte	0x5
 1138 00a8 18       		.byte	0x18
 1139 00a9 3A000000 		.4byte	0x3a
 1140 00ad 04       		.uleb128 0x4
ARM GAS  /var/tmp//cc3kRWEe.s 			page 21


 1141 00ae 2B020000 		.4byte	.LASF15
 1142 00b2 05       		.byte	0x5
 1143 00b3 24       		.byte	0x24
 1144 00b4 53000000 		.4byte	0x53
 1145 00b8 04       		.uleb128 0x4
 1146 00b9 66050000 		.4byte	.LASF16
 1147 00bd 05       		.byte	0x5
 1148 00be 2C       		.byte	0x2c
 1149 00bf 65000000 		.4byte	0x65
 1150 00c3 05       		.uleb128 0x5
 1151 00c4 B8000000 		.4byte	0xb8
 1152 00c8 04       		.uleb128 0x4
 1153 00c9 3D060000 		.4byte	.LASF17
 1154 00cd 05       		.byte	0x5
 1155 00ce 30       		.byte	0x30
 1156 00cf 77000000 		.4byte	0x77
 1157 00d3 04       		.uleb128 0x4
 1158 00d4 27000000 		.4byte	.LASF18
 1159 00d8 05       		.byte	0x5
 1160 00d9 3C       		.byte	0x3c
 1161 00da 90000000 		.4byte	0x90
 1162 00de 04       		.uleb128 0x4
 1163 00df 4A070000 		.4byte	.LASF19
 1164 00e3 06       		.byte	0x6
 1165 00e4 45       		.byte	0x45
 1166 00e5 C8000000 		.4byte	0xc8
 1167 00e9 04       		.uleb128 0x4
 1168 00ea B7050000 		.4byte	.LASF20
 1169 00ee 06       		.byte	0x6
 1170 00ef 48       		.byte	0x48
 1171 00f0 A2000000 		.4byte	0xa2
 1172 00f4 04       		.uleb128 0x4
 1173 00f5 76010000 		.4byte	.LASF21
 1174 00f9 06       		.byte	0x6
 1175 00fa 49       		.byte	0x49
 1176 00fb A2000000 		.4byte	0xa2
 1177 00ff 04       		.uleb128 0x4
 1178 0100 0E050000 		.4byte	.LASF22
 1179 0104 06       		.byte	0x6
 1180 0105 4A       		.byte	0x4a
 1181 0106 A2000000 		.4byte	0xa2
 1182 010a 04       		.uleb128 0x4
 1183 010b 4B010000 		.4byte	.LASF23
 1184 010f 06       		.byte	0x6
 1185 0110 4B       		.byte	0x4b
 1186 0111 A2000000 		.4byte	0xa2
 1187 0115 04       		.uleb128 0x4
 1188 0116 38050000 		.4byte	.LASF24
 1189 011a 06       		.byte	0x6
 1190 011b 4C       		.byte	0x4c
 1191 011c C8000000 		.4byte	0xc8
 1192 0120 04       		.uleb128 0x4
 1193 0121 92020000 		.4byte	.LASF25
 1194 0125 06       		.byte	0x6
 1195 0126 4D       		.byte	0x4d
 1196 0127 B8000000 		.4byte	0xb8
 1197 012b 04       		.uleb128 0x4
ARM GAS  /var/tmp//cc3kRWEe.s 			page 22


 1198 012c F6020000 		.4byte	.LASF26
 1199 0130 06       		.byte	0x6
 1200 0131 4F       		.byte	0x4f
 1201 0132 C8000000 		.4byte	0xc8
 1202 0136 04       		.uleb128 0x4
 1203 0137 03020000 		.4byte	.LASF27
 1204 013b 06       		.byte	0x6
 1205 013c 51       		.byte	0x51
 1206 013d B8000000 		.4byte	0xb8
 1207 0141 04       		.uleb128 0x4
 1208 0142 C2060000 		.4byte	.LASF28
 1209 0146 07       		.byte	0x7
 1210 0147 33       		.byte	0x33
 1211 0148 C8000000 		.4byte	0xc8
 1212 014c 05       		.uleb128 0x5
 1213 014d 41010000 		.4byte	0x141
 1214 0151 04       		.uleb128 0x4
 1215 0152 A7060000 		.4byte	.LASF29
 1216 0156 07       		.byte	0x7
 1217 0157 3F       		.byte	0x3f
 1218 0158 5C010000 		.4byte	0x15c
 1219 015c 06       		.uleb128 0x6
 1220 015d 88020000 		.4byte	.LASF51
 1221 0161 48       		.byte	0x48
 1222 0162 02       		.byte	0x2
 1223 0163 C2       		.byte	0xc2
 1224 0164 61020000 		.4byte	0x261
 1225 0168 07       		.uleb128 0x7
 1226 0169 B0050000 		.4byte	.LASF30
 1227 016d 02       		.byte	0x2
 1228 016e C3       		.byte	0xc3
 1229 016f 6C020000 		.4byte	0x26c
 1230 0173 00       		.byte	0
 1231 0174 07       		.uleb128 0x7
 1232 0175 31050000 		.4byte	.LASF31
 1233 0179 02       		.byte	0x2
 1234 017a C5       		.byte	0xc5
 1235 017b 6C020000 		.4byte	0x26c
 1236 017f 04       		.byte	0x4
 1237 0180 07       		.uleb128 0x7
 1238 0181 D7000000 		.4byte	.LASF32
 1239 0185 02       		.byte	0x2
 1240 0186 C7       		.byte	0xc7
 1241 0187 15010000 		.4byte	0x115
 1242 018b 08       		.byte	0x8
 1243 018c 07       		.uleb128 0x7
 1244 018d D3040000 		.4byte	.LASF33
 1245 0191 02       		.byte	0x2
 1246 0192 C8       		.byte	0xc8
 1247 0193 B8040000 		.4byte	0x4b8
 1248 0197 0C       		.byte	0xc
 1249 0198 07       		.uleb128 0x7
 1250 0199 A6010000 		.4byte	.LASF34
 1251 019d 02       		.byte	0x2
 1252 019e CA       		.byte	0xca
 1253 019f 6C020000 		.4byte	0x26c
 1254 01a3 10       		.byte	0x10
ARM GAS  /var/tmp//cc3kRWEe.s 			page 23


 1255 01a4 07       		.uleb128 0x7
 1256 01a5 C5040000 		.4byte	.LASF35
 1257 01a9 02       		.byte	0x2
 1258 01aa CB       		.byte	0xcb
 1259 01ab 6C020000 		.4byte	0x26c
 1260 01af 14       		.byte	0x14
 1261 01b0 07       		.uleb128 0x7
 1262 01b1 9C070000 		.4byte	.LASF36
 1263 01b5 02       		.byte	0x2
 1264 01b6 D2       		.byte	0xd2
 1265 01b7 FD060000 		.4byte	0x6fd
 1266 01bb 18       		.byte	0x18
 1267 01bc 07       		.uleb128 0x7
 1268 01bd 7C050000 		.4byte	.LASF37
 1269 01c1 02       		.byte	0x2
 1270 01c2 DD       		.byte	0xdd
 1271 01c3 F4000000 		.4byte	0xf4
 1272 01c7 1C       		.byte	0x1c
 1273 01c8 07       		.uleb128 0x7
 1274 01c9 CE050000 		.4byte	.LASF38
 1275 01cd 02       		.byte	0x2
 1276 01ce E1       		.byte	0xe1
 1277 01cf E9000000 		.4byte	0xe9
 1278 01d3 1D       		.byte	0x1d
 1279 01d4 07       		.uleb128 0x7
 1280 01d5 6D070000 		.4byte	.LASF39
 1281 01d9 02       		.byte	0x2
 1282 01da E6       		.byte	0xe6
 1283 01db FF000000 		.4byte	0xff
 1284 01df 1E       		.byte	0x1e
 1285 01e0 07       		.uleb128 0x7
 1286 01e1 98050000 		.4byte	.LASF40
 1287 01e5 02       		.byte	0x2
 1288 01e6 EC       		.byte	0xec
 1289 01e7 0A010000 		.4byte	0x10a
 1290 01eb 1F       		.byte	0x1f
 1291 01ec 07       		.uleb128 0x7
 1292 01ed 44020000 		.4byte	.LASF41
 1293 01f1 02       		.byte	0x2
 1294 01f2 F3       		.byte	0xf3
 1295 01f3 4C010000 		.4byte	0x14c
 1296 01f7 20       		.byte	0x20
 1297 01f8 08       		.uleb128 0x8
 1298 01f9 705F7500 		.ascii	"p_u\000"
 1299 01fd 02       		.byte	0x2
 1300 01fe 3101     		.2byte	0x131
 1301 0200 38060000 		.4byte	0x638
 1302 0204 24       		.byte	0x24
 1303 0205 09       		.uleb128 0x9
 1304 0206 6B040000 		.4byte	.LASF42
 1305 020a 02       		.byte	0x2
 1306 020b 3601     		.2byte	0x136
 1307 020d 72020000 		.4byte	0x272
 1308 0211 28       		.byte	0x28
 1309 0212 09       		.uleb128 0x9
 1310 0213 5B020000 		.4byte	.LASF43
 1311 0217 02       		.byte	0x2
ARM GAS  /var/tmp//cc3kRWEe.s 			page 24


 1312 0218 3C01     		.2byte	0x13c
 1313 021a 96020000 		.4byte	0x296
 1314 021e 2C       		.byte	0x2c
 1315 021f 09       		.uleb128 0x9
 1316 0220 44070000 		.4byte	.LASF44
 1317 0224 02       		.byte	0x2
 1318 0225 4001     		.2byte	0x140
 1319 0227 20010000 		.4byte	0x120
 1320 022b 34       		.byte	0x34
 1321 022c 09       		.uleb128 0x9
 1322 022d 32060000 		.4byte	.LASF45
 1323 0231 02       		.byte	0x2
 1324 0232 4601     		.2byte	0x146
 1325 0234 2B010000 		.4byte	0x12b
 1326 0238 38       		.byte	0x38
 1327 0239 09       		.uleb128 0x9
 1328 023a 84050000 		.4byte	.LASF46
 1329 023e 02       		.byte	0x2
 1330 023f 4D01     		.2byte	0x14d
 1331 0241 F7060000 		.4byte	0x6f7
 1332 0245 3C       		.byte	0x3c
 1333 0246 09       		.uleb128 0x9
 1334 0247 CC060000 		.4byte	.LASF47
 1335 024b 02       		.byte	0x2
 1336 024c 5101     		.2byte	0x151
 1337 024e 15010000 		.4byte	0x115
 1338 0252 40       		.byte	0x40
 1339 0253 09       		.uleb128 0x9
 1340 0254 28010000 		.4byte	.LASF48
 1341 0258 02       		.byte	0x2
 1342 0259 5801     		.2byte	0x158
 1343 025b 4E030000 		.4byte	0x34e
 1344 025f 44       		.byte	0x44
 1345 0260 00       		.byte	0
 1346 0261 04       		.uleb128 0x4
 1347 0262 82070000 		.4byte	.LASF49
 1348 0266 07       		.byte	0x7
 1349 0267 44       		.byte	0x44
 1350 0268 6C020000 		.4byte	0x26c
 1351 026c 0A       		.uleb128 0xa
 1352 026d 04       		.byte	0x4
 1353 026e 51010000 		.4byte	0x151
 1354 0272 04       		.uleb128 0x4
 1355 0273 48040000 		.4byte	.LASF50
 1356 0277 07       		.byte	0x7
 1357 0278 49       		.byte	0x49
 1358 0279 7D020000 		.4byte	0x27d
 1359 027d 06       		.uleb128 0x6
 1360 027e 66060000 		.4byte	.LASF52
 1361 0282 04       		.byte	0x4
 1362 0283 02       		.byte	0x2
 1363 0284 B0       		.byte	0xb0
 1364 0285 96020000 		.4byte	0x296
 1365 0289 07       		.uleb128 0x7
 1366 028a B0050000 		.4byte	.LASF30
 1367 028e 02       		.byte	0x2
 1368 028f B1       		.byte	0xb1
ARM GAS  /var/tmp//cc3kRWEe.s 			page 25


 1369 0290 6C020000 		.4byte	0x26c
 1370 0294 00       		.byte	0
 1371 0295 00       		.byte	0
 1372 0296 04       		.uleb128 0x4
 1373 0297 E9050000 		.4byte	.LASF53
 1374 029b 07       		.byte	0x7
 1375 029c 50       		.byte	0x50
 1376 029d A6020000 		.4byte	0x2a6
 1377 02a1 0B       		.uleb128 0xb
 1378 02a2 96020000 		.4byte	0x296
 1379 02a6 06       		.uleb128 0x6
 1380 02a7 C6000000 		.4byte	.LASF54
 1381 02ab 08       		.byte	0x8
 1382 02ac 02       		.byte	0x2
 1383 02ad B7       		.byte	0xb7
 1384 02ae CB020000 		.4byte	0x2cb
 1385 02b2 07       		.uleb128 0x7
 1386 02b3 B0050000 		.4byte	.LASF30
 1387 02b7 02       		.byte	0x2
 1388 02b8 B8       		.byte	0xb8
 1389 02b9 6C020000 		.4byte	0x26c
 1390 02bd 00       		.byte	0
 1391 02be 07       		.uleb128 0x7
 1392 02bf 31050000 		.4byte	.LASF31
 1393 02c3 02       		.byte	0x2
 1394 02c4 B9       		.byte	0xb9
 1395 02c5 6C020000 		.4byte	0x26c
 1396 02c9 04       		.byte	0x4
 1397 02ca 00       		.byte	0
 1398 02cb 04       		.uleb128 0x4
 1399 02cc 0D000000 		.4byte	.LASF55
 1400 02d0 07       		.byte	0x7
 1401 02d1 57       		.byte	0x57
 1402 02d2 D6020000 		.4byte	0x2d6
 1403 02d6 0C       		.uleb128 0xc
 1404 02d7 E8020000 		.4byte	.LASF56
 1405 02db 1C       		.byte	0x1c
 1406 02dc 02       		.byte	0x2
 1407 02dd 9001     		.2byte	0x190
 1408 02df 32030000 		.4byte	0x332
 1409 02e3 09       		.uleb128 0x9
 1410 02e4 52060000 		.4byte	.LASF57
 1411 02e8 02       		.byte	0x2
 1412 02e9 9101     		.2byte	0x191
 1413 02eb 96020000 		.4byte	0x296
 1414 02ef 00       		.byte	0
 1415 02f0 09       		.uleb128 0x9
 1416 02f1 A2050000 		.4byte	.LASF58
 1417 02f5 02       		.byte	0x2
 1418 02f6 9201     		.2byte	0x192
 1419 02f8 15010000 		.4byte	0x115
 1420 02fc 08       		.byte	0x8
 1421 02fd 09       		.uleb128 0x9
 1422 02fe CD040000 		.4byte	.LASF59
 1423 0302 02       		.byte	0x2
 1424 0303 9401     		.2byte	0x194
 1425 0305 B8040000 		.4byte	0x4b8
ARM GAS  /var/tmp//cc3kRWEe.s 			page 26


 1426 0309 0C       		.byte	0xc
 1427 030a 09       		.uleb128 0x9
 1428 030b C7010000 		.4byte	.LASF60
 1429 030f 02       		.byte	0x2
 1430 0310 9701     		.2byte	0x197
 1431 0312 6C020000 		.4byte	0x26c
 1432 0316 10       		.byte	0x10
 1433 0317 09       		.uleb128 0x9
 1434 0318 FB040000 		.4byte	.LASF61
 1435 031c 02       		.byte	0x2
 1436 031d 9801     		.2byte	0x198
 1437 031f 6C020000 		.4byte	0x26c
 1438 0323 14       		.byte	0x14
 1439 0324 09       		.uleb128 0x9
 1440 0325 F1040000 		.4byte	.LASF62
 1441 0329 02       		.byte	0x2
 1442 032a 9B01     		.2byte	0x19b
 1443 032c 6C020000 		.4byte	0x26c
 1444 0330 18       		.byte	0x18
 1445 0331 00       		.byte	0
 1446 0332 04       		.uleb128 0x4
 1447 0333 D7060000 		.4byte	.LASF63
 1448 0337 07       		.byte	0x7
 1449 0338 5C       		.byte	0x5c
 1450 0339 3D030000 		.4byte	0x33d
 1451 033d 0A       		.uleb128 0xa
 1452 033e 04       		.byte	0x4
 1453 033f 43030000 		.4byte	0x343
 1454 0343 0D       		.uleb128 0xd
 1455 0344 4E030000 		.4byte	0x34e
 1456 0348 0E       		.uleb128 0xe
 1457 0349 4E030000 		.4byte	0x34e
 1458 034d 00       		.byte	0
 1459 034e 0F       		.uleb128 0xf
 1460 034f 04       		.byte	0x4
 1461 0350 04       		.uleb128 0x4
 1462 0351 21050000 		.4byte	.LASF64
 1463 0355 07       		.byte	0x7
 1464 0356 61       		.byte	0x61
 1465 0357 5B030000 		.4byte	0x35b
 1466 035b 0C       		.uleb128 0xc
 1467 035c F9050000 		.4byte	.LASF65
 1468 0360 14       		.byte	0x14
 1469 0361 02       		.byte	0x2
 1470 0362 6B01     		.2byte	0x16b
 1471 0364 AA030000 		.4byte	0x3aa
 1472 0368 09       		.uleb128 0x9
 1473 0369 23020000 		.4byte	.LASF66
 1474 036d 02       		.byte	0x2
 1475 036e 6C01     		.2byte	0x16c
 1476 0370 14070000 		.4byte	0x714
 1477 0374 00       		.byte	0
 1478 0375 09       		.uleb128 0x9
 1479 0376 D8010000 		.4byte	.LASF67
 1480 037a 02       		.byte	0x2
 1481 037b 6D01     		.2byte	0x16d
 1482 037d 14070000 		.4byte	0x714
ARM GAS  /var/tmp//cc3kRWEe.s 			page 27


 1483 0381 04       		.byte	0x4
 1484 0382 09       		.uleb128 0x9
 1485 0383 52020000 		.4byte	.LASF68
 1486 0387 02       		.byte	0x2
 1487 0388 6E01     		.2byte	0x16e
 1488 038a 41010000 		.4byte	0x141
 1489 038e 08       		.byte	0x8
 1490 038f 09       		.uleb128 0x9
 1491 0390 F8070000 		.4byte	.LASF69
 1492 0394 02       		.byte	0x2
 1493 0395 6F01     		.2byte	0x16f
 1494 0397 32030000 		.4byte	0x332
 1495 039b 0C       		.byte	0xc
 1496 039c 09       		.uleb128 0x9
 1497 039d 52070000 		.4byte	.LASF70
 1498 03a1 02       		.byte	0x2
 1499 03a2 7101     		.2byte	0x171
 1500 03a4 4E030000 		.4byte	0x34e
 1501 03a8 10       		.byte	0x10
 1502 03a9 00       		.byte	0
 1503 03aa 04       		.uleb128 0x4
 1504 03ab A3000000 		.4byte	.LASF71
 1505 03af 07       		.byte	0x7
 1506 03b0 66       		.byte	0x66
 1507 03b1 B5030000 		.4byte	0x3b5
 1508 03b5 0C       		.uleb128 0xc
 1509 03b6 7E040000 		.4byte	.LASF72
 1510 03ba 10       		.byte	0x10
 1511 03bb 02       		.byte	0x2
 1512 03bc 7B01     		.2byte	0x17b
 1513 03be F7030000 		.4byte	0x3f7
 1514 03c2 09       		.uleb128 0x9
 1515 03c3 23020000 		.4byte	.LASF66
 1516 03c7 02       		.byte	0x2
 1517 03c8 7C01     		.2byte	0x17c
 1518 03ca 14070000 		.4byte	0x714
 1519 03ce 00       		.byte	0
 1520 03cf 09       		.uleb128 0x9
 1521 03d0 D8010000 		.4byte	.LASF67
 1522 03d4 02       		.byte	0x2
 1523 03d5 7E01     		.2byte	0x17e
 1524 03d7 14070000 		.4byte	0x714
 1525 03db 04       		.byte	0x4
 1526 03dc 09       		.uleb128 0x9
 1527 03dd 52020000 		.4byte	.LASF68
 1528 03e1 02       		.byte	0x2
 1529 03e2 8001     		.2byte	0x180
 1530 03e4 41010000 		.4byte	0x141
 1531 03e8 08       		.byte	0x8
 1532 03e9 09       		.uleb128 0x9
 1533 03ea A3070000 		.4byte	.LASF73
 1534 03ee 02       		.byte	0x2
 1535 03ef 8201     		.2byte	0x182
 1536 03f1 4C010000 		.4byte	0x14c
 1537 03f5 0C       		.byte	0xc
 1538 03f6 00       		.byte	0
 1539 03f7 04       		.uleb128 0x4
ARM GAS  /var/tmp//cc3kRWEe.s 			page 28


 1540 03f8 46000000 		.4byte	.LASF74
 1541 03fc 07       		.byte	0x7
 1542 03fd 6B       		.byte	0x6b
 1543 03fe 02040000 		.4byte	0x402
 1544 0402 0C       		.uleb128 0xc
 1545 0403 50050000 		.4byte	.LASF75
 1546 0407 04       		.byte	0x4
 1547 0408 02       		.byte	0x2
 1548 0409 A201     		.2byte	0x1a2
 1549 040b 1D040000 		.4byte	0x41d
 1550 040f 09       		.uleb128 0x9
 1551 0410 FF060000 		.4byte	.LASF76
 1552 0414 02       		.byte	0x2
 1553 0415 AA01     		.2byte	0x1aa
 1554 0417 03070000 		.4byte	0x703
 1555 041b 00       		.byte	0
 1556 041c 00       		.byte	0
 1557 041d 04       		.uleb128 0x4
 1558 041e 38070000 		.4byte	.LASF77
 1559 0422 07       		.byte	0x7
 1560 0423 70       		.byte	0x70
 1561 0424 28040000 		.4byte	0x428
 1562 0428 10       		.uleb128 0x10
 1563 0429 55010000 		.4byte	.LASF78
 1564 042d 5802     		.2byte	0x258
 1565 042f 02       		.byte	0x2
 1566 0430 C201     		.2byte	0x1c2
 1567 0432 84040000 		.4byte	0x484
 1568 0436 09       		.uleb128 0x9
 1569 0437 74070000 		.4byte	.LASF79
 1570 043b 02       		.byte	0x2
 1571 043c C601     		.2byte	0x1c6
 1572 043e CB020000 		.4byte	0x2cb
 1573 0442 00       		.byte	0
 1574 0443 09       		.uleb128 0x9
 1575 0444 38010000 		.4byte	.LASF80
 1576 0448 02       		.byte	0x2
 1577 0449 CA01     		.2byte	0x1ca
 1578 044b AA030000 		.4byte	0x3aa
 1579 044f 1C       		.byte	0x1c
 1580 0450 08       		.uleb128 0x8
 1581 0451 64626700 		.ascii	"dbg\000"
 1582 0455 02       		.byte	0x2
 1583 0456 CE01     		.2byte	0x1ce
 1584 0458 F7030000 		.4byte	0x3f7
 1585 045c 2C       		.byte	0x2c
 1586 045d 09       		.uleb128 0x9
 1587 045e 98000000 		.4byte	.LASF81
 1588 0462 02       		.byte	0x2
 1589 0463 D201     		.2byte	0x1d2
 1590 0465 51010000 		.4byte	0x151
 1591 0469 30       		.byte	0x30
 1592 046a 08       		.uleb128 0x8
 1593 046b 746D00   		.ascii	"tm\000"
 1594 046e 02       		.byte	0x2
 1595 046f D701     		.2byte	0x1d7
 1596 0471 2D060000 		.4byte	0x62d
ARM GAS  /var/tmp//cc3kRWEe.s 			page 29


 1597 0475 78       		.byte	0x78
 1598 0476 09       		.uleb128 0x9
 1599 0477 F4010000 		.4byte	.LASF82
 1600 047b 02       		.byte	0x2
 1601 047c E301     		.2byte	0x1e3
 1602 047e 1A070000 		.4byte	0x71a
 1603 0482 80       		.byte	0x80
 1604 0483 00       		.byte	0
 1605 0484 03       		.uleb128 0x3
 1606 0485 04       		.byte	0x4
 1607 0486 07       		.byte	0x7
 1608 0487 75040000 		.4byte	.LASF83
 1609 048b 11       		.uleb128 0x11
 1610 048c B9000000 		.4byte	.LASF84
 1611 0490 08       		.byte	0x8
 1612 0491 A706     		.2byte	0x6a7
 1613 0493 C3000000 		.4byte	0xc3
 1614 0497 12       		.uleb128 0x12
 1615 0498 34020000 		.4byte	.LASF85
 1616 049c 09       		.byte	0x9
 1617 049d 4C       		.byte	0x4c
 1618 049e C8000000 		.4byte	0xc8
 1619 04a2 04       		.uleb128 0x4
 1620 04a3 CF010000 		.4byte	.LASF86
 1621 04a7 0A       		.byte	0xa
 1622 04a8 65       		.byte	0x65
 1623 04a9 4E030000 		.4byte	0x34e
 1624 04ad 04       		.uleb128 0x4
 1625 04ae 19030000 		.4byte	.LASF87
 1626 04b2 0A       		.byte	0xa
 1627 04b3 6D       		.byte	0x6d
 1628 04b4 D3000000 		.4byte	0xd3
 1629 04b8 06       		.uleb128 0x6
 1630 04b9 30070000 		.4byte	.LASF88
 1631 04bd 04       		.byte	0x4
 1632 04be 0A       		.byte	0xa
 1633 04bf 89       		.byte	0x89
 1634 04c0 D1040000 		.4byte	0x4d1
 1635 04c4 13       		.uleb128 0x13
 1636 04c5 72313300 		.ascii	"r13\000"
 1637 04c9 0A       		.byte	0xa
 1638 04ca 8A       		.byte	0x8a
 1639 04cb 12060000 		.4byte	0x612
 1640 04cf 00       		.byte	0
 1641 04d0 00       		.byte	0
 1642 04d1 06       		.uleb128 0x6
 1643 04d2 3A000000 		.4byte	.LASF89
 1644 04d6 64       		.byte	0x64
 1645 04d7 0B       		.byte	0xb
 1646 04d8 F4       		.byte	0xf4
 1647 04d9 12060000 		.4byte	0x612
 1648 04dd 13       		.uleb128 0x13
 1649 04de 73313600 		.ascii	"s16\000"
 1650 04e2 0B       		.byte	0xb
 1651 04e3 F6       		.byte	0xf6
 1652 04e4 A2040000 		.4byte	0x4a2
 1653 04e8 00       		.byte	0
ARM GAS  /var/tmp//cc3kRWEe.s 			page 30


 1654 04e9 13       		.uleb128 0x13
 1655 04ea 73313700 		.ascii	"s17\000"
 1656 04ee 0B       		.byte	0xb
 1657 04ef F7       		.byte	0xf7
 1658 04f0 A2040000 		.4byte	0x4a2
 1659 04f4 04       		.byte	0x4
 1660 04f5 13       		.uleb128 0x13
 1661 04f6 73313800 		.ascii	"s18\000"
 1662 04fa 0B       		.byte	0xb
 1663 04fb F8       		.byte	0xf8
 1664 04fc A2040000 		.4byte	0x4a2
 1665 0500 08       		.byte	0x8
 1666 0501 13       		.uleb128 0x13
 1667 0502 73313900 		.ascii	"s19\000"
 1668 0506 0B       		.byte	0xb
 1669 0507 F9       		.byte	0xf9
 1670 0508 A2040000 		.4byte	0x4a2
 1671 050c 0C       		.byte	0xc
 1672 050d 13       		.uleb128 0x13
 1673 050e 73323000 		.ascii	"s20\000"
 1674 0512 0B       		.byte	0xb
 1675 0513 FA       		.byte	0xfa
 1676 0514 A2040000 		.4byte	0x4a2
 1677 0518 10       		.byte	0x10
 1678 0519 13       		.uleb128 0x13
 1679 051a 73323100 		.ascii	"s21\000"
 1680 051e 0B       		.byte	0xb
 1681 051f FB       		.byte	0xfb
 1682 0520 A2040000 		.4byte	0x4a2
 1683 0524 14       		.byte	0x14
 1684 0525 13       		.uleb128 0x13
 1685 0526 73323200 		.ascii	"s22\000"
 1686 052a 0B       		.byte	0xb
 1687 052b FC       		.byte	0xfc
 1688 052c A2040000 		.4byte	0x4a2
 1689 0530 18       		.byte	0x18
 1690 0531 13       		.uleb128 0x13
 1691 0532 73323300 		.ascii	"s23\000"
 1692 0536 0B       		.byte	0xb
 1693 0537 FD       		.byte	0xfd
 1694 0538 A2040000 		.4byte	0x4a2
 1695 053c 1C       		.byte	0x1c
 1696 053d 13       		.uleb128 0x13
 1697 053e 73323400 		.ascii	"s24\000"
 1698 0542 0B       		.byte	0xb
 1699 0543 FE       		.byte	0xfe
 1700 0544 A2040000 		.4byte	0x4a2
 1701 0548 20       		.byte	0x20
 1702 0549 13       		.uleb128 0x13
 1703 054a 73323500 		.ascii	"s25\000"
 1704 054e 0B       		.byte	0xb
 1705 054f FF       		.byte	0xff
 1706 0550 A2040000 		.4byte	0x4a2
 1707 0554 24       		.byte	0x24
 1708 0555 08       		.uleb128 0x8
 1709 0556 73323600 		.ascii	"s26\000"
 1710 055a 0B       		.byte	0xb
ARM GAS  /var/tmp//cc3kRWEe.s 			page 31


 1711 055b 0001     		.2byte	0x100
 1712 055d A2040000 		.4byte	0x4a2
 1713 0561 28       		.byte	0x28
 1714 0562 08       		.uleb128 0x8
 1715 0563 73323700 		.ascii	"s27\000"
 1716 0567 0B       		.byte	0xb
 1717 0568 0101     		.2byte	0x101
 1718 056a A2040000 		.4byte	0x4a2
 1719 056e 2C       		.byte	0x2c
 1720 056f 08       		.uleb128 0x8
 1721 0570 73323800 		.ascii	"s28\000"
 1722 0574 0B       		.byte	0xb
 1723 0575 0201     		.2byte	0x102
 1724 0577 A2040000 		.4byte	0x4a2
 1725 057b 30       		.byte	0x30
 1726 057c 08       		.uleb128 0x8
 1727 057d 73323900 		.ascii	"s29\000"
 1728 0581 0B       		.byte	0xb
 1729 0582 0301     		.2byte	0x103
 1730 0584 A2040000 		.4byte	0x4a2
 1731 0588 34       		.byte	0x34
 1732 0589 08       		.uleb128 0x8
 1733 058a 73333000 		.ascii	"s30\000"
 1734 058e 0B       		.byte	0xb
 1735 058f 0401     		.2byte	0x104
 1736 0591 A2040000 		.4byte	0x4a2
 1737 0595 38       		.byte	0x38
 1738 0596 08       		.uleb128 0x8
 1739 0597 73333100 		.ascii	"s31\000"
 1740 059b 0B       		.byte	0xb
 1741 059c 0501     		.2byte	0x105
 1742 059e A2040000 		.4byte	0x4a2
 1743 05a2 3C       		.byte	0x3c
 1744 05a3 08       		.uleb128 0x8
 1745 05a4 723400   		.ascii	"r4\000"
 1746 05a7 0B       		.byte	0xb
 1747 05a8 0701     		.2byte	0x107
 1748 05aa A2040000 		.4byte	0x4a2
 1749 05ae 40       		.byte	0x40
 1750 05af 08       		.uleb128 0x8
 1751 05b0 723500   		.ascii	"r5\000"
 1752 05b3 0B       		.byte	0xb
 1753 05b4 0801     		.2byte	0x108
 1754 05b6 A2040000 		.4byte	0x4a2
 1755 05ba 44       		.byte	0x44
 1756 05bb 08       		.uleb128 0x8
 1757 05bc 723600   		.ascii	"r6\000"
 1758 05bf 0B       		.byte	0xb
 1759 05c0 0901     		.2byte	0x109
 1760 05c2 A2040000 		.4byte	0x4a2
 1761 05c6 48       		.byte	0x48
 1762 05c7 08       		.uleb128 0x8
 1763 05c8 723700   		.ascii	"r7\000"
 1764 05cb 0B       		.byte	0xb
 1765 05cc 0A01     		.2byte	0x10a
 1766 05ce A2040000 		.4byte	0x4a2
 1767 05d2 4C       		.byte	0x4c
ARM GAS  /var/tmp//cc3kRWEe.s 			page 32


 1768 05d3 08       		.uleb128 0x8
 1769 05d4 723800   		.ascii	"r8\000"
 1770 05d7 0B       		.byte	0xb
 1771 05d8 0B01     		.2byte	0x10b
 1772 05da A2040000 		.4byte	0x4a2
 1773 05de 50       		.byte	0x50
 1774 05df 08       		.uleb128 0x8
 1775 05e0 723900   		.ascii	"r9\000"
 1776 05e3 0B       		.byte	0xb
 1777 05e4 0C01     		.2byte	0x10c
 1778 05e6 A2040000 		.4byte	0x4a2
 1779 05ea 54       		.byte	0x54
 1780 05eb 08       		.uleb128 0x8
 1781 05ec 72313000 		.ascii	"r10\000"
 1782 05f0 0B       		.byte	0xb
 1783 05f1 0D01     		.2byte	0x10d
 1784 05f3 A2040000 		.4byte	0x4a2
 1785 05f7 58       		.byte	0x58
 1786 05f8 08       		.uleb128 0x8
 1787 05f9 72313100 		.ascii	"r11\000"
 1788 05fd 0B       		.byte	0xb
 1789 05fe 0E01     		.2byte	0x10e
 1790 0600 A2040000 		.4byte	0x4a2
 1791 0604 5C       		.byte	0x5c
 1792 0605 08       		.uleb128 0x8
 1793 0606 6C7200   		.ascii	"lr\000"
 1794 0609 0B       		.byte	0xb
 1795 060a 0F01     		.2byte	0x10f
 1796 060c A2040000 		.4byte	0x4a2
 1797 0610 60       		.byte	0x60
 1798 0611 00       		.byte	0
 1799 0612 0A       		.uleb128 0xa
 1800 0613 04       		.byte	0x4
 1801 0614 D1040000 		.4byte	0x4d1
 1802 0618 14       		.uleb128 0x14
 1803 0619 04       		.byte	0x4
 1804 061a 0C       		.byte	0xc
 1805 061b 38       		.byte	0x38
 1806 061c 2D060000 		.4byte	0x62d
 1807 0620 07       		.uleb128 0x7
 1808 0621 09070000 		.4byte	.LASF90
 1809 0625 0C       		.byte	0xc
 1810 0626 3C       		.byte	0x3c
 1811 0627 DE000000 		.4byte	0xde
 1812 062b 00       		.byte	0
 1813 062c 00       		.byte	0
 1814 062d 04       		.uleb128 0x4
 1815 062e D9040000 		.4byte	.LASF91
 1816 0632 0C       		.byte	0xc
 1817 0633 3D       		.byte	0x3d
 1818 0634 18060000 		.4byte	0x618
 1819 0638 15       		.uleb128 0x15
 1820 0639 04       		.byte	0x4
 1821 063a 02       		.byte	0x2
 1822 063b FA       		.byte	0xfa
 1823 063c 95060000 		.4byte	0x695
 1824 0640 16       		.uleb128 0x16
ARM GAS  /var/tmp//cc3kRWEe.s 			page 33


 1825 0641 20000000 		.4byte	.LASF92
 1826 0645 02       		.byte	0x2
 1827 0646 0101     		.2byte	0x101
 1828 0648 20010000 		.4byte	0x120
 1829 064c 16       		.uleb128 0x16
 1830 064d 8F000000 		.4byte	.LASF93
 1831 0651 02       		.byte	0x2
 1832 0652 0801     		.2byte	0x108
 1833 0654 20010000 		.4byte	0x120
 1834 0658 16       		.uleb128 0x16
 1835 0659 95070000 		.4byte	.LASF94
 1836 065d 02       		.byte	0x2
 1837 065e 0F01     		.2byte	0x10f
 1838 0660 4E030000 		.4byte	0x34e
 1839 0664 16       		.uleb128 0x16
 1840 0665 1A000000 		.4byte	.LASF95
 1841 0669 02       		.byte	0x2
 1842 066a 1601     		.2byte	0x116
 1843 066c 95060000 		.4byte	0x695
 1844 0670 16       		.uleb128 0x16
 1845 0671 4B020000 		.4byte	.LASF96
 1846 0675 02       		.byte	0x2
 1847 0676 1E01     		.2byte	0x11e
 1848 0678 C0060000 		.4byte	0x6c0
 1849 067c 16       		.uleb128 0x16
 1850 067d 95060000 		.4byte	.LASF97
 1851 0681 02       		.byte	0x2
 1852 0682 2701     		.2byte	0x127
 1853 0684 F7060000 		.4byte	0x6f7
 1854 0688 16       		.uleb128 0x16
 1855 0689 A9050000 		.4byte	.LASF98
 1856 068d 02       		.byte	0x2
 1857 068e 2F01     		.2byte	0x12f
 1858 0690 2B010000 		.4byte	0x12b
 1859 0694 00       		.byte	0
 1860 0695 0A       		.uleb128 0xa
 1861 0696 04       		.byte	0x4
 1862 0697 61020000 		.4byte	0x261
 1863 069b 06       		.uleb128 0x6
 1864 069c 17060000 		.4byte	.LASF99
 1865 06a0 0C       		.byte	0xc
 1866 06a1 0D       		.byte	0xd
 1867 06a2 34       		.byte	0x34
 1868 06a3 C0060000 		.4byte	0x6c0
 1869 06a7 07       		.uleb128 0x7
 1870 06a8 AE010000 		.4byte	.LASF100
 1871 06ac 0D       		.byte	0xd
 1872 06ad 35       		.byte	0x35
 1873 06ae 96020000 		.4byte	0x296
 1874 06b2 00       		.byte	0
 1875 06b3 07       		.uleb128 0x7
 1876 06b4 6F020000 		.4byte	.LASF101
 1877 06b8 0D       		.byte	0xd
 1878 06b9 37       		.byte	0x37
 1879 06ba 36010000 		.4byte	0x136
 1880 06be 08       		.byte	0x8
 1881 06bf 00       		.byte	0
ARM GAS  /var/tmp//cc3kRWEe.s 			page 34


 1882 06c0 0A       		.uleb128 0xa
 1883 06c1 04       		.byte	0x4
 1884 06c2 9B060000 		.4byte	0x69b
 1885 06c6 06       		.uleb128 0x6
 1886 06c7 64070000 		.4byte	.LASF102
 1887 06cb 10       		.byte	0x10
 1888 06cc 0E       		.byte	0xe
 1889 06cd 39       		.byte	0x39
 1890 06ce F7060000 		.4byte	0x6f7
 1891 06d2 07       		.uleb128 0x7
 1892 06d3 30010000 		.4byte	.LASF103
 1893 06d7 0E       		.byte	0xe
 1894 06d8 3A       		.byte	0x3a
 1895 06d9 96020000 		.4byte	0x296
 1896 06dd 00       		.byte	0
 1897 06de 07       		.uleb128 0x7
 1898 06df E2070000 		.4byte	.LASF104
 1899 06e3 0E       		.byte	0xe
 1900 06e4 3C       		.byte	0x3c
 1901 06e5 6C020000 		.4byte	0x26c
 1902 06e9 08       		.byte	0x8
 1903 06ea 07       		.uleb128 0x7
 1904 06eb EA040000 		.4byte	.LASF105
 1905 06ef 0E       		.byte	0xe
 1906 06f0 3E       		.byte	0x3e
 1907 06f1 4C080000 		.4byte	0x84c
 1908 06f5 0C       		.byte	0xc
 1909 06f6 00       		.byte	0
 1910 06f7 0A       		.uleb128 0xa
 1911 06f8 04       		.byte	0x4
 1912 06f9 C6060000 		.4byte	0x6c6
 1913 06fd 0A       		.uleb128 0xa
 1914 06fe 04       		.byte	0x4
 1915 06ff 0F070000 		.4byte	0x70f
 1916 0703 05       		.uleb128 0x5
 1917 0704 FD060000 		.4byte	0x6fd
 1918 0708 03       		.uleb128 0x3
 1919 0709 01       		.byte	0x1
 1920 070a 08       		.byte	0x8
 1921 070b 90060000 		.4byte	.LASF106
 1922 070f 0B       		.uleb128 0xb
 1923 0710 08070000 		.4byte	0x708
 1924 0714 0A       		.uleb128 0xa
 1925 0715 04       		.byte	0x4
 1926 0716 50030000 		.4byte	0x350
 1927 071a 17       		.uleb128 0x17
 1928 071b AD040000 		.4byte	0x4ad
 1929 071f 2A070000 		.4byte	0x72a
 1930 0723 18       		.uleb128 0x18
 1931 0724 84040000 		.4byte	0x484
 1932 0728 3A       		.byte	0x3a
 1933 0729 00       		.byte	0
 1934 072a 19       		.uleb128 0x19
 1935 072b 636800   		.ascii	"ch\000"
 1936 072e 02       		.byte	0x2
 1937 072f 0902     		.2byte	0x209
 1938 0731 1D040000 		.4byte	0x41d
ARM GAS  /var/tmp//cc3kRWEe.s 			page 35


 1939 0735 14       		.uleb128 0x14
 1940 0736 16       		.byte	0x16
 1941 0737 0F       		.byte	0xf
 1942 0738 34       		.byte	0x34
 1943 0739 16080000 		.4byte	0x816
 1944 073d 07       		.uleb128 0x7
 1945 073e EA070000 		.4byte	.LASF107
 1946 0742 0F       		.byte	0xf
 1947 0743 35       		.byte	0x35
 1948 0744 16080000 		.4byte	0x816
 1949 0748 00       		.byte	0
 1950 0749 07       		.uleb128 0x7
 1951 074a 57040000 		.4byte	.LASF108
 1952 074e 0F       		.byte	0xf
 1953 074f 36       		.byte	0x36
 1954 0750 A2000000 		.4byte	0xa2
 1955 0754 04       		.byte	0x4
 1956 0755 07       		.uleb128 0x7
 1957 0756 76060000 		.4byte	.LASF109
 1958 075a 0F       		.byte	0xf
 1959 075b 37       		.byte	0x37
 1960 075c A2000000 		.4byte	0xa2
 1961 0760 05       		.byte	0x5
 1962 0761 07       		.uleb128 0x7
 1963 0762 BA070000 		.4byte	.LASF110
 1964 0766 0F       		.byte	0xf
 1965 0767 38       		.byte	0x38
 1966 0768 AD000000 		.4byte	0xad
 1967 076c 06       		.byte	0x6
 1968 076d 07       		.uleb128 0x7
 1969 076e 16050000 		.4byte	.LASF111
 1970 0772 0F       		.byte	0xf
 1971 0773 39       		.byte	0x39
 1972 0774 A2000000 		.4byte	0xa2
 1973 0778 08       		.byte	0x8
 1974 0779 07       		.uleb128 0x7
 1975 077a A3040000 		.4byte	.LASF112
 1976 077e 0F       		.byte	0xf
 1977 077f 3A       		.byte	0x3a
 1978 0780 A2000000 		.4byte	0xa2
 1979 0784 09       		.byte	0x9
 1980 0785 07       		.uleb128 0x7
 1981 0786 81000000 		.4byte	.LASF113
 1982 078a 0F       		.byte	0xf
 1983 078b 3B       		.byte	0x3b
 1984 078c A2000000 		.4byte	0xa2
 1985 0790 0A       		.byte	0xa
 1986 0791 07       		.uleb128 0x7
 1987 0792 46060000 		.4byte	.LASF114
 1988 0796 0F       		.byte	0xf
 1989 0797 3C       		.byte	0x3c
 1990 0798 A2000000 		.4byte	0xa2
 1991 079c 0B       		.byte	0xb
 1992 079d 07       		.uleb128 0x7
 1993 079e 59070000 		.4byte	.LASF115
 1994 07a2 0F       		.byte	0xf
 1995 07a3 3D       		.byte	0x3d
ARM GAS  /var/tmp//cc3kRWEe.s 			page 36


 1996 07a4 A2000000 		.4byte	0xa2
 1997 07a8 0C       		.byte	0xc
 1998 07a9 07       		.uleb128 0x7
 1999 07aa 0A060000 		.4byte	.LASF116
 2000 07ae 0F       		.byte	0xf
 2001 07af 3E       		.byte	0x3e
 2002 07b0 A2000000 		.4byte	0xa2
 2003 07b4 0D       		.byte	0xd
 2004 07b5 07       		.uleb128 0x7
 2005 07b6 00000000 		.4byte	.LASF117
 2006 07ba 0F       		.byte	0xf
 2007 07bb 3F       		.byte	0x3f
 2008 07bc A2000000 		.4byte	0xa2
 2009 07c0 0E       		.byte	0xe
 2010 07c1 07       		.uleb128 0x7
 2011 07c2 AF040000 		.4byte	.LASF118
 2012 07c6 0F       		.byte	0xf
 2013 07c7 40       		.byte	0x40
 2014 07c8 A2000000 		.4byte	0xa2
 2015 07cc 0F       		.byte	0xf
 2016 07cd 07       		.uleb128 0x7
 2017 07ce 0B010000 		.4byte	.LASF119
 2018 07d2 0F       		.byte	0xf
 2019 07d3 41       		.byte	0x41
 2020 07d4 A2000000 		.4byte	0xa2
 2021 07d8 10       		.byte	0x10
 2022 07d9 07       		.uleb128 0x7
 2023 07da DE000000 		.4byte	.LASF120
 2024 07de 0F       		.byte	0xf
 2025 07df 43       		.byte	0x43
 2026 07e0 A2000000 		.4byte	0xa2
 2027 07e4 11       		.byte	0x11
 2028 07e5 07       		.uleb128 0x7
 2029 07e6 1B010000 		.4byte	.LASF121
 2030 07ea 0F       		.byte	0xf
 2031 07eb 44       		.byte	0x44
 2032 07ec A2000000 		.4byte	0xa2
 2033 07f0 12       		.byte	0x12
 2034 07f1 07       		.uleb128 0x7
 2035 07f2 5F040000 		.4byte	.LASF122
 2036 07f6 0F       		.byte	0xf
 2037 07f7 45       		.byte	0x45
 2038 07f8 A2000000 		.4byte	0xa2
 2039 07fc 13       		.byte	0x13
 2040 07fd 07       		.uleb128 0x7
 2041 07fe BF050000 		.4byte	.LASF123
 2042 0802 0F       		.byte	0xf
 2043 0803 46       		.byte	0x46
 2044 0804 A2000000 		.4byte	0xa2
 2045 0808 14       		.byte	0x14
 2046 0809 07       		.uleb128 0x7
 2047 080a DC020000 		.4byte	.LASF124
 2048 080e 0F       		.byte	0xf
 2049 080f 48       		.byte	0x48
 2050 0810 A2000000 		.4byte	0xa2
 2051 0814 15       		.byte	0x15
 2052 0815 00       		.byte	0
ARM GAS  /var/tmp//cc3kRWEe.s 			page 37


 2053 0816 17       		.uleb128 0x17
 2054 0817 08070000 		.4byte	0x708
 2055 081b 26080000 		.4byte	0x826
 2056 081f 18       		.uleb128 0x18
 2057 0820 84040000 		.4byte	0x484
 2058 0824 03       		.byte	0x3
 2059 0825 00       		.byte	0
 2060 0826 04       		.uleb128 0x4
 2061 0827 8E010000 		.4byte	.LASF125
 2062 082b 0F       		.byte	0xf
 2063 082c 49       		.byte	0x49
 2064 082d 35070000 		.4byte	0x735
 2065 0831 0B       		.uleb128 0xb
 2066 0832 26080000 		.4byte	0x826
 2067 0836 12       		.uleb128 0x12
 2068 0837 66020000 		.4byte	.LASF126
 2069 083b 0F       		.byte	0xf
 2070 083c 6E       		.byte	0x6e
 2071 083d 31080000 		.4byte	0x831
 2072 0841 04       		.uleb128 0x4
 2073 0842 EB000000 		.4byte	.LASF127
 2074 0846 0E       		.byte	0xe
 2075 0847 34       		.byte	0x34
 2076 0848 C6060000 		.4byte	0x6c6
 2077 084c 0A       		.uleb128 0xa
 2078 084d 04       		.byte	0x4
 2079 084e 41080000 		.4byte	0x841
 2080 0852 1A       		.uleb128 0x1a
 2081 0853 C5020000 		.4byte	.LASF128
 2082 0857 01       		.byte	0x1
 2083 0858 E501     		.2byte	0x1e5
 2084 085a 00000000 		.4byte	.LFB226
 2085 085e 54000000 		.4byte	.LFE226-.LFB226
 2086 0862 01       		.uleb128 0x1
 2087 0863 9C       		.byte	0x9c
 2088 0864 9E090000 		.4byte	0x99e
 2089 0868 1B       		.uleb128 0x1b
 2090 0869 63747000 		.ascii	"ctp\000"
 2091 086d 01       		.byte	0x1
 2092 086e E601     		.2byte	0x1e6
 2093 0870 6C020000 		.4byte	0x26c
 2094 0874 01       		.uleb128 0x1
 2095 0875 54       		.byte	0x54
 2096 0876 1C       		.uleb128 0x1c
 2097 0877 E0000000 		.4byte	.Ldebug_ranges0+0xe0
 2098 087b 05090000 		.4byte	0x905
 2099 087f 1D       		.uleb128 0x1d
 2100 0880 6D7000   		.ascii	"mp\000"
 2101 0883 01       		.byte	0x1
 2102 0884 EB01     		.2byte	0x1eb
 2103 0886 4C080000 		.4byte	0x84c
 2104 088a 00000000 		.4byte	.LLST43
 2105 088e 1C       		.uleb128 0x1c
 2106 088f F8000000 		.4byte	.Ldebug_ranges0+0xf8
 2107 0893 D9080000 		.4byte	0x8d9
 2108 0897 1E       		.uleb128 0x1e
 2109 0898 747000   		.ascii	"tp\000"
ARM GAS  /var/tmp//cc3kRWEe.s 			page 38


 2110 089b 01       		.byte	0x1
 2111 089c F101     		.2byte	0x1f1
 2112 089e 6C020000 		.4byte	0x26c
 2113 08a2 1F       		.uleb128 0x1f
 2114 08a3 BF100000 		.4byte	0x10bf
 2115 08a7 1E000000 		.4byte	.LBB224
 2116 08ab 10010000 		.4byte	.Ldebug_ranges0+0x110
 2117 08af 01       		.byte	0x1
 2118 08b0 F101     		.2byte	0x1f1
 2119 08b2 CF080000 		.4byte	0x8cf
 2120 08b6 20       		.uleb128 0x20
 2121 08b7 D0100000 		.4byte	0x10d0
 2122 08bb 14000000 		.4byte	.LLST44
 2123 08bf 21       		.uleb128 0x21
 2124 08c0 10010000 		.4byte	.Ldebug_ranges0+0x110
 2125 08c4 22       		.uleb128 0x22
 2126 08c5 DC100000 		.4byte	0x10dc
 2127 08c9 32000000 		.4byte	.LLST45
 2128 08cd 00       		.byte	0
 2129 08ce 00       		.byte	0
 2130 08cf 23       		.uleb128 0x23
 2131 08d0 30000000 		.4byte	.LVL88
 2132 08d4 CC110000 		.4byte	0x11cc
 2133 08d8 00       		.byte	0
 2134 08d9 24       		.uleb128 0x24
 2135 08da 63100000 		.4byte	0x1063
 2136 08de 12000000 		.4byte	.LBB219
 2137 08e2 02000000 		.4byte	.LBE219-.LBB219
 2138 08e6 01       		.byte	0x1
 2139 08e7 ED01     		.2byte	0x1ed
 2140 08e9 25       		.uleb128 0x25
 2141 08ea 73100000 		.4byte	0x1073
 2142 08ee 26       		.uleb128 0x26
 2143 08ef 1E110000 		.4byte	0x111e
 2144 08f3 12000000 		.4byte	.LBB221
 2145 08f7 02000000 		.4byte	.LBE221-.LBB221
 2146 08fb 0E       		.byte	0xe
 2147 08fc 85       		.byte	0x85
 2148 08fd 25       		.uleb128 0x25
 2149 08fe 2F110000 		.4byte	0x112f
 2150 0902 00       		.byte	0
 2151 0903 00       		.byte	0
 2152 0904 00       		.byte	0
 2153 0905 1F       		.uleb128 0x1f
 2154 0906 99100000 		.4byte	0x1099
 2155 090a 04000000 		.4byte	.LBB210
 2156 090e C8000000 		.4byte	.Ldebug_ranges0+0xc8
 2157 0912 01       		.byte	0x1
 2158 0913 E801     		.2byte	0x1e8
 2159 0915 45090000 		.4byte	0x945
 2160 0919 27       		.uleb128 0x27
 2161 091a 65110000 		.4byte	0x1165
 2162 091e 04000000 		.4byte	.LBB211
 2163 0922 C8000000 		.4byte	.Ldebug_ranges0+0xc8
 2164 0926 10       		.byte	0x10
 2165 0927 5C01     		.2byte	0x15c
 2166 0929 27       		.uleb128 0x27
ARM GAS  /var/tmp//cc3kRWEe.s 			page 39


 2167 092a 6E110000 		.4byte	0x116e
 2168 092e 04000000 		.4byte	.LBB212
 2169 0932 C8000000 		.4byte	.Ldebug_ranges0+0xc8
 2170 0936 0B       		.byte	0xb
 2171 0937 BF01     		.2byte	0x1bf
 2172 0939 20       		.uleb128 0x20
 2173 093a 7B110000 		.4byte	0x117b
 2174 093e 50000000 		.4byte	.LLST42
 2175 0942 00       		.byte	0
 2176 0943 00       		.byte	0
 2177 0944 00       		.byte	0
 2178 0945 28       		.uleb128 0x28
 2179 0946 7E100000 		.4byte	0x107e
 2180 094a 3E000000 		.4byte	.LBB229
 2181 094e 08000000 		.4byte	.LBE229-.LBB229
 2182 0952 01       		.byte	0x1
 2183 0953 0102     		.2byte	0x201
 2184 0955 94090000 		.4byte	0x994
 2185 0959 29       		.uleb128 0x29
 2186 095a 3E000000 		.4byte	.LBB230
 2187 095e 08000000 		.4byte	.LBE230-.LBB230
 2188 0962 2A       		.uleb128 0x2a
 2189 0963 8B100000 		.4byte	0x108b
 2190 0967 24       		.uleb128 0x24
 2191 0968 5C110000 		.4byte	0x115c
 2192 096c 3E000000 		.4byte	.LBB231
 2193 0970 08000000 		.4byte	.LBE231-.LBB231
 2194 0974 10       		.byte	0x10
 2195 0975 7301     		.2byte	0x173
 2196 0977 24       		.uleb128 0x24
 2197 0978 6E110000 		.4byte	0x116e
 2198 097c 3E000000 		.4byte	.LBB232
 2199 0980 08000000 		.4byte	.LBE232-.LBB232
 2200 0984 0B       		.byte	0xb
 2201 0985 CD01     		.2byte	0x1cd
 2202 0987 20       		.uleb128 0x20
 2203 0988 7B110000 		.4byte	0x117b
 2204 098c 65000000 		.4byte	.LLST46
 2205 0990 00       		.byte	0
 2206 0991 00       		.byte	0
 2207 0992 00       		.byte	0
 2208 0993 00       		.byte	0
 2209 0994 23       		.uleb128 0x23
 2210 0995 3E000000 		.4byte	.LVL89
 2211 0999 D8110000 		.4byte	0x11d8
 2212 099d 00       		.byte	0
 2213 099e 1A       		.uleb128 0x1a
 2214 099f 09020000 		.4byte	.LASF129
 2215 09a3 01       		.byte	0x1
 2216 09a4 9A01     		.2byte	0x19a
 2217 09a6 00000000 		.4byte	.LFB225
 2218 09aa 50000000 		.4byte	.LFE225-.LFB225
 2219 09ae 01       		.uleb128 0x1
 2220 09af 9C       		.byte	0x9c
 2221 09b0 AA0A0000 		.4byte	0xaaa
 2222 09b4 2B       		.uleb128 0x2b
 2223 09b5 6D7000   		.ascii	"mp\000"
ARM GAS  /var/tmp//cc3kRWEe.s 			page 40


 2224 09b8 01       		.byte	0x1
 2225 09b9 9A01     		.2byte	0x19a
 2226 09bb 4C080000 		.4byte	0x84c
 2227 09bf 79000000 		.4byte	.LLST34
 2228 09c3 1D       		.uleb128 0x1d
 2229 09c4 63747000 		.ascii	"ctp\000"
 2230 09c8 01       		.byte	0x1
 2231 09c9 9B01     		.2byte	0x19b
 2232 09cb 6C020000 		.4byte	0x26c
 2233 09cf CA000000 		.4byte	.LLST35
 2234 09d3 1D       		.uleb128 0x1d
 2235 09d4 6C6D7000 		.ascii	"lmp\000"
 2236 09d8 01       		.byte	0x1
 2237 09d9 9C01     		.2byte	0x19c
 2238 09db 4C080000 		.4byte	0x84c
 2239 09df E8000000 		.4byte	.LLST36
 2240 09e3 2C       		.uleb128 0x2c
 2241 09e4 D6050000 		.4byte	.LASF132
 2242 09e8 BA0A0000 		.4byte	0xaba
 2243 09ec 1C       		.uleb128 0x1c
 2244 09ed 90000000 		.4byte	.Ldebug_ranges0+0x90
 2245 09f1 7E0A0000 		.4byte	0xa7e
 2246 09f5 1E       		.uleb128 0x1e
 2247 09f6 747000   		.ascii	"tp\000"
 2248 09f9 01       		.byte	0x1
 2249 09fa B201     		.2byte	0x1b2
 2250 09fc 6C020000 		.4byte	0x26c
 2251 0a00 2D       		.uleb128 0x2d
 2252 0a01 D4020000 		.4byte	.LASF130
 2253 0a05 01       		.byte	0x1
 2254 0a06 B601     		.2byte	0x1b6
 2255 0a08 15010000 		.4byte	0x115
 2256 0a0c FB000000 		.4byte	.LLST37
 2257 0a10 28       		.uleb128 0x28
 2258 0a11 63100000 		.4byte	0x1063
 2259 0a15 16000000 		.4byte	.LBB199
 2260 0a19 02000000 		.4byte	.LBE199-.LBB199
 2261 0a1d 01       		.byte	0x1
 2262 0a1e BC01     		.2byte	0x1bc
 2263 0a20 470A0000 		.4byte	0xa47
 2264 0a24 20       		.uleb128 0x20
 2265 0a25 73100000 		.4byte	0x1073
 2266 0a29 0E010000 		.4byte	.LLST38
 2267 0a2d 26       		.uleb128 0x26
 2268 0a2e 1E110000 		.4byte	0x111e
 2269 0a32 16000000 		.4byte	.LBB201
 2270 0a36 02000000 		.4byte	.LBE201-.LBB201
 2271 0a3a 0E       		.byte	0xe
 2272 0a3b 85       		.byte	0x85
 2273 0a3c 20       		.uleb128 0x20
 2274 0a3d 2F110000 		.4byte	0x112f
 2275 0a41 0E010000 		.4byte	.LLST38
 2276 0a45 00       		.byte	0
 2277 0a46 00       		.byte	0
 2278 0a47 1F       		.uleb128 0x1f
 2279 0a48 BF100000 		.4byte	0x10bf
 2280 0a4c 2A000000 		.4byte	.LBB203
ARM GAS  /var/tmp//cc3kRWEe.s 			page 41


 2281 0a50 A8000000 		.4byte	.Ldebug_ranges0+0xa8
 2282 0a54 01       		.byte	0x1
 2283 0a55 CC01     		.2byte	0x1cc
 2284 0a57 740A0000 		.4byte	0xa74
 2285 0a5b 20       		.uleb128 0x20
 2286 0a5c D0100000 		.4byte	0x10d0
 2287 0a60 21010000 		.4byte	.LLST40
 2288 0a64 21       		.uleb128 0x21
 2289 0a65 A8000000 		.4byte	.Ldebug_ranges0+0xa8
 2290 0a69 22       		.uleb128 0x22
 2291 0a6a DC100000 		.4byte	0x10dc
 2292 0a6e 34010000 		.4byte	.LLST41
 2293 0a72 00       		.byte	0
 2294 0a73 00       		.byte	0
 2295 0a74 2E       		.uleb128 0x2e
 2296 0a75 42000000 		.4byte	.LVL80
 2297 0a79 CC110000 		.4byte	0x11cc
 2298 0a7d 00       		.byte	0
 2299 0a7e 24       		.uleb128 0x24
 2300 0a7f 63100000 		.4byte	0x1063
 2301 0a83 06000000 		.4byte	.LBB194
 2302 0a87 02000000 		.4byte	.LBE194-.LBB194
 2303 0a8b 01       		.byte	0x1
 2304 0a8c B101     		.2byte	0x1b1
 2305 0a8e 25       		.uleb128 0x25
 2306 0a8f 73100000 		.4byte	0x1073
 2307 0a93 26       		.uleb128 0x26
 2308 0a94 1E110000 		.4byte	0x111e
 2309 0a98 06000000 		.4byte	.LBB196
 2310 0a9c 02000000 		.4byte	.LBE196-.LBB196
 2311 0aa0 0E       		.byte	0xe
 2312 0aa1 85       		.byte	0x85
 2313 0aa2 25       		.uleb128 0x25
 2314 0aa3 2F110000 		.4byte	0x112f
 2315 0aa7 00       		.byte	0
 2316 0aa8 00       		.byte	0
 2317 0aa9 00       		.byte	0
 2318 0aaa 17       		.uleb128 0x17
 2319 0aab 0F070000 		.4byte	0x70f
 2320 0aaf BA0A0000 		.4byte	0xaba
 2321 0ab3 18       		.uleb128 0x18
 2322 0ab4 84040000 		.4byte	0x484
 2323 0ab8 0C       		.byte	0xc
 2324 0ab9 00       		.byte	0
 2325 0aba 0B       		.uleb128 0xb
 2326 0abb AA0A0000 		.4byte	0xaaa
 2327 0abf 1A       		.uleb128 0x1a
 2328 0ac0 F3000000 		.4byte	.LASF131
 2329 0ac4 01       		.byte	0x1
 2330 0ac5 4301     		.2byte	0x143
 2331 0ac7 00000000 		.4byte	.LFB224
 2332 0acb 64000000 		.4byte	.LFE224-.LFB224
 2333 0acf 01       		.uleb128 0x1
 2334 0ad0 9C       		.byte	0x9c
 2335 0ad1 6E0C0000 		.4byte	0xc6e
 2336 0ad5 2B       		.uleb128 0x2b
 2337 0ad6 6D7000   		.ascii	"mp\000"
ARM GAS  /var/tmp//cc3kRWEe.s 			page 42


 2338 0ad9 01       		.byte	0x1
 2339 0ada 4301     		.2byte	0x143
 2340 0adc 4C080000 		.4byte	0x84c
 2341 0ae0 47010000 		.4byte	.LLST24
 2342 0ae4 1D       		.uleb128 0x1d
 2343 0ae5 63747000 		.ascii	"ctp\000"
 2344 0ae9 01       		.byte	0x1
 2345 0aea 4401     		.2byte	0x144
 2346 0aec 6C020000 		.4byte	0x26c
 2347 0af0 7E010000 		.4byte	.LLST25
 2348 0af4 1D       		.uleb128 0x1d
 2349 0af5 6C6D7000 		.ascii	"lmp\000"
 2350 0af9 01       		.byte	0x1
 2351 0afa 4501     		.2byte	0x145
 2352 0afc 4C080000 		.4byte	0x84c
 2353 0b00 91010000 		.4byte	.LLST26
 2354 0b04 2C       		.uleb128 0x2c
 2355 0b05 D6050000 		.4byte	.LASF132
 2356 0b09 7E0C0000 		.4byte	0xc7e
 2357 0b0d 2F       		.uleb128 0x2f
 2358 0b0e 16000000 		.4byte	.LBB175
 2359 0b12 34000000 		.4byte	.LBE175-.LBB175
 2360 0b16 B70B0000 		.4byte	0xbb7
 2361 0b1a 1E       		.uleb128 0x1e
 2362 0b1b 747000   		.ascii	"tp\000"
 2363 0b1e 01       		.byte	0x1
 2364 0b1f 5C01     		.2byte	0x15c
 2365 0b21 6C020000 		.4byte	0x26c
 2366 0b25 2D       		.uleb128 0x2d
 2367 0b26 D4020000 		.4byte	.LASF130
 2368 0b2a 01       		.byte	0x1
 2369 0b2b 6001     		.2byte	0x160
 2370 0b2d 15010000 		.4byte	0x115
 2371 0b31 A4010000 		.4byte	.LLST28
 2372 0b35 28       		.uleb128 0x28
 2373 0b36 63100000 		.4byte	0x1063
 2374 0b3a 1A000000 		.4byte	.LBB176
 2375 0b3e 02000000 		.4byte	.LBE176-.LBB176
 2376 0b42 01       		.byte	0x1
 2377 0b43 6601     		.2byte	0x166
 2378 0b45 6C0B0000 		.4byte	0xb6c
 2379 0b49 20       		.uleb128 0x20
 2380 0b4a 73100000 		.4byte	0x1073
 2381 0b4e B7010000 		.4byte	.LLST29
 2382 0b52 26       		.uleb128 0x26
 2383 0b53 1E110000 		.4byte	0x111e
 2384 0b57 1A000000 		.4byte	.LBB178
 2385 0b5b 02000000 		.4byte	.LBE178-.LBB178
 2386 0b5f 0E       		.byte	0xe
 2387 0b60 85       		.byte	0x85
 2388 0b61 20       		.uleb128 0x20
 2389 0b62 2F110000 		.4byte	0x112f
 2390 0b66 B7010000 		.4byte	.LLST29
 2391 0b6a 00       		.byte	0
 2392 0b6b 00       		.byte	0
 2393 0b6c 1F       		.uleb128 0x1f
 2394 0b6d BF100000 		.4byte	0x10bf
ARM GAS  /var/tmp//cc3kRWEe.s 			page 43


 2395 0b71 30000000 		.4byte	.LBB180
 2396 0b75 60000000 		.4byte	.Ldebug_ranges0+0x60
 2397 0b79 01       		.byte	0x1
 2398 0b7a 7601     		.2byte	0x176
 2399 0b7c 990B0000 		.4byte	0xb99
 2400 0b80 20       		.uleb128 0x20
 2401 0b81 D0100000 		.4byte	0x10d0
 2402 0b85 CA010000 		.4byte	.LLST31
 2403 0b89 21       		.uleb128 0x21
 2404 0b8a 60000000 		.4byte	.Ldebug_ranges0+0x60
 2405 0b8e 22       		.uleb128 0x22
 2406 0b8f DC100000 		.4byte	0x10dc
 2407 0b93 DD010000 		.4byte	.LLST32
 2408 0b97 00       		.byte	0
 2409 0b98 00       		.byte	0
 2410 0b99 30       		.uleb128 0x30
 2411 0b9a 46000000 		.4byte	.LVL61
 2412 0b9e CC110000 		.4byte	0x11cc
 2413 0ba2 AD0B0000 		.4byte	0xbad
 2414 0ba6 31       		.uleb128 0x31
 2415 0ba7 01       		.uleb128 0x1
 2416 0ba8 50       		.byte	0x50
 2417 0ba9 02       		.uleb128 0x2
 2418 0baa 74       		.byte	0x74
 2419 0bab 00       		.sleb128 0
 2420 0bac 00       		.byte	0
 2421 0bad 23       		.uleb128 0x23
 2422 0bae 4A000000 		.4byte	.LVL62
 2423 0bb2 D8110000 		.4byte	0x11d8
 2424 0bb6 00       		.byte	0
 2425 0bb7 28       		.uleb128 0x28
 2426 0bb8 99100000 		.4byte	0x1099
 2427 0bbc 06000000 		.4byte	.LBB167
 2428 0bc0 06000000 		.4byte	.LBE167-.LBB167
 2429 0bc4 01       		.byte	0x1
 2430 0bc5 4901     		.2byte	0x149
 2431 0bc7 F70B0000 		.4byte	0xbf7
 2432 0bcb 24       		.uleb128 0x24
 2433 0bcc 65110000 		.4byte	0x1165
 2434 0bd0 06000000 		.4byte	.LBB168
 2435 0bd4 06000000 		.4byte	.LBE168-.LBB168
 2436 0bd8 10       		.byte	0x10
 2437 0bd9 5C01     		.2byte	0x15c
 2438 0bdb 24       		.uleb128 0x24
 2439 0bdc 6E110000 		.4byte	0x116e
 2440 0be0 06000000 		.4byte	.LBB169
 2441 0be4 06000000 		.4byte	.LBE169-.LBB169
 2442 0be8 0B       		.byte	0xb
 2443 0be9 BF01     		.2byte	0x1bf
 2444 0beb 20       		.uleb128 0x20
 2445 0bec 7B110000 		.4byte	0x117b
 2446 0bf0 F0010000 		.4byte	.LLST27
 2447 0bf4 00       		.byte	0
 2448 0bf5 00       		.byte	0
 2449 0bf6 00       		.byte	0
 2450 0bf7 28       		.uleb128 0x28
 2451 0bf8 63100000 		.4byte	0x1063
ARM GAS  /var/tmp//cc3kRWEe.s 			page 44


 2452 0bfc 0C000000 		.4byte	.LBB171
 2453 0c00 02000000 		.4byte	.LBE171-.LBB171
 2454 0c04 01       		.byte	0x1
 2455 0c05 5B01     		.2byte	0x15b
 2456 0c07 260C0000 		.4byte	0xc26
 2457 0c0b 25       		.uleb128 0x25
 2458 0c0c 73100000 		.4byte	0x1073
 2459 0c10 26       		.uleb128 0x26
 2460 0c11 1E110000 		.4byte	0x111e
 2461 0c15 0C000000 		.4byte	.LBB173
 2462 0c19 02000000 		.4byte	.LBE173-.LBB173
 2463 0c1d 0E       		.byte	0xe
 2464 0c1e 85       		.byte	0x85
 2465 0c1f 25       		.uleb128 0x25
 2466 0c20 2F110000 		.4byte	0x112f
 2467 0c24 00       		.byte	0
 2468 0c25 00       		.byte	0
 2469 0c26 27       		.uleb128 0x27
 2470 0c27 7E100000 		.4byte	0x107e
 2471 0c2b 4A000000 		.4byte	.LBB184
 2472 0c2f 78000000 		.4byte	.Ldebug_ranges0+0x78
 2473 0c33 01       		.byte	0x1
 2474 0c34 8901     		.2byte	0x189
 2475 0c36 21       		.uleb128 0x21
 2476 0c37 78000000 		.4byte	.Ldebug_ranges0+0x78
 2477 0c3b 2A       		.uleb128 0x2a
 2478 0c3c 8B100000 		.4byte	0x108b
 2479 0c40 27       		.uleb128 0x27
 2480 0c41 5C110000 		.4byte	0x115c
 2481 0c45 4A000000 		.4byte	.LBB186
 2482 0c49 78000000 		.4byte	.Ldebug_ranges0+0x78
 2483 0c4d 10       		.byte	0x10
 2484 0c4e 7301     		.2byte	0x173
 2485 0c50 27       		.uleb128 0x27
 2486 0c51 6E110000 		.4byte	0x116e
 2487 0c55 4A000000 		.4byte	.LBB187
 2488 0c59 78000000 		.4byte	.Ldebug_ranges0+0x78
 2489 0c5d 0B       		.byte	0xb
 2490 0c5e CD01     		.2byte	0x1cd
 2491 0c60 20       		.uleb128 0x20
 2492 0c61 7B110000 		.4byte	0x117b
 2493 0c65 05020000 		.4byte	.LLST33
 2494 0c69 00       		.byte	0
 2495 0c6a 00       		.byte	0
 2496 0c6b 00       		.byte	0
 2497 0c6c 00       		.byte	0
 2498 0c6d 00       		.byte	0
 2499 0c6e 17       		.uleb128 0x17
 2500 0c6f 0F070000 		.4byte	0x70f
 2501 0c73 7E0C0000 		.4byte	0xc7e
 2502 0c77 18       		.uleb128 0x18
 2503 0c78 84040000 		.4byte	0x484
 2504 0c7c 0B       		.byte	0xb
 2505 0c7d 00       		.byte	0
 2506 0c7e 0B       		.uleb128 0xb
 2507 0c7f 6E0C0000 		.4byte	0xc6e
 2508 0c83 32       		.uleb128 0x32
ARM GAS  /var/tmp//cc3kRWEe.s 			page 45


 2509 0c84 98010000 		.4byte	.LASF137
 2510 0c88 01       		.byte	0x1
 2511 0c89 1A01     		.2byte	0x11a
 2512 0c8b AD0C0000 		.4byte	0xcad
 2513 0c8f 01       		.byte	0x1
 2514 0c90 AD0C0000 		.4byte	0xcad
 2515 0c94 33       		.uleb128 0x33
 2516 0c95 6D7000   		.ascii	"mp\000"
 2517 0c98 01       		.byte	0x1
 2518 0c99 1A01     		.2byte	0x11a
 2519 0c9b 4C080000 		.4byte	0x84c
 2520 0c9f 34       		.uleb128 0x34
 2521 0ca0 D6050000 		.4byte	.LASF132
 2522 0ca4 C40C0000 		.4byte	0xcc4
 2523 0ca8 98010000 		.4byte	.LASF137
 2524 0cac 00       		.byte	0
 2525 0cad 03       		.uleb128 0x3
 2526 0cae 01       		.byte	0x1
 2527 0caf 02       		.byte	0x2
 2528 0cb0 60050000 		.4byte	.LASF133
 2529 0cb4 17       		.uleb128 0x17
 2530 0cb5 0F070000 		.4byte	0x70f
 2531 0cb9 C40C0000 		.4byte	0xcc4
 2532 0cbd 18       		.uleb128 0x18
 2533 0cbe 84040000 		.4byte	0x484
 2534 0cc2 0D       		.byte	0xd
 2535 0cc3 00       		.byte	0
 2536 0cc4 0B       		.uleb128 0xb
 2537 0cc5 B40C0000 		.4byte	0xcb4
 2538 0cc9 35       		.uleb128 0x35
 2539 0cca 02030000 		.4byte	.LASF156
 2540 0cce 01       		.byte	0x1
 2541 0ccf FF       		.byte	0xff
 2542 0cd0 AD0C0000 		.4byte	0xcad
 2543 0cd4 00000000 		.4byte	.LFB222
 2544 0cd8 30000000 		.4byte	.LFE222-.LFB222
 2545 0cdc 01       		.uleb128 0x1
 2546 0cdd 9C       		.byte	0x9c
 2547 0cde CD0D0000 		.4byte	0xdcd
 2548 0ce2 36       		.uleb128 0x36
 2549 0ce3 6D7000   		.ascii	"mp\000"
 2550 0ce6 01       		.byte	0x1
 2551 0ce7 FF       		.byte	0xff
 2552 0ce8 4C080000 		.4byte	0x84c
 2553 0cec 25020000 		.4byte	.LLST17
 2554 0cf0 1E       		.uleb128 0x1e
 2555 0cf1 6200     		.ascii	"b\000"
 2556 0cf3 01       		.byte	0x1
 2557 0cf4 0001     		.2byte	0x100
 2558 0cf6 AD0C0000 		.4byte	0xcad
 2559 0cfa 28       		.uleb128 0x28
 2560 0cfb 99100000 		.4byte	0x1099
 2561 0cff 02000000 		.4byte	.LBB143
 2562 0d03 06000000 		.4byte	.LBE143-.LBB143
 2563 0d07 01       		.byte	0x1
 2564 0d08 0201     		.2byte	0x102
 2565 0d0a 3A0D0000 		.4byte	0xd3a
ARM GAS  /var/tmp//cc3kRWEe.s 			page 46


 2566 0d0e 24       		.uleb128 0x24
 2567 0d0f 65110000 		.4byte	0x1165
 2568 0d13 02000000 		.4byte	.LBB144
 2569 0d17 06000000 		.4byte	.LBE144-.LBB144
 2570 0d1b 10       		.byte	0x10
 2571 0d1c 5C01     		.2byte	0x15c
 2572 0d1e 24       		.uleb128 0x24
 2573 0d1f 6E110000 		.4byte	0x116e
 2574 0d23 02000000 		.4byte	.LBB145
 2575 0d27 06000000 		.4byte	.LBE145-.LBB145
 2576 0d2b 0B       		.byte	0xb
 2577 0d2c BF01     		.2byte	0x1bf
 2578 0d2e 20       		.uleb128 0x20
 2579 0d2f 7B110000 		.4byte	0x117b
 2580 0d33 68020000 		.4byte	.LLST18
 2581 0d37 00       		.byte	0
 2582 0d38 00       		.byte	0
 2583 0d39 00       		.byte	0
 2584 0d3a 1F       		.uleb128 0x1f
 2585 0d3b 830C0000 		.4byte	0xc83
 2586 0d3f 08000000 		.4byte	.LBB147
 2587 0d43 30000000 		.4byte	.Ldebug_ranges0+0x30
 2588 0d47 01       		.byte	0x1
 2589 0d48 0301     		.2byte	0x103
 2590 0d4a 850D0000 		.4byte	0xd85
 2591 0d4e 20       		.uleb128 0x20
 2592 0d4f 940C0000 		.4byte	0xc94
 2593 0d53 7D020000 		.4byte	.LLST19
 2594 0d57 21       		.uleb128 0x21
 2595 0d58 30000000 		.4byte	.Ldebug_ranges0+0x30
 2596 0d5c 2A       		.uleb128 0x2a
 2597 0d5d 9F0C0000 		.4byte	0xc9f
 2598 0d61 29       		.uleb128 0x29
 2599 0d62 16000000 		.4byte	.LBB149
 2600 0d66 0E000000 		.4byte	.LBE149-.LBB149
 2601 0d6a 20       		.uleb128 0x20
 2602 0d6b 940C0000 		.4byte	0xc94
 2603 0d6f A6020000 		.4byte	.LLST20
 2604 0d73 29       		.uleb128 0x29
 2605 0d74 16000000 		.4byte	.LBB150
 2606 0d78 0E000000 		.4byte	.LBE150-.LBB150
 2607 0d7c 2A       		.uleb128 0x2a
 2608 0d7d 9F0C0000 		.4byte	0xc9f
 2609 0d81 00       		.byte	0
 2610 0d82 00       		.byte	0
 2611 0d83 00       		.byte	0
 2612 0d84 00       		.byte	0
 2613 0d85 27       		.uleb128 0x27
 2614 0d86 7E100000 		.4byte	0x107e
 2615 0d8a 0E000000 		.4byte	.LBB152
 2616 0d8e 48000000 		.4byte	.Ldebug_ranges0+0x48
 2617 0d92 01       		.byte	0x1
 2618 0d93 0401     		.2byte	0x104
 2619 0d95 21       		.uleb128 0x21
 2620 0d96 48000000 		.4byte	.Ldebug_ranges0+0x48
 2621 0d9a 2A       		.uleb128 0x2a
 2622 0d9b 8B100000 		.4byte	0x108b
ARM GAS  /var/tmp//cc3kRWEe.s 			page 47


 2623 0d9f 27       		.uleb128 0x27
 2624 0da0 5C110000 		.4byte	0x115c
 2625 0da4 0E000000 		.4byte	.LBB154
 2626 0da8 48000000 		.4byte	.Ldebug_ranges0+0x48
 2627 0dac 10       		.byte	0x10
 2628 0dad 7301     		.2byte	0x173
 2629 0daf 27       		.uleb128 0x27
 2630 0db0 6E110000 		.4byte	0x116e
 2631 0db4 0E000000 		.4byte	.LBB155
 2632 0db8 48000000 		.4byte	.Ldebug_ranges0+0x48
 2633 0dbc 0B       		.byte	0xb
 2634 0dbd CD01     		.2byte	0x1cd
 2635 0dbf 20       		.uleb128 0x20
 2636 0dc0 7B110000 		.4byte	0x117b
 2637 0dc4 B9020000 		.4byte	.LLST21
 2638 0dc8 00       		.byte	0
 2639 0dc9 00       		.byte	0
 2640 0dca 00       		.byte	0
 2641 0dcb 00       		.byte	0
 2642 0dcc 00       		.byte	0
 2643 0dcd 37       		.uleb128 0x37
 2644 0dce C5070000 		.4byte	.LASF134
 2645 0dd2 01       		.byte	0x1
 2646 0dd3 8B       		.byte	0x8b
 2647 0dd4 00000000 		.4byte	.LFB221
 2648 0dd8 C8000000 		.4byte	.LFE221-.LFB221
 2649 0ddc 01       		.uleb128 0x1
 2650 0ddd 9C       		.byte	0x9c
 2651 0dde 330F0000 		.4byte	0xf33
 2652 0de2 36       		.uleb128 0x36
 2653 0de3 6D7000   		.ascii	"mp\000"
 2654 0de6 01       		.byte	0x1
 2655 0de7 8B       		.byte	0x8b
 2656 0de8 4C080000 		.4byte	0x84c
 2657 0dec D9020000 		.4byte	.LLST1
 2658 0df0 38       		.uleb128 0x38
 2659 0df1 63747000 		.ascii	"ctp\000"
 2660 0df5 01       		.byte	0x1
 2661 0df6 8C       		.byte	0x8c
 2662 0df7 6C020000 		.4byte	0x26c
 2663 0dfb 1B030000 		.4byte	.LLST2
 2664 0dff 2C       		.uleb128 0x2c
 2665 0e00 D6050000 		.4byte	.LASF132
 2666 0e04 430F0000 		.4byte	0xf43
 2667 0e08 21       		.uleb128 0x21
 2668 0e09 00000000 		.4byte	.Ldebug_ranges0+0
 2669 0e0d 38       		.uleb128 0x38
 2670 0e0e 747000   		.ascii	"tp\000"
 2671 0e11 01       		.byte	0x1
 2672 0e12 A1       		.byte	0xa1
 2673 0e13 6C020000 		.4byte	0x26c
 2674 0e17 39030000 		.4byte	.LLST3
 2675 0e1b 39       		.uleb128 0x39
 2676 0e1c EE100000 		.4byte	0x10ee
 2677 0e20 28000000 		.4byte	.LBB106
 2678 0e24 18000000 		.4byte	.LBE106-.LBB106
 2679 0e28 01       		.byte	0x1
ARM GAS  /var/tmp//cc3kRWEe.s 			page 48


 2680 0e29 D4       		.byte	0xd4
 2681 0e2a 540E0000 		.4byte	0xe54
 2682 0e2e 20       		.uleb128 0x20
 2683 0e2f 06110000 		.4byte	0x1106
 2684 0e33 62030000 		.4byte	.LLST4
 2685 0e37 20       		.uleb128 0x20
 2686 0e38 FB100000 		.4byte	0x10fb
 2687 0e3c 75030000 		.4byte	.LLST5
 2688 0e40 29       		.uleb128 0x29
 2689 0e41 28000000 		.4byte	.LBB107
 2690 0e45 18000000 		.4byte	.LBE107-.LBB107
 2691 0e49 22       		.uleb128 0x22
 2692 0e4a 12110000 		.4byte	0x1112
 2693 0e4e 88030000 		.4byte	.LLST6
 2694 0e52 00       		.byte	0
 2695 0e53 00       		.byte	0
 2696 0e54 3A       		.uleb128 0x3a
 2697 0e55 A2100000 		.4byte	0x10a2
 2698 0e59 4C000000 		.4byte	.LBB108
 2699 0e5d 18000000 		.4byte	.Ldebug_ranges0+0x18
 2700 0e61 01       		.byte	0x1
 2701 0e62 CA       		.byte	0xca
 2702 0e63 710E0000 		.4byte	0xe71
 2703 0e67 20       		.uleb128 0x20
 2704 0e68 B3100000 		.4byte	0x10b3
 2705 0e6c A6030000 		.4byte	.LLST7
 2706 0e70 00       		.byte	0
 2707 0e71 39       		.uleb128 0x39
 2708 0e72 A2100000 		.4byte	0x10a2
 2709 0e76 5E000000 		.4byte	.LBB112
 2710 0e7a 0A000000 		.4byte	.LBE112-.LBB112
 2711 0e7e 01       		.byte	0x1
 2712 0e7f C1       		.byte	0xc1
 2713 0e80 8E0E0000 		.4byte	0xe8e
 2714 0e84 20       		.uleb128 0x20
 2715 0e85 B3100000 		.4byte	0x10b3
 2716 0e89 B9030000 		.4byte	.LLST8
 2717 0e8d 00       		.byte	0
 2718 0e8e 39       		.uleb128 0x39
 2719 0e8f EE100000 		.4byte	0x10ee
 2720 0e93 6E000000 		.4byte	.LBB114
 2721 0e97 18000000 		.4byte	.LBE114-.LBB114
 2722 0e9b 01       		.byte	0x1
 2723 0e9c C1       		.byte	0xc1
 2724 0e9d C30E0000 		.4byte	0xec3
 2725 0ea1 20       		.uleb128 0x20
 2726 0ea2 06110000 		.4byte	0x1106
 2727 0ea6 CC030000 		.4byte	.LLST9
 2728 0eaa 25       		.uleb128 0x25
 2729 0eab FB100000 		.4byte	0x10fb
 2730 0eaf 29       		.uleb128 0x29
 2731 0eb0 6E000000 		.4byte	.LBB115
 2732 0eb4 18000000 		.4byte	.LBE115-.LBB115
 2733 0eb8 22       		.uleb128 0x22
 2734 0eb9 12110000 		.4byte	0x1112
 2735 0ebd DF030000 		.4byte	.LLST10
 2736 0ec1 00       		.byte	0
ARM GAS  /var/tmp//cc3kRWEe.s 			page 49


 2737 0ec2 00       		.byte	0
 2738 0ec3 39       		.uleb128 0x39
 2739 0ec4 A2100000 		.4byte	0x10a2
 2740 0ec8 86000000 		.4byte	.LBB116
 2741 0ecc 0A000000 		.4byte	.LBE116-.LBB116
 2742 0ed0 01       		.byte	0x1
 2743 0ed1 AD       		.byte	0xad
 2744 0ed2 E00E0000 		.4byte	0xee0
 2745 0ed6 20       		.uleb128 0x20
 2746 0ed7 B3100000 		.4byte	0x10b3
 2747 0edb F2030000 		.4byte	.LLST11
 2748 0edf 00       		.byte	0
 2749 0ee0 39       		.uleb128 0x39
 2750 0ee1 EE100000 		.4byte	0x10ee
 2751 0ee5 96000000 		.4byte	.LBB118
 2752 0ee9 16000000 		.4byte	.LBE118-.LBB118
 2753 0eed 01       		.byte	0x1
 2754 0eee AD       		.byte	0xad
 2755 0eef 150F0000 		.4byte	0xf15
 2756 0ef3 20       		.uleb128 0x20
 2757 0ef4 06110000 		.4byte	0x1106
 2758 0ef8 05040000 		.4byte	.LLST12
 2759 0efc 25       		.uleb128 0x25
 2760 0efd FB100000 		.4byte	0x10fb
 2761 0f01 29       		.uleb128 0x29
 2762 0f02 96000000 		.4byte	.LBB119
 2763 0f06 16000000 		.4byte	.LBE119-.LBB119
 2764 0f0a 22       		.uleb128 0x22
 2765 0f0b 12110000 		.4byte	0x1112
 2766 0f0f 18040000 		.4byte	.LLST13
 2767 0f13 00       		.byte	0
 2768 0f14 00       		.byte	0
 2769 0f15 3B       		.uleb128 0x3b
 2770 0f16 4C000000 		.4byte	.LVL11
 2771 0f1a E4110000 		.4byte	0x11e4
 2772 0f1e 280F0000 		.4byte	0xf28
 2773 0f22 31       		.uleb128 0x31
 2774 0f23 01       		.uleb128 0x1
 2775 0f24 50       		.byte	0x50
 2776 0f25 01       		.uleb128 0x1
 2777 0f26 36       		.byte	0x36
 2778 0f27 00       		.byte	0
 2779 0f28 23       		.uleb128 0x23
 2780 0f29 5C000000 		.4byte	.LVL13
 2781 0f2d CC110000 		.4byte	0x11cc
 2782 0f31 00       		.byte	0
 2783 0f32 00       		.byte	0
 2784 0f33 17       		.uleb128 0x17
 2785 0f34 0F070000 		.4byte	0x70f
 2786 0f38 430F0000 		.4byte	0xf43
 2787 0f3c 18       		.uleb128 0x18
 2788 0f3d 84040000 		.4byte	0x484
 2789 0f41 0A       		.byte	0xa
 2790 0f42 00       		.byte	0
 2791 0f43 0B       		.uleb128 0xb
 2792 0f44 330F0000 		.4byte	0xf33
 2793 0f48 37       		.uleb128 0x37
ARM GAS  /var/tmp//cc3kRWEe.s 			page 50


 2794 0f49 BB040000 		.4byte	.LASF135
 2795 0f4d 01       		.byte	0x1
 2796 0f4e 7B       		.byte	0x7b
 2797 0f4f 00000000 		.4byte	.LFB220
 2798 0f53 14000000 		.4byte	.LFE220-.LFB220
 2799 0f57 01       		.uleb128 0x1
 2800 0f58 9C       		.byte	0x9c
 2801 0f59 0A100000 		.4byte	0x100a
 2802 0f5d 36       		.uleb128 0x36
 2803 0f5e 6D7000   		.ascii	"mp\000"
 2804 0f61 01       		.byte	0x1
 2805 0f62 7B       		.byte	0x7b
 2806 0f63 4C080000 		.4byte	0x84c
 2807 0f67 2B040000 		.4byte	.LLST14
 2808 0f6b 39       		.uleb128 0x39
 2809 0f6c 99100000 		.4byte	0x1099
 2810 0f70 02000000 		.4byte	.LBB121
 2811 0f74 06000000 		.4byte	.LBE121-.LBB121
 2812 0f78 01       		.byte	0x1
 2813 0f79 7D       		.byte	0x7d
 2814 0f7a AA0F0000 		.4byte	0xfaa
 2815 0f7e 24       		.uleb128 0x24
 2816 0f7f 65110000 		.4byte	0x1165
 2817 0f83 02000000 		.4byte	.LBB122
 2818 0f87 06000000 		.4byte	.LBE122-.LBB122
 2819 0f8b 10       		.byte	0x10
 2820 0f8c 5C01     		.2byte	0x15c
 2821 0f8e 24       		.uleb128 0x24
 2822 0f8f 6E110000 		.4byte	0x116e
 2823 0f93 02000000 		.4byte	.LBB123
 2824 0f97 06000000 		.4byte	.LBE123-.LBB123
 2825 0f9b 0B       		.byte	0xb
 2826 0f9c BF01     		.2byte	0x1bf
 2827 0f9e 20       		.uleb128 0x20
 2828 0f9f 7B110000 		.4byte	0x117b
 2829 0fa3 4C040000 		.4byte	.LLST15
 2830 0fa7 00       		.byte	0
 2831 0fa8 00       		.byte	0
 2832 0fa9 00       		.byte	0
 2833 0faa 39       		.uleb128 0x39
 2834 0fab 7E100000 		.4byte	0x107e
 2835 0faf 0C000000 		.4byte	.LBB125
 2836 0fb3 08000000 		.4byte	.LBE125-.LBB125
 2837 0fb7 01       		.byte	0x1
 2838 0fb8 7F       		.byte	0x7f
 2839 0fb9 F80F0000 		.4byte	0xff8
 2840 0fbd 29       		.uleb128 0x29
 2841 0fbe 0C000000 		.4byte	.LBB126
 2842 0fc2 08000000 		.4byte	.LBE126-.LBB126
 2843 0fc6 2A       		.uleb128 0x2a
 2844 0fc7 8B100000 		.4byte	0x108b
 2845 0fcb 24       		.uleb128 0x24
 2846 0fcc 5C110000 		.4byte	0x115c
 2847 0fd0 0C000000 		.4byte	.LBB127
 2848 0fd4 08000000 		.4byte	.LBE127-.LBB127
 2849 0fd8 10       		.byte	0x10
 2850 0fd9 7301     		.2byte	0x173
ARM GAS  /var/tmp//cc3kRWEe.s 			page 51


 2851 0fdb 24       		.uleb128 0x24
 2852 0fdc 6E110000 		.4byte	0x116e
 2853 0fe0 0C000000 		.4byte	.LBB128
 2854 0fe4 08000000 		.4byte	.LBE128-.LBB128
 2855 0fe8 0B       		.byte	0xb
 2856 0fe9 CD01     		.2byte	0x1cd
 2857 0feb 20       		.uleb128 0x20
 2858 0fec 7B110000 		.4byte	0x117b
 2859 0ff0 61040000 		.4byte	.LLST16
 2860 0ff4 00       		.byte	0
 2861 0ff5 00       		.byte	0
 2862 0ff6 00       		.byte	0
 2863 0ff7 00       		.byte	0
 2864 0ff8 3C       		.uleb128 0x3c
 2865 0ff9 0C000000 		.4byte	.LVL32
 2866 0ffd CD0D0000 		.4byte	0xdcd
 2867 1001 31       		.uleb128 0x31
 2868 1002 01       		.uleb128 0x1
 2869 1003 50       		.byte	0x50
 2870 1004 03       		.uleb128 0x3
 2871 1005 F3       		.byte	0xf3
 2872 1006 01       		.uleb128 0x1
 2873 1007 50       		.byte	0x50
 2874 1008 00       		.byte	0
 2875 1009 00       		.byte	0
 2876 100a 37       		.uleb128 0x37
 2877 100b 40050000 		.4byte	.LASF136
 2878 100f 01       		.byte	0x1
 2879 1010 67       		.byte	0x67
 2880 1011 00000000 		.4byte	.LFB219
 2881 1015 0A000000 		.4byte	.LFE219-.LFB219
 2882 1019 01       		.uleb128 0x1
 2883 101a 9C       		.byte	0x9c
 2884 101b 4E100000 		.4byte	0x104e
 2885 101f 3D       		.uleb128 0x3d
 2886 1020 6D7000   		.ascii	"mp\000"
 2887 1023 01       		.byte	0x1
 2888 1024 67       		.byte	0x67
 2889 1025 4C080000 		.4byte	0x84c
 2890 1029 01       		.uleb128 0x1
 2891 102a 50       		.byte	0x50
 2892 102b 2C       		.uleb128 0x2c
 2893 102c D6050000 		.4byte	.LASF132
 2894 1030 5E100000 		.4byte	0x105e
 2895 1034 26       		.uleb128 0x26
 2896 1035 42110000 		.4byte	0x1142
 2897 1039 02000000 		.4byte	.LBB103
 2898 103d 04000000 		.4byte	.LBE103-.LBB103
 2899 1041 01       		.byte	0x1
 2900 1042 6B       		.byte	0x6b
 2901 1043 20       		.uleb128 0x20
 2902 1044 4F110000 		.4byte	0x114f
 2903 1048 75040000 		.4byte	.LLST0
 2904 104c 00       		.byte	0
 2905 104d 00       		.byte	0
 2906 104e 17       		.uleb128 0x17
 2907 104f 0F070000 		.4byte	0x70f
ARM GAS  /var/tmp//cc3kRWEe.s 			page 52


 2908 1053 5E100000 		.4byte	0x105e
 2909 1057 18       		.uleb128 0x18
 2910 1058 84040000 		.4byte	0x484
 2911 105c 0F       		.byte	0xf
 2912 105d 00       		.byte	0
 2913 105e 0B       		.uleb128 0xb
 2914 105f 4E100000 		.4byte	0x104e
 2915 1063 3E       		.uleb128 0x3e
 2916 1064 EB060000 		.4byte	.LASF139
 2917 1068 0E       		.byte	0xe
 2918 1069 81       		.byte	0x81
 2919 106a AD0C0000 		.4byte	0xcad
 2920 106e 03       		.byte	0x3
 2921 106f 7E100000 		.4byte	0x107e
 2922 1073 3F       		.uleb128 0x3f
 2923 1074 6D7000   		.ascii	"mp\000"
 2924 1077 0E       		.byte	0xe
 2925 1078 81       		.byte	0x81
 2926 1079 4C080000 		.4byte	0x84c
 2927 107d 00       		.byte	0
 2928 107e 40       		.uleb128 0x40
 2929 107f AE070000 		.4byte	.LASF138
 2930 1083 10       		.byte	0x10
 2931 1084 6601     		.2byte	0x166
 2932 1086 03       		.byte	0x3
 2933 1087 99100000 		.4byte	0x1099
 2934 108b 34       		.uleb128 0x34
 2935 108c D6050000 		.4byte	.LASF132
 2936 1090 7E0C0000 		.4byte	0xc7e
 2937 1094 AE070000 		.4byte	.LASF138
 2938 1098 00       		.byte	0
 2939 1099 41       		.uleb128 0x41
 2940 109a DF050000 		.4byte	.LASF145
 2941 109e 10       		.byte	0x10
 2942 109f 5A01     		.2byte	0x15a
 2943 10a1 03       		.byte	0x3
 2944 10a2 42       		.uleb128 0x42
 2945 10a3 68010000 		.4byte	.LASF140
 2946 10a7 02       		.byte	0x2
 2947 10a8 B102     		.2byte	0x2b1
 2948 10aa 6C020000 		.4byte	0x26c
 2949 10ae 03       		.byte	0x3
 2950 10af BF100000 		.4byte	0x10bf
 2951 10b3 33       		.uleb128 0x33
 2952 10b4 747000   		.ascii	"tp\000"
 2953 10b7 02       		.byte	0x2
 2954 10b8 B102     		.2byte	0x2b1
 2955 10ba 6C020000 		.4byte	0x26c
 2956 10be 00       		.byte	0
 2957 10bf 42       		.uleb128 0x42
 2958 10c0 B0060000 		.4byte	.LASF141
 2959 10c4 02       		.byte	0x2
 2960 10c5 9F02     		.2byte	0x29f
 2961 10c7 6C020000 		.4byte	0x26c
 2962 10cb 03       		.byte	0x3
 2963 10cc E8100000 		.4byte	0x10e8
 2964 10d0 33       		.uleb128 0x33
ARM GAS  /var/tmp//cc3kRWEe.s 			page 53


 2965 10d1 74717000 		.ascii	"tqp\000"
 2966 10d5 02       		.byte	0x2
 2967 10d6 9F02     		.2byte	0x29f
 2968 10d8 E8100000 		.4byte	0x10e8
 2969 10dc 1E       		.uleb128 0x1e
 2970 10dd 747000   		.ascii	"tp\000"
 2971 10e0 02       		.byte	0x2
 2972 10e1 A002     		.2byte	0x2a0
 2973 10e3 6C020000 		.4byte	0x26c
 2974 10e7 00       		.byte	0
 2975 10e8 0A       		.uleb128 0xa
 2976 10e9 04       		.byte	0x4
 2977 10ea 96020000 		.4byte	0x296
 2978 10ee 40       		.uleb128 0x40
 2979 10ef D0070000 		.4byte	.LASF142
 2980 10f3 02       		.byte	0x2
 2981 10f4 8B02     		.2byte	0x28b
 2982 10f6 03       		.byte	0x3
 2983 10f7 1E110000 		.4byte	0x111e
 2984 10fb 33       		.uleb128 0x33
 2985 10fc 747000   		.ascii	"tp\000"
 2986 10ff 02       		.byte	0x2
 2987 1100 8B02     		.2byte	0x28b
 2988 1102 6C020000 		.4byte	0x26c
 2989 1106 33       		.uleb128 0x33
 2990 1107 74717000 		.ascii	"tqp\000"
 2991 110b 02       		.byte	0x2
 2992 110c 8B02     		.2byte	0x28b
 2993 110e E8100000 		.4byte	0x10e8
 2994 1112 1E       		.uleb128 0x1e
 2995 1113 637000   		.ascii	"cp\000"
 2996 1116 02       		.byte	0x2
 2997 1117 8D02     		.2byte	0x28d
 2998 1119 6C020000 		.4byte	0x26c
 2999 111d 00       		.byte	0
 3000 111e 42       		.uleb128 0x42
 3001 111f 7F010000 		.4byte	.LASF143
 3002 1123 02       		.byte	0x2
 3003 1124 7502     		.2byte	0x275
 3004 1126 AD0C0000 		.4byte	0xcad
 3005 112a 03       		.byte	0x3
 3006 112b 3C110000 		.4byte	0x113c
 3007 112f 33       		.uleb128 0x33
 3008 1130 74717000 		.ascii	"tqp\000"
 3009 1134 02       		.byte	0x2
 3010 1135 7502     		.2byte	0x275
 3011 1137 3C110000 		.4byte	0x113c
 3012 113b 00       		.byte	0
 3013 113c 0A       		.uleb128 0xa
 3014 113d 04       		.byte	0x4
 3015 113e A1020000 		.4byte	0x2a1
 3016 1142 40       		.uleb128 0x40
 3017 1143 55000000 		.4byte	.LASF144
 3018 1147 02       		.byte	0x2
 3019 1148 5A02     		.2byte	0x25a
 3020 114a 03       		.byte	0x3
 3021 114b 5C110000 		.4byte	0x115c
ARM GAS  /var/tmp//cc3kRWEe.s 			page 54


 3022 114f 33       		.uleb128 0x33
 3023 1150 74717000 		.ascii	"tqp\000"
 3024 1154 02       		.byte	0x2
 3025 1155 5A02     		.2byte	0x25a
 3026 1157 E8100000 		.4byte	0x10e8
 3027 115b 00       		.byte	0
 3028 115c 41       		.uleb128 0x41
 3029 115d 3F010000 		.4byte	.LASF146
 3030 1161 0B       		.byte	0xb
 3031 1162 CA01     		.2byte	0x1ca
 3032 1164 03       		.byte	0x3
 3033 1165 41       		.uleb128 0x41
 3034 1166 60000000 		.4byte	.LASF147
 3035 116a 0B       		.byte	0xb
 3036 116b BC01     		.2byte	0x1bc
 3037 116d 03       		.byte	0x3
 3038 116e 40       		.uleb128 0x40
 3039 116f 95040000 		.4byte	.LASF148
 3040 1173 03       		.byte	0x3
 3041 1174 2002     		.2byte	0x220
 3042 1176 03       		.byte	0x3
 3043 1177 88110000 		.4byte	0x1188
 3044 117b 43       		.uleb128 0x43
 3045 117c EE010000 		.4byte	.LASF149
 3046 1180 03       		.byte	0x3
 3047 1181 2002     		.2byte	0x220
 3048 1183 C8000000 		.4byte	0xc8
 3049 1187 00       		.byte	0
 3050 1188 44       		.uleb128 0x44
 3051 1189 830C0000 		.4byte	0xc83
 3052 118d 00000000 		.4byte	.LFB223
 3053 1191 20000000 		.4byte	.LFE223-.LFB223
 3054 1195 01       		.uleb128 0x1
 3055 1196 9C       		.byte	0x9c
 3056 1197 CC110000 		.4byte	0x11cc
 3057 119b 20       		.uleb128 0x20
 3058 119c 940C0000 		.4byte	0xc94
 3059 11a0 88040000 		.4byte	.LLST22
 3060 11a4 2A       		.uleb128 0x2a
 3061 11a5 9F0C0000 		.4byte	0xc9f
 3062 11a9 29       		.uleb128 0x29
 3063 11aa 0A000000 		.4byte	.LBB165
 3064 11ae 16000000 		.4byte	.LBE165-.LBB165
 3065 11b2 20       		.uleb128 0x20
 3066 11b3 940C0000 		.4byte	0xc94
 3067 11b7 BC040000 		.4byte	.LLST23
 3068 11bb 29       		.uleb128 0x29
 3069 11bc 0A000000 		.4byte	.LBB166
 3070 11c0 16000000 		.4byte	.LBE166-.LBB166
 3071 11c4 2A       		.uleb128 0x2a
 3072 11c5 A4110000 		.4byte	0x11a4
 3073 11c9 00       		.byte	0
 3074 11ca 00       		.byte	0
 3075 11cb 00       		.byte	0
 3076 11cc 45       		.uleb128 0x45
 3077 11cd 5A060000 		.4byte	.LASF150
 3078 11d1 5A060000 		.4byte	.LASF150
ARM GAS  /var/tmp//cc3kRWEe.s 			page 55


 3079 11d5 02       		.byte	0x2
 3080 11d6 1302     		.2byte	0x213
 3081 11d8 45       		.uleb128 0x45
 3082 11d9 B6010000 		.4byte	.LASF151
 3083 11dd B6010000 		.4byte	.LASF151
 3084 11e1 02       		.byte	0x2
 3085 11e2 1702     		.2byte	0x217
 3086 11e4 45       		.uleb128 0x45
 3087 11e5 24060000 		.4byte	.LASF152
 3088 11e9 24060000 		.4byte	.LASF152
 3089 11ed 02       		.byte	0x2
 3090 11ee 1402     		.2byte	0x214
 3091 11f0 00       		.byte	0
 3092              		.section	.debug_abbrev,"",%progbits
 3093              	.Ldebug_abbrev0:
 3094 0000 01       		.uleb128 0x1
 3095 0001 11       		.uleb128 0x11
 3096 0002 01       		.byte	0x1
 3097 0003 25       		.uleb128 0x25
 3098 0004 0E       		.uleb128 0xe
 3099 0005 13       		.uleb128 0x13
 3100 0006 0B       		.uleb128 0xb
 3101 0007 03       		.uleb128 0x3
 3102 0008 0E       		.uleb128 0xe
 3103 0009 1B       		.uleb128 0x1b
 3104 000a 0E       		.uleb128 0xe
 3105 000b 55       		.uleb128 0x55
 3106 000c 17       		.uleb128 0x17
 3107 000d 11       		.uleb128 0x11
 3108 000e 01       		.uleb128 0x1
 3109 000f 10       		.uleb128 0x10
 3110 0010 17       		.uleb128 0x17
 3111 0011 00       		.byte	0
 3112 0012 00       		.byte	0
 3113 0013 02       		.uleb128 0x2
 3114 0014 24       		.uleb128 0x24
 3115 0015 00       		.byte	0
 3116 0016 0B       		.uleb128 0xb
 3117 0017 0B       		.uleb128 0xb
 3118 0018 3E       		.uleb128 0x3e
 3119 0019 0B       		.uleb128 0xb
 3120 001a 03       		.uleb128 0x3
 3121 001b 08       		.uleb128 0x8
 3122 001c 00       		.byte	0
 3123 001d 00       		.byte	0
 3124 001e 03       		.uleb128 0x3
 3125 001f 24       		.uleb128 0x24
 3126 0020 00       		.byte	0
 3127 0021 0B       		.uleb128 0xb
 3128 0022 0B       		.uleb128 0xb
 3129 0023 3E       		.uleb128 0x3e
 3130 0024 0B       		.uleb128 0xb
 3131 0025 03       		.uleb128 0x3
 3132 0026 0E       		.uleb128 0xe
 3133 0027 00       		.byte	0
 3134 0028 00       		.byte	0
 3135 0029 04       		.uleb128 0x4
ARM GAS  /var/tmp//cc3kRWEe.s 			page 56


 3136 002a 16       		.uleb128 0x16
 3137 002b 00       		.byte	0
 3138 002c 03       		.uleb128 0x3
 3139 002d 0E       		.uleb128 0xe
 3140 002e 3A       		.uleb128 0x3a
 3141 002f 0B       		.uleb128 0xb
 3142 0030 3B       		.uleb128 0x3b
 3143 0031 0B       		.uleb128 0xb
 3144 0032 49       		.uleb128 0x49
 3145 0033 13       		.uleb128 0x13
 3146 0034 00       		.byte	0
 3147 0035 00       		.byte	0
 3148 0036 05       		.uleb128 0x5
 3149 0037 35       		.uleb128 0x35
 3150 0038 00       		.byte	0
 3151 0039 49       		.uleb128 0x49
 3152 003a 13       		.uleb128 0x13
 3153 003b 00       		.byte	0
 3154 003c 00       		.byte	0
 3155 003d 06       		.uleb128 0x6
 3156 003e 13       		.uleb128 0x13
 3157 003f 01       		.byte	0x1
 3158 0040 03       		.uleb128 0x3
 3159 0041 0E       		.uleb128 0xe
 3160 0042 0B       		.uleb128 0xb
 3161 0043 0B       		.uleb128 0xb
 3162 0044 3A       		.uleb128 0x3a
 3163 0045 0B       		.uleb128 0xb
 3164 0046 3B       		.uleb128 0x3b
 3165 0047 0B       		.uleb128 0xb
 3166 0048 01       		.uleb128 0x1
 3167 0049 13       		.uleb128 0x13
 3168 004a 00       		.byte	0
 3169 004b 00       		.byte	0
 3170 004c 07       		.uleb128 0x7
 3171 004d 0D       		.uleb128 0xd
 3172 004e 00       		.byte	0
 3173 004f 03       		.uleb128 0x3
 3174 0050 0E       		.uleb128 0xe
 3175 0051 3A       		.uleb128 0x3a
 3176 0052 0B       		.uleb128 0xb
 3177 0053 3B       		.uleb128 0x3b
 3178 0054 0B       		.uleb128 0xb
 3179 0055 49       		.uleb128 0x49
 3180 0056 13       		.uleb128 0x13
 3181 0057 38       		.uleb128 0x38
 3182 0058 0B       		.uleb128 0xb
 3183 0059 00       		.byte	0
 3184 005a 00       		.byte	0
 3185 005b 08       		.uleb128 0x8
 3186 005c 0D       		.uleb128 0xd
 3187 005d 00       		.byte	0
 3188 005e 03       		.uleb128 0x3
 3189 005f 08       		.uleb128 0x8
 3190 0060 3A       		.uleb128 0x3a
 3191 0061 0B       		.uleb128 0xb
 3192 0062 3B       		.uleb128 0x3b
ARM GAS  /var/tmp//cc3kRWEe.s 			page 57


 3193 0063 05       		.uleb128 0x5
 3194 0064 49       		.uleb128 0x49
 3195 0065 13       		.uleb128 0x13
 3196 0066 38       		.uleb128 0x38
 3197 0067 0B       		.uleb128 0xb
 3198 0068 00       		.byte	0
 3199 0069 00       		.byte	0
 3200 006a 09       		.uleb128 0x9
 3201 006b 0D       		.uleb128 0xd
 3202 006c 00       		.byte	0
 3203 006d 03       		.uleb128 0x3
 3204 006e 0E       		.uleb128 0xe
 3205 006f 3A       		.uleb128 0x3a
 3206 0070 0B       		.uleb128 0xb
 3207 0071 3B       		.uleb128 0x3b
 3208 0072 05       		.uleb128 0x5
 3209 0073 49       		.uleb128 0x49
 3210 0074 13       		.uleb128 0x13
 3211 0075 38       		.uleb128 0x38
 3212 0076 0B       		.uleb128 0xb
 3213 0077 00       		.byte	0
 3214 0078 00       		.byte	0
 3215 0079 0A       		.uleb128 0xa
 3216 007a 0F       		.uleb128 0xf
 3217 007b 00       		.byte	0
 3218 007c 0B       		.uleb128 0xb
 3219 007d 0B       		.uleb128 0xb
 3220 007e 49       		.uleb128 0x49
 3221 007f 13       		.uleb128 0x13
 3222 0080 00       		.byte	0
 3223 0081 00       		.byte	0
 3224 0082 0B       		.uleb128 0xb
 3225 0083 26       		.uleb128 0x26
 3226 0084 00       		.byte	0
 3227 0085 49       		.uleb128 0x49
 3228 0086 13       		.uleb128 0x13
 3229 0087 00       		.byte	0
 3230 0088 00       		.byte	0
 3231 0089 0C       		.uleb128 0xc
 3232 008a 13       		.uleb128 0x13
 3233 008b 01       		.byte	0x1
 3234 008c 03       		.uleb128 0x3
 3235 008d 0E       		.uleb128 0xe
 3236 008e 0B       		.uleb128 0xb
 3237 008f 0B       		.uleb128 0xb
 3238 0090 3A       		.uleb128 0x3a
 3239 0091 0B       		.uleb128 0xb
 3240 0092 3B       		.uleb128 0x3b
 3241 0093 05       		.uleb128 0x5
 3242 0094 01       		.uleb128 0x1
 3243 0095 13       		.uleb128 0x13
 3244 0096 00       		.byte	0
 3245 0097 00       		.byte	0
 3246 0098 0D       		.uleb128 0xd
 3247 0099 15       		.uleb128 0x15
 3248 009a 01       		.byte	0x1
 3249 009b 27       		.uleb128 0x27
ARM GAS  /var/tmp//cc3kRWEe.s 			page 58


 3250 009c 19       		.uleb128 0x19
 3251 009d 01       		.uleb128 0x1
 3252 009e 13       		.uleb128 0x13
 3253 009f 00       		.byte	0
 3254 00a0 00       		.byte	0
 3255 00a1 0E       		.uleb128 0xe
 3256 00a2 05       		.uleb128 0x5
 3257 00a3 00       		.byte	0
 3258 00a4 49       		.uleb128 0x49
 3259 00a5 13       		.uleb128 0x13
 3260 00a6 00       		.byte	0
 3261 00a7 00       		.byte	0
 3262 00a8 0F       		.uleb128 0xf
 3263 00a9 0F       		.uleb128 0xf
 3264 00aa 00       		.byte	0
 3265 00ab 0B       		.uleb128 0xb
 3266 00ac 0B       		.uleb128 0xb
 3267 00ad 00       		.byte	0
 3268 00ae 00       		.byte	0
 3269 00af 10       		.uleb128 0x10
 3270 00b0 13       		.uleb128 0x13
 3271 00b1 01       		.byte	0x1
 3272 00b2 03       		.uleb128 0x3
 3273 00b3 0E       		.uleb128 0xe
 3274 00b4 0B       		.uleb128 0xb
 3275 00b5 05       		.uleb128 0x5
 3276 00b6 3A       		.uleb128 0x3a
 3277 00b7 0B       		.uleb128 0xb
 3278 00b8 3B       		.uleb128 0x3b
 3279 00b9 05       		.uleb128 0x5
 3280 00ba 01       		.uleb128 0x1
 3281 00bb 13       		.uleb128 0x13
 3282 00bc 00       		.byte	0
 3283 00bd 00       		.byte	0
 3284 00be 11       		.uleb128 0x11
 3285 00bf 34       		.uleb128 0x34
 3286 00c0 00       		.byte	0
 3287 00c1 03       		.uleb128 0x3
 3288 00c2 0E       		.uleb128 0xe
 3289 00c3 3A       		.uleb128 0x3a
 3290 00c4 0B       		.uleb128 0xb
 3291 00c5 3B       		.uleb128 0x3b
 3292 00c6 05       		.uleb128 0x5
 3293 00c7 49       		.uleb128 0x49
 3294 00c8 13       		.uleb128 0x13
 3295 00c9 3F       		.uleb128 0x3f
 3296 00ca 19       		.uleb128 0x19
 3297 00cb 3C       		.uleb128 0x3c
 3298 00cc 19       		.uleb128 0x19
 3299 00cd 00       		.byte	0
 3300 00ce 00       		.byte	0
 3301 00cf 12       		.uleb128 0x12
 3302 00d0 34       		.uleb128 0x34
 3303 00d1 00       		.byte	0
 3304 00d2 03       		.uleb128 0x3
 3305 00d3 0E       		.uleb128 0xe
 3306 00d4 3A       		.uleb128 0x3a
ARM GAS  /var/tmp//cc3kRWEe.s 			page 59


 3307 00d5 0B       		.uleb128 0xb
 3308 00d6 3B       		.uleb128 0x3b
 3309 00d7 0B       		.uleb128 0xb
 3310 00d8 49       		.uleb128 0x49
 3311 00d9 13       		.uleb128 0x13
 3312 00da 3F       		.uleb128 0x3f
 3313 00db 19       		.uleb128 0x19
 3314 00dc 3C       		.uleb128 0x3c
 3315 00dd 19       		.uleb128 0x19
 3316 00de 00       		.byte	0
 3317 00df 00       		.byte	0
 3318 00e0 13       		.uleb128 0x13
 3319 00e1 0D       		.uleb128 0xd
 3320 00e2 00       		.byte	0
 3321 00e3 03       		.uleb128 0x3
 3322 00e4 08       		.uleb128 0x8
 3323 00e5 3A       		.uleb128 0x3a
 3324 00e6 0B       		.uleb128 0xb
 3325 00e7 3B       		.uleb128 0x3b
 3326 00e8 0B       		.uleb128 0xb
 3327 00e9 49       		.uleb128 0x49
 3328 00ea 13       		.uleb128 0x13
 3329 00eb 38       		.uleb128 0x38
 3330 00ec 0B       		.uleb128 0xb
 3331 00ed 00       		.byte	0
 3332 00ee 00       		.byte	0
 3333 00ef 14       		.uleb128 0x14
 3334 00f0 13       		.uleb128 0x13
 3335 00f1 01       		.byte	0x1
 3336 00f2 0B       		.uleb128 0xb
 3337 00f3 0B       		.uleb128 0xb
 3338 00f4 3A       		.uleb128 0x3a
 3339 00f5 0B       		.uleb128 0xb
 3340 00f6 3B       		.uleb128 0x3b
 3341 00f7 0B       		.uleb128 0xb
 3342 00f8 01       		.uleb128 0x1
 3343 00f9 13       		.uleb128 0x13
 3344 00fa 00       		.byte	0
 3345 00fb 00       		.byte	0
 3346 00fc 15       		.uleb128 0x15
 3347 00fd 17       		.uleb128 0x17
 3348 00fe 01       		.byte	0x1
 3349 00ff 0B       		.uleb128 0xb
 3350 0100 0B       		.uleb128 0xb
 3351 0101 3A       		.uleb128 0x3a
 3352 0102 0B       		.uleb128 0xb
 3353 0103 3B       		.uleb128 0x3b
 3354 0104 0B       		.uleb128 0xb
 3355 0105 01       		.uleb128 0x1
 3356 0106 13       		.uleb128 0x13
 3357 0107 00       		.byte	0
 3358 0108 00       		.byte	0
 3359 0109 16       		.uleb128 0x16
 3360 010a 0D       		.uleb128 0xd
 3361 010b 00       		.byte	0
 3362 010c 03       		.uleb128 0x3
 3363 010d 0E       		.uleb128 0xe
ARM GAS  /var/tmp//cc3kRWEe.s 			page 60


 3364 010e 3A       		.uleb128 0x3a
 3365 010f 0B       		.uleb128 0xb
 3366 0110 3B       		.uleb128 0x3b
 3367 0111 05       		.uleb128 0x5
 3368 0112 49       		.uleb128 0x49
 3369 0113 13       		.uleb128 0x13
 3370 0114 00       		.byte	0
 3371 0115 00       		.byte	0
 3372 0116 17       		.uleb128 0x17
 3373 0117 01       		.uleb128 0x1
 3374 0118 01       		.byte	0x1
 3375 0119 49       		.uleb128 0x49
 3376 011a 13       		.uleb128 0x13
 3377 011b 01       		.uleb128 0x1
 3378 011c 13       		.uleb128 0x13
 3379 011d 00       		.byte	0
 3380 011e 00       		.byte	0
 3381 011f 18       		.uleb128 0x18
 3382 0120 21       		.uleb128 0x21
 3383 0121 00       		.byte	0
 3384 0122 49       		.uleb128 0x49
 3385 0123 13       		.uleb128 0x13
 3386 0124 2F       		.uleb128 0x2f
 3387 0125 0B       		.uleb128 0xb
 3388 0126 00       		.byte	0
 3389 0127 00       		.byte	0
 3390 0128 19       		.uleb128 0x19
 3391 0129 34       		.uleb128 0x34
 3392 012a 00       		.byte	0
 3393 012b 03       		.uleb128 0x3
 3394 012c 08       		.uleb128 0x8
 3395 012d 3A       		.uleb128 0x3a
 3396 012e 0B       		.uleb128 0xb
 3397 012f 3B       		.uleb128 0x3b
 3398 0130 05       		.uleb128 0x5
 3399 0131 49       		.uleb128 0x49
 3400 0132 13       		.uleb128 0x13
 3401 0133 3F       		.uleb128 0x3f
 3402 0134 19       		.uleb128 0x19
 3403 0135 3C       		.uleb128 0x3c
 3404 0136 19       		.uleb128 0x19
 3405 0137 00       		.byte	0
 3406 0138 00       		.byte	0
 3407 0139 1A       		.uleb128 0x1a
 3408 013a 2E       		.uleb128 0x2e
 3409 013b 01       		.byte	0x1
 3410 013c 3F       		.uleb128 0x3f
 3411 013d 19       		.uleb128 0x19
 3412 013e 03       		.uleb128 0x3
 3413 013f 0E       		.uleb128 0xe
 3414 0140 3A       		.uleb128 0x3a
 3415 0141 0B       		.uleb128 0xb
 3416 0142 3B       		.uleb128 0x3b
 3417 0143 05       		.uleb128 0x5
 3418 0144 27       		.uleb128 0x27
 3419 0145 19       		.uleb128 0x19
 3420 0146 11       		.uleb128 0x11
ARM GAS  /var/tmp//cc3kRWEe.s 			page 61


 3421 0147 01       		.uleb128 0x1
 3422 0148 12       		.uleb128 0x12
 3423 0149 06       		.uleb128 0x6
 3424 014a 40       		.uleb128 0x40
 3425 014b 18       		.uleb128 0x18
 3426 014c 9742     		.uleb128 0x2117
 3427 014e 19       		.uleb128 0x19
 3428 014f 01       		.uleb128 0x1
 3429 0150 13       		.uleb128 0x13
 3430 0151 00       		.byte	0
 3431 0152 00       		.byte	0
 3432 0153 1B       		.uleb128 0x1b
 3433 0154 34       		.uleb128 0x34
 3434 0155 00       		.byte	0
 3435 0156 03       		.uleb128 0x3
 3436 0157 08       		.uleb128 0x8
 3437 0158 3A       		.uleb128 0x3a
 3438 0159 0B       		.uleb128 0xb
 3439 015a 3B       		.uleb128 0x3b
 3440 015b 05       		.uleb128 0x5
 3441 015c 49       		.uleb128 0x49
 3442 015d 13       		.uleb128 0x13
 3443 015e 02       		.uleb128 0x2
 3444 015f 18       		.uleb128 0x18
 3445 0160 00       		.byte	0
 3446 0161 00       		.byte	0
 3447 0162 1C       		.uleb128 0x1c
 3448 0163 0B       		.uleb128 0xb
 3449 0164 01       		.byte	0x1
 3450 0165 55       		.uleb128 0x55
 3451 0166 17       		.uleb128 0x17
 3452 0167 01       		.uleb128 0x1
 3453 0168 13       		.uleb128 0x13
 3454 0169 00       		.byte	0
 3455 016a 00       		.byte	0
 3456 016b 1D       		.uleb128 0x1d
 3457 016c 34       		.uleb128 0x34
 3458 016d 00       		.byte	0
 3459 016e 03       		.uleb128 0x3
 3460 016f 08       		.uleb128 0x8
 3461 0170 3A       		.uleb128 0x3a
 3462 0171 0B       		.uleb128 0xb
 3463 0172 3B       		.uleb128 0x3b
 3464 0173 05       		.uleb128 0x5
 3465 0174 49       		.uleb128 0x49
 3466 0175 13       		.uleb128 0x13
 3467 0176 02       		.uleb128 0x2
 3468 0177 17       		.uleb128 0x17
 3469 0178 00       		.byte	0
 3470 0179 00       		.byte	0
 3471 017a 1E       		.uleb128 0x1e
 3472 017b 34       		.uleb128 0x34
 3473 017c 00       		.byte	0
 3474 017d 03       		.uleb128 0x3
 3475 017e 08       		.uleb128 0x8
 3476 017f 3A       		.uleb128 0x3a
 3477 0180 0B       		.uleb128 0xb
ARM GAS  /var/tmp//cc3kRWEe.s 			page 62


 3478 0181 3B       		.uleb128 0x3b
 3479 0182 05       		.uleb128 0x5
 3480 0183 49       		.uleb128 0x49
 3481 0184 13       		.uleb128 0x13
 3482 0185 00       		.byte	0
 3483 0186 00       		.byte	0
 3484 0187 1F       		.uleb128 0x1f
 3485 0188 1D       		.uleb128 0x1d
 3486 0189 01       		.byte	0x1
 3487 018a 31       		.uleb128 0x31
 3488 018b 13       		.uleb128 0x13
 3489 018c 52       		.uleb128 0x52
 3490 018d 01       		.uleb128 0x1
 3491 018e 55       		.uleb128 0x55
 3492 018f 17       		.uleb128 0x17
 3493 0190 58       		.uleb128 0x58
 3494 0191 0B       		.uleb128 0xb
 3495 0192 59       		.uleb128 0x59
 3496 0193 05       		.uleb128 0x5
 3497 0194 01       		.uleb128 0x1
 3498 0195 13       		.uleb128 0x13
 3499 0196 00       		.byte	0
 3500 0197 00       		.byte	0
 3501 0198 20       		.uleb128 0x20
 3502 0199 05       		.uleb128 0x5
 3503 019a 00       		.byte	0
 3504 019b 31       		.uleb128 0x31
 3505 019c 13       		.uleb128 0x13
 3506 019d 02       		.uleb128 0x2
 3507 019e 17       		.uleb128 0x17
 3508 019f 00       		.byte	0
 3509 01a0 00       		.byte	0
 3510 01a1 21       		.uleb128 0x21
 3511 01a2 0B       		.uleb128 0xb
 3512 01a3 01       		.byte	0x1
 3513 01a4 55       		.uleb128 0x55
 3514 01a5 17       		.uleb128 0x17
 3515 01a6 00       		.byte	0
 3516 01a7 00       		.byte	0
 3517 01a8 22       		.uleb128 0x22
 3518 01a9 34       		.uleb128 0x34
 3519 01aa 00       		.byte	0
 3520 01ab 31       		.uleb128 0x31
 3521 01ac 13       		.uleb128 0x13
 3522 01ad 02       		.uleb128 0x2
 3523 01ae 17       		.uleb128 0x17
 3524 01af 00       		.byte	0
 3525 01b0 00       		.byte	0
 3526 01b1 23       		.uleb128 0x23
 3527 01b2 898201   		.uleb128 0x4109
 3528 01b5 00       		.byte	0
 3529 01b6 11       		.uleb128 0x11
 3530 01b7 01       		.uleb128 0x1
 3531 01b8 31       		.uleb128 0x31
 3532 01b9 13       		.uleb128 0x13
 3533 01ba 00       		.byte	0
 3534 01bb 00       		.byte	0
ARM GAS  /var/tmp//cc3kRWEe.s 			page 63


 3535 01bc 24       		.uleb128 0x24
 3536 01bd 1D       		.uleb128 0x1d
 3537 01be 01       		.byte	0x1
 3538 01bf 31       		.uleb128 0x31
 3539 01c0 13       		.uleb128 0x13
 3540 01c1 11       		.uleb128 0x11
 3541 01c2 01       		.uleb128 0x1
 3542 01c3 12       		.uleb128 0x12
 3543 01c4 06       		.uleb128 0x6
 3544 01c5 58       		.uleb128 0x58
 3545 01c6 0B       		.uleb128 0xb
 3546 01c7 59       		.uleb128 0x59
 3547 01c8 05       		.uleb128 0x5
 3548 01c9 00       		.byte	0
 3549 01ca 00       		.byte	0
 3550 01cb 25       		.uleb128 0x25
 3551 01cc 05       		.uleb128 0x5
 3552 01cd 00       		.byte	0
 3553 01ce 31       		.uleb128 0x31
 3554 01cf 13       		.uleb128 0x13
 3555 01d0 00       		.byte	0
 3556 01d1 00       		.byte	0
 3557 01d2 26       		.uleb128 0x26
 3558 01d3 1D       		.uleb128 0x1d
 3559 01d4 01       		.byte	0x1
 3560 01d5 31       		.uleb128 0x31
 3561 01d6 13       		.uleb128 0x13
 3562 01d7 11       		.uleb128 0x11
 3563 01d8 01       		.uleb128 0x1
 3564 01d9 12       		.uleb128 0x12
 3565 01da 06       		.uleb128 0x6
 3566 01db 58       		.uleb128 0x58
 3567 01dc 0B       		.uleb128 0xb
 3568 01dd 59       		.uleb128 0x59
 3569 01de 0B       		.uleb128 0xb
 3570 01df 00       		.byte	0
 3571 01e0 00       		.byte	0
 3572 01e1 27       		.uleb128 0x27
 3573 01e2 1D       		.uleb128 0x1d
 3574 01e3 01       		.byte	0x1
 3575 01e4 31       		.uleb128 0x31
 3576 01e5 13       		.uleb128 0x13
 3577 01e6 52       		.uleb128 0x52
 3578 01e7 01       		.uleb128 0x1
 3579 01e8 55       		.uleb128 0x55
 3580 01e9 17       		.uleb128 0x17
 3581 01ea 58       		.uleb128 0x58
 3582 01eb 0B       		.uleb128 0xb
 3583 01ec 59       		.uleb128 0x59
 3584 01ed 05       		.uleb128 0x5
 3585 01ee 00       		.byte	0
 3586 01ef 00       		.byte	0
 3587 01f0 28       		.uleb128 0x28
 3588 01f1 1D       		.uleb128 0x1d
 3589 01f2 01       		.byte	0x1
 3590 01f3 31       		.uleb128 0x31
 3591 01f4 13       		.uleb128 0x13
ARM GAS  /var/tmp//cc3kRWEe.s 			page 64


 3592 01f5 11       		.uleb128 0x11
 3593 01f6 01       		.uleb128 0x1
 3594 01f7 12       		.uleb128 0x12
 3595 01f8 06       		.uleb128 0x6
 3596 01f9 58       		.uleb128 0x58
 3597 01fa 0B       		.uleb128 0xb
 3598 01fb 59       		.uleb128 0x59
 3599 01fc 05       		.uleb128 0x5
 3600 01fd 01       		.uleb128 0x1
 3601 01fe 13       		.uleb128 0x13
 3602 01ff 00       		.byte	0
 3603 0200 00       		.byte	0
 3604 0201 29       		.uleb128 0x29
 3605 0202 0B       		.uleb128 0xb
 3606 0203 01       		.byte	0x1
 3607 0204 11       		.uleb128 0x11
 3608 0205 01       		.uleb128 0x1
 3609 0206 12       		.uleb128 0x12
 3610 0207 06       		.uleb128 0x6
 3611 0208 00       		.byte	0
 3612 0209 00       		.byte	0
 3613 020a 2A       		.uleb128 0x2a
 3614 020b 34       		.uleb128 0x34
 3615 020c 00       		.byte	0
 3616 020d 31       		.uleb128 0x31
 3617 020e 13       		.uleb128 0x13
 3618 020f 00       		.byte	0
 3619 0210 00       		.byte	0
 3620 0211 2B       		.uleb128 0x2b
 3621 0212 05       		.uleb128 0x5
 3622 0213 00       		.byte	0
 3623 0214 03       		.uleb128 0x3
 3624 0215 08       		.uleb128 0x8
 3625 0216 3A       		.uleb128 0x3a
 3626 0217 0B       		.uleb128 0xb
 3627 0218 3B       		.uleb128 0x3b
 3628 0219 05       		.uleb128 0x5
 3629 021a 49       		.uleb128 0x49
 3630 021b 13       		.uleb128 0x13
 3631 021c 02       		.uleb128 0x2
 3632 021d 17       		.uleb128 0x17
 3633 021e 00       		.byte	0
 3634 021f 00       		.byte	0
 3635 0220 2C       		.uleb128 0x2c
 3636 0221 34       		.uleb128 0x34
 3637 0222 00       		.byte	0
 3638 0223 03       		.uleb128 0x3
 3639 0224 0E       		.uleb128 0xe
 3640 0225 49       		.uleb128 0x49
 3641 0226 13       		.uleb128 0x13
 3642 0227 34       		.uleb128 0x34
 3643 0228 19       		.uleb128 0x19
 3644 0229 00       		.byte	0
 3645 022a 00       		.byte	0
 3646 022b 2D       		.uleb128 0x2d
 3647 022c 34       		.uleb128 0x34
 3648 022d 00       		.byte	0
ARM GAS  /var/tmp//cc3kRWEe.s 			page 65


 3649 022e 03       		.uleb128 0x3
 3650 022f 0E       		.uleb128 0xe
 3651 0230 3A       		.uleb128 0x3a
 3652 0231 0B       		.uleb128 0xb
 3653 0232 3B       		.uleb128 0x3b
 3654 0233 05       		.uleb128 0x5
 3655 0234 49       		.uleb128 0x49
 3656 0235 13       		.uleb128 0x13
 3657 0236 02       		.uleb128 0x2
 3658 0237 17       		.uleb128 0x17
 3659 0238 00       		.byte	0
 3660 0239 00       		.byte	0
 3661 023a 2E       		.uleb128 0x2e
 3662 023b 898201   		.uleb128 0x4109
 3663 023e 00       		.byte	0
 3664 023f 11       		.uleb128 0x11
 3665 0240 01       		.uleb128 0x1
 3666 0241 9542     		.uleb128 0x2115
 3667 0243 19       		.uleb128 0x19
 3668 0244 31       		.uleb128 0x31
 3669 0245 13       		.uleb128 0x13
 3670 0246 00       		.byte	0
 3671 0247 00       		.byte	0
 3672 0248 2F       		.uleb128 0x2f
 3673 0249 0B       		.uleb128 0xb
 3674 024a 01       		.byte	0x1
 3675 024b 11       		.uleb128 0x11
 3676 024c 01       		.uleb128 0x1
 3677 024d 12       		.uleb128 0x12
 3678 024e 06       		.uleb128 0x6
 3679 024f 01       		.uleb128 0x1
 3680 0250 13       		.uleb128 0x13
 3681 0251 00       		.byte	0
 3682 0252 00       		.byte	0
 3683 0253 30       		.uleb128 0x30
 3684 0254 898201   		.uleb128 0x4109
 3685 0257 01       		.byte	0x1
 3686 0258 11       		.uleb128 0x11
 3687 0259 01       		.uleb128 0x1
 3688 025a 31       		.uleb128 0x31
 3689 025b 13       		.uleb128 0x13
 3690 025c 01       		.uleb128 0x1
 3691 025d 13       		.uleb128 0x13
 3692 025e 00       		.byte	0
 3693 025f 00       		.byte	0
 3694 0260 31       		.uleb128 0x31
 3695 0261 8A8201   		.uleb128 0x410a
 3696 0264 00       		.byte	0
 3697 0265 02       		.uleb128 0x2
 3698 0266 18       		.uleb128 0x18
 3699 0267 9142     		.uleb128 0x2111
 3700 0269 18       		.uleb128 0x18
 3701 026a 00       		.byte	0
 3702 026b 00       		.byte	0
 3703 026c 32       		.uleb128 0x32
 3704 026d 2E       		.uleb128 0x2e
 3705 026e 01       		.byte	0x1
ARM GAS  /var/tmp//cc3kRWEe.s 			page 66


 3706 026f 3F       		.uleb128 0x3f
 3707 0270 19       		.uleb128 0x19
 3708 0271 03       		.uleb128 0x3
 3709 0272 0E       		.uleb128 0xe
 3710 0273 3A       		.uleb128 0x3a
 3711 0274 0B       		.uleb128 0xb
 3712 0275 3B       		.uleb128 0x3b
 3713 0276 05       		.uleb128 0x5
 3714 0277 27       		.uleb128 0x27
 3715 0278 19       		.uleb128 0x19
 3716 0279 49       		.uleb128 0x49
 3717 027a 13       		.uleb128 0x13
 3718 027b 20       		.uleb128 0x20
 3719 027c 0B       		.uleb128 0xb
 3720 027d 01       		.uleb128 0x1
 3721 027e 13       		.uleb128 0x13
 3722 027f 00       		.byte	0
 3723 0280 00       		.byte	0
 3724 0281 33       		.uleb128 0x33
 3725 0282 05       		.uleb128 0x5
 3726 0283 00       		.byte	0
 3727 0284 03       		.uleb128 0x3
 3728 0285 08       		.uleb128 0x8
 3729 0286 3A       		.uleb128 0x3a
 3730 0287 0B       		.uleb128 0xb
 3731 0288 3B       		.uleb128 0x3b
 3732 0289 05       		.uleb128 0x5
 3733 028a 49       		.uleb128 0x49
 3734 028b 13       		.uleb128 0x13
 3735 028c 00       		.byte	0
 3736 028d 00       		.byte	0
 3737 028e 34       		.uleb128 0x34
 3738 028f 34       		.uleb128 0x34
 3739 0290 00       		.byte	0
 3740 0291 03       		.uleb128 0x3
 3741 0292 0E       		.uleb128 0xe
 3742 0293 49       		.uleb128 0x49
 3743 0294 13       		.uleb128 0x13
 3744 0295 34       		.uleb128 0x34
 3745 0296 19       		.uleb128 0x19
 3746 0297 1C       		.uleb128 0x1c
 3747 0298 0E       		.uleb128 0xe
 3748 0299 00       		.byte	0
 3749 029a 00       		.byte	0
 3750 029b 35       		.uleb128 0x35
 3751 029c 2E       		.uleb128 0x2e
 3752 029d 01       		.byte	0x1
 3753 029e 3F       		.uleb128 0x3f
 3754 029f 19       		.uleb128 0x19
 3755 02a0 03       		.uleb128 0x3
 3756 02a1 0E       		.uleb128 0xe
 3757 02a2 3A       		.uleb128 0x3a
 3758 02a3 0B       		.uleb128 0xb
 3759 02a4 3B       		.uleb128 0x3b
 3760 02a5 0B       		.uleb128 0xb
 3761 02a6 27       		.uleb128 0x27
 3762 02a7 19       		.uleb128 0x19
ARM GAS  /var/tmp//cc3kRWEe.s 			page 67


 3763 02a8 49       		.uleb128 0x49
 3764 02a9 13       		.uleb128 0x13
 3765 02aa 11       		.uleb128 0x11
 3766 02ab 01       		.uleb128 0x1
 3767 02ac 12       		.uleb128 0x12
 3768 02ad 06       		.uleb128 0x6
 3769 02ae 40       		.uleb128 0x40
 3770 02af 18       		.uleb128 0x18
 3771 02b0 9742     		.uleb128 0x2117
 3772 02b2 19       		.uleb128 0x19
 3773 02b3 01       		.uleb128 0x1
 3774 02b4 13       		.uleb128 0x13
 3775 02b5 00       		.byte	0
 3776 02b6 00       		.byte	0
 3777 02b7 36       		.uleb128 0x36
 3778 02b8 05       		.uleb128 0x5
 3779 02b9 00       		.byte	0
 3780 02ba 03       		.uleb128 0x3
 3781 02bb 08       		.uleb128 0x8
 3782 02bc 3A       		.uleb128 0x3a
 3783 02bd 0B       		.uleb128 0xb
 3784 02be 3B       		.uleb128 0x3b
 3785 02bf 0B       		.uleb128 0xb
 3786 02c0 49       		.uleb128 0x49
 3787 02c1 13       		.uleb128 0x13
 3788 02c2 02       		.uleb128 0x2
 3789 02c3 17       		.uleb128 0x17
 3790 02c4 00       		.byte	0
 3791 02c5 00       		.byte	0
 3792 02c6 37       		.uleb128 0x37
 3793 02c7 2E       		.uleb128 0x2e
 3794 02c8 01       		.byte	0x1
 3795 02c9 3F       		.uleb128 0x3f
 3796 02ca 19       		.uleb128 0x19
 3797 02cb 03       		.uleb128 0x3
 3798 02cc 0E       		.uleb128 0xe
 3799 02cd 3A       		.uleb128 0x3a
 3800 02ce 0B       		.uleb128 0xb
 3801 02cf 3B       		.uleb128 0x3b
 3802 02d0 0B       		.uleb128 0xb
 3803 02d1 27       		.uleb128 0x27
 3804 02d2 19       		.uleb128 0x19
 3805 02d3 11       		.uleb128 0x11
 3806 02d4 01       		.uleb128 0x1
 3807 02d5 12       		.uleb128 0x12
 3808 02d6 06       		.uleb128 0x6
 3809 02d7 40       		.uleb128 0x40
 3810 02d8 18       		.uleb128 0x18
 3811 02d9 9742     		.uleb128 0x2117
 3812 02db 19       		.uleb128 0x19
 3813 02dc 01       		.uleb128 0x1
 3814 02dd 13       		.uleb128 0x13
 3815 02de 00       		.byte	0
 3816 02df 00       		.byte	0
 3817 02e0 38       		.uleb128 0x38
 3818 02e1 34       		.uleb128 0x34
 3819 02e2 00       		.byte	0
ARM GAS  /var/tmp//cc3kRWEe.s 			page 68


 3820 02e3 03       		.uleb128 0x3
 3821 02e4 08       		.uleb128 0x8
 3822 02e5 3A       		.uleb128 0x3a
 3823 02e6 0B       		.uleb128 0xb
 3824 02e7 3B       		.uleb128 0x3b
 3825 02e8 0B       		.uleb128 0xb
 3826 02e9 49       		.uleb128 0x49
 3827 02ea 13       		.uleb128 0x13
 3828 02eb 02       		.uleb128 0x2
 3829 02ec 17       		.uleb128 0x17
 3830 02ed 00       		.byte	0
 3831 02ee 00       		.byte	0
 3832 02ef 39       		.uleb128 0x39
 3833 02f0 1D       		.uleb128 0x1d
 3834 02f1 01       		.byte	0x1
 3835 02f2 31       		.uleb128 0x31
 3836 02f3 13       		.uleb128 0x13
 3837 02f4 11       		.uleb128 0x11
 3838 02f5 01       		.uleb128 0x1
 3839 02f6 12       		.uleb128 0x12
 3840 02f7 06       		.uleb128 0x6
 3841 02f8 58       		.uleb128 0x58
 3842 02f9 0B       		.uleb128 0xb
 3843 02fa 59       		.uleb128 0x59
 3844 02fb 0B       		.uleb128 0xb
 3845 02fc 01       		.uleb128 0x1
 3846 02fd 13       		.uleb128 0x13
 3847 02fe 00       		.byte	0
 3848 02ff 00       		.byte	0
 3849 0300 3A       		.uleb128 0x3a
 3850 0301 1D       		.uleb128 0x1d
 3851 0302 01       		.byte	0x1
 3852 0303 31       		.uleb128 0x31
 3853 0304 13       		.uleb128 0x13
 3854 0305 52       		.uleb128 0x52
 3855 0306 01       		.uleb128 0x1
 3856 0307 55       		.uleb128 0x55
 3857 0308 17       		.uleb128 0x17
 3858 0309 58       		.uleb128 0x58
 3859 030a 0B       		.uleb128 0xb
 3860 030b 59       		.uleb128 0x59
 3861 030c 0B       		.uleb128 0xb
 3862 030d 01       		.uleb128 0x1
 3863 030e 13       		.uleb128 0x13
 3864 030f 00       		.byte	0
 3865 0310 00       		.byte	0
 3866 0311 3B       		.uleb128 0x3b
 3867 0312 898201   		.uleb128 0x4109
 3868 0315 01       		.byte	0x1
 3869 0316 11       		.uleb128 0x11
 3870 0317 01       		.uleb128 0x1
 3871 0318 9542     		.uleb128 0x2115
 3872 031a 19       		.uleb128 0x19
 3873 031b 31       		.uleb128 0x31
 3874 031c 13       		.uleb128 0x13
 3875 031d 01       		.uleb128 0x1
 3876 031e 13       		.uleb128 0x13
ARM GAS  /var/tmp//cc3kRWEe.s 			page 69


 3877 031f 00       		.byte	0
 3878 0320 00       		.byte	0
 3879 0321 3C       		.uleb128 0x3c
 3880 0322 898201   		.uleb128 0x4109
 3881 0325 01       		.byte	0x1
 3882 0326 11       		.uleb128 0x11
 3883 0327 01       		.uleb128 0x1
 3884 0328 31       		.uleb128 0x31
 3885 0329 13       		.uleb128 0x13
 3886 032a 00       		.byte	0
 3887 032b 00       		.byte	0
 3888 032c 3D       		.uleb128 0x3d
 3889 032d 05       		.uleb128 0x5
 3890 032e 00       		.byte	0
 3891 032f 03       		.uleb128 0x3
 3892 0330 08       		.uleb128 0x8
 3893 0331 3A       		.uleb128 0x3a
 3894 0332 0B       		.uleb128 0xb
 3895 0333 3B       		.uleb128 0x3b
 3896 0334 0B       		.uleb128 0xb
 3897 0335 49       		.uleb128 0x49
 3898 0336 13       		.uleb128 0x13
 3899 0337 02       		.uleb128 0x2
 3900 0338 18       		.uleb128 0x18
 3901 0339 00       		.byte	0
 3902 033a 00       		.byte	0
 3903 033b 3E       		.uleb128 0x3e
 3904 033c 2E       		.uleb128 0x2e
 3905 033d 01       		.byte	0x1
 3906 033e 03       		.uleb128 0x3
 3907 033f 0E       		.uleb128 0xe
 3908 0340 3A       		.uleb128 0x3a
 3909 0341 0B       		.uleb128 0xb
 3910 0342 3B       		.uleb128 0x3b
 3911 0343 0B       		.uleb128 0xb
 3912 0344 27       		.uleb128 0x27
 3913 0345 19       		.uleb128 0x19
 3914 0346 49       		.uleb128 0x49
 3915 0347 13       		.uleb128 0x13
 3916 0348 20       		.uleb128 0x20
 3917 0349 0B       		.uleb128 0xb
 3918 034a 01       		.uleb128 0x1
 3919 034b 13       		.uleb128 0x13
 3920 034c 00       		.byte	0
 3921 034d 00       		.byte	0
 3922 034e 3F       		.uleb128 0x3f
 3923 034f 05       		.uleb128 0x5
 3924 0350 00       		.byte	0
 3925 0351 03       		.uleb128 0x3
 3926 0352 08       		.uleb128 0x8
 3927 0353 3A       		.uleb128 0x3a
 3928 0354 0B       		.uleb128 0xb
 3929 0355 3B       		.uleb128 0x3b
 3930 0356 0B       		.uleb128 0xb
 3931 0357 49       		.uleb128 0x49
 3932 0358 13       		.uleb128 0x13
 3933 0359 00       		.byte	0
ARM GAS  /var/tmp//cc3kRWEe.s 			page 70


 3934 035a 00       		.byte	0
 3935 035b 40       		.uleb128 0x40
 3936 035c 2E       		.uleb128 0x2e
 3937 035d 01       		.byte	0x1
 3938 035e 03       		.uleb128 0x3
 3939 035f 0E       		.uleb128 0xe
 3940 0360 3A       		.uleb128 0x3a
 3941 0361 0B       		.uleb128 0xb
 3942 0362 3B       		.uleb128 0x3b
 3943 0363 05       		.uleb128 0x5
 3944 0364 27       		.uleb128 0x27
 3945 0365 19       		.uleb128 0x19
 3946 0366 20       		.uleb128 0x20
 3947 0367 0B       		.uleb128 0xb
 3948 0368 01       		.uleb128 0x1
 3949 0369 13       		.uleb128 0x13
 3950 036a 00       		.byte	0
 3951 036b 00       		.byte	0
 3952 036c 41       		.uleb128 0x41
 3953 036d 2E       		.uleb128 0x2e
 3954 036e 00       		.byte	0
 3955 036f 03       		.uleb128 0x3
 3956 0370 0E       		.uleb128 0xe
 3957 0371 3A       		.uleb128 0x3a
 3958 0372 0B       		.uleb128 0xb
 3959 0373 3B       		.uleb128 0x3b
 3960 0374 05       		.uleb128 0x5
 3961 0375 27       		.uleb128 0x27
 3962 0376 19       		.uleb128 0x19
 3963 0377 20       		.uleb128 0x20
 3964 0378 0B       		.uleb128 0xb
 3965 0379 00       		.byte	0
 3966 037a 00       		.byte	0
 3967 037b 42       		.uleb128 0x42
 3968 037c 2E       		.uleb128 0x2e
 3969 037d 01       		.byte	0x1
 3970 037e 03       		.uleb128 0x3
 3971 037f 0E       		.uleb128 0xe
 3972 0380 3A       		.uleb128 0x3a
 3973 0381 0B       		.uleb128 0xb
 3974 0382 3B       		.uleb128 0x3b
 3975 0383 05       		.uleb128 0x5
 3976 0384 27       		.uleb128 0x27
 3977 0385 19       		.uleb128 0x19
 3978 0386 49       		.uleb128 0x49
 3979 0387 13       		.uleb128 0x13
 3980 0388 20       		.uleb128 0x20
 3981 0389 0B       		.uleb128 0xb
 3982 038a 01       		.uleb128 0x1
 3983 038b 13       		.uleb128 0x13
 3984 038c 00       		.byte	0
 3985 038d 00       		.byte	0
 3986 038e 43       		.uleb128 0x43
 3987 038f 05       		.uleb128 0x5
 3988 0390 00       		.byte	0
 3989 0391 03       		.uleb128 0x3
 3990 0392 0E       		.uleb128 0xe
ARM GAS  /var/tmp//cc3kRWEe.s 			page 71


 3991 0393 3A       		.uleb128 0x3a
 3992 0394 0B       		.uleb128 0xb
 3993 0395 3B       		.uleb128 0x3b
 3994 0396 05       		.uleb128 0x5
 3995 0397 49       		.uleb128 0x49
 3996 0398 13       		.uleb128 0x13
 3997 0399 00       		.byte	0
 3998 039a 00       		.byte	0
 3999 039b 44       		.uleb128 0x44
 4000 039c 2E       		.uleb128 0x2e
 4001 039d 01       		.byte	0x1
 4002 039e 31       		.uleb128 0x31
 4003 039f 13       		.uleb128 0x13
 4004 03a0 11       		.uleb128 0x11
 4005 03a1 01       		.uleb128 0x1
 4006 03a2 12       		.uleb128 0x12
 4007 03a3 06       		.uleb128 0x6
 4008 03a4 40       		.uleb128 0x40
 4009 03a5 18       		.uleb128 0x18
 4010 03a6 9742     		.uleb128 0x2117
 4011 03a8 19       		.uleb128 0x19
 4012 03a9 01       		.uleb128 0x1
 4013 03aa 13       		.uleb128 0x13
 4014 03ab 00       		.byte	0
 4015 03ac 00       		.byte	0
 4016 03ad 45       		.uleb128 0x45
 4017 03ae 2E       		.uleb128 0x2e
 4018 03af 00       		.byte	0
 4019 03b0 3F       		.uleb128 0x3f
 4020 03b1 19       		.uleb128 0x19
 4021 03b2 3C       		.uleb128 0x3c
 4022 03b3 19       		.uleb128 0x19
 4023 03b4 6E       		.uleb128 0x6e
 4024 03b5 0E       		.uleb128 0xe
 4025 03b6 03       		.uleb128 0x3
 4026 03b7 0E       		.uleb128 0xe
 4027 03b8 3A       		.uleb128 0x3a
 4028 03b9 0B       		.uleb128 0xb
 4029 03ba 3B       		.uleb128 0x3b
 4030 03bb 05       		.uleb128 0x5
 4031 03bc 00       		.byte	0
 4032 03bd 00       		.byte	0
 4033 03be 00       		.byte	0
 4034              		.section	.debug_loc,"",%progbits
 4035              	.Ldebug_loc0:
 4036              	.LLST43:
 4037 0000 12000000 		.4byte	.LVL84
 4038 0004 18000000 		.4byte	.LVL86
 4039 0008 0200     		.2byte	0x2
 4040 000a 74       		.byte	0x74
 4041 000b 3C       		.sleb128 60
 4042 000c 00000000 		.4byte	0
 4043 0010 00000000 		.4byte	0
 4044              	.LLST44:
 4045 0014 12000000 		.4byte	.LVL84
 4046 0018 26000000 		.4byte	.LVL87
 4047 001c 0100     		.2byte	0x1
ARM GAS  /var/tmp//cc3kRWEe.s 			page 72


 4048 001e 53       		.byte	0x53
 4049 001f 46000000 		.4byte	.LVL91
 4050 0023 4A000000 		.4byte	.LVL92
 4051 0027 0100     		.2byte	0x1
 4052 0029 53       		.byte	0x53
 4053 002a 00000000 		.4byte	0
 4054 002e 00000000 		.4byte	0
 4055              	.LLST45:
 4056 0032 14000000 		.4byte	.LVL85
 4057 0036 26000000 		.4byte	.LVL87
 4058 003a 0100     		.2byte	0x1
 4059 003c 52       		.byte	0x52
 4060 003d 46000000 		.4byte	.LVL91
 4061 0041 54000000 		.4byte	.LFE226
 4062 0045 0100     		.2byte	0x1
 4063 0047 50       		.byte	0x50
 4064 0048 00000000 		.4byte	0
 4065 004c 00000000 		.4byte	0
 4066              	.LLST42:
 4067 0050 08000000 		.4byte	.LVL82
 4068 0054 0C000000 		.4byte	.LVL83
 4069 0058 0300     		.2byte	0x3
 4070 005a 08       		.byte	0x8
 4071 005b 20       		.byte	0x20
 4072 005c 9F       		.byte	0x9f
 4073 005d 00000000 		.4byte	0
 4074 0061 00000000 		.4byte	0
 4075              	.LLST46:
 4076 0065 3E000000 		.4byte	.LVL89
 4077 0069 44000000 		.4byte	.LVL90
 4078 006d 0200     		.2byte	0x2
 4079 006f 30       		.byte	0x30
 4080 0070 9F       		.byte	0x9f
 4081 0071 00000000 		.4byte	0
 4082 0075 00000000 		.4byte	0
 4083              	.LLST34:
 4084 0079 00000000 		.4byte	.LVL68
 4085 007d 0A000000 		.4byte	.LVL69
 4086 0081 0100     		.2byte	0x1
 4087 0083 50       		.byte	0x50
 4088 0084 0A000000 		.4byte	.LVL69
 4089 0088 3E000000 		.4byte	.LVL79
 4090 008c 0100     		.2byte	0x1
 4091 008e 54       		.byte	0x54
 4092 008f 3E000000 		.4byte	.LVL79
 4093 0093 41000000 		.4byte	.LVL80-1
 4094 0097 0200     		.2byte	0x2
 4095 0099 70       		.byte	0x70
 4096 009a 3C       		.sleb128 60
 4097 009b 41000000 		.4byte	.LVL80-1
 4098 009f 42000000 		.4byte	.LVL80
 4099 00a3 0400     		.2byte	0x4
 4100 00a5 F3       		.byte	0xf3
 4101 00a6 01       		.uleb128 0x1
 4102 00a7 50       		.byte	0x50
 4103 00a8 9F       		.byte	0x9f
 4104 00a9 42000000 		.4byte	.LVL80
ARM GAS  /var/tmp//cc3kRWEe.s 			page 73


 4105 00ad 48000000 		.4byte	.LVL81
 4106 00b1 0100     		.2byte	0x1
 4107 00b3 54       		.byte	0x54
 4108 00b4 48000000 		.4byte	.LVL81
 4109 00b8 50000000 		.4byte	.LFE225
 4110 00bc 0400     		.2byte	0x4
 4111 00be F3       		.byte	0xf3
 4112 00bf 01       		.uleb128 0x1
 4113 00c0 50       		.byte	0x50
 4114 00c1 9F       		.byte	0x9f
 4115 00c2 00000000 		.4byte	0
 4116 00c6 00000000 		.4byte	0
 4117              	.LLST35:
 4118 00ca 0A000000 		.4byte	.LVL69
 4119 00ce 34000000 		.4byte	.LVL77
 4120 00d2 0100     		.2byte	0x1
 4121 00d4 50       		.byte	0x50
 4122 00d5 42000000 		.4byte	.LVL80
 4123 00d9 50000000 		.4byte	.LFE225
 4124 00dd 0100     		.2byte	0x1
 4125 00df 50       		.byte	0x50
 4126 00e0 00000000 		.4byte	0
 4127 00e4 00000000 		.4byte	0
 4128              	.LLST36:
 4129 00e8 14000000 		.4byte	.LVL70
 4130 00ec 2C000000 		.4byte	.LVL75
 4131 00f0 0100     		.2byte	0x1
 4132 00f2 53       		.byte	0x53
 4133 00f3 00000000 		.4byte	0
 4134 00f7 00000000 		.4byte	0
 4135              	.LLST37:
 4136 00fb 14000000 		.4byte	.LVL70
 4137 00ff 41000000 		.4byte	.LVL80-1
 4138 0103 0100     		.2byte	0x1
 4139 0105 51       		.byte	0x51
 4140 0106 00000000 		.4byte	0
 4141 010a 00000000 		.4byte	0
 4142              	.LLST38:
 4143 010e 16000000 		.4byte	.LVL71
 4144 0112 18000000 		.4byte	.LVL72
 4145 0116 0100     		.2byte	0x1
 4146 0118 53       		.byte	0x53
 4147 0119 00000000 		.4byte	0
 4148 011d 00000000 		.4byte	0
 4149              	.LLST40:
 4150 0121 30000000 		.4byte	.LVL76
 4151 0125 36000000 		.4byte	.LVL78
 4152 0129 0100     		.2byte	0x1
 4153 012b 54       		.byte	0x54
 4154 012c 00000000 		.4byte	0
 4155 0130 00000000 		.4byte	0
 4156              	.LLST41:
 4157 0134 30000000 		.4byte	.LVL76
 4158 0138 36000000 		.4byte	.LVL78
 4159 013c 0100     		.2byte	0x1
 4160 013e 55       		.byte	0x55
 4161 013f 00000000 		.4byte	0
ARM GAS  /var/tmp//cc3kRWEe.s 			page 74


 4162 0143 00000000 		.4byte	0
 4163              	.LLST24:
 4164 0147 00000000 		.4byte	.LVL49
 4165 014b 38000000 		.4byte	.LVL59
 4166 014f 0100     		.2byte	0x1
 4167 0151 50       		.byte	0x50
 4168 0152 38000000 		.4byte	.LVL59
 4169 0156 45000000 		.4byte	.LVL61-1
 4170 015a 0100     		.2byte	0x1
 4171 015c 53       		.byte	0x53
 4172 015d 45000000 		.4byte	.LVL61-1
 4173 0161 52000000 		.4byte	.LVL64
 4174 0165 0400     		.2byte	0x4
 4175 0167 F3       		.byte	0xf3
 4176 0168 01       		.uleb128 0x1
 4177 0169 50       		.byte	0x50
 4178 016a 9F       		.byte	0x9f
 4179 016b 52000000 		.4byte	.LVL64
 4180 016f 64000000 		.4byte	.LFE224
 4181 0173 0100     		.2byte	0x1
 4182 0175 50       		.byte	0x50
 4183 0176 00000000 		.4byte	0
 4184 017a 00000000 		.4byte	0
 4185              	.LLST25:
 4186 017e 06000000 		.4byte	.LVL50
 4187 0182 5E000000 		.4byte	.LVL67
 4188 0186 0100     		.2byte	0x1
 4189 0188 55       		.byte	0x55
 4190 0189 00000000 		.4byte	0
 4191 018d 00000000 		.4byte	0
 4192              	.LLST26:
 4193 0191 18000000 		.4byte	.LVL52
 4194 0195 30000000 		.4byte	.LVL57
 4195 0199 0100     		.2byte	0x1
 4196 019b 53       		.byte	0x53
 4197 019c 00000000 		.4byte	0
 4198 01a0 00000000 		.4byte	0
 4199              	.LLST28:
 4200 01a4 18000000 		.4byte	.LVL52
 4201 01a8 45000000 		.4byte	.LVL61-1
 4202 01ac 0100     		.2byte	0x1
 4203 01ae 51       		.byte	0x51
 4204 01af 00000000 		.4byte	0
 4205 01b3 00000000 		.4byte	0
 4206              	.LLST29:
 4207 01b7 1A000000 		.4byte	.LVL53
 4208 01bb 1C000000 		.4byte	.LVL54
 4209 01bf 0100     		.2byte	0x1
 4210 01c1 53       		.byte	0x53
 4211 01c2 00000000 		.4byte	0
 4212 01c6 00000000 		.4byte	0
 4213              	.LLST31:
 4214 01ca 36000000 		.4byte	.LVL58
 4215 01ce 3C000000 		.4byte	.LVL60
 4216 01d2 0100     		.2byte	0x1
 4217 01d4 53       		.byte	0x53
 4218 01d5 00000000 		.4byte	0
ARM GAS  /var/tmp//cc3kRWEe.s 			page 75


 4219 01d9 00000000 		.4byte	0
 4220              	.LLST32:
 4221 01dd 36000000 		.4byte	.LVL58
 4222 01e1 3C000000 		.4byte	.LVL60
 4223 01e5 0100     		.2byte	0x1
 4224 01e7 54       		.byte	0x54
 4225 01e8 00000000 		.4byte	0
 4226 01ec 00000000 		.4byte	0
 4227              	.LLST27:
 4228 01f0 06000000 		.4byte	.LVL50
 4229 01f4 0C000000 		.4byte	.LVL51
 4230 01f8 0300     		.2byte	0x3
 4231 01fa 08       		.byte	0x8
 4232 01fb 20       		.byte	0x20
 4233 01fc 9F       		.byte	0x9f
 4234 01fd 00000000 		.4byte	0
 4235 0201 00000000 		.4byte	0
 4236              	.LLST33:
 4237 0205 4A000000 		.4byte	.LVL62
 4238 0209 50000000 		.4byte	.LVL63
 4239 020d 0200     		.2byte	0x2
 4240 020f 30       		.byte	0x30
 4241 0210 9F       		.byte	0x9f
 4242 0211 56000000 		.4byte	.LVL65
 4243 0215 5C000000 		.4byte	.LVL66
 4244 0219 0200     		.2byte	0x2
 4245 021b 30       		.byte	0x30
 4246 021c 9F       		.byte	0x9f
 4247 021d 00000000 		.4byte	0
 4248 0221 00000000 		.4byte	0
 4249              	.LLST17:
 4250 0225 00000000 		.4byte	.LVL34
 4251 0229 0C000000 		.4byte	.LVL36
 4252 022d 0100     		.2byte	0x1
 4253 022f 50       		.byte	0x50
 4254 0230 0C000000 		.4byte	.LVL36
 4255 0234 10000000 		.4byte	.LVL38
 4256 0238 0100     		.2byte	0x1
 4257 023a 53       		.byte	0x53
 4258 023b 10000000 		.4byte	.LVL38
 4259 023f 16000000 		.4byte	.LVL40
 4260 0243 0400     		.2byte	0x4
 4261 0245 F3       		.byte	0xf3
 4262 0246 01       		.uleb128 0x1
 4263 0247 50       		.byte	0x50
 4264 0248 9F       		.byte	0x9f
 4265 0249 16000000 		.4byte	.LVL40
 4266 024d 26000000 		.4byte	.LVL42
 4267 0251 0100     		.2byte	0x1
 4268 0253 53       		.byte	0x53
 4269 0254 26000000 		.4byte	.LVL42
 4270 0258 30000000 		.4byte	.LFE222
 4271 025c 0200     		.2byte	0x2
 4272 025e 72       		.byte	0x72
 4273 025f 3C       		.sleb128 60
 4274 0260 00000000 		.4byte	0
 4275 0264 00000000 		.4byte	0
ARM GAS  /var/tmp//cc3kRWEe.s 			page 76


 4276              	.LLST18:
 4277 0268 00000000 		.4byte	.LVL34
 4278 026c 08000000 		.4byte	.LVL35
 4279 0270 0300     		.2byte	0x3
 4280 0272 08       		.byte	0x8
 4281 0273 20       		.byte	0x20
 4282 0274 9F       		.byte	0x9f
 4283 0275 00000000 		.4byte	0
 4284 0279 00000000 		.4byte	0
 4285              	.LLST19:
 4286 027d 08000000 		.4byte	.LVL35
 4287 0281 0C000000 		.4byte	.LVL36
 4288 0285 0100     		.2byte	0x1
 4289 0287 50       		.byte	0x50
 4290 0288 0C000000 		.4byte	.LVL36
 4291 028c 0E000000 		.4byte	.LVL37
 4292 0290 0100     		.2byte	0x1
 4293 0292 53       		.byte	0x53
 4294 0293 16000000 		.4byte	.LVL40
 4295 0297 24000000 		.4byte	.LVL41
 4296 029b 0100     		.2byte	0x1
 4297 029d 53       		.byte	0x53
 4298 029e 00000000 		.4byte	0
 4299 02a2 00000000 		.4byte	0
 4300              	.LLST20:
 4301 02a6 16000000 		.4byte	.LVL40
 4302 02aa 24000000 		.4byte	.LVL41
 4303 02ae 0100     		.2byte	0x1
 4304 02b0 53       		.byte	0x53
 4305 02b1 00000000 		.4byte	0
 4306 02b5 00000000 		.4byte	0
 4307              	.LLST21:
 4308 02b9 0E000000 		.4byte	.LVL37
 4309 02bd 14000000 		.4byte	.LVL39
 4310 02c1 0200     		.2byte	0x2
 4311 02c3 30       		.byte	0x30
 4312 02c4 9F       		.byte	0x9f
 4313 02c5 24000000 		.4byte	.LVL41
 4314 02c9 2A000000 		.4byte	.LVL43
 4315 02cd 0200     		.2byte	0x2
 4316 02cf 30       		.byte	0x30
 4317 02d0 9F       		.byte	0x9f
 4318 02d1 00000000 		.4byte	0
 4319 02d5 00000000 		.4byte	0
 4320              	.LLST1:
 4321 02d9 00000000 		.4byte	.LVL2
 4322 02dd 16000000 		.4byte	.LVL5
 4323 02e1 0100     		.2byte	0x1
 4324 02e3 50       		.byte	0x50
 4325 02e4 16000000 		.4byte	.LVL5
 4326 02e8 48000000 		.4byte	.LVL10
 4327 02ec 0100     		.2byte	0x1
 4328 02ee 55       		.byte	0x55
 4329 02ef 48000000 		.4byte	.LVL10
 4330 02f3 4C000000 		.4byte	.LVL11
 4331 02f7 0400     		.2byte	0x4
 4332 02f9 F3       		.byte	0xf3
ARM GAS  /var/tmp//cc3kRWEe.s 			page 77


 4333 02fa 01       		.uleb128 0x1
 4334 02fb 50       		.byte	0x50
 4335 02fc 9F       		.byte	0x9f
 4336 02fd 4C000000 		.4byte	.LVL11
 4337 0301 B8000000 		.4byte	.LVL28
 4338 0305 0100     		.2byte	0x1
 4339 0307 55       		.byte	0x55
 4340 0308 B8000000 		.4byte	.LVL28
 4341 030c C8000000 		.4byte	.LFE221
 4342 0310 0100     		.2byte	0x1
 4343 0312 50       		.byte	0x50
 4344 0313 00000000 		.4byte	0
 4345 0317 00000000 		.4byte	0
 4346              	.LLST2:
 4347 031b 08000000 		.4byte	.LVL3
 4348 031f 48000000 		.4byte	.LVL10
 4349 0323 0100     		.2byte	0x1
 4350 0325 54       		.byte	0x54
 4351 0326 4C000000 		.4byte	.LVL11
 4352 032a C2000000 		.4byte	.LVL29
 4353 032e 0100     		.2byte	0x1
 4354 0330 54       		.byte	0x54
 4355 0331 00000000 		.4byte	0
 4356 0335 00000000 		.4byte	0
 4357              	.LLST3:
 4358 0339 14000000 		.4byte	.LVL4
 4359 033d 24000000 		.4byte	.LVL6
 4360 0341 0100     		.2byte	0x1
 4361 0343 52       		.byte	0x52
 4362 0344 4C000000 		.4byte	.LVL11
 4363 0348 5B000000 		.4byte	.LVL13-1
 4364 034c 0100     		.2byte	0x1
 4365 034e 52       		.byte	0x52
 4366 034f 5E000000 		.4byte	.LVL14
 4367 0353 B8000000 		.4byte	.LVL28
 4368 0357 0100     		.2byte	0x1
 4369 0359 52       		.byte	0x52
 4370 035a 00000000 		.4byte	0
 4371 035e 00000000 		.4byte	0
 4372              	.LLST4:
 4373 0362 24000000 		.4byte	.LVL6
 4374 0366 40000000 		.4byte	.LVL9
 4375 036a 0100     		.2byte	0x1
 4376 036c 55       		.byte	0x55
 4377 036d 00000000 		.4byte	0
 4378 0371 00000000 		.4byte	0
 4379              	.LLST5:
 4380 0375 24000000 		.4byte	.LVL6
 4381 0379 40000000 		.4byte	.LVL9
 4382 037d 0100     		.2byte	0x1
 4383 037f 54       		.byte	0x54
 4384 0380 00000000 		.4byte	0
 4385 0384 00000000 		.4byte	0
 4386              	.LLST6:
 4387 0388 24000000 		.4byte	.LVL6
 4388 038c 28000000 		.4byte	.LVL7
 4389 0390 0100     		.2byte	0x1
ARM GAS  /var/tmp//cc3kRWEe.s 			page 78


 4390 0392 55       		.byte	0x55
 4391 0393 28000000 		.4byte	.LVL7
 4392 0397 40000000 		.4byte	.LVL9
 4393 039b 0100     		.2byte	0x1
 4394 039d 53       		.byte	0x53
 4395 039e 00000000 		.4byte	0
 4396 03a2 00000000 		.4byte	0
 4397              	.LLST7:
 4398 03a6 4C000000 		.4byte	.LVL11
 4399 03aa 58000000 		.4byte	.LVL12
 4400 03ae 0100     		.2byte	0x1
 4401 03b0 52       		.byte	0x52
 4402 03b1 00000000 		.4byte	0
 4403 03b5 00000000 		.4byte	0
 4404              	.LLST8:
 4405 03b9 5E000000 		.4byte	.LVL14
 4406 03bd 68000000 		.4byte	.LVL15
 4407 03c1 0100     		.2byte	0x1
 4408 03c3 52       		.byte	0x52
 4409 03c4 00000000 		.4byte	0
 4410 03c8 00000000 		.4byte	0
 4411              	.LLST9:
 4412 03cc 6A000000 		.4byte	.LVL16
 4413 03d0 86000000 		.4byte	.LVL20
 4414 03d4 0100     		.2byte	0x1
 4415 03d6 56       		.byte	0x56
 4416 03d7 00000000 		.4byte	0
 4417 03db 00000000 		.4byte	0
 4418              	.LLST10:
 4419 03df 6E000000 		.4byte	.LVL17
 4420 03e3 86000000 		.4byte	.LVL20
 4421 03e7 0100     		.2byte	0x1
 4422 03e9 53       		.byte	0x53
 4423 03ea 00000000 		.4byte	0
 4424 03ee 00000000 		.4byte	0
 4425              	.LLST11:
 4426 03f2 86000000 		.4byte	.LVL20
 4427 03f6 90000000 		.4byte	.LVL21
 4428 03fa 0100     		.2byte	0x1
 4429 03fc 52       		.byte	0x52
 4430 03fd 00000000 		.4byte	0
 4431 0401 00000000 		.4byte	0
 4432              	.LLST12:
 4433 0405 92000000 		.4byte	.LVL22
 4434 0409 AC000000 		.4byte	.LVL26
 4435 040d 0100     		.2byte	0x1
 4436 040f 56       		.byte	0x56
 4437 0410 00000000 		.4byte	0
 4438 0414 00000000 		.4byte	0
 4439              	.LLST13:
 4440 0418 96000000 		.4byte	.LVL23
 4441 041c AC000000 		.4byte	.LVL26
 4442 0420 0100     		.2byte	0x1
 4443 0422 53       		.byte	0x53
 4444 0423 00000000 		.4byte	0
 4445 0427 00000000 		.4byte	0
 4446              	.LLST14:
ARM GAS  /var/tmp//cc3kRWEe.s 			page 79


 4447 042b 00000000 		.4byte	.LVL30
 4448 042f 0B000000 		.4byte	.LVL32-1
 4449 0433 0100     		.2byte	0x1
 4450 0435 50       		.byte	0x50
 4451 0436 0B000000 		.4byte	.LVL32-1
 4452 043a 14000000 		.4byte	.LFE220
 4453 043e 0400     		.2byte	0x4
 4454 0440 F3       		.byte	0xf3
 4455 0441 01       		.uleb128 0x1
 4456 0442 50       		.byte	0x50
 4457 0443 9F       		.byte	0x9f
 4458 0444 00000000 		.4byte	0
 4459 0448 00000000 		.4byte	0
 4460              	.LLST15:
 4461 044c 00000000 		.4byte	.LVL30
 4462 0450 08000000 		.4byte	.LVL31
 4463 0454 0300     		.2byte	0x3
 4464 0456 08       		.byte	0x8
 4465 0457 20       		.byte	0x20
 4466 0458 9F       		.byte	0x9f
 4467 0459 00000000 		.4byte	0
 4468 045d 00000000 		.4byte	0
 4469              	.LLST16:
 4470 0461 0C000000 		.4byte	.LVL32
 4471 0465 12000000 		.4byte	.LVL33
 4472 0469 0200     		.2byte	0x2
 4473 046b 30       		.byte	0x30
 4474 046c 9F       		.byte	0x9f
 4475 046d 00000000 		.4byte	0
 4476 0471 00000000 		.4byte	0
 4477              	.LLST0:
 4478 0475 00000000 		.4byte	.LVL0
 4479 0479 06000000 		.4byte	.LVL1
 4480 047d 0100     		.2byte	0x1
 4481 047f 50       		.byte	0x50
 4482 0480 00000000 		.4byte	0
 4483 0484 00000000 		.4byte	0
 4484              	.LLST22:
 4485 0488 00000000 		.4byte	.LVL44
 4486 048c 08000000 		.4byte	.LVL45
 4487 0490 0100     		.2byte	0x1
 4488 0492 50       		.byte	0x50
 4489 0493 08000000 		.4byte	.LVL45
 4490 0497 0A000000 		.4byte	.LVL46
 4491 049b 0100     		.2byte	0x1
 4492 049d 53       		.byte	0x53
 4493 049e 0A000000 		.4byte	.LVL46
 4494 04a2 16000000 		.4byte	.LVL47
 4495 04a6 0100     		.2byte	0x1
 4496 04a8 50       		.byte	0x50
 4497 04a9 16000000 		.4byte	.LVL47
 4498 04ad 20000000 		.4byte	.LFE223
 4499 04b1 0100     		.2byte	0x1
 4500 04b3 53       		.byte	0x53
 4501 04b4 00000000 		.4byte	0
 4502 04b8 00000000 		.4byte	0
 4503              	.LLST23:
ARM GAS  /var/tmp//cc3kRWEe.s 			page 80


 4504 04bc 0A000000 		.4byte	.LVL46
 4505 04c0 16000000 		.4byte	.LVL47
 4506 04c4 0100     		.2byte	0x1
 4507 04c6 50       		.byte	0x50
 4508 04c7 16000000 		.4byte	.LVL47
 4509 04cb 18000000 		.4byte	.LVL48
 4510 04cf 0100     		.2byte	0x1
 4511 04d1 53       		.byte	0x53
 4512 04d2 00000000 		.4byte	0
 4513 04d6 00000000 		.4byte	0
 4514              		.section	.debug_aranges,"",%progbits
 4515 0000 54000000 		.4byte	0x54
 4516 0004 0200     		.2byte	0x2
 4517 0006 00000000 		.4byte	.Ldebug_info0
 4518 000a 04       		.byte	0x4
 4519 000b 00       		.byte	0
 4520 000c 0000     		.2byte	0
 4521 000e 0000     		.2byte	0
 4522 0010 00000000 		.4byte	.LFB219
 4523 0014 0A000000 		.4byte	.LFE219-.LFB219
 4524 0018 00000000 		.4byte	.LFB221
 4525 001c C8000000 		.4byte	.LFE221-.LFB221
 4526 0020 00000000 		.4byte	.LFB220
 4527 0024 14000000 		.4byte	.LFE220-.LFB220
 4528 0028 00000000 		.4byte	.LFB222
 4529 002c 30000000 		.4byte	.LFE222-.LFB222
 4530 0030 00000000 		.4byte	.LFB223
 4531 0034 20000000 		.4byte	.LFE223-.LFB223
 4532 0038 00000000 		.4byte	.LFB224
 4533 003c 64000000 		.4byte	.LFE224-.LFB224
 4534 0040 00000000 		.4byte	.LFB225
 4535 0044 50000000 		.4byte	.LFE225-.LFB225
 4536 0048 00000000 		.4byte	.LFB226
 4537 004c 54000000 		.4byte	.LFE226-.LFB226
 4538 0050 00000000 		.4byte	0
 4539 0054 00000000 		.4byte	0
 4540              		.section	.debug_ranges,"",%progbits
 4541              	.Ldebug_ranges0:
 4542 0000 0C000000 		.4byte	.LBB105
 4543 0004 44000000 		.4byte	.LBE105
 4544 0008 48000000 		.4byte	.LBB120
 4545 000c B8000000 		.4byte	.LBE120
 4546 0010 00000000 		.4byte	0
 4547 0014 00000000 		.4byte	0
 4548 0018 4C000000 		.4byte	.LBB108
 4549 001c 54000000 		.4byte	.LBE108
 4550 0020 56000000 		.4byte	.LBB111
 4551 0024 58000000 		.4byte	.LBE111
 4552 0028 00000000 		.4byte	0
 4553 002c 00000000 		.4byte	0
 4554 0030 08000000 		.4byte	.LBB147
 4555 0034 0E000000 		.4byte	.LBE147
 4556 0038 16000000 		.4byte	.LBB161
 4557 003c 24000000 		.4byte	.LBE161
 4558 0040 00000000 		.4byte	0
 4559 0044 00000000 		.4byte	0
 4560 0048 0E000000 		.4byte	.LBB152
ARM GAS  /var/tmp//cc3kRWEe.s 			page 81


 4561 004c 14000000 		.4byte	.LBE152
 4562 0050 24000000 		.4byte	.LBB162
 4563 0054 2A000000 		.4byte	.LBE162
 4564 0058 00000000 		.4byte	0
 4565 005c 00000000 		.4byte	0
 4566 0060 30000000 		.4byte	.LBB180
 4567 0064 32000000 		.4byte	.LBE180
 4568 0068 38000000 		.4byte	.LBB183
 4569 006c 3C000000 		.4byte	.LBE183
 4570 0070 00000000 		.4byte	0
 4571 0074 00000000 		.4byte	0
 4572 0078 4A000000 		.4byte	.LBB184
 4573 007c 52000000 		.4byte	.LBE184
 4574 0080 56000000 		.4byte	.LBB193
 4575 0084 64000000 		.4byte	.LBE193
 4576 0088 00000000 		.4byte	0
 4577 008c 00000000 		.4byte	0
 4578 0090 12000000 		.4byte	.LBB198
 4579 0094 3C000000 		.4byte	.LBE198
 4580 0098 3E000000 		.4byte	.LBB209
 4581 009c 42000000 		.4byte	.LBE209
 4582 00a0 00000000 		.4byte	0
 4583 00a4 00000000 		.4byte	0
 4584 00a8 2A000000 		.4byte	.LBB203
 4585 00ac 2C000000 		.4byte	.LBE203
 4586 00b0 30000000 		.4byte	.LBB207
 4587 00b4 32000000 		.4byte	.LBE207
 4588 00b8 34000000 		.4byte	.LBB208
 4589 00bc 36000000 		.4byte	.LBE208
 4590 00c0 00000000 		.4byte	0
 4591 00c4 00000000 		.4byte	0
 4592 00c8 04000000 		.4byte	.LBB210
 4593 00cc 06000000 		.4byte	.LBE210
 4594 00d0 08000000 		.4byte	.LBB217
 4595 00d4 0C000000 		.4byte	.LBE217
 4596 00d8 00000000 		.4byte	0
 4597 00dc 00000000 		.4byte	0
 4598 00e0 10000000 		.4byte	.LBB218
 4599 00e4 32000000 		.4byte	.LBE218
 4600 00e8 46000000 		.4byte	.LBB234
 4601 00ec 4A000000 		.4byte	.LBE234
 4602 00f0 00000000 		.4byte	0
 4603 00f4 00000000 		.4byte	0
 4604 00f8 1A000000 		.4byte	.LBB223
 4605 00fc 1C000000 		.4byte	.LBE223
 4606 0100 1E000000 		.4byte	.LBB228
 4607 0104 32000000 		.4byte	.LBE228
 4608 0108 00000000 		.4byte	0
 4609 010c 00000000 		.4byte	0
 4610 0110 1E000000 		.4byte	.LBB224
 4611 0114 20000000 		.4byte	.LBE224
 4612 0118 22000000 		.4byte	.LBB227
 4613 011c 26000000 		.4byte	.LBE227
 4614 0120 00000000 		.4byte	0
 4615 0124 00000000 		.4byte	0
 4616 0128 00000000 		.4byte	.LFB219
 4617 012c 0A000000 		.4byte	.LFE219
ARM GAS  /var/tmp//cc3kRWEe.s 			page 82


 4618 0130 00000000 		.4byte	.LFB221
 4619 0134 C8000000 		.4byte	.LFE221
 4620 0138 00000000 		.4byte	.LFB220
 4621 013c 14000000 		.4byte	.LFE220
 4622 0140 00000000 		.4byte	.LFB222
 4623 0144 30000000 		.4byte	.LFE222
 4624 0148 00000000 		.4byte	.LFB223
 4625 014c 20000000 		.4byte	.LFE223
 4626 0150 00000000 		.4byte	.LFB224
 4627 0154 64000000 		.4byte	.LFE224
 4628 0158 00000000 		.4byte	.LFB225
 4629 015c 50000000 		.4byte	.LFE225
 4630 0160 00000000 		.4byte	.LFB226
 4631 0164 54000000 		.4byte	.LFE226
 4632 0168 00000000 		.4byte	0
 4633 016c 00000000 		.4byte	0
 4634              		.section	.debug_line,"",%progbits
 4635              	.Ldebug_line0:
 4636 0000 C7040000 		.section	.debug_str,"MS",%progbits,1
 4636      02005D02 
 4636      00000201 
 4636      FB0E0D00 
 4636      01010101 
 4637              	.LASF117:
 4638 0000 63665F6F 		.ascii	"cf_off_older\000"
 4638      66665F6F 
 4638      6C646572 
 4638      00
 4639              	.LASF55:
 4640 000d 72656164 		.ascii	"ready_list_t\000"
 4640      795F6C69 
 4640      73745F74 
 4640      00
 4641              	.LASF95:
 4642 001a 77747472 		.ascii	"wttrp\000"
 4642      7000
 4643              	.LASF92:
 4644 0020 7264796D 		.ascii	"rdymsg\000"
 4644      736700
 4645              	.LASF18:
 4646 0027 75696E74 		.ascii	"uint64_t\000"
 4646      36345F74 
 4646      00
 4647              	.LASF4:
 4648 0030 5F5F7569 		.ascii	"__uint8_t\000"
 4648      6E74385F 
 4648      7400
 4649              	.LASF89:
 4650 003a 706F7274 		.ascii	"port_intctx\000"
 4650      5F696E74 
 4650      63747800 
 4651              	.LASF74:
 4652 0046 73797374 		.ascii	"system_debug_t\000"
 4652      656D5F64 
 4652      65627567 
 4652      5F7400
 4653              	.LASF144:
ARM GAS  /var/tmp//cc3kRWEe.s 			page 83


 4654 0055 71756575 		.ascii	"queue_init\000"
 4654      655F696E 
 4654      697400
 4655              	.LASF147:
 4656 0060 706F7274 		.ascii	"port_lock\000"
 4656      5F6C6F63 
 4656      6B00
 4657              	.LASF13:
 4658 006a 6C6F6E67 		.ascii	"long long unsigned int\000"
 4658      206C6F6E 
 4658      6720756E 
 4658      7369676E 
 4658      65642069 
 4659              	.LASF113:
 4660 0081 63685F74 		.ascii	"ch_threadsize\000"
 4660      68726561 
 4660      6473697A 
 4660      6500
 4661              	.LASF93:
 4662 008f 65786974 		.ascii	"exitcode\000"
 4662      636F6465 
 4662      00
 4663              	.LASF81:
 4664 0098 6D61696E 		.ascii	"mainthread\000"
 4664      74687265 
 4664      616400
 4665              	.LASF71:
 4666 00a3 76697274 		.ascii	"virtual_timers_list_t\000"
 4666      75616C5F 
 4666      74696D65 
 4666      72735F6C 
 4666      6973745F 
 4667              	.LASF84:
 4668 00b9 49544D5F 		.ascii	"ITM_RxBuffer\000"
 4668      52784275 
 4668      66666572 
 4668      00
 4669              	.LASF54:
 4670 00c6 63685F74 		.ascii	"ch_threads_queue\000"
 4670      68726561 
 4670      64735F71 
 4670      75657565 
 4670      00
 4671              	.LASF32:
 4672 00d7 705F7072 		.ascii	"p_prio\000"
 4672      696F00
 4673              	.LASF120:
 4674 00de 63665F6F 		.ascii	"cf_off_state\000"
 4674      66665F73 
 4674      74617465 
 4674      00
 4675              	.LASF127:
 4676 00eb 6D757465 		.ascii	"mutex_t\000"
 4676      785F7400 
 4677              	.LASF131:
 4678 00f3 63684D74 		.ascii	"chMtxUnlock\000"
 4678      78556E6C 
ARM GAS  /var/tmp//cc3kRWEe.s 			page 84


 4678      6F636B00 
 4679              	.LASF1:
 4680 00ff 7369676E 		.ascii	"signed char\000"
 4680      65642063 
 4680      68617200 
 4681              	.LASF119:
 4682 010b 63665F6F 		.ascii	"cf_off_stklimit\000"
 4682      66665F73 
 4682      746B6C69 
 4682      6D697400 
 4683              	.LASF121:
 4684 011b 63665F6F 		.ascii	"cf_off_flags\000"
 4684      66665F66 
 4684      6C616773 
 4684      00
 4685              	.LASF48:
 4686 0128 705F6D70 		.ascii	"p_mpool\000"
 4686      6F6F6C00 
 4687              	.LASF103:
 4688 0130 6D5F7175 		.ascii	"m_queue\000"
 4688      65756500 
 4689              	.LASF80:
 4690 0138 76746C69 		.ascii	"vtlist\000"
 4690      737400
 4691              	.LASF146:
 4692 013f 706F7274 		.ascii	"port_unlock\000"
 4692      5F756E6C 
 4692      6F636B00 
 4693              	.LASF23:
 4694 014b 74736C69 		.ascii	"tslices_t\000"
 4694      6365735F 
 4694      7400
 4695              	.LASF78:
 4696 0155 63685F73 		.ascii	"ch_system\000"
 4696      79737465 
 4696      6D00
 4697              	.LASF8:
 4698 015f 6C6F6E67 		.ascii	"long int\000"
 4698      20696E74 
 4698      00
 4699              	.LASF140:
 4700 0168 71756575 		.ascii	"queue_dequeue\000"
 4700      655F6465 
 4700      71756575 
 4700      6500
 4701              	.LASF21:
 4702 0176 74737461 		.ascii	"tstate_t\000"
 4702      74655F74 
 4702      00
 4703              	.LASF143:
 4704 017f 71756575 		.ascii	"queue_notempty\000"
 4704      655F6E6F 
 4704      74656D70 
 4704      747900
 4705              	.LASF125:
 4706 018e 63686465 		.ascii	"chdebug_t\000"
 4706      6275675F 
ARM GAS  /var/tmp//cc3kRWEe.s 			page 85


 4706      7400
 4707              	.LASF137:
 4708 0198 63684D74 		.ascii	"chMtxTryLockS\000"
 4708      78547279 
 4708      4C6F636B 
 4708      5300
 4709              	.LASF34:
 4710 01a6 705F6E65 		.ascii	"p_newer\000"
 4710      77657200 
 4711              	.LASF100:
 4712 01ae 735F7175 		.ascii	"s_queue\000"
 4712      65756500 
 4713              	.LASF151:
 4714 01b6 63685363 		.ascii	"chSchRescheduleS\000"
 4714      68526573 
 4714      63686564 
 4714      756C6553 
 4714      00
 4715              	.LASF60:
 4716 01c7 725F6E65 		.ascii	"r_newer\000"
 4716      77657200 
 4717              	.LASF86:
 4718 01cf 72656761 		.ascii	"regarm_t\000"
 4718      726D5F74 
 4718      00
 4719              	.LASF67:
 4720 01d8 76745F70 		.ascii	"vt_prev\000"
 4720      72657600 
 4721              	.LASF11:
 4722 01e0 6C6F6E67 		.ascii	"long long int\000"
 4722      206C6F6E 
 4722      6720696E 
 4722      7400
 4723              	.LASF149:
 4724 01ee 76616C75 		.ascii	"value\000"
 4724      6500
 4725              	.LASF82:
 4726 01f4 69646C65 		.ascii	"idle_thread_wa\000"
 4726      5F746872 
 4726      6561645F 
 4726      776100
 4727              	.LASF27:
 4728 0203 636E745F 		.ascii	"cnt_t\000"
 4728      7400
 4729              	.LASF129:
 4730 0209 63684D74 		.ascii	"chMtxUnlockS\000"
 4730      78556E6C 
 4730      6F636B53 
 4730      00
 4731              	.LASF0:
 4732 0216 756E7369 		.ascii	"unsigned int\000"
 4732      676E6564 
 4732      20696E74 
 4732      00
 4733              	.LASF66:
 4734 0223 76745F6E 		.ascii	"vt_next\000"
 4734      65787400 
ARM GAS  /var/tmp//cc3kRWEe.s 			page 86


 4735              	.LASF15:
 4736 022b 75696E74 		.ascii	"uint16_t\000"
 4736      31365F74 
 4736      00
 4737              	.LASF85:
 4738 0234 53797374 		.ascii	"SystemCoreClock\000"
 4738      656D436F 
 4738      7265436C 
 4738      6F636B00 
 4739              	.LASF41:
 4740 0244 705F7469 		.ascii	"p_time\000"
 4740      6D6500
 4741              	.LASF96:
 4742 024b 77747365 		.ascii	"wtsemp\000"
 4742      6D7000
 4743              	.LASF68:
 4744 0252 76745F64 		.ascii	"vt_delta\000"
 4744      656C7461 
 4744      00
 4745              	.LASF43:
 4746 025b 705F6D73 		.ascii	"p_msgqueue\000"
 4746      67717565 
 4746      756500
 4747              	.LASF126:
 4748 0266 63685F64 		.ascii	"ch_debug\000"
 4748      65627567 
 4748      00
 4749              	.LASF101:
 4750 026f 735F636E 		.ascii	"s_cnt\000"
 4750      7400
 4751              	.LASF6:
 4752 0275 73686F72 		.ascii	"short unsigned int\000"
 4752      7420756E 
 4752      7369676E 
 4752      65642069 
 4752      6E7400
 4753              	.LASF51:
 4754 0288 63685F74 		.ascii	"ch_thread\000"
 4754      68726561 
 4754      6400
 4755              	.LASF25:
 4756 0292 6D73675F 		.ascii	"msg_t\000"
 4756      7400
 4757              	.LASF155:
 4758 0298 2F557365 		.ascii	"/Users/yanrudall/Documents/eBike/ebikeSystem\000"
 4758      72732F79 
 4758      616E7275 
 4758      64616C6C 
 4758      2F446F63 
 4759              	.LASF128:
 4760 02c5 63684D74 		.ascii	"chMtxUnlockAll\000"
 4760      78556E6C 
 4760      6F636B41 
 4760      6C6C00
 4761              	.LASF130:
 4762 02d4 6E657770 		.ascii	"newprio\000"
 4762      72696F00 
ARM GAS  /var/tmp//cc3kRWEe.s 			page 87


 4763              	.LASF124:
 4764 02dc 63665F6F 		.ascii	"cf_off_time\000"
 4764      66665F74 
 4764      696D6500 
 4765              	.LASF56:
 4766 02e8 63685F72 		.ascii	"ch_ready_list\000"
 4766      65616479 
 4766      5F6C6973 
 4766      7400
 4767              	.LASF26:
 4768 02f6 6576656E 		.ascii	"eventmask_t\000"
 4768      746D6173 
 4768      6B5F7400 
 4769              	.LASF156:
 4770 0302 63684D74 		.ascii	"chMtxTryLock\000"
 4770      78547279 
 4770      4C6F636B 
 4770      00
 4771              	.LASF7:
 4772 030f 5F5F696E 		.ascii	"__int32_t\000"
 4772      7433325F 
 4772      7400
 4773              	.LASF87:
 4774 0319 73746B61 		.ascii	"stkalign_t\000"
 4774      6C69676E 
 4774      5F7400
 4775              	.LASF153:
 4776 0324 474E5520 		.ascii	"GNU C99 6.3.1 20170620 (release) [ARM/embedded-6-br"
 4776      43393920 
 4776      362E332E 
 4776      31203230 
 4776      31373036 
 4777 0357 616E6368 		.ascii	"anch revision 249437] -mcpu=cortex-m4 -mfloat-abi=h"
 4777      20726576 
 4777      6973696F 
 4777      6E203234 
 4777      39343337 
 4778 038a 61726420 		.ascii	"ard -mfpu=fpv4-sp-d16 -mno-thumb-interwork -mthumb "
 4778      2D6D6670 
 4778      753D6670 
 4778      76342D73 
 4778      702D6431 
 4779 03bd 2D676764 		.ascii	"-ggdb -O2 -std=gnu99 -fomit-frame-pointer -falign-f"
 4779      62202D4F 
 4779      32202D73 
 4779      74643D67 
 4779      6E753939 
 4780 03f0 756E6374 		.ascii	"unctions=16 -ffunction-sections -fdata-sections -fn"
 4780      696F6E73 
 4780      3D313620 
 4780      2D666675 
 4780      6E637469 
 4781 0423 6F2D636F 		.ascii	"o-common -fsingle-precision-constant\000"
 4781      6D6D6F6E 
 4781      202D6673 
 4781      696E676C 
 4781      652D7072 
ARM GAS  /var/tmp//cc3kRWEe.s 			page 88


 4782              	.LASF50:
 4783 0448 74687265 		.ascii	"threads_list_t\000"
 4783      6164735F 
 4783      6C697374 
 4783      5F7400
 4784              	.LASF108:
 4785 0457 63685F7A 		.ascii	"ch_zero\000"
 4785      65726F00 
 4786              	.LASF122:
 4787 045f 63665F6F 		.ascii	"cf_off_refs\000"
 4787      66665F72 
 4787      65667300 
 4788              	.LASF42:
 4789 046b 705F7761 		.ascii	"p_waiting\000"
 4789      6974696E 
 4789      6700
 4790              	.LASF83:
 4791 0475 73697A65 		.ascii	"sizetype\000"
 4791      74797065 
 4791      00
 4792              	.LASF72:
 4793 047e 63685F76 		.ascii	"ch_virtual_timers_list\000"
 4793      69727475 
 4793      616C5F74 
 4793      696D6572 
 4793      735F6C69 
 4794              	.LASF148:
 4795 0495 5F5F7365 		.ascii	"__set_BASEPRI\000"
 4795      745F4241 
 4795      53455052 
 4795      4900
 4796              	.LASF112:
 4797 04a3 63685F74 		.ascii	"ch_timesize\000"
 4797      696D6573 
 4797      697A6500 
 4798              	.LASF118:
 4799 04af 63665F6F 		.ascii	"cf_off_name\000"
 4799      66665F6E 
 4799      616D6500 
 4800              	.LASF135:
 4801 04bb 63684D74 		.ascii	"chMtxLock\000"
 4801      784C6F63 
 4801      6B00
 4802              	.LASF35:
 4803 04c5 705F6F6C 		.ascii	"p_older\000"
 4803      64657200 
 4804              	.LASF59:
 4805 04cd 725F6374 		.ascii	"r_ctx\000"
 4805      7800
 4806              	.LASF33:
 4807 04d3 705F6374 		.ascii	"p_ctx\000"
 4807      7800
 4808              	.LASF91:
 4809 04d9 746D5F63 		.ascii	"tm_calibration_t\000"
 4809      616C6962 
 4809      72617469 
 4809      6F6E5F74 
ARM GAS  /var/tmp//cc3kRWEe.s 			page 89


 4809      00
 4810              	.LASF105:
 4811 04ea 6D5F6E65 		.ascii	"m_next\000"
 4811      787400
 4812              	.LASF62:
 4813 04f1 725F6375 		.ascii	"r_current\000"
 4813      7272656E 
 4813      7400
 4814              	.LASF61:
 4815 04fb 725F6F6C 		.ascii	"r_older\000"
 4815      64657200 
 4816              	.LASF12:
 4817 0503 5F5F7569 		.ascii	"__uint64_t\000"
 4817      6E743634 
 4817      5F7400
 4818              	.LASF22:
 4819 050e 74726566 		.ascii	"trefs_t\000"
 4819      735F7400 
 4820              	.LASF111:
 4821 0516 63685F70 		.ascii	"ch_ptrsize\000"
 4821      74727369 
 4821      7A6500
 4822              	.LASF64:
 4823 0521 76697274 		.ascii	"virtual_timer_t\000"
 4823      75616C5F 
 4823      74696D65 
 4823      725F7400 
 4824              	.LASF31:
 4825 0531 705F7072 		.ascii	"p_prev\000"
 4825      657600
 4826              	.LASF24:
 4827 0538 74707269 		.ascii	"tprio_t\000"
 4827      6F5F7400 
 4828              	.LASF136:
 4829 0540 63684D74 		.ascii	"chMtxObjectInit\000"
 4829      784F626A 
 4829      65637449 
 4829      6E697400 
 4830              	.LASF75:
 4831 0550 63685F73 		.ascii	"ch_system_debug\000"
 4831      79737465 
 4831      6D5F6465 
 4831      62756700 
 4832              	.LASF133:
 4833 0560 5F426F6F 		.ascii	"_Bool\000"
 4833      6C00
 4834              	.LASF16:
 4835 0566 696E7433 		.ascii	"int32_t\000"
 4835      325F7400 
 4836              	.LASF2:
 4837 056e 756E7369 		.ascii	"unsigned char\000"
 4837      676E6564 
 4837      20636861 
 4837      7200
 4838              	.LASF37:
 4839 057c 705F7374 		.ascii	"p_state\000"
 4839      61746500 
ARM GAS  /var/tmp//cc3kRWEe.s 			page 90


 4840              	.LASF46:
 4841 0584 705F6D74 		.ascii	"p_mtxlist\000"
 4841      786C6973 
 4841      7400
 4842              	.LASF3:
 4843 058e 73686F72 		.ascii	"short int\000"
 4843      7420696E 
 4843      7400
 4844              	.LASF40:
 4845 0598 705F7072 		.ascii	"p_preempt\000"
 4845      65656D70 
 4845      7400
 4846              	.LASF58:
 4847 05a2 725F7072 		.ascii	"r_prio\000"
 4847      696F00
 4848              	.LASF98:
 4849 05a9 65776D61 		.ascii	"ewmask\000"
 4849      736B00
 4850              	.LASF30:
 4851 05b0 705F6E65 		.ascii	"p_next\000"
 4851      787400
 4852              	.LASF20:
 4853 05b7 746D6F64 		.ascii	"tmode_t\000"
 4853      655F7400 
 4854              	.LASF123:
 4855 05bf 63665F6F 		.ascii	"cf_off_preempt\000"
 4855      66665F70 
 4855      7265656D 
 4855      707400
 4856              	.LASF38:
 4857 05ce 705F666C 		.ascii	"p_flags\000"
 4857      61677300 
 4858              	.LASF132:
 4859 05d6 5F5F6675 		.ascii	"__func__\000"
 4859      6E635F5F 
 4859      00
 4860              	.LASF145:
 4861 05df 63685379 		.ascii	"chSysLock\000"
 4861      734C6F63 
 4861      6B00
 4862              	.LASF53:
 4863 05e9 74687265 		.ascii	"threads_queue_t\000"
 4863      6164735F 
 4863      71756575 
 4863      655F7400 
 4864              	.LASF65:
 4865 05f9 63685F76 		.ascii	"ch_virtual_timer\000"
 4865      69727475 
 4865      616C5F74 
 4865      696D6572 
 4865      00
 4866              	.LASF116:
 4867 060a 63665F6F 		.ascii	"cf_off_newer\000"
 4867      66665F6E 
 4867      65776572 
 4867      00
 4868              	.LASF99:
ARM GAS  /var/tmp//cc3kRWEe.s 			page 91


 4869 0617 63685F73 		.ascii	"ch_semaphore\000"
 4869      656D6170 
 4869      686F7265 
 4869      00
 4870              	.LASF152:
 4871 0624 63685363 		.ascii	"chSchGoSleepS\000"
 4871      68476F53 
 4871      6C656570 
 4871      5300
 4872              	.LASF45:
 4873 0632 705F6570 		.ascii	"p_epending\000"
 4873      656E6469 
 4873      6E6700
 4874              	.LASF17:
 4875 063d 75696E74 		.ascii	"uint32_t\000"
 4875      33325F74 
 4875      00
 4876              	.LASF114:
 4877 0646 63665F6F 		.ascii	"cf_off_prio\000"
 4877      66665F70 
 4877      72696F00 
 4878              	.LASF57:
 4879 0652 725F7175 		.ascii	"r_queue\000"
 4879      65756500 
 4880              	.LASF150:
 4881 065a 63685363 		.ascii	"chSchReadyI\000"
 4881      68526561 
 4881      64794900 
 4882              	.LASF52:
 4883 0666 63685F74 		.ascii	"ch_threads_list\000"
 4883      68726561 
 4883      64735F6C 
 4883      69737400 
 4884              	.LASF109:
 4885 0676 63685F73 		.ascii	"ch_size\000"
 4885      697A6500 
 4886              	.LASF10:
 4887 067e 6C6F6E67 		.ascii	"long unsigned int\000"
 4887      20756E73 
 4887      69676E65 
 4887      6420696E 
 4887      7400
 4888              	.LASF106:
 4889 0690 63686172 		.ascii	"char\000"
 4889      00
 4890              	.LASF97:
 4891 0695 77746D74 		.ascii	"wtmtxp\000"
 4891      787000
 4892              	.LASF5:
 4893 069c 5F5F7569 		.ascii	"__uint16_t\000"
 4893      6E743136 
 4893      5F7400
 4894              	.LASF29:
 4895 06a7 74687265 		.ascii	"thread_t\000"
 4895      61645F74 
 4895      00
 4896              	.LASF141:
ARM GAS  /var/tmp//cc3kRWEe.s 			page 92


 4897 06b0 71756575 		.ascii	"queue_fifo_remove\000"
 4897      655F6669 
 4897      666F5F72 
 4897      656D6F76 
 4897      6500
 4898              	.LASF28:
 4899 06c2 73797374 		.ascii	"systime_t\000"
 4899      696D655F 
 4899      7400
 4900              	.LASF47:
 4901 06cc 705F7265 		.ascii	"p_realprio\000"
 4901      616C7072 
 4901      696F00
 4902              	.LASF63:
 4903 06d7 76746675 		.ascii	"vtfunc_t\000"
 4903      6E635F74 
 4903      00
 4904              	.LASF9:
 4905 06e0 5F5F7569 		.ascii	"__uint32_t\000"
 4905      6E743332 
 4905      5F7400
 4906              	.LASF139:
 4907 06eb 63684D74 		.ascii	"chMtxQueueNotEmptyS\000"
 4907      78517565 
 4907      75654E6F 
 4907      74456D70 
 4907      74795300 
 4908              	.LASF76:
 4909 06ff 70616E69 		.ascii	"panic_msg\000"
 4909      635F6D73 
 4909      6700
 4910              	.LASF90:
 4911 0709 6F666673 		.ascii	"offset\000"
 4911      657400
 4912              	.LASF154:
 4913 0710 43686962 		.ascii	"ChibiOS_3.0.2/os/rt/src/chmtx.c\000"
 4913      694F535F 
 4913      332E302E 
 4913      322F6F73 
 4913      2F72742F 
 4914              	.LASF88:
 4915 0730 636F6E74 		.ascii	"context\000"
 4915      65787400 
 4916              	.LASF77:
 4917 0738 63685F73 		.ascii	"ch_system_t\000"
 4917      79737465 
 4917      6D5F7400 
 4918              	.LASF44:
 4919 0744 705F6D73 		.ascii	"p_msg\000"
 4919      6700
 4920              	.LASF19:
 4921 074a 7274636E 		.ascii	"rtcnt_t\000"
 4921      745F7400 
 4922              	.LASF70:
 4923 0752 76745F70 		.ascii	"vt_par\000"
 4923      617200
 4924              	.LASF115:
ARM GAS  /var/tmp//cc3kRWEe.s 			page 93


 4925 0759 63665F6F 		.ascii	"cf_off_ctx\000"
 4925      66665F63 
 4925      747800
 4926              	.LASF102:
 4927 0764 63685F6D 		.ascii	"ch_mutex\000"
 4927      75746578 
 4927      00
 4928              	.LASF39:
 4929 076d 705F7265 		.ascii	"p_refs\000"
 4929      667300
 4930              	.LASF79:
 4931 0774 726C6973 		.ascii	"rlist\000"
 4931      7400
 4932              	.LASF14:
 4933 077a 75696E74 		.ascii	"uint8_t\000"
 4933      385F7400 
 4934              	.LASF49:
 4935 0782 74687265 		.ascii	"thread_reference_t\000"
 4935      61645F72 
 4935      65666572 
 4935      656E6365 
 4935      5F7400
 4936              	.LASF94:
 4937 0795 77746F62 		.ascii	"wtobjp\000"
 4937      6A7000
 4938              	.LASF36:
 4939 079c 705F6E61 		.ascii	"p_name\000"
 4939      6D6500
 4940              	.LASF73:
 4941 07a3 76745F73 		.ascii	"vt_systime\000"
 4941      79737469 
 4941      6D6500
 4942              	.LASF138:
 4943 07ae 63685379 		.ascii	"chSysUnlock\000"
 4943      73556E6C 
 4943      6F636B00 
 4944              	.LASF110:
 4945 07ba 63685F76 		.ascii	"ch_version\000"
 4945      65727369 
 4945      6F6E00
 4946              	.LASF134:
 4947 07c5 63684D74 		.ascii	"chMtxLockS\000"
 4947      784C6F63 
 4947      6B5300
 4948              	.LASF142:
 4949 07d0 71756575 		.ascii	"queue_prio_insert\000"
 4949      655F7072 
 4949      696F5F69 
 4949      6E736572 
 4949      7400
 4950              	.LASF104:
 4951 07e2 6D5F6F77 		.ascii	"m_owner\000"
 4951      6E657200 
 4952              	.LASF107:
 4953 07ea 63685F69 		.ascii	"ch_identifier\000"
 4953      64656E74 
 4953      69666965 
ARM GAS  /var/tmp//cc3kRWEe.s 			page 94


 4953      7200
 4954              	.LASF69:
 4955 07f8 76745F66 		.ascii	"vt_func\000"
 4955      756E6300 
 4956              		.ident	"GCC: (GNU Tools for ARM Embedded Processors 6-2017-q2-update) 6.3.1 20170620 (release) [AR
ARM GAS  /var/tmp//cc3kRWEe.s 			page 95


DEFINED SYMBOLS
                            *ABS*:0000000000000000 chmtx.c
/var/tmp//cc3kRWEe.s:18     .text.chMtxObjectInit:0000000000000000 $t
/var/tmp//cc3kRWEe.s:26     .text.chMtxObjectInit:0000000000000000 chMtxObjectInit
/var/tmp//cc3kRWEe.s:54     .text.chMtxLockS:0000000000000000 $t
/var/tmp//cc3kRWEe.s:62     .text.chMtxLockS:0000000000000000 chMtxLockS
/var/tmp//cc3kRWEe.s:301    .text.chMtxLockS:00000000000000c4 $d
/var/tmp//cc3kRWEe.s:306    .text.chMtxLock:0000000000000000 $t
/var/tmp//cc3kRWEe.s:314    .text.chMtxLock:0000000000000000 chMtxLock
/var/tmp//cc3kRWEe.s:370    .text.chMtxTryLock:0000000000000000 $t
/var/tmp//cc3kRWEe.s:378    .text.chMtxTryLock:0000000000000000 chMtxTryLock
/var/tmp//cc3kRWEe.s:485    .text.chMtxTryLock:000000000000002c $d
/var/tmp//cc3kRWEe.s:490    .text.chMtxTryLockS:0000000000000000 $t
/var/tmp//cc3kRWEe.s:498    .text.chMtxTryLockS:0000000000000000 chMtxTryLockS
/var/tmp//cc3kRWEe.s:537    .text.chMtxTryLockS:000000000000001c $d
/var/tmp//cc3kRWEe.s:544    .text.chMtxUnlock:0000000000000000 $t
/var/tmp//cc3kRWEe.s:552    .text.chMtxUnlock:0000000000000000 chMtxUnlock
/var/tmp//cc3kRWEe.s:722    .text.chMtxUnlock:0000000000000060 $d
/var/tmp//cc3kRWEe.s:732    .text.chMtxUnlockS:0000000000000000 $t
/var/tmp//cc3kRWEe.s:740    .text.chMtxUnlockS:0000000000000000 chMtxUnlockS
/var/tmp//cc3kRWEe.s:873    .text.chMtxUnlockS:000000000000004c $d
/var/tmp//cc3kRWEe.s:878    .text.chMtxUnlockAll:0000000000000000 $t
/var/tmp//cc3kRWEe.s:886    .text.chMtxUnlockAll:0000000000000000 chMtxUnlockAll
/var/tmp//cc3kRWEe.s:1037   .text.chMtxUnlockAll:0000000000000050 $d
                     .debug_frame:0000000000000010 $d

UNDEFINED SYMBOLS
chSchGoSleepS
chSchReadyI
ch
chSchRescheduleS
