ARM GAS  /var/tmp//cc3kRWEe.s 			page 1


   1              		.cpu cortex-m4
   2              		.eabi_attribute 27, 1
   3              		.eabi_attribute 28, 1
   4              		.eabi_attribute 20, 1
   5              		.eabi_attribute 21, 1
   6              		.eabi_attribute 23, 3
   7              		.eabi_attribute 24, 1
   8              		.eabi_attribute 25, 1
   9              		.eabi_attribute 26, 1
  10              		.eabi_attribute 30, 2
  11              		.eabi_attribute 34, 1
  12              		.eabi_attribute 18, 4
  13              		.file	"chmtx.c"
  14              		.text
  15              	.Ltext0:
  16              		.cfi_sections	.debug_frame
  17              		.section	.text.chMtxObjectInit,"ax",%progbits
  18              		.align	1
  19              		.p2align 4,,15
  20              		.global	chMtxObjectInit
  21              		.syntax unified
  22              		.thumb
  23              		.thumb_func
  24              		.fpu fpv4-sp-d16
  25              		.type	chMtxObjectInit, %function
  26              	chMtxObjectInit:
  27              	.LFB219:
  28              		.file 1 "ChibiOS_3.0.2/os/rt/src/chmtx.c"
  29              		.loc 1 103 0
  30              		.cfi_startproc
  31              		@ args = 0, pretend = 0, frame = 0
  32              		@ frame_needed = 0, uses_anonymous_args = 0
  33              		@ link register save eliminated.
  34              	.LVL0:
  35              		.loc 1 108 0
  36 0000 0023     		movs	r3, #0
  37              	.LBB103:
  38              	.LBB104:
  39              		.file 2 "ChibiOS_3.0.2/os/rt/include/chschd.h"
  40              		.loc 2 604 0
  41 0002 0060     		str	r0, [r0]
  42              		.loc 2 605 0
  43 0004 4060     		str	r0, [r0, #4]
  44              	.LVL1:
  45              	.LBE104:
  46              	.LBE103:
  47              		.loc 1 108 0
  48 0006 8360     		str	r3, [r0, #8]
  49 0008 7047     		bx	lr
  50              		.cfi_endproc
  51              	.LFE219:
  52              		.size	chMtxObjectInit, .-chMtxObjectInit
  53 000a 00BF     		.section	.text.chMtxLockS,"ax",%progbits
  54              		.align	1
  55              		.p2align 4,,15
  56              		.global	chMtxLockS
  57              		.syntax unified
ARM GAS  /var/tmp//cc3kRWEe.s 			page 2


  58              		.thumb
  59              		.thumb_func
  60              		.fpu fpv4-sp-d16
  61              		.type	chMtxLockS, %function
  62              	chMtxLockS:
  63              	.LFB221:
  64              		.loc 1 139 0
  65              		.cfi_startproc
  66              		@ args = 0, pretend = 0, frame = 0
  67              		@ frame_needed = 0, uses_anonymous_args = 0
  68              	.LVL2:
  69              		.loc 1 140 0
  70 0000 304B     		ldr	r3, .L28
  71              		.loc 1 146 0
  72 0002 8268     		ldr	r2, [r0, #8]
  73              		.loc 1 139 0
  74 0004 70B5     		push	{r4, r5, r6, lr}
  75              		.cfi_def_cfa_offset 16
  76              		.cfi_offset 4, -16
  77              		.cfi_offset 5, -12
  78              		.cfi_offset 6, -8
  79              		.cfi_offset 14, -4
  80              		.loc 1 140 0
  81 0006 9C69     		ldr	r4, [r3, #24]
  82              	.LVL3:
  83              		.loc 1 146 0
  84 0008 002A     		cmp	r2, #0
  85 000a 55D0     		beq	.L3
  86              	.LBB105:
  87              		.loc 1 165 0
  88 000c A168     		ldr	r1, [r4, #8]
  89 000e 9368     		ldr	r3, [r2, #8]
  90 0010 8B42     		cmp	r3, r1
  91 0012 0546     		mov	r5, r0
  92              	.LVL4:
  93 0014 06D2     		bcs	.L5
  94              	.LVL5:
  95              	.L10:
  96              		.loc 1 170 0
  97 0016 137F     		ldrb	r3, [r2, #28]	@ zero_extendqisi2
  98              		.loc 1 167 0
  99 0018 9160     		str	r1, [r2, #8]
 100              		.loc 1 170 0
 101 001a 062B     		cmp	r3, #6
 102 001c 33D0     		beq	.L6
 103 001e 072B     		cmp	r3, #7
 104 0020 1DD0     		beq	.L7
 105 0022 9BB1     		cbz	r3, .L27
 106              	.LVL6:
 107              	.L5:
 108              		.loc 1 212 0
 109 0024 2B46     		mov	r3, r5
 110 0026 03E0     		b	.L18
 111              	.LVL7:
 112              	.L17:
 113              	.LBB106:
 114              	.LBB107:
ARM GAS  /var/tmp//cc3kRWEe.s 			page 3


 115              		.loc 2 656 0
 116 0028 9968     		ldr	r1, [r3, #8]
 117 002a A268     		ldr	r2, [r4, #8]
 118 002c 9142     		cmp	r1, r2
 119 002e 02D3     		bcc	.L19
 120              	.L18:
 121              		.loc 2 655 0
 122 0030 1B68     		ldr	r3, [r3]
 123              	.LVL8:
 124              		.loc 2 656 0
 125 0032 9D42     		cmp	r5, r3
 126 0034 F8D1     		bne	.L17
 127              	.L19:
 128              		.loc 2 658 0
 129 0036 5A68     		ldr	r2, [r3, #4]
 130 0038 6260     		str	r2, [r4, #4]
 131              		.loc 2 657 0
 132 003a 2360     		str	r3, [r4]
 133              		.loc 2 659 0
 134 003c 1460     		str	r4, [r2]
 135              		.loc 2 660 0
 136 003e 5C60     		str	r4, [r3, #4]
 137              	.LVL9:
 138              	.LBE107:
 139              	.LBE106:
 140              		.loc 1 213 0
 141 0040 6562     		str	r5, [r4, #36]
 142              		.loc 1 214 0
 143 0042 0620     		movs	r0, #6
 144              	.LBE105:
 145              		.loc 1 236 0
 146 0044 BDE87040 		pop	{r4, r5, r6, lr}
 147              		.cfi_remember_state
 148              		.cfi_restore 14
 149              		.cfi_restore 6
 150              		.cfi_restore 5
 151              		.cfi_restore 4
 152              		.cfi_def_cfa_offset 0
 153              	.LVL10:
 154              	.LBB120:
 155              		.loc 1 214 0
 156 0048 FFF7FEBF 		b	chSchGoSleepS
 157              	.LVL11:
 158              	.L27:
 159              		.cfi_restore_state
 160              	.LBB108:
 161              	.LBB109:
 162              		.loc 2 691 0
 163 004c 92E80A00 		ldm	r2, {r1, r3}
 164 0050 1960     		str	r1, [r3]
 165              		.loc 2 692 0
 166 0052 1168     		ldr	r1, [r2]
 167              	.LBE109:
 168              	.LBE108:
 169              		.loc 1 202 0
 170 0054 1046     		mov	r0, r2
 171              	.LBB111:
ARM GAS  /var/tmp//cc3kRWEe.s 			page 4


 172              	.LBB110:
 173              		.loc 2 692 0
 174 0056 4B60     		str	r3, [r1, #4]
 175              	.LVL12:
 176              	.LBE110:
 177              	.LBE111:
 178              		.loc 1 202 0
 179 0058 FFF7FEFF 		bl	chSchReadyI
 180              	.LVL13:
 181              		.loc 1 203 0
 182 005c E2E7     		b	.L5
 183              	.LVL14:
 184              	.L7:
 185              	.LBB112:
 186              	.LBB113:
 187              		.loc 2 691 0
 188 005e 92E80900 		ldm	r2, {r0, r3}
 189 0062 1860     		str	r0, [r3]
 190              		.loc 2 692 0
 191 0064 1068     		ldr	r0, [r2]
 192 0066 4360     		str	r3, [r0, #4]
 193              	.LVL15:
 194              	.LBE113:
 195              	.LBE112:
 196              		.loc 1 193 0
 197 0068 566A     		ldr	r6, [r2, #36]
 198              	.LVL16:
 199 006a 3346     		mov	r3, r6
 200 006c 02E0     		b	.L15
 201              	.LVL17:
 202              	.L14:
 203              	.LBB114:
 204              	.LBB115:
 205              		.loc 2 656 0
 206 006e 9868     		ldr	r0, [r3, #8]
 207 0070 8842     		cmp	r0, r1
 208 0072 02D3     		bcc	.L16
 209              	.LVL18:
 210              	.L15:
 211              		.loc 2 655 0
 212 0074 1B68     		ldr	r3, [r3]
 213              	.LVL19:
 214              		.loc 2 656 0
 215 0076 9E42     		cmp	r6, r3
 216 0078 F9D1     		bne	.L14
 217              	.L16:
 218              		.loc 2 658 0
 219 007a 5968     		ldr	r1, [r3, #4]
 220 007c 5160     		str	r1, [r2, #4]
 221              		.loc 2 657 0
 222 007e 1360     		str	r3, [r2]
 223              		.loc 2 659 0
 224 0080 0A60     		str	r2, [r1]
 225              		.loc 2 660 0
 226 0082 5A60     		str	r2, [r3, #4]
 227 0084 CEE7     		b	.L5
 228              	.LVL20:
ARM GAS  /var/tmp//cc3kRWEe.s 			page 5


 229              	.L6:
 230              	.LBE115:
 231              	.LBE114:
 232              	.LBB116:
 233              	.LBB117:
 234              		.loc 2 691 0
 235 0086 92E80900 		ldm	r2, {r0, r3}
 236 008a 1860     		str	r0, [r3]
 237              		.loc 2 692 0
 238 008c 1068     		ldr	r0, [r2]
 239 008e 4360     		str	r3, [r0, #4]
 240              	.LVL21:
 241              	.LBE117:
 242              	.LBE116:
 243              		.loc 1 173 0
 244 0090 566A     		ldr	r6, [r2, #36]
 245              	.LVL22:
 246 0092 3346     		mov	r3, r6
 247 0094 02E0     		b	.L12
 248              	.LVL23:
 249              	.L9:
 250              	.LBB118:
 251              	.LBB119:
 252              		.loc 2 656 0
 253 0096 9868     		ldr	r0, [r3, #8]
 254 0098 8842     		cmp	r0, r1
 255 009a 02D3     		bcc	.L13
 256              	.LVL24:
 257              	.L12:
 258              		.loc 2 655 0
 259 009c 1B68     		ldr	r3, [r3]
 260              	.LVL25:
 261              		.loc 2 656 0
 262 009e 9E42     		cmp	r6, r3
 263 00a0 F9D1     		bne	.L9
 264              	.L13:
 265              		.loc 2 658 0
 266 00a2 5968     		ldr	r1, [r3, #4]
 267 00a4 5160     		str	r1, [r2, #4]
 268              		.loc 2 657 0
 269 00a6 1360     		str	r3, [r2]
 270              		.loc 2 659 0
 271 00a8 0A60     		str	r2, [r1]
 272              		.loc 2 660 0
 273 00aa 5A60     		str	r2, [r3, #4]
 274              	.LVL26:
 275              	.LBE119:
 276              	.LBE118:
 277              		.loc 1 174 0
 278 00ac B268     		ldr	r2, [r6, #8]
 279              	.LVL27:
 280              		.loc 1 165 0
 281 00ae A168     		ldr	r1, [r4, #8]
 282 00b0 9368     		ldr	r3, [r2, #8]
 283 00b2 8B42     		cmp	r3, r1
 284 00b4 AFD3     		bcc	.L10
 285 00b6 B5E7     		b	.L5
ARM GAS  /var/tmp//cc3kRWEe.s 			page 6


 286              	.LVL28:
 287              	.L3:
 288              	.LBE120:
 289              		.loc 1 233 0
 290 00b8 E36B     		ldr	r3, [r4, #60]
 291 00ba C360     		str	r3, [r0, #12]
 292              		.loc 1 232 0
 293 00bc 8460     		str	r4, [r0, #8]
 294              		.loc 1 234 0
 295 00be E063     		str	r0, [r4, #60]
 296 00c0 70BD     		pop	{r4, r5, r6, pc}
 297              	.LVL29:
 298              	.L29:
 299 00c2 00BF     		.align	2
 300              	.L28:
 301 00c4 00000000 		.word	ch
 302              		.cfi_endproc
 303              	.LFE221:
 304              		.size	chMtxLockS, .-chMtxLockS
 305              		.section	.text.chMtxLock,"ax",%progbits
 306              		.align	1
 307              		.p2align 4,,15
 308              		.global	chMtxLock
 309              		.syntax unified
 310              		.thumb
 311              		.thumb_func
 312              		.fpu fpv4-sp-d16
 313              		.type	chMtxLock, %function
 314              	chMtxLock:
 315              	.LFB220:
 316              		.loc 1 123 0
 317              		.cfi_startproc
 318              		@ args = 0, pretend = 0, frame = 0
 319              		@ frame_needed = 0, uses_anonymous_args = 0
 320              	.LVL30:
 321 0000 08B5     		push	{r3, lr}
 322              		.cfi_def_cfa_offset 8
 323              		.cfi_offset 3, -8
 324              		.cfi_offset 14, -4
 325              	.LBB121:
 326              	.LBB122:
 327              	.LBB123:
 328              	.LBB124:
 329              		.file 3 "ChibiOS_3.0.2/os/ext/CMSIS/include/core_cmFunc.h"
 330              		.loc 3 546 0
 331 0002 2023     		movs	r3, #32
 332              		.syntax unified
 333              	@ 546 "ChibiOS_3.0.2/os/ext/CMSIS/include/core_cmFunc.h" 1
 334 0004 83F31188 		MSR basepri, r3
 335              	@ 0 "" 2
 336              	.LVL31:
 337              		.thumb
 338              		.syntax unified
 339              	.LBE124:
 340              	.LBE123:
 341              	.LBE122:
 342              	.LBE121:
ARM GAS  /var/tmp//cc3kRWEe.s 			page 7


 343              		.loc 1 126 0
 344 0008 FFF7FEFF 		bl	chMtxLockS
 345              	.LVL32:
 346              	.LBB125:
 347              	.LBB126:
 348              	.LBB127:
 349              	.LBB128:
 350              	.LBB129:
 351              		.loc 3 546 0
 352 000c 0023     		movs	r3, #0
 353              		.syntax unified
 354              	@ 546 "ChibiOS_3.0.2/os/ext/CMSIS/include/core_cmFunc.h" 1
 355 000e 83F31188 		MSR basepri, r3
 356              	@ 0 "" 2
 357              	.LVL33:
 358              		.thumb
 359              		.syntax unified
 360 0012 08BD     		pop	{r3, pc}
 361              	.LBE129:
 362              	.LBE128:
 363              	.LBE127:
 364              	.LBE126:
 365              	.LBE125:
 366              		.cfi_endproc
 367              	.LFE220:
 368              		.size	chMtxLock, .-chMtxLock
 369              		.section	.text.chMtxTryLock,"ax",%progbits
 370              		.align	1
 371              		.p2align 4,,15
 372              		.global	chMtxTryLock
 373              		.syntax unified
 374              		.thumb
 375              		.thumb_func
 376              		.fpu fpv4-sp-d16
 377              		.type	chMtxTryLock, %function
 378              	chMtxTryLock:
 379              	.LFB222:
 380              		.loc 1 255 0
 381              		.cfi_startproc
 382              		@ args = 0, pretend = 0, frame = 0
 383              		@ frame_needed = 0, uses_anonymous_args = 0
 384              		@ link register save eliminated.
 385              	.LVL34:
 386              		.loc 1 255 0
 387 0000 0346     		mov	r3, r0
 388              	.LBB143:
 389              	.LBB144:
 390              	.LBB145:
 391              	.LBB146:
 392              		.loc 3 546 0
 393 0002 2022     		movs	r2, #32
 394              		.syntax unified
 395              	@ 546 "ChibiOS_3.0.2/os/ext/CMSIS/include/core_cmFunc.h" 1
 396 0004 82F31188 		MSR basepri, r2
 397              	@ 0 "" 2
 398              	.LVL35:
 399              		.thumb
ARM GAS  /var/tmp//cc3kRWEe.s 			page 8


 400              		.syntax unified
 401              	.LBE146:
 402              	.LBE145:
 403              	.LBE144:
 404              	.LBE143:
 405              	.LBB147:
 406              	.LBB148:
 407              		.loc 1 287 0
 408 0008 8268     		ldr	r2, [r0, #8]
 409              		.loc 1 297 0
 410 000a 0020     		movs	r0, #0
 411              	.LVL36:
 412              		.loc 1 287 0
 413 000c 1AB1     		cbz	r2, .L35
 414              	.LVL37:
 415              	.LBE148:
 416              	.LBE147:
 417              	.LBB152:
 418              	.LBB153:
 419              	.LBB154:
 420              	.LBB155:
 421              	.LBB156:
 422              		.loc 3 546 0
 423 000e 0023     		movs	r3, #0
 424              	.LVL38:
 425              		.syntax unified
 426              	@ 546 "ChibiOS_3.0.2/os/ext/CMSIS/include/core_cmFunc.h" 1
 427 0010 83F31188 		MSR basepri, r3
 428              	@ 0 "" 2
 429              	.LVL39:
 430              		.thumb
 431              		.syntax unified
 432              	.LBE156:
 433              	.LBE155:
 434              	.LBE154:
 435              	.LBE153:
 436              	.LBE152:
 437              		.loc 1 263 0
 438 0014 7047     		bx	lr
 439              	.LVL40:
 440              	.L35:
 441              	.LBB161:
 442              	.LBB151:
 443              	.LBB149:
 444              	.LBB150:
 445              		.loc 1 305 0
 446 0016 054A     		ldr	r2, .L36
 447 0018 9269     		ldr	r2, [r2, #24]
 448 001a 9A60     		str	r2, [r3, #8]
 449              		.loc 1 306 0
 450 001c D16B     		ldr	r1, [r2, #60]
 451 001e D960     		str	r1, [r3, #12]
 452              		.loc 1 307 0
 453 0020 0120     		movs	r0, #1
 454 0022 D363     		str	r3, [r2, #60]
 455              	.LVL41:
 456              	.LBE150:
ARM GAS  /var/tmp//cc3kRWEe.s 			page 9


 457              	.LBE149:
 458              	.LBE151:
 459              	.LBE161:
 460              	.LBB162:
 461              	.LBB160:
 462              	.LBB159:
 463              	.LBB158:
 464              	.LBB157:
 465              		.loc 3 546 0
 466 0024 0023     		movs	r3, #0
 467              	.LVL42:
 468              		.syntax unified
 469              	@ 546 "ChibiOS_3.0.2/os/ext/CMSIS/include/core_cmFunc.h" 1
 470 0026 83F31188 		MSR basepri, r3
 471              	@ 0 "" 2
 472              	.LVL43:
 473              		.thumb
 474              		.syntax unified
 475              	.LBE157:
 476              	.LBE158:
 477              	.LBE159:
 478              	.LBE160:
 479              	.LBE162:
 480              		.loc 1 263 0
 481 002a 7047     		bx	lr
 482              	.L37:
 483              		.align	2
 484              	.L36:
 485 002c 00000000 		.word	ch
 486              		.cfi_endproc
 487              	.LFE222:
 488              		.size	chMtxTryLock, .-chMtxTryLock
 489              		.section	.text.chMtxTryLockS,"ax",%progbits
 490              		.align	1
 491              		.p2align 4,,15
 492              		.global	chMtxTryLockS
 493              		.syntax unified
 494              		.thumb
 495              		.thumb_func
 496              		.fpu fpv4-sp-d16
 497              		.type	chMtxTryLockS, %function
 498              	chMtxTryLockS:
 499              	.LFB223:
 500              		.loc 1 282 0
 501              		.cfi_startproc
 502              		@ args = 0, pretend = 0, frame = 0
 503              		@ frame_needed = 0, uses_anonymous_args = 0
 504              		@ link register save eliminated.
 505              	.LVL44:
 506              		.loc 1 287 0
 507 0000 8268     		ldr	r2, [r0, #8]
 508              		.loc 1 282 0
 509 0002 0346     		mov	r3, r0
 510              		.loc 1 287 0
 511 0004 0AB1     		cbz	r2, .L41
 512              		.loc 1 297 0
 513 0006 0020     		movs	r0, #0
ARM GAS  /var/tmp//cc3kRWEe.s 			page 10


 514              	.LVL45:
 515              		.loc 1 309 0
 516 0008 7047     		bx	lr
 517              	.LVL46:
 518              	.L41:
 519              	.LBB165:
 520              	.LBB166:
 521              		.loc 1 305 0
 522 000a 044A     		ldr	r2, .L42
 523 000c 9269     		ldr	r2, [r2, #24]
 524 000e 8260     		str	r2, [r0, #8]
 525              		.loc 1 306 0
 526 0010 D16B     		ldr	r1, [r2, #60]
 527 0012 C160     		str	r1, [r0, #12]
 528              		.loc 1 307 0
 529 0014 0120     		movs	r0, #1
 530              	.LVL47:
 531 0016 D363     		str	r3, [r2, #60]
 532              	.LVL48:
 533 0018 7047     		bx	lr
 534              	.L43:
 535 001a 00BF     		.align	2
 536              	.L42:
 537 001c 00000000 		.word	ch
 538              	.LBE166:
 539              	.LBE165:
 540              		.cfi_endproc
 541              	.LFE223:
 542              		.size	chMtxTryLockS, .-chMtxTryLockS
 543              		.section	.text.chMtxUnlock,"ax",%progbits
 544              		.align	1
 545              		.p2align 4,,15
 546              		.global	chMtxUnlock
 547              		.syntax unified
 548              		.thumb
 549              		.thumb_func
 550              		.fpu fpv4-sp-d16
 551              		.type	chMtxUnlock, %function
 552              	chMtxUnlock:
 553              	.LFB224:
 554              		.loc 1 323 0
 555              		.cfi_startproc
 556              		@ args = 0, pretend = 0, frame = 0
 557              		@ frame_needed = 0, uses_anonymous_args = 0
 558              	.LVL49:
 559              		.loc 1 324 0
 560 0000 174B     		ldr	r3, .L55
 561              		.loc 1 323 0
 562 0002 70B5     		push	{r4, r5, r6, lr}
 563              		.cfi_def_cfa_offset 16
 564              		.cfi_offset 4, -16
 565              		.cfi_offset 5, -12
 566              		.cfi_offset 6, -8
 567              		.cfi_offset 14, -4
 568              		.loc 1 324 0
 569 0004 9D69     		ldr	r5, [r3, #24]
 570              	.LVL50:
ARM GAS  /var/tmp//cc3kRWEe.s 			page 11


 571              	.LBB167:
 572              	.LBB168:
 573              	.LBB169:
 574              	.LBB170:
 575              		.loc 3 546 0
 576 0006 2023     		movs	r3, #32
 577              		.syntax unified
 578              	@ 546 "ChibiOS_3.0.2/os/ext/CMSIS/include/core_cmFunc.h" 1
 579 0008 83F31188 		MSR basepri, r3
 580              	@ 0 "" 2
 581              	.LVL51:
 582              		.thumb
 583              		.syntax unified
 584              	.LBE170:
 585              	.LBE169:
 586              	.LBE168:
 587              	.LBE167:
 588              	.LBB171:
 589              	.LBB172:
 590              	.LBB173:
 591              	.LBB174:
 592              		.loc 2 631 0
 593 000c 0468     		ldr	r4, [r0]
 594              	.LBE174:
 595              	.LBE173:
 596              	.LBE172:
 597              	.LBE171:
 598              		.loc 1 344 0
 599 000e C368     		ldr	r3, [r0, #12]
 600 0010 EB63     		str	r3, [r5, #60]
 601              		.loc 1 347 0
 602 0012 8442     		cmp	r4, r0
 603 0014 1DD0     		beq	.L45
 604              	.LBB175:
 605              		.loc 1 352 0
 606 0016 296C     		ldr	r1, [r5, #64]
 607              	.LVL52:
 608              		.loc 1 354 0
 609 0018 4BB1     		cbz	r3, .L46
 610              	.L48:
 611              	.LVL53:
 612              	.LBB176:
 613              	.LBB177:
 614              	.LBB178:
 615              	.LBB179:
 616              		.loc 2 631 0
 617 001a 1A68     		ldr	r2, [r3]
 618              	.LVL54:
 619              	.LBE179:
 620              	.LBE178:
 621              	.LBE177:
 622              	.LBE176:
 623              		.loc 1 358 0
 624 001c 9342     		cmp	r3, r2
 625 001e 03D0     		beq	.L47
 626 0020 9268     		ldr	r2, [r2, #8]
 627 0022 9142     		cmp	r1, r2
ARM GAS  /var/tmp//cc3kRWEe.s 			page 12


 628 0024 38BF     		it	cc
 629 0026 1146     		movcc	r1, r2
 630              	.LVL55:
 631              	.L47:
 632              		.loc 1 362 0
 633 0028 DB68     		ldr	r3, [r3, #12]
 634              	.LVL56:
 635              		.loc 1 354 0
 636 002a 002B     		cmp	r3, #0
 637 002c F5D1     		bne	.L48
 638              	.L46:
 639 002e 0346     		mov	r3, r0
 640              	.LVL57:
 641              	.LBB180:
 642              	.LBB181:
 643              		.loc 2 674 0
 644 0030 2268     		ldr	r2, [r4]
 645              	.LBE181:
 646              	.LBE180:
 647              		.loc 1 376 0
 648 0032 E66B     		ldr	r6, [r4, #60]
 649              		.loc 1 367 0
 650 0034 A960     		str	r1, [r5, #8]
 651              	.LVL58:
 652              		.loc 1 383 0
 653 0036 2046     		mov	r0, r4
 654              	.LVL59:
 655              	.LBB183:
 656              	.LBB182:
 657              		.loc 2 674 0
 658 0038 1A60     		str	r2, [r3]
 659              		.loc 2 675 0
 660 003a 5360     		str	r3, [r2, #4]
 661              	.LVL60:
 662              	.LBE182:
 663              	.LBE183:
 664              		.loc 1 375 0
 665 003c 9C60     		str	r4, [r3, #8]
 666              		.loc 1 376 0
 667 003e DE60     		str	r6, [r3, #12]
 668              		.loc 1 377 0
 669 0040 E363     		str	r3, [r4, #60]
 670              		.loc 1 383 0
 671 0042 FFF7FEFF 		bl	chSchReadyI
 672              	.LVL61:
 673              		.loc 1 384 0
 674 0046 FFF7FEFF 		bl	chSchRescheduleS
 675              	.LVL62:
 676              	.LBE175:
 677              	.LBB184:
 678              	.LBB185:
 679              	.LBB186:
 680              	.LBB187:
 681              	.LBB188:
 682              		.loc 3 546 0
 683 004a 0023     		movs	r3, #0
 684              		.syntax unified
ARM GAS  /var/tmp//cc3kRWEe.s 			page 13


 685              	@ 546 "ChibiOS_3.0.2/os/ext/CMSIS/include/core_cmFunc.h" 1
 686 004c 83F31188 		MSR basepri, r3
 687              	@ 0 "" 2
 688              	.LVL63:
 689              		.thumb
 690              		.syntax unified
 691 0050 70BD     		pop	{r4, r5, r6, pc}
 692              	.LVL64:
 693              	.L45:
 694              	.LBE188:
 695              	.LBE187:
 696              	.LBE186:
 697              	.LBE185:
 698              	.LBE184:
 699              		.loc 1 387 0
 700 0052 0023     		movs	r3, #0
 701 0054 A360     		str	r3, [r4, #8]
 702              	.LVL65:
 703              	.LBB193:
 704              	.LBB192:
 705              	.LBB191:
 706              	.LBB190:
 707              	.LBB189:
 708              		.loc 3 546 0
 709 0056 0023     		movs	r3, #0
 710              		.syntax unified
 711              	@ 546 "ChibiOS_3.0.2/os/ext/CMSIS/include/core_cmFunc.h" 1
 712 0058 83F31188 		MSR basepri, r3
 713              	@ 0 "" 2
 714              	.LVL66:
 715              		.thumb
 716              		.syntax unified
 717 005c 70BD     		pop	{r4, r5, r6, pc}
 718              	.LVL67:
 719              	.L56:
 720 005e 00BF     		.align	2
 721              	.L55:
 722 0060 00000000 		.word	ch
 723              	.LBE189:
 724              	.LBE190:
 725              	.LBE191:
 726              	.LBE192:
 727              	.LBE193:
 728              		.cfi_endproc
 729              	.LFE224:
 730              		.size	chMtxUnlock, .-chMtxUnlock
 731              		.section	.text.chMtxUnlockS,"ax",%progbits
 732              		.align	1
 733              		.p2align 4,,15
 734              		.global	chMtxUnlockS
 735              		.syntax unified
 736              		.thumb
 737              		.thumb_func
 738              		.fpu fpv4-sp-d16
 739              		.type	chMtxUnlockS, %function
 740              	chMtxUnlockS:
 741              	.LFB225:
ARM GAS  /var/tmp//cc3kRWEe.s 			page 14


 742              		.loc 1 410 0
 743              		.cfi_startproc
 744              		@ args = 0, pretend = 0, frame = 0
 745              		@ frame_needed = 0, uses_anonymous_args = 0
 746              		@ link register save eliminated.
 747              	.LVL68:
 748              		.loc 1 411 0
 749 0000 124B     		ldr	r3, .L67
 750              		.loc 1 410 0
 751 0002 30B4     		push	{r4, r5}
 752              		.cfi_def_cfa_offset 8
 753              		.cfi_offset 4, -8
 754              		.cfi_offset 5, -4
 755              		.loc 1 410 0
 756 0004 0446     		mov	r4, r0
 757              	.LBB194:
 758              	.LBB195:
 759              	.LBB196:
 760              	.LBB197:
 761              		.loc 2 631 0
 762 0006 0568     		ldr	r5, [r0]
 763              	.LBE197:
 764              	.LBE196:
 765              	.LBE195:
 766              	.LBE194:
 767              		.loc 1 411 0
 768 0008 9869     		ldr	r0, [r3, #24]
 769              	.LVL69:
 770              		.loc 1 430 0
 771 000a E368     		ldr	r3, [r4, #12]
 772 000c C363     		str	r3, [r0, #60]
 773              		.loc 1 433 0
 774 000e A542     		cmp	r5, r4
 775 0010 17D0     		beq	.L58
 776              	.LBB198:
 777              		.loc 1 438 0
 778 0012 016C     		ldr	r1, [r0, #64]
 779              	.LVL70:
 780              		.loc 1 440 0
 781 0014 4BB1     		cbz	r3, .L59
 782              	.L61:
 783              	.LVL71:
 784              	.LBB199:
 785              	.LBB200:
 786              	.LBB201:
 787              	.LBB202:
 788              		.loc 2 631 0
 789 0016 1A68     		ldr	r2, [r3]
 790              	.LVL72:
 791              	.LBE202:
 792              	.LBE201:
 793              	.LBE200:
 794              	.LBE199:
 795              		.loc 1 444 0
 796 0018 9342     		cmp	r3, r2
 797 001a 03D0     		beq	.L60
 798 001c 9268     		ldr	r2, [r2, #8]
ARM GAS  /var/tmp//cc3kRWEe.s 			page 15


 799 001e 9142     		cmp	r1, r2
 800 0020 38BF     		it	cc
 801 0022 1146     		movcc	r1, r2
 802              	.LVL73:
 803              	.L60:
 804              		.loc 1 448 0
 805 0024 DB68     		ldr	r3, [r3, #12]
 806              	.LVL74:
 807              		.loc 1 440 0
 808 0026 002B     		cmp	r3, #0
 809 0028 F5D1     		bne	.L61
 810              	.L59:
 811              	.LBB203:
 812              	.LBB204:
 813              		.loc 2 674 0
 814 002a 2B68     		ldr	r3, [r5]
 815              	.LVL75:
 816              	.LBE204:
 817              	.LBE203:
 818              		.loc 1 462 0
 819 002c EA6B     		ldr	r2, [r5, #60]
 820              		.loc 1 453 0
 821 002e 8160     		str	r1, [r0, #8]
 822              	.LVL76:
 823              	.LBB207:
 824              	.LBB205:
 825              		.loc 2 674 0
 826 0030 2360     		str	r3, [r4]
 827              	.LBE205:
 828              	.LBE207:
 829              		.loc 1 464 0
 830 0032 2846     		mov	r0, r5
 831              	.LVL77:
 832              	.LBB208:
 833              	.LBB206:
 834              		.loc 2 675 0
 835 0034 5C60     		str	r4, [r3, #4]
 836              	.LVL78:
 837              	.LBE206:
 838              	.LBE208:
 839              		.loc 1 461 0
 840 0036 A560     		str	r5, [r4, #8]
 841              		.loc 1 462 0
 842 0038 E260     		str	r2, [r4, #12]
 843              		.loc 1 463 0
 844 003a EC63     		str	r4, [r5, #60]
 845              	.LBE198:
 846              		.loc 1 472 0
 847 003c 30BC     		pop	{r4, r5}
 848              		.cfi_remember_state
 849              		.cfi_restore 5
 850              		.cfi_restore 4
 851              		.cfi_def_cfa_offset 0
 852              	.LVL79:
 853              	.LBB209:
 854              		.loc 1 464 0
 855 003e FFF7FEBF 		b	chSchReadyI
ARM GAS  /var/tmp//cc3kRWEe.s 			page 16


 856              	.LVL80:
 857              	.L58:
 858              		.cfi_restore_state
 859              	.LBE209:
 860              		.loc 1 467 0
 861 0042 0023     		movs	r3, #0
 862 0044 AB60     		str	r3, [r5, #8]
 863              		.loc 1 472 0
 864 0046 30BC     		pop	{r4, r5}
 865              		.cfi_restore 5
 866              		.cfi_restore 4
 867              		.cfi_def_cfa_offset 0
 868              	.LVL81:
 869 0048 7047     		bx	lr
 870              	.L68:
 871 004a 00BF     		.align	2
 872              	.L67:
 873 004c 00000000 		.word	ch
 874              		.cfi_endproc
 875              	.LFE225:
 876              		.size	chMtxUnlockS, .-chMtxUnlockS
 877              		.section	.text.chMtxUnlockAll,"ax",%progbits
 878              		.align	1
 879              		.p2align 4,,15
 880              		.global	chMtxUnlockAll
 881              		.syntax unified
 882              		.thumb
 883              		.thumb_func
 884              		.fpu fpv4-sp-d16
 885              		.type	chMtxUnlockAll, %function
 886              	chMtxUnlockAll:
 887              	.LFB226:
 888              		.loc 1 485 0
 889              		.cfi_startproc
 890              		@ args = 0, pretend = 0, frame = 0
 891              		@ frame_needed = 0, uses_anonymous_args = 0
 892              		.loc 1 486 0
 893 0000 134A     		ldr	r2, .L80
 894              		.loc 1 485 0
 895 0002 70B5     		push	{r4, r5, r6, lr}
 896              		.cfi_def_cfa_offset 16
 897              		.cfi_offset 4, -16
 898              		.cfi_offset 5, -12
 899              		.cfi_offset 6, -8
 900              		.cfi_offset 14, -4
 901              	.LBB210:
 902              	.LBB211:
 903              	.LBB212:
 904              	.LBB213:
 905              		.loc 3 546 0
 906 0004 2023     		movs	r3, #32
 907              	.LBE213:
 908              	.LBE212:
 909              	.LBE211:
 910              	.LBE210:
 911              		.loc 1 486 0
 912 0006 9469     		ldr	r4, [r2, #24]
ARM GAS  /var/tmp//cc3kRWEe.s 			page 17


 913              	.LVL82:
 914              	.LBB217:
 915              	.LBB216:
 916              	.LBB215:
 917              	.LBB214:
 918              		.loc 3 546 0
 919              		.syntax unified
 920              	@ 546 "ChibiOS_3.0.2/os/ext/CMSIS/include/core_cmFunc.h" 1
 921 0008 83F31188 		MSR basepri, r3
 922              	@ 0 "" 2
 923              	.LVL83:
 924              		.thumb
 925              		.syntax unified
 926              	.LBE214:
 927              	.LBE215:
 928              	.LBE216:
 929              	.LBE217:
 930              		.loc 1 489 0
 931 000c E36B     		ldr	r3, [r4, #60]
 932 000e B3B1     		cbz	r3, .L70
 933              	.LBB218:
 934              		.loc 1 507 0
 935 0010 0026     		movs	r6, #0
 936              	.L73:
 937              	.LVL84:
 938              	.LBB219:
 939              	.LBB220:
 940              	.LBB221:
 941              	.LBB222:
 942              		.loc 2 631 0
 943 0012 1A68     		ldr	r2, [r3]
 944              	.LVL85:
 945              	.LBE222:
 946              	.LBE221:
 947              	.LBE220:
 948              	.LBE219:
 949              		.loc 1 492 0
 950 0014 D968     		ldr	r1, [r3, #12]
 951 0016 E163     		str	r1, [r4, #60]
 952              	.LVL86:
 953              		.loc 1 493 0
 954 0018 9342     		cmp	r3, r2
 955              	.LBB223:
 956              		.loc 1 501 0
 957 001a 1046     		mov	r0, r2
 958              	.LBE223:
 959              		.loc 1 493 0
 960 001c 13D0     		beq	.L71
 961              	.LBB228:
 962              	.LBB224:
 963              	.LBB225:
 964              		.loc 2 674 0
 965 001e 1168     		ldr	r1, [r2]
 966              	.LBE225:
 967              	.LBE224:
 968              		.loc 1 499 0
 969 0020 D56B     		ldr	r5, [r2, #60]
ARM GAS  /var/tmp//cc3kRWEe.s 			page 18


 970              	.LBB227:
 971              	.LBB226:
 972              		.loc 2 674 0
 973 0022 1960     		str	r1, [r3]
 974              		.loc 2 675 0
 975 0024 4B60     		str	r3, [r1, #4]
 976              	.LVL87:
 977              	.LBE226:
 978              	.LBE227:
 979              		.loc 1 498 0
 980 0026 9A60     		str	r2, [r3, #8]
 981              		.loc 1 499 0
 982 0028 DD60     		str	r5, [r3, #12]
 983              		.loc 1 500 0
 984 002a D363     		str	r3, [r2, #60]
 985              		.loc 1 501 0
 986 002c FFF7FEFF 		bl	chSchReadyI
 987              	.LVL88:
 988 0030 E36B     		ldr	r3, [r4, #60]
 989              	.LBE228:
 990              	.LBE218:
 991              		.loc 1 509 0
 992 0032 002B     		cmp	r3, #0
 993 0034 EDD1     		bne	.L73
 994              	.L79:
 995              		.loc 1 510 0
 996 0036 236C     		ldr	r3, [r4, #64]
 997 0038 A360     		str	r3, [r4, #8]
 998              		.loc 1 511 0
 999 003a FFF7FEFF 		bl	chSchRescheduleS
 1000              	.LVL89:
 1001              	.L70:
 1002              	.LBB229:
 1003              	.LBB230:
 1004              	.LBB231:
 1005              	.LBB232:
 1006              	.LBB233:
 1007              		.loc 3 546 0
 1008 003e 0023     		movs	r3, #0
 1009              		.syntax unified
 1010              	@ 546 "ChibiOS_3.0.2/os/ext/CMSIS/include/core_cmFunc.h" 1
 1011 0040 83F31188 		MSR basepri, r3
 1012              	@ 0 "" 2
 1013              	.LVL90:
 1014              		.thumb
 1015              		.syntax unified
 1016 0044 70BD     		pop	{r4, r5, r6, pc}
 1017              	.LVL91:
 1018              	.L71:
 1019              	.LBE233:
 1020              	.LBE232:
 1021              	.LBE231:
 1022              	.LBE230:
 1023              	.LBE229:
 1024              	.LBB234:
 1025              		.loc 1 507 0
 1026 0046 9E60     		str	r6, [r3, #8]
ARM GAS  /var/tmp//cc3kRWEe.s 			page 19


 1027 0048 0B46     		mov	r3, r1
 1028              	.LVL92:
 1029              	.LBE234:
 1030              		.loc 1 509 0
 1031 004a 002B     		cmp	r3, #0
 1032 004c E1D1     		bne	.L73
 1033 004e F2E7     		b	.L79
 1034              	.L81:
 1035              		.align	2
 1036              	.L80:
 1037 0050 00000000 		.word	ch
 1038              		.cfi_endproc
 1039              	.LFE226:
 1040              		.size	chMtxUnlockAll, .-chMtxUnlockAll
 1041              		.text
 1042              	.Letext0:
 1043              		.file 4 "/usr/local/gcc_arm/gcc-arm-none-eabi-6-2017-q2-update/arm-none-eabi/include/machine/_defa
 1044              		.file 5 "/usr/local/gcc_arm/gcc-arm-none-eabi-6-2017-q2-update/arm-none-eabi/include/sys/_stdint.h
 1045              		.file 6 "ChibiOS_3.0.2/os/rt/ports/ARMCMx/compilers/GCC/chtypes.h"
 1046              		.file 7 "ChibiOS_3.0.2/os/rt/include/chsystypes.h"
 1047              		.file 8 "ChibiOS_3.0.2/os/ext/CMSIS/include/core_cm4.h"
 1048              		.file 9 "ChibiOS_3.0.2/os/ext/CMSIS/ST/system_stm32f4xx.h"
 1049              		.file 10 "ChibiOS_3.0.2/os/rt/ports/ARMCMx/chcore.h"
 1050              		.file 11 "ChibiOS_3.0.2/os/rt/ports/ARMCMx/chcore_v7m.h"
 1051              		.file 12 "ChibiOS_3.0.2/os/rt/include/chtm.h"
 1052              		.file 13 "ChibiOS_3.0.2/os/rt/include/chsem.h"
 1053              		.file 14 "ChibiOS_3.0.2/os/rt/include/chmtx.h"
 1054              		.file 15 "ChibiOS_3.0.2/os/rt/include/chregistry.h"
 1055              		.file 16 "ChibiOS_3.0.2/os/rt/include/chsys.h"