ARM GAS  /var/tmp//ccoQqp7T.s 			page 1


   1              		.cpu cortex-m4
   2              		.eabi_attribute 27, 1
   3              		.eabi_attribute 28, 1
   4              		.eabi_attribute 20, 1
   5              		.eabi_attribute 21, 1
   6              		.eabi_attribute 23, 3
   7              		.eabi_attribute 24, 1
   8              		.eabi_attribute 25, 1
   9              		.eabi_attribute 26, 1
  10              		.eabi_attribute 30, 2
  11              		.eabi_attribute 34, 1
  12              		.eabi_attribute 18, 4
  13              		.file	"chprintf.c"
  14              		.text
  15              	.Ltext0:
  16              		.cfi_sections	.debug_frame
  17              		.global	__aeabi_d2f
  18              		.global	__aeabi_f2d
  19              		.global	__aeabi_ui2d
  20              		.global	__aeabi_i2d
  21              		.global	__aeabi_dsub
  22              		.global	__aeabi_dmul
  23              		.global	__aeabi_d2iz
  24              		.section	.text.chvprintf,"ax",%progbits
  25              		.align	1
  26              		.p2align 4,,15
  27              		.global	chvprintf
  28              		.syntax unified
  29              		.thumb
  30              		.thumb_func
  31              		.fpu fpv4-sp-d16
  32              		.type	chvprintf, %function
  33              	chvprintf:
  34              	.LFB260:
  35              		.file 1 "ChibiOS_3.0.2/os/hal/lib/streams/chprintf.c"
  36              		.loc 1 121 0
  37              		.cfi_startproc
  38              		@ args = 0, pretend = 0, frame = 64
  39              		@ frame_needed = 0, uses_anonymous_args = 0
  40              	.LVL0:
  41 0000 2DE9F04F 		push	{r4, r5, r6, r7, r8, r9, r10, fp, lr}
  42              		.cfi_def_cfa_offset 36
  43              		.cfi_offset 4, -36
  44              		.cfi_offset 5, -32
  45              		.cfi_offset 6, -28
  46              		.cfi_offset 7, -24
  47              		.cfi_offset 8, -20
  48              		.cfi_offset 9, -16
  49              		.cfi_offset 10, -12
  50              		.cfi_offset 11, -8
  51              		.cfi_offset 14, -4
  52 0004 2DED028B 		vpush.64	{d8}
  53              		.cfi_def_cfa_offset 44
  54              		.cfi_offset 80, -44
  55              		.cfi_offset 81, -40
  56 0008 91B0     		sub	sp, sp, #68
  57              		.cfi_def_cfa_offset 112
ARM GAS  /var/tmp//ccoQqp7T.s 			page 2


  58              		.loc 1 124 0
  59 000a 0023     		movs	r3, #0
  60              		.loc 1 121 0
  61 000c 8346     		mov	fp, r0
  62 000e 8946     		mov	r9, r1
  63 0010 9246     		mov	r10, r2
  64              	.LVL1:
  65              		.loc 1 124 0
  66 0012 0193     		str	r3, [sp, #4]
  67              	.LVL2:
  68              	.L2:
  69              		.loc 1 135 0
  70 0014 99F80010 		ldrb	r1, [r9]	@ zero_extendqisi2
  71 0018 09F10103 		add	r3, r9, #1
  72              	.LVL3:
  73              		.loc 1 136 0
  74 001c 81B1     		cbz	r1, .L102
  75              	.L116:
  76              		.loc 1 138 0
  77 001e 2529     		cmp	r1, #37
  78 0020 14D0     		beq	.L4
  79              		.loc 1 140 0
  80 0022 019C     		ldr	r4, [sp, #4]
  81              		.loc 1 139 0
  82 0024 DBF80020 		ldr	r2, [fp]
  83              	.LVL4:
  84              		.loc 1 135 0
  85 0028 9946     		mov	r9, r3
  86              		.loc 1 139 0
  87 002a 9268     		ldr	r2, [r2, #8]
  88 002c 5846     		mov	r0, fp
  89              		.loc 1 140 0
  90 002e 0134     		adds	r4, r4, #1
  91 0030 0194     		str	r4, [sp, #4]
  92              	.LVL5:
  93              		.loc 1 139 0
  94 0032 9047     		blx	r2
  95              	.LVL6:
  96              		.loc 1 135 0
  97 0034 99F80010 		ldrb	r1, [r9]	@ zero_extendqisi2
  98 0038 09F10103 		add	r3, r9, #1
  99              	.LVL7:
 100              		.loc 1 136 0
 101 003c 0029     		cmp	r1, #0
 102 003e EED1     		bne	.L116
 103              	.LVL8:
 104              	.L102:
 105              		.loc 1 277 0
 106 0040 0198     		ldr	r0, [sp, #4]
 107 0042 11B0     		add	sp, sp, #68
 108              		.cfi_remember_state
 109              		.cfi_def_cfa_offset 44
 110              		@ sp needed
 111 0044 BDEC028B 		vldm	sp!, {d8}
 112              		.cfi_restore 80
 113              		.cfi_restore 81
 114              		.cfi_def_cfa_offset 36
ARM GAS  /var/tmp//ccoQqp7T.s 			page 3


 115 0048 BDE8F08F 		pop	{r4, r5, r6, r7, r8, r9, r10, fp, pc}
 116              	.LVL9:
 117              	.L4:
 118              		.cfi_restore_state
 119              		.loc 1 146 0
 120 004c 99F80120 		ldrb	r2, [r9, #1]	@ zero_extendqisi2
 121              	.LVL10:
 122 0050 2D2A     		cmp	r2, #45
 123 0052 03BF     		ittte	eq
 124 0054 99F80220 		ldrbeq	r2, [r9, #2]	@ zero_extendqisi2
 125              		.loc 1 147 0
 126 0058 09F10203 		addeq	r3, r9, #2
 127              	.LVL11:
 128              		.loc 1 148 0
 129 005c 0126     		moveq	r6, #1
 130              		.loc 1 145 0
 131 005e 0026     		movne	r6, #0
 132              	.LVL12:
 133              		.loc 1 151 0
 134 0060 302A     		cmp	r2, #48
 135 0062 03BF     		ittte	eq
 136 0064 5A78     		ldrbeq	r2, [r3, #1]	@ zero_extendqisi2
 137              		.loc 1 152 0
 138 0066 0133     		addeq	r3, r3, #1
 139              	.LVL13:
 140              		.loc 1 153 0
 141 0068 3025     		moveq	r5, #48
 142              		.loc 1 150 0
 143 006a 2025     		movne	r5, #32
 144              	.LVL14:
 145 006c 591C     		adds	r1, r3, #1
 146              	.LVL15:
 147              		.loc 1 155 0
 148 006e 0024     		movs	r4, #0
 149 0070 07E0     		b	.L10
 150              	.LVL16:
 151              	.L117:
 152              		.loc 1 161 0
 153 0072 9AF80030 		ldrb	r3, [r10]	@ zero_extendqisi2
 154              	.LVL17:
 155 0076 0AF1040A 		add	r10, r10, #4
 156              	.LVL18:
 157              	.L8:
 158 007a 11F8012B 		ldrb	r2, [r1], #1	@ zero_extendqisi2
 159              	.LVL19:
 160              		.loc 1 164 0
 161 007e 03EB4004 		add	r4, r3, r0, lsl #1
 162              	.LVL20:
 163              	.L10:
 164              		.loc 1 158 0
 165 0082 A2F13003 		sub	r3, r2, #48
 166 0086 DBB2     		uxtb	r3, r3
 167 0088 092B     		cmp	r3, #9
 168              		.loc 1 157 0
 169 008a 8946     		mov	r9, r1
 170              	.LVL21:
 171              		.loc 1 164 0
ARM GAS  /var/tmp//ccoQqp7T.s 			page 4


 172 008c 04EB8400 		add	r0, r4, r4, lsl #2
 173              		.loc 1 158 0
 174 0090 F3D9     		bls	.L8
 175              		.loc 1 160 0
 176 0092 2A2A     		cmp	r2, #42
 177 0094 EDD0     		beq	.L117
 178              	.LVL22:
 179              		.loc 1 167 0
 180 0096 2E2A     		cmp	r2, #46
 181 0098 4FF00008 		mov	r8, #0
 182 009c 45D0     		beq	.L13
 183              	.LVL23:
 184              		.loc 1 181 0
 185 009e 02F0DF03 		and	r3, r2, #223
 186 00a2 4C2B     		cmp	r3, #76
 187 00a4 50D0     		beq	.L118
 188              	.LVL24:
 189              	.L14:
 190              		.loc 1 190 0
 191 00a6 A2F14401 		sub	r1, r2, #68
 192              	.LVL25:
 193 00aa 3429     		cmp	r1, #52
 194 00ac 00F2F581 		bhi	.L16
 195 00b0 DFE811F0 		tbh	[pc, r1, lsl #1]
 196              	.L18:
 197 00b4 FD00     		.2byte	(.L31-.L18)/2
 198 00b6 F301     		.2byte	(.L16-.L18)/2
 199 00b8 F301     		.2byte	(.L16-.L18)/2
 200 00ba F301     		.2byte	(.L16-.L18)/2
 201 00bc F301     		.2byte	(.L16-.L18)/2
 202 00be FD00     		.2byte	(.L31-.L18)/2
 203 00c0 F301     		.2byte	(.L16-.L18)/2
 204 00c2 F301     		.2byte	(.L16-.L18)/2
 205 00c4 F301     		.2byte	(.L16-.L18)/2
 206 00c6 F301     		.2byte	(.L16-.L18)/2
 207 00c8 F301     		.2byte	(.L16-.L18)/2
 208 00ca FA00     		.2byte	(.L87-.L18)/2
 209 00cc F301     		.2byte	(.L16-.L18)/2
 210 00ce F301     		.2byte	(.L16-.L18)/2
 211 00d0 F301     		.2byte	(.L16-.L18)/2
 212 00d2 F301     		.2byte	(.L16-.L18)/2
 213 00d4 F301     		.2byte	(.L16-.L18)/2
 214 00d6 8C00     		.2byte	(.L68-.L18)/2
 215 00d8 F301     		.2byte	(.L16-.L18)/2
 216 00da F301     		.2byte	(.L16-.L18)/2
 217 00dc 4401     		.2byte	(.L69-.L18)/2
 218 00de F301     		.2byte	(.L16-.L18)/2
 219 00e0 F301     		.2byte	(.L16-.L18)/2
 220 00e2 F301     		.2byte	(.L16-.L18)/2
 221 00e4 F301     		.2byte	(.L16-.L18)/2
 222 00e6 F301     		.2byte	(.L16-.L18)/2
 223 00e8 F301     		.2byte	(.L16-.L18)/2
 224 00ea F301     		.2byte	(.L16-.L18)/2
 225 00ec F301     		.2byte	(.L16-.L18)/2
 226 00ee F301     		.2byte	(.L16-.L18)/2
 227 00f0 F301     		.2byte	(.L16-.L18)/2
 228 00f2 E701     		.2byte	(.L22-.L18)/2
ARM GAS  /var/tmp//ccoQqp7T.s 			page 5


 229 00f4 FD00     		.2byte	(.L31-.L18)/2
 230 00f6 F301     		.2byte	(.L16-.L18)/2
 231 00f8 4701     		.2byte	(.L23-.L18)/2
 232 00fa F301     		.2byte	(.L16-.L18)/2
 233 00fc F301     		.2byte	(.L16-.L18)/2
 234 00fe FD00     		.2byte	(.L31-.L18)/2
 235 0100 F301     		.2byte	(.L16-.L18)/2
 236 0102 F301     		.2byte	(.L16-.L18)/2
 237 0104 F301     		.2byte	(.L16-.L18)/2
 238 0106 F301     		.2byte	(.L16-.L18)/2
 239 0108 F301     		.2byte	(.L16-.L18)/2
 240 010a FA00     		.2byte	(.L87-.L18)/2
 241 010c F301     		.2byte	(.L16-.L18)/2
 242 010e F301     		.2byte	(.L16-.L18)/2
 243 0110 F301     		.2byte	(.L16-.L18)/2
 244 0112 2501     		.2byte	(.L24-.L18)/2
 245 0114 F301     		.2byte	(.L16-.L18)/2
 246 0116 8C00     		.2byte	(.L68-.L18)/2
 247 0118 F301     		.2byte	(.L16-.L18)/2
 248 011a F301     		.2byte	(.L16-.L18)/2
 249 011c 4401     		.2byte	(.L69-.L18)/2
 250              	.LVL26:
 251              		.p2align 1
 252              	.L119:
 253              		.loc 1 173 0
 254 011e 9AF80030 		ldrb	r3, [r10]	@ zero_extendqisi2
 255              	.LVL27:
 256 0122 0AF1040A 		add	r10, r10, #4
 257              	.LVL28:
 258              	.L12:
 259              		.loc 1 177 0
 260 0126 03EB4108 		add	r8, r3, r1, lsl #1
 261              	.LVL29:
 262              	.L13:
 263              		.loc 1 169 0
 264 012a 19F8012B 		ldrb	r2, [r9], #1	@ zero_extendqisi2
 265              	.LVL30:
 266              		.loc 1 170 0
 267 012e A2F13003 		sub	r3, r2, #48
 268 0132 DBB2     		uxtb	r3, r3
 269 0134 092B     		cmp	r3, #9
 270              		.loc 1 176 0
 271 0136 08EB8801 		add	r1, r8, r8, lsl #2
 272              		.loc 1 170 0
 273 013a F4D9     		bls	.L12
 274              		.loc 1 172 0
 275 013c 2A2A     		cmp	r2, #42
 276 013e EED0     		beq	.L119
 277              	.LVL31:
 278              		.loc 1 181 0
 279 0140 02F0DF03 		and	r3, r2, #223
 280 0144 4C2B     		cmp	r3, #76
 281 0146 AED1     		bne	.L14
 282              	.L118:
 283              	.LVL32:
 284              		.loc 1 183 0
 285 0148 99F80030 		ldrb	r3, [r9]	@ zero_extendqisi2
ARM GAS  /var/tmp//ccoQqp7T.s 			page 6


 286 014c 13B1     		cbz	r3, .L15
 287              		.loc 1 184 0
 288 014e 09F10109 		add	r9, r9, #1
 289              	.LVL33:
 290 0152 1A46     		mov	r2, r3
 291              	.LVL34:
 292              	.L15:
 293              		.loc 1 190 0
 294 0154 A2F14403 		sub	r3, r2, #68
 295 0158 342B     		cmp	r3, #52
 296 015a 00F29E81 		bhi	.L16
 297 015e DFE813F0 		tbh	[pc, r3, lsl #1]
 298              	.L67:
 299 0162 A600     		.2byte	(.L31-.L67)/2
 300 0164 9C01     		.2byte	(.L16-.L67)/2
 301 0166 9C01     		.2byte	(.L16-.L67)/2
 302 0168 9C01     		.2byte	(.L16-.L67)/2
 303 016a 9C01     		.2byte	(.L16-.L67)/2
 304 016c A600     		.2byte	(.L31-.L67)/2
 305 016e 9C01     		.2byte	(.L16-.L67)/2
 306 0170 9C01     		.2byte	(.L16-.L67)/2
 307 0172 9C01     		.2byte	(.L16-.L67)/2
 308 0174 9C01     		.2byte	(.L16-.L67)/2
 309 0176 9C01     		.2byte	(.L16-.L67)/2
 310 0178 A300     		.2byte	(.L87-.L67)/2
 311 017a 9C01     		.2byte	(.L16-.L67)/2
 312 017c 9C01     		.2byte	(.L16-.L67)/2
 313 017e 9C01     		.2byte	(.L16-.L67)/2
 314 0180 9C01     		.2byte	(.L16-.L67)/2
 315 0182 9C01     		.2byte	(.L16-.L67)/2
 316 0184 3500     		.2byte	(.L68-.L67)/2
 317 0186 9C01     		.2byte	(.L16-.L67)/2
 318 0188 9C01     		.2byte	(.L16-.L67)/2
 319 018a ED00     		.2byte	(.L69-.L67)/2
 320 018c 9C01     		.2byte	(.L16-.L67)/2
 321 018e 9C01     		.2byte	(.L16-.L67)/2
 322 0190 9C01     		.2byte	(.L16-.L67)/2
 323 0192 9C01     		.2byte	(.L16-.L67)/2
 324 0194 9C01     		.2byte	(.L16-.L67)/2
 325 0196 9C01     		.2byte	(.L16-.L67)/2
 326 0198 9C01     		.2byte	(.L16-.L67)/2
 327 019a 9C01     		.2byte	(.L16-.L67)/2
 328 019c 9C01     		.2byte	(.L16-.L67)/2
 329 019e 9C01     		.2byte	(.L16-.L67)/2
 330 01a0 9001     		.2byte	(.L22-.L67)/2
 331 01a2 A600     		.2byte	(.L31-.L67)/2
 332 01a4 9C01     		.2byte	(.L16-.L67)/2
 333 01a6 F000     		.2byte	(.L23-.L67)/2
 334 01a8 9C01     		.2byte	(.L16-.L67)/2
 335 01aa 9C01     		.2byte	(.L16-.L67)/2
 336 01ac A600     		.2byte	(.L31-.L67)/2
 337 01ae 9C01     		.2byte	(.L16-.L67)/2
 338 01b0 9C01     		.2byte	(.L16-.L67)/2
 339 01b2 9C01     		.2byte	(.L16-.L67)/2
 340 01b4 9C01     		.2byte	(.L16-.L67)/2
 341 01b6 9C01     		.2byte	(.L16-.L67)/2
 342 01b8 A300     		.2byte	(.L87-.L67)/2
ARM GAS  /var/tmp//ccoQqp7T.s 			page 7


 343 01ba 9C01     		.2byte	(.L16-.L67)/2
 344 01bc 9C01     		.2byte	(.L16-.L67)/2
 345 01be 9C01     		.2byte	(.L16-.L67)/2
 346 01c0 CE00     		.2byte	(.L24-.L67)/2
 347 01c2 9C01     		.2byte	(.L16-.L67)/2
 348 01c4 3500     		.2byte	(.L68-.L67)/2
 349 01c6 9C01     		.2byte	(.L16-.L67)/2
 350 01c8 9C01     		.2byte	(.L16-.L67)/2
 351 01ca ED00     		.2byte	(.L69-.L67)/2
 352              	.LVL35:
 353              		.p2align 1
 354              	.L68:
 355 01cc 4FF00A0E 		mov	lr, #10
 356              	.L48:
 357              	.LVL36:
 358              		.loc 1 243 0
 359 01d0 DAF80020 		ldr	r2, [r10]
 360              	.LVL37:
 361              	.LBB26:
 362              	.LBB27:
 363              	.LBB28:
 364              		.loc 1 52 0
 365 01d4 0DF13301 		add	r1, sp, #51
 366              	.LBE28:
 367              	.LBE27:
 368              	.LBE26:
 369              		.loc 1 243 0
 370 01d8 0AF1040A 		add	r10, r10, #4
 371              	.LVL38:
 372 01dc 00E0     		b	.L52
 373              	.LVL39:
 374              	.L80:
 375              	.LBB31:
 376              	.LBB30:
 377              	.LBB29:
 378              		.loc 1 60 0
 379 01de 0146     		mov	r1, r0
 380              	.LVL40:
 381              	.L52:
 382              		.loc 1 54 0
 383 01e0 B2FBFEF7 		udiv	r7, r2, lr
 384 01e4 0EFB1722 		mls	r2, lr, r7, r2
 385              	.LVL41:
 386              		.loc 1 55 0
 387 01e8 02F13003 		add	r3, r2, #48
 388              	.LVL42:
 389              		.loc 1 56 0
 390 01ec 392B     		cmp	r3, #57
 391              		.loc 1 57 0
 392 01ee C8BF     		it	gt
 393 01f0 02F13703 		addgt	r3, r2, #55
 394              	.LVL43:
 395              		.loc 1 58 0
 396 01f4 DBB2     		uxtb	r3, r3
 397              	.LVL44:
 398 01f6 01F8013C 		strb	r3, [r1, #-1]
 399 01fa 481E     		subs	r0, r1, #1
ARM GAS  /var/tmp//ccoQqp7T.s 			page 8


 400              	.LVL45:
 401              		.loc 1 59 0
 402 01fc 3A46     		mov	r2, r7
 403              	.LVL46:
 404              		.loc 1 60 0
 405 01fe 002F     		cmp	r7, #0
 406 0200 EDD1     		bne	.L80
 407              		.loc 1 62 0
 408 0202 0DF13302 		add	r2, sp, #51
 409              	.LVL47:
 410 0206 0AAF     		add	r7, sp, #40
 411              	.LVL48:
 412 0208 121A     		subs	r2, r2, r0
 413              	.LVL49:
 414 020a 0297     		str	r7, [sp, #8]
 415 020c 1044     		add	r0, r0, r2
 416              	.LVL50:
 417 020e 01E0     		b	.L54
 418              	.LVL51:
 419              	.L53:
 420 0210 11F8013B 		ldrb	r3, [r1], #1	@ zero_extendqisi2
 421              	.LVL52:
 422              	.L54:
 423              		.loc 1 64 0
 424 0214 07F8013B 		strb	r3, [r7], #1
 425              	.LVL53:
 426              		.loc 1 65 0
 427 0218 8842     		cmp	r0, r1
 428 021a F9D1     		bne	.L53
 429              	.LBE29:
 430              	.LBE30:
 431              	.LBE31:
 432              		.loc 1 144 0
 433 021c 029F     		ldr	r7, [sp, #8]
 434              	.LVL54:
 435 021e 02F1FF38 		add	r8, r2, #-1
 436              	.LVL55:
 437              	.L25:
 438              		.loc 1 251 0
 439 0222 A41A     		subs	r4, r4, r2
 440              	.LVL56:
 441 0224 3AD4     		bmi	.L120
 442              	.LVL57:
 443              	.L28:
 444              		.loc 1 253 0
 445 0226 002E     		cmp	r6, #0
 446 0228 40F03F81 		bne	.L57
 447 022c 6642     		negs	r6, r4
 448              	.LVL58:
 449              		.loc 1 255 0
 450 022e 002C     		cmp	r4, #0
 451 0230 00F03A81 		beq	.L81
 452              		.loc 1 256 0
 453 0234 3978     		ldrb	r1, [r7]	@ zero_extendqisi2
 454 0236 2D29     		cmp	r1, #45
 455 0238 00F04581 		beq	.L121
 456              	.LVL59:
ARM GAS  /var/tmp//ccoQqp7T.s 			page 9


 457              	.L59:
 458              		.loc 1 262 0 discriminator 1
 459 023c DBF80030 		ldr	r3, [fp]
 460 0240 2946     		mov	r1, r5
 461 0242 9B68     		ldr	r3, [r3, #8]
 462 0244 5846     		mov	r0, fp
 463 0246 9847     		blx	r3
 464              	.LVL60:
 465              		.loc 1 264 0 discriminator 1
 466 0248 0136     		adds	r6, r6, #1
 467              	.LVL61:
 468 024a F7D1     		bne	.L59
 469 024c 019B     		ldr	r3, [sp, #4]
 470              		.loc 1 266 0
 471 024e B8F1000F 		cmp	r8, #0
 472 0252 2344     		add	r3, r3, r4
 473 0254 0193     		str	r3, [sp, #4]
 474              	.LVL62:
 475 0256 A8BF     		it	ge
 476 0258 3446     		movge	r4, r6
 477 025a FFF6DBAE 		blt	.L2
 478              	.LVL63:
 479              	.L61:
 480 025e 4646     		mov	r6, r8
 481              	.LVL64:
 482              	.L63:
 483              		.loc 1 267 0
 484 0260 DBF80030 		ldr	r3, [fp]
 485 0264 17F8011B 		ldrb	r1, [r7], #1	@ zero_extendqisi2
 486              	.LVL65:
 487 0268 9B68     		ldr	r3, [r3, #8]
 488              		.loc 1 266 0
 489 026a 013E     		subs	r6, r6, #1
 490              	.LVL66:
 491              		.loc 1 267 0
 492 026c 5846     		mov	r0, fp
 493 026e 9847     		blx	r3
 494              	.LVL67:
 495              		.loc 1 266 0
 496 0270 731C     		adds	r3, r6, #1
 497 0272 F5D1     		bne	.L63
 498 0274 019B     		ldr	r3, [sp, #4]
 499 0276 0133     		adds	r3, r3, #1
 500 0278 4344     		add	r3, r3, r8
 501 027a 0193     		str	r3, [sp, #4]
 502              	.LVL68:
 503              	.L62:
 504              		.loc 1 271 0
 505 027c 002C     		cmp	r4, #0
 506 027e 3FF4C9AE 		beq	.L2
 507 0282 2646     		mov	r6, r4
 508              	.LVL69:
 509              	.L64:
 510              		.loc 1 272 0
 511 0284 DBF80030 		ldr	r3, [fp]
 512 0288 2946     		mov	r1, r5
 513 028a 9B68     		ldr	r3, [r3, #8]
ARM GAS  /var/tmp//ccoQqp7T.s 			page 10


 514 028c 5846     		mov	r0, fp
 515 028e 9847     		blx	r3
 516              	.LVL70:
 517              		.loc 1 271 0
 518 0290 013E     		subs	r6, r6, #1
 519              	.LVL71:
 520 0292 F7D1     		bne	.L64
 521 0294 019B     		ldr	r3, [sp, #4]
 522 0296 2344     		add	r3, r3, r4
 523 0298 0193     		str	r3, [sp, #4]
 524 029a BBE6     		b	.L2
 525              	.LVL72:
 526              	.L120:
 527              		.loc 1 266 0
 528 029c B8F1000F 		cmp	r8, #0
 529              		.loc 1 252 0
 530 02a0 A8BF     		it	ge
 531 02a2 0024     		movge	r4, #0
 532              		.loc 1 266 0
 533 02a4 DBDA     		bge	.L61
 534 02a6 B5E6     		b	.L2
 535              	.L20:
 536              	.LVL73:
 537              	.L87:
 538              		.loc 1 190 0
 539 02a8 4FF0080E 		mov	lr, #8
 540 02ac 90E7     		b	.L48
 541              	.L31:
 542              	.LVL74:
 543              		.loc 1 211 0
 544 02ae DAF80010 		ldr	r1, [r10]
 545              		.loc 1 212 0
 546 02b2 0029     		cmp	r1, #0
 547              		.loc 1 211 0
 548 02b4 0AF1040A 		add	r10, r10, #4
 549              	.LVL75:
 550              		.loc 1 212 0
 551 02b8 C0F21B81 		blt	.L122
 552              		.loc 1 143 0
 553 02bc 0AAA     		add	r2, sp, #40
 554              	.LVL76:
 555 02be 0292     		str	r2, [sp, #8]
 556              	.LVL77:
 557              	.L34:
 558              	.LBB32:
 559              	.LBB33:
 560              	.LBB34:
 561              		.loc 1 52 0
 562 02c0 02F10B0C 		add	ip, r2, #11
 563              	.LVL78:
 564              		.loc 1 54 0
 565 02c4 DFF87482 		ldr	r8, .L127+12
 566              	.LVL79:
 567              		.loc 1 52 0
 568 02c8 6046     		mov	r0, ip
 569              	.LVL80:
 570              	.L35:
ARM GAS  /var/tmp//ccoQqp7T.s 			page 11


 571              		.loc 1 54 0
 572 02ca A8FB0173 		umull	r7, r3, r8, r1
 573 02ce DB08     		lsrs	r3, r3, #3
 574 02d0 03EB830E 		add	lr, r3, r3, lsl #2
 575 02d4 1F46     		mov	r7, r3
 576 02d6 A1EB4E03 		sub	r3, r1, lr, lsl #1
 577              	.LVL81:
 578              		.loc 1 55 0
 579 02da 3033     		adds	r3, r3, #48
 580              	.LVL82:
 581              		.loc 1 58 0
 582 02dc DBB2     		uxtb	r3, r3
 583              	.LVL83:
 584 02de 00F8013D 		strb	r3, [r0, #-1]!
 585              	.LVL84:
 586              		.loc 1 60 0
 587 02e2 3946     		mov	r1, r7
 588              	.LVL85:
 589 02e4 002F     		cmp	r7, #0
 590 02e6 F0D1     		bne	.L35
 591              	.LVL86:
 592              		.loc 1 62 0
 593 02e8 ACEB0001 		sub	r1, ip, r0
 594 02ec 1144     		add	r1, r1, r2
 595 02ee 01E0     		b	.L37
 596              	.LVL87:
 597              	.L123:
 598 02f0 10F8013F 		ldrb	r3, [r0, #1]!	@ zero_extendqisi2
 599              	.LVL88:
 600              	.L37:
 601              		.loc 1 64 0
 602 02f4 02F8013B 		strb	r3, [r2], #1
 603              	.LVL89:
 604              		.loc 1 65 0
 605 02f8 8A42     		cmp	r2, r1
 606 02fa F9D1     		bne	.L123
 607 02fc BBE0     		b	.L111
 608              	.LVL90:
 609              	.L24:
 610              	.LBE34:
 611              	.LBE33:
 612              	.LBE32:
 613              		.loc 1 197 0
 614 02fe DAF80070 		ldr	r7, [r10]
 615 0302 0AF1040A 		add	r10, r10, #4
 616              	.LVL91:
 617 0306 002F     		cmp	r7, #0
 618 0308 00F00781 		beq	.L26
 619              	.LVL92:
 620              		.loc 1 201 0
 621 030c 3B78     		ldrb	r3, [r7]	@ zero_extendqisi2
 622              		.loc 1 199 0
 623 030e B8F1000F 		cmp	r8, #0
 624 0312 00F0CF80 		beq	.L27
 625              	.LVL93:
 626              		.loc 1 201 0 discriminator 1
 627 0316 002B     		cmp	r3, #0
ARM GAS  /var/tmp//ccoQqp7T.s 			page 12


 628 0318 00F0D180 		beq	.L74
 629              	.LVL94:
 630              	.L65:
 631              		.loc 1 201 0 is_stmt 0
 632 031c 08F1FF38 		add	r8, r8, #-1
 633              	.LVL95:
 634              	.L66:
 635              		.loc 1 201 0 discriminator 4
 636 0320 3A46     		mov	r2, r7
 637              	.LVL96:
 638 0322 02E0     		b	.L30
 639              	.LVL97:
 640              	.L124:
 641              		.loc 1 201 0 discriminator 3
 642 0324 B8F10108 		subs	r8, r8, #1
 643              	.LVL98:
 644 0328 03D4     		bmi	.L110
 645              	.LVL99:
 646              	.L30:
 647              		.loc 1 201 0 discriminator 4
 648 032a 12F8013F 		ldrb	r3, [r2, #1]!	@ zero_extendqisi2
 649              	.LVL100:
 650 032e 002B     		cmp	r3, #0
 651 0330 F8D1     		bne	.L124
 652              	.LVL101:
 653              	.L110:
 654 0332 D21B     		subs	r2, r2, r7
 655              	.LVL102:
 656 0334 02F1FF38 		add	r8, r2, #-1
 657              		.loc 1 196 0 is_stmt 1
 658 0338 2025     		movs	r5, #32
 659 033a 72E7     		b	.L25
 660              	.LVL103:
 661              	.L69:
 662              		.loc 1 190 0
 663 033c 4FF0100E 		mov	lr, #16
 664 0340 46E7     		b	.L48
 665              	.L23:
 666              		.loc 1 220 0
 667 0342 0AF1070A 		add	r10, r10, #7
 668              	.LVL104:
 669 0346 2AF0070A 		bic	r10, r10, #7
 670              	.LVL105:
 671 034a DAE90001 		ldrd	r0, [r10]
 672 034e FFF7FEFF 		bl	__aeabi_d2f
 673              	.LVL106:
 674 0352 08EE100A 		vmov	s16, r0
 675              		.loc 1 221 0
 676 0356 B5EEC08A 		vcmpe.f32	s16, #0
 677 035a F1EE10FA 		vmrs	APSR_nzcv, FPSCR
 678              		.loc 1 220 0
 679 035e 0AF1080A 		add	r10, r10, #8
 680              	.LVL107:
 681              		.loc 1 221 0
 682 0362 00F1CF80 		bmi	.L125
 683              		.loc 1 143 0
 684 0366 0AAB     		add	r3, sp, #40
ARM GAS  /var/tmp//ccoQqp7T.s 			page 13


 685              	.LVL108:
 686 0368 0293     		str	r3, [sp, #8]
 687 036a 0393     		str	r3, [sp, #12]
 688              	.LVL109:
 689              	.L38:
 690              		.loc 1 225 0
 691 036c 18EE100A 		vmov	r0, s16
 692 0370 FFF7FEFF 		bl	__aeabi_f2d
 693              	.LVL110:
 694              	.LBB35:
 695              	.LBB36:
 696              		.loc 1 83 0
 697 0374 08F1FF38 		add	r8, r8, #-1
 698              	.LVL111:
 699 0378 B8F1080F 		cmp	r8, #8
 700              	.LBE36:
 701              	.LBE35:
 702              		.loc 1 225 0
 703 037c CDE90401 		strd	r0, [sp, #16]
 704              	.LVL112:
 705              	.LBB47:
 706              	.LBB45:
 707              		.loc 1 83 0
 708 0380 00F2B080 		bhi	.L77
 709 0384 6C4B     		ldr	r3, .L127+8
 710 0386 53F82870 		ldr	r7, [r3, r8, lsl #2]
 711 038a 3846     		mov	r0, r7
 712              	.LVL113:
 713 038c FFF7FEFF 		bl	__aeabi_ui2d
 714              	.LVL114:
 715 0390 6A4B     		ldr	r3, .L127+12
 716 0392 CDE90601 		strd	r0, [sp, #24]
 717 0396 A3FB0737 		umull	r3, r7, r3, r7
 718 039a FB08     		lsrs	r3, r7, #3
 719 039c 0993     		str	r3, [sp, #36]
 720 039e 1F46     		mov	r7, r3
 721              	.L40:
 722              	.LVL115:
 723              		.loc 1 87 0
 724 03a0 FDEEC87A 		vcvt.s32.f32	s15, s16
 725              	.LBB37:
 726              	.LBB38:
 727              		.loc 1 52 0
 728 03a4 039B     		ldr	r3, [sp, #12]
 729              		.loc 1 54 0
 730 03a6 DFF894C1 		ldr	ip, .L127+12
 731              	.LBE38:
 732              	.LBE37:
 733              		.loc 1 87 0
 734 03aa CDED087A 		vstr.32	s15, [sp, #32]	@ int
 735              	.LVL116:
 736              	.LBB40:
 737              	.LBB39:
 738              		.loc 1 52 0
 739 03ae 03F10B08 		add	r8, r3, #11
 740              	.LVL117:
 741              		.loc 1 45 0
ARM GAS  /var/tmp//ccoQqp7T.s 			page 14


 742 03b2 17EE901A 		vmov	r1, s15	@ int
 743              		.loc 1 52 0
 744 03b6 4246     		mov	r2, r8
 745              	.LVL118:
 746              	.L41:
 747              		.loc 1 54 0
 748 03b8 ACFB0103 		umull	r0, r3, ip, r1
 749 03bc DB08     		lsrs	r3, r3, #3
 750 03be 03EB830E 		add	lr, r3, r3, lsl #2
 751 03c2 1846     		mov	r0, r3
 752 03c4 A1EB4E03 		sub	r3, r1, lr, lsl #1
 753              	.LVL119:
 754              		.loc 1 55 0
 755 03c8 3033     		adds	r3, r3, #48
 756              	.LVL120:
 757              		.loc 1 58 0
 758 03ca DBB2     		uxtb	r3, r3
 759              	.LVL121:
 760 03cc 02F8013D 		strb	r3, [r2, #-1]!
 761              	.LVL122:
 762              		.loc 1 60 0
 763 03d0 0146     		mov	r1, r0
 764              	.LVL123:
 765 03d2 0028     		cmp	r0, #0
 766 03d4 F0D1     		bne	.L41
 767 03d6 0399     		ldr	r1, [sp, #12]
 768              		.loc 1 62 0
 769 03d8 A8EB0208 		sub	r8, r8, r2
 770              	.LVL124:
 771 03dc 0846     		mov	r0, r1
 772              	.LVL125:
 773 03de 4044     		add	r0, r0, r8
 774 03e0 01E0     		b	.L43
 775              	.LVL126:
 776              	.L126:
 777 03e2 12F8013F 		ldrb	r3, [r2, #1]!	@ zero_extendqisi2
 778              	.LVL127:
 779              	.L43:
 780              		.loc 1 64 0
 781 03e6 01F8013B 		strb	r3, [r1], #1
 782              	.LVL128:
 783              		.loc 1 65 0
 784 03ea 8142     		cmp	r1, r0
 785 03ec F9D1     		bne	.L126
 786 03ee 039A     		ldr	r2, [sp, #12]
 787              	.LBE39:
 788              	.LBE40:
 789              		.loc 1 90 0
 790 03f0 0898     		ldr	r0, [sp, #32]
 791              		.loc 1 89 0
 792 03f2 2E23     		movs	r3, #46
 793 03f4 08F1FF38 		add	r8, r8, #-1
 794 03f8 4244     		add	r2, r2, r8
 795 03fa 0B70     		strb	r3, [r1]
 796 03fc 9046     		mov	r8, r2
 797              	.LVL129:
 798              		.loc 1 90 0
ARM GAS  /var/tmp//ccoQqp7T.s 			page 15


 799 03fe FFF7FEFF 		bl	__aeabi_i2d
 800              	.LVL130:
 801 0402 0246     		mov	r2, r0
 802 0404 0B46     		mov	r3, r1
 803 0406 DDE90401 		ldrd	r0, [sp, #16]
 804 040a FFF7FEFF 		bl	__aeabi_dsub
 805              	.LVL131:
 806 040e DDE90623 		ldrd	r2, [sp, #24]
 807 0412 FFF7FEFF 		bl	__aeabi_dmul
 808              	.LVL132:
 809 0416 FFF7FEFF 		bl	__aeabi_d2iz
 810              	.LVL133:
 811              	.LBB41:
 812              	.LBB42:
 813              		.loc 1 47 0
 814 041a 099A     		ldr	r2, [sp, #36]
 815              		.loc 1 54 0
 816 041c DFF81CE1 		ldr	lr, .L127+12
 817              		.loc 1 52 0
 818 0420 08F10D03 		add	r3, r8, #13
 819              		.loc 1 47 0
 820 0424 002A     		cmp	r2, #0
 821 0426 08BF     		it	eq
 822 0428 0746     		moveq	r7, r0
 823              		.loc 1 52 0
 824 042a 0393     		str	r3, [sp, #12]
 825              	.LVL134:
 826              	.LBE42:
 827              	.LBE41:
 828              		.loc 1 89 0
 829 042c 08F10208 		add	r8, r8, #2
 830              	.LVL135:
 831              	.LBB44:
 832              	.LBB43:
 833              		.loc 1 52 0
 834 0430 1A46     		mov	r2, r3
 835 0432 00E0     		b	.L45
 836              	.LVL136:
 837              	.L79:
 838              		.loc 1 60 0
 839 0434 0A46     		mov	r2, r1
 840              	.LVL137:
 841              	.L45:
 842              		.loc 1 54 0
 843 0436 AEFB0013 		umull	r1, r3, lr, r0
 844 043a DB08     		lsrs	r3, r3, #3
 845 043c 03EB830C 		add	ip, r3, r3, lsl #2
 846 0440 1946     		mov	r1, r3
 847 0442 A0EB4C03 		sub	r3, r0, ip, lsl #1
 848              	.LVL138:
 849              		.loc 1 55 0
 850 0446 3033     		adds	r3, r3, #48
 851              	.LVL139:
 852              		.loc 1 60 0
 853 0448 AEFB0707 		umull	r0, r7, lr, r7
 854              	.LVL140:
 855              		.loc 1 58 0
ARM GAS  /var/tmp//ccoQqp7T.s 			page 16


 856 044c DBB2     		uxtb	r3, r3
 857              	.LVL141:
 858              		.loc 1 60 0
 859 044e FF08     		lsrs	r7, r7, #3
 860              		.loc 1 59 0
 861 0450 0846     		mov	r0, r1
 862              		.loc 1 58 0
 863 0452 02F8013C 		strb	r3, [r2, #-1]
 864 0456 02F1FF31 		add	r1, r2, #-1
 865              	.LVL142:
 866              		.loc 1 60 0
 867 045a EBD1     		bne	.L79
 868              	.LVL143:
 869              		.loc 1 62 0
 870 045c 0398     		ldr	r0, [sp, #12]
 871              	.LVL144:
 872 045e 401A     		subs	r0, r0, r1
 873 0460 0144     		add	r1, r1, r0
 874              	.LVL145:
 875 0462 4746     		mov	r7, r8
 876 0464 01E0     		b	.L47
 877              	.LVL146:
 878              	.L46:
 879 0466 12F8013B 		ldrb	r3, [r2], #1	@ zero_extendqisi2
 880              	.LVL147:
 881              	.L47:
 882              		.loc 1 64 0
 883 046a 07F8013B 		strb	r3, [r7], #1
 884              	.LVL148:
 885              		.loc 1 65 0
 886 046e 9142     		cmp	r1, r2
 887 0470 F9D1     		bne	.L46
 888 0472 08EB0002 		add	r2, r8, r0
 889              	.LVL149:
 890              	.L111:
 891 0476 029B     		ldr	r3, [sp, #8]
 892 0478 D21A     		subs	r2, r2, r3
 893              	.LBE43:
 894              	.LBE44:
 895              	.LBE45:
 896              	.LBE47:
 897              		.loc 1 144 0
 898 047a 1F46     		mov	r7, r3
 899 047c 02F1FF38 		add	r8, r2, #-1
 900 0480 CFE6     		b	.L25
 901              	.LVL150:
 902              	.L22:
 903              		.loc 1 193 0
 904 0482 10AF     		add	r7, sp, #64
 905 0484 DAF80030 		ldr	r3, [r10]
 906 0488 07F8183D 		strb	r3, [r7, #-24]!
 907 048c 0AF1040A 		add	r10, r10, #4
 908              	.LVL151:
 909              		.loc 1 194 0
 910 0490 4FF00008 		mov	r8, #0
 911              	.LVL152:
 912 0494 0122     		movs	r2, #1
ARM GAS  /var/tmp//ccoQqp7T.s 			page 17


 913              	.LVL153:
 914              		.loc 1 192 0
 915 0496 2025     		movs	r5, #32
 916              		.loc 1 194 0
 917 0498 C3E6     		b	.L25
 918              	.LVL154:
 919              	.L16:
 920              		.loc 1 247 0
 921 049a 10AF     		add	r7, sp, #64
 922              		.loc 1 248 0
 923 049c 4FF00008 		mov	r8, #0
 924              	.LVL155:
 925              		.loc 1 247 0
 926 04a0 07F8182D 		strb	r2, [r7, #-24]!
 927              		.loc 1 248 0
 928 04a4 0122     		movs	r2, #1
 929              	.LVL156:
 930 04a6 BCE6     		b	.L25
 931              	.LVL157:
 932              	.L81:
 933 04a8 3446     		mov	r4, r6
 934              	.LVL158:
 935              	.L57:
 936              		.loc 1 266 0
 937 04aa B8F1000F 		cmp	r8, #0
 938 04ae BFF6D6AE 		bge	.L61
 939 04b2 E3E6     		b	.L62
 940              	.LVL159:
 941              	.L27:
 942              		.loc 1 201 0
 943 04b4 47F6FE78 		movw	r8, #32766
 944 04b8 002B     		cmp	r3, #0
 945 04ba 7FF431AF 		bne	.L66
 946              	.LVL160:
 947              	.L74:
 948 04be 4FF0FF38 		mov	r8, #-1
 949 04c2 2025     		movs	r5, #32
 950 04c4 AFE6     		b	.L28
 951              	.LVL161:
 952              	.L121:
 953              		.loc 1 256 0 discriminator 1
 954 04c6 302D     		cmp	r5, #48
 955 04c8 7FF4B8AE 		bne	.L59
 956              		.loc 1 257 0
 957 04cc DBF80030 		ldr	r3, [fp]
 958 04d0 5846     		mov	r0, fp
 959 04d2 9B68     		ldr	r3, [r3, #8]
 960 04d4 9847     		blx	r3
 961              	.LVL162:
 962              		.loc 1 258 0
 963 04d6 019B     		ldr	r3, [sp, #4]
 964 04d8 0133     		adds	r3, r3, #1
 965              		.loc 1 257 0
 966 04da 0137     		adds	r7, r7, #1
 967              	.LVL163:
 968              		.loc 1 258 0
 969 04dc 0193     		str	r3, [sp, #4]
ARM GAS  /var/tmp//ccoQqp7T.s 			page 18


 970              	.LVL164:
 971 04de 08F1FF38 		add	r8, r8, #-1
 972 04e2 ABE6     		b	.L59
 973              	.LVL165:
 974              	.L77:
 975              	.LBB48:
 976              	.LBB46:
 977              		.loc 1 83 0
 978 04e4 9FED127B 		vldr.64	d7, .L127
 979 04e8 154F     		ldr	r7, .L127+16
 980 04ea 0997     		str	r7, [sp, #36]
 981 04ec 8DED067B 		vstr.64	d7, [sp, #24]
 982 04f0 56E7     		b	.L40
 983              	.LVL166:
 984              	.L122:
 985              	.LBE46:
 986              	.LBE48:
 987              		.loc 1 213 0
 988 04f2 2D23     		movs	r3, #45
 989 04f4 8DF82830 		strb	r3, [sp, #40]
 990 04f8 0AAB     		add	r3, sp, #40
 991              	.LVL167:
 992              		.loc 1 214 0
 993 04fa 4942     		negs	r1, r1
 994              	.LVL168:
 995              		.loc 1 213 0
 996 04fc 0DF12902 		add	r2, sp, #41
 997              	.LVL169:
 998 0500 0293     		str	r3, [sp, #8]
 999 0502 DDE6     		b	.L34
 1000              	.LVL170:
 1001              	.L125:
 1002              		.loc 1 222 0
 1003 0504 2D23     		movs	r3, #45
 1004 0506 8DF82830 		strb	r3, [sp, #40]
 1005 050a 0DF12903 		add	r3, sp, #41
 1006              	.LVL171:
 1007 050e 0393     		str	r3, [sp, #12]
 1008 0510 0AAB     		add	r3, sp, #40
 1009              	.LVL172:
 1010              		.loc 1 223 0
 1011 0512 B1EE488A 		vneg.f32	s16, s16
 1012              	.LVL173:
 1013 0516 0293     		str	r3, [sp, #8]
 1014 0518 28E7     		b	.L38
 1015              	.LVL174:
 1016              	.L26:
 1017              		.loc 1 198 0
 1018 051a 0A4F     		ldr	r7, .L127+20
 1019              		.loc 1 199 0
 1020 051c B8F1000F 		cmp	r8, #0
 1021 0520 7FF4FCAE 		bne	.L65
 1022              		.loc 1 200 0
 1023 0524 47F6FF78 		movw	r8, #32767
 1024              	.LVL175:
 1025 0528 F8E6     		b	.L65
 1026              	.L128:
ARM GAS  /var/tmp//ccoQqp7T.s 			page 19


 1027 052a 00BFAFF3 		.align	3
 1027      0080
 1028              	.L127:
 1029 0530 00000000 		.word	0
 1030 0534 65CDCD41 		.word	1104006501
 1031 0538 00000000 		.word	.LANCHOR0
 1032 053c CDCCCCCC 		.word	-858993459
 1033 0540 00E1F505 		.word	100000000
 1034 0544 00000000 		.word	.LC0
 1035              		.cfi_endproc
 1036              	.LFE260:
 1037              		.size	chvprintf, .-chvprintf
 1038              		.section	.text.chsnprintf,"ax",%progbits
 1039              		.align	1
 1040              		.p2align 4,,15
 1041              		.global	chsnprintf
 1042              		.syntax unified
 1043              		.thumb
 1044              		.thumb_func
 1045              		.fpu fpv4-sp-d16
 1046              		.type	chsnprintf, %function
 1047              	chsnprintf:
 1048              	.LFB261:
 1049              		.loc 1 307 0
 1050              		.cfi_startproc
 1051              		@ args = 4, pretend = 8, frame = 24
 1052              		@ frame_needed = 0, uses_anonymous_args = 1
 1053              	.LVL176:
 1054 0000 0CB4     		push	{r2, r3}
 1055              		.cfi_def_cfa_offset 8
 1056              		.cfi_offset 2, -8
 1057              		.cfi_offset 3, -4
 1058 0002 30B5     		push	{r4, r5, lr}
 1059              		.cfi_def_cfa_offset 20
 1060              		.cfi_offset 4, -20
 1061              		.cfi_offset 5, -16
 1062              		.cfi_offset 14, -12
 1063 0004 0546     		mov	r5, r0
 1064 0006 87B0     		sub	sp, sp, #28
 1065              		.cfi_def_cfa_offset 48
 1066              		.loc 1 314 0
 1067 0008 0C46     		mov	r4, r1
 1068 000a B1B1     		cbz	r1, .L130
 1069              	.LVL177:
 1070              		.loc 1 321 0
 1071 000c 4A1E     		subs	r2, r1, #1
 1072              	.LVL178:
 1073 000e 01A8     		add	r0, sp, #4
 1074              	.LVL179:
 1075 0010 0023     		movs	r3, #0
 1076 0012 2946     		mov	r1, r5
 1077              	.LVL180:
 1078 0014 FFF7FEFF 		bl	msObjectInit
 1079              	.LVL181:
 1080              		.loc 1 325 0
 1081 0018 0BAB     		add	r3, sp, #44
 1082              		.loc 1 326 0
ARM GAS  /var/tmp//ccoQqp7T.s 			page 20


 1083 001a 1A46     		mov	r2, r3
 1084 001c 01A8     		add	r0, sp, #4
 1085              	.LVL182:
 1086 001e 0A99     		ldr	r1, [sp, #40]
 1087              		.loc 1 325 0
 1088 0020 0093     		str	r3, [sp]
 1089              		.loc 1 326 0
 1090 0022 FFF7FEFF 		bl	chvprintf
 1091              	.LVL183:
 1092              		.loc 1 330 0
 1093 0026 049B     		ldr	r3, [sp, #16]
 1094 0028 9C42     		cmp	r4, r3
 1095 002a 01D9     		bls	.L129
 1096              		.loc 1 331 0
 1097 002c 0022     		movs	r2, #0
 1098 002e EA54     		strb	r2, [r5, r3]
 1099              	.L129:
 1100              		.loc 1 335 0
 1101 0030 07B0     		add	sp, sp, #28
 1102              		.cfi_remember_state
 1103              		.cfi_def_cfa_offset 20
 1104              		@ sp needed
 1105 0032 BDE83040 		pop	{r4, r5, lr}
 1106              		.cfi_restore 14
 1107              		.cfi_restore 5
 1108              		.cfi_restore 4
 1109              		.cfi_def_cfa_offset 8
 1110              	.LVL184:
 1111 0036 02B0     		add	sp, sp, #8
 1112              		.cfi_restore 3
 1113              		.cfi_restore 2
 1114              		.cfi_def_cfa_offset 0
 1115 0038 7047     		bx	lr
 1116              	.LVL185:
 1117              	.L130:
 1118              		.cfi_restore_state
 1119              		.loc 1 321 0
 1120 003a 0146     		mov	r1, r0
 1121              	.LVL186:
 1122 003c 2346     		mov	r3, r4
 1123 003e 01A8     		add	r0, sp, #4
 1124              	.LVL187:
 1125 0040 2246     		mov	r2, r4
 1126 0042 FFF7FEFF 		bl	msObjectInit
 1127              	.LVL188:
 1128              		.loc 1 325 0
 1129 0046 0BAB     		add	r3, sp, #44
 1130              		.loc 1 326 0
 1131 0048 01A8     		add	r0, sp, #4
 1132              	.LVL189:
 1133 004a 1A46     		mov	r2, r3
 1134 004c 0A99     		ldr	r1, [sp, #40]
 1135              		.loc 1 325 0
 1136 004e 0093     		str	r3, [sp]
 1137              		.loc 1 326 0
 1138 0050 FFF7FEFF 		bl	chvprintf
 1139              	.LVL190:
ARM GAS  /var/tmp//ccoQqp7T.s 			page 21


 1140              		.loc 1 335 0
 1141 0054 07B0     		add	sp, sp, #28
 1142              		.cfi_def_cfa_offset 20
 1143              		@ sp needed
 1144 0056 BDE83040 		pop	{r4, r5, lr}
 1145              		.cfi_restore 4
 1146              		.cfi_restore 5
 1147              		.cfi_restore 14
 1148              		.cfi_def_cfa_offset 8
 1149              	.LVL191:
 1150 005a 02B0     		add	sp, sp, #8
 1151              		.cfi_restore 2
 1152              		.cfi_restore 3
 1153              		.cfi_def_cfa_offset 0
 1154 005c 7047     		bx	lr
 1155              		.cfi_endproc
 1156              	.LFE261:
 1157              		.size	chsnprintf, .-chsnprintf
 1158 005e 00BF     		.section	.rodata.chvprintf.str1.4,"aMS",%progbits,1
 1159              		.align	2
 1160              	.LC0:
 1161 0000 286E756C 		.ascii	"(null)\000"
 1161      6C2900
 1162              		.section	.rodata.pow10,"a",%progbits
 1163              		.align	2
 1164              		.set	.LANCHOR0,. + 0
 1165              		.type	pow10, %object
 1166              		.size	pow10, 36
 1167              	pow10:
 1168 0000 0A000000 		.word	10
 1169 0004 64000000 		.word	100
 1170 0008 E8030000 		.word	1000
 1171 000c 10270000 		.word	10000
 1172 0010 A0860100 		.word	100000
 1173 0014 40420F00 		.word	1000000
 1174 0018 80969800 		.word	10000000
 1175 001c 00E1F505 		.word	100000000
 1176 0020 00CA9A3B 		.word	1000000000
 1177              		.text
 1178              	.Letext0:
 1179              		.file 2 "/usr/local/gcc_arm/gcc-arm-none-eabi-6-2017-q2-update/lib/gcc/arm-none-eabi/6.3.1/include
 1180              		.file 3 "/usr/local/gcc_arm/gcc-arm-none-eabi-6-2017-q2-update/arm-none-eabi/include/machine/_defa
 1181              		.file 4 "/usr/local/gcc_arm/gcc-arm-none-eabi-6-2017-q2-update/arm-none-eabi/include/sys/_stdint.h
 1182              		.file 5 "ChibiOS_3.0.2/os/rt/ports/ARMCMx/compilers/GCC/chtypes.h"
 1183              		.file 6 "ChibiOS_3.0.2/os/rt/include/chsystypes.h"
 1184              		.file 7 "ChibiOS_3.0.2/os/rt/include/chschd.h"
 1185              		.file 8 "ChibiOS_3.0.2/os/ext/CMSIS/include/core_cm4.h"
 1186              		.file 9 "ChibiOS_3.0.2/os/ext/CMSIS/ST/system_stm32f4xx.h"
 1187              		.file 10 "ChibiOS_3.0.2/os/ext/CMSIS/ST/stm32f407xx.h"
 1188              		.file 11 "ChibiOS_3.0.2/os/rt/ports/ARMCMx/chcore.h"
 1189              		.file 12 "ChibiOS_3.0.2/os/rt/ports/ARMCMx/chcore_v7m.h"
 1190              		.file 13 "ChibiOS_3.0.2/os/rt/include/chtm.h"
 1191              		.file 14 "ChibiOS_3.0.2/os/rt/include/chsem.h"
 1192              		.file 15 "ChibiOS_3.0.2/os/rt/include/chmtx.h"
 1193              		.file 16 "ChibiOS_3.0.2/os/rt/include/chregistry.h"
 1194              		.file 17 "ChibiOS_3.0.2/os/rt/include/chevents.h"
 1195              		.file 18 "ChibiOS_3.0.2/os/rt/include/chqueues.h"
ARM GAS  /var/tmp//ccoQqp7T.s 			page 22


 1196              		.file 19 "ChibiOS_3.0.2/os/rt/include/chstreams.h"
 1197              		.file 20 "./conf_general.h"
 1198              		.file 21 "ChibiOS_3.0.2/os/hal/ports/STM32/STM32F4xx/stm32_dma.h"
 1199              		.file 22 "ChibiOS_3.0.2/os/hal/ports/STM32/LLD/GPIOv2/pal_lld.h"
 1200              		.file 23 "ChibiOS_3.0.2/os/hal/include/can.h"
 1201              		.file 24 "ChibiOS_3.0.2/os/hal/ports/STM32/LLD/can_lld.h"
 1202              		.file 25 "ChibiOS_3.0.2/os/hal/include/i2c.h"
 1203              		.file 26 "ChibiOS_3.0.2/os/hal/ports/STM32/LLD/I2Cv1/i2c_lld.h"
 1204              		.file 27 "ChibiOS_3.0.2/os/hal/include/icu.h"
 1205              		.file 28 "ChibiOS_3.0.2/os/hal/ports/STM32/LLD/TIMv1/icu_lld.h"
 1206              		.file 29 "ChibiOS_3.0.2/os/hal/ports/STM32/LLD/TIMv1/stm32_tim.h"
 1207              		.file 30 "ChibiOS_3.0.2/os/hal/include/spi.h"
 1208              		.file 31 "ChibiOS_3.0.2/os/hal/ports/STM32/LLD/SPIv1/spi_lld.h"
 1209              		.file 32 "ChibiOS_3.0.2/os/hal/include/uart.h"
 1210              		.file 33 "ChibiOS_3.0.2/os/hal/ports/STM32/LLD/USARTv1/uart_lld.h"
 1211              		.file 34 "ChibiOS_3.0.2/os/hal/include/usb.h"
 1212              		.file 35 "ChibiOS_3.0.2/os/hal/ports/STM32/LLD/OTGv1/usb_lld.h"
 1213              		.file 36 "ChibiOS_3.0.2/os/hal/ports/STM32/LLD/OTGv1/stm32_otg.h"
 1214              		.file 37 "/usr/local/gcc_arm/gcc-arm-none-eabi-6-2017-q2-update/lib/gcc/arm-none-eabi/6.3.1/includ
 1215              		.file 38 "<built-in>"
 1216              		.file 39 "ChibiOS_3.0.2/os/hal/lib/streams/memstreams.h"