ARM GAS  /var/tmp//cckkXhHA.s 			page 1


   1              		.cpu cortex-m4
   2              		.eabi_attribute 27, 1
   3              		.eabi_attribute 28, 1
   4              		.eabi_attribute 20, 1
   5              		.eabi_attribute 21, 1
   6              		.eabi_attribute 23, 3
   7              		.eabi_attribute 24, 1
   8              		.eabi_attribute 25, 1
   9              		.eabi_attribute 26, 1
  10              		.eabi_attribute 30, 2
  11              		.eabi_attribute 34, 1
  12              		.eabi_attribute 18, 4
  13              		.file	"chqueues.c"
  14              		.text
  15              	.Ltext0:
  16              		.cfi_sections	.debug_frame
  17              		.section	.text.chIQObjectInit,"ax",%progbits
  18              		.align	1
  19              		.p2align 4,,15
  20              		.global	chIQObjectInit
  21              		.syntax unified
  22              		.thumb
  23              		.thumb_func
  24              		.fpu fpv4-sp-d16
  25              		.type	chIQObjectInit, %function
  26              	chIQObjectInit:
  27              	.LFB219:
  28              		.file 1 "ChibiOS_3.0.2/os/rt/src/chqueues.c"
  29              		.loc 1 88 0
  30              		.cfi_startproc
  31              		@ args = 4, pretend = 0, frame = 0
  32              		@ frame_needed = 0, uses_anonymous_args = 0
  33              		@ link register save eliminated.
  34              	.LVL0:
  35 0000 30B4     		push	{r4, r5}
  36              		.cfi_def_cfa_offset 8
  37              		.cfi_offset 4, -8
  38              		.cfi_offset 5, -4
  39              		.loc 1 88 0
  40 0002 029C     		ldr	r4, [sp, #8]
  41              		.loc 1 97 0
  42 0004 0462     		str	r4, [r0, #32]
  43              		.loc 1 91 0
  44 0006 0025     		movs	r5, #0
  45              		.loc 1 95 0
  46 0008 0A44     		add	r2, r2, r1
  47              	.LVL1:
  48              		.loc 1 91 0
  49 000a 8560     		str	r5, [r0, #8]
  50              		.loc 1 95 0
  51 000c 0261     		str	r2, [r0, #16]
  52              	.LBB108:
  53              	.LBB109:
  54              	.LBB110:
  55              		.file 2 "ChibiOS_3.0.2/os/rt/include/chschd.h"
  56              		.loc 2 604 0
  57 000e 0060     		str	r0, [r0]
ARM GAS  /var/tmp//cckkXhHA.s 			page 2


  58              		.loc 2 605 0
  59 0010 4060     		str	r0, [r0, #4]
  60              	.LVL2:
  61              	.LBE110:
  62              	.LBE109:
  63              	.LBE108:
  64              		.loc 1 92 0
  65 0012 C160     		str	r1, [r0, #12]
  66              		.loc 1 93 0
  67 0014 8161     		str	r1, [r0, #24]
  68              		.loc 1 94 0
  69 0016 4161     		str	r1, [r0, #20]
  70              		.loc 1 96 0
  71 0018 C361     		str	r3, [r0, #28]
  72              		.loc 1 98 0
  73 001a 30BC     		pop	{r4, r5}
  74              		.cfi_restore 5
  75              		.cfi_restore 4
  76              		.cfi_def_cfa_offset 0
  77              	.LVL3:
  78 001c 7047     		bx	lr
  79              		.cfi_endproc
  80              	.LFE219:
  81              		.size	chIQObjectInit, .-chIQObjectInit
  82 001e 00BF     		.section	.text.chIQResetI,"ax",%progbits
  83              		.align	1
  84              		.p2align 4,,15
  85              		.global	chIQResetI
  86              		.syntax unified
  87              		.thumb
  88              		.thumb_func
  89              		.fpu fpv4-sp-d16
  90              		.type	chIQResetI, %function
  91              	chIQResetI:
  92              	.LFB220:
  93              		.loc 1 111 0
  94              		.cfi_startproc
  95              		@ args = 0, pretend = 0, frame = 0
  96              		@ frame_needed = 0, uses_anonymous_args = 0
  97              		@ link register save eliminated.
  98              	.LVL4:
  99              		.loc 1 117 0
 100 0000 0021     		movs	r1, #0
 101              		.loc 1 115 0
 102 0002 C268     		ldr	r2, [r0, #12]
 103              		.loc 1 117 0
 104 0004 8160     		str	r1, [r0, #8]
 105              		.loc 1 115 0
 106 0006 8261     		str	r2, [r0, #24]
 107              		.loc 1 116 0
 108 0008 4261     		str	r2, [r0, #20]
 109              		.loc 1 118 0
 110 000a 6FF00101 		mvn	r1, #1
 111 000e FFF7FEBF 		b	chThdDequeueAllI
 112              	.LVL5:
 113              		.cfi_endproc
 114              	.LFE220:
ARM GAS  /var/tmp//cckkXhHA.s 			page 3


 115              		.size	chIQResetI, .-chIQResetI
 116 0012 00BF     		.section	.text.chIQPutI,"ax",%progbits
 117              		.align	1
 118              		.p2align 4,,15
 119              		.global	chIQPutI
 120              		.syntax unified
 121              		.thumb
 122              		.thumb_func
 123              		.fpu fpv4-sp-d16
 124              		.type	chIQPutI, %function
 125              	chIQPutI:
 126              	.LFB221:
 127              		.loc 1 134 0
 128              		.cfi_startproc
 129              		@ args = 0, pretend = 0, frame = 0
 130              		@ frame_needed = 0, uses_anonymous_args = 0
 131              	.LVL6:
 132              	.LBB111:
 133              	.LBB112:
 134              		.file 3 "ChibiOS_3.0.2/os/rt/include/chqueues.h"
 135              		.loc 3 324 0
 136 0000 4369     		ldr	r3, [r0, #20]
 137 0002 8269     		ldr	r2, [r0, #24]
 138 0004 9342     		cmp	r3, r2
 139 0006 11D0     		beq	.L14
 140              	.L5:
 141              	.LVL7:
 142              	.LBE112:
 143              	.LBE111:
 144              		.loc 1 142 0
 145 0008 8268     		ldr	r2, [r0, #8]
 146              		.loc 1 134 0
 147 000a 10B5     		push	{r4, lr}
 148              		.cfi_def_cfa_offset 8
 149              		.cfi_offset 4, -8
 150              		.cfi_offset 14, -4
 151              		.loc 1 142 0
 152 000c 0132     		adds	r2, r2, #1
 153              		.loc 1 143 0
 154 000e 5C1C     		adds	r4, r3, #1
 155              		.loc 1 142 0
 156 0010 8260     		str	r2, [r0, #8]
 157              		.loc 1 143 0
 158 0012 4461     		str	r4, [r0, #20]
 159 0014 1970     		strb	r1, [r3]
 160              		.loc 1 144 0
 161 0016 4269     		ldr	r2, [r0, #20]
 162 0018 0369     		ldr	r3, [r0, #16]
 163 001a 9A42     		cmp	r2, r3
 164 001c 01D3     		bcc	.L8
 165              		.loc 1 145 0
 166 001e C368     		ldr	r3, [r0, #12]
 167 0020 4361     		str	r3, [r0, #20]
 168              	.L8:
 169              		.loc 1 148 0
 170 0022 0021     		movs	r1, #0
 171              	.LVL8:
ARM GAS  /var/tmp//cckkXhHA.s 			page 4


 172 0024 FFF7FEFF 		bl	chThdDequeueNextI
 173              	.LVL9:
 174              		.loc 1 150 0
 175 0028 0020     		movs	r0, #0
 176 002a 10BD     		pop	{r4, pc}
 177              	.LVL10:
 178              	.L14:
 179              		.cfi_def_cfa_offset 0
 180              		.cfi_restore 4
 181              		.cfi_restore 14
 182              	.LBB114:
 183              	.LBB113:
 184              		.loc 3 324 0
 185 002c 8268     		ldr	r2, [r0, #8]
 186 002e 002A     		cmp	r2, #0
 187 0030 EAD0     		beq	.L5
 188              	.LBE113:
 189              	.LBE114:
 190              		.loc 1 139 0
 191 0032 6FF00300 		mvn	r0, #3
 192              	.LVL11:
 193 0036 7047     		bx	lr
 194              		.cfi_endproc
 195              	.LFE221:
 196              		.size	chIQPutI, .-chIQPutI
 197              		.section	.text.chIQGetTimeout,"ax",%progbits
 198              		.align	1
 199              		.p2align 4,,15
 200              		.global	chIQGetTimeout
 201              		.syntax unified
 202              		.thumb
 203              		.thumb_func
 204              		.fpu fpv4-sp-d16
 205              		.type	chIQGetTimeout, %function
 206              	chIQGetTimeout:
 207              	.LFB222:
 208              		.loc 1 173 0
 209              		.cfi_startproc
 210              		@ args = 0, pretend = 0, frame = 0
 211              		@ frame_needed = 0, uses_anonymous_args = 0
 212              	.LVL12:
 213 0000 70B5     		push	{r4, r5, r6, lr}
 214              		.cfi_def_cfa_offset 16
 215              		.cfi_offset 4, -16
 216              		.cfi_offset 5, -12
 217              		.cfi_offset 6, -8
 218              		.cfi_offset 14, -4
 219              	.LBB115:
 220              	.LBB116:
 221              	.LBB117:
 222              	.LBB118:
 223              		.file 4 "ChibiOS_3.0.2/os/ext/CMSIS/include/core_cmFunc.h"
 224              		.loc 4 546 0
 225 0002 2023     		movs	r3, #32
 226              	.LBE118:
 227              	.LBE117:
 228              	.LBE116:
ARM GAS  /var/tmp//cckkXhHA.s 			page 5


 229              	.LBE115:
 230              		.loc 1 173 0
 231 0004 0E46     		mov	r6, r1
 232 0006 0446     		mov	r4, r0
 233              	.LBB122:
 234              	.LBB121:
 235              	.LBB120:
 236              	.LBB119:
 237              		.loc 4 546 0
 238              		.syntax unified
 239              	@ 546 "ChibiOS_3.0.2/os/ext/CMSIS/include/core_cmFunc.h" 1
 240 0008 83F31188 		MSR basepri, r3
 241              	@ 0 "" 2
 242              	.LVL13:
 243              		.thumb
 244              		.syntax unified
 245              	.LBE119:
 246              	.LBE120:
 247              	.LBE121:
 248              	.LBE122:
 249              		.loc 1 177 0
 250 000c C369     		ldr	r3, [r0, #28]
 251 000e 2BB1     		cbz	r3, .L17
 252              		.loc 1 178 0
 253 0010 9847     		blx	r3
 254              	.LVL14:
 255 0012 03E0     		b	.L17
 256              	.LVL15:
 257              	.L19:
 258              	.LBB123:
 259              		.loc 1 182 0
 260 0014 FFF7FEFF 		bl	chThdEnqueueTimeoutS
 261              	.LVL16:
 262              		.loc 1 183 0
 263 0018 0028     		cmp	r0, #0
 264 001a 15DB     		blt	.L26
 265              	.LVL17:
 266              	.L17:
 267              	.LBE123:
 268              	.LBB129:
 269              	.LBB130:
 270              		.loc 3 307 0
 271 001c A568     		ldr	r5, [r4, #8]
 272              	.LVL18:
 273              	.LBE130:
 274              	.LBE129:
 275              	.LBB131:
 276              		.loc 1 182 0
 277 001e 3146     		mov	r1, r6
 278 0020 2046     		mov	r0, r4
 279              	.LBE131:
 280              		.loc 1 181 0
 281 0022 002D     		cmp	r5, #0
 282 0024 F6D0     		beq	.L19
 283              	.LVL19:
 284              		.loc 1 190 0
 285 0026 A169     		ldr	r1, [r4, #24]
ARM GAS  /var/tmp//cckkXhHA.s 			page 6


 286              	.LVL20:
 287              		.loc 1 189 0
 288 0028 A368     		ldr	r3, [r4, #8]
 289              		.loc 1 191 0
 290 002a 2569     		ldr	r5, [r4, #16]
 291              		.loc 1 190 0
 292 002c 4A1C     		adds	r2, r1, #1
 293              		.loc 1 189 0
 294 002e 013B     		subs	r3, r3, #1
 295              		.loc 1 191 0
 296 0030 AA42     		cmp	r2, r5
 297              		.loc 1 189 0
 298 0032 A360     		str	r3, [r4, #8]
 299              		.loc 1 190 0
 300 0034 A261     		str	r2, [r4, #24]
 301              		.loc 1 192 0
 302 0036 28BF     		it	cs
 303 0038 E368     		ldrcs	r3, [r4, #12]
 304              		.loc 1 190 0
 305 003a 0878     		ldrb	r0, [r1]	@ zero_extendqisi2
 306              	.LVL21:
 307              		.loc 1 192 0
 308 003c 28BF     		it	cs
 309 003e A361     		strcs	r3, [r4, #24]
 310              	.LVL22:
 311              	.LBB132:
 312              	.LBB133:
 313              	.LBB134:
 314              	.LBB135:
 315              	.LBB136:
 316              		.loc 4 546 0
 317 0040 0023     		movs	r3, #0
 318              		.syntax unified
 319              	@ 546 "ChibiOS_3.0.2/os/ext/CMSIS/include/core_cmFunc.h" 1
 320 0042 83F31188 		MSR basepri, r3
 321              	@ 0 "" 2
 322              	.LVL23:
 323              		.thumb
 324              		.syntax unified
 325              	.LBE136:
 326              	.LBE135:
 327              	.LBE134:
 328              	.LBE133:
 329              	.LBE132:
 330              		.loc 1 197 0
 331 0046 70BD     		pop	{r4, r5, r6, pc}
 332              	.LVL24:
 333              	.L26:
 334              	.LBB137:
 335              	.LBB124:
 336              	.LBB125:
 337              	.LBB126:
 338              	.LBB127:
 339              	.LBB128:
 340              		.loc 4 546 0
 341              		.syntax unified
 342              	@ 546 "ChibiOS_3.0.2/os/ext/CMSIS/include/core_cmFunc.h" 1
ARM GAS  /var/tmp//cckkXhHA.s 			page 7


 343 0048 85F31188 		MSR basepri, r5
 344              	@ 0 "" 2
 345              	.LVL25:
 346              		.thumb
 347              		.syntax unified
 348              	.LBE128:
 349              	.LBE127:
 350              	.LBE126:
 351              	.LBE125:
 352              	.LBE124:
 353              		.loc 1 185 0
 354 004c 70BD     		pop	{r4, r5, r6, pc}
 355              	.LBE137:
 356              		.cfi_endproc
 357              	.LFE222:
 358              		.size	chIQGetTimeout, .-chIQGetTimeout
 359 004e 00BF     		.section	.text.chIQReadTimeout,"ax",%progbits
 360              		.align	1
 361              		.p2align 4,,15
 362              		.global	chIQReadTimeout
 363              		.syntax unified
 364              		.thumb
 365              		.thumb_func
 366              		.fpu fpv4-sp-d16
 367              		.type	chIQReadTimeout, %function
 368              	chIQReadTimeout:
 369              	.LFB223:
 370              		.loc 1 224 0
 371              		.cfi_startproc
 372              		@ args = 0, pretend = 0, frame = 8
 373              		@ frame_needed = 0, uses_anonymous_args = 0
 374              	.LVL26:
 375 0000 2DE9F04F 		push	{r4, r5, r6, r7, r8, r9, r10, fp, lr}
 376              		.cfi_def_cfa_offset 36
 377              		.cfi_offset 4, -36
 378              		.cfi_offset 5, -32
 379              		.cfi_offset 6, -28
 380              		.cfi_offset 7, -24
 381              		.cfi_offset 8, -20
 382              		.cfi_offset 9, -16
 383              		.cfi_offset 10, -12
 384              		.cfi_offset 11, -8
 385              		.cfi_offset 14, -4
 386 0004 0446     		mov	r4, r0
 387 0006 83B0     		sub	sp, sp, #12
 388              		.cfi_def_cfa_offset 48
 389              		.loc 1 224 0
 390 0008 8946     		mov	r9, r1
 391 000a 9346     		mov	fp, r2
 392 000c 1D46     		mov	r5, r3
 393              		.loc 1 225 0
 394 000e D0F81C80 		ldr	r8, [r0, #28]
 395              	.LVL27:
 396              	.LBB138:
 397              	.LBB139:
 398              	.LBB140:
 399              	.LBB141:
ARM GAS  /var/tmp//cckkXhHA.s 			page 8


 400              		.loc 4 546 0
 401 0012 2027     		movs	r7, #32
 402              		.syntax unified
 403              	@ 546 "ChibiOS_3.0.2/os/ext/CMSIS/include/core_cmFunc.h" 1
 404 0014 87F31188 		MSR basepri, r7
 405              	@ 0 "" 2
 406              	.LVL28:
 407              		.thumb
 408              		.syntax unified
 409              	.LBE141:
 410              	.LBE140:
 411              	.LBE139:
 412              	.LBE138:
 413              		.loc 1 226 0
 414 0018 0026     		movs	r6, #0
 415              	.LBB142:
 416              	.LBB143:
 417              	.LBB144:
 418              	.LBB145:
 419              		.loc 4 546 0
 420 001a 0197     		str	r7, [sp, #4]
 421              	.LBE145:
 422              	.LBE144:
 423              	.LBE143:
 424              	.LBE142:
 425              	.LBB149:
 426              	.LBB150:
 427              	.LBB151:
 428              	.LBB152:
 429              	.LBB153:
 430 001c B246     		mov	r10, r6
 431              	.LVL29:
 432              	.L33:
 433              	.LBE153:
 434              	.LBE152:
 435              	.LBE151:
 436              	.LBE150:
 437              	.LBE149:
 438              		.loc 1 232 0
 439 001e B8F1000F 		cmp	r8, #0
 440 0022 05D0     		beq	.L29
 441              		.loc 1 233 0
 442 0024 2046     		mov	r0, r4
 443              	.LVL30:
 444 0026 C047     		blx	r8
 445              	.LVL31:
 446 0028 02E0     		b	.L29
 447              	.LVL32:
 448              	.L31:
 449              		.loc 1 237 0
 450 002a FFF7FEFF 		bl	chThdEnqueueTimeoutS
 451              	.LVL33:
 452 002e E0B9     		cbnz	r0, .L40
 453              	.L29:
 454              	.LVL34:
 455              	.LBB158:
 456              	.LBB159:
ARM GAS  /var/tmp//cckkXhHA.s 			page 9


 457              		.loc 3 307 0
 458 0030 A768     		ldr	r7, [r4, #8]
 459              	.LVL35:
 460              	.LBE159:
 461              	.LBE158:
 462              		.loc 1 237 0
 463 0032 2946     		mov	r1, r5
 464 0034 2046     		mov	r0, r4
 465              		.loc 1 236 0
 466 0036 002F     		cmp	r7, #0
 467 0038 F7D0     		beq	.L31
 468              	.LVL36:
 469              		.loc 1 244 0
 470 003a A269     		ldr	r2, [r4, #24]
 471              		.loc 1 243 0
 472 003c A368     		ldr	r3, [r4, #8]
 473              		.loc 1 244 0
 474 003e 511C     		adds	r1, r2, #1
 475              	.LVL37:
 476              		.loc 1 243 0
 477 0040 013B     		subs	r3, r3, #1
 478              		.loc 1 244 0
 479 0042 A161     		str	r1, [r4, #24]
 480              		.loc 1 243 0
 481 0044 A360     		str	r3, [r4, #8]
 482              		.loc 1 244 0
 483 0046 1378     		ldrb	r3, [r2]	@ zero_extendqisi2
 484 0048 09F8013B 		strb	r3, [r9], #1
 485              	.LVL38:
 486              		.loc 1 245 0
 487 004c 2369     		ldr	r3, [r4, #16]
 488 004e A269     		ldr	r2, [r4, #24]
 489 0050 9A42     		cmp	r2, r3
 490              		.loc 1 246 0
 491 0052 24BF     		itt	cs
 492 0054 E368     		ldrcs	r3, [r4, #12]
 493 0056 A361     		strcs	r3, [r4, #24]
 494              	.LVL39:
 495              	.LBB160:
 496              	.LBB157:
 497              	.LBB156:
 498              	.LBB155:
 499              	.LBB154:
 500              		.loc 4 546 0
 501              		.syntax unified
 502              	@ 546 "ChibiOS_3.0.2/os/ext/CMSIS/include/core_cmFunc.h" 1
 503 0058 8AF31188 		MSR basepri, r10
 504              	@ 0 "" 2
 505              	.LVL40:
 506              		.thumb
 507              		.syntax unified
 508              	.LBE154:
 509              	.LBE155:
 510              	.LBE156:
 511              	.LBE157:
 512              	.LBE160:
 513              		.loc 1 250 0
ARM GAS  /var/tmp//cckkXhHA.s 			page 10


 514 005c 0136     		adds	r6, r6, #1
 515              	.LVL41:
 516              		.loc 1 251 0
 517 005e B345     		cmp	fp, r6
 518 0060 05D0     		beq	.L27
 519              	.LVL42:
 520              	.LBB161:
 521              	.LBB148:
 522              	.LBB147:
 523              	.LBB146:
 524              		.loc 4 546 0
 525 0062 019B     		ldr	r3, [sp, #4]
 526              		.syntax unified
 527              	@ 546 "ChibiOS_3.0.2/os/ext/CMSIS/include/core_cmFunc.h" 1
 528 0064 83F31188 		MSR basepri, r3
 529              	@ 0 "" 2
 530              	.LVL43:
 531              		.thumb
 532              		.syntax unified
 533 0068 D9E7     		b	.L33
 534              	.LVL44:
 535              	.L40:
 536              	.LBE146:
 537              	.LBE147:
 538              	.LBE148:
 539              	.LBE161:
 540              	.LBB162:
 541              	.LBB163:
 542              	.LBB164:
 543              	.LBB165:
 544              	.LBB166:
 545              		.syntax unified
 546              	@ 546 "ChibiOS_3.0.2/os/ext/CMSIS/include/core_cmFunc.h" 1
 547 006a 87F31188 		MSR basepri, r7
 548              	@ 0 "" 2
 549              	.LVL45:
 550              		.thumb
 551              		.syntax unified
 552              	.L27:
 553              	.LBE166:
 554              	.LBE165:
 555              	.LBE164:
 556              	.LBE163:
 557              	.LBE162:
 558              		.loc 1 257 0
 559 006e 3046     		mov	r0, r6
 560 0070 03B0     		add	sp, sp, #12
 561              		.cfi_def_cfa_offset 36
 562              		@ sp needed
 563 0072 BDE8F08F 		pop	{r4, r5, r6, r7, r8, r9, r10, fp, pc}
 564              		.cfi_endproc
 565              	.LFE223:
 566              		.size	chIQReadTimeout, .-chIQReadTimeout
 567 0076 00BF     		.section	.text.chOQObjectInit,"ax",%progbits
 568              		.align	1
 569              		.p2align 4,,15
 570              		.global	chOQObjectInit
ARM GAS  /var/tmp//cckkXhHA.s 			page 11


 571              		.syntax unified
 572              		.thumb
 573              		.thumb_func
 574              		.fpu fpv4-sp-d16
 575              		.type	chOQObjectInit, %function
 576              	chOQObjectInit:
 577              	.LFB224:
 578              		.loc 1 276 0
 579              		.cfi_startproc
 580              		@ args = 4, pretend = 0, frame = 0
 581              		@ frame_needed = 0, uses_anonymous_args = 0
 582              		@ link register save eliminated.
 583              	.LVL46:
 584 0000 30B4     		push	{r4, r5}
 585              		.cfi_def_cfa_offset 8
 586              		.cfi_offset 4, -8
 587              		.cfi_offset 5, -4
 588              		.loc 1 276 0
 589 0002 029C     		ldr	r4, [sp, #8]
 590              		.loc 1 285 0
 591 0004 0462     		str	r4, [r0, #32]
 592              		.loc 1 283 0
 593 0006 8D18     		adds	r5, r1, r2
 594 0008 0561     		str	r5, [r0, #16]
 595              	.LBB167:
 596              	.LBB168:
 597              	.LBB169:
 598              		.loc 2 604 0
 599 000a 0060     		str	r0, [r0]
 600              		.loc 2 605 0
 601 000c 4060     		str	r0, [r0, #4]
 602              	.LVL47:
 603              	.LBE169:
 604              	.LBE168:
 605              	.LBE167:
 606              		.loc 1 279 0
 607 000e 8260     		str	r2, [r0, #8]
 608              		.loc 1 280 0
 609 0010 C160     		str	r1, [r0, #12]
 610              		.loc 1 281 0
 611 0012 8161     		str	r1, [r0, #24]
 612              		.loc 1 282 0
 613 0014 4161     		str	r1, [r0, #20]
 614              		.loc 1 284 0
 615 0016 C361     		str	r3, [r0, #28]
 616              		.loc 1 286 0
 617 0018 30BC     		pop	{r4, r5}
 618              		.cfi_restore 5
 619              		.cfi_restore 4
 620              		.cfi_def_cfa_offset 0
 621              	.LVL48:
 622 001a 7047     		bx	lr
 623              		.cfi_endproc
 624              	.LFE224:
 625              		.size	chOQObjectInit, .-chOQObjectInit
 626              		.section	.text.chOQResetI,"ax",%progbits
 627              		.align	1
ARM GAS  /var/tmp//cckkXhHA.s 			page 12


 628              		.p2align 4,,15
 629              		.global	chOQResetI
 630              		.syntax unified
 631              		.thumb
 632              		.thumb_func
 633              		.fpu fpv4-sp-d16
 634              		.type	chOQResetI, %function
 635              	chOQResetI:
 636              	.LFB225:
 637              		.loc 1 299 0
 638              		.cfi_startproc
 639              		@ args = 0, pretend = 0, frame = 0
 640              		@ frame_needed = 0, uses_anonymous_args = 0
 641              		@ link register save eliminated.
 642              	.LVL49:
 643 0000 10B4     		push	{r4}
 644              		.cfi_def_cfa_offset 4
 645              		.cfi_offset 4, -4
 646              		.loc 1 305 0
 647 0002 0269     		ldr	r2, [r0, #16]
 648              		.loc 1 303 0
 649 0004 C468     		ldr	r4, [r0, #12]
 650 0006 8461     		str	r4, [r0, #24]
 651              		.loc 1 305 0
 652 0008 121B     		subs	r2, r2, r4
 653              		.loc 1 304 0
 654 000a 4461     		str	r4, [r0, #20]
 655              		.loc 1 306 0
 656 000c 6FF00101 		mvn	r1, #1
 657              		.loc 1 305 0
 658 0010 8260     		str	r2, [r0, #8]
 659              		.loc 1 307 0
 660 0012 5DF8044B 		ldr	r4, [sp], #4
 661              		.cfi_restore 4
 662              		.cfi_def_cfa_offset 0
 663              		.loc 1 306 0
 664 0016 FFF7FEBF 		b	chThdDequeueAllI
 665              	.LVL50:
 666              		.cfi_endproc
 667              	.LFE225:
 668              		.size	chOQResetI, .-chOQResetI
 669 001a 00BF     		.section	.text.chOQPutTimeout,"ax",%progbits
 670              		.align	1
 671              		.p2align 4,,15
 672              		.global	chOQPutTimeout
 673              		.syntax unified
 674              		.thumb
 675              		.thumb_func
 676              		.fpu fpv4-sp-d16
 677              		.type	chOQPutTimeout, %function
 678              	chOQPutTimeout:
 679              	.LFB226:
 680              		.loc 1 331 0
 681              		.cfi_startproc
 682              		@ args = 0, pretend = 0, frame = 0
 683              		@ frame_needed = 0, uses_anonymous_args = 0
 684              	.LVL51:
ARM GAS  /var/tmp//cckkXhHA.s 			page 13


 685 0000 F8B5     		push	{r3, r4, r5, r6, r7, lr}
 686              		.cfi_def_cfa_offset 24
 687              		.cfi_offset 3, -24
 688              		.cfi_offset 4, -20
 689              		.cfi_offset 5, -16
 690              		.cfi_offset 6, -12
 691              		.cfi_offset 7, -8
 692              		.cfi_offset 14, -4
 693              		.loc 1 331 0
 694 0002 0446     		mov	r4, r0
 695 0004 0F46     		mov	r7, r1
 696 0006 1646     		mov	r6, r2
 697              	.LBB170:
 698              	.LBB171:
 699              	.LBB172:
 700              	.LBB173:
 701              		.loc 4 546 0
 702 0008 2023     		movs	r3, #32
 703              		.syntax unified
 704              	@ 546 "ChibiOS_3.0.2/os/ext/CMSIS/include/core_cmFunc.h" 1
 705 000a 83F31188 		MSR basepri, r3
 706              	@ 0 "" 2
 707              	.LVL52:
 708              		.thumb
 709              		.syntax unified
 710 000e 03E0     		b	.L46
 711              	.LVL53:
 712              	.L48:
 713              	.LBE173:
 714              	.LBE172:
 715              	.LBE171:
 716              	.LBE170:
 717              	.LBB174:
 718              		.loc 1 335 0
 719 0010 FFF7FEFF 		bl	chThdEnqueueTimeoutS
 720              	.LVL54:
 721              		.loc 1 336 0
 722 0014 0028     		cmp	r0, #0
 723 0016 19DB     		blt	.L56
 724              	.LVL55:
 725              	.L46:
 726              	.LBE174:
 727              	.LBB180:
 728              	.LBB181:
 729              		.loc 3 407 0
 730 0018 A568     		ldr	r5, [r4, #8]
 731              	.LVL56:
 732              	.LBE181:
 733              	.LBE180:
 734              	.LBB182:
 735              		.loc 1 335 0
 736 001a 3146     		mov	r1, r6
 737 001c 2046     		mov	r0, r4
 738              	.LBE182:
 739              		.loc 1 334 0
 740 001e 002D     		cmp	r5, #0
 741 0020 F6D0     		beq	.L48
ARM GAS  /var/tmp//cckkXhHA.s 			page 14


 742              	.LVL57:
 743              		.loc 1 343 0
 744 0022 6269     		ldr	r2, [r4, #20]
 745              		.loc 1 342 0
 746 0024 A368     		ldr	r3, [r4, #8]
 747              		.loc 1 343 0
 748 0026 511C     		adds	r1, r2, #1
 749              	.LVL58:
 750              		.loc 1 342 0
 751 0028 013B     		subs	r3, r3, #1
 752              		.loc 1 343 0
 753 002a 6161     		str	r1, [r4, #20]
 754              		.loc 1 342 0
 755 002c A360     		str	r3, [r4, #8]
 756              		.loc 1 343 0
 757 002e 1770     		strb	r7, [r2]
 758              		.loc 1 344 0
 759 0030 2369     		ldr	r3, [r4, #16]
 760 0032 6269     		ldr	r2, [r4, #20]
 761 0034 9A42     		cmp	r2, r3
 762              		.loc 1 345 0
 763 0036 24BF     		itt	cs
 764 0038 E368     		ldrcs	r3, [r4, #12]
 765 003a 6361     		strcs	r3, [r4, #20]
 766              		.loc 1 348 0
 767 003c E369     		ldr	r3, [r4, #28]
 768 003e 0BB1     		cbz	r3, .L50
 769              		.loc 1 349 0
 770 0040 2046     		mov	r0, r4
 771              	.LVL59:
 772 0042 9847     		blx	r3
 773              	.LVL60:
 774              	.L50:
 775              	.LBB183:
 776              	.LBB184:
 777              	.LBB185:
 778              	.LBB186:
 779              	.LBB187:
 780              		.loc 4 546 0
 781 0044 0020     		movs	r0, #0
 782              		.syntax unified
 783              	@ 546 "ChibiOS_3.0.2/os/ext/CMSIS/include/core_cmFunc.h" 1
 784 0046 80F31188 		MSR basepri, r0
 785              	@ 0 "" 2
 786              	.LVL61:
 787              		.thumb
 788              		.syntax unified
 789              	.LBE187:
 790              	.LBE186:
 791              	.LBE185:
 792              	.LBE184:
 793              	.LBE183:
 794              		.loc 1 354 0
 795 004a F8BD     		pop	{r3, r4, r5, r6, r7, pc}
 796              	.LVL62:
 797              	.L56:
 798              	.LBB188:
ARM GAS  /var/tmp//cckkXhHA.s 			page 15


 799              	.LBB175:
 800              	.LBB176:
 801              	.LBB177:
 802              	.LBB178:
 803              	.LBB179:
 804              		.loc 4 546 0
 805              		.syntax unified
 806              	@ 546 "ChibiOS_3.0.2/os/ext/CMSIS/include/core_cmFunc.h" 1
 807 004c 85F31188 		MSR basepri, r5
 808              	@ 0 "" 2
 809              	.LVL63:
 810              		.thumb
 811              		.syntax unified
 812              	.LBE179:
 813              	.LBE178:
 814              	.LBE177:
 815              	.LBE176:
 816              	.LBE175:
 817              		.loc 1 338 0
 818 0050 F8BD     		pop	{r3, r4, r5, r6, r7, pc}
 819              	.LBE188:
 820              		.cfi_endproc
 821              	.LFE226:
 822              		.size	chOQPutTimeout, .-chOQPutTimeout
 823 0052 00BF     		.section	.text.chOQGetI,"ax",%progbits
 824              		.align	1
 825              		.p2align 4,,15
 826              		.global	chOQGetI
 827              		.syntax unified
 828              		.thumb
 829              		.thumb_func
 830              		.fpu fpv4-sp-d16
 831              		.type	chOQGetI, %function
 832              	chOQGetI:
 833              	.LFB227:
 834              		.loc 1 366 0
 835              		.cfi_startproc
 836              		@ args = 0, pretend = 0, frame = 0
 837              		@ frame_needed = 0, uses_anonymous_args = 0
 838              	.LVL64:
 839 0000 38B5     		push	{r3, r4, r5, lr}
 840              		.cfi_def_cfa_offset 16
 841              		.cfi_offset 3, -16
 842              		.cfi_offset 4, -12
 843              		.cfi_offset 5, -8
 844              		.cfi_offset 14, -4
 845              	.LBB189:
 846              	.LBB190:
 847              		.loc 3 390 0
 848 0002 4269     		ldr	r2, [r0, #20]
 849 0004 8369     		ldr	r3, [r0, #24]
 850 0006 9A42     		cmp	r2, r3
 851 0008 0FD0     		beq	.L64
 852              	.L58:
 853              	.LVL65:
 854              	.LBE190:
 855              	.LBE189:
ARM GAS  /var/tmp//cckkXhHA.s 			page 16


 856              		.loc 1 375 0
 857 000a 8268     		ldr	r2, [r0, #8]
 858              		.loc 1 377 0
 859 000c 0569     		ldr	r5, [r0, #16]
 860              		.loc 1 376 0
 861 000e 591C     		adds	r1, r3, #1
 862              		.loc 1 375 0
 863 0010 0132     		adds	r2, r2, #1
 864 0012 8260     		str	r2, [r0, #8]
 865              		.loc 1 376 0
 866 0014 8161     		str	r1, [r0, #24]
 867              		.loc 1 377 0
 868 0016 A942     		cmp	r1, r5
 869              		.loc 1 376 0
 870 0018 1C78     		ldrb	r4, [r3]	@ zero_extendqisi2
 871              	.LVL66:
 872              		.loc 1 377 0
 873 001a 01D3     		bcc	.L61
 874              		.loc 1 378 0
 875 001c C368     		ldr	r3, [r0, #12]
 876 001e 8361     		str	r3, [r0, #24]
 877              	.L61:
 878              		.loc 1 381 0
 879 0020 0021     		movs	r1, #0
 880 0022 FFF7FEFF 		bl	chThdDequeueNextI
 881              	.LVL67:
 882              		.loc 1 383 0
 883 0026 2046     		mov	r0, r4
 884 0028 38BD     		pop	{r3, r4, r5, pc}
 885              	.LVL68:
 886              	.L64:
 887              	.LBB192:
 888              	.LBB191:
 889              		.loc 3 390 0
 890 002a 8268     		ldr	r2, [r0, #8]
 891 002c 002A     		cmp	r2, #0
 892 002e ECD0     		beq	.L58
 893              	.LBE191:
 894              	.LBE192:
 895              		.loc 1 372 0
 896 0030 6FF00200 		mvn	r0, #2
 897              	.LVL69:
 898 0034 38BD     		pop	{r3, r4, r5, pc}
 899              		.cfi_endproc
 900              	.LFE227:
 901              		.size	chOQGetI, .-chOQGetI
 902 0036 00BF     		.section	.text.chOQWriteTimeout,"ax",%progbits
 903              		.align	1
 904              		.p2align 4,,15
 905              		.global	chOQWriteTimeout
 906              		.syntax unified
 907              		.thumb
 908              		.thumb_func
 909              		.fpu fpv4-sp-d16
 910              		.type	chOQWriteTimeout, %function
 911              	chOQWriteTimeout:
 912              	.LFB228:
ARM GAS  /var/tmp//cckkXhHA.s 			page 17


 913              		.loc 1 411 0
 914              		.cfi_startproc
 915              		@ args = 0, pretend = 0, frame = 8
 916              		@ frame_needed = 0, uses_anonymous_args = 0
 917              	.LVL70:
 918 0000 2DE9F04F 		push	{r4, r5, r6, r7, r8, r9, r10, fp, lr}
 919              		.cfi_def_cfa_offset 36
 920              		.cfi_offset 4, -36
 921              		.cfi_offset 5, -32
 922              		.cfi_offset 6, -28
 923              		.cfi_offset 7, -24
 924              		.cfi_offset 8, -20
 925              		.cfi_offset 9, -16
 926              		.cfi_offset 10, -12
 927              		.cfi_offset 11, -8
 928              		.cfi_offset 14, -4
 929 0004 83B0     		sub	sp, sp, #12
 930              		.cfi_def_cfa_offset 48
 931              		.loc 1 411 0
 932 0006 0446     		mov	r4, r0
 933 0008 0D46     		mov	r5, r1
 934 000a 1646     		mov	r6, r2
 935 000c 0193     		str	r3, [sp, #4]
 936              		.loc 1 412 0
 937 000e D0F81C80 		ldr	r8, [r0, #28]
 938              	.LVL71:
 939              	.LBB193:
 940              	.LBB194:
 941              	.LBB195:
 942              	.LBB196:
 943              		.loc 4 546 0
 944 0012 4FF02009 		mov	r9, #32
 945              		.syntax unified
 946              	@ 546 "ChibiOS_3.0.2/os/ext/CMSIS/include/core_cmFunc.h" 1
 947 0016 89F31188 		MSR basepri, r9
 948              	@ 0 "" 2
 949              	.LVL72:
 950              		.thumb
 951              		.syntax unified
 952              	.LBE196:
 953              	.LBE195:
 954              	.LBE194:
 955              	.LBE193:
 956              		.loc 1 413 0
 957 001a 0027     		movs	r7, #0
 958              	.LBB197:
 959              	.LBB198:
 960              	.LBB199:
 961              	.LBB200:
 962              	.LBB201:
 963              		.loc 4 546 0
 964 001c BA46     		mov	r10, r7
 965              	.LVL73:
 966              	.L66:
 967              	.LBE201:
 968              	.LBE200:
 969              	.LBE199:
ARM GAS  /var/tmp//cckkXhHA.s 			page 18


 970              	.LBE198:
 971              	.LBE197:
 972              	.LBB206:
 973              	.LBB207:
 974              		.loc 3 407 0
 975 001e A368     		ldr	r3, [r4, #8]
 976              	.LVL74:
 977              	.LBE207:
 978              	.LBE206:
 979              		.loc 1 427 0
 980 0020 05F1010B 		add	fp, r5, #1
 981              	.LVL75:
 982              		.loc 1 433 0
 983 0024 2046     		mov	r0, r4
 984              		.loc 1 419 0
 985 0026 03B3     		cbz	r3, .L69
 986              	.LVL76:
 987              	.L82:
 988              		.loc 1 427 0
 989 0028 6169     		ldr	r1, [r4, #20]
 990              		.loc 1 426 0
 991 002a A368     		ldr	r3, [r4, #8]
 992              		.loc 1 427 0
 993 002c 4A1C     		adds	r2, r1, #1
 994              		.loc 1 426 0
 995 002e 013B     		subs	r3, r3, #1
 996              		.loc 1 427 0
 997 0030 6261     		str	r2, [r4, #20]
 998              		.loc 1 426 0
 999 0032 A360     		str	r3, [r4, #8]
 1000              		.loc 1 427 0
 1001 0034 2B78     		ldrb	r3, [r5]	@ zero_extendqisi2
 1002 0036 0B70     		strb	r3, [r1]
 1003              		.loc 1 428 0
 1004 0038 2369     		ldr	r3, [r4, #16]
 1005 003a 6169     		ldr	r1, [r4, #20]
 1006 003c 9942     		cmp	r1, r3
 1007              		.loc 1 429 0
 1008 003e 24BF     		itt	cs
 1009 0040 E368     		ldrcs	r3, [r4, #12]
 1010 0042 6361     		strcs	r3, [r4, #20]
 1011              		.loc 1 432 0
 1012 0044 B8F1000F 		cmp	r8, #0
 1013 0048 00D0     		beq	.L71
 1014              		.loc 1 433 0
 1015 004a C047     		blx	r8
 1016              	.LVL77:
 1017              	.L71:
 1018              	.LBB209:
 1019              	.LBB205:
 1020              	.LBB204:
 1021              	.LBB203:
 1022              	.LBB202:
 1023              		.loc 4 546 0
 1024              		.syntax unified
 1025              	@ 546 "ChibiOS_3.0.2/os/ext/CMSIS/include/core_cmFunc.h" 1
 1026 004c 8AF31188 		MSR basepri, r10
ARM GAS  /var/tmp//cckkXhHA.s 			page 19


 1027              	@ 0 "" 2
 1028              	.LVL78:
 1029              		.thumb
 1030              		.syntax unified
 1031              	.LBE202:
 1032              	.LBE203:
 1033              	.LBE204:
 1034              	.LBE205:
 1035              	.LBE209:
 1036              		.loc 1 438 0
 1037 0050 013E     		subs	r6, r6, #1
 1038              	.LVL79:
 1039              		.loc 1 437 0
 1040 0052 07F10107 		add	r7, r7, #1
 1041              	.LVL80:
 1042              		.loc 1 438 0
 1043 0056 12D0     		beq	.L65
 1044              	.LBB210:
 1045              	.LBB211:
 1046              	.LBB212:
 1047              	.LBB213:
 1048              		.loc 4 546 0
 1049              		.syntax unified
 1050              	@ 546 "ChibiOS_3.0.2/os/ext/CMSIS/include/core_cmFunc.h" 1
 1051 0058 89F31188 		MSR basepri, r9
 1052              	@ 0 "" 2
 1053              	.LVL81:
 1054              		.thumb
 1055              		.syntax unified
 1056              	.LBE213:
 1057              	.LBE212:
 1058              	.LBE211:
 1059              	.LBE210:
 1060              	.LBB214:
 1061              	.LBB208:
 1062              		.loc 3 407 0
 1063 005c A368     		ldr	r3, [r4, #8]
 1064              	.LBE208:
 1065              	.LBE214:
 1066              		.loc 1 427 0
 1067 005e 5D46     		mov	r5, fp
 1068              	.LVL82:
 1069 0060 05F1010B 		add	fp, r5, #1
 1070              	.LVL83:
 1071              		.loc 1 433 0
 1072 0064 2046     		mov	r0, r4
 1073              		.loc 1 419 0
 1074 0066 002B     		cmp	r3, #0
 1075 0068 DED1     		bne	.L82
 1076              	.LVL84:
 1077              	.L69:
 1078              		.loc 1 420 0
 1079 006a 0199     		ldr	r1, [sp, #4]
 1080 006c 0093     		str	r3, [sp]
 1081 006e 2046     		mov	r0, r4
 1082              	.LVL85:
 1083 0070 FFF7FEFF 		bl	chThdEnqueueTimeoutS
ARM GAS  /var/tmp//cckkXhHA.s 			page 20


 1084              	.LVL86:
 1085 0074 009B     		ldr	r3, [sp]
 1086 0076 0028     		cmp	r0, #0
 1087 0078 D1D0     		beq	.L66
 1088              	.LVL87:
 1089              	.LBB215:
 1090              	.LBB216:
 1091              	.LBB217:
 1092              	.LBB218:
 1093              	.LBB219:
 1094              		.loc 4 546 0
 1095              		.syntax unified
 1096              	@ 546 "ChibiOS_3.0.2/os/ext/CMSIS/include/core_cmFunc.h" 1
 1097 007a 83F31188 		MSR basepri, r3
 1098              	@ 0 "" 2
 1099              	.LVL88:
 1100              		.thumb
 1101              		.syntax unified
 1102              	.L65:
 1103              	.LBE219:
 1104              	.LBE218:
 1105              	.LBE217:
 1106              	.LBE216:
 1107              	.LBE215:
 1108              		.loc 1 443 0
 1109 007e 3846     		mov	r0, r7
 1110 0080 03B0     		add	sp, sp, #12
 1111              		.cfi_def_cfa_offset 36
 1112              		@ sp needed
 1113 0082 BDE8F08F 		pop	{r4, r5, r6, r7, r8, r9, r10, fp, pc}
 1114              		.cfi_endproc
 1115              	.LFE228:
 1116              		.size	chOQWriteTimeout, .-chOQWriteTimeout
 1117 0086 00BF     		.text
 1118              	.Letext0:
 1119              		.file 5 "/usr/local/gcc_arm/gcc-arm-none-eabi-6-2017-q2-update/lib/gcc/arm-none-eabi/6.3.1/include
 1120              		.file 6 "/usr/local/gcc_arm/gcc-arm-none-eabi-6-2017-q2-update/arm-none-eabi/include/machine/_defa
 1121              		.file 7 "/usr/local/gcc_arm/gcc-arm-none-eabi-6-2017-q2-update/arm-none-eabi/include/sys/_stdint.h
 1122              		.file 8 "ChibiOS_3.0.2/os/rt/ports/ARMCMx/compilers/GCC/chtypes.h"
 1123              		.file 9 "ChibiOS_3.0.2/os/rt/include/chsystypes.h"
 1124              		.file 10 "ChibiOS_3.0.2/os/ext/CMSIS/include/core_cm4.h"
 1125              		.file 11 "ChibiOS_3.0.2/os/ext/CMSIS/ST/system_stm32f4xx.h"
 1126              		.file 12 "ChibiOS_3.0.2/os/rt/ports/ARMCMx/chcore.h"
 1127              		.file 13 "ChibiOS_3.0.2/os/rt/ports/ARMCMx/chcore_v7m.h"
 1128              		.file 14 "ChibiOS_3.0.2/os/rt/include/chtm.h"
 1129              		.file 15 "ChibiOS_3.0.2/os/rt/include/chsem.h"
 1130              		.file 16 "ChibiOS_3.0.2/os/rt/include/chmtx.h"
 1131              		.file 17 "ChibiOS_3.0.2/os/rt/include/chregistry.h"
 1132              		.file 18 "ChibiOS_3.0.2/os/rt/include/chsys.h"
 1133              		.file 19 "ChibiOS_3.0.2/os/rt/include/chthreads.h"