ARM GAS  /var/tmp//cco8lMvz.s 			page 1


   1              		.cpu cortex-m4
   2              		.eabi_attribute 27, 1
   3              		.eabi_attribute 28, 1
   4              		.eabi_attribute 20, 1
   5              		.eabi_attribute 21, 1
   6              		.eabi_attribute 23, 3
   7              		.eabi_attribute 24, 1
   8              		.eabi_attribute 25, 1
   9              		.eabi_attribute 26, 1
  10              		.eabi_attribute 30, 2
  11              		.eabi_attribute 34, 1
  12              		.eabi_attribute 18, 4
  13              		.file	"chsys.c"
  14              		.text
  15              	.Ltext0:
  16              		.cfi_sections	.debug_frame
  17              		.section	.text._idle_thread,"ax",%progbits
  18              		.align	1
  19              		.p2align 4,,15
  20              		.syntax unified
  21              		.thumb
  22              		.thumb_func
  23              		.fpu fpv4-sp-d16
  24              		.type	_idle_thread, %function
  25              	_idle_thread:
  26              	.LFB219:
  27              		.file 1 "ChibiOS_3.0.2/os/rt/src/chsys.c"
  28              		.loc 1 65 0
  29              		.cfi_startproc
  30              		@ Volatile: function does not return.
  31              		@ args = 0, pretend = 0, frame = 0
  32              		@ frame_needed = 0, uses_anonymous_args = 0
  33              		@ link register save eliminated.
  34              	.LVL0:
  35              	.L2:
  36 0000 FEE7     		b	.L2
  37              		.cfi_endproc
  38              	.LFE219:
  39              		.size	_idle_thread, .-_idle_thread
  40 0002 00BF     		.section	.text.chSysInit,"ax",%progbits
  41              		.align	1
  42              		.p2align 4,,15
  43              		.global	chSysInit
  44              		.syntax unified
  45              		.thumb
  46              		.thumb_func
  47              		.fpu fpv4-sp-d16
  48              		.type	chSysInit, %function
  49              	chSysInit:
  50              	.LFB220:
  51              		.loc 1 93 0
  52              		.cfi_startproc
  53              		@ args = 0, pretend = 0, frame = 0
  54              		@ frame_needed = 0, uses_anonymous_args = 0
  55              	.LBB137:
  56              	.LBB138:
  57              		.file 2 "ChibiOS_3.0.2/os/rt/ports/ARMCMx/chcore_v7m.h"
ARM GAS  /var/tmp//cco8lMvz.s 			page 2


  58              		.loc 2 377 0
  59 0000 204B     		ldr	r3, .L5
  60              	.LBB139:
  61              	.LBB140:
  62              		.file 3 "ChibiOS_3.0.2/os/ext/CMSIS/include/core_cm4.h"
  63              		.loc 3 1442 0
  64 0002 214A     		ldr	r2, .L5+4
  65              	.LBE140:
  66              	.LBE139:
  67              		.loc 2 384 0
  68 0004 2148     		ldr	r0, .L5+8
  69              	.LBE138:
  70              	.LBE137:
  71              		.loc 1 93 0
  72 0006 F0B5     		push	{r4, r5, r6, r7, lr}
  73              		.cfi_def_cfa_offset 20
  74              		.cfi_offset 4, -20
  75              		.cfi_offset 5, -16
  76              		.cfi_offset 6, -12
  77              		.cfi_offset 7, -8
  78              		.cfi_offset 14, -4
  79              	.LBB156:
  80              	.LBB153:
  81              		.loc 2 377 0
  82 0008 0024     		movs	r4, #0
  83 000a 9C60     		str	r4, [r3, #8]
  84              	.LVL1:
  85              	.LBB143:
  86              	.LBB141:
  87              		.loc 3 1440 0
  88 000c D968     		ldr	r1, [r3, #12]
  89              	.LVL2:
  90              	.LBE141:
  91              	.LBE143:
  92              		.loc 2 383 0
  93 000e 204E     		ldr	r6, .L5+12
  94              	.LBE153:
  95              	.LBE156:
  96              		.loc 1 119 0
  97 0010 204D     		ldr	r5, .L5+16
  98              	.LBB157:
  99              	.LBB154:
 100              	.LBB144:
 101              	.LBB142:
 102              		.loc 3 1441 0
 103 0012 4FF6FF07 		movw	r7, #63743
 104 0016 3940     		ands	r1, r1, r7
 105              	.LVL3:
 106              		.loc 3 1442 0
 107 0018 0A43     		orrs	r2, r2, r1
 108              	.LVL4:
 109              		.loc 3 1445 0
 110 001a DA60     		str	r2, [r3, #12]
 111              	.LVL5:
 112              	.LBE142:
 113              	.LBE144:
 114              		.loc 2 383 0
ARM GAS  /var/tmp//cco8lMvz.s 			page 3


 115 001c F268     		ldr	r2, [r6, #12]
 116 001e 42F08072 		orr	r2, r2, #16777216
 117 0022 F260     		str	r2, [r6, #12]
 118              		.loc 2 384 0
 119 0024 0268     		ldr	r2, [r0]
 120              	.LBB145:
 121              	.LBB146:
 122              		.loc 3 1553 0
 123 0026 2021     		movs	r1, #32
 124              	.LBE146:
 125              	.LBE145:
 126              		.loc 2 384 0
 127 0028 42F00102 		orr	r2, r2, #1
 128              	.LBB148:
 129              	.LBB149:
 130              		.loc 3 1553 0
 131 002c 1026     		movs	r6, #16
 132              	.LBE149:
 133              	.LBE148:
 134              		.loc 2 384 0
 135 002e 0260     		str	r2, [r0]
 136              	.LVL6:
 137              	.LBE154:
 138              	.LBE157:
 139              		.loc 1 93 0
 140 0030 83B0     		sub	sp, sp, #12
 141              		.cfi_def_cfa_offset 32
 142              	.LBB158:
 143              	.LBB155:
 144              	.LBB151:
 145              	.LBB150:
 146              		.loc 3 1553 0
 147 0032 DE77     		strb	r6, [r3, #31]
 148              	.LVL7:
 149              	.LBE150:
 150              	.LBE151:
 151              	.LBB152:
 152              	.LBB147:
 153 0034 83F82210 		strb	r1, [r3, #34]
 154              	.LVL8:
 155              	.LBE147:
 156              	.LBE152:
 157              	.LBE155:
 158              	.LBE158:
 159              		.loc 1 99 0
 160 0038 FFF7FEFF 		bl	_scheduler_init
 161              	.LVL9:
 162              		.loc 1 100 0
 163 003c FFF7FEFF 		bl	_vt_init
 164              	.LVL10:
 165              		.loc 1 102 0
 166 0040 FFF7FEFF 		bl	_tm_init
 167              	.LVL11:
 168              		.loc 1 105 0
 169 0044 FFF7FEFF 		bl	_core_init
 170              	.LVL12:
 171              		.loc 1 108 0
ARM GAS  /var/tmp//cco8lMvz.s 			page 4


 172 0048 FFF7FEFF 		bl	_heap_init
 173              	.LVL13:
 174              		.loc 1 119 0
 175 004c 2846     		mov	r0, r5
 176 004e 4021     		movs	r1, #64
 177 0050 FFF7FEFF 		bl	_thread_init
 178              	.LVL14:
 179 0054 A5F13003 		sub	r3, r5, #48
 180              		.loc 1 125 0
 181 0058 0122     		movs	r2, #1
 182              		.loc 1 119 0
 183 005a 9861     		str	r0, [r3, #24]
 184              		.loc 1 125 0
 185 005c 0277     		strb	r2, [r0, #28]
 186              	.LVL15:
 187              	.LBB159:
 188              	.LBB160:
 189              	.LBB161:
 190              	.LBB162:
 191              		.file 4 "ChibiOS_3.0.2/os/ext/CMSIS/include/core_cmFunc.h"
 192              		.loc 4 546 0
 193              		.syntax unified
 194              	@ 546 "ChibiOS_3.0.2/os/ext/CMSIS/include/core_cmFunc.h" 1
 195 005e 84F31188 		MSR basepri, r4
 196              	@ 0 "" 2
 197              	.LVL16:
 198              		.thumb
 199              		.syntax unified
 200              	.LBE162:
 201              	.LBE161:
 202              	.LBB163:
 203              	.LBB164:
 204              		.loc 4 331 0
 205              		.syntax unified
 206              	@ 331 "ChibiOS_3.0.2/os/ext/CMSIS/include/core_cmFunc.h" 1
 207 0062 62B6     		cpsie i
 208              	@ 0 "" 2
 209              	.LVL17:
 210              		.thumb
 211              		.syntax unified
 212              	.LBE164:
 213              	.LBE163:
 214              	.LBE160:
 215              	.LBE159:
 216              	.LBB165:
 217              	.LBB166:
 218              		.file 5 "ChibiOS_3.0.2/os/rt/include/chregistry.h"
 219              		.loc 5 135 0
 220 0064 9B69     		ldr	r3, [r3, #24]
 221 0066 0C49     		ldr	r1, .L5+20
 222 0068 9961     		str	r1, [r3, #24]
 223              	.LVL18:
 224              	.LBE166:
 225              	.LBE165:
 226              	.LBB167:
 227              		.loc 1 144 0
 228 006a 05F15000 		add	r0, r5, #80
ARM GAS  /var/tmp//cco8lMvz.s 			page 5


 229 006e 0094     		str	r4, [sp]
 230 0070 0A4B     		ldr	r3, .L5+24
 231 0072 4FF4EC71 		mov	r1, #472
 232 0076 FFF7FEFF 		bl	chThdCreateStatic
 233              	.LVL19:
 234              	.LBB168:
 235              	.LBB169:
 236              		.loc 5 175 0
 237 007a 094B     		ldr	r3, .L5+28
 238 007c 8361     		str	r3, [r0, #24]
 239              	.LVL20:
 240              	.LBE169:
 241              	.LBE168:
 242              	.LBE167:
 243              		.loc 1 152 0
 244 007e 03B0     		add	sp, sp, #12
 245              		.cfi_def_cfa_offset 20
 246              		@ sp needed
 247 0080 F0BD     		pop	{r4, r5, r6, r7, pc}
 248              	.L6:
 249 0082 00BF     		.align	2
 250              	.L5:
 251 0084 00ED00E0 		.word	-536810240
 252 0088 0003FA05 		.word	100270848
 253 008c 001000E0 		.word	-536866816
 254 0090 F0ED00E0 		.word	-536810000
 255 0094 30000000 		.word	ch+48
 256 0098 00000000 		.word	ch_debug
 257 009c 00000000 		.word	_idle_thread
 258 00a0 00000000 		.word	.LC0
 259              		.cfi_endproc
 260              	.LFE220:
 261              		.size	chSysInit, .-chSysInit
 262              		.section	.text.chSysHalt,"ax",%progbits
 263              		.align	1
 264              		.p2align 4,,15
 265              		.global	chSysHalt
 266              		.syntax unified
 267              		.thumb
 268              		.thumb_func
 269              		.fpu fpv4-sp-d16
 270              		.type	chSysHalt, %function
 271              	chSysHalt:
 272              	.LFB221:
 273              		.loc 1 166 0
 274              		.cfi_startproc
 275              		@ Volatile: function does not return.
 276              		@ args = 0, pretend = 0, frame = 0
 277              		@ frame_needed = 0, uses_anonymous_args = 0
 278              		@ link register save eliminated.
 279              	.LVL21:
 280              	.LBB170:
 281              	.LBB171:
 282              	.LBB172:
 283              		.loc 4 342 0
 284              		.syntax unified
 285              	@ 342 "ChibiOS_3.0.2/os/ext/CMSIS/include/core_cmFunc.h" 1
ARM GAS  /var/tmp//cco8lMvz.s 			page 6


 286 0000 72B6     		cpsid i
 287              	@ 0 "" 2
 288              		.thumb
 289              		.syntax unified
 290              	.LBE172:
 291              	.LBE171:
 292              	.LBE170:
 293              		.loc 1 175 0
 294 0002 014B     		ldr	r3, .L10
 295 0004 D862     		str	r0, [r3, #44]
 296              	.L8:
 297 0006 FEE7     		b	.L8
 298              	.L11:
 299              		.align	2
 300              	.L10:
 301 0008 00000000 		.word	ch
 302              		.cfi_endproc
 303              	.LFE221:
 304              		.size	chSysHalt, .-chSysHalt
 305              		.section	.text.chSysIntegrityCheckI,"ax",%progbits
 306              		.align	1
 307              		.p2align 4,,15
 308              		.global	chSysIntegrityCheckI
 309              		.syntax unified
 310              		.thumb
 311              		.thumb_func
 312              		.fpu fpv4-sp-d16
 313              		.type	chSysIntegrityCheckI, %function
 314              	chSysIntegrityCheckI:
 315              	.LFB222:
 316              		.loc 1 206 0
 317              		.cfi_startproc
 318              		@ args = 0, pretend = 0, frame = 0
 319              		@ frame_needed = 0, uses_anonymous_args = 0
 320              		@ link register save eliminated.
 321              	.LVL22:
 322              		.loc 1 212 0
 323 0000 C207     		lsls	r2, r0, #31
 324              		.loc 1 206 0
 325 0002 10B4     		push	{r4}
 326              		.cfi_def_cfa_offset 4
 327              		.cfi_offset 4, -4
 328              		.loc 1 212 0
 329 0004 12D5     		bpl	.L13
 330              	.LVL23:
 331              	.LBB173:
 332              		.loc 1 217 0
 333 0006 2D4A     		ldr	r2, .L51
 334 0008 1168     		ldr	r1, [r2]
 335              	.LVL24:
 336              		.loc 1 218 0
 337 000a 9142     		cmp	r1, r2
 338 000c 44D0     		beq	.L14
 339 000e 0023     		movs	r3, #0
 340              	.LVL25:
 341              	.L15:
 342              		.loc 1 220 0
ARM GAS  /var/tmp//cco8lMvz.s 			page 7


 343 0010 0968     		ldr	r1, [r1]
 344              	.LVL26:
 345              		.loc 1 218 0
 346 0012 9142     		cmp	r1, r2
 347              		.loc 1 219 0
 348 0014 03F10103 		add	r3, r3, #1
 349              	.LVL27:
 350              		.loc 1 218 0
 351 0018 FAD1     		bne	.L15
 352              		.loc 1 224 0
 353 001a 4C68     		ldr	r4, [r1, #4]
 354              	.LVL28:
 355              		.loc 1 225 0
 356 001c 8C42     		cmp	r4, r1
 357 001e 37D0     		beq	.L33
 358              	.LVL29:
 359              	.L17:
 360              		.loc 1 227 0
 361 0020 6468     		ldr	r4, [r4, #4]
 362              	.LVL30:
 363              		.loc 1 225 0
 364 0022 9442     		cmp	r4, r2
 365              		.loc 1 226 0
 366 0024 03F1FF33 		add	r3, r3, #-1
 367              	.LVL31:
 368              		.loc 1 225 0
 369 0028 FAD1     		bne	.L17
 370              		.loc 1 231 0
 371 002a 8BBB     		cbnz	r3, .L33
 372              	.LVL32:
 373              	.L13:
 374              	.LBE173:
 375              		.loc 1 237 0
 376 002c 8307     		lsls	r3, r0, #30
 377 002e 14D5     		bpl	.L18
 378              	.LVL33:
 379              	.LBB174:
 380              		.loc 1 242 0
 381 0030 224A     		ldr	r2, .L51
 382 0032 1446     		mov	r4, r2
 383 0034 54F81C1F 		ldr	r1, [r4, #28]!
 384              	.LVL34:
 385              		.loc 1 243 0
 386 0038 A142     		cmp	r1, r4
 387 003a 33D0     		beq	.L19
 388 003c 0023     		movs	r3, #0
 389              	.LVL35:
 390              	.L20:
 391              		.loc 1 245 0
 392 003e 0968     		ldr	r1, [r1]
 393              	.LVL36:
 394              		.loc 1 243 0
 395 0040 A142     		cmp	r1, r4
 396              		.loc 1 244 0
 397 0042 03F10103 		add	r3, r3, #1
 398              	.LVL37:
 399              		.loc 1 243 0
ARM GAS  /var/tmp//cco8lMvz.s 			page 8


 400 0046 FAD1     		bne	.L20
 401              		.loc 1 249 0
 402 0048 126A     		ldr	r2, [r2, #32]
 403              	.LVL38:
 404              		.loc 1 250 0
 405 004a 8A42     		cmp	r2, r1
 406 004c 20D0     		beq	.L33
 407              	.LVL39:
 408              	.L21:
 409              		.loc 1 252 0
 410 004e 5268     		ldr	r2, [r2, #4]
 411              	.LVL40:
 412              		.loc 1 250 0
 413 0050 A242     		cmp	r2, r4
 414              		.loc 1 251 0
 415 0052 03F1FF33 		add	r3, r3, #-1
 416              	.LVL41:
 417              		.loc 1 250 0
 418 0056 FAD1     		bne	.L21
 419              		.loc 1 256 0
 420 0058 D3B9     		cbnz	r3, .L33
 421              	.LVL42:
 422              	.L18:
 423              	.LBE174:
 424              		.loc 1 262 0
 425 005a 10F00400 		ands	r0, r0, #4
 426              	.LVL43:
 427 005e 14D0     		beq	.L49
 428              	.LVL44:
 429              	.LBB175:
 430              		.loc 1 267 0
 431 0060 164A     		ldr	r2, .L51
 432 0062 1369     		ldr	r3, [r2, #16]
 433              	.LVL45:
 434              		.loc 1 268 0
 435 0064 9342     		cmp	r3, r2
 436 0066 23D0     		beq	.L22
 437 0068 0020     		movs	r0, #0
 438              	.LVL46:
 439              	.L23:
 440              		.loc 1 270 0
 441 006a 1B69     		ldr	r3, [r3, #16]
 442              	.LVL47:
 443              		.loc 1 268 0
 444 006c 9342     		cmp	r3, r2
 445              		.loc 1 269 0
 446 006e 00F10100 		add	r0, r0, #1
 447              	.LVL48:
 448              		.loc 1 268 0
 449 0072 FAD1     		bne	.L23
 450              		.loc 1 274 0
 451 0074 5969     		ldr	r1, [r3, #20]
 452              	.LVL49:
 453              		.loc 1 275 0
 454 0076 9942     		cmp	r1, r3
 455 0078 0AD0     		beq	.L33
 456              	.LVL50:
ARM GAS  /var/tmp//cco8lMvz.s 			page 9


 457              	.L24:
 458              		.loc 1 277 0
 459 007a 4969     		ldr	r1, [r1, #20]
 460              	.LVL51:
 461              		.loc 1 275 0
 462 007c 9142     		cmp	r1, r2
 463              		.loc 1 276 0
 464 007e 00F1FF30 		add	r0, r0, #-1
 465              	.LVL52:
 466              		.loc 1 275 0
 467 0082 FAD1     		bne	.L24
 468              		.loc 1 281 0
 469 0084 0030     		adds	r0, r0, #0
 470 0086 18BF     		it	ne
 471 0088 0120     		movne	r0, #1
 472              	.LVL53:
 473              	.L49:
 474              	.LBE175:
 475              		.loc 1 294 0
 476 008a 5DF8044B 		ldr	r4, [sp], #4
 477              		.cfi_remember_state
 478              		.cfi_restore 4
 479              		.cfi_def_cfa_offset 0
 480 008e 7047     		bx	lr
 481              	.L33:
 482              		.cfi_restore_state
 483              	.LBB176:
 484              		.loc 1 232 0
 485 0090 0120     		movs	r0, #1
 486              	.LBE176:
 487              		.loc 1 294 0
 488 0092 5DF8044B 		ldr	r4, [sp], #4
 489              		.cfi_remember_state
 490              		.cfi_restore 4
 491              		.cfi_def_cfa_offset 0
 492 0096 7047     		bx	lr
 493              	.LVL54:
 494              	.L14:
 495              		.cfi_restore_state
 496              	.LBB177:
 497              		.loc 1 224 0
 498 0098 5468     		ldr	r4, [r2, #4]
 499              	.LVL55:
 500              		.loc 1 225 0
 501 009a 9442     		cmp	r4, r2
 502              		.loc 1 216 0
 503 009c 18BF     		it	ne
 504 009e 0023     		movne	r3, #0
 505              		.loc 1 225 0
 506 00a0 BED1     		bne	.L17
 507 00a2 C3E7     		b	.L13
 508              	.LVL56:
 509              	.L19:
 510              	.LBE177:
 511              	.LBB178:
 512              		.loc 1 249 0
 513 00a4 126A     		ldr	r2, [r2, #32]
ARM GAS  /var/tmp//cco8lMvz.s 			page 10


 514              	.LVL57:
 515              		.loc 1 250 0
 516 00a6 A242     		cmp	r2, r4
 517              		.loc 1 241 0
 518 00a8 18BF     		it	ne
 519 00aa 0023     		movne	r3, #0
 520              		.loc 1 250 0
 521 00ac CFD1     		bne	.L21
 522 00ae D4E7     		b	.L18
 523              	.LVL58:
 524              	.L22:
 525              	.LBE178:
 526              	.LBB179:
 527              		.loc 1 274 0
 528 00b0 5969     		ldr	r1, [r3, #20]
 529              	.LVL59:
 530              		.loc 1 275 0
 531 00b2 9942     		cmp	r1, r3
 532              		.loc 1 266 0
 533 00b4 4FF00000 		mov	r0, #0
 534              		.loc 1 275 0
 535 00b8 DFD1     		bne	.L24
 536 00ba E6E7     		b	.L49
 537              	.L52:
 538              		.align	2
 539              	.L51:
 540 00bc 00000000 		.word	ch
 541              	.LBE179:
 542              		.cfi_endproc
 543              	.LFE222:
 544              		.size	chSysIntegrityCheckI, .-chSysIntegrityCheckI
 545              		.section	.text.chSysTimerHandlerI,"ax",%progbits
 546              		.align	1
 547              		.p2align 4,,15
 548              		.global	chSysTimerHandlerI
 549              		.syntax unified
 550              		.thumb
 551              		.thumb_func
 552              		.fpu fpv4-sp-d16
 553              		.type	chSysTimerHandlerI, %function
 554              	chSysTimerHandlerI:
 555              	.LFB223:
 556              		.loc 1 307 0
 557              		.cfi_startproc
 558              		@ args = 0, pretend = 0, frame = 0
 559              		@ frame_needed = 0, uses_anonymous_args = 0
 560 0000 F8B5     		push	{r3, r4, r5, r6, r7, lr}
 561              		.cfi_def_cfa_offset 24
 562              		.cfi_offset 3, -24
 563              		.cfi_offset 4, -20
 564              		.cfi_offset 5, -16
 565              		.cfi_offset 6, -12
 566              		.cfi_offset 7, -8
 567              		.cfi_offset 14, -4
 568              		.loc 1 313 0
 569 0002 134D     		ldr	r5, .L64
 570 0004 AA69     		ldr	r2, [r5, #24]
ARM GAS  /var/tmp//cco8lMvz.s 			page 11


 571 0006 D37F     		ldrb	r3, [r2, #31]	@ zero_extendqisi2
 572 0008 0BB1     		cbz	r3, .L54
 573              		.loc 1 315 0
 574 000a 013B     		subs	r3, r3, #1
 575 000c D377     		strb	r3, [r2, #31]
 576              	.L54:
 577              		.loc 1 319 0
 578 000e 116A     		ldr	r1, [r2, #32]
 579              	.LBB193:
 580              	.LBB194:
 581              		.file 6 "ChibiOS_3.0.2/os/rt/include/chvt.h"
 582              		.loc 6 472 0
 583 0010 EB69     		ldr	r3, [r5, #28]
 584 0012 104E     		ldr	r6, .L64+4
 585              	.LBE194:
 586              	.LBE193:
 587              		.loc 1 319 0
 588 0014 0131     		adds	r1, r1, #1
 589 0016 1162     		str	r1, [r2, #32]
 590              	.LBB212:
 591              	.LBB211:
 592              		.loc 6 471 0
 593 0018 AA6A     		ldr	r2, [r5, #40]
 594              		.loc 6 472 0
 595 001a B342     		cmp	r3, r6
 596              		.loc 6 471 0
 597 001c 02F10102 		add	r2, r2, #1
 598 0020 AA62     		str	r2, [r5, #40]
 599              		.loc 6 472 0
 600 0022 13D0     		beq	.L53
 601              		.loc 6 474 0
 602 0024 9C68     		ldr	r4, [r3, #8]
 603 0026 013C     		subs	r4, r4, #1
 604 0028 9C60     		str	r4, [r3, #8]
 605              		.loc 6 475 0
 606 002a 7CB9     		cbnz	r4, .L53
 607              	.LBB195:
 608              	.LBB196:
 609              	.LBB197:
 610              	.LBB198:
 611              	.LBB199:
 612              	.LBB200:
 613              		.loc 4 546 0
 614 002c 2027     		movs	r7, #32
 615              	.L57:
 616              	.LVL60:
 617              	.LBE200:
 618              	.LBE199:
 619              	.LBE198:
 620              	.LBE197:
 621              	.LBE196:
 622              		.loc 6 482 0
 623 002e 1A68     		ldr	r2, [r3]
 624              		.loc 6 480 0
 625 0030 D968     		ldr	r1, [r3, #12]
 626              	.LVL61:
 627              		.loc 6 481 0
ARM GAS  /var/tmp//cco8lMvz.s 			page 12


 628 0032 DC60     		str	r4, [r3, #12]
 629              		.loc 6 482 0
 630 0034 5660     		str	r6, [r2, #4]
 631              		.loc 6 483 0
 632 0036 EA61     		str	r2, [r5, #28]
 633              	.LVL62:
 634              	.LBB205:
 635              	.LBB206:
 636              	.LBB207:
 637              	.LBB208:
 638              	.LBB209:
 639              		.loc 4 546 0
 640              		.syntax unified
 641              	@ 546 "ChibiOS_3.0.2/os/ext/CMSIS/include/core_cmFunc.h" 1
 642 0038 84F31188 		MSR basepri, r4
 643              	@ 0 "" 2
 644              	.LVL63:
 645              		.thumb
 646              		.syntax unified
 647              	.LBE209:
 648              	.LBE208:
 649              	.LBE207:
 650              	.LBE206:
 651              	.LBE205:
 652              		.loc 6 485 0
 653 003c 1869     		ldr	r0, [r3, #16]
 654 003e 8847     		blx	r1
 655              	.LVL64:
 656              	.LBB210:
 657              	.LBB204:
 658              	.LBB203:
 659              	.LBB202:
 660              	.LBB201:
 661              		.loc 4 546 0
 662              		.syntax unified
 663              	@ 546 "ChibiOS_3.0.2/os/ext/CMSIS/include/core_cmFunc.h" 1
 664 0040 87F31188 		MSR basepri, r7
 665              	@ 0 "" 2
 666              	.LVL65:
 667              		.thumb
 668              		.syntax unified
 669              	.LBE201:
 670              	.LBE202:
 671              	.LBE203:
 672              	.LBE204:
 673              	.LBE210:
 674              	.LBE195:
 675              		.loc 6 475 0
 676 0044 EB69     		ldr	r3, [r5, #28]
 677 0046 9A68     		ldr	r2, [r3, #8]
 678 0048 002A     		cmp	r2, #0
 679 004a F0D0     		beq	.L57
 680              	.L53:
 681 004c F8BD     		pop	{r3, r4, r5, r6, r7, pc}
 682              	.L65:
 683 004e 00BF     		.align	2
 684              	.L64:
ARM GAS  /var/tmp//cco8lMvz.s 			page 13


 685 0050 00000000 		.word	ch
 686 0054 1C000000 		.word	ch+28
 687              	.LBE211:
 688              	.LBE212:
 689              		.cfi_endproc
 690              	.LFE223:
 691              		.size	chSysTimerHandlerI, .-chSysTimerHandlerI
 692              		.section	.text.chSysGetStatusAndLockX,"ax",%progbits
 693              		.align	1
 694              		.p2align 4,,15
 695              		.global	chSysGetStatusAndLockX
 696              		.syntax unified
 697              		.thumb
 698              		.thumb_func
 699              		.fpu fpv4-sp-d16
 700              		.type	chSysGetStatusAndLockX, %function
 701              	chSysGetStatusAndLockX:
 702              	.LFB224:
 703              		.loc 1 340 0
 704              		.cfi_startproc
 705              		@ args = 0, pretend = 0, frame = 0
 706              		@ frame_needed = 0, uses_anonymous_args = 0
 707              		@ link register save eliminated.
 708              	.LBB213:
 709              	.LBB214:
 710              	.LBB215:
 711              	.LBB216:
 712              		.loc 4 533 0
 713              		.syntax unified
 714              	@ 533 "ChibiOS_3.0.2/os/ext/CMSIS/include/core_cmFunc.h" 1
 715 0000 EFF31280 		MRS r0, basepri_max
 716              	@ 0 "" 2
 717              		.thumb
 718              		.syntax unified
 719              	.LBE216:
 720              	.LBE215:
 721              	.LBE214:
 722              	.LBE213:
 723              		.loc 1 343 0
 724 0004 20B9     		cbnz	r0, .L66
 725              	.LBB217:
 726              	.LBB218:
 727              	.LBB219:
 728              	.LBB220:
 729              		.loc 4 383 0
 730              		.syntax unified
 731              	@ 383 "ChibiOS_3.0.2/os/ext/CMSIS/include/core_cmFunc.h" 1
 732 0006 EFF30583 		MRS r3, ipsr
 733              	@ 0 "" 2
 734              	.LVL66:
 735              		.thumb
 736              		.syntax unified
 737              	.LBE220:
 738              	.LBE219:
 739              	.LBE218:
 740              	.LBE217:
 741              	.LBB221:
ARM GAS  /var/tmp//cco8lMvz.s 			page 14


 742              	.LBB222:
 743              	.LBB223:
 744              	.LBB224:
 745              		.loc 4 546 0
 746 000a 2023     		movs	r3, #32
 747              		.syntax unified
 748              	@ 546 "ChibiOS_3.0.2/os/ext/CMSIS/include/core_cmFunc.h" 1
 749 000c 83F31188 		MSR basepri, r3
 750              	@ 0 "" 2
 751              	.LVL67:
 752              		.thumb
 753              		.syntax unified
 754              	.L66:
 755              	.LBE224:
 756              	.LBE223:
 757              	.LBE222:
 758              	.LBE221:
 759              		.loc 1 352 0
 760 0010 7047     		bx	lr
 761              		.cfi_endproc
 762              	.LFE224:
 763              		.size	chSysGetStatusAndLockX, .-chSysGetStatusAndLockX
 764 0012 00BF     		.section	.text.chSysRestoreStatusX,"ax",%progbits
 765              		.align	1
 766              		.p2align 4,,15
 767              		.global	chSysRestoreStatusX
 768              		.syntax unified
 769              		.thumb
 770              		.thumb_func
 771              		.fpu fpv4-sp-d16
 772              		.type	chSysRestoreStatusX, %function
 773              	chSysRestoreStatusX:
 774              	.LFB225:
 775              		.loc 1 363 0
 776              		.cfi_startproc
 777              		@ args = 0, pretend = 0, frame = 0
 778              		@ frame_needed = 0, uses_anonymous_args = 0
 779              	.LVL68:
 780              		.loc 1 365 0
 781 0000 68B9     		cbnz	r0, .L73
 782              		.loc 1 363 0
 783 0002 10B5     		push	{r4, lr}
 784              		.cfi_def_cfa_offset 8
 785              		.cfi_offset 4, -8
 786              		.cfi_offset 14, -4
 787              	.LBB225:
 788              	.LBB226:
 789              	.LBB227:
 790              	.LBB228:
 791              		.loc 4 383 0
 792              		.syntax unified
 793              	@ 383 "ChibiOS_3.0.2/os/ext/CMSIS/include/core_cmFunc.h" 1
 794 0004 EFF30584 		MRS r4, ipsr
 795              	@ 0 "" 2
 796              		.thumb
 797              		.syntax unified
 798              	.LBE228:
ARM GAS  /var/tmp//cco8lMvz.s 			page 15


 799              	.LBE227:
 800              		.loc 2 436 0
 801 0008 C4F30804 		ubfx	r4, r4, #0, #9
 802              	.LBE226:
 803              	.LBE225:
 804              		.loc 1 366 0
 805 000c 14B1     		cbz	r4, .L71
 806              	.LVL69:
 807              	.LBB229:
 808              	.LBB230:
 809              	.LBB231:
 810              	.LBB232:
 811              	.LBB233:
 812              		.loc 4 546 0
 813              		.syntax unified
 814              	@ 546 "ChibiOS_3.0.2/os/ext/CMSIS/include/core_cmFunc.h" 1
 815 000e 80F31188 		MSR basepri, r0
 816              	@ 0 "" 2
 817              	.LVL70:
 818              		.thumb
 819              		.syntax unified
 820 0012 10BD     		pop	{r4, pc}
 821              	.L71:
 822              	.LBE233:
 823              	.LBE232:
 824              	.LBE231:
 825              	.LBE230:
 826              	.LBE229:
 827              		.loc 1 370 0
 828 0014 FFF7FEFF 		bl	chSchRescheduleS
 829              	.LVL71:
 830              	.LBB234:
 831              	.LBB235:
 832              	.LBB236:
 833              	.LBB237:
 834              	.LBB238:
 835              		.loc 4 546 0
 836              		.syntax unified
 837              	@ 546 "ChibiOS_3.0.2/os/ext/CMSIS/include/core_cmFunc.h" 1
 838 0018 84F31188 		MSR basepri, r4
 839              	@ 0 "" 2
 840              	.LVL72:
 841              		.thumb
 842              		.syntax unified
 843 001c 10BD     		pop	{r4, pc}
 844              	.LVL73:
 845              	.L73:
 846              		.cfi_def_cfa_offset 0
 847              		.cfi_restore 4
 848              		.cfi_restore 14
 849 001e 7047     		bx	lr
 850              	.LBE238:
 851              	.LBE237:
 852              	.LBE236:
 853              	.LBE235:
 854              	.LBE234:
 855              		.cfi_endproc
ARM GAS  /var/tmp//cco8lMvz.s 			page 16


 856              	.LFE225:
 857              		.size	chSysRestoreStatusX, .-chSysRestoreStatusX
 858              		.section	.text.chSysIsCounterWithinX,"ax",%progbits
 859              		.align	1
 860              		.p2align 4,,15
 861              		.global	chSysIsCounterWithinX
 862              		.syntax unified
 863              		.thumb
 864              		.thumb_func
 865              		.fpu fpv4-sp-d16
 866              		.type	chSysIsCounterWithinX, %function
 867              	chSysIsCounterWithinX:
 868              	.LFB226:
 869              		.loc 1 395 0
 870              		.cfi_startproc
 871              		@ args = 0, pretend = 0, frame = 0
 872              		@ frame_needed = 0, uses_anonymous_args = 0
 873              		@ link register save eliminated.
 874              	.LVL74:
 875              		.loc 1 397 0
 876 0000 401A     		subs	r0, r0, r1
 877              	.LVL75:
 878 0002 521A     		subs	r2, r2, r1
 879              	.LVL76:
 880              		.loc 1 398 0
 881 0004 9042     		cmp	r0, r2
 882 0006 2CBF     		ite	cs
 883 0008 0020     		movcs	r0, #0
 884 000a 0120     		movcc	r0, #1
 885 000c 7047     		bx	lr
 886              		.cfi_endproc
 887              	.LFE226:
 888              		.size	chSysIsCounterWithinX, .-chSysIsCounterWithinX
 889 000e 00BF     		.section	.text.chSysPolledDelayX,"ax",%progbits
 890              		.align	1
 891              		.p2align 4,,15
 892              		.global	chSysPolledDelayX
 893              		.syntax unified
 894              		.thumb
 895              		.thumb_func
 896              		.fpu fpv4-sp-d16
 897              		.type	chSysPolledDelayX, %function
 898              	chSysPolledDelayX:
 899              	.LFB227:
 900              		.loc 1 411 0
 901              		.cfi_startproc
 902              		@ args = 0, pretend = 0, frame = 0
 903              		@ frame_needed = 0, uses_anonymous_args = 0
 904              		@ link register save eliminated.
 905              	.LVL77:
 906              	.LBB239:
 907              	.LBB240:
 908              		.loc 2 548 0
 909 0000 034A     		ldr	r2, .L80
 910 0002 5168     		ldr	r1, [r2, #4]
 911              	.LVL78:
 912              	.L78:
ARM GAS  /var/tmp//cco8lMvz.s 			page 17


 913              	.LBE240:
 914              	.LBE239:
 915              	.LBB241:
 916              	.LBB242:
 917              		.loc 2 548 0 is_stmt 0 discriminator 1
 918 0004 5368     		ldr	r3, [r2, #4]
 919              	.LBE242:
 920              	.LBE241:
 921              	.LBB243:
 922              	.LBB244:
 923              		.loc 1 397 0 is_stmt 1 discriminator 1
 924 0006 5B1A     		subs	r3, r3, r1
 925              	.LBE244:
 926              	.LBE243:
 927              		.loc 1 415 0 discriminator 1
 928 0008 9842     		cmp	r0, r3
 929 000a FBD8     		bhi	.L78
 930              		.loc 1 417 0
 931 000c 7047     		bx	lr
 932              	.L81:
 933 000e 00BF     		.align	2
 934              	.L80:
 935 0010 001000E0 		.word	-536866816
 936              		.cfi_endproc
 937              	.LFE227:
 938              		.size	chSysPolledDelayX, .-chSysPolledDelayX
 939              		.section	.rodata.chSysInit.str1.4,"aMS",%progbits,1
 940              		.align	2
 941              	.LC0:
 942 0000 69646C65 		.ascii	"idle\000"
 942      00
 943              		.text
 944              	.Letext0:
 945              		.file 7 "/usr/local/gcc_arm/gcc-arm-none-eabi-6-2017-q2-update/arm-none-eabi/include/machine/_defa
 946              		.file 8 "/usr/local/gcc_arm/gcc-arm-none-eabi-6-2017-q2-update/arm-none-eabi/include/sys/_stdint.h
 947              		.file 9 "ChibiOS_3.0.2/os/rt/ports/ARMCMx/compilers/GCC/chtypes.h"
 948              		.file 10 "ChibiOS_3.0.2/os/rt/include/chsystypes.h"
 949              		.file 11 "ChibiOS_3.0.2/os/rt/include/chschd.h"
 950              		.file 12 "ChibiOS_3.0.2/os/ext/CMSIS/ST/stm32f407xx.h"
 951              		.file 13 "ChibiOS_3.0.2/os/ext/CMSIS/ST/system_stm32f4xx.h"
 952              		.file 14 "ChibiOS_3.0.2/os/rt/ports/ARMCMx/chcore.h"
 953              		.file 15 "ChibiOS_3.0.2/os/rt/include/chtm.h"
 954              		.file 16 "ChibiOS_3.0.2/os/rt/include/chsem.h"
 955              		.file 17 "ChibiOS_3.0.2/os/rt/include/chmtx.h"
 956              		.file 18 "ChibiOS_3.0.2/os/rt/include/chthreads.h"
 957              		.file 19 "ChibiOS_3.0.2/os/rt/include/chsys.h"
 958              		.file 20 "ChibiOS_3.0.2/os/rt/include/chmemcore.h"
 959              		.file 21 "ChibiOS_3.0.2/os/rt/include/chheap.h"