ARM GAS  /var/tmp//ccrTFpw9.s 			page 1


   1              		.cpu cortex-m4
   2              		.eabi_attribute 27, 1
   3              		.eabi_attribute 28, 1
   4              		.eabi_attribute 20, 1
   5              		.eabi_attribute 21, 1
   6              		.eabi_attribute 23, 3
   7              		.eabi_attribute 24, 1
   8              		.eabi_attribute 25, 1
   9              		.eabi_attribute 26, 1
  10              		.eabi_attribute 30, 2
  11              		.eabi_attribute 34, 1
  12              		.eabi_attribute 18, 4
  13              		.file	"chtm.c"
  14              		.text
  15              	.Ltext0:
  16              		.cfi_sections	.debug_frame
  17              		.section	.text.chTMObjectInit,"ax",%progbits
  18              		.align	1
  19              		.p2align 4,,15
  20              		.global	chTMObjectInit
  21              		.syntax unified
  22              		.thumb
  23              		.thumb_func
  24              		.fpu fpv4-sp-d16
  25              		.type	chTMObjectInit, %function
  26              	chTMObjectInit:
  27              	.LFB221:
  28              		.file 1 "ChibiOS_3.0.2/os/rt/src/chtm.c"
  29              		.loc 1 99 0
  30              		.cfi_startproc
  31              		@ args = 0, pretend = 0, frame = 0
  32              		@ frame_needed = 0, uses_anonymous_args = 0
  33              		@ link register save eliminated.
  34              	.LVL0:
  35              		.loc 1 105 0
  36 0000 0022     		movs	r2, #0
  37 0002 0023     		movs	r3, #0
  38 0004 C0E90423 		strd	r2, [r0, #16]
  39              		.loc 1 102 0
  40 0008 0023     		movs	r3, #0
  41 000a 4FF0FF32 		mov	r2, #-1
  42 000e 80E80C00 		stm	r0, {r2, r3}
  43              		.loc 1 103 0
  44 0012 8360     		str	r3, [r0, #8]
  45              		.loc 1 104 0
  46 0014 C360     		str	r3, [r0, #12]
  47 0016 7047     		bx	lr
  48              		.cfi_endproc
  49              	.LFE221:
  50              		.size	chTMObjectInit, .-chTMObjectInit
  51              		.section	.text.chTMStartMeasurementX,"ax",%progbits
  52              		.align	1
  53              		.p2align 4,,15
  54              		.global	chTMStartMeasurementX
  55              		.syntax unified
  56              		.thumb
  57              		.thumb_func
ARM GAS  /var/tmp//ccrTFpw9.s 			page 2


  58              		.fpu fpv4-sp-d16
  59              		.type	chTMStartMeasurementX, %function
  60              	chTMStartMeasurementX:
  61              	.LFB222:
  62              		.loc 1 116 0
  63              		.cfi_startproc
  64              		@ args = 0, pretend = 0, frame = 0
  65              		@ frame_needed = 0, uses_anonymous_args = 0
  66              		@ link register save eliminated.
  67              	.LVL1:
  68              	.LBB14:
  69              	.LBB15:
  70              		.file 2 "ChibiOS_3.0.2/os/rt/ports/ARMCMx/chcore_v7m.h"
  71              		.loc 2 548 0
  72 0000 014B     		ldr	r3, .L3
  73 0002 5B68     		ldr	r3, [r3, #4]
  74              	.LBE15:
  75              	.LBE14:
  76              		.loc 1 118 0
  77 0004 8360     		str	r3, [r0, #8]
  78 0006 7047     		bx	lr
  79              	.L4:
  80              		.align	2
  81              	.L3:
  82 0008 001000E0 		.word	-536866816
  83              		.cfi_endproc
  84              	.LFE222:
  85              		.size	chTMStartMeasurementX, .-chTMStartMeasurementX
  86              		.section	.text.chTMStopMeasurementX,"ax",%progbits
  87              		.align	1
  88              		.p2align 4,,15
  89              		.global	chTMStopMeasurementX
  90              		.syntax unified
  91              		.thumb
  92              		.thumb_func
  93              		.fpu fpv4-sp-d16
  94              		.type	chTMStopMeasurementX, %function
  95              	chTMStopMeasurementX:
  96              	.LFB223:
  97              		.loc 1 129 0
  98              		.cfi_startproc
  99              		@ args = 0, pretend = 0, frame = 0
 100              		@ frame_needed = 0, uses_anonymous_args = 0
 101              		@ link register save eliminated.
 102              	.LVL2:
 103              	.LBB16:
 104              	.LBB17:
 105              		.loc 2 548 0
 106 0000 0F4B     		ldr	r3, .L11
 107              	.LBE17:
 108              	.LBE16:
 109              		.loc 1 131 0
 110 0002 104A     		ldr	r2, .L11+4
 111              	.LBB19:
 112              	.LBB18:
 113              		.loc 2 548 0
 114 0004 5B68     		ldr	r3, [r3, #4]
ARM GAS  /var/tmp//ccrTFpw9.s 			page 3


 115              	.LBE18:
 116              	.LBE19:
 117              	.LBB20:
 118              	.LBB21:
 119              		.loc 1 57 0
 120 0006 C168     		ldr	r1, [r0, #12]
 121              	.LBE21:
 122              	.LBE20:
 123              		.loc 1 129 0
 124 0008 F0B4     		push	{r4, r5, r6, r7}
 125              		.cfi_def_cfa_offset 16
 126              		.cfi_offset 4, -16
 127              		.cfi_offset 5, -12
 128              		.cfi_offset 6, -8
 129              		.cfi_offset 7, -4
 130              	.LBB25:
 131              	.LBB22:
 132              		.loc 1 58 0
 133 000a 8768     		ldr	r7, [r0, #8]
 134              	.LBE22:
 135              	.LBE25:
 136              		.loc 1 131 0
 137 000c 966F     		ldr	r6, [r2, #120]
 138              	.LVL3:
 139              	.LBB26:
 140              	.LBB23:
 141              		.loc 1 61 0
 142 000e 4268     		ldr	r2, [r0, #4]
 143              		.loc 1 59 0
 144 0010 D0E90445 		ldrd	r4, [r0, #16]
 145              		.loc 1 58 0
 146 0014 DB1B     		subs	r3, r3, r7
 147 0016 9B1B     		subs	r3, r3, r6
 148              		.loc 1 59 0
 149 0018 E418     		adds	r4, r4, r3
 150 001a 45F10005 		adc	r5, r5, #0
 151              		.loc 1 57 0
 152 001e 0131     		adds	r1, r1, #1
 153              		.loc 1 61 0
 154 0020 9342     		cmp	r3, r2
 155              		.loc 1 57 0
 156 0022 C160     		str	r1, [r0, #12]
 157              		.loc 1 58 0
 158 0024 8360     		str	r3, [r0, #8]
 159              		.loc 1 59 0
 160 0026 C0E90445 		strd	r4, [r0, #16]
 161              		.loc 1 61 0
 162 002a 05D8     		bhi	.L10
 163              		.loc 1 64 0
 164 002c 0268     		ldr	r2, [r0]
 165 002e 9342     		cmp	r3, r2
 166              		.loc 1 65 0
 167 0030 38BF     		it	cc
 168 0032 0360     		strcc	r3, [r0]
 169              	.LVL4:
 170              	.LBE23:
 171              	.LBE26:
ARM GAS  /var/tmp//ccrTFpw9.s 			page 4


 172              		.loc 1 132 0
 173 0034 F0BC     		pop	{r4, r5, r6, r7}
 174              		.cfi_remember_state
 175              		.cfi_restore 7
 176              		.cfi_restore 6
 177              		.cfi_restore 5
 178              		.cfi_restore 4
 179              		.cfi_def_cfa_offset 0
 180 0036 7047     		bx	lr
 181              	.LVL5:
 182              	.L10:
 183              		.cfi_restore_state
 184              	.LBB27:
 185              	.LBB24:
 186              		.loc 1 62 0
 187 0038 4360     		str	r3, [r0, #4]
 188              	.LBE24:
 189              	.LBE27:
 190              		.loc 1 132 0
 191 003a F0BC     		pop	{r4, r5, r6, r7}
 192              		.cfi_restore 4
 193              		.cfi_restore 5
 194              		.cfi_restore 6
 195              		.cfi_restore 7
 196              		.cfi_def_cfa_offset 0
 197              	.LVL6:
 198 003c 7047     		bx	lr
 199              	.L12:
 200 003e 00BF     		.align	2
 201              	.L11:
 202 0040 001000E0 		.word	-536866816
 203 0044 00000000 		.word	ch
 204              		.cfi_endproc
 205              	.LFE223:
 206              		.size	chTMStopMeasurementX, .-chTMStopMeasurementX
 207              		.section	.text._tm_init,"ax",%progbits
 208              		.align	1
 209              		.p2align 4,,15
 210              		.global	_tm_init
 211              		.syntax unified
 212              		.thumb
 213              		.thumb_func
 214              		.fpu fpv4-sp-d16
 215              		.type	_tm_init, %function
 216              	_tm_init:
 217              	.LFB220:
 218              		.loc 1 79 0
 219              		.cfi_startproc
 220              		@ args = 0, pretend = 0, frame = 24
 221              		@ frame_needed = 0, uses_anonymous_args = 0
 222 0000 D0B5     		push	{r4, r6, r7, lr}
 223              		.cfi_def_cfa_offset 16
 224              		.cfi_offset 4, -16
 225              		.cfi_offset 6, -12
 226              		.cfi_offset 7, -8
 227              		.cfi_offset 14, -4
 228              		.loc 1 85 0
ARM GAS  /var/tmp//ccrTFpw9.s 			page 5


 229 0002 0C4C     		ldr	r4, .L15
 230              		.loc 1 79 0
 231 0004 86B0     		sub	sp, sp, #24
 232              		.cfi_def_cfa_offset 40
 233              		.loc 1 85 0
 234 0006 0023     		movs	r3, #0
 235              	.LBB28:
 236              	.LBB29:
 237              		.loc 1 101 0
 238 0008 4FF0FF32 		mov	r2, #-1
 239              	.LBE29:
 240              	.LBE28:
 241              		.loc 1 87 0
 242 000c 6846     		mov	r0, sp
 243              	.LBB32:
 244              	.LBB30:
 245              		.loc 1 105 0
 246 000e 0026     		movs	r6, #0
 247 0010 0027     		movs	r7, #0
 248              	.LBE30:
 249              	.LBE32:
 250              		.loc 1 85 0
 251 0012 A367     		str	r3, [r4, #120]
 252              	.LVL7:
 253              	.LBB33:
 254              	.LBB31:
 255              		.loc 1 102 0
 256 0014 0193     		str	r3, [sp, #4]
 257              		.loc 1 103 0
 258 0016 0293     		str	r3, [sp, #8]
 259              		.loc 1 104 0
 260 0018 0393     		str	r3, [sp, #12]
 261              		.loc 1 101 0
 262 001a 0092     		str	r2, [sp]
 263              		.loc 1 105 0
 264 001c CDE90467 		strd	r6, [sp, #16]
 265              	.LVL8:
 266              	.LBE31:
 267              	.LBE33:
 268              		.loc 1 87 0
 269 0020 FFF7FEFF 		bl	chTMStartMeasurementX
 270              	.LVL9:
 271              		.loc 1 88 0
 272 0024 6846     		mov	r0, sp
 273 0026 FFF7FEFF 		bl	chTMStopMeasurementX
 274              	.LVL10:
 275              		.loc 1 89 0
 276 002a 029B     		ldr	r3, [sp, #8]
 277 002c A367     		str	r3, [r4, #120]
 278              		.loc 1 90 0
 279 002e 06B0     		add	sp, sp, #24
 280              		.cfi_def_cfa_offset 16
 281              		@ sp needed
 282 0030 D0BD     		pop	{r4, r6, r7, pc}
 283              	.L16:
 284 0032 00BF     		.align	2
 285              	.L15:
ARM GAS  /var/tmp//ccrTFpw9.s 			page 6


 286 0034 00000000 		.word	ch
 287              		.cfi_endproc
 288              	.LFE220:
 289              		.size	_tm_init, .-_tm_init
 290              		.section	.text.chTMChainMeasurementToX,"ax",%progbits
 291              		.align	1
 292              		.p2align 4,,15
 293              		.global	chTMChainMeasurementToX
 294              		.syntax unified
 295              		.thumb
 296              		.thumb_func
 297              		.fpu fpv4-sp-d16
 298              		.type	chTMChainMeasurementToX, %function
 299              	chTMChainMeasurementToX:
 300              	.LFB224:
 301              		.loc 1 147 0
 302              		.cfi_startproc
 303              		@ args = 0, pretend = 0, frame = 0
 304              		@ frame_needed = 0, uses_anonymous_args = 0
 305              		@ link register save eliminated.
 306              	.LVL11:
 307              	.LBB34:
 308              	.LBB35:
 309              		.loc 2 548 0
 310 0000 0E4B     		ldr	r3, .L22
 311              	.LBE35:
 312              	.LBE34:
 313              	.LBB37:
 314              	.LBB38:
 315              		.loc 1 61 0
 316 0002 4268     		ldr	r2, [r0, #4]
 317              	.LBE38:
 318              	.LBE37:
 319              	.LBB41:
 320              	.LBB36:
 321              		.loc 2 548 0
 322 0004 5B68     		ldr	r3, [r3, #4]
 323              	.LBE36:
 324              	.LBE41:
 325              		.loc 1 147 0
 326 0006 70B4     		push	{r4, r5, r6}
 327              		.cfi_def_cfa_offset 12
 328              		.cfi_offset 4, -12
 329              		.cfi_offset 5, -8
 330              		.cfi_offset 6, -4
 331              		.loc 1 150 0
 332 0008 8B60     		str	r3, [r1, #8]
 333              	.LVL12:
 334              	.LBB42:
 335              	.LBB39:
 336              		.loc 1 59 0
 337 000a D0E90445 		ldrd	r4, [r0, #16]
 338              		.loc 1 58 0
 339 000e 8668     		ldr	r6, [r0, #8]
 340              		.loc 1 57 0
 341 0010 C168     		ldr	r1, [r0, #12]
 342              	.LVL13:
ARM GAS  /var/tmp//ccrTFpw9.s 			page 7


 343              		.loc 1 58 0
 344 0012 9B1B     		subs	r3, r3, r6
 345              	.LVL14:
 346              		.loc 1 59 0
 347 0014 E418     		adds	r4, r4, r3
 348 0016 45F10005 		adc	r5, r5, #0
 349              		.loc 1 57 0
 350 001a 0131     		adds	r1, r1, #1
 351              		.loc 1 61 0
 352 001c 9342     		cmp	r3, r2
 353              		.loc 1 57 0
 354 001e C160     		str	r1, [r0, #12]
 355              		.loc 1 58 0
 356 0020 8360     		str	r3, [r0, #8]
 357              	.LVL15:
 358              		.loc 1 59 0
 359 0022 C0E90445 		strd	r4, [r0, #16]
 360              		.loc 1 61 0
 361 0026 05D8     		bhi	.L21
 362              		.loc 1 64 0
 363 0028 0268     		ldr	r2, [r0]
 364 002a 9342     		cmp	r3, r2
 365              		.loc 1 65 0
 366 002c 38BF     		it	cc
 367 002e 0360     		strcc	r3, [r0]
 368              	.LVL16:
 369              	.LBE39:
 370              	.LBE42:
 371              		.loc 1 154 0
 372 0030 70BC     		pop	{r4, r5, r6}
 373              		.cfi_remember_state
 374              		.cfi_restore 6
 375              		.cfi_restore 5
 376              		.cfi_restore 4
 377              		.cfi_def_cfa_offset 0
 378 0032 7047     		bx	lr
 379              	.LVL17:
 380              	.L21:
 381              		.cfi_restore_state
 382              	.LBB43:
 383              	.LBB40:
 384              		.loc 1 62 0
 385 0034 4360     		str	r3, [r0, #4]
 386              	.LBE40:
 387              	.LBE43:
 388              		.loc 1 154 0
 389 0036 70BC     		pop	{r4, r5, r6}
 390              		.cfi_restore 4
 391              		.cfi_restore 5
 392              		.cfi_restore 6
 393              		.cfi_def_cfa_offset 0
 394 0038 7047     		bx	lr
 395              	.L23:
 396 003a 00BF     		.align	2
 397              	.L22:
 398 003c 001000E0 		.word	-536866816
 399              		.cfi_endproc
ARM GAS  /var/tmp//ccrTFpw9.s 			page 8


 400              	.LFE224:
 401              		.size	chTMChainMeasurementToX, .-chTMChainMeasurementToX
 402              		.text
 403              	.Letext0:
 404              		.file 3 "/usr/local/gcc_arm/gcc-arm-none-eabi-6-2017-q2-update/arm-none-eabi/include/machine/_defa
 405              		.file 4 "/usr/local/gcc_arm/gcc-arm-none-eabi-6-2017-q2-update/arm-none-eabi/include/sys/_stdint.h
 406              		.file 5 "ChibiOS_3.0.2/os/rt/ports/ARMCMx/compilers/GCC/chtypes.h"
 407              		.file 6 "ChibiOS_3.0.2/os/rt/include/chsystypes.h"
 408              		.file 7 "ChibiOS_3.0.2/os/rt/include/chschd.h"
 409              		.file 8 "ChibiOS_3.0.2/os/ext/CMSIS/include/core_cm4.h"
 410              		.file 9 "ChibiOS_3.0.2/os/ext/CMSIS/ST/system_stm32f4xx.h"
 411              		.file 10 "ChibiOS_3.0.2/os/rt/ports/ARMCMx/chcore.h"
 412              		.file 11 "ChibiOS_3.0.2/os/rt/include/chtm.h"
 413              		.file 12 "ChibiOS_3.0.2/os/rt/include/chsem.h"
 414              		.file 13 "ChibiOS_3.0.2/os/rt/include/chmtx.h"
 415              		.file 14 "ChibiOS_3.0.2/os/rt/include/chregistry.h"
 416              		.section	.debug_info,"",%progbits
 417              	.Ldebug_info0:
 418 0000 D40B0000 		.4byte	0xbd4
 419 0004 0400     		.2byte	0x4
 420 0006 00000000 		.4byte	.Ldebug_abbrev0
 421 000a 04       		.byte	0x4
 422 000b 01       		.uleb128 0x1
 423 000c 64030000 		.4byte	.LASF165
 424 0010 0C       		.byte	0xc
 425 0011 00000000 		.4byte	.LASF166
 426 0015 DF020000 		.4byte	.LASF167
 427 0019 98000000 		.4byte	.Ldebug_ranges0+0x98
 428 001d 00000000 		.4byte	0
 429 0021 00000000 		.4byte	.Ldebug_line0
 430 0025 02       		.uleb128 0x2
 431 0026 04       		.byte	0x4
 432 0027 05       		.byte	0x5
 433 0028 696E7400 		.ascii	"int\000"
 434 002c 03       		.uleb128 0x3
 435 002d 04       		.byte	0x4
 436 002e 07       		.byte	0x7
 437 002f 3A020000 		.4byte	.LASF0
 438 0033 03       		.uleb128 0x3
 439 0034 01       		.byte	0x1
 440 0035 06       		.byte	0x6
 441 0036 3F010000 		.4byte	.LASF1
 442 003a 04       		.uleb128 0x4
 443 003b 55000000 		.4byte	.LASF4
 444 003f 03       		.byte	0x3
 445 0040 2B       		.byte	0x2b
 446 0041 45000000 		.4byte	0x45
 447 0045 03       		.uleb128 0x3
 448 0046 01       		.byte	0x1
 449 0047 08       		.byte	0x8
 450 0048 B2050000 		.4byte	.LASF2
 451 004c 03       		.uleb128 0x3
 452 004d 02       		.byte	0x2
 453 004e 05       		.byte	0x5
 454 004f F5050000 		.4byte	.LASF3
 455 0053 04       		.uleb128 0x4
 456 0054 F8060000 		.4byte	.LASF5
ARM GAS  /var/tmp//ccrTFpw9.s 			page 9


 457 0058 03       		.byte	0x3
 458 0059 39       		.byte	0x39
 459 005a 5E000000 		.4byte	0x5e
 460 005e 03       		.uleb128 0x3
 461 005f 02       		.byte	0x2
 462 0060 07       		.byte	0x7
 463 0061 A9020000 		.4byte	.LASF6
 464 0065 04       		.uleb128 0x4
 465 0066 37030000 		.4byte	.LASF7
 466 006a 03       		.byte	0x3
 467 006b 4D       		.byte	0x4d
 468 006c 70000000 		.4byte	0x70
 469 0070 03       		.uleb128 0x3
 470 0071 04       		.byte	0x4
 471 0072 05       		.byte	0x5
 472 0073 BF010000 		.4byte	.LASF8
 473 0077 04       		.uleb128 0x4
 474 0078 4B070000 		.4byte	.LASF9
 475 007c 03       		.byte	0x3
 476 007d 4F       		.byte	0x4f
 477 007e 82000000 		.4byte	0x82
 478 0082 03       		.uleb128 0x3
 479 0083 04       		.byte	0x4
 480 0084 07       		.byte	0x7
 481 0085 D4060000 		.4byte	.LASF10
 482 0089 03       		.uleb128 0x3
 483 008a 08       		.byte	0x8
 484 008b 05       		.byte	0x5
 485 008c 31010000 		.4byte	.LASF11
 486 0090 04       		.uleb128 0x4
 487 0091 3D050000 		.4byte	.LASF12
 488 0095 03       		.byte	0x3
 489 0096 69       		.byte	0x69
 490 0097 9B000000 		.4byte	0x9b
 491 009b 03       		.uleb128 0x3
 492 009c 08       		.byte	0x8
 493 009d 07       		.byte	0x7
 494 009e A4000000 		.4byte	.LASF13
 495 00a2 04       		.uleb128 0x4
 496 00a3 D0070000 		.4byte	.LASF14
 497 00a7 04       		.byte	0x4
 498 00a8 18       		.byte	0x18
 499 00a9 3A000000 		.4byte	0x3a
 500 00ad 04       		.uleb128 0x4
 501 00ae 18030000 		.4byte	.LASF15
 502 00b2 04       		.byte	0x4
 503 00b3 24       		.byte	0x24
 504 00b4 53000000 		.4byte	0x53
 505 00b8 04       		.uleb128 0x4
 506 00b9 AA050000 		.4byte	.LASF16
 507 00bd 04       		.byte	0x4
 508 00be 2C       		.byte	0x2c
 509 00bf 65000000 		.4byte	0x65
 510 00c3 05       		.uleb128 0x5
 511 00c4 B8000000 		.4byte	0xb8
 512 00c8 04       		.uleb128 0x4
 513 00c9 95060000 		.4byte	.LASF17
ARM GAS  /var/tmp//ccrTFpw9.s 			page 10


 514 00cd 04       		.byte	0x4
 515 00ce 30       		.byte	0x30
 516 00cf 77000000 		.4byte	0x77
 517 00d3 05       		.uleb128 0x5
 518 00d4 C8000000 		.4byte	0xc8
 519 00d8 06       		.uleb128 0x6
 520 00d9 D3000000 		.4byte	0xd3
 521 00dd 04       		.uleb128 0x4
 522 00de 4C000000 		.4byte	.LASF18
 523 00e2 04       		.byte	0x4
 524 00e3 3C       		.byte	0x3c
 525 00e4 90000000 		.4byte	0x90
 526 00e8 04       		.uleb128 0x4
 527 00e9 95070000 		.4byte	.LASF19
 528 00ed 05       		.byte	0x5
 529 00ee 45       		.byte	0x45
 530 00ef C8000000 		.4byte	0xc8
 531 00f3 04       		.uleb128 0x4
 532 00f4 0A010000 		.4byte	.LASF20
 533 00f8 05       		.byte	0x5
 534 00f9 46       		.byte	0x46
 535 00fa DD000000 		.4byte	0xdd
 536 00fe 04       		.uleb128 0x4
 537 00ff 26060000 		.4byte	.LASF21
 538 0103 05       		.byte	0x5
 539 0104 48       		.byte	0x48
 540 0105 A2000000 		.4byte	0xa2
 541 0109 04       		.uleb128 0x4
 542 010a C8010000 		.4byte	.LASF22
 543 010e 05       		.byte	0x5
 544 010f 49       		.byte	0x49
 545 0110 A2000000 		.4byte	0xa2
 546 0114 04       		.uleb128 0x4
 547 0115 53050000 		.4byte	.LASF23
 548 0119 05       		.byte	0x5
 549 011a 4A       		.byte	0x4a
 550 011b A2000000 		.4byte	0xa2
 551 011f 04       		.uleb128 0x4
 552 0120 CA060000 		.4byte	.LASF24
 553 0124 05       		.byte	0x5
 554 0125 4B       		.byte	0x4b
 555 0126 A2000000 		.4byte	0xa2
 556 012a 04       		.uleb128 0x4
 557 012b 91050000 		.4byte	.LASF25
 558 012f 05       		.byte	0x5
 559 0130 4C       		.byte	0x4c
 560 0131 C8000000 		.4byte	0xc8
 561 0135 04       		.uleb128 0x4
 562 0136 CD020000 		.4byte	.LASF26
 563 013a 05       		.byte	0x5
 564 013b 4D       		.byte	0x4d
 565 013c B8000000 		.4byte	0xb8
 566 0140 04       		.uleb128 0x4
 567 0141 2B030000 		.4byte	.LASF27
 568 0145 05       		.byte	0x5
 569 0146 4F       		.byte	0x4f
 570 0147 C8000000 		.4byte	0xc8
ARM GAS  /var/tmp//ccrTFpw9.s 			page 11


 571 014b 04       		.uleb128 0x4
 572 014c 34020000 		.4byte	.LASF28
 573 0150 05       		.byte	0x5
 574 0151 51       		.byte	0x51
 575 0152 B8000000 		.4byte	0xb8
 576 0156 04       		.uleb128 0x4
 577 0157 D8020000 		.4byte	.LASF29
 578 015b 05       		.byte	0x5
 579 015c 52       		.byte	0x52
 580 015d C8000000 		.4byte	0xc8
 581 0161 04       		.uleb128 0x4
 582 0162 2D070000 		.4byte	.LASF30
 583 0166 06       		.byte	0x6
 584 0167 33       		.byte	0x33
 585 0168 C8000000 		.4byte	0xc8
 586 016c 05       		.uleb128 0x5
 587 016d 61010000 		.4byte	0x161
 588 0171 04       		.uleb128 0x4
 589 0172 03070000 		.4byte	.LASF31
 590 0176 06       		.byte	0x6
 591 0177 3F       		.byte	0x3f
 592 0178 7C010000 		.4byte	0x17c
 593 017c 07       		.uleb128 0x7
 594 017d BC020000 		.4byte	.LASF53
 595 0181 48       		.byte	0x48
 596 0182 07       		.byte	0x7
 597 0183 C2       		.byte	0xc2
 598 0184 81020000 		.4byte	0x281
 599 0188 08       		.uleb128 0x8
 600 0189 1F060000 		.4byte	.LASF32
 601 018d 07       		.byte	0x7
 602 018e C3       		.byte	0xc3
 603 018f 8C020000 		.4byte	0x28c
 604 0193 00       		.byte	0
 605 0194 08       		.uleb128 0x8
 606 0195 8A050000 		.4byte	.LASF33
 607 0199 07       		.byte	0x7
 608 019a C5       		.byte	0xc5
 609 019b 8C020000 		.4byte	0x28c
 610 019f 04       		.byte	0x4
 611 01a0 08       		.uleb128 0x8
 612 01a1 13010000 		.4byte	.LASF34
 613 01a5 07       		.byte	0x7
 614 01a6 C7       		.byte	0xc7
 615 01a7 2A010000 		.4byte	0x12a
 616 01ab 08       		.byte	0x8
 617 01ac 08       		.uleb128 0x8
 618 01ad 13050000 		.4byte	.LASF35
 619 01b1 07       		.byte	0x7
 620 01b2 C8       		.byte	0xc8
 621 01b3 24060000 		.4byte	0x624
 622 01b7 0C       		.byte	0xc
 623 01b8 08       		.uleb128 0x8
 624 01b9 E4010000 		.4byte	.LASF36
 625 01bd 07       		.byte	0x7
 626 01be CA       		.byte	0xca
 627 01bf 8C020000 		.4byte	0x28c
ARM GAS  /var/tmp//ccrTFpw9.s 			page 12


 628 01c3 10       		.byte	0x10
 629 01c4 08       		.uleb128 0x8
 630 01c5 05050000 		.4byte	.LASF37
 631 01c9 07       		.byte	0x7
 632 01ca CB       		.byte	0xcb
 633 01cb 8C020000 		.4byte	0x28c
 634 01cf 14       		.byte	0x14
 635 01d0 08       		.uleb128 0x8
 636 01d1 FA070000 		.4byte	.LASF38
 637 01d5 07       		.byte	0x7
 638 01d6 D2       		.byte	0xd2
 639 01d7 B7080000 		.4byte	0x8b7
 640 01db 18       		.byte	0x18
 641 01dc 08       		.uleb128 0x8
 642 01dd FF050000 		.4byte	.LASF39
 643 01e1 07       		.byte	0x7
 644 01e2 DD       		.byte	0xdd
 645 01e3 09010000 		.4byte	0x109
 646 01e7 1C       		.byte	0x1c
 647 01e8 08       		.uleb128 0x8
 648 01e9 3D060000 		.4byte	.LASF40
 649 01ed 07       		.byte	0x7
 650 01ee E1       		.byte	0xe1
 651 01ef FE000000 		.4byte	0xfe
 652 01f3 1D       		.byte	0x1d
 653 01f4 08       		.uleb128 0x8
 654 01f5 C3070000 		.4byte	.LASF41
 655 01f9 07       		.byte	0x7
 656 01fa E6       		.byte	0xe6
 657 01fb 14010000 		.4byte	0x114
 658 01ff 1E       		.byte	0x1e
 659 0200 08       		.uleb128 0x8
 660 0201 07060000 		.4byte	.LASF42
 661 0205 07       		.byte	0x7
 662 0206 EC       		.byte	0xec
 663 0207 1F010000 		.4byte	0x11f
 664 020b 1F       		.byte	0x1f
 665 020c 08       		.uleb128 0x8
 666 020d 65020000 		.4byte	.LASF43
 667 0211 07       		.byte	0x7
 668 0212 F3       		.byte	0xf3
 669 0213 6C010000 		.4byte	0x16c
 670 0217 20       		.byte	0x20
 671 0218 09       		.uleb128 0x9
 672 0219 705F7500 		.ascii	"p_u\000"
 673 021d 07       		.byte	0x7
 674 021e 3101     		.2byte	0x131
 675 0220 F2070000 		.4byte	0x7f2
 676 0224 24       		.byte	0x24
 677 0225 0A       		.uleb128 0xa
 678 0226 B2040000 		.4byte	.LASF44
 679 022a 07       		.byte	0x7
 680 022b 3601     		.2byte	0x136
 681 022d 92020000 		.4byte	0x292
 682 0231 28       		.byte	0x28
 683 0232 0A       		.uleb128 0xa
 684 0233 7C020000 		.4byte	.LASF45
ARM GAS  /var/tmp//ccrTFpw9.s 			page 13


 685 0237 07       		.byte	0x7
 686 0238 3C01     		.2byte	0x13c
 687 023a B6020000 		.4byte	0x2b6
 688 023e 2C       		.byte	0x2c
 689 023f 0A       		.uleb128 0xa
 690 0240 F2060000 		.4byte	.LASF46
 691 0244 07       		.byte	0x7
 692 0245 4001     		.2byte	0x140
 693 0247 35010000 		.4byte	0x135
 694 024b 34       		.byte	0x34
 695 024c 0A       		.uleb128 0xa
 696 024d 83060000 		.4byte	.LASF47
 697 0251 07       		.byte	0x7
 698 0252 4601     		.2byte	0x146
 699 0254 40010000 		.4byte	0x140
 700 0258 38       		.byte	0x38
 701 0259 0A       		.uleb128 0xa
 702 025a 21030000 		.4byte	.LASF48
 703 025e 07       		.byte	0x7
 704 025f 4D01     		.2byte	0x14d
 705 0261 B1080000 		.4byte	0x8b1
 706 0265 3C       		.byte	0x3c
 707 0266 0A       		.uleb128 0xa
 708 0267 37070000 		.4byte	.LASF49
 709 026b 07       		.byte	0x7
 710 026c 5101     		.2byte	0x151
 711 026e 2A010000 		.4byte	0x12a
 712 0272 40       		.byte	0x40
 713 0273 0A       		.uleb128 0xa
 714 0274 68010000 		.4byte	.LASF50
 715 0278 07       		.byte	0x7
 716 0279 5801     		.2byte	0x158
 717 027b 69030000 		.4byte	0x369
 718 027f 44       		.byte	0x44
 719 0280 00       		.byte	0
 720 0281 04       		.uleb128 0x4
 721 0282 E0070000 		.4byte	.LASF51
 722 0286 06       		.byte	0x6
 723 0287 44       		.byte	0x44
 724 0288 8C020000 		.4byte	0x28c
 725 028c 0B       		.uleb128 0xb
 726 028d 04       		.byte	0x4
 727 028e 71010000 		.4byte	0x171
 728 0292 04       		.uleb128 0x4
 729 0293 88040000 		.4byte	.LASF52
 730 0297 06       		.byte	0x6
 731 0298 49       		.byte	0x49
 732 0299 9D020000 		.4byte	0x29d
 733 029d 07       		.uleb128 0x7
 734 029e B2060000 		.4byte	.LASF54
 735 02a2 04       		.byte	0x4
 736 02a3 07       		.byte	0x7
 737 02a4 B0       		.byte	0xb0
 738 02a5 B6020000 		.4byte	0x2b6
 739 02a9 08       		.uleb128 0x8
 740 02aa 1F060000 		.4byte	.LASF32
 741 02ae 07       		.byte	0x7
ARM GAS  /var/tmp//ccrTFpw9.s 			page 14


 742 02af B1       		.byte	0xb1
 743 02b0 8C020000 		.4byte	0x28c
 744 02b4 00       		.byte	0
 745 02b5 00       		.byte	0
 746 02b6 04       		.uleb128 0x4
 747 02b7 4F060000 		.4byte	.LASF55
 748 02bb 06       		.byte	0x6
 749 02bc 50       		.byte	0x50
 750 02bd C1020000 		.4byte	0x2c1
 751 02c1 07       		.uleb128 0x7
 752 02c2 6B000000 		.4byte	.LASF56
 753 02c6 08       		.byte	0x8
 754 02c7 07       		.byte	0x7
 755 02c8 B7       		.byte	0xb7
 756 02c9 E6020000 		.4byte	0x2e6
 757 02cd 08       		.uleb128 0x8
 758 02ce 1F060000 		.4byte	.LASF32
 759 02d2 07       		.byte	0x7
 760 02d3 B8       		.byte	0xb8
 761 02d4 8C020000 		.4byte	0x28c
 762 02d8 00       		.byte	0
 763 02d9 08       		.uleb128 0x8
 764 02da 8A050000 		.4byte	.LASF33
 765 02de 07       		.byte	0x7
 766 02df B9       		.byte	0xb9
 767 02e0 8C020000 		.4byte	0x28c
 768 02e4 04       		.byte	0x4
 769 02e5 00       		.byte	0
 770 02e6 04       		.uleb128 0x4
 771 02e7 2C000000 		.4byte	.LASF57
 772 02eb 06       		.byte	0x6
 773 02ec 57       		.byte	0x57
 774 02ed F1020000 		.4byte	0x2f1
 775 02f1 0C       		.uleb128 0xc
 776 02f2 90020000 		.4byte	.LASF58
 777 02f6 1C       		.byte	0x1c
 778 02f7 07       		.byte	0x7
 779 02f8 9001     		.2byte	0x190
 780 02fa 4D030000 		.4byte	0x34d
 781 02fe 0A       		.uleb128 0xa
 782 02ff AA060000 		.4byte	.LASF59
 783 0303 07       		.byte	0x7
 784 0304 9101     		.2byte	0x191
 785 0306 B6020000 		.4byte	0x2b6
 786 030a 00       		.byte	0
 787 030b 0A       		.uleb128 0xa
 788 030c 11060000 		.4byte	.LASF60
 789 0310 07       		.byte	0x7
 790 0311 9201     		.2byte	0x192
 791 0313 2A010000 		.4byte	0x12a
 792 0317 08       		.byte	0x8
 793 0318 0A       		.uleb128 0xa
 794 0319 0D050000 		.4byte	.LASF61
 795 031d 07       		.byte	0x7
 796 031e 9401     		.2byte	0x194
 797 0320 24060000 		.4byte	0x624
 798 0324 0C       		.byte	0xc
ARM GAS  /var/tmp//ccrTFpw9.s 			page 15


 799 0325 0A       		.uleb128 0xa
 800 0326 F4010000 		.4byte	.LASF62
 801 032a 07       		.byte	0x7
 802 032b 9701     		.2byte	0x197
 803 032d 8C020000 		.4byte	0x28c
 804 0331 10       		.byte	0x10
 805 0332 0A       		.uleb128 0xa
 806 0333 35050000 		.4byte	.LASF63
 807 0337 07       		.byte	0x7
 808 0338 9801     		.2byte	0x198
 809 033a 8C020000 		.4byte	0x28c
 810 033e 14       		.byte	0x14
 811 033f 0A       		.uleb128 0xa
 812 0340 2B050000 		.4byte	.LASF64
 813 0344 07       		.byte	0x7
 814 0345 9B01     		.2byte	0x19b
 815 0347 8C020000 		.4byte	0x28c
 816 034b 18       		.byte	0x18
 817 034c 00       		.byte	0
 818 034d 04       		.uleb128 0x4
 819 034e 42070000 		.4byte	.LASF65
 820 0352 06       		.byte	0x6
 821 0353 5C       		.byte	0x5c
 822 0354 58030000 		.4byte	0x358
 823 0358 0B       		.uleb128 0xb
 824 0359 04       		.byte	0x4
 825 035a 5E030000 		.4byte	0x35e
 826 035e 0D       		.uleb128 0xd
 827 035f 69030000 		.4byte	0x369
 828 0363 0E       		.uleb128 0xe
 829 0364 69030000 		.4byte	0x369
 830 0368 00       		.byte	0
 831 0369 0F       		.uleb128 0xf
 832 036a 04       		.byte	0x4
 833 036b 04       		.uleb128 0x4
 834 036c 7A050000 		.4byte	.LASF66
 835 0370 06       		.byte	0x6
 836 0371 61       		.byte	0x61
 837 0372 76030000 		.4byte	0x376
 838 0376 0C       		.uleb128 0xc
 839 0377 84070000 		.4byte	.LASF67
 840 037b 14       		.byte	0x14
 841 037c 07       		.byte	0x7
 842 037d 6B01     		.2byte	0x16b
 843 037f C5030000 		.4byte	0x3c5
 844 0383 0A       		.uleb128 0xa
 845 0384 47020000 		.4byte	.LASF68
 846 0388 07       		.byte	0x7
 847 0389 6C01     		.2byte	0x16c
 848 038b CE080000 		.4byte	0x8ce
 849 038f 00       		.byte	0
 850 0390 0A       		.uleb128 0xa
 851 0391 05020000 		.4byte	.LASF69
 852 0395 07       		.byte	0x7
 853 0396 6D01     		.2byte	0x16d
 854 0398 CE080000 		.4byte	0x8ce
 855 039c 04       		.byte	0x4
ARM GAS  /var/tmp//ccrTFpw9.s 			page 16


 856 039d 0A       		.uleb128 0xa
 857 039e 73020000 		.4byte	.LASF70
 858 03a2 07       		.byte	0x7
 859 03a3 6E01     		.2byte	0x16e
 860 03a5 61010000 		.4byte	0x161
 861 03a9 08       		.byte	0x8
 862 03aa 0A       		.uleb128 0xa
 863 03ab 1F080000 		.4byte	.LASF71
 864 03af 07       		.byte	0x7
 865 03b0 6F01     		.2byte	0x16f
 866 03b2 4D030000 		.4byte	0x34d
 867 03b6 0C       		.byte	0xc
 868 03b7 0A       		.uleb128 0xa
 869 03b8 A2070000 		.4byte	.LASF72
 870 03bc 07       		.byte	0x7
 871 03bd 7101     		.2byte	0x171
 872 03bf 69030000 		.4byte	0x369
 873 03c3 10       		.byte	0x10
 874 03c4 00       		.byte	0
 875 03c5 04       		.uleb128 0x4
 876 03c6 E5000000 		.4byte	.LASF73
 877 03ca 06       		.byte	0x6
 878 03cb 66       		.byte	0x66
 879 03cc D0030000 		.4byte	0x3d0
 880 03d0 0C       		.uleb128 0xc
 881 03d1 C5040000 		.4byte	.LASF74
 882 03d5 10       		.byte	0x10
 883 03d6 07       		.byte	0x7
 884 03d7 7B01     		.2byte	0x17b
 885 03d9 12040000 		.4byte	0x412
 886 03dd 0A       		.uleb128 0xa
 887 03de 47020000 		.4byte	.LASF68
 888 03e2 07       		.byte	0x7
 889 03e3 7C01     		.2byte	0x17c
 890 03e5 CE080000 		.4byte	0x8ce
 891 03e9 00       		.byte	0
 892 03ea 0A       		.uleb128 0xa
 893 03eb 05020000 		.4byte	.LASF69
 894 03ef 07       		.byte	0x7
 895 03f0 7E01     		.2byte	0x17e
 896 03f2 CE080000 		.4byte	0x8ce
 897 03f6 04       		.byte	0x4
 898 03f7 0A       		.uleb128 0xa
 899 03f8 73020000 		.4byte	.LASF70
 900 03fc 07       		.byte	0x7
 901 03fd 8001     		.2byte	0x180
 902 03ff 61010000 		.4byte	0x161
 903 0403 08       		.byte	0x8
 904 0404 0A       		.uleb128 0xa
 905 0405 01080000 		.4byte	.LASF75
 906 0409 07       		.byte	0x7
 907 040a 8201     		.2byte	0x182
 908 040c 6C010000 		.4byte	0x16c
 909 0410 0C       		.byte	0xc
 910 0411 00       		.byte	0
 911 0412 04       		.uleb128 0x4
 912 0413 7C000000 		.4byte	.LASF76
ARM GAS  /var/tmp//ccrTFpw9.s 			page 17


 913 0417 06       		.byte	0x6
 914 0418 6B       		.byte	0x6b
 915 0419 1D040000 		.4byte	0x41d
 916 041d 0C       		.uleb128 0xc
 917 041e 0D020000 		.4byte	.LASF77
 918 0422 04       		.byte	0x4
 919 0423 07       		.byte	0x7
 920 0424 A201     		.2byte	0x1a2
 921 0426 38040000 		.4byte	0x438
 922 042a 0A       		.uleb128 0xa
 923 042b 56070000 		.4byte	.LASF78
 924 042f 07       		.byte	0x7
 925 0430 AA01     		.2byte	0x1aa
 926 0432 BD080000 		.4byte	0x8bd
 927 0436 00       		.byte	0
 928 0437 00       		.byte	0
 929 0438 04       		.uleb128 0x4
 930 0439 78070000 		.4byte	.LASF79
 931 043d 06       		.byte	0x6
 932 043e 70       		.byte	0x70
 933 043f 43040000 		.4byte	0x443
 934 0443 10       		.uleb128 0x10
 935 0444 45060000 		.4byte	.LASF80
 936 0448 5802     		.2byte	0x258
 937 044a 07       		.byte	0x7
 938 044b C201     		.2byte	0x1c2
 939 044d 9F040000 		.4byte	0x49f
 940 0451 0A       		.uleb128 0xa
 941 0452 CA070000 		.4byte	.LASF81
 942 0456 07       		.byte	0x7
 943 0457 C601     		.2byte	0x1c6
 944 0459 E6020000 		.4byte	0x2e6
 945 045d 00       		.byte	0
 946 045e 0A       		.uleb128 0xa
 947 045f 7F010000 		.4byte	.LASF82
 948 0463 07       		.byte	0x7
 949 0464 CA01     		.2byte	0x1ca
 950 0466 C5030000 		.4byte	0x3c5
 951 046a 1C       		.byte	0x1c
 952 046b 09       		.uleb128 0x9
 953 046c 64626700 		.ascii	"dbg\000"
 954 0470 07       		.byte	0x7
 955 0471 CE01     		.2byte	0x1ce
 956 0473 12040000 		.4byte	0x412
 957 0477 2C       		.byte	0x2c
 958 0478 0A       		.uleb128 0xa
 959 0479 D2000000 		.4byte	.LASF83
 960 047d 07       		.byte	0x7
 961 047e D201     		.2byte	0x1d2
 962 0480 71010000 		.4byte	0x171
 963 0484 30       		.byte	0x30
 964 0485 09       		.uleb128 0x9
 965 0486 746D00   		.ascii	"tm\000"
 966 0489 07       		.byte	0x7
 967 048a D701     		.2byte	0x1d7
 968 048c 99070000 		.4byte	0x799
 969 0490 78       		.byte	0x78
ARM GAS  /var/tmp//ccrTFpw9.s 			page 18


 970 0491 0A       		.uleb128 0xa
 971 0492 25020000 		.4byte	.LASF84
 972 0496 07       		.byte	0x7
 973 0497 E301     		.2byte	0x1e3
 974 0499 D4080000 		.4byte	0x8d4
 975 049d 80       		.byte	0x80
 976 049e 00       		.byte	0
 977 049f 03       		.uleb128 0x3
 978 04a0 04       		.byte	0x4
 979 04a1 07       		.byte	0x7
 980 04a2 BC040000 		.4byte	.LASF85
 981 04a6 11       		.uleb128 0x11
 982 04a7 C8000000 		.4byte	0xc8
 983 04ab B6040000 		.4byte	0x4b6
 984 04af 12       		.uleb128 0x12
 985 04b0 9F040000 		.4byte	0x49f
 986 04b4 00       		.byte	0
 987 04b5 00       		.byte	0
 988 04b6 13       		.uleb128 0x13
 989 04b7 5C       		.byte	0x5c
 990 04b8 08       		.byte	0x8
 991 04b9 0603     		.2byte	0x306
 992 04bb EB050000 		.4byte	0x5eb
 993 04bf 0A       		.uleb128 0xa
 994 04c0 9D070000 		.4byte	.LASF86
 995 04c4 08       		.byte	0x8
 996 04c5 0803     		.2byte	0x308
 997 04c7 D3000000 		.4byte	0xd3
 998 04cb 00       		.byte	0
 999 04cc 0A       		.uleb128 0xa
 1000 04cd AB040000 		.4byte	.LASF87
 1001 04d1 08       		.byte	0x8
 1002 04d2 0903     		.2byte	0x309
 1003 04d4 D3000000 		.4byte	0xd3
 1004 04d8 04       		.byte	0x4
 1005 04d9 0A       		.uleb128 0xa
 1006 04da 70010000 		.4byte	.LASF88
 1007 04de 08       		.byte	0x8
 1008 04df 0A03     		.2byte	0x30a
 1009 04e1 D3000000 		.4byte	0xd3
 1010 04e5 08       		.byte	0x8
 1011 04e6 0A       		.uleb128 0xa
 1012 04e7 C6020000 		.4byte	.LASF89
 1013 04eb 08       		.byte	0x8
 1014 04ec 0B03     		.2byte	0x30b
 1015 04ee D3000000 		.4byte	0xd3
 1016 04f2 0C       		.byte	0xc
 1017 04f3 0A       		.uleb128 0xa
 1018 04f4 DB010000 		.4byte	.LASF90
 1019 04f8 08       		.byte	0x8
 1020 04f9 0C03     		.2byte	0x30c
 1021 04fb D3000000 		.4byte	0xd3
 1022 04ff 10       		.byte	0x10
 1023 0500 0A       		.uleb128 0xa
 1024 0501 8E060000 		.4byte	.LASF91
 1025 0505 08       		.byte	0x8
 1026 0506 0D03     		.2byte	0x30d
ARM GAS  /var/tmp//ccrTFpw9.s 			page 19


 1027 0508 D3000000 		.4byte	0xd3
 1028 050c 14       		.byte	0x14
 1029 050d 0A       		.uleb128 0xa
 1030 050e D8070000 		.4byte	.LASF92
 1031 0512 08       		.byte	0x8
 1032 0513 0E03     		.2byte	0x30e
 1033 0515 D3000000 		.4byte	0xd3
 1034 0519 18       		.byte	0x18
 1035 051a 0A       		.uleb128 0xa
 1036 051b 99050000 		.4byte	.LASF93
 1037 051f 08       		.byte	0x8
 1038 0520 0F03     		.2byte	0x30f
 1039 0522 D8000000 		.4byte	0xd8
 1040 0526 1C       		.byte	0x1c
 1041 0527 0A       		.uleb128 0xa
 1042 0528 A9070000 		.4byte	.LASF94
 1043 052c 08       		.byte	0x8
 1044 052d 1003     		.2byte	0x310
 1045 052f D3000000 		.4byte	0xd3
 1046 0533 20       		.byte	0x20
 1047 0534 0A       		.uleb128 0xa
 1048 0535 9E050000 		.4byte	.LASF95
 1049 0539 08       		.byte	0x8
 1050 053a 1103     		.2byte	0x311
 1051 053c D3000000 		.4byte	0xd3
 1052 0540 24       		.byte	0x24
 1053 0541 0A       		.uleb128 0xa
 1054 0542 CD050000 		.4byte	.LASF96
 1055 0546 08       		.byte	0x8
 1056 0547 1203     		.2byte	0x312
 1057 0549 D3000000 		.4byte	0xd3
 1058 054d 28       		.byte	0x28
 1059 054e 0A       		.uleb128 0xa
 1060 054f 5B050000 		.4byte	.LASF97
 1061 0553 08       		.byte	0x8
 1062 0554 1303     		.2byte	0x313
 1063 0556 A6040000 		.4byte	0x4a6
 1064 055a 2C       		.byte	0x2c
 1065 055b 0A       		.uleb128 0xa
 1066 055c 19050000 		.4byte	.LASF98
 1067 0560 08       		.byte	0x8
 1068 0561 1403     		.2byte	0x314
 1069 0563 D3000000 		.4byte	0xd3
 1070 0567 30       		.byte	0x30
 1071 0568 0A       		.uleb128 0xa
 1072 0569 A4050000 		.4byte	.LASF99
 1073 056d 08       		.byte	0x8
 1074 056e 1503     		.2byte	0x315
 1075 0570 D3000000 		.4byte	0xd3
 1076 0574 34       		.byte	0x34
 1077 0575 0A       		.uleb128 0xa
 1078 0576 D7050000 		.4byte	.LASF100
 1079 057a 08       		.byte	0x8
 1080 057b 1603     		.2byte	0x316
 1081 057d D3000000 		.4byte	0xd3
 1082 0581 38       		.byte	0x38
 1083 0582 0A       		.uleb128 0xa
ARM GAS  /var/tmp//ccrTFpw9.s 			page 20


 1084 0583 5F060000 		.4byte	.LASF101
 1085 0587 08       		.byte	0x8
 1086 0588 1703     		.2byte	0x317
 1087 058a A6040000 		.4byte	0x4a6
 1088 058e 3C       		.byte	0x3c
 1089 058f 0A       		.uleb128 0xa
 1090 0590 1F050000 		.4byte	.LASF102
 1091 0594 08       		.byte	0x8
 1092 0595 1803     		.2byte	0x318
 1093 0597 D3000000 		.4byte	0xd3
 1094 059b 40       		.byte	0x40
 1095 059c 0A       		.uleb128 0xa
 1096 059d 4F020000 		.4byte	.LASF103
 1097 05a1 08       		.byte	0x8
 1098 05a2 1903     		.2byte	0x319
 1099 05a4 D3000000 		.4byte	0xd3
 1100 05a8 44       		.byte	0x44
 1101 05a9 0A       		.uleb128 0xa
 1102 05aa E1050000 		.4byte	.LASF104
 1103 05ae 08       		.byte	0x8
 1104 05af 1A03     		.2byte	0x31a
 1105 05b1 D3000000 		.4byte	0xd3
 1106 05b5 48       		.byte	0x48
 1107 05b6 0A       		.uleb128 0xa
 1108 05b7 70050000 		.4byte	.LASF105
 1109 05bb 08       		.byte	0x8
 1110 05bc 1B03     		.2byte	0x31b
 1111 05be A6040000 		.4byte	0x4a6
 1112 05c2 4C       		.byte	0x4c
 1113 05c3 0A       		.uleb128 0xa
 1114 05c4 25050000 		.4byte	.LASF106
 1115 05c8 08       		.byte	0x8
 1116 05c9 1C03     		.2byte	0x31c
 1117 05cb D3000000 		.4byte	0xd3
 1118 05cf 50       		.byte	0x50
 1119 05d0 0A       		.uleb128 0xa
 1120 05d1 39000000 		.4byte	.LASF107
 1121 05d5 08       		.byte	0x8
 1122 05d6 1D03     		.2byte	0x31d
 1123 05d8 D3000000 		.4byte	0xd3
 1124 05dc 54       		.byte	0x54
 1125 05dd 0A       		.uleb128 0xa
 1126 05de EB050000 		.4byte	.LASF108
 1127 05e2 08       		.byte	0x8
 1128 05e3 1E03     		.2byte	0x31e
 1129 05e5 D3000000 		.4byte	0xd3
 1130 05e9 58       		.byte	0x58
 1131 05ea 00       		.byte	0
 1132 05eb 14       		.uleb128 0x14
 1133 05ec 6F070000 		.4byte	.LASF109
 1134 05f0 08       		.byte	0x8
 1135 05f1 1F03     		.2byte	0x31f
 1136 05f3 B6040000 		.4byte	0x4b6
 1137 05f7 15       		.uleb128 0x15
 1138 05f8 C0050000 		.4byte	.LASF110
 1139 05fc 08       		.byte	0x8
 1140 05fd A706     		.2byte	0x6a7
ARM GAS  /var/tmp//ccrTFpw9.s 			page 21


 1141 05ff C3000000 		.4byte	0xc3
 1142 0603 16       		.uleb128 0x16
 1143 0604 55020000 		.4byte	.LASF111
 1144 0608 09       		.byte	0x9
 1145 0609 4C       		.byte	0x4c
 1146 060a C8000000 		.4byte	0xc8
 1147 060e 04       		.uleb128 0x4
 1148 060f FC010000 		.4byte	.LASF112
 1149 0613 0A       		.byte	0xa
 1150 0614 65       		.byte	0x65
 1151 0615 69030000 		.4byte	0x369
 1152 0619 04       		.uleb128 0x4
 1153 061a 59030000 		.4byte	.LASF113
 1154 061e 0A       		.byte	0xa
 1155 061f 6D       		.byte	0x6d
 1156 0620 DD000000 		.4byte	0xdd
 1157 0624 07       		.uleb128 0x7
 1158 0625 67070000 		.4byte	.LASF114
 1159 0629 04       		.byte	0x4
 1160 062a 0A       		.byte	0xa
 1161 062b 89       		.byte	0x89
 1162 062c 3D060000 		.4byte	0x63d
 1163 0630 17       		.uleb128 0x17
 1164 0631 72313300 		.ascii	"r13\000"
 1165 0635 0A       		.byte	0xa
 1166 0636 8A       		.byte	0x8a
 1167 0637 7E070000 		.4byte	0x77e
 1168 063b 00       		.byte	0
 1169 063c 00       		.byte	0
 1170 063d 07       		.uleb128 0x7
 1171 063e 5F000000 		.4byte	.LASF115
 1172 0642 64       		.byte	0x64
 1173 0643 02       		.byte	0x2
 1174 0644 F4       		.byte	0xf4
 1175 0645 7E070000 		.4byte	0x77e
 1176 0649 17       		.uleb128 0x17
 1177 064a 73313600 		.ascii	"s16\000"
 1178 064e 02       		.byte	0x2
 1179 064f F6       		.byte	0xf6
 1180 0650 0E060000 		.4byte	0x60e
 1181 0654 00       		.byte	0
 1182 0655 17       		.uleb128 0x17
 1183 0656 73313700 		.ascii	"s17\000"
 1184 065a 02       		.byte	0x2
 1185 065b F7       		.byte	0xf7
 1186 065c 0E060000 		.4byte	0x60e
 1187 0660 04       		.byte	0x4
 1188 0661 17       		.uleb128 0x17
 1189 0662 73313800 		.ascii	"s18\000"
 1190 0666 02       		.byte	0x2
 1191 0667 F8       		.byte	0xf8
 1192 0668 0E060000 		.4byte	0x60e
 1193 066c 08       		.byte	0x8
 1194 066d 17       		.uleb128 0x17
 1195 066e 73313900 		.ascii	"s19\000"
 1196 0672 02       		.byte	0x2
 1197 0673 F9       		.byte	0xf9
ARM GAS  /var/tmp//ccrTFpw9.s 			page 22


 1198 0674 0E060000 		.4byte	0x60e
 1199 0678 0C       		.byte	0xc
 1200 0679 17       		.uleb128 0x17
 1201 067a 73323000 		.ascii	"s20\000"
 1202 067e 02       		.byte	0x2
 1203 067f FA       		.byte	0xfa
 1204 0680 0E060000 		.4byte	0x60e
 1205 0684 10       		.byte	0x10
 1206 0685 17       		.uleb128 0x17
 1207 0686 73323100 		.ascii	"s21\000"
 1208 068a 02       		.byte	0x2
 1209 068b FB       		.byte	0xfb
 1210 068c 0E060000 		.4byte	0x60e
 1211 0690 14       		.byte	0x14
 1212 0691 17       		.uleb128 0x17
 1213 0692 73323200 		.ascii	"s22\000"
 1214 0696 02       		.byte	0x2
 1215 0697 FC       		.byte	0xfc
 1216 0698 0E060000 		.4byte	0x60e
 1217 069c 18       		.byte	0x18
 1218 069d 17       		.uleb128 0x17
 1219 069e 73323300 		.ascii	"s23\000"
 1220 06a2 02       		.byte	0x2
 1221 06a3 FD       		.byte	0xfd
 1222 06a4 0E060000 		.4byte	0x60e
 1223 06a8 1C       		.byte	0x1c
 1224 06a9 17       		.uleb128 0x17
 1225 06aa 73323400 		.ascii	"s24\000"
 1226 06ae 02       		.byte	0x2
 1227 06af FE       		.byte	0xfe
 1228 06b0 0E060000 		.4byte	0x60e
 1229 06b4 20       		.byte	0x20
 1230 06b5 17       		.uleb128 0x17
 1231 06b6 73323500 		.ascii	"s25\000"
 1232 06ba 02       		.byte	0x2
 1233 06bb FF       		.byte	0xff
 1234 06bc 0E060000 		.4byte	0x60e
 1235 06c0 24       		.byte	0x24
 1236 06c1 09       		.uleb128 0x9
 1237 06c2 73323600 		.ascii	"s26\000"
 1238 06c6 02       		.byte	0x2
 1239 06c7 0001     		.2byte	0x100
 1240 06c9 0E060000 		.4byte	0x60e
 1241 06cd 28       		.byte	0x28
 1242 06ce 09       		.uleb128 0x9
 1243 06cf 73323700 		.ascii	"s27\000"
 1244 06d3 02       		.byte	0x2
 1245 06d4 0101     		.2byte	0x101
 1246 06d6 0E060000 		.4byte	0x60e
 1247 06da 2C       		.byte	0x2c
 1248 06db 09       		.uleb128 0x9
 1249 06dc 73323800 		.ascii	"s28\000"
 1250 06e0 02       		.byte	0x2
 1251 06e1 0201     		.2byte	0x102
 1252 06e3 0E060000 		.4byte	0x60e
 1253 06e7 30       		.byte	0x30
 1254 06e8 09       		.uleb128 0x9
ARM GAS  /var/tmp//ccrTFpw9.s 			page 23


 1255 06e9 73323900 		.ascii	"s29\000"
 1256 06ed 02       		.byte	0x2
 1257 06ee 0301     		.2byte	0x103
 1258 06f0 0E060000 		.4byte	0x60e
 1259 06f4 34       		.byte	0x34
 1260 06f5 09       		.uleb128 0x9
 1261 06f6 73333000 		.ascii	"s30\000"
 1262 06fa 02       		.byte	0x2
 1263 06fb 0401     		.2byte	0x104
 1264 06fd 0E060000 		.4byte	0x60e
 1265 0701 38       		.byte	0x38
 1266 0702 09       		.uleb128 0x9
 1267 0703 73333100 		.ascii	"s31\000"
 1268 0707 02       		.byte	0x2
 1269 0708 0501     		.2byte	0x105
 1270 070a 0E060000 		.4byte	0x60e
 1271 070e 3C       		.byte	0x3c
 1272 070f 09       		.uleb128 0x9
 1273 0710 723400   		.ascii	"r4\000"
 1274 0713 02       		.byte	0x2
 1275 0714 0701     		.2byte	0x107
 1276 0716 0E060000 		.4byte	0x60e
 1277 071a 40       		.byte	0x40
 1278 071b 09       		.uleb128 0x9
 1279 071c 723500   		.ascii	"r5\000"
 1280 071f 02       		.byte	0x2
 1281 0720 0801     		.2byte	0x108
 1282 0722 0E060000 		.4byte	0x60e
 1283 0726 44       		.byte	0x44
 1284 0727 09       		.uleb128 0x9
 1285 0728 723600   		.ascii	"r6\000"
 1286 072b 02       		.byte	0x2
 1287 072c 0901     		.2byte	0x109
 1288 072e 0E060000 		.4byte	0x60e
 1289 0732 48       		.byte	0x48
 1290 0733 09       		.uleb128 0x9
 1291 0734 723700   		.ascii	"r7\000"
 1292 0737 02       		.byte	0x2
 1293 0738 0A01     		.2byte	0x10a
 1294 073a 0E060000 		.4byte	0x60e
 1295 073e 4C       		.byte	0x4c
 1296 073f 09       		.uleb128 0x9
 1297 0740 723800   		.ascii	"r8\000"
 1298 0743 02       		.byte	0x2
 1299 0744 0B01     		.2byte	0x10b
 1300 0746 0E060000 		.4byte	0x60e
 1301 074a 50       		.byte	0x50
 1302 074b 09       		.uleb128 0x9
 1303 074c 723900   		.ascii	"r9\000"
 1304 074f 02       		.byte	0x2
 1305 0750 0C01     		.2byte	0x10c
 1306 0752 0E060000 		.4byte	0x60e
 1307 0756 54       		.byte	0x54
 1308 0757 09       		.uleb128 0x9
 1309 0758 72313000 		.ascii	"r10\000"
 1310 075c 02       		.byte	0x2
 1311 075d 0D01     		.2byte	0x10d
ARM GAS  /var/tmp//ccrTFpw9.s 			page 24


 1312 075f 0E060000 		.4byte	0x60e
 1313 0763 58       		.byte	0x58
 1314 0764 09       		.uleb128 0x9
 1315 0765 72313100 		.ascii	"r11\000"
 1316 0769 02       		.byte	0x2
 1317 076a 0E01     		.2byte	0x10e
 1318 076c 0E060000 		.4byte	0x60e
 1319 0770 5C       		.byte	0x5c
 1320 0771 09       		.uleb128 0x9
 1321 0772 6C7200   		.ascii	"lr\000"
 1322 0775 02       		.byte	0x2
 1323 0776 0F01     		.2byte	0x10f
 1324 0778 0E060000 		.4byte	0x60e
 1325 077c 60       		.byte	0x60
 1326 077d 00       		.byte	0
 1327 077e 0B       		.uleb128 0xb
 1328 077f 04       		.byte	0x4
 1329 0780 3D060000 		.4byte	0x63d
 1330 0784 18       		.uleb128 0x18
 1331 0785 04       		.byte	0x4
 1332 0786 0B       		.byte	0xb
 1333 0787 38       		.byte	0x38
 1334 0788 99070000 		.4byte	0x799
 1335 078c 08       		.uleb128 0x8
 1336 078d 60070000 		.4byte	.LASF116
 1337 0791 0B       		.byte	0xb
 1338 0792 3C       		.byte	0x3c
 1339 0793 E8000000 		.4byte	0xe8
 1340 0797 00       		.byte	0
 1341 0798 00       		.byte	0
 1342 0799 04       		.uleb128 0x4
 1343 079a E8040000 		.4byte	.LASF117
 1344 079e 0B       		.byte	0xb
 1345 079f 3D       		.byte	0x3d
 1346 07a0 84070000 		.4byte	0x784
 1347 07a4 18       		.uleb128 0x18
 1348 07a5 18       		.byte	0x18
 1349 07a6 0B       		.byte	0xb
 1350 07a7 48       		.byte	0x48
 1351 07a8 E7070000 		.4byte	0x7e7
 1352 07ac 08       		.uleb128 0x8
 1353 07ad A4020000 		.4byte	.LASF118
 1354 07b1 0B       		.byte	0xb
 1355 07b2 49       		.byte	0x49
 1356 07b3 E8000000 		.4byte	0xe8
 1357 07b7 00       		.byte	0
 1358 07b8 08       		.uleb128 0x8
 1359 07b9 8B000000 		.4byte	.LASF119
 1360 07bd 0B       		.byte	0xb
 1361 07be 4A       		.byte	0x4a
 1362 07bf E8000000 		.4byte	0xe8
 1363 07c3 04       		.byte	0x4
 1364 07c4 08       		.uleb128 0x8
 1365 07c5 D3020000 		.4byte	.LASF120
 1366 07c9 0B       		.byte	0xb
 1367 07ca 4B       		.byte	0x4b
 1368 07cb E8000000 		.4byte	0xe8
ARM GAS  /var/tmp//ccrTFpw9.s 			page 25


 1369 07cf 08       		.byte	0x8
 1370 07d0 17       		.uleb128 0x17
 1371 07d1 6E00     		.ascii	"n\000"
 1372 07d3 0B       		.byte	0xb
 1373 07d4 4C       		.byte	0x4c
 1374 07d5 56010000 		.4byte	0x156
 1375 07d9 0C       		.byte	0xc
 1376 07da 08       		.uleb128 0x8
 1377 07db 48050000 		.4byte	.LASF121
 1378 07df 0B       		.byte	0xb
 1379 07e0 4D       		.byte	0x4d
 1380 07e1 F3000000 		.4byte	0xf3
 1381 07e5 10       		.byte	0x10
 1382 07e6 00       		.byte	0
 1383 07e7 04       		.uleb128 0x4
 1384 07e8 91000000 		.4byte	.LASF122
 1385 07ec 0B       		.byte	0xb
 1386 07ed 4E       		.byte	0x4e
 1387 07ee A4070000 		.4byte	0x7a4
 1388 07f2 19       		.uleb128 0x19
 1389 07f3 04       		.byte	0x4
 1390 07f4 07       		.byte	0x7
 1391 07f5 FA       		.byte	0xfa
 1392 07f6 4F080000 		.4byte	0x84f
 1393 07fa 1A       		.uleb128 0x1a
 1394 07fb 45000000 		.4byte	.LASF123
 1395 07ff 07       		.byte	0x7
 1396 0800 0101     		.2byte	0x101
 1397 0802 35010000 		.4byte	0x135
 1398 0806 1A       		.uleb128 0x1a
 1399 0807 C9000000 		.4byte	.LASF124
 1400 080b 07       		.byte	0x7
 1401 080c 0801     		.2byte	0x108
 1402 080e 35010000 		.4byte	0x135
 1403 0812 1A       		.uleb128 0x1a
 1404 0813 F3070000 		.4byte	.LASF125
 1405 0817 07       		.byte	0x7
 1406 0818 0F01     		.2byte	0x10f
 1407 081a 69030000 		.4byte	0x369
 1408 081e 1A       		.uleb128 0x1a
 1409 081f 3F000000 		.4byte	.LASF126
 1410 0823 07       		.byte	0x7
 1411 0824 1601     		.2byte	0x116
 1412 0826 4F080000 		.4byte	0x84f
 1413 082a 1A       		.uleb128 0x1a
 1414 082b 6C020000 		.4byte	.LASF127
 1415 082f 07       		.byte	0x7
 1416 0830 1E01     		.2byte	0x11e
 1417 0832 7A080000 		.4byte	0x87a
 1418 0836 1A       		.uleb128 0x1a
 1419 0837 EB060000 		.4byte	.LASF128
 1420 083b 07       		.byte	0x7
 1421 083c 2701     		.2byte	0x127
 1422 083e B1080000 		.4byte	0x8b1
 1423 0842 1A       		.uleb128 0x1a
 1424 0843 18060000 		.4byte	.LASF129
 1425 0847 07       		.byte	0x7
ARM GAS  /var/tmp//ccrTFpw9.s 			page 26


 1426 0848 2F01     		.2byte	0x12f
 1427 084a 40010000 		.4byte	0x140
 1428 084e 00       		.byte	0
 1429 084f 0B       		.uleb128 0xb
 1430 0850 04       		.byte	0x4
 1431 0851 81020000 		.4byte	0x281
 1432 0855 07       		.uleb128 0x7
 1433 0856 76060000 		.4byte	.LASF130
 1434 085a 0C       		.byte	0xc
 1435 085b 0C       		.byte	0xc
 1436 085c 34       		.byte	0x34
 1437 085d 7A080000 		.4byte	0x87a
 1438 0861 08       		.uleb128 0x8
 1439 0862 EC010000 		.4byte	.LASF131
 1440 0866 0C       		.byte	0xc
 1441 0867 35       		.byte	0x35
 1442 0868 B6020000 		.4byte	0x2b6
 1443 086c 00       		.byte	0
 1444 086d 08       		.uleb128 0x8
 1445 086e 9E020000 		.4byte	.LASF132
 1446 0872 0C       		.byte	0xc
 1447 0873 37       		.byte	0x37
 1448 0874 4B010000 		.4byte	0x14b
 1449 0878 08       		.byte	0x8
 1450 0879 00       		.byte	0
 1451 087a 0B       		.uleb128 0xb
 1452 087b 04       		.byte	0x4
 1453 087c 55080000 		.4byte	0x855
 1454 0880 07       		.uleb128 0x7
 1455 0881 BA070000 		.4byte	.LASF133
 1456 0885 10       		.byte	0x10
 1457 0886 0D       		.byte	0xd
 1458 0887 39       		.byte	0x39
 1459 0888 B1080000 		.4byte	0x8b1
 1460 088c 08       		.uleb128 0x8
 1461 088d 77010000 		.4byte	.LASF134
 1462 0891 0D       		.byte	0xd
 1463 0892 3A       		.byte	0x3a
 1464 0893 B6020000 		.4byte	0x2b6
 1465 0897 00       		.byte	0
 1466 0898 08       		.uleb128 0x8
 1467 0899 17080000 		.4byte	.LASF135
 1468 089d 0D       		.byte	0xd
 1469 089e 3C       		.byte	0x3c
 1470 089f 8C020000 		.4byte	0x28c
 1471 08a3 08       		.byte	0x8
 1472 08a4 08       		.uleb128 0x8
 1473 08a5 26070000 		.4byte	.LASF136
 1474 08a9 0D       		.byte	0xd
 1475 08aa 3E       		.byte	0x3e
 1476 08ab 060A0000 		.4byte	0xa06
 1477 08af 0C       		.byte	0xc
 1478 08b0 00       		.byte	0
 1479 08b1 0B       		.uleb128 0xb
 1480 08b2 04       		.byte	0x4
 1481 08b3 80080000 		.4byte	0x880
 1482 08b7 0B       		.uleb128 0xb
ARM GAS  /var/tmp//ccrTFpw9.s 			page 27


 1483 08b8 04       		.byte	0x4
 1484 08b9 C9080000 		.4byte	0x8c9
 1485 08bd 05       		.uleb128 0x5
 1486 08be B7080000 		.4byte	0x8b7
 1487 08c2 03       		.uleb128 0x3
 1488 08c3 01       		.byte	0x1
 1489 08c4 08       		.byte	0x8
 1490 08c5 E6060000 		.4byte	.LASF137
 1491 08c9 06       		.uleb128 0x6
 1492 08ca C2080000 		.4byte	0x8c2
 1493 08ce 0B       		.uleb128 0xb
 1494 08cf 04       		.byte	0x4
 1495 08d0 6B030000 		.4byte	0x36b
 1496 08d4 11       		.uleb128 0x11
 1497 08d5 19060000 		.4byte	0x619
 1498 08d9 E4080000 		.4byte	0x8e4
 1499 08dd 12       		.uleb128 0x12
 1500 08de 9F040000 		.4byte	0x49f
 1501 08e2 3A       		.byte	0x3a
 1502 08e3 00       		.byte	0
 1503 08e4 1B       		.uleb128 0x1b
 1504 08e5 636800   		.ascii	"ch\000"
 1505 08e8 07       		.byte	0x7
 1506 08e9 0902     		.2byte	0x209
 1507 08eb 38040000 		.4byte	0x438
 1508 08ef 18       		.uleb128 0x18
 1509 08f0 16       		.byte	0x16
 1510 08f1 0E       		.byte	0xe
 1511 08f2 34       		.byte	0x34
 1512 08f3 D0090000 		.4byte	0x9d0
 1513 08f7 08       		.uleb128 0x8
 1514 08f8 86010000 		.4byte	.LASF138
 1515 08fc 0E       		.byte	0xe
 1516 08fd 35       		.byte	0x35
 1517 08fe D0090000 		.4byte	0x9d0
 1518 0902 00       		.byte	0
 1519 0903 08       		.uleb128 0x8
 1520 0904 97040000 		.4byte	.LASF139
 1521 0908 0E       		.byte	0xe
 1522 0909 36       		.byte	0x36
 1523 090a A2000000 		.4byte	0xa2
 1524 090e 04       		.byte	0x4
 1525 090f 08       		.uleb128 0x8
 1526 0910 C2060000 		.4byte	.LASF140
 1527 0914 0E       		.byte	0xe
 1528 0915 37       		.byte	0x37
 1529 0916 A2000000 		.4byte	0xa2
 1530 091a 05       		.byte	0x5
 1531 091b 08       		.uleb128 0x8
 1532 091c 0C080000 		.4byte	.LASF141
 1533 0920 0E       		.byte	0xe
 1534 0921 38       		.byte	0x38
 1535 0922 AD000000 		.4byte	0xad
 1536 0926 06       		.byte	0x6
 1537 0927 08       		.uleb128 0x8
 1538 0928 65050000 		.4byte	.LASF142
 1539 092c 0E       		.byte	0xe
ARM GAS  /var/tmp//ccrTFpw9.s 			page 28


 1540 092d 39       		.byte	0x39
 1541 092e A2000000 		.4byte	0xa2
 1542 0932 08       		.byte	0x8
 1543 0933 08       		.uleb128 0x8
 1544 0934 DC040000 		.4byte	.LASF143
 1545 0938 0E       		.byte	0xe
 1546 0939 3A       		.byte	0x3a
 1547 093a A2000000 		.4byte	0xa2
 1548 093e 09       		.byte	0x9
 1549 093f 08       		.uleb128 0x8
 1550 0940 BB000000 		.4byte	.LASF144
 1551 0944 0E       		.byte	0xe
 1552 0945 3B       		.byte	0x3b
 1553 0946 A2000000 		.4byte	0xa2
 1554 094a 0A       		.byte	0xa
 1555 094b 08       		.uleb128 0x8
 1556 094c 9E060000 		.4byte	.LASF145
 1557 0950 0E       		.byte	0xe
 1558 0951 3C       		.byte	0x3c
 1559 0952 A2000000 		.4byte	0xa2
 1560 0956 0B       		.byte	0xb
 1561 0957 08       		.uleb128 0x8
 1562 0958 AF070000 		.4byte	.LASF146
 1563 095c 0E       		.byte	0xe
 1564 095d 3D       		.byte	0x3d
 1565 095e A2000000 		.4byte	0xa2
 1566 0962 0C       		.byte	0xc
 1567 0963 08       		.uleb128 0x8
 1568 0964 69060000 		.4byte	.LASF147
 1569 0968 0E       		.byte	0xe
 1570 0969 3E       		.byte	0x3e
 1571 096a A2000000 		.4byte	0xa2
 1572 096e 0D       		.byte	0xd
 1573 096f 08       		.uleb128 0x8
 1574 0970 1F000000 		.4byte	.LASF148
 1575 0974 0E       		.byte	0xe
 1576 0975 3F       		.byte	0x3f
 1577 0976 A2000000 		.4byte	0xa2
 1578 097a 0E       		.byte	0xe
 1579 097b 08       		.uleb128 0x8
 1580 097c F9040000 		.4byte	.LASF149
 1581 0980 0E       		.byte	0xe
 1582 0981 40       		.byte	0x40
 1583 0982 A2000000 		.4byte	0xa2
 1584 0986 0F       		.byte	0xf
 1585 0987 08       		.uleb128 0x8
 1586 0988 4B010000 		.4byte	.LASF150
 1587 098c 0E       		.byte	0xe
 1588 098d 41       		.byte	0x41
 1589 098e A2000000 		.4byte	0xa2
 1590 0992 10       		.byte	0x10
 1591 0993 08       		.uleb128 0x8
 1592 0994 1A010000 		.4byte	.LASF151
 1593 0998 0E       		.byte	0xe
 1594 0999 43       		.byte	0x43
 1595 099a A2000000 		.4byte	0xa2
 1596 099e 11       		.byte	0x11
ARM GAS  /var/tmp//ccrTFpw9.s 			page 29


 1597 099f 08       		.uleb128 0x8
 1598 09a0 5B010000 		.4byte	.LASF152
 1599 09a4 0E       		.byte	0xe
 1600 09a5 44       		.byte	0x44
 1601 09a6 A2000000 		.4byte	0xa2
 1602 09aa 12       		.byte	0x12
 1603 09ab 08       		.uleb128 0x8
 1604 09ac 9F040000 		.4byte	.LASF153
 1605 09b0 0E       		.byte	0xe
 1606 09b1 45       		.byte	0x45
 1607 09b2 A2000000 		.4byte	0xa2
 1608 09b6 13       		.byte	0x13
 1609 09b7 08       		.uleb128 0x8
 1610 09b8 2E060000 		.4byte	.LASF154
 1611 09bc 0E       		.byte	0xe
 1612 09bd 46       		.byte	0x46
 1613 09be A2000000 		.4byte	0xa2
 1614 09c2 14       		.byte	0x14
 1615 09c3 08       		.uleb128 0x8
 1616 09c4 0C030000 		.4byte	.LASF155
 1617 09c8 0E       		.byte	0xe
 1618 09c9 48       		.byte	0x48
 1619 09ca A2000000 		.4byte	0xa2
 1620 09ce 15       		.byte	0x15
 1621 09cf 00       		.byte	0
 1622 09d0 11       		.uleb128 0x11
 1623 09d1 C2080000 		.4byte	0x8c2
 1624 09d5 E0090000 		.4byte	0x9e0
 1625 09d9 12       		.uleb128 0x12
 1626 09da 9F040000 		.4byte	0x49f
 1627 09de 03       		.byte	0x3
 1628 09df 00       		.byte	0
 1629 09e0 04       		.uleb128 0x4
 1630 09e1 D1010000 		.4byte	.LASF156
 1631 09e5 0E       		.byte	0xe
 1632 09e6 49       		.byte	0x49
 1633 09e7 EF080000 		.4byte	0x8ef
 1634 09eb 06       		.uleb128 0x6
 1635 09ec E0090000 		.4byte	0x9e0
 1636 09f0 16       		.uleb128 0x16
 1637 09f1 87020000 		.4byte	.LASF157
 1638 09f5 0E       		.byte	0xe
 1639 09f6 6E       		.byte	0x6e
 1640 09f7 EB090000 		.4byte	0x9eb
 1641 09fb 04       		.uleb128 0x4
 1642 09fc 1D020000 		.4byte	.LASF158
 1643 0a00 0D       		.byte	0xd
 1644 0a01 34       		.byte	0x34
 1645 0a02 80080000 		.4byte	0x880
 1646 0a06 0B       		.uleb128 0xb
 1647 0a07 04       		.byte	0x4
 1648 0a08 FB090000 		.4byte	0x9fb
 1649 0a0c 1C       		.uleb128 0x1c
 1650 0a0d 41030000 		.4byte	.LASF161
 1651 0a11 01       		.byte	0x1
 1652 0a12 92       		.byte	0x92
 1653 0a13 00000000 		.4byte	.LFB224
ARM GAS  /var/tmp//ccrTFpw9.s 			page 30


 1654 0a17 40000000 		.4byte	.LFE224-.LFB224
 1655 0a1b 01       		.uleb128 0x1
 1656 0a1c 9C       		.byte	0x9c
 1657 0a1d 780A0000 		.4byte	0xa78
 1658 0a21 1D       		.uleb128 0x1d
 1659 0a22 27010000 		.4byte	.LASF159
 1660 0a26 01       		.byte	0x1
 1661 0a27 92       		.byte	0x92
 1662 0a28 780A0000 		.4byte	0xa78
 1663 0a2c 01       		.uleb128 0x1
 1664 0a2d 50       		.byte	0x50
 1665 0a2e 1E       		.uleb128 0x1e
 1666 0a2f 2C010000 		.4byte	.LASF160
 1667 0a33 01       		.byte	0x1
 1668 0a34 93       		.byte	0x93
 1669 0a35 780A0000 		.4byte	0xa78
 1670 0a39 00000000 		.4byte	.LLST3
 1671 0a3d 1F       		.uleb128 0x1f
 1672 0a3e B30B0000 		.4byte	0xbb3
 1673 0a42 00000000 		.4byte	.LBB34
 1674 0a46 60000000 		.4byte	.Ldebug_ranges0+0x60
 1675 0a4a 01       		.byte	0x1
 1676 0a4b 96       		.byte	0x96
 1677 0a4c 20       		.uleb128 0x20
 1678 0a4d 850B0000 		.4byte	0xb85
 1679 0a51 02000000 		.4byte	.LBB37
 1680 0a55 78000000 		.4byte	.Ldebug_ranges0+0x78
 1681 0a59 01       		.byte	0x1
 1682 0a5a 99       		.byte	0x99
 1683 0a5b 21       		.uleb128 0x21
 1684 0a5c A70B0000 		.4byte	0xba7
 1685 0a60 21000000 		.4byte	.LLST4
 1686 0a64 21       		.uleb128 0x21
 1687 0a65 9C0B0000 		.4byte	0xb9c
 1688 0a69 41000000 		.4byte	.LLST5
 1689 0a6d 21       		.uleb128 0x21
 1690 0a6e 910B0000 		.4byte	0xb91
 1691 0a72 63000000 		.4byte	.LLST6
 1692 0a76 00       		.byte	0
 1693 0a77 00       		.byte	0
 1694 0a78 0B       		.uleb128 0xb
 1695 0a79 04       		.byte	0x4
 1696 0a7a E7070000 		.4byte	0x7e7
 1697 0a7e 1C       		.uleb128 0x1c
 1698 0a7f AA010000 		.4byte	.LASF162
 1699 0a83 01       		.byte	0x1
 1700 0a84 81       		.byte	0x81
 1701 0a85 00000000 		.4byte	.LFB223
 1702 0a89 48000000 		.4byte	.LFE223-.LFB223
 1703 0a8d 01       		.uleb128 0x1
 1704 0a8e 9C       		.byte	0x9c
 1705 0a8f D70A0000 		.4byte	0xad7
 1706 0a93 22       		.uleb128 0x22
 1707 0a94 746D7000 		.ascii	"tmp\000"
 1708 0a98 01       		.byte	0x1
 1709 0a99 81       		.byte	0x81
 1710 0a9a 780A0000 		.4byte	0xa78
ARM GAS  /var/tmp//ccrTFpw9.s 			page 31


 1711 0a9e 01       		.uleb128 0x1
 1712 0a9f 50       		.byte	0x50
 1713 0aa0 1F       		.uleb128 0x1f
 1714 0aa1 B30B0000 		.4byte	0xbb3
 1715 0aa5 00000000 		.4byte	.LBB16
 1716 0aa9 00000000 		.4byte	.Ldebug_ranges0+0
 1717 0aad 01       		.byte	0x1
 1718 0aae 83       		.byte	0x83
 1719 0aaf 20       		.uleb128 0x20
 1720 0ab0 850B0000 		.4byte	0xb85
 1721 0ab4 06000000 		.4byte	.LBB20
 1722 0ab8 18000000 		.4byte	.Ldebug_ranges0+0x18
 1723 0abc 01       		.byte	0x1
 1724 0abd 83       		.byte	0x83
 1725 0abe 21       		.uleb128 0x21
 1726 0abf A70B0000 		.4byte	0xba7
 1727 0ac3 81000000 		.4byte	.LLST0
 1728 0ac7 23       		.uleb128 0x23
 1729 0ac8 9C0B0000 		.4byte	0xb9c
 1730 0acc 21       		.uleb128 0x21
 1731 0acd 910B0000 		.4byte	0xb91
 1732 0ad1 9F000000 		.4byte	.LLST1
 1733 0ad5 00       		.byte	0
 1734 0ad6 00       		.byte	0
 1735 0ad7 1C       		.uleb128 0x1c
 1736 0ad8 94010000 		.4byte	.LASF163
 1737 0adc 01       		.byte	0x1
 1738 0add 74       		.byte	0x74
 1739 0ade 00000000 		.4byte	.LFB222
 1740 0ae2 0C000000 		.4byte	.LFE222-.LFB222
 1741 0ae6 01       		.uleb128 0x1
 1742 0ae7 9C       		.byte	0x9c
 1743 0ae8 090B0000 		.4byte	0xb09
 1744 0aec 22       		.uleb128 0x22
 1745 0aed 746D7000 		.ascii	"tmp\000"
 1746 0af1 01       		.byte	0x1
 1747 0af2 74       		.byte	0x74
 1748 0af3 780A0000 		.4byte	0xa78
 1749 0af7 01       		.uleb128 0x1
 1750 0af8 50       		.byte	0x50
 1751 0af9 24       		.uleb128 0x24
 1752 0afa B30B0000 		.4byte	0xbb3
 1753 0afe 00000000 		.4byte	.LBB14
 1754 0b02 04000000 		.4byte	.LBE14-.LBB14
 1755 0b06 01       		.byte	0x1
 1756 0b07 76       		.byte	0x76
 1757 0b08 00       		.byte	0
 1758 0b09 25       		.uleb128 0x25
 1759 0b0a FB000000 		.4byte	.LASF168
 1760 0b0e 01       		.byte	0x1
 1761 0b0f 63       		.byte	0x63
 1762 0b10 01       		.byte	0x1
 1763 0b11 210B0000 		.4byte	0xb21
 1764 0b15 26       		.uleb128 0x26
 1765 0b16 746D7000 		.ascii	"tmp\000"
 1766 0b1a 01       		.byte	0x1
 1767 0b1b 63       		.byte	0x63
ARM GAS  /var/tmp//ccrTFpw9.s 			page 32


 1768 0b1c 780A0000 		.4byte	0xa78
 1769 0b20 00       		.byte	0
 1770 0b21 1C       		.uleb128 0x1c
 1771 0b22 27080000 		.4byte	.LASF164
 1772 0b26 01       		.byte	0x1
 1773 0b27 4F       		.byte	0x4f
 1774 0b28 00000000 		.4byte	.LFB220
 1775 0b2c 38000000 		.4byte	.LFE220-.LFB220
 1776 0b30 01       		.uleb128 0x1
 1777 0b31 9C       		.byte	0x9c
 1778 0b32 850B0000 		.4byte	0xb85
 1779 0b36 27       		.uleb128 0x27
 1780 0b37 746D00   		.ascii	"tm\000"
 1781 0b3a 01       		.byte	0x1
 1782 0b3b 50       		.byte	0x50
 1783 0b3c E7070000 		.4byte	0x7e7
 1784 0b40 02       		.uleb128 0x2
 1785 0b41 91       		.byte	0x91
 1786 0b42 58       		.sleb128 -40
 1787 0b43 28       		.uleb128 0x28
 1788 0b44 090B0000 		.4byte	0xb09
 1789 0b48 08000000 		.4byte	.LBB28
 1790 0b4c 40000000 		.4byte	.Ldebug_ranges0+0x40
 1791 0b50 01       		.byte	0x1
 1792 0b51 56       		.byte	0x56
 1793 0b52 600B0000 		.4byte	0xb60
 1794 0b56 21       		.uleb128 0x21
 1795 0b57 150B0000 		.4byte	0xb15
 1796 0b5b BD000000 		.4byte	.LLST2
 1797 0b5f 00       		.byte	0
 1798 0b60 29       		.uleb128 0x29
 1799 0b61 24000000 		.4byte	.LVL9
 1800 0b65 D70A0000 		.4byte	0xad7
 1801 0b69 740B0000 		.4byte	0xb74
 1802 0b6d 2A       		.uleb128 0x2a
 1803 0b6e 01       		.uleb128 0x1
 1804 0b6f 50       		.byte	0x50
 1805 0b70 02       		.uleb128 0x2
 1806 0b71 70       		.byte	0x70
 1807 0b72 00       		.sleb128 0
 1808 0b73 00       		.byte	0
 1809 0b74 2B       		.uleb128 0x2b
 1810 0b75 2A000000 		.4byte	.LVL10
 1811 0b79 7E0A0000 		.4byte	0xa7e
 1812 0b7d 2A       		.uleb128 0x2a
 1813 0b7e 01       		.uleb128 0x1
 1814 0b7f 50       		.byte	0x50
 1815 0b80 02       		.uleb128 0x2
 1816 0b81 70       		.byte	0x70
 1817 0b82 00       		.sleb128 0
 1818 0b83 00       		.byte	0
 1819 0b84 00       		.byte	0
 1820 0b85 2C       		.uleb128 0x2c
 1821 0b86 DD000000 		.4byte	.LASF169
 1822 0b8a 01       		.byte	0x1
 1823 0b8b 35       		.byte	0x35
 1824 0b8c 03       		.byte	0x3
ARM GAS  /var/tmp//ccrTFpw9.s 			page 33


 1825 0b8d B30B0000 		.4byte	0xbb3
 1826 0b91 26       		.uleb128 0x26
 1827 0b92 746D7000 		.ascii	"tmp\000"
 1828 0b96 01       		.byte	0x1
 1829 0b97 35       		.byte	0x35
 1830 0b98 780A0000 		.4byte	0xa78
 1831 0b9c 26       		.uleb128 0x26
 1832 0b9d 6E6F7700 		.ascii	"now\000"
 1833 0ba1 01       		.byte	0x1
 1834 0ba2 36       		.byte	0x36
 1835 0ba3 E8000000 		.4byte	0xe8
 1836 0ba7 2D       		.uleb128 0x2d
 1837 0ba8 60070000 		.4byte	.LASF116
 1838 0bac 01       		.byte	0x1
 1839 0bad 37       		.byte	0x37
 1840 0bae E8000000 		.4byte	0xe8
 1841 0bb2 00       		.byte	0
 1842 0bb3 2E       		.uleb128 0x2e
 1843 0bb4 0C070000 		.4byte	.LASF170
 1844 0bb8 02       		.byte	0x2
 1845 0bb9 2202     		.2byte	0x222
 1846 0bbb E8000000 		.4byte	0xe8
 1847 0bbf 03       		.byte	0x3
 1848 0bc0 2F       		.uleb128 0x2f
 1849 0bc1 090B0000 		.4byte	0xb09
 1850 0bc5 00000000 		.4byte	.LFB221
 1851 0bc9 18000000 		.4byte	.LFE221-.LFB221
 1852 0bcd 01       		.uleb128 0x1
 1853 0bce 9C       		.byte	0x9c
 1854 0bcf 30       		.uleb128 0x30
 1855 0bd0 150B0000 		.4byte	0xb15
 1856 0bd4 01       		.uleb128 0x1
 1857 0bd5 50       		.byte	0x50
 1858 0bd6 00       		.byte	0
 1859 0bd7 00       		.byte	0
 1860              		.section	.debug_abbrev,"",%progbits
 1861              	.Ldebug_abbrev0:
 1862 0000 01       		.uleb128 0x1
 1863 0001 11       		.uleb128 0x11
 1864 0002 01       		.byte	0x1
 1865 0003 25       		.uleb128 0x25
 1866 0004 0E       		.uleb128 0xe
 1867 0005 13       		.uleb128 0x13
 1868 0006 0B       		.uleb128 0xb
 1869 0007 03       		.uleb128 0x3
 1870 0008 0E       		.uleb128 0xe
 1871 0009 1B       		.uleb128 0x1b
 1872 000a 0E       		.uleb128 0xe
 1873 000b 55       		.uleb128 0x55
 1874 000c 17       		.uleb128 0x17
 1875 000d 11       		.uleb128 0x11
 1876 000e 01       		.uleb128 0x1
 1877 000f 10       		.uleb128 0x10
 1878 0010 17       		.uleb128 0x17
 1879 0011 00       		.byte	0
 1880 0012 00       		.byte	0
 1881 0013 02       		.uleb128 0x2
ARM GAS  /var/tmp//ccrTFpw9.s 			page 34


 1882 0014 24       		.uleb128 0x24
 1883 0015 00       		.byte	0
 1884 0016 0B       		.uleb128 0xb
 1885 0017 0B       		.uleb128 0xb
 1886 0018 3E       		.uleb128 0x3e
 1887 0019 0B       		.uleb128 0xb
 1888 001a 03       		.uleb128 0x3
 1889 001b 08       		.uleb128 0x8
 1890 001c 00       		.byte	0
 1891 001d 00       		.byte	0
 1892 001e 03       		.uleb128 0x3
 1893 001f 24       		.uleb128 0x24
 1894 0020 00       		.byte	0
 1895 0021 0B       		.uleb128 0xb
 1896 0022 0B       		.uleb128 0xb
 1897 0023 3E       		.uleb128 0x3e
 1898 0024 0B       		.uleb128 0xb
 1899 0025 03       		.uleb128 0x3
 1900 0026 0E       		.uleb128 0xe
 1901 0027 00       		.byte	0
 1902 0028 00       		.byte	0
 1903 0029 04       		.uleb128 0x4
 1904 002a 16       		.uleb128 0x16
 1905 002b 00       		.byte	0
 1906 002c 03       		.uleb128 0x3
 1907 002d 0E       		.uleb128 0xe
 1908 002e 3A       		.uleb128 0x3a
 1909 002f 0B       		.uleb128 0xb
 1910 0030 3B       		.uleb128 0x3b
 1911 0031 0B       		.uleb128 0xb
 1912 0032 49       		.uleb128 0x49
 1913 0033 13       		.uleb128 0x13
 1914 0034 00       		.byte	0
 1915 0035 00       		.byte	0
 1916 0036 05       		.uleb128 0x5
 1917 0037 35       		.uleb128 0x35
 1918 0038 00       		.byte	0
 1919 0039 49       		.uleb128 0x49
 1920 003a 13       		.uleb128 0x13
 1921 003b 00       		.byte	0
 1922 003c 00       		.byte	0
 1923 003d 06       		.uleb128 0x6
 1924 003e 26       		.uleb128 0x26
 1925 003f 00       		.byte	0
 1926 0040 49       		.uleb128 0x49
 1927 0041 13       		.uleb128 0x13
 1928 0042 00       		.byte	0
 1929 0043 00       		.byte	0
 1930 0044 07       		.uleb128 0x7
 1931 0045 13       		.uleb128 0x13
 1932 0046 01       		.byte	0x1
 1933 0047 03       		.uleb128 0x3
 1934 0048 0E       		.uleb128 0xe
 1935 0049 0B       		.uleb128 0xb
 1936 004a 0B       		.uleb128 0xb
 1937 004b 3A       		.uleb128 0x3a
 1938 004c 0B       		.uleb128 0xb
ARM GAS  /var/tmp//ccrTFpw9.s 			page 35


 1939 004d 3B       		.uleb128 0x3b
 1940 004e 0B       		.uleb128 0xb
 1941 004f 01       		.uleb128 0x1
 1942 0050 13       		.uleb128 0x13
 1943 0051 00       		.byte	0
 1944 0052 00       		.byte	0
 1945 0053 08       		.uleb128 0x8
 1946 0054 0D       		.uleb128 0xd
 1947 0055 00       		.byte	0
 1948 0056 03       		.uleb128 0x3
 1949 0057 0E       		.uleb128 0xe
 1950 0058 3A       		.uleb128 0x3a
 1951 0059 0B       		.uleb128 0xb
 1952 005a 3B       		.uleb128 0x3b
 1953 005b 0B       		.uleb128 0xb
 1954 005c 49       		.uleb128 0x49
 1955 005d 13       		.uleb128 0x13
 1956 005e 38       		.uleb128 0x38
 1957 005f 0B       		.uleb128 0xb
 1958 0060 00       		.byte	0
 1959 0061 00       		.byte	0
 1960 0062 09       		.uleb128 0x9
 1961 0063 0D       		.uleb128 0xd
 1962 0064 00       		.byte	0
 1963 0065 03       		.uleb128 0x3
 1964 0066 08       		.uleb128 0x8
 1965 0067 3A       		.uleb128 0x3a
 1966 0068 0B       		.uleb128 0xb
 1967 0069 3B       		.uleb128 0x3b
 1968 006a 05       		.uleb128 0x5
 1969 006b 49       		.uleb128 0x49
 1970 006c 13       		.uleb128 0x13
 1971 006d 38       		.uleb128 0x38
 1972 006e 0B       		.uleb128 0xb
 1973 006f 00       		.byte	0
 1974 0070 00       		.byte	0
 1975 0071 0A       		.uleb128 0xa
 1976 0072 0D       		.uleb128 0xd
 1977 0073 00       		.byte	0
 1978 0074 03       		.uleb128 0x3
 1979 0075 0E       		.uleb128 0xe
 1980 0076 3A       		.uleb128 0x3a
 1981 0077 0B       		.uleb128 0xb
 1982 0078 3B       		.uleb128 0x3b
 1983 0079 05       		.uleb128 0x5
 1984 007a 49       		.uleb128 0x49
 1985 007b 13       		.uleb128 0x13
 1986 007c 38       		.uleb128 0x38
 1987 007d 0B       		.uleb128 0xb
 1988 007e 00       		.byte	0
 1989 007f 00       		.byte	0
 1990 0080 0B       		.uleb128 0xb
 1991 0081 0F       		.uleb128 0xf
 1992 0082 00       		.byte	0
 1993 0083 0B       		.uleb128 0xb
 1994 0084 0B       		.uleb128 0xb
 1995 0085 49       		.uleb128 0x49
ARM GAS  /var/tmp//ccrTFpw9.s 			page 36


 1996 0086 13       		.uleb128 0x13
 1997 0087 00       		.byte	0
 1998 0088 00       		.byte	0
 1999 0089 0C       		.uleb128 0xc
 2000 008a 13       		.uleb128 0x13
 2001 008b 01       		.byte	0x1
 2002 008c 03       		.uleb128 0x3
 2003 008d 0E       		.uleb128 0xe
 2004 008e 0B       		.uleb128 0xb
 2005 008f 0B       		.uleb128 0xb
 2006 0090 3A       		.uleb128 0x3a
 2007 0091 0B       		.uleb128 0xb
 2008 0092 3B       		.uleb128 0x3b
 2009 0093 05       		.uleb128 0x5
 2010 0094 01       		.uleb128 0x1
 2011 0095 13       		.uleb128 0x13
 2012 0096 00       		.byte	0
 2013 0097 00       		.byte	0
 2014 0098 0D       		.uleb128 0xd
 2015 0099 15       		.uleb128 0x15
 2016 009a 01       		.byte	0x1
 2017 009b 27       		.uleb128 0x27
 2018 009c 19       		.uleb128 0x19
 2019 009d 01       		.uleb128 0x1
 2020 009e 13       		.uleb128 0x13
 2021 009f 00       		.byte	0
 2022 00a0 00       		.byte	0
 2023 00a1 0E       		.uleb128 0xe
 2024 00a2 05       		.uleb128 0x5
 2025 00a3 00       		.byte	0
 2026 00a4 49       		.uleb128 0x49
 2027 00a5 13       		.uleb128 0x13
 2028 00a6 00       		.byte	0
 2029 00a7 00       		.byte	0
 2030 00a8 0F       		.uleb128 0xf
 2031 00a9 0F       		.uleb128 0xf
 2032 00aa 00       		.byte	0
 2033 00ab 0B       		.uleb128 0xb
 2034 00ac 0B       		.uleb128 0xb
 2035 00ad 00       		.byte	0
 2036 00ae 00       		.byte	0
 2037 00af 10       		.uleb128 0x10
 2038 00b0 13       		.uleb128 0x13
 2039 00b1 01       		.byte	0x1
 2040 00b2 03       		.uleb128 0x3
 2041 00b3 0E       		.uleb128 0xe
 2042 00b4 0B       		.uleb128 0xb
 2043 00b5 05       		.uleb128 0x5
 2044 00b6 3A       		.uleb128 0x3a
 2045 00b7 0B       		.uleb128 0xb
 2046 00b8 3B       		.uleb128 0x3b
 2047 00b9 05       		.uleb128 0x5
 2048 00ba 01       		.uleb128 0x1
 2049 00bb 13       		.uleb128 0x13
 2050 00bc 00       		.byte	0
 2051 00bd 00       		.byte	0
 2052 00be 11       		.uleb128 0x11
ARM GAS  /var/tmp//ccrTFpw9.s 			page 37


 2053 00bf 01       		.uleb128 0x1
 2054 00c0 01       		.byte	0x1
 2055 00c1 49       		.uleb128 0x49
 2056 00c2 13       		.uleb128 0x13
 2057 00c3 01       		.uleb128 0x1
 2058 00c4 13       		.uleb128 0x13
 2059 00c5 00       		.byte	0
 2060 00c6 00       		.byte	0
 2061 00c7 12       		.uleb128 0x12
 2062 00c8 21       		.uleb128 0x21
 2063 00c9 00       		.byte	0
 2064 00ca 49       		.uleb128 0x49
 2065 00cb 13       		.uleb128 0x13
 2066 00cc 2F       		.uleb128 0x2f
 2067 00cd 0B       		.uleb128 0xb
 2068 00ce 00       		.byte	0
 2069 00cf 00       		.byte	0
 2070 00d0 13       		.uleb128 0x13
 2071 00d1 13       		.uleb128 0x13
 2072 00d2 01       		.byte	0x1
 2073 00d3 0B       		.uleb128 0xb
 2074 00d4 0B       		.uleb128 0xb
 2075 00d5 3A       		.uleb128 0x3a
 2076 00d6 0B       		.uleb128 0xb
 2077 00d7 3B       		.uleb128 0x3b
 2078 00d8 05       		.uleb128 0x5
 2079 00d9 01       		.uleb128 0x1
 2080 00da 13       		.uleb128 0x13
 2081 00db 00       		.byte	0
 2082 00dc 00       		.byte	0
 2083 00dd 14       		.uleb128 0x14
 2084 00de 16       		.uleb128 0x16
 2085 00df 00       		.byte	0
 2086 00e0 03       		.uleb128 0x3
 2087 00e1 0E       		.uleb128 0xe
 2088 00e2 3A       		.uleb128 0x3a
 2089 00e3 0B       		.uleb128 0xb
 2090 00e4 3B       		.uleb128 0x3b
 2091 00e5 05       		.uleb128 0x5
 2092 00e6 49       		.uleb128 0x49
 2093 00e7 13       		.uleb128 0x13
 2094 00e8 00       		.byte	0
 2095 00e9 00       		.byte	0
 2096 00ea 15       		.uleb128 0x15
 2097 00eb 34       		.uleb128 0x34
 2098 00ec 00       		.byte	0
 2099 00ed 03       		.uleb128 0x3
 2100 00ee 0E       		.uleb128 0xe
 2101 00ef 3A       		.uleb128 0x3a
 2102 00f0 0B       		.uleb128 0xb
 2103 00f1 3B       		.uleb128 0x3b
 2104 00f2 05       		.uleb128 0x5
 2105 00f3 49       		.uleb128 0x49
 2106 00f4 13       		.uleb128 0x13
 2107 00f5 3F       		.uleb128 0x3f
 2108 00f6 19       		.uleb128 0x19
 2109 00f7 3C       		.uleb128 0x3c
ARM GAS  /var/tmp//ccrTFpw9.s 			page 38


 2110 00f8 19       		.uleb128 0x19
 2111 00f9 00       		.byte	0
 2112 00fa 00       		.byte	0
 2113 00fb 16       		.uleb128 0x16
 2114 00fc 34       		.uleb128 0x34
 2115 00fd 00       		.byte	0
 2116 00fe 03       		.uleb128 0x3
 2117 00ff 0E       		.uleb128 0xe
 2118 0100 3A       		.uleb128 0x3a
 2119 0101 0B       		.uleb128 0xb
 2120 0102 3B       		.uleb128 0x3b
 2121 0103 0B       		.uleb128 0xb
 2122 0104 49       		.uleb128 0x49
 2123 0105 13       		.uleb128 0x13
 2124 0106 3F       		.uleb128 0x3f
 2125 0107 19       		.uleb128 0x19
 2126 0108 3C       		.uleb128 0x3c
 2127 0109 19       		.uleb128 0x19
 2128 010a 00       		.byte	0
 2129 010b 00       		.byte	0
 2130 010c 17       		.uleb128 0x17
 2131 010d 0D       		.uleb128 0xd
 2132 010e 00       		.byte	0
 2133 010f 03       		.uleb128 0x3
 2134 0110 08       		.uleb128 0x8
 2135 0111 3A       		.uleb128 0x3a
 2136 0112 0B       		.uleb128 0xb
 2137 0113 3B       		.uleb128 0x3b
 2138 0114 0B       		.uleb128 0xb
 2139 0115 49       		.uleb128 0x49
 2140 0116 13       		.uleb128 0x13
 2141 0117 38       		.uleb128 0x38
 2142 0118 0B       		.uleb128 0xb
 2143 0119 00       		.byte	0
 2144 011a 00       		.byte	0
 2145 011b 18       		.uleb128 0x18
 2146 011c 13       		.uleb128 0x13
 2147 011d 01       		.byte	0x1
 2148 011e 0B       		.uleb128 0xb
 2149 011f 0B       		.uleb128 0xb
 2150 0120 3A       		.uleb128 0x3a
 2151 0121 0B       		.uleb128 0xb
 2152 0122 3B       		.uleb128 0x3b
 2153 0123 0B       		.uleb128 0xb
 2154 0124 01       		.uleb128 0x1
 2155 0125 13       		.uleb128 0x13
 2156 0126 00       		.byte	0
 2157 0127 00       		.byte	0
 2158 0128 19       		.uleb128 0x19
 2159 0129 17       		.uleb128 0x17
 2160 012a 01       		.byte	0x1
 2161 012b 0B       		.uleb128 0xb
 2162 012c 0B       		.uleb128 0xb
 2163 012d 3A       		.uleb128 0x3a
 2164 012e 0B       		.uleb128 0xb
 2165 012f 3B       		.uleb128 0x3b
 2166 0130 0B       		.uleb128 0xb
ARM GAS  /var/tmp//ccrTFpw9.s 			page 39


 2167 0131 01       		.uleb128 0x1
 2168 0132 13       		.uleb128 0x13
 2169 0133 00       		.byte	0
 2170 0134 00       		.byte	0
 2171 0135 1A       		.uleb128 0x1a
 2172 0136 0D       		.uleb128 0xd
 2173 0137 00       		.byte	0
 2174 0138 03       		.uleb128 0x3
 2175 0139 0E       		.uleb128 0xe
 2176 013a 3A       		.uleb128 0x3a
 2177 013b 0B       		.uleb128 0xb
 2178 013c 3B       		.uleb128 0x3b
 2179 013d 05       		.uleb128 0x5
 2180 013e 49       		.uleb128 0x49
 2181 013f 13       		.uleb128 0x13
 2182 0140 00       		.byte	0
 2183 0141 00       		.byte	0
 2184 0142 1B       		.uleb128 0x1b
 2185 0143 34       		.uleb128 0x34
 2186 0144 00       		.byte	0
 2187 0145 03       		.uleb128 0x3
 2188 0146 08       		.uleb128 0x8
 2189 0147 3A       		.uleb128 0x3a
 2190 0148 0B       		.uleb128 0xb
 2191 0149 3B       		.uleb128 0x3b
 2192 014a 05       		.uleb128 0x5
 2193 014b 49       		.uleb128 0x49
 2194 014c 13       		.uleb128 0x13
 2195 014d 3F       		.uleb128 0x3f
 2196 014e 19       		.uleb128 0x19
 2197 014f 3C       		.uleb128 0x3c
 2198 0150 19       		.uleb128 0x19
 2199 0151 00       		.byte	0
 2200 0152 00       		.byte	0
 2201 0153 1C       		.uleb128 0x1c
 2202 0154 2E       		.uleb128 0x2e
 2203 0155 01       		.byte	0x1
 2204 0156 3F       		.uleb128 0x3f
 2205 0157 19       		.uleb128 0x19
 2206 0158 03       		.uleb128 0x3
 2207 0159 0E       		.uleb128 0xe
 2208 015a 3A       		.uleb128 0x3a
 2209 015b 0B       		.uleb128 0xb
 2210 015c 3B       		.uleb128 0x3b
 2211 015d 0B       		.uleb128 0xb
 2212 015e 27       		.uleb128 0x27
 2213 015f 19       		.uleb128 0x19
 2214 0160 11       		.uleb128 0x11
 2215 0161 01       		.uleb128 0x1
 2216 0162 12       		.uleb128 0x12
 2217 0163 06       		.uleb128 0x6
 2218 0164 40       		.uleb128 0x40
 2219 0165 18       		.uleb128 0x18
 2220 0166 9742     		.uleb128 0x2117
 2221 0168 19       		.uleb128 0x19
 2222 0169 01       		.uleb128 0x1
 2223 016a 13       		.uleb128 0x13
ARM GAS  /var/tmp//ccrTFpw9.s 			page 40


 2224 016b 00       		.byte	0
 2225 016c 00       		.byte	0
 2226 016d 1D       		.uleb128 0x1d
 2227 016e 05       		.uleb128 0x5
 2228 016f 00       		.byte	0
 2229 0170 03       		.uleb128 0x3
 2230 0171 0E       		.uleb128 0xe
 2231 0172 3A       		.uleb128 0x3a
 2232 0173 0B       		.uleb128 0xb
 2233 0174 3B       		.uleb128 0x3b
 2234 0175 0B       		.uleb128 0xb
 2235 0176 49       		.uleb128 0x49
 2236 0177 13       		.uleb128 0x13
 2237 0178 02       		.uleb128 0x2
 2238 0179 18       		.uleb128 0x18
 2239 017a 00       		.byte	0
 2240 017b 00       		.byte	0
 2241 017c 1E       		.uleb128 0x1e
 2242 017d 05       		.uleb128 0x5
 2243 017e 00       		.byte	0
 2244 017f 03       		.uleb128 0x3
 2245 0180 0E       		.uleb128 0xe
 2246 0181 3A       		.uleb128 0x3a
 2247 0182 0B       		.uleb128 0xb
 2248 0183 3B       		.uleb128 0x3b
 2249 0184 0B       		.uleb128 0xb
 2250 0185 49       		.uleb128 0x49
 2251 0186 13       		.uleb128 0x13
 2252 0187 02       		.uleb128 0x2
 2253 0188 17       		.uleb128 0x17
 2254 0189 00       		.byte	0
 2255 018a 00       		.byte	0
 2256 018b 1F       		.uleb128 0x1f
 2257 018c 1D       		.uleb128 0x1d
 2258 018d 00       		.byte	0
 2259 018e 31       		.uleb128 0x31
 2260 018f 13       		.uleb128 0x13
 2261 0190 52       		.uleb128 0x52
 2262 0191 01       		.uleb128 0x1
 2263 0192 55       		.uleb128 0x55
 2264 0193 17       		.uleb128 0x17
 2265 0194 58       		.uleb128 0x58
 2266 0195 0B       		.uleb128 0xb
 2267 0196 59       		.uleb128 0x59
 2268 0197 0B       		.uleb128 0xb
 2269 0198 00       		.byte	0
 2270 0199 00       		.byte	0
 2271 019a 20       		.uleb128 0x20
 2272 019b 1D       		.uleb128 0x1d
 2273 019c 01       		.byte	0x1
 2274 019d 31       		.uleb128 0x31
 2275 019e 13       		.uleb128 0x13
 2276 019f 52       		.uleb128 0x52
 2277 01a0 01       		.uleb128 0x1
 2278 01a1 55       		.uleb128 0x55
 2279 01a2 17       		.uleb128 0x17
 2280 01a3 58       		.uleb128 0x58
ARM GAS  /var/tmp//ccrTFpw9.s 			page 41


 2281 01a4 0B       		.uleb128 0xb
 2282 01a5 59       		.uleb128 0x59
 2283 01a6 0B       		.uleb128 0xb
 2284 01a7 00       		.byte	0
 2285 01a8 00       		.byte	0
 2286 01a9 21       		.uleb128 0x21
 2287 01aa 05       		.uleb128 0x5
 2288 01ab 00       		.byte	0
 2289 01ac 31       		.uleb128 0x31
 2290 01ad 13       		.uleb128 0x13
 2291 01ae 02       		.uleb128 0x2
 2292 01af 17       		.uleb128 0x17
 2293 01b0 00       		.byte	0
 2294 01b1 00       		.byte	0
 2295 01b2 22       		.uleb128 0x22
 2296 01b3 05       		.uleb128 0x5
 2297 01b4 00       		.byte	0
 2298 01b5 03       		.uleb128 0x3
 2299 01b6 08       		.uleb128 0x8
 2300 01b7 3A       		.uleb128 0x3a
 2301 01b8 0B       		.uleb128 0xb
 2302 01b9 3B       		.uleb128 0x3b
 2303 01ba 0B       		.uleb128 0xb
 2304 01bb 49       		.uleb128 0x49
 2305 01bc 13       		.uleb128 0x13
 2306 01bd 02       		.uleb128 0x2
 2307 01be 18       		.uleb128 0x18
 2308 01bf 00       		.byte	0
 2309 01c0 00       		.byte	0
 2310 01c1 23       		.uleb128 0x23
 2311 01c2 05       		.uleb128 0x5
 2312 01c3 00       		.byte	0
 2313 01c4 31       		.uleb128 0x31
 2314 01c5 13       		.uleb128 0x13
 2315 01c6 00       		.byte	0
 2316 01c7 00       		.byte	0
 2317 01c8 24       		.uleb128 0x24
 2318 01c9 1D       		.uleb128 0x1d
 2319 01ca 00       		.byte	0
 2320 01cb 31       		.uleb128 0x31
 2321 01cc 13       		.uleb128 0x13
 2322 01cd 11       		.uleb128 0x11
 2323 01ce 01       		.uleb128 0x1
 2324 01cf 12       		.uleb128 0x12
 2325 01d0 06       		.uleb128 0x6
 2326 01d1 58       		.uleb128 0x58
 2327 01d2 0B       		.uleb128 0xb
 2328 01d3 59       		.uleb128 0x59
 2329 01d4 0B       		.uleb128 0xb
 2330 01d5 00       		.byte	0
 2331 01d6 00       		.byte	0
 2332 01d7 25       		.uleb128 0x25
 2333 01d8 2E       		.uleb128 0x2e
 2334 01d9 01       		.byte	0x1
 2335 01da 3F       		.uleb128 0x3f
 2336 01db 19       		.uleb128 0x19
 2337 01dc 03       		.uleb128 0x3
ARM GAS  /var/tmp//ccrTFpw9.s 			page 42


 2338 01dd 0E       		.uleb128 0xe
 2339 01de 3A       		.uleb128 0x3a
 2340 01df 0B       		.uleb128 0xb
 2341 01e0 3B       		.uleb128 0x3b
 2342 01e1 0B       		.uleb128 0xb
 2343 01e2 27       		.uleb128 0x27
 2344 01e3 19       		.uleb128 0x19
 2345 01e4 20       		.uleb128 0x20
 2346 01e5 0B       		.uleb128 0xb
 2347 01e6 01       		.uleb128 0x1
 2348 01e7 13       		.uleb128 0x13
 2349 01e8 00       		.byte	0
 2350 01e9 00       		.byte	0
 2351 01ea 26       		.uleb128 0x26
 2352 01eb 05       		.uleb128 0x5
 2353 01ec 00       		.byte	0
 2354 01ed 03       		.uleb128 0x3
 2355 01ee 08       		.uleb128 0x8
 2356 01ef 3A       		.uleb128 0x3a
 2357 01f0 0B       		.uleb128 0xb
 2358 01f1 3B       		.uleb128 0x3b
 2359 01f2 0B       		.uleb128 0xb
 2360 01f3 49       		.uleb128 0x49
 2361 01f4 13       		.uleb128 0x13
 2362 01f5 00       		.byte	0
 2363 01f6 00       		.byte	0
 2364 01f7 27       		.uleb128 0x27
 2365 01f8 34       		.uleb128 0x34
 2366 01f9 00       		.byte	0
 2367 01fa 03       		.uleb128 0x3
 2368 01fb 08       		.uleb128 0x8
 2369 01fc 3A       		.uleb128 0x3a
 2370 01fd 0B       		.uleb128 0xb
 2371 01fe 3B       		.uleb128 0x3b
 2372 01ff 0B       		.uleb128 0xb
 2373 0200 49       		.uleb128 0x49
 2374 0201 13       		.uleb128 0x13
 2375 0202 02       		.uleb128 0x2
 2376 0203 18       		.uleb128 0x18
 2377 0204 00       		.byte	0
 2378 0205 00       		.byte	0
 2379 0206 28       		.uleb128 0x28
 2380 0207 1D       		.uleb128 0x1d
 2381 0208 01       		.byte	0x1
 2382 0209 31       		.uleb128 0x31
 2383 020a 13       		.uleb128 0x13
 2384 020b 52       		.uleb128 0x52
 2385 020c 01       		.uleb128 0x1
 2386 020d 55       		.uleb128 0x55
 2387 020e 17       		.uleb128 0x17
 2388 020f 58       		.uleb128 0x58
 2389 0210 0B       		.uleb128 0xb
 2390 0211 59       		.uleb128 0x59
 2391 0212 0B       		.uleb128 0xb
 2392 0213 01       		.uleb128 0x1
 2393 0214 13       		.uleb128 0x13
 2394 0215 00       		.byte	0
ARM GAS  /var/tmp//ccrTFpw9.s 			page 43


 2395 0216 00       		.byte	0
 2396 0217 29       		.uleb128 0x29
 2397 0218 898201   		.uleb128 0x4109
 2398 021b 01       		.byte	0x1
 2399 021c 11       		.uleb128 0x11
 2400 021d 01       		.uleb128 0x1
 2401 021e 31       		.uleb128 0x31
 2402 021f 13       		.uleb128 0x13
 2403 0220 01       		.uleb128 0x1
 2404 0221 13       		.uleb128 0x13
 2405 0222 00       		.byte	0
 2406 0223 00       		.byte	0
 2407 0224 2A       		.uleb128 0x2a
 2408 0225 8A8201   		.uleb128 0x410a
 2409 0228 00       		.byte	0
 2410 0229 02       		.uleb128 0x2
 2411 022a 18       		.uleb128 0x18
 2412 022b 9142     		.uleb128 0x2111
 2413 022d 18       		.uleb128 0x18
 2414 022e 00       		.byte	0
 2415 022f 00       		.byte	0
 2416 0230 2B       		.uleb128 0x2b
 2417 0231 898201   		.uleb128 0x4109
 2418 0234 01       		.byte	0x1
 2419 0235 11       		.uleb128 0x11
 2420 0236 01       		.uleb128 0x1
 2421 0237 31       		.uleb128 0x31
 2422 0238 13       		.uleb128 0x13
 2423 0239 00       		.byte	0
 2424 023a 00       		.byte	0
 2425 023b 2C       		.uleb128 0x2c
 2426 023c 2E       		.uleb128 0x2e
 2427 023d 01       		.byte	0x1
 2428 023e 03       		.uleb128 0x3
 2429 023f 0E       		.uleb128 0xe
 2430 0240 3A       		.uleb128 0x3a
 2431 0241 0B       		.uleb128 0xb
 2432 0242 3B       		.uleb128 0x3b
 2433 0243 0B       		.uleb128 0xb
 2434 0244 27       		.uleb128 0x27
 2435 0245 19       		.uleb128 0x19
 2436 0246 20       		.uleb128 0x20
 2437 0247 0B       		.uleb128 0xb
 2438 0248 01       		.uleb128 0x1
 2439 0249 13       		.uleb128 0x13
 2440 024a 00       		.byte	0
 2441 024b 00       		.byte	0
 2442 024c 2D       		.uleb128 0x2d
 2443 024d 05       		.uleb128 0x5
 2444 024e 00       		.byte	0
 2445 024f 03       		.uleb128 0x3
 2446 0250 0E       		.uleb128 0xe
 2447 0251 3A       		.uleb128 0x3a
 2448 0252 0B       		.uleb128 0xb
 2449 0253 3B       		.uleb128 0x3b
 2450 0254 0B       		.uleb128 0xb
 2451 0255 49       		.uleb128 0x49
ARM GAS  /var/tmp//ccrTFpw9.s 			page 44


 2452 0256 13       		.uleb128 0x13
 2453 0257 00       		.byte	0
 2454 0258 00       		.byte	0
 2455 0259 2E       		.uleb128 0x2e
 2456 025a 2E       		.uleb128 0x2e
 2457 025b 00       		.byte	0
 2458 025c 03       		.uleb128 0x3
 2459 025d 0E       		.uleb128 0xe
 2460 025e 3A       		.uleb128 0x3a
 2461 025f 0B       		.uleb128 0xb
 2462 0260 3B       		.uleb128 0x3b
 2463 0261 05       		.uleb128 0x5
 2464 0262 27       		.uleb128 0x27
 2465 0263 19       		.uleb128 0x19
 2466 0264 49       		.uleb128 0x49
 2467 0265 13       		.uleb128 0x13
 2468 0266 20       		.uleb128 0x20
 2469 0267 0B       		.uleb128 0xb
 2470 0268 00       		.byte	0
 2471 0269 00       		.byte	0
 2472 026a 2F       		.uleb128 0x2f
 2473 026b 2E       		.uleb128 0x2e
 2474 026c 01       		.byte	0x1
 2475 026d 31       		.uleb128 0x31
 2476 026e 13       		.uleb128 0x13
 2477 026f 11       		.uleb128 0x11
 2478 0270 01       		.uleb128 0x1
 2479 0271 12       		.uleb128 0x12
 2480 0272 06       		.uleb128 0x6
 2481 0273 40       		.uleb128 0x40
 2482 0274 18       		.uleb128 0x18
 2483 0275 9742     		.uleb128 0x2117
 2484 0277 19       		.uleb128 0x19
 2485 0278 00       		.byte	0
 2486 0279 00       		.byte	0
 2487 027a 30       		.uleb128 0x30
 2488 027b 05       		.uleb128 0x5
 2489 027c 00       		.byte	0
 2490 027d 31       		.uleb128 0x31
 2491 027e 13       		.uleb128 0x13
 2492 027f 02       		.uleb128 0x2
 2493 0280 18       		.uleb128 0x18
 2494 0281 00       		.byte	0
 2495 0282 00       		.byte	0
 2496 0283 00       		.byte	0
 2497              		.section	.debug_loc,"",%progbits
 2498              	.Ldebug_loc0:
 2499              	.LLST3:
 2500 0000 00000000 		.4byte	.LVL11
 2501 0004 12000000 		.4byte	.LVL13
 2502 0008 0100     		.2byte	0x1
 2503 000a 51       		.byte	0x51
 2504 000b 12000000 		.4byte	.LVL13
 2505 000f 40000000 		.4byte	.LFE224
 2506 0013 0400     		.2byte	0x4
 2507 0015 F3       		.byte	0xf3
 2508 0016 01       		.uleb128 0x1
ARM GAS  /var/tmp//ccrTFpw9.s 			page 45


 2509 0017 51       		.byte	0x51
 2510 0018 9F       		.byte	0x9f
 2511 0019 00000000 		.4byte	0
 2512 001d 00000000 		.4byte	0
 2513              	.LLST4:
 2514 0021 0A000000 		.4byte	.LVL12
 2515 0025 30000000 		.4byte	.LVL16
 2516 0029 0200     		.2byte	0x2
 2517 002b 30       		.byte	0x30
 2518 002c 9F       		.byte	0x9f
 2519 002d 34000000 		.4byte	.LVL17
 2520 0031 40000000 		.4byte	.LFE224
 2521 0035 0200     		.2byte	0x2
 2522 0037 30       		.byte	0x30
 2523 0038 9F       		.byte	0x9f
 2524 0039 00000000 		.4byte	0
 2525 003d 00000000 		.4byte	0
 2526              	.LLST5:
 2527 0041 0A000000 		.4byte	.LVL12
 2528 0045 14000000 		.4byte	.LVL14
 2529 0049 0100     		.2byte	0x1
 2530 004b 53       		.byte	0x53
 2531 004c 14000000 		.4byte	.LVL14
 2532 0050 22000000 		.4byte	.LVL15
 2533 0054 0500     		.2byte	0x5
 2534 0056 F3       		.byte	0xf3
 2535 0057 01       		.uleb128 0x1
 2536 0058 51       		.byte	0x51
 2537 0059 23       		.byte	0x23
 2538 005a 08       		.uleb128 0x8
 2539 005b 00000000 		.4byte	0
 2540 005f 00000000 		.4byte	0
 2541              	.LLST6:
 2542 0063 0A000000 		.4byte	.LVL12
 2543 0067 30000000 		.4byte	.LVL16
 2544 006b 0100     		.2byte	0x1
 2545 006d 50       		.byte	0x50
 2546 006e 34000000 		.4byte	.LVL17
 2547 0072 40000000 		.4byte	.LFE224
 2548 0076 0100     		.2byte	0x1
 2549 0078 50       		.byte	0x50
 2550 0079 00000000 		.4byte	0
 2551 007d 00000000 		.4byte	0
 2552              	.LLST0:
 2553 0081 0E000000 		.4byte	.LVL3
 2554 0085 34000000 		.4byte	.LVL4
 2555 0089 0100     		.2byte	0x1
 2556 008b 56       		.byte	0x56
 2557 008c 38000000 		.4byte	.LVL5
 2558 0090 3C000000 		.4byte	.LVL6
 2559 0094 0100     		.2byte	0x1
 2560 0096 56       		.byte	0x56
 2561 0097 00000000 		.4byte	0
 2562 009b 00000000 		.4byte	0
 2563              	.LLST1:
 2564 009f 0E000000 		.4byte	.LVL3
 2565 00a3 34000000 		.4byte	.LVL4
ARM GAS  /var/tmp//ccrTFpw9.s 			page 46


 2566 00a7 0100     		.2byte	0x1
 2567 00a9 50       		.byte	0x50
 2568 00aa 38000000 		.4byte	.LVL5
 2569 00ae 48000000 		.4byte	.LFE223
 2570 00b2 0100     		.2byte	0x1
 2571 00b4 50       		.byte	0x50
 2572 00b5 00000000 		.4byte	0
 2573 00b9 00000000 		.4byte	0
 2574              	.LLST2:
 2575 00bd 14000000 		.4byte	.LVL7
 2576 00c1 20000000 		.4byte	.LVL8
 2577 00c5 0100     		.2byte	0x1
 2578 00c7 50       		.byte	0x50
 2579 00c8 00000000 		.4byte	0
 2580 00cc 00000000 		.4byte	0
 2581              		.section	.debug_aranges,"",%progbits
 2582 0000 3C000000 		.4byte	0x3c
 2583 0004 0200     		.2byte	0x2
 2584 0006 00000000 		.4byte	.Ldebug_info0
 2585 000a 04       		.byte	0x4
 2586 000b 00       		.byte	0
 2587 000c 0000     		.2byte	0
 2588 000e 0000     		.2byte	0
 2589 0010 00000000 		.4byte	.LFB221
 2590 0014 18000000 		.4byte	.LFE221-.LFB221
 2591 0018 00000000 		.4byte	.LFB222
 2592 001c 0C000000 		.4byte	.LFE222-.LFB222
 2593 0020 00000000 		.4byte	.LFB223
 2594 0024 48000000 		.4byte	.LFE223-.LFB223
 2595 0028 00000000 		.4byte	.LFB220
 2596 002c 38000000 		.4byte	.LFE220-.LFB220
 2597 0030 00000000 		.4byte	.LFB224
 2598 0034 40000000 		.4byte	.LFE224-.LFB224
 2599 0038 00000000 		.4byte	0
 2600 003c 00000000 		.4byte	0
 2601              		.section	.debug_ranges,"",%progbits
 2602              	.Ldebug_ranges0:
 2603 0000 00000000 		.4byte	.LBB16
 2604 0004 02000000 		.4byte	.LBE16
 2605 0008 04000000 		.4byte	.LBB19
 2606 000c 06000000 		.4byte	.LBE19
 2607 0010 00000000 		.4byte	0
 2608 0014 00000000 		.4byte	0
 2609 0018 06000000 		.4byte	.LBB20
 2610 001c 08000000 		.4byte	.LBE20
 2611 0020 0A000000 		.4byte	.LBB25
 2612 0024 0C000000 		.4byte	.LBE25
 2613 0028 0E000000 		.4byte	.LBB26
 2614 002c 34000000 		.4byte	.LBE26
 2615 0030 38000000 		.4byte	.LBB27
 2616 0034 3A000000 		.4byte	.LBE27
 2617 0038 00000000 		.4byte	0
 2618 003c 00000000 		.4byte	0
 2619 0040 08000000 		.4byte	.LBB28
 2620 0044 0C000000 		.4byte	.LBE28
 2621 0048 0E000000 		.4byte	.LBB32
 2622 004c 12000000 		.4byte	.LBE32
ARM GAS  /var/tmp//ccrTFpw9.s 			page 47


 2623 0050 14000000 		.4byte	.LBB33
 2624 0054 20000000 		.4byte	.LBE33
 2625 0058 00000000 		.4byte	0
 2626 005c 00000000 		.4byte	0
 2627 0060 00000000 		.4byte	.LBB34
 2628 0064 02000000 		.4byte	.LBE34
 2629 0068 04000000 		.4byte	.LBB41
 2630 006c 06000000 		.4byte	.LBE41
 2631 0070 00000000 		.4byte	0
 2632 0074 00000000 		.4byte	0
 2633 0078 02000000 		.4byte	.LBB37
 2634 007c 04000000 		.4byte	.LBE37
 2635 0080 0A000000 		.4byte	.LBB42
 2636 0084 30000000 		.4byte	.LBE42
 2637 0088 34000000 		.4byte	.LBB43
 2638 008c 36000000 		.4byte	.LBE43
 2639 0090 00000000 		.4byte	0
 2640 0094 00000000 		.4byte	0
 2641 0098 00000000 		.4byte	.LFB221
 2642 009c 18000000 		.4byte	.LFE221
 2643 00a0 00000000 		.4byte	.LFB222
 2644 00a4 0C000000 		.4byte	.LFE222
 2645 00a8 00000000 		.4byte	.LFB223
 2646 00ac 48000000 		.4byte	.LFE223
 2647 00b0 00000000 		.4byte	.LFB220
 2648 00b4 38000000 		.4byte	.LFE220
 2649 00b8 00000000 		.4byte	.LFB224
 2650 00bc 40000000 		.4byte	.LFE224
 2651 00c0 00000000 		.4byte	0
 2652 00c4 00000000 		.4byte	0
 2653              		.section	.debug_line,"",%progbits
 2654              	.Ldebug_line0:
 2655 0000 38030000 		.section	.debug_str,"MS",%progbits,1
 2655      02004002 
 2655      00000201 
 2655      FB0E0D00 
 2655      01010101 
 2656              	.LASF166:
 2657 0000 43686962 		.ascii	"ChibiOS_3.0.2/os/rt/src/chtm.c\000"
 2657      694F535F 
 2657      332E302E 
 2657      322F6F73 
 2657      2F72742F 
 2658              	.LASF148:
 2659 001f 63665F6F 		.ascii	"cf_off_older\000"
 2659      66665F6F 
 2659      6C646572 
 2659      00
 2660              	.LASF57:
 2661 002c 72656164 		.ascii	"ready_list_t\000"
 2661      795F6C69 
 2661      73745F74 
 2661      00
 2662              	.LASF107:
 2663 0039 4D41534B 		.ascii	"MASK3\000"
 2663      3300
 2664              	.LASF126:
ARM GAS  /var/tmp//ccrTFpw9.s 			page 48


 2665 003f 77747472 		.ascii	"wttrp\000"
 2665      7000
 2666              	.LASF123:
 2667 0045 7264796D 		.ascii	"rdymsg\000"
 2667      736700
 2668              	.LASF18:
 2669 004c 75696E74 		.ascii	"uint64_t\000"
 2669      36345F74 
 2669      00
 2670              	.LASF4:
 2671 0055 5F5F7569 		.ascii	"__uint8_t\000"
 2671      6E74385F 
 2671      7400
 2672              	.LASF115:
 2673 005f 706F7274 		.ascii	"port_intctx\000"
 2673      5F696E74 
 2673      63747800 
 2674              	.LASF56:
 2675 006b 63685F74 		.ascii	"ch_threads_queue\000"
 2675      68726561 
 2675      64735F71 
 2675      75657565 
 2675      00
 2676              	.LASF76:
 2677 007c 73797374 		.ascii	"system_debug_t\000"
 2677      656D5F64 
 2677      65627567 
 2677      5F7400
 2678              	.LASF119:
 2679 008b 776F7273 		.ascii	"worst\000"
 2679      7400
 2680              	.LASF122:
 2681 0091 74696D65 		.ascii	"time_measurement_t\000"
 2681      5F6D6561 
 2681      73757265 
 2681      6D656E74 
 2681      5F7400
 2682              	.LASF13:
 2683 00a4 6C6F6E67 		.ascii	"long long unsigned int\000"
 2683      206C6F6E 
 2683      6720756E 
 2683      7369676E 
 2683      65642069 
 2684              	.LASF144:
 2685 00bb 63685F74 		.ascii	"ch_threadsize\000"
 2685      68726561 
 2685      6473697A 
 2685      6500
 2686              	.LASF124:
 2687 00c9 65786974 		.ascii	"exitcode\000"
 2687      636F6465 
 2687      00
 2688              	.LASF83:
 2689 00d2 6D61696E 		.ascii	"mainthread\000"
 2689      74687265 
 2689      616400
 2690              	.LASF169:
ARM GAS  /var/tmp//ccrTFpw9.s 			page 49


 2691 00dd 746D5F73 		.ascii	"tm_stop\000"
 2691      746F7000 
 2692              	.LASF73:
 2693 00e5 76697274 		.ascii	"virtual_timers_list_t\000"
 2693      75616C5F 
 2693      74696D65 
 2693      72735F6C 
 2693      6973745F 
 2694              	.LASF168:
 2695 00fb 6368544D 		.ascii	"chTMObjectInit\000"
 2695      4F626A65 
 2695      6374496E 
 2695      697400
 2696              	.LASF20:
 2697 010a 72747469 		.ascii	"rttime_t\000"
 2697      6D655F74 
 2697      00
 2698              	.LASF34:
 2699 0113 705F7072 		.ascii	"p_prio\000"
 2699      696F00
 2700              	.LASF151:
 2701 011a 63665F6F 		.ascii	"cf_off_state\000"
 2701      66665F73 
 2701      74617465 
 2701      00
 2702              	.LASF159:
 2703 0127 746D7031 		.ascii	"tmp1\000"
 2703      00
 2704              	.LASF160:
 2705 012c 746D7032 		.ascii	"tmp2\000"
 2705      00
 2706              	.LASF11:
 2707 0131 6C6F6E67 		.ascii	"long long int\000"
 2707      206C6F6E 
 2707      6720696E 
 2707      7400
 2708              	.LASF1:
 2709 013f 7369676E 		.ascii	"signed char\000"
 2709      65642063 
 2709      68617200 
 2710              	.LASF150:
 2711 014b 63665F6F 		.ascii	"cf_off_stklimit\000"
 2711      66665F73 
 2711      746B6C69 
 2711      6D697400 
 2712              	.LASF152:
 2713 015b 63665F6F 		.ascii	"cf_off_flags\000"
 2713      66665F66 
 2713      6C616773 
 2713      00
 2714              	.LASF50:
 2715 0168 705F6D70 		.ascii	"p_mpool\000"
 2715      6F6F6C00 
 2716              	.LASF88:
 2717 0170 43504943 		.ascii	"CPICNT\000"
 2717      4E5400
 2718              	.LASF134:
ARM GAS  /var/tmp//ccrTFpw9.s 			page 50


 2719 0177 6D5F7175 		.ascii	"m_queue\000"
 2719      65756500 
 2720              	.LASF82:
 2721 017f 76746C69 		.ascii	"vtlist\000"
 2721      737400
 2722              	.LASF138:
 2723 0186 63685F69 		.ascii	"ch_identifier\000"
 2723      64656E74 
 2723      69666965 
 2723      7200
 2724              	.LASF163:
 2725 0194 6368544D 		.ascii	"chTMStartMeasurementX\000"
 2725      53746172 
 2725      744D6561 
 2725      73757265 
 2725      6D656E74 
 2726              	.LASF162:
 2727 01aa 6368544D 		.ascii	"chTMStopMeasurementX\000"
 2727      53746F70 
 2727      4D656173 
 2727      7572656D 
 2727      656E7458 
 2728              	.LASF8:
 2729 01bf 6C6F6E67 		.ascii	"long int\000"
 2729      20696E74 
 2729      00
 2730              	.LASF22:
 2731 01c8 74737461 		.ascii	"tstate_t\000"
 2731      74655F74 
 2731      00
 2732              	.LASF156:
 2733 01d1 63686465 		.ascii	"chdebug_t\000"
 2733      6275675F 
 2733      7400
 2734              	.LASF90:
 2735 01db 534C4545 		.ascii	"SLEEPCNT\000"
 2735      50434E54 
 2735      00
 2736              	.LASF36:
 2737 01e4 705F6E65 		.ascii	"p_newer\000"
 2737      77657200 
 2738              	.LASF131:
 2739 01ec 735F7175 		.ascii	"s_queue\000"
 2739      65756500 
 2740              	.LASF62:
 2741 01f4 725F6E65 		.ascii	"r_newer\000"
 2741      77657200 
 2742              	.LASF112:
 2743 01fc 72656761 		.ascii	"regarm_t\000"
 2743      726D5F74 
 2743      00
 2744              	.LASF69:
 2745 0205 76745F70 		.ascii	"vt_prev\000"
 2745      72657600 
 2746              	.LASF77:
 2747 020d 63685F73 		.ascii	"ch_system_debug\000"
 2747      79737465 
ARM GAS  /var/tmp//ccrTFpw9.s 			page 51


 2747      6D5F6465 
 2747      62756700 
 2748              	.LASF158:
 2749 021d 6D757465 		.ascii	"mutex_t\000"
 2749      785F7400 
 2750              	.LASF84:
 2751 0225 69646C65 		.ascii	"idle_thread_wa\000"
 2751      5F746872 
 2751      6561645F 
 2751      776100
 2752              	.LASF28:
 2753 0234 636E745F 		.ascii	"cnt_t\000"
 2753      7400
 2754              	.LASF0:
 2755 023a 756E7369 		.ascii	"unsigned int\000"
 2755      676E6564 
 2755      20696E74 
 2755      00
 2756              	.LASF68:
 2757 0247 76745F6E 		.ascii	"vt_next\000"
 2757      65787400 
 2758              	.LASF103:
 2759 024f 4D41534B 		.ascii	"MASK2\000"
 2759      3200
 2760              	.LASF111:
 2761 0255 53797374 		.ascii	"SystemCoreClock\000"
 2761      656D436F 
 2761      7265436C 
 2761      6F636B00 
 2762              	.LASF43:
 2763 0265 705F7469 		.ascii	"p_time\000"
 2763      6D6500
 2764              	.LASF127:
 2765 026c 77747365 		.ascii	"wtsemp\000"
 2765      6D7000
 2766              	.LASF70:
 2767 0273 76745F64 		.ascii	"vt_delta\000"
 2767      656C7461 
 2767      00
 2768              	.LASF45:
 2769 027c 705F6D73 		.ascii	"p_msgqueue\000"
 2769      67717565 
 2769      756500
 2770              	.LASF157:
 2771 0287 63685F64 		.ascii	"ch_debug\000"
 2771      65627567 
 2771      00
 2772              	.LASF58:
 2773 0290 63685F72 		.ascii	"ch_ready_list\000"
 2773      65616479 
 2773      5F6C6973 
 2773      7400
 2774              	.LASF132:
 2775 029e 735F636E 		.ascii	"s_cnt\000"
 2775      7400
 2776              	.LASF118:
 2777 02a4 62657374 		.ascii	"best\000"
ARM GAS  /var/tmp//ccrTFpw9.s 			page 52


 2777      00
 2778              	.LASF6:
 2779 02a9 73686F72 		.ascii	"short unsigned int\000"
 2779      7420756E 
 2779      7369676E 
 2779      65642069 
 2779      6E7400
 2780              	.LASF53:
 2781 02bc 63685F74 		.ascii	"ch_thread\000"
 2781      68726561 
 2781      6400
 2782              	.LASF89:
 2783 02c6 45584343 		.ascii	"EXCCNT\000"
 2783      4E5400
 2784              	.LASF26:
 2785 02cd 6D73675F 		.ascii	"msg_t\000"
 2785      7400
 2786              	.LASF120:
 2787 02d3 6C617374 		.ascii	"last\000"
 2787      00
 2788              	.LASF29:
 2789 02d8 75636E74 		.ascii	"ucnt_t\000"
 2789      5F7400
 2790              	.LASF167:
 2791 02df 2F557365 		.ascii	"/Users/yanrudall/Documents/eBike/ebikeSystem\000"
 2791      72732F79 
 2791      616E7275 
 2791      64616C6C 
 2791      2F446F63 
 2792              	.LASF155:
 2793 030c 63665F6F 		.ascii	"cf_off_time\000"
 2793      66665F74 
 2793      696D6500 
 2794              	.LASF15:
 2795 0318 75696E74 		.ascii	"uint16_t\000"
 2795      31365F74 
 2795      00
 2796              	.LASF48:
 2797 0321 705F6D74 		.ascii	"p_mtxlist\000"
 2797      786C6973 
 2797      7400
 2798              	.LASF27:
 2799 032b 6576656E 		.ascii	"eventmask_t\000"
 2799      746D6173 
 2799      6B5F7400 
 2800              	.LASF7:
 2801 0337 5F5F696E 		.ascii	"__int32_t\000"
 2801      7433325F 
 2801      7400
 2802              	.LASF161:
 2803 0341 6368544D 		.ascii	"chTMChainMeasurementToX\000"
 2803      43686169 
 2803      6E4D6561 
 2803      73757265 
 2803      6D656E74 
 2804              	.LASF113:
 2805 0359 73746B61 		.ascii	"stkalign_t\000"
ARM GAS  /var/tmp//ccrTFpw9.s 			page 53


 2805      6C69676E 
 2805      5F7400
 2806              	.LASF165:
 2807 0364 474E5520 		.ascii	"GNU C99 6.3.1 20170620 (release) [ARM/embedded-6-br"
 2807      43393920 
 2807      362E332E 
 2807      31203230 
 2807      31373036 
 2808 0397 616E6368 		.ascii	"anch revision 249437] -mcpu=cortex-m4 -mfloat-abi=h"
 2808      20726576 
 2808      6973696F 
 2808      6E203234 
 2808      39343337 
 2809 03ca 61726420 		.ascii	"ard -mfpu=fpv4-sp-d16 -mno-thumb-interwork -mthumb "
 2809      2D6D6670 
 2809      753D6670 
 2809      76342D73 
 2809      702D6431 
 2810 03fd 2D676764 		.ascii	"-ggdb -O2 -std=gnu99 -fomit-frame-pointer -falign-f"
 2810      62202D4F 
 2810      32202D73 
 2810      74643D67 
 2810      6E753939 
 2811 0430 756E6374 		.ascii	"unctions=16 -ffunction-sections -fdata-sections -fn"
 2811      696F6E73 
 2811      3D313620 
 2811      2D666675 
 2811      6E637469 
 2812 0463 6F2D636F 		.ascii	"o-common -fsingle-precision-constant\000"
 2812      6D6D6F6E 
 2812      202D6673 
 2812      696E676C 
 2812      652D7072 
 2813              	.LASF52:
 2814 0488 74687265 		.ascii	"threads_list_t\000"
 2814      6164735F 
 2814      6C697374 
 2814      5F7400
 2815              	.LASF139:
 2816 0497 63685F7A 		.ascii	"ch_zero\000"
 2816      65726F00 
 2817              	.LASF153:
 2818 049f 63665F6F 		.ascii	"cf_off_refs\000"
 2818      66665F72 
 2818      65667300 
 2819              	.LASF87:
 2820 04ab 43594343 		.ascii	"CYCCNT\000"
 2820      4E5400
 2821              	.LASF44:
 2822 04b2 705F7761 		.ascii	"p_waiting\000"
 2822      6974696E 
 2822      6700
 2823              	.LASF85:
 2824 04bc 73697A65 		.ascii	"sizetype\000"
 2824      74797065 
 2824      00
 2825              	.LASF74:
ARM GAS  /var/tmp//ccrTFpw9.s 			page 54


 2826 04c5 63685F76 		.ascii	"ch_virtual_timers_list\000"
 2826      69727475 
 2826      616C5F74 
 2826      696D6572 
 2826      735F6C69 
 2827              	.LASF143:
 2828 04dc 63685F74 		.ascii	"ch_timesize\000"
 2828      696D6573 
 2828      697A6500 
 2829              	.LASF117:
 2830 04e8 746D5F63 		.ascii	"tm_calibration_t\000"
 2830      616C6962 
 2830      72617469 
 2830      6F6E5F74 
 2830      00
 2831              	.LASF149:
 2832 04f9 63665F6F 		.ascii	"cf_off_name\000"
 2832      66665F6E 
 2832      616D6500 
 2833              	.LASF37:
 2834 0505 705F6F6C 		.ascii	"p_older\000"
 2834      64657200 
 2835              	.LASF61:
 2836 050d 725F6374 		.ascii	"r_ctx\000"
 2836      7800
 2837              	.LASF35:
 2838 0513 705F6374 		.ascii	"p_ctx\000"
 2838      7800
 2839              	.LASF98:
 2840 0519 434F4D50 		.ascii	"COMP1\000"
 2840      3100
 2841              	.LASF102:
 2842 051f 434F4D50 		.ascii	"COMP2\000"
 2842      3200
 2843              	.LASF106:
 2844 0525 434F4D50 		.ascii	"COMP3\000"
 2844      3300
 2845              	.LASF64:
 2846 052b 725F6375 		.ascii	"r_current\000"
 2846      7272656E 
 2846      7400
 2847              	.LASF63:
 2848 0535 725F6F6C 		.ascii	"r_older\000"
 2848      64657200 
 2849              	.LASF12:
 2850 053d 5F5F7569 		.ascii	"__uint64_t\000"
 2850      6E743634 
 2850      5F7400
 2851              	.LASF121:
 2852 0548 63756D75 		.ascii	"cumulative\000"
 2852      6C617469 
 2852      766500
 2853              	.LASF23:
 2854 0553 74726566 		.ascii	"trefs_t\000"
 2854      735F7400 
 2855              	.LASF97:
 2856 055b 52455345 		.ascii	"RESERVED0\000"
ARM GAS  /var/tmp//ccrTFpw9.s 			page 55


 2856      52564544 
 2856      3000
 2857              	.LASF142:
 2858 0565 63685F70 		.ascii	"ch_ptrsize\000"
 2858      74727369 
 2858      7A6500
 2859              	.LASF105:
 2860 0570 52455345 		.ascii	"RESERVED2\000"
 2860      52564544 
 2860      3200
 2861              	.LASF66:
 2862 057a 76697274 		.ascii	"virtual_timer_t\000"
 2862      75616C5F 
 2862      74696D65 
 2862      725F7400 
 2863              	.LASF33:
 2864 058a 705F7072 		.ascii	"p_prev\000"
 2864      657600
 2865              	.LASF25:
 2866 0591 74707269 		.ascii	"tprio_t\000"
 2866      6F5F7400 
 2867              	.LASF93:
 2868 0599 50435352 		.ascii	"PCSR\000"
 2868      00
 2869              	.LASF95:
 2870 059e 4D41534B 		.ascii	"MASK0\000"
 2870      3000
 2871              	.LASF99:
 2872 05a4 4D41534B 		.ascii	"MASK1\000"
 2872      3100
 2873              	.LASF16:
 2874 05aa 696E7433 		.ascii	"int32_t\000"
 2874      325F7400 
 2875              	.LASF2:
 2876 05b2 756E7369 		.ascii	"unsigned char\000"
 2876      676E6564 
 2876      20636861 
 2876      7200
 2877              	.LASF110:
 2878 05c0 49544D5F 		.ascii	"ITM_RxBuffer\000"
 2878      52784275 
 2878      66666572 
 2878      00
 2879              	.LASF96:
 2880 05cd 46554E43 		.ascii	"FUNCTION0\000"
 2880      54494F4E 
 2880      3000
 2881              	.LASF100:
 2882 05d7 46554E43 		.ascii	"FUNCTION1\000"
 2882      54494F4E 
 2882      3100
 2883              	.LASF104:
 2884 05e1 46554E43 		.ascii	"FUNCTION2\000"
 2884      54494F4E 
 2884      3200
 2885              	.LASF108:
 2886 05eb 46554E43 		.ascii	"FUNCTION3\000"
ARM GAS  /var/tmp//ccrTFpw9.s 			page 56


 2886      54494F4E 
 2886      3300
 2887              	.LASF3:
 2888 05f5 73686F72 		.ascii	"short int\000"
 2888      7420696E 
 2888      7400
 2889              	.LASF39:
 2890 05ff 705F7374 		.ascii	"p_state\000"
 2890      61746500 
 2891              	.LASF42:
 2892 0607 705F7072 		.ascii	"p_preempt\000"
 2892      65656D70 
 2892      7400
 2893              	.LASF60:
 2894 0611 725F7072 		.ascii	"r_prio\000"
 2894      696F00
 2895              	.LASF129:
 2896 0618 65776D61 		.ascii	"ewmask\000"
 2896      736B00
 2897              	.LASF32:
 2898 061f 705F6E65 		.ascii	"p_next\000"
 2898      787400
 2899              	.LASF21:
 2900 0626 746D6F64 		.ascii	"tmode_t\000"
 2900      655F7400 
 2901              	.LASF154:
 2902 062e 63665F6F 		.ascii	"cf_off_preempt\000"
 2902      66665F70 
 2902      7265656D 
 2902      707400
 2903              	.LASF40:
 2904 063d 705F666C 		.ascii	"p_flags\000"
 2904      61677300 
 2905              	.LASF80:
 2906 0645 63685F73 		.ascii	"ch_system\000"
 2906      79737465 
 2906      6D00
 2907              	.LASF55:
 2908 064f 74687265 		.ascii	"threads_queue_t\000"
 2908      6164735F 
 2908      71756575 
 2908      655F7400 
 2909              	.LASF101:
 2910 065f 52455345 		.ascii	"RESERVED1\000"
 2910      52564544 
 2910      3100
 2911              	.LASF147:
 2912 0669 63665F6F 		.ascii	"cf_off_newer\000"
 2912      66665F6E 
 2912      65776572 
 2912      00
 2913              	.LASF130:
 2914 0676 63685F73 		.ascii	"ch_semaphore\000"
 2914      656D6170 
 2914      686F7265 
 2914      00
 2915              	.LASF47:
ARM GAS  /var/tmp//ccrTFpw9.s 			page 57


 2916 0683 705F6570 		.ascii	"p_epending\000"
 2916      656E6469 
 2916      6E6700
 2917              	.LASF91:
 2918 068e 4C535543 		.ascii	"LSUCNT\000"
 2918      4E5400
 2919              	.LASF17:
 2920 0695 75696E74 		.ascii	"uint32_t\000"
 2920      33325F74 
 2920      00
 2921              	.LASF145:
 2922 069e 63665F6F 		.ascii	"cf_off_prio\000"
 2922      66665F70 
 2922      72696F00 
 2923              	.LASF59:
 2924 06aa 725F7175 		.ascii	"r_queue\000"
 2924      65756500 
 2925              	.LASF54:
 2926 06b2 63685F74 		.ascii	"ch_threads_list\000"
 2926      68726561 
 2926      64735F6C 
 2926      69737400 
 2927              	.LASF140:
 2928 06c2 63685F73 		.ascii	"ch_size\000"
 2928      697A6500 
 2929              	.LASF24:
 2930 06ca 74736C69 		.ascii	"tslices_t\000"
 2930      6365735F 
 2930      7400
 2931              	.LASF10:
 2932 06d4 6C6F6E67 		.ascii	"long unsigned int\000"
 2932      20756E73 
 2932      69676E65 
 2932      6420696E 
 2932      7400
 2933              	.LASF137:
 2934 06e6 63686172 		.ascii	"char\000"
 2934      00
 2935              	.LASF128:
 2936 06eb 77746D74 		.ascii	"wtmtxp\000"
 2936      787000
 2937              	.LASF46:
 2938 06f2 705F6D73 		.ascii	"p_msg\000"
 2938      6700
 2939              	.LASF5:
 2940 06f8 5F5F7569 		.ascii	"__uint16_t\000"
 2940      6E743136 
 2940      5F7400
 2941              	.LASF31:
 2942 0703 74687265 		.ascii	"thread_t\000"
 2942      61645F74 
 2942      00
 2943              	.LASF170:
 2944 070c 706F7274 		.ascii	"port_rt_get_counter_value\000"
 2944      5F72745F 
 2944      6765745F 
 2944      636F756E 
ARM GAS  /var/tmp//ccrTFpw9.s 			page 58


 2944      7465725F 
 2945              	.LASF136:
 2946 0726 6D5F6E65 		.ascii	"m_next\000"
 2946      787400
 2947              	.LASF30:
 2948 072d 73797374 		.ascii	"systime_t\000"
 2948      696D655F 
 2948      7400
 2949              	.LASF49:
 2950 0737 705F7265 		.ascii	"p_realprio\000"
 2950      616C7072 
 2950      696F00
 2951              	.LASF65:
 2952 0742 76746675 		.ascii	"vtfunc_t\000"
 2952      6E635F74 
 2952      00
 2953              	.LASF9:
 2954 074b 5F5F7569 		.ascii	"__uint32_t\000"
 2954      6E743332 
 2954      5F7400
 2955              	.LASF78:
 2956 0756 70616E69 		.ascii	"panic_msg\000"
 2956      635F6D73 
 2956      6700
 2957              	.LASF116:
 2958 0760 6F666673 		.ascii	"offset\000"
 2958      657400
 2959              	.LASF114:
 2960 0767 636F6E74 		.ascii	"context\000"
 2960      65787400 
 2961              	.LASF109:
 2962 076f 4457545F 		.ascii	"DWT_Type\000"
 2962      54797065 
 2962      00
 2963              	.LASF79:
 2964 0778 63685F73 		.ascii	"ch_system_t\000"
 2964      79737465 
 2964      6D5F7400 
 2965              	.LASF67:
 2966 0784 63685F76 		.ascii	"ch_virtual_timer\000"
 2966      69727475 
 2966      616C5F74 
 2966      696D6572 
 2966      00
 2967              	.LASF19:
 2968 0795 7274636E 		.ascii	"rtcnt_t\000"
 2968      745F7400 
 2969              	.LASF86:
 2970 079d 4354524C 		.ascii	"CTRL\000"
 2970      00
 2971              	.LASF72:
 2972 07a2 76745F70 		.ascii	"vt_par\000"
 2972      617200
 2973              	.LASF94:
 2974 07a9 434F4D50 		.ascii	"COMP0\000"
 2974      3000
 2975              	.LASF146:
ARM GAS  /var/tmp//ccrTFpw9.s 			page 59


 2976 07af 63665F6F 		.ascii	"cf_off_ctx\000"
 2976      66665F63 
 2976      747800
 2977              	.LASF133:
 2978 07ba 63685F6D 		.ascii	"ch_mutex\000"
 2978      75746578 
 2978      00
 2979              	.LASF41:
 2980 07c3 705F7265 		.ascii	"p_refs\000"
 2980      667300
 2981              	.LASF81:
 2982 07ca 726C6973 		.ascii	"rlist\000"
 2982      7400
 2983              	.LASF14:
 2984 07d0 75696E74 		.ascii	"uint8_t\000"
 2984      385F7400 
 2985              	.LASF92:
 2986 07d8 464F4C44 		.ascii	"FOLDCNT\000"
 2986      434E5400 
 2987              	.LASF51:
 2988 07e0 74687265 		.ascii	"thread_reference_t\000"
 2988      61645F72 
 2988      65666572 
 2988      656E6365 
 2988      5F7400
 2989              	.LASF125:
 2990 07f3 77746F62 		.ascii	"wtobjp\000"
 2990      6A7000
 2991              	.LASF38:
 2992 07fa 705F6E61 		.ascii	"p_name\000"
 2992      6D6500
 2993              	.LASF75:
 2994 0801 76745F73 		.ascii	"vt_systime\000"
 2994      79737469 
 2994      6D6500
 2995              	.LASF141:
 2996 080c 63685F76 		.ascii	"ch_version\000"
 2996      65727369 
 2996      6F6E00
 2997              	.LASF135:
 2998 0817 6D5F6F77 		.ascii	"m_owner\000"
 2998      6E657200 
 2999              	.LASF71:
 3000 081f 76745F66 		.ascii	"vt_func\000"
 3000      756E6300 
 3001              	.LASF164:
 3002 0827 5F746D5F 		.ascii	"_tm_init\000"
 3002      696E6974 
 3002      00
 3003              		.ident	"GCC: (GNU Tools for ARM Embedded Processors 6-2017-q2-update) 6.3.1 20170620 (release) [AR
ARM GAS  /var/tmp//ccrTFpw9.s 			page 60


DEFINED SYMBOLS
                            *ABS*:0000000000000000 chtm.c
/var/tmp//ccrTFpw9.s:18     .text.chTMObjectInit:0000000000000000 $t
/var/tmp//ccrTFpw9.s:26     .text.chTMObjectInit:0000000000000000 chTMObjectInit
/var/tmp//ccrTFpw9.s:52     .text.chTMStartMeasurementX:0000000000000000 $t
/var/tmp//ccrTFpw9.s:60     .text.chTMStartMeasurementX:0000000000000000 chTMStartMeasurementX
/var/tmp//ccrTFpw9.s:82     .text.chTMStartMeasurementX:0000000000000008 $d
/var/tmp//ccrTFpw9.s:87     .text.chTMStopMeasurementX:0000000000000000 $t
/var/tmp//ccrTFpw9.s:95     .text.chTMStopMeasurementX:0000000000000000 chTMStopMeasurementX
/var/tmp//ccrTFpw9.s:202    .text.chTMStopMeasurementX:0000000000000040 $d
/var/tmp//ccrTFpw9.s:208    .text._tm_init:0000000000000000 $t
/var/tmp//ccrTFpw9.s:216    .text._tm_init:0000000000000000 _tm_init
/var/tmp//ccrTFpw9.s:286    .text._tm_init:0000000000000034 $d
/var/tmp//ccrTFpw9.s:291    .text.chTMChainMeasurementToX:0000000000000000 $t
/var/tmp//ccrTFpw9.s:299    .text.chTMChainMeasurementToX:0000000000000000 chTMChainMeasurementToX
/var/tmp//ccrTFpw9.s:398    .text.chTMChainMeasurementToX:000000000000003c $d
                     .debug_frame:0000000000000010 $d

UNDEFINED SYMBOLS
ch
