ARM GAS  /var/tmp//ccrTFpw9.s 			page 1


   1              		.cpu cortex-m4
   2              		.eabi_attribute 27, 1
   3              		.eabi_attribute 28, 1
   4              		.eabi_attribute 20, 1
   5              		.eabi_attribute 21, 1
   6              		.eabi_attribute 23, 3
   7              		.eabi_attribute 24, 1
   8              		.eabi_attribute 25, 1
   9              		.eabi_attribute 26, 1
  10              		.eabi_attribute 30, 2
  11              		.eabi_attribute 34, 1
  12              		.eabi_attribute 18, 4
  13              		.file	"chtm.c"
  14              		.text
  15              	.Ltext0:
  16              		.cfi_sections	.debug_frame
  17              		.section	.text.chTMObjectInit,"ax",%progbits
  18              		.align	1
  19              		.p2align 4,,15
  20              		.global	chTMObjectInit
  21              		.syntax unified
  22              		.thumb
  23              		.thumb_func
  24              		.fpu fpv4-sp-d16
  25              		.type	chTMObjectInit, %function
  26              	chTMObjectInit:
  27              	.LFB221:
  28              		.file 1 "ChibiOS_3.0.2/os/rt/src/chtm.c"
  29              		.loc 1 99 0
  30              		.cfi_startproc
  31              		@ args = 0, pretend = 0, frame = 0
  32              		@ frame_needed = 0, uses_anonymous_args = 0
  33              		@ link register save eliminated.
  34              	.LVL0:
  35              		.loc 1 105 0
  36 0000 0022     		movs	r2, #0
  37 0002 0023     		movs	r3, #0
  38 0004 C0E90423 		strd	r2, [r0, #16]
  39              		.loc 1 102 0
  40 0008 0023     		movs	r3, #0
  41 000a 4FF0FF32 		mov	r2, #-1
  42 000e 80E80C00 		stm	r0, {r2, r3}
  43              		.loc 1 103 0
  44 0012 8360     		str	r3, [r0, #8]
  45              		.loc 1 104 0
  46 0014 C360     		str	r3, [r0, #12]
  47 0016 7047     		bx	lr
  48              		.cfi_endproc
  49              	.LFE221:
  50              		.size	chTMObjectInit, .-chTMObjectInit
  51              		.section	.text.chTMStartMeasurementX,"ax",%progbits
  52              		.align	1
  53              		.p2align 4,,15
  54              		.global	chTMStartMeasurementX
  55              		.syntax unified
  56              		.thumb
  57              		.thumb_func
ARM GAS  /var/tmp//ccrTFpw9.s 			page 2


  58              		.fpu fpv4-sp-d16
  59              		.type	chTMStartMeasurementX, %function
  60              	chTMStartMeasurementX:
  61              	.LFB222:
  62              		.loc 1 116 0
  63              		.cfi_startproc
  64              		@ args = 0, pretend = 0, frame = 0
  65              		@ frame_needed = 0, uses_anonymous_args = 0
  66              		@ link register save eliminated.
  67              	.LVL1:
  68              	.LBB14:
  69              	.LBB15:
  70              		.file 2 "ChibiOS_3.0.2/os/rt/ports/ARMCMx/chcore_v7m.h"
  71              		.loc 2 548 0
  72 0000 014B     		ldr	r3, .L3
  73 0002 5B68     		ldr	r3, [r3, #4]
  74              	.LBE15:
  75              	.LBE14:
  76              		.loc 1 118 0
  77 0004 8360     		str	r3, [r0, #8]
  78 0006 7047     		bx	lr
  79              	.L4:
  80              		.align	2
  81              	.L3:
  82 0008 001000E0 		.word	-536866816
  83              		.cfi_endproc
  84              	.LFE222:
  85              		.size	chTMStartMeasurementX, .-chTMStartMeasurementX
  86              		.section	.text.chTMStopMeasurementX,"ax",%progbits
  87              		.align	1
  88              		.p2align 4,,15
  89              		.global	chTMStopMeasurementX
  90              		.syntax unified
  91              		.thumb
  92              		.thumb_func
  93              		.fpu fpv4-sp-d16
  94              		.type	chTMStopMeasurementX, %function
  95              	chTMStopMeasurementX:
  96              	.LFB223:
  97              		.loc 1 129 0
  98              		.cfi_startproc
  99              		@ args = 0, pretend = 0, frame = 0
 100              		@ frame_needed = 0, uses_anonymous_args = 0
 101              		@ link register save eliminated.
 102              	.LVL2:
 103              	.LBB16:
 104              	.LBB17:
 105              		.loc 2 548 0
 106 0000 0F4B     		ldr	r3, .L11
 107              	.LBE17:
 108              	.LBE16:
 109              		.loc 1 131 0
 110 0002 104A     		ldr	r2, .L11+4
 111              	.LBB19:
 112              	.LBB18:
 113              		.loc 2 548 0
 114 0004 5B68     		ldr	r3, [r3, #4]
ARM GAS  /var/tmp//ccrTFpw9.s 			page 3


 115              	.LBE18:
 116              	.LBE19:
 117              	.LBB20:
 118              	.LBB21:
 119              		.loc 1 57 0
 120 0006 C168     		ldr	r1, [r0, #12]
 121              	.LBE21:
 122              	.LBE20:
 123              		.loc 1 129 0
 124 0008 F0B4     		push	{r4, r5, r6, r7}
 125              		.cfi_def_cfa_offset 16
 126              		.cfi_offset 4, -16
 127              		.cfi_offset 5, -12
 128              		.cfi_offset 6, -8
 129              		.cfi_offset 7, -4
 130              	.LBB25:
 131              	.LBB22:
 132              		.loc 1 58 0
 133 000a 8768     		ldr	r7, [r0, #8]
 134              	.LBE22:
 135              	.LBE25:
 136              		.loc 1 131 0
 137 000c 966F     		ldr	r6, [r2, #120]
 138              	.LVL3:
 139              	.LBB26:
 140              	.LBB23:
 141              		.loc 1 61 0
 142 000e 4268     		ldr	r2, [r0, #4]
 143              		.loc 1 59 0
 144 0010 D0E90445 		ldrd	r4, [r0, #16]
 145              		.loc 1 58 0
 146 0014 DB1B     		subs	r3, r3, r7
 147 0016 9B1B     		subs	r3, r3, r6
 148              		.loc 1 59 0
 149 0018 E418     		adds	r4, r4, r3
 150 001a 45F10005 		adc	r5, r5, #0
 151              		.loc 1 57 0
 152 001e 0131     		adds	r1, r1, #1
 153              		.loc 1 61 0
 154 0020 9342     		cmp	r3, r2
 155              		.loc 1 57 0
 156 0022 C160     		str	r1, [r0, #12]
 157              		.loc 1 58 0
 158 0024 8360     		str	r3, [r0, #8]
 159              		.loc 1 59 0
 160 0026 C0E90445 		strd	r4, [r0, #16]
 161              		.loc 1 61 0
 162 002a 05D8     		bhi	.L10
 163              		.loc 1 64 0
 164 002c 0268     		ldr	r2, [r0]
 165 002e 9342     		cmp	r3, r2
 166              		.loc 1 65 0
 167 0030 38BF     		it	cc
 168 0032 0360     		strcc	r3, [r0]
 169              	.LVL4:
 170              	.LBE23:
 171              	.LBE26:
ARM GAS  /var/tmp//ccrTFpw9.s 			page 4


 172              		.loc 1 132 0
 173 0034 F0BC     		pop	{r4, r5, r6, r7}
 174              		.cfi_remember_state
 175              		.cfi_restore 7
 176              		.cfi_restore 6
 177              		.cfi_restore 5
 178              		.cfi_restore 4
 179              		.cfi_def_cfa_offset 0
 180 0036 7047     		bx	lr
 181              	.LVL5:
 182              	.L10:
 183              		.cfi_restore_state
 184              	.LBB27:
 185              	.LBB24:
 186              		.loc 1 62 0
 187 0038 4360     		str	r3, [r0, #4]
 188              	.LBE24:
 189              	.LBE27:
 190              		.loc 1 132 0
 191 003a F0BC     		pop	{r4, r5, r6, r7}
 192              		.cfi_restore 4
 193              		.cfi_restore 5
 194              		.cfi_restore 6
 195              		.cfi_restore 7
 196              		.cfi_def_cfa_offset 0
 197              	.LVL6:
 198 003c 7047     		bx	lr
 199              	.L12:
 200 003e 00BF     		.align	2
 201              	.L11:
 202 0040 001000E0 		.word	-536866816
 203 0044 00000000 		.word	ch
 204              		.cfi_endproc
 205              	.LFE223:
 206              		.size	chTMStopMeasurementX, .-chTMStopMeasurementX
 207              		.section	.text._tm_init,"ax",%progbits
 208              		.align	1
 209              		.p2align 4,,15
 210              		.global	_tm_init
 211              		.syntax unified
 212              		.thumb
 213              		.thumb_func
 214              		.fpu fpv4-sp-d16
 215              		.type	_tm_init, %function
 216              	_tm_init:
 217              	.LFB220:
 218              		.loc 1 79 0
 219              		.cfi_startproc
 220              		@ args = 0, pretend = 0, frame = 24
 221              		@ frame_needed = 0, uses_anonymous_args = 0
 222 0000 D0B5     		push	{r4, r6, r7, lr}
 223              		.cfi_def_cfa_offset 16
 224              		.cfi_offset 4, -16
 225              		.cfi_offset 6, -12
 226              		.cfi_offset 7, -8
 227              		.cfi_offset 14, -4
 228              		.loc 1 85 0
ARM GAS  /var/tmp//ccrTFpw9.s 			page 5


 229 0002 0C4C     		ldr	r4, .L15
 230              		.loc 1 79 0
 231 0004 86B0     		sub	sp, sp, #24
 232              		.cfi_def_cfa_offset 40
 233              		.loc 1 85 0
 234 0006 0023     		movs	r3, #0
 235              	.LBB28:
 236              	.LBB29:
 237              		.loc 1 101 0
 238 0008 4FF0FF32 		mov	r2, #-1
 239              	.LBE29:
 240              	.LBE28:
 241              		.loc 1 87 0
 242 000c 6846     		mov	r0, sp
 243              	.LBB32:
 244              	.LBB30:
 245              		.loc 1 105 0
 246 000e 0026     		movs	r6, #0
 247 0010 0027     		movs	r7, #0
 248              	.LBE30:
 249              	.LBE32:
 250              		.loc 1 85 0
 251 0012 A367     		str	r3, [r4, #120]
 252              	.LVL7:
 253              	.LBB33:
 254              	.LBB31:
 255              		.loc 1 102 0
 256 0014 0193     		str	r3, [sp, #4]
 257              		.loc 1 103 0
 258 0016 0293     		str	r3, [sp, #8]
 259              		.loc 1 104 0
 260 0018 0393     		str	r3, [sp, #12]
 261              		.loc 1 101 0
 262 001a 0092     		str	r2, [sp]
 263              		.loc 1 105 0
 264 001c CDE90467 		strd	r6, [sp, #16]
 265              	.LVL8:
 266              	.LBE31:
 267              	.LBE33:
 268              		.loc 1 87 0
 269 0020 FFF7FEFF 		bl	chTMStartMeasurementX
 270              	.LVL9:
 271              		.loc 1 88 0
 272 0024 6846     		mov	r0, sp
 273 0026 FFF7FEFF 		bl	chTMStopMeasurementX
 274              	.LVL10:
 275              		.loc 1 89 0
 276 002a 029B     		ldr	r3, [sp, #8]
 277 002c A367     		str	r3, [r4, #120]
 278              		.loc 1 90 0
 279 002e 06B0     		add	sp, sp, #24
 280              		.cfi_def_cfa_offset 16
 281              		@ sp needed
 282 0030 D0BD     		pop	{r4, r6, r7, pc}
 283              	.L16:
 284 0032 00BF     		.align	2
 285              	.L15:
ARM GAS  /var/tmp//ccrTFpw9.s 			page 6


 286 0034 00000000 		.word	ch
 287              		.cfi_endproc
 288              	.LFE220:
 289              		.size	_tm_init, .-_tm_init
 290              		.section	.text.chTMChainMeasurementToX,"ax",%progbits
 291              		.align	1
 292              		.p2align 4,,15
 293              		.global	chTMChainMeasurementToX
 294              		.syntax unified
 295              		.thumb
 296              		.thumb_func
 297              		.fpu fpv4-sp-d16
 298              		.type	chTMChainMeasurementToX, %function
 299              	chTMChainMeasurementToX:
 300              	.LFB224:
 301              		.loc 1 147 0
 302              		.cfi_startproc
 303              		@ args = 0, pretend = 0, frame = 0
 304              		@ frame_needed = 0, uses_anonymous_args = 0
 305              		@ link register save eliminated.
 306              	.LVL11:
 307              	.LBB34:
 308              	.LBB35:
 309              		.loc 2 548 0
 310 0000 0E4B     		ldr	r3, .L22
 311              	.LBE35:
 312              	.LBE34:
 313              	.LBB37:
 314              	.LBB38:
 315              		.loc 1 61 0
 316 0002 4268     		ldr	r2, [r0, #4]
 317              	.LBE38:
 318              	.LBE37:
 319              	.LBB41:
 320              	.LBB36:
 321              		.loc 2 548 0
 322 0004 5B68     		ldr	r3, [r3, #4]
 323              	.LBE36:
 324              	.LBE41:
 325              		.loc 1 147 0
 326 0006 70B4     		push	{r4, r5, r6}
 327              		.cfi_def_cfa_offset 12
 328              		.cfi_offset 4, -12
 329              		.cfi_offset 5, -8
 330              		.cfi_offset 6, -4
 331              		.loc 1 150 0
 332 0008 8B60     		str	r3, [r1, #8]
 333              	.LVL12:
 334              	.LBB42:
 335              	.LBB39:
 336              		.loc 1 59 0
 337 000a D0E90445 		ldrd	r4, [r0, #16]
 338              		.loc 1 58 0
 339 000e 8668     		ldr	r6, [r0, #8]
 340              		.loc 1 57 0
 341 0010 C168     		ldr	r1, [r0, #12]
 342              	.LVL13:
ARM GAS  /var/tmp//ccrTFpw9.s 			page 7


 343              		.loc 1 58 0
 344 0012 9B1B     		subs	r3, r3, r6
 345              	.LVL14:
 346              		.loc 1 59 0
 347 0014 E418     		adds	r4, r4, r3
 348 0016 45F10005 		adc	r5, r5, #0
 349              		.loc 1 57 0
 350 001a 0131     		adds	r1, r1, #1
 351              		.loc 1 61 0
 352 001c 9342     		cmp	r3, r2
 353              		.loc 1 57 0
 354 001e C160     		str	r1, [r0, #12]
 355              		.loc 1 58 0
 356 0020 8360     		str	r3, [r0, #8]
 357              	.LVL15:
 358              		.loc 1 59 0
 359 0022 C0E90445 		strd	r4, [r0, #16]
 360              		.loc 1 61 0
 361 0026 05D8     		bhi	.L21
 362              		.loc 1 64 0
 363 0028 0268     		ldr	r2, [r0]
 364 002a 9342     		cmp	r3, r2
 365              		.loc 1 65 0
 366 002c 38BF     		it	cc
 367 002e 0360     		strcc	r3, [r0]
 368              	.LVL16:
 369              	.LBE39:
 370              	.LBE42:
 371              		.loc 1 154 0
 372 0030 70BC     		pop	{r4, r5, r6}
 373              		.cfi_remember_state
 374              		.cfi_restore 6
 375              		.cfi_restore 5
 376              		.cfi_restore 4
 377              		.cfi_def_cfa_offset 0
 378 0032 7047     		bx	lr
 379              	.LVL17:
 380              	.L21:
 381              		.cfi_restore_state
 382              	.LBB43:
 383              	.LBB40:
 384              		.loc 1 62 0
 385 0034 4360     		str	r3, [r0, #4]
 386              	.LBE40:
 387              	.LBE43:
 388              		.loc 1 154 0
 389 0036 70BC     		pop	{r4, r5, r6}
 390              		.cfi_restore 4
 391              		.cfi_restore 5
 392              		.cfi_restore 6
 393              		.cfi_def_cfa_offset 0
 394 0038 7047     		bx	lr
 395              	.L23:
 396 003a 00BF     		.align	2
 397              	.L22:
 398 003c 001000E0 		.word	-536866816
 399              		.cfi_endproc
ARM GAS  /var/tmp//ccrTFpw9.s 			page 8


 400              	.LFE224:
 401              		.size	chTMChainMeasurementToX, .-chTMChainMeasurementToX
 402              		.text
 403              	.Letext0:
 404              		.file 3 "/usr/local/gcc_arm/gcc-arm-none-eabi-6-2017-q2-update/arm-none-eabi/include/machine/_defa
 405              		.file 4 "/usr/local/gcc_arm/gcc-arm-none-eabi-6-2017-q2-update/arm-none-eabi/include/sys/_stdint.h
 406              		.file 5 "ChibiOS_3.0.2/os/rt/ports/ARMCMx/compilers/GCC/chtypes.h"
 407              		.file 6 "ChibiOS_3.0.2/os/rt/include/chsystypes.h"
 408              		.file 7 "ChibiOS_3.0.2/os/rt/include/chschd.h"
 409              		.file 8 "ChibiOS_3.0.2/os/ext/CMSIS/include/core_cm4.h"
 410              		.file 9 "ChibiOS_3.0.2/os/ext/CMSIS/ST/system_stm32f4xx.h"
 411              		.file 10 "ChibiOS_3.0.2/os/rt/ports/ARMCMx/chcore.h"
 412              		.file 11 "ChibiOS_3.0.2/os/rt/include/chtm.h"
 413              		.file 12 "ChibiOS_3.0.2/os/rt/include/chsem.h"
 414              		.file 13 "ChibiOS_3.0.2/os/rt/include/chmtx.h"
 415              		.file 14 "ChibiOS_3.0.2/os/rt/include/chregistry.h"