ARM GAS  C:\Users\Grillmo\AppData\Local\Temp\ccS6YODD.s 			page 1


   1              		.cpu cortex-m4
   2              		.eabi_attribute 27, 1
   3              		.eabi_attribute 28, 1
   4              		.eabi_attribute 20, 1
   5              		.eabi_attribute 21, 1
   6              		.eabi_attribute 23, 3
   7              		.eabi_attribute 24, 1
   8              		.eabi_attribute 25, 1
   9              		.eabi_attribute 26, 1
  10              		.eabi_attribute 30, 2
  11              		.eabi_attribute 34, 1
  12              		.eabi_attribute 18, 4
  13              		.file	"comm_can.c"
  14              		.text
  15              	.Ltext0:
  16              		.cfi_sections	.debug_frame
  17              		.section	.text.cancom_process_thread,"ax",%progbits
  18              		.align	1
  19              		.p2align 4,,15
  20              		.syntax unified
  21              		.thumb
  22              		.thumb_func
  23              		.fpu fpv4-sp-d16
  24              		.type	cancom_process_thread, %function
  25              	cancom_process_thread:
  26              	.LFB258:
  27              		.file 1 "comm_can.c"
  28              		.loc 1 135 0
  29              		.cfi_startproc
  30              		@ args = 0, pretend = 0, frame = 32
  31              		@ frame_needed = 0, uses_anonymous_args = 0
  32              	.LVL0:
  33 0000 2DE9F04F 		push	{r4, r5, r6, r7, r8, r9, r10, fp, lr}
  34              		.cfi_def_cfa_offset 36
  35              		.cfi_offset 4, -36
  36              		.cfi_offset 5, -32
  37              		.cfi_offset 6, -28
  38              		.cfi_offset 7, -24
  39              		.cfi_offset 8, -20
  40              		.cfi_offset 9, -16
  41              		.cfi_offset 10, -12
  42              		.cfi_offset 11, -8
  43              		.cfi_offset 14, -4
  44              	.LBB65:
  45              	.LBB66:
  46              		.file 2 "ChibiOS_3.0.2/os/rt/include/chregistry.h"
  47              		.loc 2 135 0
  48 0004 DFF85CA3 		ldr	r10, .L42+44
  49 0008 CB4A     		ldr	r2, .L42
  50 000a DAF81830 		ldr	r3, [r10, #24]
  51              	.LBE66:
  52              	.LBE65:
  53              		.loc 1 139 0
  54 000e CB49     		ldr	r1, .L42+4
  55 0010 CB4C     		ldr	r4, .L42+8
  56 0012 CC4E     		ldr	r6, .L42+12
  57 0014 CC4F     		ldr	r7, .L42+16
ARM GAS  C:\Users\Grillmo\AppData\Local\Temp\ccS6YODD.s 			page 2


  58 0016 CD4D     		ldr	r5, .L42+20
  59 0018 DFF84C83 		ldr	r8, .L42+48
  60              		.loc 1 135 0
  61 001c 2DED048B 		vpush.64	{d8, d9}
  62              		.cfi_def_cfa_offset 52
  63              		.cfi_offset 80, -52
  64              		.cfi_offset 81, -48
  65              		.cfi_offset 82, -44
  66              		.cfi_offset 83, -40
  67 0020 89B0     		sub	sp, sp, #36
  68              		.cfi_def_cfa_offset 88
  69              	.LBB68:
  70              	.LBB67:
  71              		.loc 2 135 0
  72 0022 9A61     		str	r2, [r3, #24]
  73              	.LVL1:
  74              	.LBE67:
  75              	.LBE68:
  76              	.LBB69:
  77              	.LBB70:
  78              	.LBB71:
  79              		.loc 1 270 0
  80 0024 9FEDCA8A 		vldr.32	s16, .L42+24
  81              	.LBE71:
  82              		.loc 1 251 0
  83 0028 DFEDCA8A 		vldr.32	s17, .L42+28
  84              		.loc 1 187 0
  85 002c 9FEDCA9A 		vldr.32	s18, .L42+32
  86              	.LBE70:
  87              	.LBE69:
  88              		.loc 1 139 0
  89 0030 0B60     		str	r3, [r1]
  90              		.loc 1 141 0
  91 0032 0022     		movs	r2, #0
  92 0034 0292     		str	r2, [sp, #8]
  93              	.LVL2:
  94              	.L3:
  95              		.loc 1 149 0
  96 0036 0120     		movs	r0, #1
  97 0038 FFF7FEFF 		bl	chEvtWaitAny
  98              	.LVL3:
  99              		.loc 1 151 0
 100 003c D4F800C0 		ldr	ip, [r4]
 101              	.L39:
 102 0040 3368     		ldr	r3, [r6]
 103 0042 6345     		cmp	r3, ip
 104 0044 F7D0     		beq	.L3
 105              	.LBB90:
 106              		.loc 1 152 0
 107 0046 0CEB8C0E 		add	lr, ip, ip, lsl #2
 108 004a 07EB8E0E 		add	lr, r7, lr, lsl #2
 109 004e BEE80F00 		ldmia	lr!, {r0, r1, r2, r3}
 110 0052 0DF10C09 		add	r9, sp, #12
 111 0056 A9E80F00 		stmia	r9!, {r0, r1, r2, r3}
 112              		.loc 1 154 0
 113 005a 9DF81020 		ldrb	r2, [sp, #16]	@ zero_extendqisi2
 114              		.loc 1 152 0
ARM GAS  C:\Users\Grillmo\AppData\Local\Temp\ccS6YODD.s 			page 3


 115 005e DEF80030 		ldr	r3, [lr]
 116 0062 C9F80030 		str	r3, [r9]
 117              		.loc 1 154 0
 118 0066 9106     		lsls	r1, r2, #26
 119              		.loc 1 152 0
 120 0068 0CF10103 		add	r3, ip, #1
 121 006c 2360     		str	r3, [r4]
 122              		.loc 1 154 0
 123 006e 29D5     		bpl	.L4
 124              	.LBB87:
 125              		.loc 1 155 0
 126 0070 059B     		ldr	r3, [sp, #20]
 127 0072 C3F31C03 		ubfx	r3, r3, #0, #29
 128 0076 5FFA83F9 		uxtb	r9, r3
 129              	.LVL4:
 130              		.loc 1 159 0
 131 007a B9F1FF0F 		cmp	r9, #255
 132              		.loc 1 156 0
 133 007e 4FEA232B 		asr	fp, r3, #8
 134              	.LVL5:
 135              		.loc 1 159 0
 136 0082 2ED0     		beq	.L19
 137              		.loc 1 159 0 is_stmt 0 discriminator 1
 138 0084 FFF7FEFF 		bl	app_get_configuration
 139              	.LVL6:
 140 0088 0378     		ldrb	r3, [r0]	@ zero_extendqisi2
 141 008a 4B45     		cmp	r3, r9
 142 008c 29D0     		beq	.L19
 143 008e 5FFA8BF3 		uxtb	r3, fp
 144              	.L6:
 145              		.loc 1 260 0 is_stmt 1
 146 0092 092B     		cmp	r3, #9
 147 0094 0DD1     		bne	.L40
 148 0096 0023     		movs	r3, #0
 149 0098 1A46     		mov	r2, r3
 150              	.L30:
 151              	.LVL7:
 152              	.LBB85:
 153              		.loc 1 264 0
 154 009a E958     		ldr	r1, [r5, r3]
 155 009c 4945     		cmp	r1, r9
 156 009e 03F11403 		add	r3, r3, #20
 157 00a2 00F01181 		beq	.L28
 158              		.loc 1 264 0 is_stmt 0 discriminator 1
 159 00a6 0131     		adds	r1, r1, #1
 160 00a8 00F00E81 		beq	.L28
 161              		.loc 1 262 0 is_stmt 1 discriminator 2
 162 00ac 0132     		adds	r2, r2, #1
 163              	.LVL8:
 164 00ae 0A2A     		cmp	r2, #10
 165 00b0 F3D1     		bne	.L30
 166              	.LVL9:
 167              	.L40:
 168 00b2 D4F800C0 		ldr	ip, [r4]
 169              	.L27:
 170              	.LBE85:
 171              	.LBE87:
ARM GAS  C:\Users\Grillmo\AppData\Local\Temp\ccS6YODD.s 			page 4


 172              		.loc 1 285 0
 173 00b6 BCF1640F 		cmp	ip, #100
 174 00ba C1D1     		bne	.L39
 175              		.loc 1 286 0
 176 00bc 0023     		movs	r3, #0
 177 00be 2360     		str	r3, [r4]
 178 00c0 9C46     		mov	ip, r3
 179 00c2 BDE7     		b	.L39
 180              	.L4:
 181              		.loc 1 280 0
 182 00c4 D8F80090 		ldr	r9, [r8]
 183 00c8 B9F1000F 		cmp	r9, #0
 184 00cc 00F0FA80 		beq	.L34
 185              		.loc 1 281 0
 186 00d0 BDF81400 		ldrh	r0, [sp, #20]
 187 00d4 02F00F02 		and	r2, r2, #15
 188 00d8 C0F30A00 		ubfx	r0, r0, #0, #11
 189 00dc 06A9     		add	r1, sp, #24
 190 00de C847     		blx	r9
 191              	.LVL10:
 192 00e0 E7E7     		b	.L40
 193              	.LVL11:
 194              	.L19:
 195 00e2 5FFA8BF3 		uxtb	r3, fp
 196              	.LBB88:
 197              		.loc 1 160 0
 198 00e6 0B2B     		cmp	r3, #11
 199 00e8 D3D8     		bhi	.L6
 200 00ea 01A2     		adr	r2, .L8
 201 00ec 52F823F0 		ldr	pc, [r2, r3, lsl #2]
 202              		.p2align 2
 203              	.L8:
 204 00f0 41020000 		.word	.L7+1
 205 00f4 1F020000 		.word	.L9+1
 206 00f8 81020000 		.word	.L10+1
 207 00fc 63020000 		.word	.L11+1
 208 0100 A3020000 		.word	.L12+1
 209 0104 03020000 		.word	.L13+1
 210 0108 DB010000 		.word	.L14+1
 211 010c 7F010000 		.word	.L15+1
 212 0110 55010000 		.word	.L16+1
 213 0114 93000000 		.word	.L6+1
 214 0118 3B010000 		.word	.L17+1
 215 011c 21010000 		.word	.L18+1
 216              		.p2align 1
 217              	.L18:
 218              		.loc 1 250 0
 219 0120 0023     		movs	r3, #0
 220              		.loc 1 251 0
 221 0122 02A9     		add	r1, sp, #8
 222 0124 06A8     		add	r0, sp, #24
 223 0126 B0EE680A 		vmov.f32	s0, s17
 224              		.loc 1 250 0
 225 012a 0293     		str	r3, [sp, #8]
 226              		.loc 1 251 0
 227 012c FFF7FEFF 		bl	buffer_get_float32
 228              	.LVL12:
ARM GAS  C:\Users\Grillmo\AppData\Local\Temp\ccS6YODD.s 			page 5


 229 0130 FFF7FEFF 		bl	mc_interface_set_brake_current_rel
 230              	.LVL13:
 231              		.loc 1 252 0
 232 0134 FFF7FEFF 		bl	timeout_reset
 233              	.LVL14:
 234              		.loc 1 253 0
 235 0138 BBE7     		b	.L40
 236              	.L17:
 237              		.loc 1 244 0
 238 013a 0023     		movs	r3, #0
 239              		.loc 1 245 0
 240 013c 02A9     		add	r1, sp, #8
 241 013e 06A8     		add	r0, sp, #24
 242 0140 B0EE680A 		vmov.f32	s0, s17
 243              		.loc 1 244 0
 244 0144 0293     		str	r3, [sp, #8]
 245              		.loc 1 245 0
 246 0146 FFF7FEFF 		bl	buffer_get_float32
 247              	.LVL15:
 248 014a FFF7FEFF 		bl	mc_interface_set_current_rel
 249              	.LVL16:
 250              		.loc 1 246 0
 251 014e FFF7FEFF 		bl	timeout_reset
 252              	.LVL17:
 253              		.loc 1 247 0
 254 0152 AEE7     		b	.L40
 255              	.L16:
 256              		.loc 1 232 0
 257 0154 8149     		ldr	r1, .L42+36
 258 0156 9DF81820 		ldrb	r2, [sp, #24]	@ zero_extendqisi2
 259              		.loc 1 235 0
 260 015a 9DF81930 		ldrb	r3, [sp, #25]	@ zero_extendqisi2
 261              		.loc 1 232 0
 262 015e 0A60     		str	r2, [r1]
 263              		.loc 1 233 0
 264 0160 0222     		movs	r2, #2
 265 0162 0292     		str	r2, [sp, #8]
 266              	.LVL18:
 267              		.loc 1 235 0
 268 0164 002B     		cmp	r3, #0
 269 0166 00F00181 		beq	.L24
 270              		.loc 1 236 0
 271 016a 9DF81010 		ldrb	r1, [sp, #16]	@ zero_extendqisi2
 272 016e 01F00F01 		and	r1, r1, #15
 273 0172 0239     		subs	r1, r1, #2
 274 0174 0DF11A00 		add	r0, sp, #26
 275 0178 FFF7FEFF 		bl	commands_send_packet
 276              	.LVL19:
 277 017c 99E7     		b	.L40
 278              	.L15:
 279              		.loc 1 207 0
 280 017e 9DF81A30 		ldrb	r3, [sp, #26]	@ zero_extendqisi2
 281              		.loc 1 208 0
 282 0182 9DF81B90 		ldrb	r9, [sp, #27]	@ zero_extendqisi2
 283              	.LVL20:
 284              		.loc 1 205 0
 285 0186 7549     		ldr	r1, .L42+36
ARM GAS  C:\Users\Grillmo\AppData\Local\Temp\ccS6YODD.s 			page 6


 286 0188 9DF81820 		ldrb	r2, [sp, #24]	@ zero_extendqisi2
 287 018c 0A60     		str	r2, [r1]
 288              		.loc 1 208 0
 289 018e 49EA0329 		orr	r9, r9, r3, lsl #8
 290              		.loc 1 210 0
 291 0192 B9F5806F 		cmp	r9, #1024
 292              		.loc 1 208 0
 293 0196 4FF00403 		mov	r3, #4
 294 019a 0293     		str	r3, [sp, #8]
 295              		.loc 1 206 0
 296 019c 9DF819B0 		ldrb	fp, [sp, #25]	@ zero_extendqisi2
 297              	.LVL21:
 298              		.loc 1 210 0
 299 01a0 87D8     		bhi	.L40
 300              		.loc 1 215 0
 301 01a2 0623     		movs	r3, #6
 302              		.loc 1 214 0
 303 01a4 9DF81C20 		ldrb	r2, [sp, #28]	@ zero_extendqisi2
 304              		.loc 1 215 0
 305 01a8 0293     		str	r3, [sp, #8]
 306              		.loc 1 217 0
 307 01aa 4946     		mov	r1, r9
 308              		.loc 1 215 0
 309 01ac 9DF81D30 		ldrb	r3, [sp, #29]	@ zero_extendqisi2
 310              		.loc 1 217 0
 311 01b0 6B48     		ldr	r0, .L42+40
 312              		.loc 1 214 0
 313 01b2 0192     		str	r2, [sp, #4]
 314              	.LVL22:
 315              		.loc 1 215 0
 316 01b4 0093     		str	r3, [sp]
 317              	.LVL23:
 318              		.loc 1 217 0
 319 01b6 FFF7FEFF 		bl	crc16
 320              	.LVL24:
 321              		.loc 1 219 0
 322 01ba 009B     		ldr	r3, [sp]
 323 01bc 019A     		ldr	r2, [sp, #4]
 324 01be 43EA0223 		orr	r3, r3, r2, lsl #8
 325              		.loc 1 217 0
 326 01c2 9842     		cmp	r0, r3
 327 01c4 7FF475AF 		bne	.L40
 328              		.loc 1 221 0
 329 01c8 BBF1000F 		cmp	fp, #0
 330 01cc 00F0DC80 		beq	.L23
 331              		.loc 1 222 0
 332 01d0 4946     		mov	r1, r9
 333 01d2 6348     		ldr	r0, .L42+40
 334 01d4 FFF7FEFF 		bl	commands_send_packet
 335              	.LVL25:
 336 01d8 6BE7     		b	.L40
 337              	.LVL26:
 338              	.L14:
 339 01da BDF81800 		ldrh	r0, [sp, #24]
 340 01de 40BA     		rev16	r0, r0
 341 01e0 80B2     		uxth	r0, r0
 342              	.LVL27:
ARM GAS  C:\Users\Grillmo\AppData\Local\Temp\ccS6YODD.s 			page 7


 343              		.loc 1 198 0
 344 01e2 B0F5806F 		cmp	r0, #1024
 345 01e6 BFF464AF 		bcs	.L40
 346              		.loc 1 199 0
 347 01ea 9DF81020 		ldrb	r2, [sp, #16]	@ zero_extendqisi2
 348 01ee 5C4B     		ldr	r3, .L42+40
 349 01f0 02F00F02 		and	r2, r2, #15
 350 01f4 1844     		add	r0, r0, r3
 351 01f6 023A     		subs	r2, r2, #2
 352 01f8 0DF11A01 		add	r1, sp, #26
 353 01fc FFF7FEFF 		bl	memcpy
 354              	.LVL28:
 355 0200 57E7     		b	.L40
 356              	.L13:
 357              		.loc 1 192 0
 358 0202 9DF81020 		ldrb	r2, [sp, #16]	@ zero_extendqisi2
 359 0206 9DF81800 		ldrb	r0, [sp, #24]	@ zero_extendqisi2
 360 020a 554B     		ldr	r3, .L42+40
 361 020c 02F00F02 		and	r2, r2, #15
 362 0210 013A     		subs	r2, r2, #1
 363 0212 1844     		add	r0, r0, r3
 364 0214 0DF11901 		add	r1, sp, #25
 365 0218 FFF7FEFF 		bl	memcpy
 366              	.LVL29:
 367              		.loc 1 193 0
 368 021c 49E7     		b	.L40
 369              	.L9:
 370              		.loc 1 168 0
 371 021e 0023     		movs	r3, #0
 372              		.loc 1 169 0
 373 0220 02A9     		add	r1, sp, #8
 374 0222 06A8     		add	r0, sp, #24
 375              		.loc 1 168 0
 376 0224 0293     		str	r3, [sp, #8]
 377              		.loc 1 169 0
 378 0226 FFF7FEFF 		bl	buffer_get_int32
 379              	.LVL30:
 380 022a 07EE900A 		vmov	s15, r0	@ int
 381 022e B8EEE70A 		vcvt.f32.s32	s0, s15
 382 0232 80EE080A 		vdiv.f32	s0, s0, s16
 383 0236 FFF7FEFF 		bl	mc_interface_set_current
 384              	.LVL31:
 385              		.loc 1 170 0
 386 023a FFF7FEFF 		bl	timeout_reset
 387              	.LVL32:
 388              		.loc 1 171 0
 389 023e 38E7     		b	.L40
 390              	.L7:
 391              		.loc 1 162 0
 392 0240 0023     		movs	r3, #0
 393              		.loc 1 163 0
 394 0242 02A9     		add	r1, sp, #8
 395 0244 06A8     		add	r0, sp, #24
 396              		.loc 1 162 0
 397 0246 0293     		str	r3, [sp, #8]
 398              		.loc 1 163 0
 399 0248 FFF7FEFF 		bl	buffer_get_int32
ARM GAS  C:\Users\Grillmo\AppData\Local\Temp\ccS6YODD.s 			page 8


 400              	.LVL33:
 401 024c 07EE900A 		vmov	s15, r0	@ int
 402 0250 B8EEE70A 		vcvt.f32.s32	s0, s15
 403 0254 80EE280A 		vdiv.f32	s0, s0, s17
 404 0258 FFF7FEFF 		bl	mc_interface_set_duty
 405              	.LVL34:
 406              		.loc 1 164 0
 407 025c FFF7FEFF 		bl	timeout_reset
 408              	.LVL35:
 409              		.loc 1 165 0
 410 0260 27E7     		b	.L40
 411              	.L11:
 412              		.loc 1 180 0
 413 0262 0023     		movs	r3, #0
 414              		.loc 1 181 0
 415 0264 02A9     		add	r1, sp, #8
 416 0266 06A8     		add	r0, sp, #24
 417              		.loc 1 180 0
 418 0268 0293     		str	r3, [sp, #8]
 419              		.loc 1 181 0
 420 026a FFF7FEFF 		bl	buffer_get_int32
 421              	.LVL36:
 422 026e 07EE900A 		vmov	s15, r0	@ int
 423 0272 B8EEE70A 		vcvt.f32.s32	s0, s15
 424 0276 FFF7FEFF 		bl	mc_interface_set_pid_speed
 425              	.LVL37:
 426              		.loc 1 182 0
 427 027a FFF7FEFF 		bl	timeout_reset
 428              	.LVL38:
 429              		.loc 1 183 0
 430 027e 18E7     		b	.L40
 431              	.L10:
 432              		.loc 1 174 0
 433 0280 0023     		movs	r3, #0
 434              		.loc 1 175 0
 435 0282 02A9     		add	r1, sp, #8
 436 0284 06A8     		add	r0, sp, #24
 437              		.loc 1 174 0
 438 0286 0293     		str	r3, [sp, #8]
 439              		.loc 1 175 0
 440 0288 FFF7FEFF 		bl	buffer_get_int32
 441              	.LVL39:
 442 028c 07EE900A 		vmov	s15, r0	@ int
 443 0290 B8EEE70A 		vcvt.f32.s32	s0, s15
 444 0294 80EE080A 		vdiv.f32	s0, s0, s16
 445 0298 FFF7FEFF 		bl	mc_interface_set_brake_current
 446              	.LVL40:
 447              		.loc 1 176 0
 448 029c FFF7FEFF 		bl	timeout_reset
 449              	.LVL41:
 450              		.loc 1 177 0
 451 02a0 07E7     		b	.L40
 452              	.L12:
 453              		.loc 1 186 0
 454 02a2 0023     		movs	r3, #0
 455              		.loc 1 187 0
 456 02a4 02A9     		add	r1, sp, #8
ARM GAS  C:\Users\Grillmo\AppData\Local\Temp\ccS6YODD.s 			page 9


 457 02a6 06A8     		add	r0, sp, #24
 458              		.loc 1 186 0
 459 02a8 0293     		str	r3, [sp, #8]
 460              		.loc 1 187 0
 461 02aa FFF7FEFF 		bl	buffer_get_int32
 462              	.LVL42:
 463 02ae 07EE900A 		vmov	s15, r0	@ int
 464 02b2 B8EEE70A 		vcvt.f32.s32	s0, s15
 465 02b6 80EE090A 		vdiv.f32	s0, s0, s18
 466 02ba FFF7FEFF 		bl	mc_interface_set_pid_pos
 467              	.LVL43:
 468              		.loc 1 188 0
 469 02be FFF7FEFF 		bl	timeout_reset
 470              	.LVL44:
 471              		.loc 1 189 0
 472 02c2 F6E6     		b	.L40
 473              	.LVL45:
 474              	.L34:
 475              	.LBE88:
 476 02c4 9C46     		mov	ip, r3
 477 02c6 F6E6     		b	.L27
 478              	.LVL46:
 479              	.L28:
 480              	.LBB89:
 481              	.LBB86:
 482              		.loc 1 266 0
 483 02c8 02EB8202 		add	r2, r2, r2, lsl #2
 484              	.LVL47:
 485              		.loc 1 265 0
 486 02cc 0023     		movs	r3, #0
 487              		.loc 1 266 0
 488 02ce 45F82290 		str	r9, [r5, r2, lsl #2]
 489              	.LVL48:
 490              		.loc 1 265 0
 491 02d2 0293     		str	r3, [sp, #8]
 492              		.loc 1 266 0
 493 02d4 05EB8209 		add	r9, r5, r2, lsl #2
 494              	.LVL49:
 495              	.LBB72:
 496              	.LBB73:
 497              	.LBB74:
 498              	.LBB75:
 499              	.LBB76:
 500              	.LBB77:
 501              		.file 3 "ChibiOS_3.0.2/os/ext/CMSIS/include/core_cmFunc.h"
 502              		.loc 3 546 0
 503 02d8 2022     		movs	r2, #32
 504              	.LVL50:
 505              		.syntax unified
 506              	@ 546 "ChibiOS_3.0.2/os/ext/CMSIS/include/core_cmFunc.h" 1
 507 02da 82F31188 		MSR basepri, r2
 508              	@ 0 "" 2
 509              	.LVL51:
 510              		.thumb
 511              		.syntax unified
 512              	.LBE77:
 513              	.LBE76:
ARM GAS  C:\Users\Grillmo\AppData\Local\Temp\ccS6YODD.s 			page 10


 514              	.LBE75:
 515              	.LBE74:
 516              	.LBB78:
 517              	.LBB79:
 518              		.file 4 "ChibiOS_3.0.2/os/rt/include/chvt.h"
 519              		.loc 4 231 0
 520 02de DAF82820 		ldr	r2, [r10, #40]
 521              	.LVL52:
 522              	.LBE79:
 523              	.LBE78:
 524              	.LBB80:
 525              	.LBB81:
 526              	.LBB82:
 527              	.LBB83:
 528              	.LBB84:
 529              		.loc 3 546 0
 530              		.syntax unified
 531              	@ 546 "ChibiOS_3.0.2/os/ext/CMSIS/include/core_cmFunc.h" 1
 532 02e2 83F31188 		MSR basepri, r3
 533              	@ 0 "" 2
 534              	.LVL53:
 535              		.thumb
 536              		.syntax unified
 537              	.LBE84:
 538              	.LBE83:
 539              	.LBE82:
 540              	.LBE81:
 541              	.LBE80:
 542              	.LBE73:
 543              	.LBE72:
 544              		.loc 1 267 0
 545 02e6 C9F80420 		str	r2, [r9, #4]
 546              		.loc 1 268 0
 547 02ea 02A9     		add	r1, sp, #8
 548 02ec 06A8     		add	r0, sp, #24
 549 02ee FFF7FEFF 		bl	buffer_get_int32
 550              	.LVL54:
 551 02f2 07EE900A 		vmov	s15, r0	@ int
 552 02f6 F8EEE77A 		vcvt.f32.s32	s15, s15
 553              		.loc 1 269 0
 554 02fa 02A9     		add	r1, sp, #8
 555              		.loc 1 268 0
 556 02fc C9ED027A 		vstr.32	s15, [r9, #8]
 557              		.loc 1 269 0
 558 0300 06A8     		add	r0, sp, #24
 559 0302 FFF7FEFF 		bl	buffer_get_int16
 560              	.LVL55:
 561 0306 07EE900A 		vmov	s15, r0	@ int
 562 030a F8EEE76A 		vcvt.f32.s32	s13, s15
 563 030e B2EE047A 		vmov.f32	s14, #1.0e+1
 564 0312 C6EE877A 		vdiv.f32	s15, s13, s14
 565              		.loc 1 270 0
 566 0316 02A9     		add	r1, sp, #8
 567 0318 06A8     		add	r0, sp, #24
 568              		.loc 1 269 0
 569 031a C9ED037A 		vstr.32	s15, [r9, #12]
 570              		.loc 1 270 0
ARM GAS  C:\Users\Grillmo\AppData\Local\Temp\ccS6YODD.s 			page 11


 571 031e FFF7FEFF 		bl	buffer_get_int16
 572              	.LVL56:
 573 0322 07EE900A 		vmov	s15, r0	@ int
 574 0326 B8EEE77A 		vcvt.f32.s32	s14, s15
 575 032a D4F800C0 		ldr	ip, [r4]
 576 032e C7EE087A 		vdiv.f32	s15, s14, s16
 577 0332 C9ED047A 		vstr.32	s15, [r9, #16]
 578              		.loc 1 271 0
 579 0336 BEE6     		b	.L27
 580              	.L43:
 581              		.align	2
 582              	.L42:
 583 0338 00000000 		.word	.LC0
 584 033c 00000000 		.word	.LANCHOR0
 585 0340 00000000 		.word	.LANCHOR1
 586 0344 00000000 		.word	.LANCHOR2
 587 0348 00000000 		.word	.LANCHOR3
 588 034c 00000000 		.word	.LANCHOR6
 589 0350 00007A44 		.word	1148846080
 590 0354 0050C347 		.word	1203982336
 591 0358 00247449 		.word	1232348160
 592 035c 00000000 		.word	.LANCHOR5
 593 0360 00000000 		.word	.LANCHOR4
 594 0364 00000000 		.word	ch
 595 0368 00000000 		.word	.LANCHOR7
 596              	.LVL57:
 597              	.L24:
 598              	.LBE86:
 599              		.loc 1 238 0
 600 036c 0A48     		ldr	r0, .L44
 601 036e FFF7FEFF 		bl	commands_set_send_func
 602              	.LVL58:
 603              		.loc 1 239 0
 604 0372 9DF81010 		ldrb	r1, [sp, #16]	@ zero_extendqisi2
 605 0376 0298     		ldr	r0, [sp, #8]
 606 0378 06AB     		add	r3, sp, #24
 607 037a 01F00F01 		and	r1, r1, #15
 608 037e 091A     		subs	r1, r1, r0
 609 0380 1844     		add	r0, r0, r3
 610 0382 FFF7FEFF 		bl	commands_process_packet
 611              	.LVL59:
 612 0386 94E6     		b	.L40
 613              	.LVL60:
 614              	.L23:
 615              		.loc 1 224 0
 616 0388 0348     		ldr	r0, .L44
 617 038a FFF7FEFF 		bl	commands_set_send_func
 618              	.LVL61:
 619              		.loc 1 225 0
 620 038e 4946     		mov	r1, r9
 621 0390 0248     		ldr	r0, .L44+4
 622 0392 FFF7FEFF 		bl	commands_process_packet
 623              	.LVL62:
 624 0396 8CE6     		b	.L40
 625              	.L45:
 626              		.align	2
 627              	.L44:
ARM GAS  C:\Users\Grillmo\AppData\Local\Temp\ccS6YODD.s 			page 12


 628 0398 00000000 		.word	send_packet_wrapper
 629 039c 00000000 		.word	.LANCHOR4
 630              	.LBE89:
 631              	.LBE90:
 632              		.cfi_endproc
 633              	.LFE258:
 634              		.size	cancom_process_thread, .-cancom_process_thread
 635              		.section	.text.cancom_read_thread,"ax",%progbits
 636              		.align	1
 637              		.p2align 4,,15
 638              		.syntax unified
 639              		.thumb
 640              		.thumb_func
 641              		.fpu fpv4-sp-d16
 642              		.type	cancom_read_thread, %function
 643              	cancom_read_thread:
 644              	.LFB257:
 645              		.loc 1 104 0
 646              		.cfi_startproc
 647              		@ args = 0, pretend = 0, frame = 40
 648              		@ frame_needed = 0, uses_anonymous_args = 0
 649              	.LVL63:
 650 0000 2DE9F047 		push	{r4, r5, r6, r7, r8, r9, r10, lr}
 651              		.cfi_def_cfa_offset 32
 652              		.cfi_offset 4, -32
 653              		.cfi_offset 5, -28
 654              		.cfi_offset 6, -24
 655              		.cfi_offset 7, -20
 656              		.cfi_offset 8, -16
 657              		.cfi_offset 9, -12
 658              		.cfi_offset 10, -8
 659              		.cfi_offset 14, -4
 660              	.LBB91:
 661              	.LBB92:
 662              		.loc 2 135 0
 663 0004 DFF8BCA0 		ldr	r10, .L60+20
 664 0008 294A     		ldr	r2, .L60
 665 000a DAF81830 		ldr	r3, [r10, #24]
 666              	.LBE92:
 667              	.LBE91:
 668              	.LBB94:
 669              	.LBB95:
 670              	.LBB96:
 671              		.file 5 "ChibiOS_3.0.2/os/rt/include/chevents.h"
 672              		.loc 5 193 0
 673 000e 2948     		ldr	r0, .L60+4
 674              	.LVL64:
 675              	.LBE96:
 676              	.LBE95:
 677              	.LBE94:
 678              	.LBB99:
 679              	.LBB93:
 680              		.loc 2 135 0
 681 0010 9A61     		str	r2, [r3, #24]
 682              	.LVL65:
 683              	.LBE93:
 684              	.LBE99:
ARM GAS  C:\Users\Grillmo\AppData\Local\Temp\ccS6YODD.s 			page 13


 685              		.loc 1 104 0
 686 0012 8AB0     		sub	sp, sp, #40
 687              		.cfi_def_cfa_offset 72
 688              	.LVL66:
 689              	.LBB100:
 690              	.LBB98:
 691              	.LBB97:
 692              		.loc 5 193 0
 693 0014 6946     		mov	r1, sp
 694 0016 4FF0FF33 		mov	r3, #-1
 695 001a 0122     		movs	r2, #1
 696 001c FFF7FEFF 		bl	chEvtRegisterMaskWithFlags
 697              	.LVL67:
 698              	.LBE97:
 699              	.LBE98:
 700              	.LBE100:
 701              	.LBB101:
 702              		.loc 1 118 0
 703 0020 254E     		ldr	r6, .L60+8
 704 0022 264D     		ldr	r5, .L60+12
 705 0024 DFF8A080 		ldr	r8, .L60+24
 706              	.L48:
 707              	.LBE101:
 708              	.LBB102:
 709              	.LBB103:
 710              		.file 6 "ChibiOS_3.0.2/os/rt/include/chthreads.h"
 711              		.loc 6 233 0
 712 0028 DAF81830 		ldr	r3, [r10, #24]
 713              	.LBE103:
 714              	.LBE102:
 715              		.loc 1 113 0
 716 002c 5B7F     		ldrb	r3, [r3, #29]	@ zero_extendqisi2
 717 002e 13F00404 		ands	r4, r3, #4
 718 0032 36D1     		bne	.L59
 719              	.L52:
 720              	.LBB105:
 721              		.loc 1 114 0
 722 0034 6421     		movs	r1, #100
 723 0036 4FF0FF30 		mov	r0, #-1
 724 003a FFF7FEFF 		bl	chEvtWaitAnyTimeout
 725              	.LVL68:
 726 003e 0028     		cmp	r0, #0
 727 0040 F2D0     		beq	.L48
 728              		.loc 1 118 0
 729 0042 05AA     		add	r2, sp, #20
 730 0044 2346     		mov	r3, r4
 731 0046 2146     		mov	r1, r4
 732 0048 3046     		mov	r0, r6
 733 004a FFF7FEFF 		bl	canReceive
 734              	.LVL69:
 735              		.loc 1 120 0
 736 004e 0028     		cmp	r0, #0
 737 0050 EAD1     		bne	.L48
 738 0052 1B4F     		ldr	r7, .L60+16
 739              		.loc 1 123 0
 740 0054 8146     		mov	r9, r0
 741              	.L49:
ARM GAS  C:\Users\Grillmo\AppData\Local\Temp\ccS6YODD.s 			page 14


 742              	.LVL70:
 743              		.loc 1 121 0
 744 0056 05AC     		add	r4, sp, #20
 745 0058 0FCC     		ldmia	r4!, {r0, r1, r2, r3}
 746 005a D5F800E0 		ldr	lr, [r5]
 747 005e D4F800C0 		ldr	ip, [r4]
 748 0062 0EEB8E04 		add	r4, lr, lr, lsl #2
 749 0066 08EB8404 		add	r4, r8, r4, lsl #2
 750 006a 0FC4     		stmia	r4!, {r0, r1, r2, r3}
 751              		.loc 1 126 0
 752 006c 0121     		movs	r1, #1
 753              		.loc 1 121 0
 754 006e 0EEB0103 		add	r3, lr, r1
 755              		.loc 1 122 0
 756 0072 642B     		cmp	r3, #100
 757              		.loc 1 126 0
 758 0074 3868     		ldr	r0, [r7]
 759              		.loc 1 121 0
 760 0076 2B60     		str	r3, [r5]
 761 0078 C4F800C0 		str	ip, [r4]
 762              		.loc 1 123 0
 763 007c 08BF     		it	eq
 764 007e C5F80090 		streq	r9, [r5]
 765              		.loc 1 126 0
 766 0082 FFF7FEFF 		bl	chEvtSignal
 767              	.LVL71:
 768              		.loc 1 128 0
 769 0086 0023     		movs	r3, #0
 770 0088 1946     		mov	r1, r3
 771 008a 05AA     		add	r2, sp, #20
 772 008c 3046     		mov	r0, r6
 773 008e FFF7FEFF 		bl	canReceive
 774              	.LVL72:
 775              		.loc 1 120 0
 776 0092 0028     		cmp	r0, #0
 777 0094 DFD0     		beq	.L49
 778              	.LBE105:
 779              	.LBB106:
 780              	.LBB104:
 781              		.loc 6 233 0
 782 0096 DAF81830 		ldr	r3, [r10, #24]
 783              	.LBE104:
 784              	.LBE106:
 785              		.loc 1 113 0
 786 009a 5B7F     		ldrb	r3, [r3, #29]	@ zero_extendqisi2
 787 009c 13F00404 		ands	r4, r3, #4
 788 00a0 C8D0     		beq	.L52
 789              	.LVL73:
 790              	.L59:
 791              		.loc 1 132 0
 792 00a2 6946     		mov	r1, sp
 793 00a4 0348     		ldr	r0, .L60+4
 794              	.LVL74:
 795 00a6 FFF7FEFF 		bl	chEvtUnregister
 796              	.LVL75:
 797              		.loc 1 133 0
 798 00aa 0AB0     		add	sp, sp, #40
ARM GAS  C:\Users\Grillmo\AppData\Local\Temp\ccS6YODD.s 			page 15


 799              		.cfi_def_cfa_offset 32
 800              	.LVL76:
 801              		@ sp needed
 802 00ac BDE8F087 		pop	{r4, r5, r6, r7, r8, r9, r10, pc}
 803              	.LVL77:
 804              	.L61:
 805              		.align	2
 806              	.L60:
 807 00b0 00000000 		.word	.LC1
 808 00b4 18000000 		.word	CAND1+24
 809 00b8 00000000 		.word	CAND1
 810 00bc 00000000 		.word	.LANCHOR2
 811 00c0 00000000 		.word	.LANCHOR0
 812 00c4 00000000 		.word	ch
 813 00c8 00000000 		.word	.LANCHOR3
 814              		.cfi_endproc
 815              	.LFE257:
 816              		.size	cancom_read_thread, .-cancom_read_thread
 817              		.section	.text.comm_can_init,"ax",%progbits
 818              		.align	1
 819              		.p2align 4,,15
 820              		.global	comm_can_init
 821              		.syntax unified
 822              		.thumb
 823              		.thumb_func
 824              		.fpu fpv4-sp-d16
 825              		.type	comm_can_init, %function
 826              	comm_can_init:
 827              	.LFB256:
 828              		.loc 1 75 0
 829              		.cfi_startproc
 830              		@ args = 0, pretend = 0, frame = 0
 831              		@ frame_needed = 0, uses_anonymous_args = 0
 832              	.LVL78:
 833 0000 10B5     		push	{r4, lr}
 834              		.cfi_def_cfa_offset 8
 835              		.cfi_offset 4, -8
 836              		.cfi_offset 14, -4
 837 0002 1E49     		ldr	r1, .L66
 838 0004 82B0     		sub	sp, sp, #8
 839              		.cfi_def_cfa_offset 16
 840              		.loc 1 75 0
 841 0006 0023     		movs	r3, #0
 842              	.LBB107:
 843              		.loc 1 77 0
 844 0008 4FF0FF32 		mov	r2, #-1
 845              	.LVL79:
 846              	.L63:
 847              		.loc 1 77 0 is_stmt 0 discriminator 3
 848 000c CA50     		str	r2, [r1, r3]
 849 000e 1433     		adds	r3, r3, #20
 850              		.loc 1 76 0 is_stmt 1 discriminator 3
 851 0010 C82B     		cmp	r3, #200
 852 0012 FBD1     		bne	.L63
 853              	.LBE107:
 854              		.loc 1 81 0
 855 0014 1A4B     		ldr	r3, .L66+4
ARM GAS  C:\Users\Grillmo\AppData\Local\Temp\ccS6YODD.s 			page 16


 856              		.loc 1 80 0
 857 0016 1B4A     		ldr	r2, .L66+8
 858              		.loc 1 83 0
 859 0018 1B48     		ldr	r0, .L66+12
 860              		.loc 1 80 0
 861 001a 0024     		movs	r4, #0
 862              		.loc 1 81 0
 863 001c 1C60     		str	r4, [r3]
 864              		.loc 1 80 0
 865 001e 1460     		str	r4, [r2]
 866              		.loc 1 83 0
 867 0020 FFF7FEFF 		bl	chMtxObjectInit
 868              	.LVL80:
 869              		.loc 1 85 0
 870 0024 40F28A42 		movw	r2, #1162
 871 0028 4FF48071 		mov	r1, #256
 872 002c 1748     		ldr	r0, .L66+16
 873 002e FFF7FEFF 		bl	_pal_lld_setgroupmode
 874              	.LVL81:
 875              		.loc 1 89 0
 876 0032 40F28A42 		movw	r2, #1162
 877 0036 4FF40071 		mov	r1, #512
 878 003a 1448     		ldr	r0, .L66+16
 879 003c FFF7FEFF 		bl	_pal_lld_setgroupmode
 880              	.LVL82:
 881              		.loc 1 94 0
 882 0040 1349     		ldr	r1, .L66+20
 883 0042 1448     		ldr	r0, .L66+24
 884 0044 FFF7FEFF 		bl	canStart
 885              	.LVL83:
 886              		.loc 1 96 0
 887 0048 0094     		str	r4, [sp]
 888 004a 134B     		ldr	r3, .L66+28
 889 004c 1348     		ldr	r0, .L66+32
 890 004e 4122     		movs	r2, #65
 891 0050 4FF46671 		mov	r1, #920
 892 0054 FFF7FEFF 		bl	chThdCreateStatic
 893              	.LVL84:
 894              		.loc 1 98 0
 895 0058 0094     		str	r4, [sp]
 896 005a 114B     		ldr	r3, .L66+36
 897 005c 1148     		ldr	r0, .L66+40
 898 005e 4022     		movs	r2, #64
 899 0060 4FF4B361 		mov	r1, #1432
 900 0064 FFF7FEFF 		bl	chThdCreateStatic
 901              	.LVL85:
 902              		.loc 1 100 0
 903 0068 0094     		str	r4, [sp]
 904 006a 0F4B     		ldr	r3, .L66+44
 905 006c 0F48     		ldr	r0, .L66+48
 906 006e 4022     		movs	r2, #64
 907 0070 41F29811 		movw	r1, #4504
 908 0074 FFF7FEFF 		bl	chThdCreateStatic
 909              	.LVL86:
 910              		.loc 1 102 0
 911 0078 02B0     		add	sp, sp, #8
 912              		.cfi_def_cfa_offset 8
ARM GAS  C:\Users\Grillmo\AppData\Local\Temp\ccS6YODD.s 			page 17


 913              		@ sp needed
 914 007a 10BD     		pop	{r4, pc}
 915              	.L67:
 916              		.align	2
 917              	.L66:
 918 007c 00000000 		.word	.LANCHOR6
 919 0080 00000000 		.word	.LANCHOR2
 920 0084 00000000 		.word	.LANCHOR1
 921 0088 00000000 		.word	.LANCHOR8
 922 008c 00040240 		.word	1073873920
 923 0090 00000000 		.word	.LANCHOR9
 924 0094 00000000 		.word	CAND1
 925 0098 00000000 		.word	cancom_read_thread
 926 009c 00000000 		.word	.LANCHOR10
 927 00a0 00000000 		.word	cancom_status_thread
 928 00a4 00000000 		.word	.LANCHOR11
 929 00a8 00000000 		.word	cancom_process_thread
 930 00ac 00000000 		.word	.LANCHOR12
 931              		.cfi_endproc
 932              	.LFE256:
 933              		.size	comm_can_init, .-comm_can_init
 934              		.section	.text.comm_can_transmit_eid,"ax",%progbits
 935              		.align	1
 936              		.p2align 4,,15
 937              		.global	comm_can_transmit_eid
 938              		.syntax unified
 939              		.thumb
 940              		.thumb_func
 941              		.fpu fpv4-sp-d16
 942              		.type	comm_can_transmit_eid, %function
 943              	comm_can_transmit_eid:
 944              	.LFB260:
 945              		.loc 1 317 0
 946              		.cfi_startproc
 947              		@ args = 0, pretend = 0, frame = 16
 948              		@ frame_needed = 0, uses_anonymous_args = 0
 949              	.LVL87:
 950 0000 70B5     		push	{r4, r5, r6, lr}
 951              		.cfi_def_cfa_offset 16
 952              		.cfi_offset 4, -16
 953              		.cfi_offset 5, -12
 954              		.cfi_offset 6, -8
 955              		.cfi_offset 14, -4
 956 0002 84B0     		sub	sp, sp, #16
 957              		.cfi_def_cfa_offset 32
 958 0004 082A     		cmp	r2, #8
 959              		.loc 1 324 0
 960 0006 9DF80030 		ldrb	r3, [sp]	@ zero_extendqisi2
 961              		.loc 1 325 0
 962 000a 019E     		ldr	r6, [sp, #4]
 963              		.loc 1 330 0
 964 000c 0F4D     		ldr	r5, .L70
 965              		.loc 1 326 0
 966 000e 43F02003 		orr	r3, r3, #32
 967 0012 28BF     		it	cs
 968 0014 0822     		movcs	r2, #8
 969              	.LVL88:
ARM GAS  C:\Users\Grillmo\AppData\Local\Temp\ccS6YODD.s 			page 18


 970              		.loc 1 327 0
 971 0016 04AC     		add	r4, sp, #16
 972 0018 03F0EF03 		and	r3, r3, #239
 973 001c 62F30303 		bfi	r3, r2, #0, #4
 974 0020 04F8103D 		strb	r3, [r4, #-16]!
 975              		.loc 1 325 0
 976 0024 60F31C06 		bfi	r6, r0, #0, #29
 977              		.loc 1 328 0
 978 0028 02A8     		add	r0, sp, #8
 979              	.LVL89:
 980              		.loc 1 325 0
 981 002a 0196     		str	r6, [sp, #4]
 982              		.loc 1 328 0
 983 002c FFF7FEFF 		bl	memcpy
 984              	.LVL90:
 985              		.loc 1 330 0
 986 0030 2846     		mov	r0, r5
 987 0032 FFF7FEFF 		bl	chMtxLock
 988              	.LVL91:
 989              		.loc 1 331 0
 990 0036 2246     		mov	r2, r4
 991 0038 C823     		movs	r3, #200
 992 003a 0021     		movs	r1, #0
 993 003c 0448     		ldr	r0, .L70+4
 994 003e FFF7FEFF 		bl	canTransmit
 995              	.LVL92:
 996              		.loc 1 332 0
 997 0042 2846     		mov	r0, r5
 998 0044 FFF7FEFF 		bl	chMtxUnlock
 999              	.LVL93:
 1000              		.loc 1 339 0
 1001 0048 04B0     		add	sp, sp, #16
 1002              		.cfi_def_cfa_offset 16
 1003              		@ sp needed
 1004 004a 70BD     		pop	{r4, r5, r6, pc}
 1005              	.L71:
 1006              		.align	2
 1007              	.L70:
 1008 004c 00000000 		.word	.LANCHOR8
 1009 0050 00000000 		.word	CAND1
 1010              		.cfi_endproc
 1011              	.LFE260:
 1012              		.size	comm_can_transmit_eid, .-comm_can_transmit_eid
 1013              		.section	.text.cancom_status_thread,"ax",%progbits
 1014              		.align	1
 1015              		.p2align 4,,15
 1016              		.syntax unified
 1017              		.thumb
 1018              		.thumb_func
 1019              		.fpu fpv4-sp-d16
 1020              		.type	cancom_status_thread, %function
 1021              	cancom_status_thread:
 1022              	.LFB259:
 1023              		.loc 1 292 0
 1024              		.cfi_startproc
 1025              		@ args = 0, pretend = 0, frame = 24
 1026              		@ frame_needed = 0, uses_anonymous_args = 0
ARM GAS  C:\Users\Grillmo\AppData\Local\Temp\ccS6YODD.s 			page 19


 1027              	.LVL94:
 1028 0000 10B5     		push	{r4, lr}
 1029              		.cfi_def_cfa_offset 8
 1030              		.cfi_offset 4, -8
 1031              		.cfi_offset 14, -4
 1032              	.LBB108:
 1033              	.LBB109:
 1034              		.loc 2 135 0
 1035 0002 284B     		ldr	r3, .L80
 1036 0004 284A     		ldr	r2, .L80+4
 1037 0006 9B69     		ldr	r3, [r3, #24]
 1038              	.LBE109:
 1039              	.LBE108:
 1040              		.loc 1 292 0
 1041 0008 2DED028B 		vpush.64	{d8}
 1042              		.cfi_def_cfa_offset 16
 1043              		.cfi_offset 80, -16
 1044              		.cfi_offset 81, -12
 1045              	.LBB111:
 1046              	.LBB112:
 1047              		.loc 1 299 0
 1048 000c 0024     		movs	r4, #0
 1049              	.LBE112:
 1050              	.LBE111:
 1051              		.loc 1 292 0
 1052 000e 86B0     		sub	sp, sp, #24
 1053              		.cfi_def_cfa_offset 40
 1054              	.LBB116:
 1055              	.LBB113:
 1056              		.loc 1 303 0
 1057 0010 DFED268A 		vldr.32	s17, .L80+8
 1058              	.LBE113:
 1059              	.LBE116:
 1060              	.LBB117:
 1061              	.LBB110:
 1062              		.loc 2 135 0
 1063 0014 9A61     		str	r2, [r3, #24]
 1064              	.LBE110:
 1065              	.LBE117:
 1066              	.LBB118:
 1067              	.LBB114:
 1068              		.loc 1 302 0
 1069 0016 B2EE048A 		vmov.f32	s16, #1.0e+1
 1070 001a 0BE0     		b	.L75
 1071              	.LVL95:
 1072              	.L73:
 1073              	.LBE114:
 1074              		.loc 1 308 0
 1075 001c FFF7FEFF 		bl	app_get_configuration
 1076              	.LVL96:
 1077 0020 42F21073 		movw	r3, #10000
 1078 0024 0069     		ldr	r0, [r0, #16]
 1079 0026 B3FBF0F0 		udiv	r0, r3, r0
 1080              	.LVL97:
 1081              		.loc 1 310 0
 1082 002a 0028     		cmp	r0, #0
 1083              	.LVL98:
ARM GAS  C:\Users\Grillmo\AppData\Local\Temp\ccS6YODD.s 			page 20


 1084              		.loc 1 313 0
 1085 002c 08BF     		it	eq
 1086 002e 0120     		moveq	r0, #1
 1087              	.LVL99:
 1088 0030 FFF7FEFF 		bl	chThdSleep
 1089              	.LVL100:
 1090              	.L75:
 1091              		.loc 1 297 0
 1092 0034 FFF7FEFF 		bl	app_get_configuration
 1093              	.LVL101:
 1094 0038 037B     		ldrb	r3, [r0, #12]	@ zero_extendqisi2
 1095 003a 002B     		cmp	r3, #0
 1096 003c EED0     		beq	.L73
 1097              	.LBB115:
 1098              		.loc 1 299 0
 1099 003e 0394     		str	r4, [sp, #12]
 1100              		.loc 1 301 0
 1101 0040 FFF7FEFF 		bl	mc_interface_get_rpm
 1102              	.LVL102:
 1103 0044 FDEEC07A 		vcvt.s32.f32	s15, s0
 1104 0048 03AA     		add	r2, sp, #12
 1105 004a 17EE901A 		vmov	r1, s15	@ int
 1106 004e 04A8     		add	r0, sp, #16
 1107 0050 FFF7FEFF 		bl	buffer_append_int32
 1108              	.LVL103:
 1109              		.loc 1 302 0
 1110 0054 FFF7FEFF 		bl	mc_interface_get_tot_current
 1111              	.LVL104:
 1112 0058 20EE080A 		vmul.f32	s0, s0, s16
 1113 005c 03AA     		add	r2, sp, #12
 1114 005e FDEEC07A 		vcvt.s32.f32	s15, s0
 1115 0062 04A8     		add	r0, sp, #16
 1116 0064 CDED017A 		vstr.32	s15, [sp, #4]	@ int
 1117 0068 BDF90410 		ldrsh	r1, [sp, #4]
 1118 006c FFF7FEFF 		bl	buffer_append_int16
 1119              	.LVL105:
 1120              		.loc 1 303 0
 1121 0070 FFF7FEFF 		bl	mc_interface_get_duty_cycle_now
 1122              	.LVL106:
 1123 0074 20EE280A 		vmul.f32	s0, s0, s17
 1124 0078 03AA     		add	r2, sp, #12
 1125 007a FDEEC07A 		vcvt.s32.f32	s15, s0
 1126 007e 04A8     		add	r0, sp, #16
 1127 0080 CDED017A 		vstr.32	s15, [sp, #4]	@ int
 1128 0084 BDF90410 		ldrsh	r1, [sp, #4]
 1129 0088 FFF7FEFF 		bl	buffer_append_int16
 1130              	.LVL107:
 1131              		.loc 1 304 0
 1132 008c FFF7FEFF 		bl	app_get_configuration
 1133              	.LVL108:
 1134 0090 0078     		ldrb	r0, [r0]	@ zero_extendqisi2
 1135 0092 9DF80C20 		ldrb	r2, [sp, #12]	@ zero_extendqisi2
 1136 0096 40F41060 		orr	r0, r0, #2304
 1137 009a 04A9     		add	r1, sp, #16
 1138 009c FFF7FEFF 		bl	comm_can_transmit_eid
 1139              	.LVL109:
 1140 00a0 BCE7     		b	.L73
ARM GAS  C:\Users\Grillmo\AppData\Local\Temp\ccS6YODD.s 			page 21


 1141              	.L81:
 1142 00a2 00BF     		.align	2
 1143              	.L80:
 1144 00a4 00000000 		.word	ch
 1145 00a8 00000000 		.word	.LC2
 1146 00ac 00007A44 		.word	1148846080
 1147              	.LBE115:
 1148              	.LBE118:
 1149              		.cfi_endproc
 1150              	.LFE259:
 1151              		.size	cancom_status_thread, .-cancom_status_thread
 1152              		.section	.text.comm_can_transmit_sid,"ax",%progbits
 1153              		.align	1
 1154              		.p2align 4,,15
 1155              		.global	comm_can_transmit_sid
 1156              		.syntax unified
 1157              		.thumb
 1158              		.thumb_func
 1159              		.fpu fpv4-sp-d16
 1160              		.type	comm_can_transmit_sid, %function
 1161              	comm_can_transmit_sid:
 1162              	.LFB261:
 1163              		.loc 1 341 0
 1164              		.cfi_startproc
 1165              		@ args = 0, pretend = 0, frame = 16
 1166              		@ frame_needed = 0, uses_anonymous_args = 0
 1167              	.LVL110:
 1168 0000 70B5     		push	{r4, r5, r6, lr}
 1169              		.cfi_def_cfa_offset 16
 1170              		.cfi_offset 4, -16
 1171              		.cfi_offset 5, -12
 1172              		.cfi_offset 6, -8
 1173              		.cfi_offset 14, -4
 1174 0002 84B0     		sub	sp, sp, #16
 1175              		.cfi_def_cfa_offset 32
 1176 0004 082A     		cmp	r2, #8
 1177              		.loc 1 348 0
 1178 0006 9DF80030 		ldrb	r3, [sp]	@ zero_extendqisi2
 1179              		.loc 1 349 0
 1180 000a BDF80460 		ldrh	r6, [sp, #4]
 1181              		.loc 1 354 0
 1182 000e 0F4D     		ldr	r5, .L84
 1183 0010 28BF     		it	cs
 1184 0012 0822     		movcs	r2, #8
 1185              	.LVL111:
 1186              		.loc 1 351 0
 1187 0014 04AC     		add	r4, sp, #16
 1188 0016 03F0CF03 		and	r3, r3, #207
 1189 001a 62F30303 		bfi	r3, r2, #0, #4
 1190 001e 04F8103D 		strb	r3, [r4, #-16]!
 1191              		.loc 1 349 0
 1192 0022 60F30A06 		bfi	r6, r0, #0, #11
 1193              		.loc 1 352 0
 1194 0026 02A8     		add	r0, sp, #8
 1195              	.LVL112:
 1196              		.loc 1 349 0
 1197 0028 ADF80460 		strh	r6, [sp, #4]	@ movhi
ARM GAS  C:\Users\Grillmo\AppData\Local\Temp\ccS6YODD.s 			page 22


 1198              		.loc 1 352 0
 1199 002c FFF7FEFF 		bl	memcpy
 1200              	.LVL113:
 1201              		.loc 1 354 0
 1202 0030 2846     		mov	r0, r5
 1203 0032 FFF7FEFF 		bl	chMtxLock
 1204              	.LVL114:
 1205              		.loc 1 355 0
 1206 0036 2246     		mov	r2, r4
 1207 0038 C823     		movs	r3, #200
 1208 003a 0021     		movs	r1, #0
 1209 003c 0448     		ldr	r0, .L84+4
 1210 003e FFF7FEFF 		bl	canTransmit
 1211              	.LVL115:
 1212              		.loc 1 356 0
 1213 0042 2846     		mov	r0, r5
 1214 0044 FFF7FEFF 		bl	chMtxUnlock
 1215              	.LVL116:
 1216              		.loc 1 363 0
 1217 0048 04B0     		add	sp, sp, #16
 1218              		.cfi_def_cfa_offset 16
 1219              		@ sp needed
 1220 004a 70BD     		pop	{r4, r5, r6, pc}
 1221              	.L85:
 1222              		.align	2
 1223              	.L84:
 1224 004c 00000000 		.word	.LANCHOR8
 1225 0050 00000000 		.word	CAND1
 1226              		.cfi_endproc
 1227              	.LFE261:
 1228              		.size	comm_can_transmit_sid, .-comm_can_transmit_sid
 1229              		.section	.text.comm_can_set_sid_rx_callback,"ax",%progbits
 1230              		.align	1
 1231              		.p2align 4,,15
 1232              		.global	comm_can_set_sid_rx_callback
 1233              		.syntax unified
 1234              		.thumb
 1235              		.thumb_func
 1236              		.fpu fpv4-sp-d16
 1237              		.type	comm_can_set_sid_rx_callback, %function
 1238              	comm_can_set_sid_rx_callback:
 1239              	.LFB262:
 1240              		.loc 1 371 0
 1241              		.cfi_startproc
 1242              		@ args = 0, pretend = 0, frame = 0
 1243              		@ frame_needed = 0, uses_anonymous_args = 0
 1244              		@ link register save eliminated.
 1245              	.LVL117:
 1246              		.loc 1 372 0
 1247 0000 014B     		ldr	r3, .L87
 1248 0002 1860     		str	r0, [r3]
 1249 0004 7047     		bx	lr
 1250              	.L88:
 1251 0006 00BF     		.align	2
 1252              	.L87:
 1253 0008 00000000 		.word	.LANCHOR7
 1254              		.cfi_endproc
ARM GAS  C:\Users\Grillmo\AppData\Local\Temp\ccS6YODD.s 			page 23


 1255              	.LFE262:
 1256              		.size	comm_can_set_sid_rx_callback, .-comm_can_set_sid_rx_callback
 1257              		.section	.text.comm_can_send_buffer,"ax",%progbits
 1258              		.align	1
 1259              		.p2align 4,,15
 1260              		.global	comm_can_send_buffer
 1261              		.syntax unified
 1262              		.thumb
 1263              		.thumb_func
 1264              		.fpu fpv4-sp-d16
 1265              		.type	comm_can_send_buffer, %function
 1266              	comm_can_send_buffer:
 1267              	.LFB263:
 1268              		.loc 1 393 0
 1269              		.cfi_startproc
 1270              		@ args = 0, pretend = 0, frame = 24
 1271              		@ frame_needed = 0, uses_anonymous_args = 0
 1272              	.LVL118:
 1273 0000 2DE9F04F 		push	{r4, r5, r6, r7, r8, r9, r10, fp, lr}
 1274              		.cfi_def_cfa_offset 36
 1275              		.cfi_offset 4, -36
 1276              		.cfi_offset 5, -32
 1277              		.cfi_offset 6, -28
 1278              		.cfi_offset 7, -24
 1279              		.cfi_offset 8, -20
 1280              		.cfi_offset 9, -16
 1281              		.cfi_offset 10, -12
 1282              		.cfi_offset 11, -8
 1283              		.cfi_offset 14, -4
 1284 0004 87B0     		sub	sp, sp, #28
 1285              		.cfi_def_cfa_offset 64
 1286              		.loc 1 396 0
 1287 0006 062A     		cmp	r2, #6
 1288              		.loc 1 393 0
 1289 0008 1646     		mov	r6, r2
 1290 000a 0190     		str	r0, [sp, #4]
 1291 000c 8B46     		mov	fp, r1
 1292 000e 0293     		str	r3, [sp, #8]
 1293              		.loc 1 396 0
 1294 0010 7CD9     		bls	.L90
 1295 0012 4FF00009 		mov	r9, #0
 1296 0016 D3B2     		uxtb	r3, r2
 1297              	.LVL119:
 1298 0018 4C46     		mov	r4, r9
 1299 001a 40F4A067 		orr	r7, r0, #1280
 1300 001e 0393     		str	r3, [sp, #12]
 1301 0020 0D46     		mov	r5, r1
 1302              	.LBB119:
 1303              	.LBB120:
 1304              	.LBB121:
 1305              		.loc 1 407 0
 1306 0022 40F20318 		movw	r8, #259
 1307 0026 01E0     		b	.L91
 1308              	.LVL120:
 1309              	.L96:
 1310 0028 4445     		cmp	r4, r8
 1311 002a 3FD0     		beq	.L93
ARM GAS  C:\Users\Grillmo\AppData\Local\Temp\ccS6YODD.s 			page 24


 1312              	.LVL121:
 1313              	.L91:
 1314              		.loc 1 411 0
 1315 002c 0734     		adds	r4, r4, #7
 1316              	.LVL122:
 1317              		.loc 1 414 0
 1318 002e 5FFA89F3 		uxtb	r3, r9
 1319              		.loc 1 416 0
 1320 0032 A642     		cmp	r6, r4
 1321              		.loc 1 414 0
 1322 0034 8DF81030 		strb	r3, [sp, #16]
 1323              		.loc 1 416 0
 1324 0038 C0F08280 		bcc	.L94
 1325              		.loc 1 417 0
 1326 003c 2B68     		ldr	r3, [r5]	@ unaligned
 1327 003e AA88     		ldrh	r2, [r5, #4]	@ unaligned
 1328 0040 CDF81130 		str	r3, [sp, #17]	@ unaligned
 1329 0044 AB79     		ldrb	r3, [r5, #6]	@ zero_extendqisi2
 1330 0046 ADF81520 		strh	r2, [sp, #21]	@ unaligned
 1331 004a 8DF81730 		strb	r3, [sp, #23]
 1332 004e 0822     		movs	r2, #8
 1333              	.LVL123:
 1334              	.L95:
 1335              		.loc 1 423 0 discriminator 2
 1336 0050 04A9     		add	r1, sp, #16
 1337 0052 3846     		mov	r0, r7
 1338 0054 FFF7FEFF 		bl	comm_can_transmit_eid
 1339              	.LVL124:
 1340              	.LBE121:
 1341              		.loc 1 406 0 discriminator 2
 1342 0058 A642     		cmp	r6, r4
 1343 005a 09F10709 		add	r9, r9, #7
 1344 005e 05F10705 		add	r5, r5, #7
 1345 0062 E1D8     		bhi	.L96
 1346              	.LVL125:
 1347              	.L100:
 1348              	.LBE120:
 1349              		.loc 1 444 0
 1350 0064 FFF7FEFF 		bl	app_get_configuration
 1351              	.LVL126:
 1352 0068 0278     		ldrb	r2, [r0]	@ zero_extendqisi2
 1353 006a 8DF81020 		strb	r2, [sp, #16]
 1354              	.LVL127:
 1355              		.loc 1 445 0
 1356 006e 9DF80820 		ldrb	r2, [sp, #8]	@ zero_extendqisi2
 1357 0072 8DF81120 		strb	r2, [sp, #17]
 1358              	.LVL128:
 1359              		.loc 1 446 0
 1360 0076 330A     		lsrs	r3, r6, #8
 1361              		.loc 1 447 0
 1362 0078 9DF80C20 		ldrb	r2, [sp, #12]	@ zero_extendqisi2
 1363 007c 8DF81320 		strb	r2, [sp, #19]
 1364              		.loc 1 448 0
 1365 0080 3146     		mov	r1, r6
 1366 0082 5846     		mov	r0, fp
 1367              		.loc 1 446 0
 1368 0084 8DF81230 		strb	r3, [sp, #18]
ARM GAS  C:\Users\Grillmo\AppData\Local\Temp\ccS6YODD.s 			page 25


 1369              	.LVL129:
 1370              		.loc 1 448 0
 1371 0088 FFF7FEFF 		bl	crc16
 1372              	.LVL130:
 1373              		.loc 1 452 0
 1374 008c 019A     		ldr	r2, [sp, #4]
 1375              		.loc 1 448 0
 1376 008e 0346     		mov	r3, r0
 1377              	.LVL131:
 1378              		.loc 1 449 0
 1379 0090 040A     		lsrs	r4, r0, #8
 1380              		.loc 1 452 0
 1381 0092 04A9     		add	r1, sp, #16
 1382 0094 42F4E060 		orr	r0, r2, #1792
 1383              	.LVL132:
 1384 0098 0622     		movs	r2, #6
 1385              		.loc 1 450 0
 1386 009a 8DF81530 		strb	r3, [sp, #21]
 1387              		.loc 1 449 0
 1388 009e 8DF81440 		strb	r4, [sp, #20]
 1389              	.LVL133:
 1390              		.loc 1 452 0
 1391 00a2 FFF7FEFF 		bl	comm_can_transmit_eid
 1392              	.LVL134:
 1393              	.LBE119:
 1394              		.loc 1 455 0
 1395 00a6 07B0     		add	sp, sp, #28
 1396              		.cfi_remember_state
 1397              		.cfi_def_cfa_offset 36
 1398              		@ sp needed
 1399 00a8 BDE8F08F 		pop	{r4, r5, r6, r7, r8, r9, r10, fp, pc}
 1400              	.LVL135:
 1401              	.L93:
 1402              		.cfi_restore_state
 1403 00ac 019B     		ldr	r3, [sp, #4]
 1404 00ae 43F4C068 		orr	r8, r3, #1536
 1405              	.LBB127:
 1406              	.LBB123:
 1407              	.LBB124:
 1408              		.loc 1 436 0
 1409 00b2 039B     		ldr	r3, [sp, #12]
 1410 00b4 0BF2031A 		addw	r10, fp, #259
 1411 00b8 9F1D     		adds	r7, r3, #6
 1412 00ba 03F10809 		add	r9, r3, #8
 1413 00be 10E0     		b	.L99
 1414              	.LVL136:
 1415              	.L103:
 1416              		.loc 1 433 0
 1417 00c0 DAF80020 		ldr	r2, [r10]	@ unaligned
 1418 00c4 BAF80430 		ldrh	r3, [r10, #4]	@ unaligned
 1419 00c8 CDF81220 		str	r2, [sp, #18]	@ unaligned
 1420 00cc ADF81630 		strh	r3, [sp, #22]	@ unaligned
 1421 00d0 0822     		movs	r2, #8
 1422              	.L98:
 1423              		.loc 1 439 0 discriminator 2
 1424 00d2 04A9     		add	r1, sp, #16
 1425 00d4 4046     		mov	r0, r8
ARM GAS  C:\Users\Grillmo\AppData\Local\Temp\ccS6YODD.s 			page 26


 1426 00d6 FFF7FEFF 		bl	comm_can_transmit_eid
 1427              	.LVL137:
 1428              	.LBE124:
 1429              		.loc 1 427 0 discriminator 2
 1430 00da A642     		cmp	r6, r4
 1431 00dc 0AF1060A 		add	r10, r10, #6
 1432 00e0 C0D9     		bls	.L100
 1433              	.LVL138:
 1434              	.L99:
 1435              	.LBB125:
 1436              		.loc 1 429 0
 1437 00e2 230A     		lsrs	r3, r4, #8
 1438              		.loc 1 430 0
 1439 00e4 8DF81140 		strb	r4, [sp, #17]
 1440              		.loc 1 432 0
 1441 00e8 0634     		adds	r4, r4, #6
 1442              	.LVL139:
 1443 00ea E5B2     		uxtb	r5, r4
 1444              	.LVL140:
 1445 00ec A642     		cmp	r6, r4
 1446              		.loc 1 429 0
 1447 00ee 8DF81030 		strb	r3, [sp, #16]
 1448              		.loc 1 436 0
 1449 00f2 A7EB0502 		sub	r2, r7, r5
 1450              		.loc 1 432 0
 1451 00f6 E3D2     		bcs	.L103
 1452              		.loc 1 436 0
 1453 00f8 D2B2     		uxtb	r2, r2
 1454 00fa 5146     		mov	r1, r10
 1455 00fc 0DF11200 		add	r0, sp, #18
 1456 0100 FFF7FEFF 		bl	memcpy
 1457              	.LVL141:
 1458 0104 A9EB0502 		sub	r2, r9, r5
 1459 0108 D2B2     		uxtb	r2, r2
 1460 010a E2E7     		b	.L98
 1461              	.LVL142:
 1462              	.L90:
 1463              	.LBE125:
 1464              	.LBE123:
 1465              	.LBE127:
 1466              	.LBB128:
 1467              		.loc 1 398 0
 1468 010c FFF7FEFF 		bl	app_get_configuration
 1469              	.LVL143:
 1470 0110 0378     		ldrb	r3, [r0]	@ zero_extendqisi2
 1471 0112 8DF81030 		strb	r3, [sp, #16]
 1472              	.LVL144:
 1473              		.loc 1 400 0
 1474 0116 5946     		mov	r1, fp
 1475              		.loc 1 399 0
 1476 0118 9DF80830 		ldrb	r3, [sp, #8]	@ zero_extendqisi2
 1477 011c 8DF81130 		strb	r3, [sp, #17]
 1478              		.loc 1 400 0
 1479 0120 3246     		mov	r2, r6
 1480 0122 0DF11200 		add	r0, sp, #18
 1481 0126 FFF7FEFF 		bl	memcpy
 1482              	.LVL145:
ARM GAS  C:\Users\Grillmo\AppData\Local\Temp\ccS6YODD.s 			page 27


 1483              		.loc 1 402 0
 1484 012a 019B     		ldr	r3, [sp, #4]
 1485              		.loc 1 401 0
 1486 012c B21C     		adds	r2, r6, #2
 1487              	.LVL146:
 1488              		.loc 1 402 0
 1489 012e D2B2     		uxtb	r2, r2
 1490              	.LVL147:
 1491 0130 43F40060 		orr	r0, r3, #2048
 1492 0134 04A9     		add	r1, sp, #16
 1493 0136 FFF7FEFF 		bl	comm_can_transmit_eid
 1494              	.LVL148:
 1495              	.LBE128:
 1496              		.loc 1 455 0
 1497 013a 07B0     		add	sp, sp, #28
 1498              		.cfi_remember_state
 1499              		.cfi_def_cfa_offset 36
 1500              		@ sp needed
 1501 013c BDE8F08F 		pop	{r4, r5, r6, r7, r8, r9, r10, fp, pc}
 1502              	.LVL149:
 1503              	.L94:
 1504              		.cfi_restore_state
 1505              	.LBB129:
 1506              	.LBB126:
 1507              	.LBB122:
 1508              		.loc 1 420 0
 1509 0140 039A     		ldr	r2, [sp, #12]
 1510 0142 D31A     		subs	r3, r2, r3
 1511              	.LVL150:
 1512 0144 DAB2     		uxtb	r2, r3
 1513 0146 2946     		mov	r1, r5
 1514 0148 0DF11100 		add	r0, sp, #17
 1515 014c FFF7FEFF 		bl	memcpy
 1516              	.LVL151:
 1517 0150 039B     		ldr	r3, [sp, #12]
 1518 0152 C4F10802 		rsb	r2, r4, #8
 1519 0156 1A44     		add	r2, r2, r3
 1520 0158 D2B2     		uxtb	r2, r2
 1521 015a 79E7     		b	.L95
 1522              	.LBE122:
 1523              	.LBE126:
 1524              	.LBE129:
 1525              		.cfi_endproc
 1526              	.LFE263:
 1527              		.size	comm_can_send_buffer, .-comm_can_send_buffer
 1528              		.section	.text.send_packet_wrapper,"ax",%progbits
 1529              		.align	1
 1530              		.p2align 4,,15
 1531              		.syntax unified
 1532              		.thumb
 1533              		.thumb_func
 1534              		.fpu fpv4-sp-d16
 1535              		.type	send_packet_wrapper, %function
 1536              	send_packet_wrapper:
 1537              	.LFB273:
 1538              		.loc 1 567 0
 1539              		.cfi_startproc
ARM GAS  C:\Users\Grillmo\AppData\Local\Temp\ccS6YODD.s 			page 28


 1540              		@ args = 0, pretend = 0, frame = 0
 1541              		@ frame_needed = 0, uses_anonymous_args = 0
 1542              		@ link register save eliminated.
 1543              	.LVL152:
 1544 0000 10B4     		push	{r4}
 1545              		.cfi_def_cfa_offset 4
 1546              		.cfi_offset 4, -4
 1547              		.loc 1 568 0
 1548 0002 044C     		ldr	r4, .L106
 1549 0004 0A46     		mov	r2, r1
 1550 0006 0123     		movs	r3, #1
 1551 0008 0146     		mov	r1, r0
 1552              	.LVL153:
 1553 000a 2078     		ldrb	r0, [r4]	@ zero_extendqisi2
 1554              	.LVL154:
 1555              		.loc 1 569 0
 1556 000c 5DF8044B 		ldr	r4, [sp], #4
 1557              		.cfi_restore 4
 1558              		.cfi_def_cfa_offset 0
 1559              		.loc 1 568 0
 1560 0010 FFF7FEBF 		b	comm_can_send_buffer
 1561              	.LVL155:
 1562              	.L107:
 1563              		.align	2
 1564              	.L106:
 1565 0014 00000000 		.word	.LANCHOR5
 1566              		.cfi_endproc
 1567              	.LFE273:
 1568              		.size	send_packet_wrapper, .-send_packet_wrapper
 1569              		.section	.text.comm_can_set_duty,"ax",%progbits
 1570              		.align	1
 1571              		.p2align 4,,15
 1572              		.global	comm_can_set_duty
 1573              		.syntax unified
 1574              		.thumb
 1575              		.thumb_func
 1576              		.fpu fpv4-sp-d16
 1577              		.type	comm_can_set_duty, %function
 1578              	comm_can_set_duty:
 1579              	.LFB264:
 1580              		.loc 1 457 0
 1581              		.cfi_startproc
 1582              		@ args = 0, pretend = 0, frame = 8
 1583              		@ frame_needed = 0, uses_anonymous_args = 0
 1584              	.LVL156:
 1585 0000 10B5     		push	{r4, lr}
 1586              		.cfi_def_cfa_offset 8
 1587              		.cfi_offset 4, -8
 1588              		.cfi_offset 14, -4
 1589              		.loc 1 460 0
 1590 0002 DFED0C7A 		vldr.32	s15, .L110
 1591 0006 20EE270A 		vmul.f32	s0, s0, s15
 1592              	.LVL157:
 1593              		.loc 1 457 0
 1594 000a 82B0     		sub	sp, sp, #8
 1595              		.cfi_def_cfa_offset 16
 1596              		.loc 1 458 0
ARM GAS  C:\Users\Grillmo\AppData\Local\Temp\ccS6YODD.s 			page 29


 1597 000c 02AA     		add	r2, sp, #8
 1598              		.loc 1 460 0
 1599 000e FDEEC07A 		vcvt.s32.f32	s15, s0
 1600              		.loc 1 458 0
 1601 0012 0023     		movs	r3, #0
 1602 0014 42F8083D 		str	r3, [r2, #-8]!
 1603              		.loc 1 460 0
 1604 0018 17EE901A 		vmov	r1, s15	@ int
 1605              		.loc 1 457 0
 1606 001c 0446     		mov	r4, r0
 1607              		.loc 1 460 0
 1608 001e 01A8     		add	r0, sp, #4
 1609              	.LVL158:
 1610 0020 FFF7FEFF 		bl	buffer_append_int32
 1611              	.LVL159:
 1612              		.loc 1 461 0
 1613 0024 01A9     		add	r1, sp, #4
 1614 0026 2046     		mov	r0, r4
 1615 0028 9DF80020 		ldrb	r2, [sp]	@ zero_extendqisi2
 1616 002c FFF7FEFF 		bl	comm_can_transmit_eid
 1617              	.LVL160:
 1618              		.loc 1 463 0
 1619 0030 02B0     		add	sp, sp, #8
 1620              		.cfi_def_cfa_offset 8
 1621              		@ sp needed
 1622 0032 10BD     		pop	{r4, pc}
 1623              	.L111:
 1624              		.align	2
 1625              	.L110:
 1626 0034 0050C347 		.word	1203982336
 1627              		.cfi_endproc
 1628              	.LFE264:
 1629              		.size	comm_can_set_duty, .-comm_can_set_duty
 1630              		.section	.text.comm_can_set_current,"ax",%progbits
 1631              		.align	1
 1632              		.p2align 4,,15
 1633              		.global	comm_can_set_current
 1634              		.syntax unified
 1635              		.thumb
 1636              		.thumb_func
 1637              		.fpu fpv4-sp-d16
 1638              		.type	comm_can_set_current, %function
 1639              	comm_can_set_current:
 1640              	.LFB265:
 1641              		.loc 1 465 0
 1642              		.cfi_startproc
 1643              		@ args = 0, pretend = 0, frame = 8
 1644              		@ frame_needed = 0, uses_anonymous_args = 0
 1645              	.LVL161:
 1646 0000 10B5     		push	{r4, lr}
 1647              		.cfi_def_cfa_offset 8
 1648              		.cfi_offset 4, -8
 1649              		.cfi_offset 14, -4
 1650              		.loc 1 468 0
 1651 0002 DFED0D7A 		vldr.32	s15, .L114
 1652 0006 20EE270A 		vmul.f32	s0, s0, s15
 1653              	.LVL162:
ARM GAS  C:\Users\Grillmo\AppData\Local\Temp\ccS6YODD.s 			page 30


 1654              		.loc 1 465 0
 1655 000a 82B0     		sub	sp, sp, #8
 1656              		.cfi_def_cfa_offset 16
 1657              		.loc 1 466 0
 1658 000c 02AA     		add	r2, sp, #8
 1659              		.loc 1 468 0
 1660 000e FDEEC07A 		vcvt.s32.f32	s15, s0
 1661              		.loc 1 466 0
 1662 0012 0023     		movs	r3, #0
 1663 0014 42F8083D 		str	r3, [r2, #-8]!
 1664              		.loc 1 468 0
 1665 0018 17EE901A 		vmov	r1, s15	@ int
 1666              		.loc 1 465 0
 1667 001c 0446     		mov	r4, r0
 1668              		.loc 1 468 0
 1669 001e 01A8     		add	r0, sp, #4
 1670              	.LVL163:
 1671 0020 FFF7FEFF 		bl	buffer_append_int32
 1672              	.LVL164:
 1673              		.loc 1 469 0
 1674 0024 01A9     		add	r1, sp, #4
 1675 0026 44F48070 		orr	r0, r4, #256
 1676 002a 9DF80020 		ldrb	r2, [sp]	@ zero_extendqisi2
 1677 002e FFF7FEFF 		bl	comm_can_transmit_eid
 1678              	.LVL165:
 1679              		.loc 1 471 0
 1680 0032 02B0     		add	sp, sp, #8
 1681              		.cfi_def_cfa_offset 8
 1682              		@ sp needed
 1683 0034 10BD     		pop	{r4, pc}
 1684              	.L115:
 1685 0036 00BF     		.align	2
 1686              	.L114:
 1687 0038 00007A44 		.word	1148846080
 1688              		.cfi_endproc
 1689              	.LFE265:
 1690              		.size	comm_can_set_current, .-comm_can_set_current
 1691              		.section	.text.comm_can_set_current_brake,"ax",%progbits
 1692              		.align	1
 1693              		.p2align 4,,15
 1694              		.global	comm_can_set_current_brake
 1695              		.syntax unified
 1696              		.thumb
 1697              		.thumb_func
 1698              		.fpu fpv4-sp-d16
 1699              		.type	comm_can_set_current_brake, %function
 1700              	comm_can_set_current_brake:
 1701              	.LFB266:
 1702              		.loc 1 473 0
 1703              		.cfi_startproc
 1704              		@ args = 0, pretend = 0, frame = 8
 1705              		@ frame_needed = 0, uses_anonymous_args = 0
 1706              	.LVL166:
 1707 0000 10B5     		push	{r4, lr}
 1708              		.cfi_def_cfa_offset 8
 1709              		.cfi_offset 4, -8
 1710              		.cfi_offset 14, -4
ARM GAS  C:\Users\Grillmo\AppData\Local\Temp\ccS6YODD.s 			page 31


 1711              		.loc 1 476 0
 1712 0002 DFED0D7A 		vldr.32	s15, .L118
 1713 0006 20EE270A 		vmul.f32	s0, s0, s15
 1714              	.LVL167:
 1715              		.loc 1 473 0
 1716 000a 82B0     		sub	sp, sp, #8
 1717              		.cfi_def_cfa_offset 16
 1718              		.loc 1 474 0
 1719 000c 02AA     		add	r2, sp, #8
 1720              		.loc 1 476 0
 1721 000e FDEEC07A 		vcvt.s32.f32	s15, s0
 1722              		.loc 1 474 0
 1723 0012 0023     		movs	r3, #0
 1724 0014 42F8083D 		str	r3, [r2, #-8]!
 1725              		.loc 1 476 0
 1726 0018 17EE901A 		vmov	r1, s15	@ int
 1727              		.loc 1 473 0
 1728 001c 0446     		mov	r4, r0
 1729              		.loc 1 476 0
 1730 001e 01A8     		add	r0, sp, #4
 1731              	.LVL168:
 1732 0020 FFF7FEFF 		bl	buffer_append_int32
 1733              	.LVL169:
 1734              		.loc 1 477 0
 1735 0024 01A9     		add	r1, sp, #4
 1736 0026 44F40070 		orr	r0, r4, #512
 1737 002a 9DF80020 		ldrb	r2, [sp]	@ zero_extendqisi2
 1738 002e FFF7FEFF 		bl	comm_can_transmit_eid
 1739              	.LVL170:
 1740              		.loc 1 479 0
 1741 0032 02B0     		add	sp, sp, #8
 1742              		.cfi_def_cfa_offset 8
 1743              		@ sp needed
 1744 0034 10BD     		pop	{r4, pc}
 1745              	.L119:
 1746 0036 00BF     		.align	2
 1747              	.L118:
 1748 0038 00007A44 		.word	1148846080
 1749              		.cfi_endproc
 1750              	.LFE266:
 1751              		.size	comm_can_set_current_brake, .-comm_can_set_current_brake
 1752              		.section	.text.comm_can_set_rpm,"ax",%progbits
 1753              		.align	1
 1754              		.p2align 4,,15
 1755              		.global	comm_can_set_rpm
 1756              		.syntax unified
 1757              		.thumb
 1758              		.thumb_func
 1759              		.fpu fpv4-sp-d16
 1760              		.type	comm_can_set_rpm, %function
 1761              	comm_can_set_rpm:
 1762              	.LFB267:
 1763              		.loc 1 481 0
 1764              		.cfi_startproc
 1765              		@ args = 0, pretend = 0, frame = 8
 1766              		@ frame_needed = 0, uses_anonymous_args = 0
 1767              	.LVL171:
ARM GAS  C:\Users\Grillmo\AppData\Local\Temp\ccS6YODD.s 			page 32


 1768 0000 10B5     		push	{r4, lr}
 1769              		.cfi_def_cfa_offset 8
 1770              		.cfi_offset 4, -8
 1771              		.cfi_offset 14, -4
 1772 0002 82B0     		sub	sp, sp, #8
 1773              		.cfi_def_cfa_offset 16
 1774              		.loc 1 482 0
 1775 0004 02AA     		add	r2, sp, #8
 1776              		.loc 1 484 0
 1777 0006 FDEEC07A 		vcvt.s32.f32	s15, s0
 1778              		.loc 1 482 0
 1779 000a 0023     		movs	r3, #0
 1780 000c 42F8083D 		str	r3, [r2, #-8]!
 1781              		.loc 1 484 0
 1782 0010 17EE901A 		vmov	r1, s15	@ int
 1783              		.loc 1 481 0
 1784 0014 0446     		mov	r4, r0
 1785              		.loc 1 484 0
 1786 0016 01A8     		add	r0, sp, #4
 1787              	.LVL172:
 1788 0018 FFF7FEFF 		bl	buffer_append_int32
 1789              	.LVL173:
 1790              		.loc 1 485 0
 1791 001c 01A9     		add	r1, sp, #4
 1792 001e 44F44070 		orr	r0, r4, #768
 1793 0022 9DF80020 		ldrb	r2, [sp]	@ zero_extendqisi2
 1794 0026 FFF7FEFF 		bl	comm_can_transmit_eid
 1795              	.LVL174:
 1796              		.loc 1 487 0
 1797 002a 02B0     		add	sp, sp, #8
 1798              		.cfi_def_cfa_offset 8
 1799              		@ sp needed
 1800 002c 10BD     		pop	{r4, pc}
 1801              		.cfi_endproc
 1802              	.LFE267:
 1803              		.size	comm_can_set_rpm, .-comm_can_set_rpm
 1804 002e 00BF     		.section	.text.comm_can_set_pos,"ax",%progbits
 1805              		.align	1
 1806              		.p2align 4,,15
 1807              		.global	comm_can_set_pos
 1808              		.syntax unified
 1809              		.thumb
 1810              		.thumb_func
 1811              		.fpu fpv4-sp-d16
 1812              		.type	comm_can_set_pos, %function
 1813              	comm_can_set_pos:
 1814              	.LFB268:
 1815              		.loc 1 489 0
 1816              		.cfi_startproc
 1817              		@ args = 0, pretend = 0, frame = 8
 1818              		@ frame_needed = 0, uses_anonymous_args = 0
 1819              	.LVL175:
 1820 0000 10B5     		push	{r4, lr}
 1821              		.cfi_def_cfa_offset 8
 1822              		.cfi_offset 4, -8
 1823              		.cfi_offset 14, -4
 1824              		.loc 1 492 0
ARM GAS  C:\Users\Grillmo\AppData\Local\Temp\ccS6YODD.s 			page 33


 1825 0002 DFED0D7A 		vldr.32	s15, .L124
 1826 0006 20EE270A 		vmul.f32	s0, s0, s15
 1827              	.LVL176:
 1828              		.loc 1 489 0
 1829 000a 82B0     		sub	sp, sp, #8
 1830              		.cfi_def_cfa_offset 16
 1831              		.loc 1 490 0
 1832 000c 02AA     		add	r2, sp, #8
 1833              		.loc 1 492 0
 1834 000e FDEEC07A 		vcvt.s32.f32	s15, s0
 1835              		.loc 1 490 0
 1836 0012 0023     		movs	r3, #0
 1837 0014 42F8083D 		str	r3, [r2, #-8]!
 1838              		.loc 1 492 0
 1839 0018 17EE901A 		vmov	r1, s15	@ int
 1840              		.loc 1 489 0
 1841 001c 0446     		mov	r4, r0
 1842              		.loc 1 492 0
 1843 001e 01A8     		add	r0, sp, #4
 1844              	.LVL177:
 1845 0020 FFF7FEFF 		bl	buffer_append_int32
 1846              	.LVL178:
 1847              		.loc 1 493 0
 1848 0024 01A9     		add	r1, sp, #4
 1849 0026 44F48060 		orr	r0, r4, #1024
 1850 002a 9DF80020 		ldrb	r2, [sp]	@ zero_extendqisi2
 1851 002e FFF7FEFF 		bl	comm_can_transmit_eid
 1852              	.LVL179:
 1853              		.loc 1 495 0
 1854 0032 02B0     		add	sp, sp, #8
 1855              		.cfi_def_cfa_offset 8
 1856              		@ sp needed
 1857 0034 10BD     		pop	{r4, pc}
 1858              	.L125:
 1859 0036 00BF     		.align	2
 1860              	.L124:
 1861 0038 00247449 		.word	1232348160
 1862              		.cfi_endproc
 1863              	.LFE268:
 1864              		.size	comm_can_set_pos, .-comm_can_set_pos
 1865              		.section	.text.comm_can_set_current_rel,"ax",%progbits
 1866              		.align	1
 1867              		.p2align 4,,15
 1868              		.global	comm_can_set_current_rel
 1869              		.syntax unified
 1870              		.thumb
 1871              		.thumb_func
 1872              		.fpu fpv4-sp-d16
 1873              		.type	comm_can_set_current_rel, %function
 1874              	comm_can_set_current_rel:
 1875              	.LFB269:
 1876              		.loc 1 506 0
 1877              		.cfi_startproc
 1878              		@ args = 0, pretend = 0, frame = 8
 1879              		@ frame_needed = 0, uses_anonymous_args = 0
 1880              	.LVL180:
 1881 0000 10B5     		push	{r4, lr}
ARM GAS  C:\Users\Grillmo\AppData\Local\Temp\ccS6YODD.s 			page 34


 1882              		.cfi_def_cfa_offset 8
 1883              		.cfi_offset 4, -8
 1884              		.cfi_offset 14, -4
 1885 0002 82B0     		sub	sp, sp, #8
 1886              		.cfi_def_cfa_offset 16
 1887              		.loc 1 507 0
 1888 0004 02A9     		add	r1, sp, #8
 1889 0006 0023     		movs	r3, #0
 1890 0008 41F8083D 		str	r3, [r1, #-8]!
 1891              		.loc 1 506 0
 1892 000c 0446     		mov	r4, r0
 1893              		.loc 1 509 0
 1894 000e DFED070A 		vldr.32	s1, .L128
 1895 0012 01A8     		add	r0, sp, #4
 1896              	.LVL181:
 1897 0014 FFF7FEFF 		bl	buffer_append_float32
 1898              	.LVL182:
 1899              		.loc 1 510 0
 1900 0018 01A9     		add	r1, sp, #4
 1901 001a 44F42060 		orr	r0, r4, #2560
 1902 001e 9DF80020 		ldrb	r2, [sp]	@ zero_extendqisi2
 1903 0022 FFF7FEFF 		bl	comm_can_transmit_eid
 1904              	.LVL183:
 1905              		.loc 1 512 0
 1906 0026 02B0     		add	sp, sp, #8
 1907              		.cfi_def_cfa_offset 8
 1908              		@ sp needed
 1909 0028 10BD     		pop	{r4, pc}
 1910              	.L129:
 1911 002a 00BF     		.align	2
 1912              	.L128:
 1913 002c 0050C347 		.word	1203982336
 1914              		.cfi_endproc
 1915              	.LFE269:
 1916              		.size	comm_can_set_current_rel, .-comm_can_set_current_rel
 1917              		.section	.text.comm_can_set_current_brake_rel,"ax",%progbits
 1918              		.align	1
 1919              		.p2align 4,,15
 1920              		.global	comm_can_set_current_brake_rel
 1921              		.syntax unified
 1922              		.thumb
 1923              		.thumb_func
 1924              		.fpu fpv4-sp-d16
 1925              		.type	comm_can_set_current_brake_rel, %function
 1926              	comm_can_set_current_brake_rel:
 1927              	.LFB270:
 1928              		.loc 1 523 0
 1929              		.cfi_startproc
 1930              		@ args = 0, pretend = 0, frame = 8
 1931              		@ frame_needed = 0, uses_anonymous_args = 0
 1932              	.LVL184:
 1933 0000 10B5     		push	{r4, lr}
 1934              		.cfi_def_cfa_offset 8
 1935              		.cfi_offset 4, -8
 1936              		.cfi_offset 14, -4
 1937 0002 82B0     		sub	sp, sp, #8
 1938              		.cfi_def_cfa_offset 16
ARM GAS  C:\Users\Grillmo\AppData\Local\Temp\ccS6YODD.s 			page 35


 1939              		.loc 1 524 0
 1940 0004 02A9     		add	r1, sp, #8
 1941 0006 0023     		movs	r3, #0
 1942 0008 41F8083D 		str	r3, [r1, #-8]!
 1943              		.loc 1 523 0
 1944 000c 0446     		mov	r4, r0
 1945              		.loc 1 526 0
 1946 000e DFED070A 		vldr.32	s1, .L132
 1947 0012 01A8     		add	r0, sp, #4
 1948              	.LVL185:
 1949 0014 FFF7FEFF 		bl	buffer_append_float32
 1950              	.LVL186:
 1951              		.loc 1 527 0
 1952 0018 01A9     		add	r1, sp, #4
 1953 001a 44F43060 		orr	r0, r4, #2816
 1954 001e 9DF80020 		ldrb	r2, [sp]	@ zero_extendqisi2
 1955 0022 FFF7FEFF 		bl	comm_can_transmit_eid
 1956              	.LVL187:
 1957              		.loc 1 529 0
 1958 0026 02B0     		add	sp, sp, #8
 1959              		.cfi_def_cfa_offset 8
 1960              		@ sp needed
 1961 0028 10BD     		pop	{r4, pc}
 1962              	.L133:
 1963 002a 00BF     		.align	2
 1964              	.L132:
 1965 002c 0050C347 		.word	1203982336
 1966              		.cfi_endproc
 1967              	.LFE270:
 1968              		.size	comm_can_set_current_brake_rel, .-comm_can_set_current_brake_rel
 1969              		.section	.text.comm_can_get_status_msg_index,"ax",%progbits
 1970              		.align	1
 1971              		.p2align 4,,15
 1972              		.global	comm_can_get_status_msg_index
 1973              		.syntax unified
 1974              		.thumb
 1975              		.thumb_func
 1976              		.fpu fpv4-sp-d16
 1977              		.type	comm_can_get_status_msg_index, %function
 1978              	comm_can_get_status_msg_index:
 1979              	.LFB271:
 1980              		.loc 1 540 0
 1981              		.cfi_startproc
 1982              		@ args = 0, pretend = 0, frame = 0
 1983              		@ frame_needed = 0, uses_anonymous_args = 0
 1984              		@ link register save eliminated.
 1985              	.LVL188:
 1986              		.loc 1 541 0
 1987 0000 0928     		cmp	r0, #9
 1988              		.loc 1 542 0
 1989 0002 DDBF     		ittte	le
 1990 0004 034B     		ldrle	r3, .L137
 1991 0006 00EB8000 		addle	r0, r0, r0, lsl #2
 1992              	.LVL189:
 1993 000a 03EB8000 		addle	r0, r3, r0, lsl #2
 1994              		.loc 1 544 0
 1995 000e 0020     		movgt	r0, #0
ARM GAS  C:\Users\Grillmo\AppData\Local\Temp\ccS6YODD.s 			page 36


 1996              		.loc 1 546 0
 1997 0010 7047     		bx	lr
 1998              	.L138:
 1999 0012 00BF     		.align	2
 2000              	.L137:
 2001 0014 00000000 		.word	.LANCHOR6
 2002              		.cfi_endproc
 2003              	.LFE271:
 2004              		.size	comm_can_get_status_msg_index, .-comm_can_get_status_msg_index
 2005              		.section	.text.comm_can_get_status_msg_id,"ax",%progbits
 2006              		.align	1
 2007              		.p2align 4,,15
 2008              		.global	comm_can_get_status_msg_id
 2009              		.syntax unified
 2010              		.thumb
 2011              		.thumb_func
 2012              		.fpu fpv4-sp-d16
 2013              		.type	comm_can_get_status_msg_id, %function
 2014              	comm_can_get_status_msg_id:
 2015              	.LFB272:
 2016              		.loc 1 557 0
 2017              		.cfi_startproc
 2018              		@ args = 0, pretend = 0, frame = 0
 2019              		@ frame_needed = 0, uses_anonymous_args = 0
 2020              		@ link register save eliminated.
 2021              	.LVL190:
 2022 0000 10B4     		push	{r4}
 2023              		.cfi_def_cfa_offset 4
 2024              		.cfi_offset 4, -4
 2025              		.loc 1 557 0
 2026 0002 0023     		movs	r3, #0
 2027 0004 0A4C     		ldr	r4, .L146
 2028              	.LBB130:
 2029              		.loc 1 558 0
 2030 0006 1A46     		mov	r2, r3
 2031              	.LVL191:
 2032              	.L142:
 2033              		.loc 1 559 0
 2034 0008 E158     		ldr	r1, [r4, r3]
 2035 000a 8142     		cmp	r1, r0
 2036 000c 03F11403 		add	r3, r3, #20
 2037 0010 06D0     		beq	.L145
 2038              		.loc 1 558 0 discriminator 2
 2039 0012 0132     		adds	r2, r2, #1
 2040              	.LVL192:
 2041 0014 0A2A     		cmp	r2, #10
 2042 0016 F7D1     		bne	.L142
 2043              	.LBE130:
 2044              		.loc 1 564 0
 2045 0018 0020     		movs	r0, #0
 2046              	.LVL193:
 2047              		.loc 1 565 0
 2048 001a 5DF8044B 		ldr	r4, [sp], #4
 2049              		.cfi_remember_state
 2050              		.cfi_restore 4
 2051              		.cfi_def_cfa_offset 0
 2052 001e 7047     		bx	lr
ARM GAS  C:\Users\Grillmo\AppData\Local\Temp\ccS6YODD.s 			page 37


 2053              	.LVL194:
 2054              	.L145:
 2055              		.cfi_restore_state
 2056              	.LBB131:
 2057              		.loc 1 560 0
 2058 0020 02EB8202 		add	r2, r2, r2, lsl #2
 2059              	.LVL195:
 2060 0024 04EB8200 		add	r0, r4, r2, lsl #2
 2061              	.LVL196:
 2062              	.LBE131:
 2063              		.loc 1 565 0
 2064 0028 5DF8044B 		ldr	r4, [sp], #4
 2065              		.cfi_restore 4
 2066              		.cfi_def_cfa_offset 0
 2067 002c 7047     		bx	lr
 2068              	.L147:
 2069 002e 00BF     		.align	2
 2070              	.L146:
 2071 0030 00000000 		.word	.LANCHOR6
 2072              		.cfi_endproc
 2073              	.LFE272:
 2074              		.size	comm_can_get_status_msg_id, .-comm_can_get_status_msg_id
 2075              		.section	.bss.can_mtx,"aw",%nobits
 2076              		.align	2
 2077              		.set	.LANCHOR8,. + 0
 2078              		.type	can_mtx, %object
 2079              		.size	can_mtx, 16
 2080              	can_mtx:
 2081 0000 00000000 		.space	16
 2081      00000000 
 2081      00000000 
 2081      00000000 
 2082              		.section	.bss.cancom_process_thread_wa,"aw",%nobits
 2083              		.align	3
 2084              		.set	.LANCHOR12,. + 0
 2085              		.type	cancom_process_thread_wa, %object
 2086              		.size	cancom_process_thread_wa, 4504
 2087              	cancom_process_thread_wa:
 2088 0000 00000000 		.space	4504
 2088      00000000 
 2088      00000000 
 2088      00000000 
 2088      00000000 
 2089              		.section	.bss.cancom_read_thread_wa,"aw",%nobits
 2090              		.align	3
 2091              		.set	.LANCHOR10,. + 0
 2092              		.type	cancom_read_thread_wa, %object
 2093              		.size	cancom_read_thread_wa, 920
 2094              	cancom_read_thread_wa:
 2095 0000 00000000 		.space	920
 2095      00000000 
 2095      00000000 
 2095      00000000 
 2095      00000000 
 2096              		.section	.bss.cancom_status_thread_wa,"aw",%nobits
 2097              		.align	3
 2098              		.set	.LANCHOR11,. + 0
ARM GAS  C:\Users\Grillmo\AppData\Local\Temp\ccS6YODD.s 			page 38


 2099              		.type	cancom_status_thread_wa, %object
 2100              		.size	cancom_status_thread_wa, 1432
 2101              	cancom_status_thread_wa:
 2102 0000 00000000 		.space	1432
 2102      00000000 
 2102      00000000 
 2102      00000000 
 2102      00000000 
 2103              		.section	.bss.process_tp,"aw",%nobits
 2104              		.align	2
 2105              		.set	.LANCHOR0,. + 0
 2106              		.type	process_tp, %object
 2107              		.size	process_tp, 4
 2108              	process_tp:
 2109 0000 00000000 		.space	4
 2110              		.section	.bss.rx_buffer,"aw",%nobits
 2111              		.align	2
 2112              		.set	.LANCHOR4,. + 0
 2113              		.type	rx_buffer, %object
 2114              		.size	rx_buffer, 1024
 2115              	rx_buffer:
 2116 0000 00000000 		.space	1024
 2116      00000000 
 2116      00000000 
 2116      00000000 
 2116      00000000 
 2117              		.section	.bss.rx_buffer_last_id,"aw",%nobits
 2118              		.align	2
 2119              		.set	.LANCHOR5,. + 0
 2120              		.type	rx_buffer_last_id, %object
 2121              		.size	rx_buffer_last_id, 4
 2122              	rx_buffer_last_id:
 2123 0000 00000000 		.space	4
 2124              		.section	.bss.rx_frame_read,"aw",%nobits
 2125              		.align	2
 2126              		.set	.LANCHOR1,. + 0
 2127              		.type	rx_frame_read, %object
 2128              		.size	rx_frame_read, 4
 2129              	rx_frame_read:
 2130 0000 00000000 		.space	4
 2131              		.section	.bss.rx_frame_write,"aw",%nobits
 2132              		.align	2
 2133              		.set	.LANCHOR2,. + 0
 2134              		.type	rx_frame_write, %object
 2135              		.size	rx_frame_write, 4
 2136              	rx_frame_write:
 2137 0000 00000000 		.space	4
 2138              		.section	.bss.rx_frames,"aw",%nobits
 2139              		.align	2
 2140              		.set	.LANCHOR3,. + 0
 2141              		.type	rx_frames, %object
 2142              		.size	rx_frames, 2000
 2143              	rx_frames:
 2144 0000 00000000 		.space	2000
 2144      00000000 
 2144      00000000 
 2144      00000000 
ARM GAS  C:\Users\Grillmo\AppData\Local\Temp\ccS6YODD.s 			page 39


 2144      00000000 
 2145              		.section	.bss.sid_callback,"aw",%nobits
 2146              		.align	2
 2147              		.set	.LANCHOR7,. + 0
 2148              		.type	sid_callback, %object
 2149              		.size	sid_callback, 4
 2150              	sid_callback:
 2151 0000 00000000 		.space	4
 2152              		.section	.bss.stat_msgs,"aw",%nobits
 2153              		.align	2
 2154              		.set	.LANCHOR6,. + 0
 2155              		.type	stat_msgs, %object
 2156              		.size	stat_msgs, 200
 2157              	stat_msgs:
 2158 0000 00000000 		.space	200
 2158      00000000 
 2158      00000000 
 2158      00000000 
 2158      00000000 
 2159              		.section	.rodata.cancfg,"a",%progbits
 2160              		.align	2
 2161              		.set	.LANCHOR9,. + 0
 2162              		.type	cancfg, %object
 2163              		.size	cancfg, 8
 2164              	cancfg:
 2165 0000 64000000 		.word	100
 2166 0004 06001800 		.word	1572870
 2167              		.section	.rodata.cancom_process_thread.str1.4,"aMS",%progbits,1
 2168              		.align	2
 2169              	.LC0:
 2170 0000 43616E63 		.ascii	"Cancom process\000"
 2170      6F6D2070 
 2170      726F6365 
 2170      737300
 2171              		.section	.rodata.cancom_read_thread.str1.4,"aMS",%progbits,1
 2172              		.align	2
 2173              	.LC1:
 2174 0000 43414E00 		.ascii	"CAN\000"
 2175              		.section	.rodata.cancom_status_thread.str1.4,"aMS",%progbits,1
 2176              		.align	2
 2177              	.LC2:
 2178 0000 43414E20 		.ascii	"CAN status\000"
 2178      73746174 
 2178      757300
 2179              		.text
 2180              	.Letext0:
 2181              		.file 7 "c:\\chibistudio\\tools\\gnu tools arm embedded\\6.3 2017q1\\lib\\gcc\\arm-none-eabi\\6.3.
 2182              		.file 8 "c:\\chibistudio\\tools\\gnu tools arm embedded\\6.3 2017q1\\arm-none-eabi\\include\\machi
 2183              		.file 9 "c:\\chibistudio\\tools\\gnu tools arm embedded\\6.3 2017q1\\arm-none-eabi\\include\\sys\\
 2184              		.file 10 "c:\\chibistudio\\tools\\gnu tools arm embedded\\6.3 2017q1\\arm-none-eabi\\include\\sys\
 2185              		.file 11 "c:\\chibistudio\\tools\\gnu tools arm embedded\\6.3 2017q1\\arm-none-eabi\\include\\sys\
 2186              		.file 12 "c:\\chibistudio\\tools\\gnu tools arm embedded\\6.3 2017q1\\arm-none-eabi\\include\\math
 2187              		.file 13 "c:\\chibistudio\\tools\\gnu tools arm embedded\\6.3 2017q1\\arm-none-eabi\\include\\sys\
 2188              		.file 14 "ChibiOS_3.0.2/os/rt/ports/ARMCMx/compilers/GCC/chtypes.h"
 2189              		.file 15 "ChibiOS_3.0.2/os/rt/include/chsystypes.h"
 2190              		.file 16 "ChibiOS_3.0.2/os/rt/include/chschd.h"
 2191              		.file 17 "ChibiOS_3.0.2/os/ext/CMSIS/include/core_cm4.h"
ARM GAS  C:\Users\Grillmo\AppData\Local\Temp\ccS6YODD.s 			page 40


 2192              		.file 18 "ChibiOS_3.0.2/os/ext/CMSIS/ST/system_stm32f4xx.h"
 2193              		.file 19 "ChibiOS_3.0.2/os/ext/CMSIS/ST/stm32f407xx.h"
 2194              		.file 20 "ChibiOS_3.0.2/os/rt/ports/ARMCMx/chcore.h"
 2195              		.file 21 "ChibiOS_3.0.2/os/rt/ports/ARMCMx/chcore_v7m.h"
 2196              		.file 22 "ChibiOS_3.0.2/os/rt/include/chtm.h"
 2197              		.file 23 "ChibiOS_3.0.2/os/rt/include/chsem.h"
 2198              		.file 24 "ChibiOS_3.0.2/os/rt/include/chmtx.h"
 2199              		.file 25 "ChibiOS_3.0.2/os/rt/include/chqueues.h"
 2200              		.file 26 "datatypes.h"
 2201              		.file 27 "conf_general.h"
 2202              		.file 28 "ChibiOS_3.0.2/os/hal/ports/STM32/STM32F4xx/stm32_dma.h"
 2203              		.file 29 "ChibiOS_3.0.2/os/hal/ports/STM32/LLD/GPIOv2/pal_lld.h"
 2204              		.file 30 "ChibiOS_3.0.2/os/hal/include/can.h"
 2205              		.file 31 "ChibiOS_3.0.2/os/hal/ports/STM32/LLD/can_lld.h"
 2206              		.file 32 "ChibiOS_3.0.2/os/hal/include/i2c.h"
 2207              		.file 33 "ChibiOS_3.0.2/os/hal/ports/STM32/LLD/I2Cv1/i2c_lld.h"
 2208              		.file 34 "ChibiOS_3.0.2/os/hal/include/icu.h"
 2209              		.file 35 "ChibiOS_3.0.2/os/hal/ports/STM32/LLD/TIMv1/icu_lld.h"
 2210              		.file 36 "ChibiOS_3.0.2/os/hal/ports/STM32/LLD/TIMv1/stm32_tim.h"
 2211              		.file 37 "ChibiOS_3.0.2/os/hal/include/spi.h"
 2212              		.file 38 "ChibiOS_3.0.2/os/hal/ports/STM32/LLD/SPIv1/spi_lld.h"
 2213              		.file 39 "ChibiOS_3.0.2/os/hal/include/uart.h"
 2214              		.file 40 "ChibiOS_3.0.2/os/hal/ports/STM32/LLD/USARTv1/uart_lld.h"
 2215              		.file 41 "ChibiOS_3.0.2/os/hal/include/usb.h"
 2216              		.file 42 "ChibiOS_3.0.2/os/hal/ports/STM32/LLD/OTGv1/usb_lld.h"
 2217              		.file 43 "ChibiOS_3.0.2/os/hal/ports/STM32/LLD/OTGv1/stm32_otg.h"
 2218              		.file 44 "mc_interface.h"
 2219              		.file 45 "ChibiOS_3.0.2/os/rt/include/chsys.h"
 2220              		.file 46 "buffer.h"
 2221              		.file 47 "applications/app.h"
 2222              		.file 48 "crc.h"
 2223              		.file 49 "timeout.h"
 2224              		.file 50 "commands.h"