ARM GAS  C:\Users\Grillmo\AppData\Local\Temp\cchyPTfM.s 			page 1


   1              		.cpu cortex-m4
   2              		.eabi_attribute 27, 1
   3              		.eabi_attribute 28, 1
   4              		.eabi_attribute 20, 1
   5              		.eabi_attribute 21, 1
   6              		.eabi_attribute 23, 3
   7              		.eabi_attribute 24, 1
   8              		.eabi_attribute 25, 1
   9              		.eabi_attribute 26, 1
  10              		.eabi_attribute 30, 2
  11              		.eabi_attribute 34, 1
  12              		.eabi_attribute 18, 4
  13              		.file	"conf_general.c"
  14              		.text
  15              	.Ltext0:
  16              		.cfi_sections	.debug_frame
  17              		.section	.text.conf_general_init,"ax",%progbits
  18              		.align	1
  19              		.p2align 4,,15
  20              		.global	conf_general_init
  21              		.syntax unified
  22              		.thumb
  23              		.thumb_func
  24              		.fpu fpv4-sp-d16
  25              		.type	conf_general_init, %function
  26              	conf_general_init:
  27              	.LFB219:
  28              		.file 1 "conf_general.c"
  29              		.loc 1 58 0
  30              		.cfi_startproc
  31              		@ args = 0, pretend = 0, frame = 0
  32              		@ frame_needed = 0, uses_anonymous_args = 0
  33 0000 08B5     		push	{r3, lr}
  34              		.cfi_def_cfa_offset 8
  35              		.cfi_offset 3, -8
  36              		.cfi_offset 14, -4
  37              		.loc 1 60 0
  38 0002 4FF40F72 		mov	r2, #572
  39 0006 0021     		movs	r1, #0
  40 0008 0F48     		ldr	r0, .L8
  41 000a FFF7FEFF 		bl	memset
  42              	.LVL0:
  43 000e 0F4B     		ldr	r3, .L8+4
  44 0010 4FF47A72 		mov	r2, #1000
  45 0014 03F5BA71 		add	r1, r3, #372
  46              	.LVL1:
  47              	.L2:
  48              	.LBB2:
  49              		.loc 1 64 0 discriminator 3
  50 0018 23F8022F 		strh	r2, [r3, #2]!	@ movhi
  51 001c 0132     		adds	r2, r2, #1
  52              		.loc 1 63 0 discriminator 3
  53 001e 8B42     		cmp	r3, r1
  54 0020 92B2     		uxth	r2, r2
  55 0022 F9D1     		bne	.L2
  56 0024 0A49     		ldr	r1, .L8+8
  57              		.loc 1 63 0 is_stmt 0
ARM GAS  C:\Users\Grillmo\AppData\Local\Temp\cchyPTfM.s 			page 2


  58 0026 4FF4FA62 		mov	r2, #2000
  59              	.L3:
  60              	.LBE2:
  61              	.LBB3:
  62              		.loc 1 68 0 is_stmt 1 discriminator 3
  63 002a 23F8022F 		strh	r2, [r3, #2]!	@ movhi
  64              	.LVL2:
  65 002e 0132     		adds	r2, r2, #1
  66              		.loc 1 67 0 discriminator 3
  67 0030 9942     		cmp	r1, r3
  68 0032 92B2     		uxth	r2, r2
  69 0034 F9D1     		bne	.L3
  70              	.LBE3:
  71              		.loc 1 71 0
  72 0036 FFF7FEFF 		bl	FLASH_Unlock
  73              	.LVL3:
  74              		.loc 1 72 0
  75 003a F220     		movs	r0, #242
  76 003c FFF7FEFF 		bl	FLASH_ClearFlag
  77              	.LVL4:
  78              		.loc 1 75 0
  79 0040 BDE80840 		pop	{r3, lr}
  80              		.cfi_restore 14
  81              		.cfi_restore 3
  82              		.cfi_def_cfa_offset 0
  83              		.loc 1 74 0
  84 0044 FFF7FEBF 		b	EE_Init
  85              	.LVL5:
  86              	.L9:
  87              		.align	2
  88              	.L8:
  89 0048 00000000 		.word	.LANCHOR0
  90 004c FEFFFFFF 		.word	.LANCHOR0-2
  91 0050 3A020000 		.word	.LANCHOR0+570
  92              		.cfi_endproc
  93              	.LFE219:
  94              		.size	conf_general_init, .-conf_general_init
  95              		.section	.text.conf_general_get_default_app_configuration,"ax",%progbits
  96              		.align	1
  97              		.p2align 4,,15
  98              		.global	conf_general_get_default_app_configuration
  99              		.syntax unified
 100              		.thumb
 101              		.thumb_func
 102              		.fpu fpv4-sp-d16
 103              		.type	conf_general_get_default_app_configuration, %function
 104              	conf_general_get_default_app_configuration:
 105              	.LFB220:
 106              		.loc 1 83 0
 107              		.cfi_startproc
 108              		@ args = 0, pretend = 0, frame = 0
 109              		@ frame_needed = 0, uses_anonymous_args = 0
 110              	.LVL6:
 111 0000 2DE9F047 		push	{r4, r5, r6, r7, r8, r9, r10, lr}
 112              		.cfi_def_cfa_offset 32
 113              		.cfi_offset 4, -32
 114              		.cfi_offset 5, -28
ARM GAS  C:\Users\Grillmo\AppData\Local\Temp\cchyPTfM.s 			page 3


 115              		.cfi_offset 6, -24
 116              		.cfi_offset 7, -20
 117              		.cfi_offset 8, -16
 118              		.cfi_offset 9, -12
 119              		.cfi_offset 10, -8
 120              		.cfi_offset 14, -4
 121              		.loc 1 84 0
 122 0004 C822     		movs	r2, #200
 123              		.loc 1 83 0
 124 0006 0446     		mov	r4, r0
 125              		.loc 1 84 0
 126 0008 0021     		movs	r1, #0
 127 000a FFF7FEFF 		bl	memset
 128              	.LVL7:
 129              		.loc 1 98 0
 130 000e 4FF07F59 		mov	r9, #1069547520
 131              		.loc 1 94 0
 132 0012 454B     		ldr	r3, .L12
 133              		.loc 1 108 0
 134 0014 4548     		ldr	r0, .L12+4
 135              		.loc 1 95 0
 136 0016 DFF820E1 		ldr	lr, .L12+16
 137              		.loc 1 104 0
 138 001a 454E     		ldr	r6, .L12+8
 139              		.loc 1 105 0
 140 001c DFF81C81 		ldr	r8, .L12+20
 141              		.loc 1 112 0
 142 0020 444F     		ldr	r7, .L12+12
 143              		.loc 1 94 0
 144 0022 E361     		str	r3, [r4, #28]	@ float
 145              		.loc 1 86 0
 146 0024 4FF47A72 		mov	r2, #1000
 147              		.loc 1 96 0
 148 0028 4FF07E51 		mov	r1, #1065353216
 149              		.loc 1 85 0
 150 002c 0023     		movs	r3, #0
 151              		.loc 1 89 0
 152 002e 4FF4FA7C 		mov	ip, #500
 153              		.loc 1 91 0
 154 0032 0325     		movs	r5, #3
 155              		.loc 1 97 0
 156 0034 4FF0804A 		mov	r10, #1073741824
 157              		.loc 1 86 0
 158 0038 6260     		str	r2, [r4, #4]
 159              		.loc 1 96 0
 160 003a 6162     		str	r1, [r4, #36]	@ float
 161              		.loc 1 99 0
 162 003c 0122     		movs	r2, #1
 163              		.loc 1 103 0
 164 003e 0221     		movs	r1, #2
 165              		.loc 1 98 0
 166 0040 C4F82C90 		str	r9, [r4, #44]	@ float
 167              		.loc 1 113 0
 168 0044 DFF8F890 		ldr	r9, .L12+24
 169              		.loc 1 89 0
 170 0048 C4F810C0 		str	ip, [r4, #16]
 171              		.loc 1 97 0
ARM GAS  C:\Users\Grillmo\AppData\Local\Temp\cchyPTfM.s 			page 4


 172 004c C4F828A0 		str	r10, [r4, #40]	@ float
 173              		.loc 1 114 0
 174 0050 C4F860A0 		str	r10, [r4, #96]	@ float
 175              		.loc 1 105 0
 176 0054 C4F84480 		str	r8, [r4, #68]	@ float
 177              		.loc 1 113 0
 178 0058 C4F85C90 		str	r9, [r4, #92]	@ float
 179              		.loc 1 116 0
 180 005c C4F86890 		str	r9, [r4, #104]	@ float
 181              		.loc 1 85 0
 182 0060 2370     		strb	r3, [r4]
 183              		.loc 1 88 0
 184 0062 2373     		strb	r3, [r4, #12]
 185              		.loc 1 93 0
 186 0064 2376     		strb	r3, [r4, #24]
 187              		.loc 1 106 0
 188 0066 84F84830 		strb	r3, [r4, #72]
 189              		.loc 1 107 0
 190 006a 84F84930 		strb	r3, [r4, #73]
 191              		.loc 1 110 0
 192 006e 84F85030 		strb	r3, [r4, #80]
 193              		.loc 1 119 0
 194 0072 84F86E30 		strb	r3, [r4, #110]
 195              		.loc 1 120 0
 196 0076 84F86F30 		strb	r3, [r4, #111]
 197              		.loc 1 121 0
 198 007a 84F87030 		strb	r3, [r4, #112]
 199              		.loc 1 122 0
 200 007e 84F87130 		strb	r3, [r4, #113]
 201              		.loc 1 91 0
 202 0082 2575     		strb	r5, [r4, #20]
 203              		.loc 1 95 0
 204 0084 C4F820E0 		str	lr, [r4, #32]	@ float
 205              		.loc 1 111 0
 206 0088 C4F854E0 		str	lr, [r4, #84]	@ float
 207              		.loc 1 99 0
 208 008c 84F83020 		strb	r2, [r4, #48]
 209              		.loc 1 100 0
 210 0090 84F83120 		strb	r2, [r4, #49]
 211              		.loc 1 117 0
 212 0094 84F86C20 		strb	r2, [r4, #108]
 213              		.loc 1 118 0
 214 0098 84F86D20 		strb	r2, [r4, #109]
 215              		.loc 1 103 0
 216 009c 84F83C10 		strb	r1, [r4, #60]
 217              		.loc 1 104 0
 218 00a0 2664     		str	r6, [r4, #64]	@ float
 219              		.loc 1 108 0
 220 00a2 E064     		str	r0, [r4, #76]	@ float
 221              		.loc 1 112 0
 222 00a4 A765     		str	r7, [r4, #88]	@ float
 223              		.loc 1 115 0
 224 00a6 6766     		str	r7, [r4, #100]	@ float
 225              		.loc 1 152 0
 226 00a8 4FF04C09 		mov	r9, #76
 227              		.loc 1 125 0
 228 00ac 84F87C10 		strb	r1, [r4, #124]
ARM GAS  C:\Users\Grillmo\AppData\Local\Temp\cchyPTfM.s 			page 5


 229              		.loc 1 127 0
 230 00b0 C4F88480 		str	r8, [r4, #132]	@ float
 231              		.loc 1 131 0
 232 00b4 C4F890C0 		str	ip, [r4, #144]
 233              		.loc 1 153 0
 234 00b8 4FF0C608 		mov	r8, #198
 235              		.loc 1 154 0
 236 00bc 4FF0C70C 		mov	ip, #199
 237              		.loc 1 133 0
 238 00c0 4FF4E13A 		mov	r10, #115200
 239              		.loc 1 151 0
 240 00c4 84F8C050 		strb	r5, [r4, #192]
 241              		.loc 1 155 0
 242 00c8 84F8C430 		strb	r3, [r4, #196]
 243              		.loc 1 152 0
 244 00cc 84F8C190 		strb	r9, [r4, #193]
 245              		.loc 1 153 0
 246 00d0 84F8C280 		strb	r8, [r4, #194]
 247              		.loc 1 154 0
 248 00d4 84F8C3C0 		strb	ip, [r4, #195]
 249              		.loc 1 126 0
 250 00d8 C4F88060 		str	r6, [r4, #128]	@ float
 251              		.loc 1 128 0
 252 00dc 84F88830 		strb	r3, [r4, #136]
 253              		.loc 1 129 0
 254 00e0 84F88930 		strb	r3, [r4, #137]
 255              		.loc 1 130 0
 256 00e4 C4F88C00 		str	r0, [r4, #140]	@ float
 257              		.loc 1 135 0
 258 00e8 84F89820 		strb	r2, [r4, #152]
 259              		.loc 1 136 0
 260 00ec C4F89CE0 		str	lr, [r4, #156]	@ float
 261              		.loc 1 137 0
 262 00f0 C4F8A070 		str	r7, [r4, #160]	@ float
 263              		.loc 1 138 0
 264 00f4 C4F8A460 		str	r6, [r4, #164]	@ float
 265              		.loc 1 139 0
 266 00f8 C4F8A800 		str	r0, [r4, #168]	@ float
 267              		.loc 1 142 0
 268 00fc 84F8B410 		strb	r1, [r4, #180]
 269              		.loc 1 143 0
 270 0100 84F8B530 		strb	r3, [r4, #181]
 271              		.loc 1 144 0
 272 0104 84F8B630 		strb	r3, [r4, #182]
 273              		.loc 1 145 0
 274 0108 C4F8B800 		str	r0, [r4, #184]	@ float
 275              		.loc 1 147 0
 276 010c 84F8BC10 		strb	r1, [r4, #188]
 277              		.loc 1 148 0
 278 0110 84F8BD50 		strb	r5, [r4, #189]
 279              		.loc 1 149 0
 280 0114 84F8BE20 		strb	r2, [r4, #190]
 281              		.loc 1 150 0
 282 0118 84F8BF30 		strb	r3, [r4, #191]
 283              		.loc 1 156 0
 284 011c 84F8C520 		strb	r2, [r4, #197]
 285              		.loc 1 133 0
ARM GAS  C:\Users\Grillmo\AppData\Local\Temp\cchyPTfM.s 			page 6


 286 0120 C4F894A0 		str	r10, [r4, #148]
 287              		.loc 1 154 0
 288 0124 BDE8F087 		pop	{r4, r5, r6, r7, r8, r9, r10, pc}
 289              	.LVL8:
 290              	.L13:
 291              		.align	2
 292              	.L12:
 293 0128 00606A46 		.word	1181376512
 294 012c 00803B45 		.word	1161527296
 295 0130 9A99993E 		.word	1050253722
 296 0134 6666663F 		.word	1063675494
 297 0138 9A99193E 		.word	1041865114
 298 013c CDCCCC3D 		.word	1036831949
 299 0140 00004040 		.word	1077936128
 300              		.cfi_endproc
 301              	.LFE220:
 302              		.size	conf_general_get_default_app_configuration, .-conf_general_get_default_app_configuration
 303              		.section	.text.conf_general_get_default_mc_configuration,"ax",%progbits
 304              		.align	1
 305              		.p2align 4,,15
 306              		.global	conf_general_get_default_mc_configuration
 307              		.syntax unified
 308              		.thumb
 309              		.thumb_func
 310              		.fpu fpv4-sp-d16
 311              		.type	conf_general_get_default_mc_configuration, %function
 312              	conf_general_get_default_mc_configuration:
 313              	.LFB221:
 314              		.loc 1 165 0
 315              		.cfi_startproc
 316              		@ args = 0, pretend = 0, frame = 0
 317              		@ frame_needed = 0, uses_anonymous_args = 0
 318              	.LVL9:
 319 0000 2DE9F843 		push	{r3, r4, r5, r6, r7, r8, r9, lr}
 320              		.cfi_def_cfa_offset 32
 321              		.cfi_offset 3, -32
 322              		.cfi_offset 4, -28
 323              		.cfi_offset 5, -24
 324              		.cfi_offset 6, -20
 325              		.cfi_offset 7, -16
 326              		.cfi_offset 8, -12
 327              		.cfi_offset 9, -8
 328              		.cfi_offset 14, -4
 329              		.loc 1 166 0
 330 0004 4FF4BA72 		mov	r2, #372
 331              		.loc 1 165 0
 332 0008 0446     		mov	r4, r0
 333              		.loc 1 166 0
 334 000a 0021     		movs	r1, #0
 335 000c FFF7FEFF 		bl	memset
 336              	.LVL10:
 337              		.loc 1 176 0
 338 0010 864F     		ldr	r7, .L16
 339              		.loc 1 183 0
 340 0012 8748     		ldr	r0, .L16+4
 341              		.loc 1 177 0
 342 0014 8749     		ldr	r1, .L16+8
ARM GAS  C:\Users\Grillmo\AppData\Local\Temp\cchyPTfM.s 			page 7


 343              		.loc 1 178 0
 344 0016 884B     		ldr	r3, .L16+12
 345              		.loc 1 176 0
 346 0018 6761     		str	r7, [r4, #20]	@ float
 347              		.loc 1 183 0
 348 001a 2063     		str	r0, [r4, #48]	@ float
 349              		.loc 1 193 0
 350 001c 874F     		ldr	r7, .L16+16
 351              		.loc 1 175 0
 352 001e 8848     		ldr	r0, .L16+20
 353              		.loc 1 180 0
 354 0020 884A     		ldr	r2, .L16+24
 355              		.loc 1 181 0
 356 0022 894D     		ldr	r5, .L16+28
 357              		.loc 1 191 0
 358 0024 894E     		ldr	r6, .L16+32
 359              		.loc 1 192 0
 360 0026 DFF8A4E2 		ldr	lr, .L16+160
 361              		.loc 1 177 0
 362 002a A161     		str	r1, [r4, #24]	@ float
 363              		.loc 1 178 0
 364 002c E361     		str	r3, [r4, #28]	@ float
 365              		.loc 1 194 0
 366 002e 8849     		ldr	r1, .L16+36
 367              		.loc 1 195 0
 368 0030 884B     		ldr	r3, .L16+40
 369              		.loc 1 193 0
 370 0032 A765     		str	r7, [r4, #88]	@ float
 371              		.loc 1 175 0
 372 0034 2061     		str	r0, [r4, #16]	@ float
 373              		.loc 1 188 0
 374 0036 884F     		ldr	r7, .L16+44
 375              		.loc 1 200 0
 376 0038 2067     		str	r0, [r4, #112]	@ float
 377              		.loc 1 182 0
 378 003a 4FF08240 		mov	r0, #1090519040
 379              		.loc 1 180 0
 380 003e 6262     		str	r2, [r4, #36]	@ float
 381              		.loc 1 181 0
 382 0040 A562     		str	r5, [r4, #40]	@ float
 383              		.loc 1 172 0
 384 0042 864A     		ldr	r2, .L16+48
 385              		.loc 1 173 0
 386 0044 864D     		ldr	r5, .L16+52
 387              		.loc 1 191 0
 388 0046 2665     		str	r6, [r4, #80]	@ float
 389              		.loc 1 192 0
 390 0048 C4F854E0 		str	lr, [r4, #84]	@ float
 391              		.loc 1 179 0
 392 004c 854E     		ldr	r6, .L16+56
 393              		.loc 1 187 0
 394 004e DFF880E2 		ldr	lr, .L16+164
 395              		.loc 1 194 0
 396 0052 E165     		str	r1, [r4, #92]	@ float
 397              		.loc 1 195 0
 398 0054 2366     		str	r3, [r4, #96]	@ float
 399              		.loc 1 167 0
ARM GAS  C:\Users\Grillmo\AppData\Local\Temp\cchyPTfM.s 			page 8


 400 0056 0121     		movs	r1, #1
 401              		.loc 1 168 0
 402 0058 0023     		movs	r3, #0
 403              		.loc 1 182 0
 404 005a E062     		str	r0, [r4, #44]	@ float
 405              		.loc 1 185 0
 406 005c A063     		str	r0, [r4, #56]	@ float
 407              		.loc 1 188 0
 408 005e 6764     		str	r7, [r4, #68]	@ float
 409              		.loc 1 184 0
 410 0060 8148     		ldr	r0, .L16+60
 411              		.loc 1 190 0
 412 0062 E764     		str	r7, [r4, #76]	@ float
 413              		.loc 1 210 0
 414 0064 814F     		ldr	r7, .L16+64
 415              		.loc 1 167 0
 416 0066 2170     		strb	r1, [r4]
 417              		.loc 1 186 0
 418 0068 84F83C10 		strb	r1, [r4, #60]
 419              		.loc 1 172 0
 420 006c 6260     		str	r2, [r4, #4]	@ float
 421              		.loc 1 174 0
 422 006e E260     		str	r2, [r4, #12]	@ float
 423              		.loc 1 197 0
 424 0070 6266     		str	r2, [r4, #100]	@ float
 425              		.loc 1 199 0
 426 0072 E266     		str	r2, [r4, #108]	@ float
 427              		.loc 1 173 0
 428 0074 A560     		str	r5, [r4, #8]	@ float
 429              		.loc 1 198 0
 430 0076 A566     		str	r5, [r4, #104]	@ float
 431              		.loc 1 179 0
 432 0078 2662     		str	r6, [r4, #32]	@ float
 433              		.loc 1 184 0
 434 007a 6063     		str	r0, [r4, #52]	@ float
 435              		.loc 1 187 0
 436 007c C4F840E0 		str	lr, [r4, #64]	@ float
 437              		.loc 1 189 0
 438 0080 C4F848E0 		str	lr, [r4, #72]	@ float
 439              		.loc 1 168 0
 440 0084 6370     		strb	r3, [r4, #1]
 441              		.loc 1 169 0
 442 0086 A370     		strb	r3, [r4, #2]
 443              		.loc 1 170 0
 444 0088 E370     		strb	r3, [r4, #3]
 445              		.loc 1 201 0
 446 008a 6267     		str	r2, [r4, #116]	@ float
 447              		.loc 1 210 0
 448 008c C4F89470 		str	r7, [r4, #148]	@ float
 449              		.loc 1 214 0
 450 0090 0327     		movs	r7, #3
 451 0092 84F89A70 		strb	r7, [r4, #154]
 452              		.loc 1 215 0
 453 0096 0227     		movs	r7, #2
 454              		.loc 1 209 0
 455 0098 754A     		ldr	r2, .L16+68
 456              		.loc 1 215 0
ARM GAS  C:\Users\Grillmo\AppData\Local\Temp\cchyPTfM.s 			page 9


 457 009a 84F89B70 		strb	r7, [r4, #155]
 458              		.loc 1 216 0
 459 009e 0527     		movs	r7, #5
 460              		.loc 1 209 0
 461 00a0 C4F89020 		str	r2, [r4, #144]	@ float
 462              		.loc 1 216 0
 463 00a4 84F89C70 		strb	r7, [r4, #156]
 464              		.loc 1 227 0
 465 00a8 724A     		ldr	r2, .L16+72
 466              		.loc 1 207 0
 467 00aa DFF828E2 		ldr	lr, .L16+168
 468              		.loc 1 202 0
 469 00ae A567     		str	r5, [r4, #120]	@ float
 470              		.loc 1 217 0
 471 00b0 0627     		movs	r7, #6
 472              		.loc 1 208 0
 473 00b2 C4F88C60 		str	r6, [r4, #140]	@ float
 474              		.loc 1 224 0
 475 00b6 704D     		ldr	r5, .L16+76
 476              		.loc 1 223 0
 477 00b8 704E     		ldr	r6, .L16+80
 478              		.loc 1 217 0
 479 00ba 84F89D70 		strb	r7, [r4, #157]
 480              		.loc 1 227 0
 481 00be C4F8B420 		str	r2, [r4, #180]	@ float
 482              		.loc 1 218 0
 483 00c2 0427     		movs	r7, #4
 484              		.loc 1 228 0
 485 00c4 6E4A     		ldr	r2, .L16+84
 486              		.loc 1 207 0
 487 00c6 C4F888E0 		str	lr, [r4, #136]	@ float
 488              		.loc 1 218 0
 489 00ca 84F89E70 		strb	r7, [r4, #158]
 490              		.loc 1 225 0
 491 00ce DFF808E2 		ldr	lr, .L16+172
 492              		.loc 1 232 0
 493 00d2 6C4F     		ldr	r7, .L16+88
 494              		.loc 1 223 0
 495 00d4 C4F8A860 		str	r6, [r4, #168]	@ float
 496              		.loc 1 224 0
 497 00d8 C4F8AC50 		str	r5, [r4, #172]	@ float
 498              		.loc 1 233 0
 499 00dc 6A4E     		ldr	r6, .L16+92
 500              		.loc 1 234 0
 501 00de 6B4D     		ldr	r5, .L16+96
 502              		.loc 1 228 0
 503 00e0 C4F8BC20 		str	r2, [r4, #188]	@ float
 504              		.loc 1 236 0
 505 00e4 6A4A     		ldr	r2, .L16+100
 506              		.loc 1 204 0
 507 00e6 DFF8F481 		ldr	r8, .L16+176
 508              		.loc 1 206 0
 509 00ea DFF8F4C1 		ldr	ip, .L16+180
 510              		.loc 1 225 0
 511 00ee C4F8B0E0 		str	lr, [r4, #176]	@ float
 512              		.loc 1 232 0
 513 00f2 C4F8C070 		str	r7, [r4, #192]	@ float
ARM GAS  C:\Users\Grillmo\AppData\Local\Temp\cchyPTfM.s 			page 10


 514              		.loc 1 235 0
 515 00f6 DFF8ECE1 		ldr	lr, .L16+184
 516              		.loc 1 220 0
 517 00fa 664F     		ldr	r7, .L16+104
 518              		.loc 1 233 0
 519 00fc C4F8C460 		str	r6, [r4, #196]	@ float
 520              		.loc 1 234 0
 521 0100 C4F8C850 		str	r5, [r4, #200]	@ float
 522              		.loc 1 222 0
 523 0104 644E     		ldr	r6, .L16+108
 524              		.loc 1 231 0
 525 0106 654D     		ldr	r5, .L16+112
 526              		.loc 1 236 0
 527 0108 C4F8D020 		str	r2, [r4, #208]	@ float
 528              		.loc 1 212 0
 529 010c FF22     		movs	r2, #255
 530              		.loc 1 205 0
 531 010e C4F88400 		str	r0, [r4, #132]	@ float
 532              		.loc 1 213 0
 533 0112 84F89910 		strb	r1, [r4, #153]
 534              		.loc 1 204 0
 535 0116 C4F87C80 		str	r8, [r4, #124]	@ float
 536              		.loc 1 206 0
 537 011a C4F880C0 		str	ip, [r4, #128]	@ float
 538              		.loc 1 235 0
 539 011e C4F8CCE0 		str	lr, [r4, #204]	@ float
 540              		.loc 1 212 0
 541 0122 84F89820 		strb	r2, [r4, #152]
 542              		.loc 1 219 0
 543 0126 84F89F20 		strb	r2, [r4, #159]
 544              		.loc 1 220 0
 545 012a C4F8A070 		str	r7, [r4, #160]	@ float
 546              		.loc 1 230 0
 547 012e C4F8D470 		str	r7, [r4, #212]	@ float
 548              		.loc 1 222 0
 549 0132 C4F8A460 		str	r6, [r4, #164]	@ float
 550              		.loc 1 261 0
 551 0136 DFF8B0E1 		ldr	lr, .L16+188
 552              		.loc 1 226 0
 553 013a 84F8B830 		strb	r3, [r4, #184]
 554              		.loc 1 229 0
 555 013e 84F8F830 		strb	r3, [r4, #248]
 556              		.loc 1 231 0
 557 0142 C4F8D850 		str	r5, [r4, #216]	@ float
 558              		.loc 1 237 0
 559 0146 C4F8DC00 		str	r0, [r4, #220]	@ float
 560              		.loc 1 257 0
 561 014a 5548     		ldr	r0, .L16+116
 562              		.loc 1 244 0
 563 014c 84F8F920 		strb	r2, [r4, #249]
 564              		.loc 1 245 0
 565 0150 84F8FA20 		strb	r2, [r4, #250]
 566              		.loc 1 246 0
 567 0154 84F8FB20 		strb	r2, [r4, #251]
 568              		.loc 1 247 0
 569 0158 84F8FC20 		strb	r2, [r4, #252]
 570              		.loc 1 248 0
ARM GAS  C:\Users\Grillmo\AppData\Local\Temp\cchyPTfM.s 			page 11


 571 015c 84F8FD20 		strb	r2, [r4, #253]
 572              		.loc 1 249 0
 573 0160 84F8FE20 		strb	r2, [r4, #254]
 574              		.loc 1 250 0
 575 0164 84F8FF20 		strb	r2, [r4, #255]
 576              		.loc 1 251 0
 577 0168 84F80021 		strb	r2, [r4, #256]
 578              		.loc 1 263 0
 579 016c 84F82811 		strb	r1, [r4, #296]
 580              		.loc 1 262 0
 581 0170 4C4A     		ldr	r2, .L16+120
 582              		.loc 1 267 0
 583 0172 4D49     		ldr	r1, .L16+124
 584              		.loc 1 257 0
 585 0174 C4F81401 		str	r0, [r4, #276]	@ float
 586              		.loc 1 261 0
 587 0178 C4F820E1 		str	lr, [r4, #288]	@ float
 588              		.loc 1 273 0
 589 017c 4B48     		ldr	r0, .L16+128
 590              		.loc 1 276 0
 591 017e DFF86CE1 		ldr	lr, .L16+192
 592              		.loc 1 265 0
 593 0182 C4F82C61 		str	r6, [r4, #300]	@ float
 594              		.loc 1 270 0
 595 0186 4A4F     		ldr	r7, .L16+132
 596              		.loc 1 272 0
 597 0188 4A4E     		ldr	r6, .L16+136
 598              		.loc 1 262 0
 599 018a C4F82421 		str	r2, [r4, #292]	@ float
 600              		.loc 1 267 0
 601 018e C4F83411 		str	r1, [r4, #308]	@ float
 602              		.loc 1 240 0
 603 0192 494A     		ldr	r2, .L16+140
 604              		.loc 1 273 0
 605 0194 C4F84801 		str	r0, [r4, #328]	@ float
 606              		.loc 1 268 0
 607 0198 4FF07E51 		mov	r1, #1065353216
 608              		.loc 1 275 0
 609 019c 4FF4FA70 		mov	r0, #500
 610              		.loc 1 276 0
 611 01a0 C4F850E1 		str	lr, [r4, #336]	@ float
 612              		.loc 1 277 0
 613 01a4 4FF07C5E 		mov	lr, #1056964608
 614              		.loc 1 268 0
 615 01a8 C4F83811 		str	r1, [r4, #312]	@ float
 616              		.loc 1 270 0
 617 01ac C4F83C71 		str	r7, [r4, #316]	@ float
 618              		.loc 1 259 0
 619 01b0 4249     		ldr	r1, .L16+144
 620              		.loc 1 272 0
 621 01b2 C4F84461 		str	r6, [r4, #324]	@ float
 622              		.loc 1 275 0
 623 01b6 C4F84C01 		str	r0, [r4, #332]
 624              		.loc 1 277 0
 625 01ba C4F854E1 		str	lr, [r4, #340]	@ float
 626              		.loc 1 240 0
 627 01be C4F8E820 		str	r2, [r4, #232]	@ float
ARM GAS  C:\Users\Grillmo\AppData\Local\Temp\cchyPTfM.s 			page 12


 628              		.loc 1 241 0
 629 01c2 C4F8EC20 		str	r2, [r4, #236]	@ float
 630              		.loc 1 271 0
 631 01c6 C4F84021 		str	r2, [r4, #320]	@ float
 632              		.loc 1 238 0
 633 01ca DFF82491 		ldr	r9, .L16+196
 634              		.loc 1 239 0
 635 01ce DFF82481 		ldr	r8, .L16+200
 636              		.loc 1 252 0
 637 01d2 DFF824C1 		ldr	ip, .L16+204
 638              		.loc 1 283 0
 639 01d6 3A4F     		ldr	r7, .L16+148
 640              		.loc 1 285 0
 641 01d8 3A4E     		ldr	r6, .L16+152
 642              		.loc 1 286 0
 643 01da 3B48     		ldr	r0, .L16+156
 644              		.loc 1 253 0
 645 01dc 84F80831 		strb	r3, [r4, #264]
 646              		.loc 1 278 0
 647 01e0 4FF4005E 		mov	lr, #8192
 648              		.loc 1 282 0
 649 01e4 1022     		movs	r2, #16
 650              		.loc 1 254 0
 651 01e6 84F80931 		strb	r3, [r4, #265]
 652              		.loc 1 256 0
 653 01ea 84F81031 		strb	r3, [r4, #272]
 654              		.loc 1 238 0
 655 01ee C4F8E090 		str	r9, [r4, #224]	@ float
 656              		.loc 1 239 0
 657 01f2 C4F8E480 		str	r8, [r4, #228]	@ float
 658              		.loc 1 252 0
 659 01f6 C4F804C1 		str	ip, [r4, #260]	@ float
 660              		.loc 1 259 0
 661 01fa C4F81811 		str	r1, [r4, #280]	@ float
 662              		.loc 1 260 0
 663 01fe C4F81C11 		str	r1, [r4, #284]	@ float
 664              		.loc 1 278 0
 665 0202 C4F858E1 		str	lr, [r4, #344]
 666              		.loc 1 279 0
 667 0206 84F85C31 		strb	r3, [r4, #348]
 668              		.loc 1 280 0
 669 020a 84F85D31 		strb	r3, [r4, #349]
 670              		.loc 1 281 0
 671 020e 84F85E31 		strb	r3, [r4, #350]
 672              		.loc 1 284 0
 673 0212 C4F86851 		str	r5, [r4, #360]	@ float
 674              		.loc 1 282 0
 675 0216 C4F86021 		str	r2, [r4, #352]
 676              		.loc 1 283 0
 677 021a C4F86471 		str	r7, [r4, #356]	@ float
 678              		.loc 1 285 0
 679 021e C4F86C61 		str	r6, [r4, #364]	@ float
 680              		.loc 1 286 0
 681 0222 C4F87001 		str	r0, [r4, #368]	@ float
 682 0226 BDE8F883 		pop	{r3, r4, r5, r6, r7, r8, r9, pc}
 683              	.LVL11:
 684              	.L17:
ARM GAS  C:\Users\Grillmo\AppData\Local\Temp\cchyPTfM.s 			page 13


 685 022a 00BF     		.align	2
 686              	.L16:
 687 022c 00000243 		.word	1124204544
 688 0230 00006442 		.word	1113849856
 689 0234 0050C3C7 		.word	-943501312
 690 0238 0050C347 		.word	1203982336
 691 023c 3333733F 		.word	1064514355
 692 0240 000020C2 		.word	-1038090240
 693 0244 00009643 		.word	1133903872
 694 0248 0080BB44 		.word	1153138688
 695 024c 9A99193E 		.word	1041865114
 696 0250 00606A46 		.word	1181376512
 697 0254 00606AC6 		.word	-966107136
 698 0258 0000C842 		.word	1120403456
 699 025c 00007042 		.word	1114636288
 700 0260 000070C2 		.word	-1032847360
 701 0264 CDCC4C3F 		.word	1061997773
 702 0268 00002041 		.word	1092616192
 703 026c 00001644 		.word	1142292480
 704 0270 00409C47 		.word	1201422336
 705 0274 00003443 		.word	1127481344
 706 0278 00409C46 		.word	1184645120
 707 027c 00004842 		.word	1112014848
 708 0280 0000E040 		.word	1088421888
 709 0284 8BE1EA36 		.word	921362827
 710 0288 8FC2753C 		.word	1014350479
 711 028c 2E90203B 		.word	991989806
 712 0290 9A99993E 		.word	1050253722
 713 0294 0000FA44 		.word	1157234688
 714 0298 8FC2F53C 		.word	1022739087
 715 029c 00401C47 		.word	1193033728
 716 02a0 0000C841 		.word	1103626240
 717 02a4 00006144 		.word	1147207680
 718 02a8 17B7D139 		.word	970045207
 719 02ac 0AD7233D 		.word	1025758986
 720 02b0 0AD7233C 		.word	1008981770
 721 02b4 99BB963B 		.word	999734169
 722 02b8 CDCCCC3D 		.word	1036831949
 723 02bc 6F12833B 		.word	998445679
 724 02c0 00803B45 		.word	1161527296
 725 02c4 00B80847 		.word	1191753728
 726 02c8 00405345 		.word	1163083776
 727 02cc 0AD7A33B 		.word	1000593162
 728 02d0 0000AA42 		.word	1118437376
 729 02d4 00007842 		.word	1115160576
 730 02d8 0AD7A33D 		.word	1034147594
 731 02dc 00001643 		.word	1125515264
 732 02e0 00808944 		.word	1149861888
 733 02e4 50A9AB4C 		.word	1286318416
 734 02e8 17B7D138 		.word	953267991
 735 02ec 0AD7A33C 		.word	1017370378
 736 02f0 00004843 		.word	1128792064
 737 02f4 0000C843 		.word	1137180672
 738 02f8 00401C45 		.word	1159479296
 739              		.cfi_endproc
 740              	.LFE221:
 741              		.size	conf_general_get_default_mc_configuration, .-conf_general_get_default_mc_configuration
ARM GAS  C:\Users\Grillmo\AppData\Local\Temp\cchyPTfM.s 			page 14


 742              		.section	.text.conf_general_read_app_configuration,"ax",%progbits
 743              		.align	1
 744              		.p2align 4,,15
 745              		.global	conf_general_read_app_configuration
 746              		.syntax unified
 747              		.thumb
 748              		.thumb_func
 749              		.fpu fpv4-sp-d16
 750              		.type	conf_general_read_app_configuration, %function
 751              	conf_general_read_app_configuration:
 752              	.LFB222:
 753              		.loc 1 295 0
 754              		.cfi_startproc
 755              		@ args = 0, pretend = 0, frame = 8
 756              		@ frame_needed = 0, uses_anonymous_args = 0
 757              	.LVL12:
 758 0000 F0B5     		push	{r4, r5, r6, r7, lr}
 759              		.cfi_def_cfa_offset 20
 760              		.cfi_offset 4, -20
 761              		.cfi_offset 5, -16
 762              		.cfi_offset 6, -12
 763              		.cfi_offset 7, -8
 764              		.cfi_offset 14, -4
 765 0002 0746     		mov	r7, r0
 766              	.LVL13:
 767 0004 83B0     		sub	sp, sp, #12
 768              		.cfi_def_cfa_offset 32
 769 0006 451C     		adds	r5, r0, #1
 770              		.loc 1 295 0
 771 0008 4FF4FA64 		mov	r4, #2000
 772              	.LBB4:
 773              		.loc 1 300 0
 774 000c 40F63406 		movw	r6, #2100
 775 0010 09E0     		b	.L20
 776              	.LVL14:
 777              	.L24:
 778              		.loc 1 302 0
 779 0012 BDF80630 		ldrh	r3, [sp, #6]
 780              		.loc 1 300 0
 781 0016 B442     		cmp	r4, r6
 782              		.loc 1 302 0
 783 0018 4FEA1322 		lsr	r2, r3, #8
 784 001c 05F8012C 		strb	r2, [r5, #-1]
 785              		.loc 1 303 0
 786 0020 05F8023B 		strb	r3, [r5], #2
 787              		.loc 1 300 0
 788 0024 0BD0     		beq	.L18
 789              	.L20:
 790              		.loc 1 301 0
 791 0026 2046     		mov	r0, r4
 792 0028 0DF10601 		add	r1, sp, #6
 793 002c FFF7FEFF 		bl	EE_ReadVariable
 794              	.LVL15:
 795 0030 0134     		adds	r4, r4, #1
 796 0032 A4B2     		uxth	r4, r4
 797 0034 0028     		cmp	r0, #0
 798 0036 ECD0     		beq	.L24
ARM GAS  C:\Users\Grillmo\AppData\Local\Temp\cchyPTfM.s 			page 15


 799              	.LVL16:
 800              	.LBE4:
 801              		.loc 1 312 0
 802 0038 3846     		mov	r0, r7
 803 003a FFF7FEFF 		bl	conf_general_get_default_app_configuration
 804              	.LVL17:
 805              	.L18:
 806              		.loc 1 314 0
 807 003e 03B0     		add	sp, sp, #12
 808              		.cfi_def_cfa_offset 20
 809              		@ sp needed
 810 0040 F0BD     		pop	{r4, r5, r6, r7, pc}
 811              		.cfi_endproc
 812              	.LFE222:
 813              		.size	conf_general_read_app_configuration, .-conf_general_read_app_configuration
 814 0042 00BF     		.section	.text.conf_general_store_app_configuration,"ax",%progbits
 815              		.align	1
 816              		.p2align 4,,15
 817              		.global	conf_general_store_app_configuration
 818              		.syntax unified
 819              		.thumb
 820              		.thumb_func
 821              		.fpu fpv4-sp-d16
 822              		.type	conf_general_store_app_configuration, %function
 823              	conf_general_store_app_configuration:
 824              	.LFB223:
 825              		.loc 1 322 0
 826              		.cfi_startproc
 827              		@ args = 0, pretend = 0, frame = 0
 828              		@ frame_needed = 0, uses_anonymous_args = 0
 829              	.LVL18:
 830 0000 70B5     		push	{r4, r5, r6, lr}
 831              		.cfi_def_cfa_offset 16
 832              		.cfi_offset 4, -16
 833              		.cfi_offset 5, -12
 834              		.cfi_offset 6, -8
 835              		.cfi_offset 14, -4
 836              		.loc 1 322 0
 837 0002 0546     		mov	r5, r0
 838              		.loc 1 323 0
 839 0004 FFF7FEFF 		bl	mc_interface_unlock
 840              	.LVL19:
 841              		.loc 1 324 0
 842 0008 FFF7FEFF 		bl	mc_interface_release_motor
 843              	.LVL20:
 844              		.loc 1 326 0
 845 000c FFF7FEFF 		bl	utils_sys_lock_cnt
 846              	.LVL21:
 847              		.loc 1 327 0
 848 0010 FFF7FEFF 		bl	mc_interface_lock
 849              	.LVL22:
 850              		.loc 1 329 0
 851 0014 0021     		movs	r1, #0
 852 0016 4FF40060 		mov	r0, #2048
 853 001a FFF7FEFF 		bl	RCC_APB1PeriphClockCmd
 854              	.LVL23:
 855              		.loc 1 335 0
ARM GAS  C:\Users\Grillmo\AppData\Local\Temp\cchyPTfM.s 			page 16


 856 001e F220     		movs	r0, #242
 857 0020 FFF7FEFF 		bl	FLASH_ClearFlag
 858              	.LVL24:
 859 0024 0135     		adds	r5, r5, #1
 860              	.LVL25:
 861 0026 4FF4FA64 		mov	r4, #2000
 862              	.LBB5:
 863              		.loc 1 338 0
 864 002a 40F63406 		movw	r6, #2100
 865 002e 01E0     		b	.L27
 866              	.LVL26:
 867              	.L32:
 868              		.loc 1 338 0 is_stmt 0 discriminator 2
 869 0030 B442     		cmp	r4, r6
 870 0032 1DD0     		beq	.L31
 871              	.L27:
 872              		.loc 1 339 0 is_stmt 1
 873 0034 15F8011C 		ldrb	r1, [r5, #-1]	@ zero_extendqisi2
 874              	.LVL27:
 875              		.loc 1 340 0
 876 0038 2B78     		ldrb	r3, [r5]	@ zero_extendqisi2
 877              		.loc 1 342 0
 878 003a 2046     		mov	r0, r4
 879 003c 43EA0121 		orr	r1, r3, r1, lsl #8
 880              	.LVL28:
 881 0040 FFF7FEFF 		bl	EE_WriteVariable
 882              	.LVL29:
 883 0044 0134     		adds	r4, r4, #1
 884 0046 0928     		cmp	r0, #9
 885 0048 A4B2     		uxth	r4, r4
 886 004a 05F10205 		add	r5, r5, #2
 887 004e EFD0     		beq	.L32
 888              		.loc 1 343 0
 889 0050 0024     		movs	r4, #0
 890              	.L26:
 891              	.LVL30:
 892              	.LBE5:
 893              		.loc 1 348 0
 894 0052 0121     		movs	r1, #1
 895 0054 4FF40060 		mov	r0, #2048
 896 0058 FFF7FEFF 		bl	RCC_APB1PeriphClockCmd
 897              	.LVL31:
 898              		.loc 1 350 0
 899 005c 4FF47A70 		mov	r0, #1000
 900 0060 FFF7FEFF 		bl	chThdSleep
 901              	.LVL32:
 902              		.loc 1 351 0
 903 0064 FFF7FEFF 		bl	mc_interface_unlock
 904              	.LVL33:
 905              		.loc 1 352 0
 906 0068 FFF7FEFF 		bl	utils_sys_unlock_cnt
 907              	.LVL34:
 908              		.loc 1 355 0
 909 006c 2046     		mov	r0, r4
 910 006e 70BD     		pop	{r4, r5, r6, pc}
 911              	.LVL35:
 912              	.L31:
ARM GAS  C:\Users\Grillmo\AppData\Local\Temp\cchyPTfM.s 			page 17


 913              		.loc 1 331 0
 914 0070 0124     		movs	r4, #1
 915              	.LBB6:
 916 0072 EEE7     		b	.L26
 917              	.LBE6:
 918              		.cfi_endproc
 919              	.LFE223:
 920              		.size	conf_general_store_app_configuration, .-conf_general_store_app_configuration
 921              		.section	.text.conf_general_read_mc_configuration,"ax",%progbits
 922              		.align	1
 923              		.p2align 4,,15
 924              		.global	conf_general_read_mc_configuration
 925              		.syntax unified
 926              		.thumb
 927              		.thumb_func
 928              		.fpu fpv4-sp-d16
 929              		.type	conf_general_read_mc_configuration, %function
 930              	conf_general_read_mc_configuration:
 931              	.LFB224:
 932              		.loc 1 363 0
 933              		.cfi_startproc
 934              		@ args = 0, pretend = 0, frame = 8
 935              		@ frame_needed = 0, uses_anonymous_args = 0
 936              	.LVL36:
 937 0000 F0B5     		push	{r4, r5, r6, r7, lr}
 938              		.cfi_def_cfa_offset 20
 939              		.cfi_offset 4, -20
 940              		.cfi_offset 5, -16
 941              		.cfi_offset 6, -12
 942              		.cfi_offset 7, -8
 943              		.cfi_offset 14, -4
 944 0002 0746     		mov	r7, r0
 945              	.LVL37:
 946 0004 83B0     		sub	sp, sp, #12
 947              		.cfi_def_cfa_offset 32
 948 0006 451C     		adds	r5, r0, #1
 949              		.loc 1 363 0
 950 0008 4FF47A74 		mov	r4, #1000
 951              	.LBB7:
 952              		.loc 1 368 0
 953 000c 40F2A246 		movw	r6, #1186
 954 0010 09E0     		b	.L35
 955              	.LVL38:
 956              	.L39:
 957              		.loc 1 370 0
 958 0012 BDF80630 		ldrh	r3, [sp, #6]
 959              		.loc 1 368 0
 960 0016 B442     		cmp	r4, r6
 961              		.loc 1 370 0
 962 0018 4FEA1322 		lsr	r2, r3, #8
 963 001c 05F8012C 		strb	r2, [r5, #-1]
 964              		.loc 1 371 0
 965 0020 05F8023B 		strb	r3, [r5], #2
 966              		.loc 1 368 0
 967 0024 0BD0     		beq	.L33
 968              	.L35:
 969              		.loc 1 369 0
ARM GAS  C:\Users\Grillmo\AppData\Local\Temp\cchyPTfM.s 			page 18


 970 0026 2046     		mov	r0, r4
 971 0028 0DF10601 		add	r1, sp, #6
 972 002c FFF7FEFF 		bl	EE_ReadVariable
 973              	.LVL39:
 974 0030 0134     		adds	r4, r4, #1
 975 0032 A4B2     		uxth	r4, r4
 976 0034 0028     		cmp	r0, #0
 977 0036 ECD0     		beq	.L39
 978              	.LVL40:
 979              	.LBE7:
 980              		.loc 1 379 0
 981 0038 3846     		mov	r0, r7
 982 003a FFF7FEFF 		bl	conf_general_get_default_mc_configuration
 983              	.LVL41:
 984              	.L33:
 985              		.loc 1 381 0
 986 003e 03B0     		add	sp, sp, #12
 987              		.cfi_def_cfa_offset 20
 988              		@ sp needed
 989 0040 F0BD     		pop	{r4, r5, r6, r7, pc}
 990              		.cfi_endproc
 991              	.LFE224:
 992              		.size	conf_general_read_mc_configuration, .-conf_general_read_mc_configuration
 993 0042 00BF     		.section	.text.conf_general_store_mc_configuration,"ax",%progbits
 994              		.align	1
 995              		.p2align 4,,15
 996              		.global	conf_general_store_mc_configuration
 997              		.syntax unified
 998              		.thumb
 999              		.thumb_func
 1000              		.fpu fpv4-sp-d16
 1001              		.type	conf_general_store_mc_configuration, %function
 1002              	conf_general_store_mc_configuration:
 1003              	.LFB225:
 1004              		.loc 1 389 0
 1005              		.cfi_startproc
 1006              		@ args = 0, pretend = 0, frame = 0
 1007              		@ frame_needed = 0, uses_anonymous_args = 0
 1008              	.LVL42:
 1009 0000 70B5     		push	{r4, r5, r6, lr}
 1010              		.cfi_def_cfa_offset 16
 1011              		.cfi_offset 4, -16
 1012              		.cfi_offset 5, -12
 1013              		.cfi_offset 6, -8
 1014              		.cfi_offset 14, -4
 1015              		.loc 1 389 0
 1016 0002 0546     		mov	r5, r0
 1017              		.loc 1 390 0
 1018 0004 FFF7FEFF 		bl	mc_interface_unlock
 1019              	.LVL43:
 1020              		.loc 1 391 0
 1021 0008 FFF7FEFF 		bl	mc_interface_release_motor
 1022              	.LVL44:
 1023              		.loc 1 393 0
 1024 000c FFF7FEFF 		bl	utils_sys_lock_cnt
 1025              	.LVL45:
 1026              		.loc 1 394 0
ARM GAS  C:\Users\Grillmo\AppData\Local\Temp\cchyPTfM.s 			page 19


 1027 0010 FFF7FEFF 		bl	mc_interface_lock
 1028              	.LVL46:
 1029              		.loc 1 396 0
 1030 0014 0021     		movs	r1, #0
 1031 0016 4FF40060 		mov	r0, #2048
 1032 001a FFF7FEFF 		bl	RCC_APB1PeriphClockCmd
 1033              	.LVL47:
 1034              		.loc 1 402 0
 1035 001e F220     		movs	r0, #242
 1036 0020 FFF7FEFF 		bl	FLASH_ClearFlag
 1037              	.LVL48:
 1038 0024 0135     		adds	r5, r5, #1
 1039              	.LVL49:
 1040 0026 4FF47A74 		mov	r4, #1000
 1041              	.LBB8:
 1042              		.loc 1 405 0
 1043 002a 40F2A246 		movw	r6, #1186
 1044 002e 01E0     		b	.L42
 1045              	.LVL50:
 1046              	.L47:
 1047              		.loc 1 405 0 is_stmt 0 discriminator 2
 1048 0030 B442     		cmp	r4, r6
 1049 0032 1DD0     		beq	.L46
 1050              	.L42:
 1051              		.loc 1 406 0 is_stmt 1
 1052 0034 15F8011C 		ldrb	r1, [r5, #-1]	@ zero_extendqisi2
 1053              	.LVL51:
 1054              		.loc 1 407 0
 1055 0038 2B78     		ldrb	r3, [r5]	@ zero_extendqisi2
 1056              		.loc 1 409 0
 1057 003a 2046     		mov	r0, r4
 1058 003c 43EA0121 		orr	r1, r3, r1, lsl #8
 1059              	.LVL52:
 1060 0040 FFF7FEFF 		bl	EE_WriteVariable
 1061              	.LVL53:
 1062 0044 0134     		adds	r4, r4, #1
 1063 0046 0928     		cmp	r0, #9
 1064 0048 A4B2     		uxth	r4, r4
 1065 004a 05F10205 		add	r5, r5, #2
 1066 004e EFD0     		beq	.L47
 1067              		.loc 1 410 0
 1068 0050 0024     		movs	r4, #0
 1069              	.L41:
 1070              	.LVL54:
 1071              	.LBE8:
 1072              		.loc 1 415 0
 1073 0052 0121     		movs	r1, #1
 1074 0054 4FF40060 		mov	r0, #2048
 1075 0058 FFF7FEFF 		bl	RCC_APB1PeriphClockCmd
 1076              	.LVL55:
 1077              		.loc 1 417 0
 1078 005c 4FF47A70 		mov	r0, #1000
 1079 0060 FFF7FEFF 		bl	chThdSleep
 1080              	.LVL56:
 1081              		.loc 1 418 0
 1082 0064 FFF7FEFF 		bl	mc_interface_unlock
 1083              	.LVL57:
ARM GAS  C:\Users\Grillmo\AppData\Local\Temp\cchyPTfM.s 			page 20


 1084              		.loc 1 419 0
 1085 0068 FFF7FEFF 		bl	utils_sys_unlock_cnt
 1086              	.LVL58:
 1087              		.loc 1 422 0
 1088 006c 2046     		mov	r0, r4
 1089 006e 70BD     		pop	{r4, r5, r6, pc}
 1090              	.LVL59:
 1091              	.L46:
 1092              		.loc 1 398 0
 1093 0070 0124     		movs	r4, #1
 1094              	.LBB9:
 1095 0072 EEE7     		b	.L41
 1096              	.LBE9:
 1097              		.cfi_endproc
 1098              	.LFE225:
 1099              		.size	conf_general_store_mc_configuration, .-conf_general_store_mc_configuration
 1100              		.section	.text.conf_general_detect_motor_param,"ax",%progbits
 1101              		.align	1
 1102              		.p2align 4,,15
 1103              		.global	conf_general_detect_motor_param
 1104              		.syntax unified
 1105              		.thumb
 1106              		.thumb_func
 1107              		.fpu fpv4-sp-d16
 1108              		.type	conf_general_detect_motor_param, %function
 1109              	conf_general_detect_motor_param:
 1110              	.LFB226:
 1111              		.loc 1 425 0
 1112              		.cfi_startproc
 1113              		@ args = 0, pretend = 0, frame = 8
 1114              		@ frame_needed = 0, uses_anonymous_args = 0
 1115              	.LVL60:
 1116 0000 2DE9F04F 		push	{r4, r5, r6, r7, r8, r9, r10, fp, lr}
 1117              		.cfi_def_cfa_offset 36
 1118              		.cfi_offset 4, -36
 1119              		.cfi_offset 5, -32
 1120              		.cfi_offset 6, -28
 1121              		.cfi_offset 7, -24
 1122              		.cfi_offset 8, -20
 1123              		.cfi_offset 9, -16
 1124              		.cfi_offset 10, -12
 1125              		.cfi_offset 11, -8
 1126              		.cfi_offset 14, -4
 1127 0004 2DED068B 		vpush.64	{d8, d9, d10}
 1128              		.cfi_def_cfa_offset 60
 1129              		.cfi_offset 80, -60
 1130              		.cfi_offset 81, -56
 1131              		.cfi_offset 82, -52
 1132              		.cfi_offset 83, -48
 1133              		.cfi_offset 84, -44
 1134              		.cfi_offset 85, -40
 1135 0008 83B0     		sub	sp, sp, #12
 1136              		.cfi_def_cfa_offset 72
 1137              		.loc 1 425 0
 1138 000a F0EE609A 		vmov.f32	s19, s1
 1139 000e B0EE40AA 		vmov.f32	s20, s0
 1140 0012 B0EE419A 		vmov.f32	s18, s2
ARM GAS  C:\Users\Grillmo\AppData\Local\Temp\cchyPTfM.s 			page 21


 1141 0016 0193     		str	r3, [sp, #4]
 1142 0018 8A46     		mov	r10, r1
 1143 001a 9346     		mov	fp, r2
 1144 001c 8046     		mov	r8, r0
 1145              		.loc 1 430 0
 1146 001e FFF7FEFF 		bl	mc_interface_get_configuration
 1147              	.LVL61:
 1148 0022 BF4F     		ldr	r7, .L103
 1149 0024 0146     		mov	r1, r0
 1150 0026 4FF4BA72 		mov	r2, #372
 1151 002a 3846     		mov	r0, r7
 1152 002c FFF7FEFF 		bl	memcpy
 1153              	.LVL62:
 1154              		.loc 1 431 0
 1155 0030 3946     		mov	r1, r7
 1156 0032 4FF4BA72 		mov	r2, #372
 1157 0036 BB48     		ldr	r0, .L103+4
 1158 0038 FFF7FEFF 		bl	memcpy
 1159              	.LVL63:
 1160              		.loc 1 438 0
 1161 003c BA4B     		ldr	r3, .L103+8
 1162              		.loc 1 439 0
 1163 003e BB49     		ldr	r1, .L103+12
 1164              		.loc 1 440 0
 1165 0040 BB4A     		ldr	r2, .L103+16
 1166              		.loc 1 438 0
 1167 0042 C7F89430 		str	r3, [r7, #148]	@ float
 1168              		.loc 1 436 0
 1169 0046 4FF07E50 		mov	r0, #1065353216
 1170              		.loc 1 433 0
 1171 004a 0023     		movs	r3, #0
 1172              		.loc 1 436 0
 1173 004c C7F88C00 		str	r0, [r7, #140]	@ float
 1174              		.loc 1 442 0
 1175 0050 3846     		mov	r0, r7
 1176              		.loc 1 437 0
 1177 0052 C7ED1F9A 		vstr.32	s19, [r7, #124]
 1178              		.loc 1 439 0
 1179 0056 C7F88810 		str	r1, [r7, #136]	@ float
 1180              		.loc 1 440 0
 1181 005a C7F88020 		str	r2, [r7, #128]	@ float
 1182              		.loc 1 433 0
 1183 005e BB70     		strb	r3, [r7, #2]
 1184              		.loc 1 434 0
 1185 0060 FB70     		strb	r3, [r7, #3]
 1186              		.loc 1 435 0
 1187 0062 7B70     		strb	r3, [r7, #1]
 1188              		.loc 1 441 0
 1189 0064 87F85D31 		strb	r3, [r7, #349]
 1190              		.loc 1 442 0
 1191 0068 4FF4FA74 		mov	r4, #500
 1192 006c FFF7FEFF 		bl	mc_interface_set_configuration
 1193              	.LVL64:
 1194 0070 04E0     		b	.L51
 1195              	.LVL65:
 1196              	.L49:
 1197              	.LBB10:
ARM GAS  C:\Users\Grillmo\AppData\Local\Temp\cchyPTfM.s 			page 22


 1198              		.loc 1 449 0 discriminator 2
 1199 0072 6420     		movs	r0, #100
 1200 0074 FFF7FEFF 		bl	chThdSleep
 1201              	.LVL66:
 1202              		.loc 1 445 0 discriminator 2
 1203 0078 013C     		subs	r4, r4, #1
 1204              	.LVL67:
 1205 007a 03D0     		beq	.L52
 1206              	.LVL68:
 1207              	.L51:
 1208              		.loc 1 446 0
 1209 007c FFF7FEFF 		bl	mc_interface_get_fault
 1210              	.LVL69:
 1211 0080 0028     		cmp	r0, #0
 1212 0082 F6D1     		bne	.L49
 1213              	.LVL70:
 1214              	.L52:
 1215              	.LBE10:
 1216              		.loc 1 454 0
 1217 0084 42F21070 		movw	r0, #10000
 1218 0088 FFF7FEFF 		bl	chThdSleep
 1219              	.LVL71:
 1220              		.loc 1 457 0
 1221 008c FFF7FEFF 		bl	timeout_get_timeout_msec
 1222              	.LVL72:
 1223 0090 8146     		mov	r9, r0
 1224              	.LVL73:
 1225              		.loc 1 458 0
 1226 0092 FFF7FEFF 		bl	timeout_get_brake_current
 1227              	.LVL74:
 1228 0096 F0EE40AA 		vmov.f32	s21, s0
 1229              	.LVL75:
 1230              		.loc 1 459 0
 1231 009a FFF7FEFF 		bl	timeout_reset
 1232              	.LVL76:
 1233              		.loc 1 460 0
 1234 009e 9FEDA50A 		vldr.32	s0, .L103+20
 1235 00a2 4EF66020 		movw	r0, #60000
 1236 00a6 FFF7FEFF 		bl	timeout_configure
 1237              	.LVL77:
 1238              		.loc 1 462 0
 1239 00aa FFF7FEFF 		bl	mc_interface_lock
 1240              	.LVL78:
 1241              		.loc 1 464 0
 1242 00ae FFF7FEFF 		bl	mc_interface_lock_override_once
 1243              	.LVL79:
 1244              		.loc 1 465 0
 1245 00b2 B0EE4A0A 		vmov.f32	s0, s20
 1246 00b6 FFF7FEFF 		bl	mc_interface_set_current
 1247              	.LVL80:
 1248              	.LBB11:
 1249              		.loc 1 469 0
 1250 00ba 0026     		movs	r6, #0
 1251              	.LBB12:
 1252              		.loc 1 500 0
 1253 00bc F5EE008A 		vmov.f32	s17, #2.5e-1
 1254              	.LVL81:
ARM GAS  C:\Users\Grillmo\AppData\Local\Temp\cchyPTfM.s 			page 23


 1255              	.L50:
 1256              		.loc 1 470 0
 1257 00c0 012E     		cmp	r6, #1
 1258 00c2 00F00581 		beq	.L93
 1259              		.loc 1 480 0
 1260 00c6 022E     		cmp	r6, #2
 1261 00c8 00F01D81 		beq	.L94
 1262              	.L54:
 1263              	.LBE12:
 1264              		.loc 1 469 0
 1265 00cc 0025     		movs	r5, #0
 1266 00ce 2C46     		mov	r4, r5
 1267              	.LBB13:
 1268              		.loc 1 496 0
 1269 00d0 B6EE008A 		vmov.f32	s16, #5.0e-1
 1270              	.L55:
 1271              	.LVL82:
 1272 00d4 FFF7FEFF 		bl	mc_interface_get_duty_cycle_now
 1273              	.LVL83:
 1274 00d8 B4EEC80A 		vcmpe.f32	s0, s16
 1275 00dc F1EE10FA 		vmrs	APSR_nzcv, FPSCR
 1276              		.loc 1 497 0
 1277 00e0 4FF00A00 		mov	r0, #10
 1278              		.loc 1 498 0
 1279 00e4 04F10104 		add	r4, r4, #1
 1280              	.LVL84:
 1281              		.loc 1 496 0
 1282 00e8 40F1D280 		bpl	.L95
 1283              		.loc 1 497 0
 1284 00ec FFF7FEFF 		bl	chThdSleep
 1285              	.LVL85:
 1286              		.loc 1 500 0
 1287 00f0 FFF7FEFF 		bl	mc_interface_get_duty_cycle_now
 1288              	.LVL86:
 1289 00f4 B4EEE80A 		vcmpe.f32	s0, s17
 1290 00f8 F1EE10FA 		vmrs	APSR_nzcv, FPSCR
 1291 00fc 0CDB     		blt	.L88
 1292              	.LVL87:
 1293              		.loc 1 500 0 is_stmt 0 discriminator 1
 1294 00fe 002D     		cmp	r5, #0
 1295 0100 00F0C280 		beq	.L96
 1296              	.L92:
 1297              		.loc 1 505 0 is_stmt 1
 1298 0104 B4F5FA6F 		cmp	r4, #2000
 1299 0108 04DD     		ble	.L62
 1300              	.LVL88:
 1301              	.L59:
 1302              		.loc 1 510 0
 1303 010a 41F28833 		movw	r3, #5000
 1304 010e 9C42     		cmp	r4, r3
 1305 0110 00F0C880 		beq	.L61
 1306              	.L62:
 1307              	.LBE13:
 1308              		.loc 1 469 0
 1309 0114 0125     		movs	r5, #1
 1310 0116 DDE7     		b	.L55
 1311              	.LVL89:
ARM GAS  C:\Users\Grillmo\AppData\Local\Temp\cchyPTfM.s 			page 24


 1312              	.L88:
 1313              	.LBB14:
 1314              		.loc 1 505 0
 1315 0118 B4F5FA6F 		cmp	r4, #2000
 1316 011c DADD     		ble	.L55
 1317              		.loc 1 505 0 is_stmt 0 discriminator 1
 1318 011e 002D     		cmp	r5, #0
 1319 0120 F3D1     		bne	.L59
 1320              	.LVL90:
 1321              	.LBE14:
 1322              		.loc 1 469 0 is_stmt 1 discriminator 2
 1323 0122 0136     		adds	r6, r6, #1
 1324              	.LVL91:
 1325 0124 032E     		cmp	r6, #3
 1326 0126 CBD1     		bne	.L50
 1327              	.LVL92:
 1328              	.L102:
 1329              	.LBE11:
 1330              		.loc 1 521 0
 1331 0128 002D     		cmp	r5, #0
 1332 012a 00F0BB80 		beq	.L61
 1333              	.LVL93:
 1334              	.L65:
 1335              		.loc 1 532 0
 1336 012e FFF7FEFF 		bl	mcpwm_reset_hall_detect_table
 1337              	.LVL94:
 1338              		.loc 1 535 0
 1339 0132 FFF7FEFF 		bl	mc_interface_lock_override_once
 1340              	.LVL95:
 1341              		.loc 1 536 0
 1342 0136 B6EE000A 		vmov.f32	s0, #5.0e-1
 1343 013a FFF7FEFF 		bl	mc_interface_set_duty
 1344              	.LVL96:
 1345              		.loc 1 537 0
 1346 013e 4FF47A60 		mov	r0, #4000
 1347 0142 FFF7FEFF 		bl	chThdSleep
 1348              	.LVL97:
 1349              		.loc 1 540 0
 1350 0146 FFF7FEFF 		bl	mc_interface_lock_override_once
 1351              	.LVL98:
 1352              		.loc 1 541 0
 1353 014a 9FED7A0A 		vldr.32	s0, .L103+20
 1354 014e FFF7FEFF 		bl	mc_interface_set_current
 1355              	.LVL99:
 1356              		.loc 1 542 0
 1357 0152 0020     		movs	r0, #0
 1358 0154 FFF7FEFF 		bl	mc_interface_get_tachometer_value
 1359              	.LVL100:
 1360 0158 4FF4FA64 		mov	r4, #2000
 1361 015c 0546     		mov	r5, r0
 1362              	.LVL101:
 1363 015e 04E0     		b	.L68
 1364              	.LVL102:
 1365              	.L98:
 1366              	.LBB18:
 1367              		.loc 1 545 0
 1368 0160 FFF7FEFF 		bl	chThdSleep
ARM GAS  C:\Users\Grillmo\AppData\Local\Temp\cchyPTfM.s 			page 25


 1369              	.LVL103:
 1370              		.loc 1 543 0
 1371 0164 013C     		subs	r4, r4, #1
 1372              	.LVL104:
 1373 0166 00F0B180 		beq	.L97
 1374              	.LVL105:
 1375              	.L68:
 1376              		.loc 1 544 0
 1377 016a 0020     		movs	r0, #0
 1378 016c FFF7FEFF 		bl	mc_interface_get_tachometer_value
 1379              	.LVL106:
 1380 0170 431B     		subs	r3, r0, r5
 1381 0172 022B     		cmp	r3, #2
 1382              		.loc 1 545 0
 1383 0174 4FF00A00 		mov	r0, #10
 1384              		.loc 1 544 0
 1385 0178 F2DD     		ble	.L98
 1386              		.loc 1 547 0
 1387 017a 0225     		movs	r5, #2
 1388              	.LVL107:
 1389              	.L67:
 1390              	.LBE18:
 1391              		.loc 1 553 0
 1392 017c FFF7FEFF 		bl	mcpwm_read_reset_avg_cycle_integrator
 1393              	.LVL108:
 1394              		.loc 1 554 0
 1395 0180 0020     		movs	r0, #0
 1396 0182 FFF7FEFF 		bl	mc_interface_get_tachometer_value
 1397              	.LVL109:
 1398 0186 40F6B834 		movw	r4, #3000
 1399 018a 0646     		mov	r6, r0
 1400              	.LVL110:
 1401 018c 03E0     		b	.L70
 1402              	.LVL111:
 1403              	.L99:
 1404              	.LBB19:
 1405              		.loc 1 557 0
 1406 018e FFF7FEFF 		bl	chThdSleep
 1407              	.LVL112:
 1408              		.loc 1 555 0
 1409 0192 013C     		subs	r4, r4, #1
 1410              	.LVL113:
 1411 0194 08D0     		beq	.L71
 1412              	.LVL114:
 1413              	.L70:
 1414              		.loc 1 556 0
 1415 0196 0020     		movs	r0, #0
 1416 0198 FFF7FEFF 		bl	mc_interface_get_tachometer_value
 1417              	.LVL115:
 1418 019c 831B     		subs	r3, r0, r6
 1419 019e 312B     		cmp	r3, #49
 1420              		.loc 1 557 0
 1421 01a0 4FF00A00 		mov	r0, #10
 1422              		.loc 1 556 0
 1423 01a4 F3DD     		ble	.L99
 1424              		.loc 1 559 0
 1425 01a6 0135     		adds	r5, r5, #1
ARM GAS  C:\Users\Grillmo\AppData\Local\Temp\cchyPTfM.s 			page 26


 1426              	.LVL116:
 1427              	.L71:
 1428              	.LBE19:
 1429              		.loc 1 565 0
 1430 01a8 5846     		mov	r0, fp
 1431 01aa FFF7FEFF 		bl	mcpwm_get_hall_detect_result
 1432              	.LVL117:
 1433 01ae 019B     		ldr	r3, [sp, #4]
 1434 01b0 1860     		str	r0, [r3]
 1435              		.loc 1 567 0
 1436 01b2 FFF7FEFF 		bl	mcpwm_read_reset_avg_cycle_integrator
 1437              	.LVL118:
 1438 01b6 41F28834 		movw	r4, #5000
 1439 01ba 88ED000A 		vstr.32	s0, [r8]
 1440              	.LVL119:
 1441 01be 03E0     		b	.L74
 1442              	.LVL120:
 1443              	.L100:
 1444              	.LBB20:
 1445              		.loc 1 572 0
 1446 01c0 FFF7FEFF 		bl	chThdSleep
 1447              	.LVL121:
 1448              		.loc 1 570 0
 1449 01c4 013C     		subs	r4, r4, #1
 1450              	.LVL122:
 1451 01c6 09D0     		beq	.L75
 1452              	.LVL123:
 1453              	.L74:
 1454              		.loc 1 571 0
 1455 01c8 FFF7FEFF 		bl	mc_interface_get_duty_cycle_now
 1456              	.LVL124:
 1457 01cc B4EEC90A 		vcmpe.f32	s0, s18
 1458 01d0 F1EE10FA 		vmrs	APSR_nzcv, FPSCR
 1459              		.loc 1 572 0
 1460 01d4 4FF00A00 		mov	r0, #10
 1461              		.loc 1 571 0
 1462 01d8 F2DC     		bgt	.L100
 1463              		.loc 1 574 0
 1464 01da 0135     		adds	r5, r5, #1
 1465              	.LVL125:
 1466              	.L75:
 1467              	.LBE20:
 1468              		.loc 1 579 0
 1469 01dc FFF7FEFF 		bl	mc_interface_lock_override_once
 1470              	.LVL126:
 1471              		.loc 1 580 0
 1472 01e0 B0EE490A 		vmov.f32	s0, s18
 1473 01e4 FFF7FEFF 		bl	mc_interface_set_duty
 1474              	.LVL127:
 1475              		.loc 1 583 0
 1476 01e8 FFF7FEFF 		bl	mcpwm_read_reset_avg_cycle_integrator
 1477              	.LVL128:
 1478              		.loc 1 584 0
 1479 01ec 0020     		movs	r0, #0
 1480 01ee FFF7FEFF 		bl	mc_interface_get_tachometer_value
 1481              	.LVL129:
 1482              		.loc 1 586 0
ARM GAS  C:\Users\Grillmo\AppData\Local\Temp\cchyPTfM.s 			page 27


 1483 01f2 9FED508A 		vldr.32	s16, .L103+20
 1484              		.loc 1 584 0
 1485 01f6 0646     		mov	r6, r0
 1486              	.LVL130:
 1487              		.loc 1 585 0
 1488 01f8 F0EE488A 		vmov.f32	s17, s16
 1489              		.loc 1 584 0
 1490 01fc 40F6B834 		movw	r4, #3000
 1491              	.LBB21:
 1492              		.loc 1 590 0
 1493 0200 B7EE009A 		vmov.f32	s18, #1.0e+0
 1494              	.LVL131:
 1495 0204 0AE0     		b	.L77
 1496              	.LVL132:
 1497              	.L101:
 1498              		.loc 1 589 0
 1499 0206 FFF7FEFF 		bl	mc_interface_get_rpm
 1500              	.LVL133:
 1501              		.loc 1 591 0
 1502 020a 0A20     		movs	r0, #10
 1503              		.loc 1 589 0
 1504 020c 78EE808A 		vadd.f32	s17, s17, s0
 1505              	.LVL134:
 1506              		.loc 1 591 0
 1507 0210 FFF7FEFF 		bl	chThdSleep
 1508              	.LVL135:
 1509              		.loc 1 587 0
 1510 0214 013C     		subs	r4, r4, #1
 1511              	.LVL136:
 1512              		.loc 1 590 0
 1513 0216 38EE098A 		vadd.f32	s16, s16, s18
 1514              	.LVL137:
 1515              		.loc 1 587 0
 1516 021a 06D0     		beq	.L78
 1517              	.LVL138:
 1518              	.L77:
 1519              		.loc 1 588 0
 1520 021c 0020     		movs	r0, #0
 1521 021e FFF7FEFF 		bl	mc_interface_get_tachometer_value
 1522              	.LVL139:
 1523 0222 801B     		subs	r0, r0, r6
 1524 0224 6328     		cmp	r0, #99
 1525 0226 EEDD     		ble	.L101
 1526              		.loc 1 593 0
 1527 0228 0135     		adds	r5, r5, #1
 1528              	.LVL140:
 1529              	.L78:
 1530              	.LBE21:
 1531              		.loc 1 598 0
 1532 022a FFF7FEFF 		bl	mcpwm_read_reset_avg_cycle_integrator
 1533              	.LVL141:
 1534 022e B0EE409A 		vmov.f32	s18, s0
 1535              	.LVL142:
 1536              		.loc 1 601 0
 1537 0232 FFF7FEFF 		bl	mc_interface_lock_override_once
 1538              	.LVL143:
 1539              		.loc 1 602 0
ARM GAS  C:\Users\Grillmo\AppData\Local\Temp\cchyPTfM.s 			page 28


 1540 0236 FFF7FEFF 		bl	mc_interface_release_motor
 1541              	.LVL144:
 1542              		.loc 1 606 0
 1543 023a 3F4B     		ldr	r3, .L103+24
 1544              		.loc 1 605 0
 1545 023c D8ED006A 		vldr.32	s13, [r8]
 1546              		.loc 1 606 0
 1547 0240 1B8A     		ldrh	r3, [r3, #16]
 1548              		.loc 1 611 0
 1549 0242 3848     		ldr	r0, .L103+4
 1550              		.loc 1 606 0
 1551 0244 9BB2     		uxth	r3, r3
 1552 0246 07EE903A 		vmov	s15, r3	@ int
 1553              		.loc 1 605 0
 1554 024a 79EE666A 		vsub.f32	s13, s18, s13
 1555              		.loc 1 606 0
 1556 024e F8EE677A 		vcvt.f32.u32	s15, s15
 1557              		.loc 1 599 0
 1558 0252 88EE887A 		vdiv.f32	s14, s17, s16
 1559              	.LVL145:
 1560              		.loc 1 606 0
 1561 0256 86EEA76A 		vdiv.f32	s12, s13, s15
 1562              	.LVL146:
 1563              		.loc 1 607 0
 1564 025a 67EE067A 		vmul.f32	s15, s14, s12
 1565              	.LVL147:
 1566              		.loc 1 608 0
 1567 025e CAED007A 		vstr.32	s15, [r10]
 1568              		.loc 1 611 0
 1569 0262 FFF7FEFF 		bl	mc_interface_set_configuration
 1570              	.LVL148:
 1571              		.loc 1 612 0
 1572 0266 4846     		mov	r0, r9
 1573 0268 B0EE6A0A 		vmov.f32	s0, s21
 1574 026c FFF7FEFF 		bl	timeout_configure
 1575              	.LVL149:
 1576              		.loc 1 614 0
 1577 0270 FFF7FEFF 		bl	mc_interface_unlock
 1578              	.LVL150:
 1579              		.loc 1 616 0
 1580 0274 A5F10500 		sub	r0, r5, #5
 1581 0278 B0FA80F0 		clz	r0, r0
 1582 027c 4009     		lsrs	r0, r0, #5
 1583              		.loc 1 617 0
 1584 027e 03B0     		add	sp, sp, #12
 1585              		.cfi_remember_state
 1586              		.cfi_def_cfa_offset 60
 1587              		@ sp needed
 1588 0280 BDEC068B 		vldm	sp!, {d8-d10}
 1589              		.cfi_restore 84
 1590              		.cfi_restore 85
 1591              		.cfi_restore 82
 1592              		.cfi_restore 83
 1593              		.cfi_restore 80
 1594              		.cfi_restore 81
 1595              		.cfi_def_cfa_offset 36
 1596              	.LVL151:
ARM GAS  C:\Users\Grillmo\AppData\Local\Temp\cchyPTfM.s 			page 29


 1597 0284 BDE8F08F 		pop	{r4, r5, r6, r7, r8, r9, r10, fp, pc}
 1598              	.LVL152:
 1599              	.L96:
 1600              		.cfi_restore_state
 1601              	.LBB22:
 1602              	.LBB15:
 1603              		.loc 1 501 0
 1604 0288 0120     		movs	r0, #1
 1605 028a FFF7FEFF 		bl	mcpwm_switch_comm_mode
 1606              	.LVL153:
 1607 028e 39E7     		b	.L92
 1608              	.LVL154:
 1609              	.L95:
 1610              		.loc 1 516 0
 1611 0290 002D     		cmp	r5, #0
 1612 0292 7FF44CAF 		bne	.L65
 1613              	.LBE15:
 1614              		.loc 1 469 0
 1615 0296 0136     		adds	r6, r6, #1
 1616              	.LVL155:
 1617 0298 032E     		cmp	r6, #3
 1618              	.LBB16:
 1619              		.loc 1 494 0
 1620 029a 4FF00105 		mov	r5, #1
 1621              	.LVL156:
 1622              	.LBE16:
 1623              		.loc 1 469 0
 1624 029e 7FF40FAF 		bne	.L50
 1625 02a2 41E7     		b	.L102
 1626              	.LVL157:
 1627              	.L61:
 1628              	.LBE22:
 1629              		.loc 1 522 0
 1630 02a4 9FED230A 		vldr.32	s0, .L103+20
 1631 02a8 FFF7FEFF 		bl	mc_interface_set_current
 1632              	.LVL158:
 1633              		.loc 1 523 0
 1634 02ac B0EE6A0A 		vmov.f32	s0, s21
 1635 02b0 4846     		mov	r0, r9
 1636 02b2 FFF7FEFF 		bl	timeout_configure
 1637              	.LVL159:
 1638              		.loc 1 524 0
 1639 02b6 1B48     		ldr	r0, .L103+4
 1640 02b8 FFF7FEFF 		bl	mc_interface_set_configuration
 1641              	.LVL160:
 1642              		.loc 1 525 0
 1643 02bc FFF7FEFF 		bl	mc_interface_unlock
 1644              	.LVL161:
 1645              		.loc 1 526 0
 1646 02c0 0020     		movs	r0, #0
 1647              		.loc 1 617 0
 1648 02c2 03B0     		add	sp, sp, #12
 1649              		.cfi_remember_state
 1650              		.cfi_def_cfa_offset 60
 1651              		@ sp needed
 1652 02c4 BDEC068B 		vldm	sp!, {d8-d10}
 1653              		.cfi_restore 80
ARM GAS  C:\Users\Grillmo\AppData\Local\Temp\cchyPTfM.s 			page 30


 1654              		.cfi_restore 81
 1655              		.cfi_restore 82
 1656              		.cfi_restore 83
 1657              		.cfi_restore 84
 1658              		.cfi_restore 85
 1659              		.cfi_def_cfa_offset 36
 1660              	.LVL162:
 1661 02c8 BDE8F08F 		pop	{r4, r5, r6, r7, r8, r9, r10, fp, pc}
 1662              	.LVL163:
 1663              	.L97:
 1664              		.cfi_restore_state
 1665              		.loc 1 529 0
 1666 02cc 0125     		movs	r5, #1
 1667              	.LVL164:
 1668              	.LBB23:
 1669 02ce 55E7     		b	.L67
 1670              	.LVL165:
 1671              	.L93:
 1672              	.LBE23:
 1673              	.LBB24:
 1674              	.LBB17:
 1675              		.loc 1 471 0
 1676 02d0 FFF7FEFF 		bl	mc_interface_lock_override_once
 1677              	.LVL166:
 1678              		.loc 1 472 0
 1679 02d4 FFF7FEFF 		bl	mc_interface_release_motor
 1680              	.LVL167:
 1681              		.loc 1 473 0
 1682 02d8 79EEA97A 		vadd.f32	s15, s19, s19
 1683              		.loc 1 474 0
 1684 02dc 174B     		ldr	r3, .L103+28
 1685              		.loc 1 473 0
 1686 02de C7ED1F7A 		vstr.32	s15, [r7, #124]
 1687              		.loc 1 474 0
 1688 02e2 C7F88830 		str	r3, [r7, #136]	@ float
 1689              	.L91:
 1690              		.loc 1 485 0
 1691 02e6 FFF7FEFF 		bl	mc_interface_lock_override_once
 1692              	.LVL168:
 1693              		.loc 1 486 0
 1694 02ea 0D48     		ldr	r0, .L103
 1695 02ec FFF7FEFF 		bl	mc_interface_set_configuration
 1696              	.LVL169:
 1697              		.loc 1 487 0
 1698 02f0 42F21070 		movw	r0, #10000
 1699 02f4 FFF7FEFF 		bl	chThdSleep
 1700              	.LVL170:
 1701              		.loc 1 488 0
 1702 02f8 FFF7FEFF 		bl	mc_interface_lock_override_once
 1703              	.LVL171:
 1704              		.loc 1 489 0
 1705 02fc B0EE4A0A 		vmov.f32	s0, s20
 1706 0300 FFF7FEFF 		bl	mc_interface_set_current
 1707              	.LVL172:
 1708 0304 E2E6     		b	.L54
 1709              	.L94:
 1710              		.loc 1 481 0
ARM GAS  C:\Users\Grillmo\AppData\Local\Temp\cchyPTfM.s 			page 31


 1711 0306 FFF7FEFF 		bl	mc_interface_lock_override_once
 1712              	.LVL173:
 1713              		.loc 1 482 0
 1714 030a FFF7FEFF 		bl	mc_interface_release_motor
 1715              	.LVL174:
 1716              		.loc 1 483 0
 1717 030e F1EE007A 		vmov.f32	s15, #4.0e+0
 1718 0312 69EEA77A 		vmul.f32	s15, s19, s15
 1719              		.loc 1 484 0
 1720 0316 0123     		movs	r3, #1
 1721              		.loc 1 483 0
 1722 0318 C7ED1F7A 		vstr.32	s15, [r7, #124]
 1723              		.loc 1 484 0
 1724 031c 7B70     		strb	r3, [r7, #1]
 1725 031e E2E7     		b	.L91
 1726              	.L104:
 1727              		.align	2
 1728              	.L103:
 1729 0320 00000000 		.word	.LANCHOR1
 1730 0324 00000000 		.word	.LANCHOR2
 1731 0328 00009643 		.word	1133903872
 1732 032c 00004842 		.word	1112014848
 1733 0330 00808944 		.word	1149861888
 1734 0334 00000000 		.word	0
 1735 0338 00000000 		.word	ADC_Value
 1736 033c 0000A041 		.word	1101004800
 1737              	.LBE17:
 1738              	.LBE24:
 1739              		.cfi_endproc
 1740              	.LFE226:
 1741              		.size	conf_general_detect_motor_param, .-conf_general_detect_motor_param
 1742              		.section	.text.conf_general_measure_flux_linkage,"ax",%progbits
 1743              		.align	1
 1744              		.p2align 4,,15
 1745              		.global	conf_general_measure_flux_linkage
 1746              		.syntax unified
 1747              		.thumb
 1748              		.thumb_func
 1749              		.fpu fpv4-sp-d16
 1750              		.type	conf_general_measure_flux_linkage, %function
 1751              	conf_general_measure_flux_linkage:
 1752              	.LFB227:
 1753              		.loc 1 641 0
 1754              		.cfi_startproc
 1755              		@ args = 0, pretend = 0, frame = 0
 1756              		@ frame_needed = 0, uses_anonymous_args = 0
 1757              	.LVL175:
 1758 0000 2DE9F84F 		push	{r3, r4, r5, r6, r7, r8, r9, r10, fp, lr}
 1759              		.cfi_def_cfa_offset 40
 1760              		.cfi_offset 3, -40
 1761              		.cfi_offset 4, -36
 1762              		.cfi_offset 5, -32
 1763              		.cfi_offset 6, -28
 1764              		.cfi_offset 7, -24
 1765              		.cfi_offset 8, -20
 1766              		.cfi_offset 9, -16
 1767              		.cfi_offset 10, -12
ARM GAS  C:\Users\Grillmo\AppData\Local\Temp\cchyPTfM.s 			page 32


 1768              		.cfi_offset 11, -8
 1769              		.cfi_offset 14, -4
 1770 0004 2DED0A8B 		vpush.64	{d8, d9, d10, d11, d12}
 1771              		.cfi_def_cfa_offset 80
 1772              		.cfi_offset 80, -80
 1773              		.cfi_offset 81, -76
 1774              		.cfi_offset 82, -72
 1775              		.cfi_offset 83, -68
 1776              		.cfi_offset 84, -64
 1777              		.cfi_offset 85, -60
 1778              		.cfi_offset 86, -56
 1779              		.cfi_offset 87, -52
 1780              		.cfi_offset 88, -48
 1781              		.cfi_offset 89, -44
 1782              		.loc 1 641 0
 1783 0008 0746     		mov	r7, r0
 1784 000a F0EE419A 		vmov.f32	s19, s2
 1785 000e B0EE409A 		vmov.f32	s18, s0
 1786 0012 B0EE608A 		vmov.f32	s16, s1
 1787 0016 F0EE61BA 		vmov.f32	s23, s3
 1788              		.loc 1 642 0
 1789 001a FFF7FEFF 		bl	mc_interface_get_configuration
 1790              	.LVL176:
 1791 001e DFF8C0A2 		ldr	r10, .L140+52
 1792              		.loc 1 651 0
 1793 0022 A24C     		ldr	r4, .L140
 1794              		.loc 1 650 0
 1795 0024 A24D     		ldr	r5, .L140+4
 1796              		.loc 1 642 0
 1797 0026 0146     		mov	r1, r0
 1798 0028 4FF4BA72 		mov	r2, #372
 1799 002c 5046     		mov	r0, r10
 1800 002e FFF7FEFF 		bl	memcpy
 1801              	.LVL177:
 1802              		.loc 1 643 0
 1803 0032 5146     		mov	r1, r10
 1804 0034 4FF4BA72 		mov	r2, #372
 1805 0038 9E48     		ldr	r0, .L140+8
 1806 003a FFF7FEFF 		bl	memcpy
 1807              	.LVL178:
 1808              		.loc 1 648 0
 1809 003e 4FF07E53 		mov	r3, #1065353216
 1810              		.loc 1 652 0
 1811 0042 9D49     		ldr	r1, .L140+12
 1812              		.loc 1 653 0
 1813 0044 9D4A     		ldr	r2, .L140+16
 1814              		.loc 1 648 0
 1815 0046 CAF88C30 		str	r3, [r10, #140]	@ float
 1816              		.loc 1 654 0
 1817 004a 5046     		mov	r0, r10
 1818              		.loc 1 645 0
 1819 004c 0023     		movs	r3, #0
 1820              		.loc 1 651 0
 1821 004e CAF89440 		str	r4, [r10, #148]	@ float
 1822              		.loc 1 649 0
 1823 0052 CAED1F9A 		vstr.32	s19, [r10, #124]
 1824              		.loc 1 650 0
ARM GAS  C:\Users\Grillmo\AppData\Local\Temp\cchyPTfM.s 			page 33


 1825 0056 CAF86451 		str	r5, [r10, #356]	@ float
 1826              		.loc 1 652 0
 1827 005a CAF88810 		str	r1, [r10, #136]	@ float
 1828              		.loc 1 653 0
 1829 005e CAF88020 		str	r2, [r10, #128]	@ float
 1830              		.loc 1 645 0
 1831 0062 8AF80230 		strb	r3, [r10, #2]
 1832              		.loc 1 646 0
 1833 0066 8AF80330 		strb	r3, [r10, #3]
 1834              		.loc 1 647 0
 1835 006a 8AF80130 		strb	r3, [r10, #1]
 1836              		.loc 1 654 0
 1837 006e 4FF4FA74 		mov	r4, #500
 1838 0072 FFF7FEFF 		bl	mc_interface_set_configuration
 1839              	.LVL179:
 1840 0076 04E0     		b	.L108
 1841              	.LVL180:
 1842              	.L106:
 1843              	.LBB25:
 1844              		.loc 1 661 0 discriminator 2
 1845 0078 6420     		movs	r0, #100
 1846 007a FFF7FEFF 		bl	chThdSleep
 1847              	.LVL181:
 1848              		.loc 1 657 0 discriminator 2
 1849 007e 013C     		subs	r4, r4, #1
 1850              	.LVL182:
 1851 0080 03D0     		beq	.L109
 1852              	.LVL183:
 1853              	.L108:
 1854              		.loc 1 658 0
 1855 0082 FFF7FEFF 		bl	mc_interface_get_fault
 1856              	.LVL184:
 1857 0086 0028     		cmp	r0, #0
 1858 0088 F6D1     		bne	.L106
 1859              	.LVL185:
 1860              	.L109:
 1861              	.LBE25:
 1862              		.loc 1 667 0
 1863 008a 42F21070 		movw	r0, #10000
 1864 008e FFF7FEFF 		bl	chThdSleep
 1865              	.LVL186:
 1866              		.loc 1 670 0
 1867 0092 FFF7FEFF 		bl	timeout_get_timeout_msec
 1868              	.LVL187:
 1869 0096 8046     		mov	r8, r0
 1870              	.LVL188:
 1871              		.loc 1 671 0
 1872 0098 FFF7FEFF 		bl	timeout_get_brake_current
 1873              	.LVL189:
 1874 009c B0EE40CA 		vmov.f32	s24, s0
 1875              	.LVL190:
 1876              		.loc 1 672 0
 1877 00a0 FFF7FEFF 		bl	timeout_reset
 1878              	.LVL191:
 1879              		.loc 1 673 0
 1880 00a4 9FED860A 		vldr.32	s0, .L140+20
 1881              	.LBB26:
ARM GAS  C:\Users\Grillmo\AppData\Local\Temp\cchyPTfM.s 			page 34


 1882              	.LBB27:
 1883              		.loc 1 708 0
 1884 00a8 DFF834B2 		ldr	fp, .L140+52
 1885              		.loc 1 686 0
 1886 00ac DFED85AA 		vldr.32	s21, .L140+24
 1887              	.LBE27:
 1888              	.LBE26:
 1889              		.loc 1 673 0
 1890 00b0 4EF66020 		movw	r0, #60000
 1891 00b4 FFF7FEFF 		bl	timeout_configure
 1892              	.LVL192:
 1893              		.loc 1 675 0
 1894 00b8 FFF7FEFF 		bl	mc_interface_lock
 1895              	.LVL193:
 1896              		.loc 1 677 0
 1897 00bc FFF7FEFF 		bl	mc_interface_lock_override_once
 1898              	.LVL194:
 1899              		.loc 1 678 0
 1900 00c0 B0EE490A 		vmov.f32	s0, s18
 1901 00c4 FFF7FEFF 		bl	mc_interface_set_current
 1902              	.LVL195:
 1903              	.LBB34:
 1904              		.loc 1 682 0
 1905 00c8 4FF00009 		mov	r9, #0
 1906              	.LBB28:
 1907              		.loc 1 705 0
 1908 00cc B1EE00AA 		vmov.f32	s20, #4.0e+0
 1909              	.LVL196:
 1910              	.L107:
 1911              		.loc 1 683 0
 1912 00d0 B9F1010F 		cmp	r9, #1
 1913 00d4 00F0E280 		beq	.L134
 1914              		.loc 1 692 0
 1915 00d8 B9F1020F 		cmp	r9, #2
 1916 00dc 00F0D280 		beq	.L135
 1917              		.loc 1 702 0
 1918 00e0 B9F1030F 		cmp	r9, #3
 1919 00e4 00F0B380 		beq	.L136
 1920              	.L111:
 1921              	.LBE28:
 1922              		.loc 1 682 0
 1923 00e8 0025     		movs	r5, #0
 1924 00ea 2C46     		mov	r4, r5
 1925              	.LBB29:
 1926              		.loc 1 722 0
 1927 00ec F6EE008A 		vmov.f32	s17, #5.0e-1
 1928              		.loc 1 732 0
 1929 00f0 41F28836 		movw	r6, #5000
 1930              	.L113:
 1931              	.LVL197:
 1932              		.loc 1 718 0
 1933 00f4 FFF7FEFF 		bl	mc_interface_get_duty_cycle_now
 1934              	.LVL198:
 1935 00f8 B4EEC80A 		vcmpe.f32	s0, s16
 1936 00fc F1EE10FA 		vmrs	APSR_nzcv, FPSCR
 1937              		.loc 1 719 0
 1938 0100 4FF00A00 		mov	r0, #10
ARM GAS  C:\Users\Grillmo\AppData\Local\Temp\cchyPTfM.s 			page 35


 1939              		.loc 1 720 0
 1940 0104 04F10104 		add	r4, r4, #1
 1941              	.LVL199:
 1942              		.loc 1 718 0
 1943 0108 40F18380 		bpl	.L137
 1944              		.loc 1 719 0
 1945 010c FFF7FEFF 		bl	chThdSleep
 1946              	.LVL200:
 1947              		.loc 1 722 0
 1948 0110 FFF7FEFF 		bl	mc_interface_get_duty_cycle_now
 1949              	.LVL201:
 1950 0114 68EE287A 		vmul.f32	s15, s16, s17
 1951 0118 B4EEE70A 		vcmpe.f32	s0, s15
 1952 011c F1EE10FA 		vmrs	APSR_nzcv, FPSCR
 1953 0120 08DB     		blt	.L130
 1954              	.LVL202:
 1955              		.loc 1 722 0 is_stmt 0 discriminator 1
 1956 0122 002D     		cmp	r5, #0
 1957 0124 71D0     		beq	.L138
 1958              	.L133:
 1959              		.loc 1 727 0 is_stmt 1
 1960 0126 B4F5FA6F 		cmp	r4, #2000
 1961 012a 01DD     		ble	.L120
 1962              	.LVL203:
 1963              	.L117:
 1964              		.loc 1 732 0
 1965 012c B442     		cmp	r4, r6
 1966 012e 7BD0     		beq	.L119
 1967              	.L120:
 1968              	.LBE29:
 1969              		.loc 1 682 0
 1970 0130 0125     		movs	r5, #1
 1971 0132 DFE7     		b	.L113
 1972              	.LVL204:
 1973              	.L130:
 1974              	.LBB30:
 1975              		.loc 1 727 0
 1976 0134 B4F5FA6F 		cmp	r4, #2000
 1977 0138 DCDD     		ble	.L113
 1978              		.loc 1 727 0 is_stmt 0 discriminator 1
 1979 013a 002D     		cmp	r5, #0
 1980 013c F6D1     		bne	.L117
 1981              	.LVL205:
 1982              	.LBE30:
 1983              		.loc 1 682 0 is_stmt 1 discriminator 2
 1984 013e 09F10109 		add	r9, r9, #1
 1985              	.LVL206:
 1986 0142 B9F1040F 		cmp	r9, #4
 1987 0146 C3D1     		bne	.L107
 1988              	.LVL207:
 1989              	.L139:
 1990              	.LBE34:
 1991              		.loc 1 743 0
 1992 0148 002D     		cmp	r5, #0
 1993 014a 6DD0     		beq	.L119
 1994              	.LVL208:
 1995              	.L123:
ARM GAS  C:\Users\Grillmo\AppData\Local\Temp\cchyPTfM.s 			page 36


 1996              		.loc 1 751 0
 1997 014c FFF7FEFF 		bl	mc_interface_lock_override_once
 1998              	.LVL209:
 1999              		.loc 1 752 0
 2000 0150 B0EE480A 		vmov.f32	s0, s16
 2001 0154 FFF7FEFF 		bl	mc_interface_set_duty
 2002              	.LVL210:
 2003              		.loc 1 757 0
 2004 0158 9FED598A 		vldr.32	s16, .L140+20
 2005              	.LVL211:
 2006 015c 5A4E     		ldr	r6, .L140+28
 2007              	.LBB35:
 2008              		.loc 1 759 0
 2009 015e 9FED5BBA 		vldr.32	s22, .L140+32
 2010 0162 DFED5BAA 		vldr.32	s21, .L140+36
 2011              	.LBE35:
 2012              		.loc 1 756 0
 2013 0166 F0EE489A 		vmov.f32	s19, s16
 2014              	.LVL212:
 2015              		.loc 1 755 0
 2016 016a F0EE488A 		vmov.f32	s17, s16
 2017              		.loc 1 754 0
 2018 016e B0EE489A 		vmov.f32	s18, s16
 2019              	.LVL213:
 2020              		.loc 1 752 0
 2021 0172 4FF4FA65 		mov	r5, #2000
 2022              	.LBB36:
 2023              		.loc 1 762 0
 2024 0176 B7EE00AA 		vmov.f32	s20, #1.0e+0
 2025              	.LVL214:
 2026              	.L125:
 2027              		.loc 1 759 0 discriminator 3
 2028 017a 338A     		ldrh	r3, [r6, #16]
 2029 017c 9CB2     		uxth	r4, r3
 2030 017e FFF7FEFF 		bl	mc_interface_get_duty_cycle_now
 2031              	.LVL215:
 2032 0182 07EE904A 		vmov	s15, r4	@ int
 2033 0186 F8EE677A 		vcvt.f32.u32	s15, s15
 2034 018a 67EE8B7A 		vmul.f32	s15, s15, s22
 2035 018e 67EEAA7A 		vmul.f32	s15, s15, s21
 2036 0192 A7EE809A 		vfma.f32	s18, s15, s0
 2037              	.LVL216:
 2038              		.loc 1 760 0 discriminator 3
 2039 0196 FFF7FEFF 		bl	mc_interface_get_rpm
 2040              	.LVL217:
 2041 019a 78EE808A 		vadd.f32	s17, s17, s0
 2042              	.LVL218:
 2043              		.loc 1 761 0 discriminator 3
 2044 019e FFF7FEFF 		bl	mc_interface_get_tot_current
 2045              	.LVL219:
 2046              		.loc 1 763 0 discriminator 3
 2047 01a2 0A20     		movs	r0, #10
 2048              		.loc 1 761 0 discriminator 3
 2049 01a4 79EE809A 		vadd.f32	s19, s19, s0
 2050              	.LVL220:
 2051              		.loc 1 763 0 discriminator 3
 2052 01a8 FFF7FEFF 		bl	chThdSleep
ARM GAS  C:\Users\Grillmo\AppData\Local\Temp\cchyPTfM.s 			page 37


 2053              	.LVL221:
 2054              		.loc 1 758 0 discriminator 3
 2055 01ac 013D     		subs	r5, r5, #1
 2056              	.LVL222:
 2057              		.loc 1 762 0 discriminator 3
 2058 01ae 38EE0A8A 		vadd.f32	s16, s16, s20
 2059              	.LVL223:
 2060              		.loc 1 758 0 discriminator 3
 2061 01b2 E2D1     		bne	.L125
 2062              	.LBE36:
 2063              		.loc 1 766 0
 2064 01b4 B0EE4C0A 		vmov.f32	s0, s24
 2065 01b8 4046     		mov	r0, r8
 2066 01ba FFF7FEFF 		bl	timeout_configure
 2067              	.LVL224:
 2068              		.loc 1 767 0
 2069 01be 3D48     		ldr	r0, .L140+8
 2070 01c0 FFF7FEFF 		bl	mc_interface_set_configuration
 2071              	.LVL225:
 2072              		.loc 1 768 0
 2073 01c4 FFF7FEFF 		bl	mc_interface_unlock
 2074              	.LVL226:
 2075              		.loc 1 769 0
 2076 01c8 9FED3D0A 		vldr.32	s0, .L140+20
 2077 01cc FFF7FEFF 		bl	mc_interface_set_current
 2078              	.LVL227:
 2079              		.loc 1 773 0
 2080 01d0 C9EE886A 		vdiv.f32	s13, s19, s16
 2081              		.loc 1 778 0
 2082 01d4 0120     		movs	r0, #1
 2083              		.loc 1 771 0
 2084 01d6 C9EE087A 		vdiv.f32	s15, s18, s16
 2085              	.LVL228:
 2086              		.loc 1 772 0
 2087 01da 88EE887A 		vdiv.f32	s14, s17, s16
 2088              	.LVL229:
 2089              		.loc 1 774 0
 2090 01de 6BEEE6BA 		vnmul.f32	s23, s23, s13
 2091              	.LVL230:
 2092 01e2 F0EE006A 		vmov.f32	s13, #2.0e+0
 2093 01e6 EBEEA67A 		vfma.f32	s15, s23, s13
 2094              	.LVL231:
 2095              		.loc 1 779 0
 2096 01ea BDEC0A8B 		vldm	sp!, {d8-d12}
 2097              		.cfi_remember_state
 2098              		.cfi_restore 88
 2099              		.cfi_restore 89
 2100              		.cfi_restore 86
 2101              		.cfi_restore 87
 2102              		.cfi_restore 84
 2103              		.cfi_restore 85
 2104              		.cfi_restore 82
 2105              		.cfi_restore 83
 2106              		.cfi_restore 80
 2107              		.cfi_restore 81
 2108              		.cfi_def_cfa_offset 40
 2109              	.LVL232:
ARM GAS  C:\Users\Grillmo\AppData\Local\Temp\cchyPTfM.s 			page 38


 2110              		.loc 1 776 0
 2111 01ee DFED396A 		vldr.32	s13, .L140+40
 2112 01f2 9FED396A 		vldr.32	s12, .L140+44
 2113 01f6 27EE267A 		vmul.f32	s14, s14, s13
 2114              	.LVL233:
 2115 01fa 67EE867A 		vmul.f32	s15, s15, s12
 2116 01fe C7EE876A 		vdiv.f32	s13, s15, s14
 2117 0202 C7ED006A 		vstr.32	s13, [r7]
 2118              		.loc 1 779 0
 2119 0206 BDE8F88F 		pop	{r3, r4, r5, r6, r7, r8, r9, r10, fp, pc}
 2120              	.LVL234:
 2121              	.L138:
 2122              		.cfi_restore_state
 2123              	.LBB37:
 2124              	.LBB31:
 2125              		.loc 1 723 0
 2126 020a 0120     		movs	r0, #1
 2127 020c FFF7FEFF 		bl	mcpwm_switch_comm_mode
 2128              	.LVL235:
 2129 0210 89E7     		b	.L133
 2130              	.LVL236:
 2131              	.L137:
 2132              		.loc 1 738 0
 2133 0212 002D     		cmp	r5, #0
 2134 0214 9AD1     		bne	.L123
 2135              	.LBE31:
 2136              		.loc 1 682 0
 2137 0216 09F10109 		add	r9, r9, #1
 2138              	.LVL237:
 2139 021a B9F1040F 		cmp	r9, #4
 2140              	.LBB32:
 2141              		.loc 1 716 0
 2142 021e 4FF00105 		mov	r5, #1
 2143              	.LVL238:
 2144              	.LBE32:
 2145              		.loc 1 682 0
 2146 0222 7FF455AF 		bne	.L107
 2147 0226 8FE7     		b	.L139
 2148              	.LVL239:
 2149              	.L119:
 2150              	.LBE37:
 2151              		.loc 1 744 0
 2152 0228 9FED250A 		vldr.32	s0, .L140+20
 2153 022c FFF7FEFF 		bl	mc_interface_set_current
 2154              	.LVL240:
 2155              		.loc 1 745 0
 2156 0230 B0EE4C0A 		vmov.f32	s0, s24
 2157 0234 4046     		mov	r0, r8
 2158 0236 FFF7FEFF 		bl	timeout_configure
 2159              	.LVL241:
 2160              		.loc 1 746 0
 2161 023a 1E48     		ldr	r0, .L140+8
 2162 023c FFF7FEFF 		bl	mc_interface_set_configuration
 2163              	.LVL242:
 2164              		.loc 1 747 0
 2165 0240 FFF7FEFF 		bl	mc_interface_unlock
 2166              	.LVL243:
ARM GAS  C:\Users\Grillmo\AppData\Local\Temp\cchyPTfM.s 			page 39


 2167              		.loc 1 779 0
 2168 0244 BDEC0A8B 		vldm	sp!, {d8-d12}
 2169              		.cfi_remember_state
 2170              		.cfi_restore 80
 2171              		.cfi_restore 81
 2172              		.cfi_restore 82
 2173              		.cfi_restore 83
 2174              		.cfi_restore 84
 2175              		.cfi_restore 85
 2176              		.cfi_restore 86
 2177              		.cfi_restore 87
 2178              		.cfi_restore 88
 2179              		.cfi_restore 89
 2180              		.cfi_def_cfa_offset 40
 2181              	.LVL244:
 2182              		.loc 1 748 0
 2183 0248 0020     		movs	r0, #0
 2184              		.loc 1 779 0
 2185 024a BDE8F88F 		pop	{r3, r4, r5, r6, r7, r8, r9, r10, fp, pc}
 2186              	.LVL245:
 2187              	.L136:
 2188              		.cfi_restore_state
 2189              	.LBB38:
 2190              	.LBB33:
 2191              		.loc 1 703 0
 2192 024e FFF7FEFF 		bl	mc_interface_lock_override_once
 2193              	.LVL246:
 2194              		.loc 1 704 0
 2195 0252 FFF7FEFF 		bl	mc_interface_release_motor
 2196              	.LVL247:
 2197              		.loc 1 705 0
 2198 0256 69EE8A7A 		vmul.f32	s15, s19, s20
 2199              		.loc 1 706 0
 2200 025a 0123     		movs	r3, #1
 2201              		.loc 1 705 0
 2202 025c CAED1F7A 		vstr.32	s15, [r10, #124]
 2203              		.loc 1 706 0
 2204 0260 8AF80130 		strb	r3, [r10, #1]
 2205              	.L132:
 2206              		.loc 1 707 0
 2207 0264 FFF7FEFF 		bl	mc_interface_lock_override_once
 2208              	.LVL248:
 2209              		.loc 1 708 0
 2210 0268 5846     		mov	r0, fp
 2211 026a FFF7FEFF 		bl	mc_interface_set_configuration
 2212              	.LVL249:
 2213              		.loc 1 709 0
 2214 026e 42F21070 		movw	r0, #10000
 2215 0272 FFF7FEFF 		bl	chThdSleep
 2216              	.LVL250:
 2217              		.loc 1 710 0
 2218 0276 FFF7FEFF 		bl	mc_interface_lock_override_once
 2219              	.LVL251:
 2220              		.loc 1 711 0
 2221 027a B0EE490A 		vmov.f32	s0, s18
 2222 027e FFF7FEFF 		bl	mc_interface_set_current
 2223              	.LVL252:
ARM GAS  C:\Users\Grillmo\AppData\Local\Temp\cchyPTfM.s 			page 40


 2224 0282 31E7     		b	.L111
 2225              	.L135:
 2226              		.loc 1 693 0
 2227 0284 FFF7FEFF 		bl	mc_interface_lock_override_once
 2228              	.LVL253:
 2229              		.loc 1 694 0
 2230 0288 FFF7FEFF 		bl	mc_interface_release_motor
 2231              	.LVL254:
 2232              		.loc 1 695 0
 2233 028c 79EEA97A 		vadd.f32	s15, s19, s19
 2234              		.loc 1 696 0
 2235 0290 124B     		ldr	r3, .L140+48
 2236              		.loc 1 695 0
 2237 0292 CAED1F7A 		vstr.32	s15, [r10, #124]
 2238              		.loc 1 696 0
 2239 0296 CAF88830 		str	r3, [r10, #136]	@ float
 2240 029a E3E7     		b	.L132
 2241              	.L134:
 2242              		.loc 1 684 0
 2243 029c FFF7FEFF 		bl	mc_interface_lock_override_once
 2244              	.LVL255:
 2245              		.loc 1 685 0
 2246 02a0 FFF7FEFF 		bl	mc_interface_release_motor
 2247              	.LVL256:
 2248              		.loc 1 686 0
 2249 02a4 CAED22AA 		vstr.32	s21, [r10, #136]
 2250 02a8 DCE7     		b	.L132
 2251              	.L141:
 2252 02aa 00BF     		.align	2
 2253              	.L140:
 2254 02ac 00009643 		.word	1133903872
 2255 02b0 00401C46 		.word	1176256512
 2256 02b4 00000000 		.word	.LANCHOR2
 2257 02b8 00004842 		.word	1112014848
 2258 02bc 00808944 		.word	1149861888
 2259 02c0 00000000 		.word	0
 2260 02c4 00007A43 		.word	1132068864
 2261 02c8 00000000 		.word	ADC_Value
 2262 02cc 6740533A 		.word	978534503
 2263 02d0 74D19541 		.word	1100337524
 2264 02d4 EF1F2E41 		.word	1093541871
 2265 02d8 00007042 		.word	1114636288
 2266 02dc 0000A041 		.word	1101004800
 2267 02e0 00000000 		.word	.LANCHOR1
 2268              	.LBE33:
 2269              	.LBE38:
 2270              		.cfi_endproc
 2271              	.LFE227:
 2272              		.size	conf_general_measure_flux_linkage, .-conf_general_measure_flux_linkage
 2273              		.global	mcconf_old
 2274              		.global	mcconf
 2275              		.global	conf_general_permanent_nrf_found
 2276              		.global	VirtAddVarTab
 2277              		.section	.bss.VirtAddVarTab,"aw",%nobits
 2278              		.align	2
 2279              		.set	.LANCHOR0,. + 0
 2280              		.type	VirtAddVarTab, %object
ARM GAS  C:\Users\Grillmo\AppData\Local\Temp\cchyPTfM.s 			page 41


 2281              		.size	VirtAddVarTab, 572
 2282              	VirtAddVarTab:
 2283 0000 00000000 		.space	572
 2283      00000000 
 2283      00000000 
 2283      00000000 
 2283      00000000 
 2284              		.section	.bss.conf_general_permanent_nrf_found,"aw",%nobits
 2285              		.type	conf_general_permanent_nrf_found, %object
 2286              		.size	conf_general_permanent_nrf_found, 1
 2287              	conf_general_permanent_nrf_found:
 2288 0000 00       		.space	1
 2289              		.section	.bss.mcconf,"aw",%nobits
 2290              		.align	2
 2291              		.set	.LANCHOR1,. + 0
 2292              		.type	mcconf, %object
 2293              		.size	mcconf, 372
 2294              	mcconf:
 2295 0000 00000000 		.space	372
 2295      00000000 
 2295      00000000 
 2295      00000000 
 2295      00000000 
 2296              		.section	.bss.mcconf_old,"aw",%nobits
 2297              		.align	2
 2298              		.set	.LANCHOR2,. + 0
 2299              		.type	mcconf_old, %object
 2300              		.size	mcconf_old, 372
 2301              	mcconf_old:
 2302 0000 00000000 		.space	372
 2302      00000000 
 2302      00000000 
 2302      00000000 
 2302      00000000 
 2303              		.text
 2304              	.Letext0:
 2305              		.file 2 "c:\\chibistudio\\tools\\gnu tools arm embedded\\6.3 2017q1\\arm-none-eabi\\include\\machi
 2306              		.file 3 "c:\\chibistudio\\tools\\gnu tools arm embedded\\6.3 2017q1\\arm-none-eabi\\include\\sys\\
 2307              		.file 4 "c:\\chibistudio\\tools\\gnu tools arm embedded\\6.3 2017q1\\lib\\gcc\\arm-none-eabi\\6.3.
 2308              		.file 5 "ChibiOS_3.0.2/os/rt/ports/ARMCMx/compilers/GCC/chtypes.h"
 2309              		.file 6 "ChibiOS_3.0.2/os/rt/include/chsystypes.h"
 2310              		.file 7 "ChibiOS_3.0.2/os/rt/include/chschd.h"
 2311              		.file 8 "ChibiOS_3.0.2/os/ext/CMSIS/include/core_cm4.h"
 2312              		.file 9 "ChibiOS_3.0.2/os/ext/CMSIS/ST/system_stm32f4xx.h"
 2313              		.file 10 "ChibiOS_3.0.2/os/rt/ports/ARMCMx/chcore.h"
 2314              		.file 11 "ChibiOS_3.0.2/os/rt/ports/ARMCMx/chcore_v7m.h"
 2315              		.file 12 "ChibiOS_3.0.2/os/rt/include/chtm.h"
 2316              		.file 13 "ChibiOS_3.0.2/os/rt/include/chsem.h"
 2317              		.file 14 "ChibiOS_3.0.2/os/rt/include/chmtx.h"
 2318              		.file 15 "ChibiOS_3.0.2/os/rt/include/chregistry.h"
 2319              		.file 16 "ChibiOS_3.0.2/os/ext/CMSIS/ST/stm32f4xx.h"
 2320              		.file 17 "datatypes.h"
 2321              		.file 18 "conf_general.h"
 2322              		.file 19 "ChibiOS_3.0.2/ext/stdperiph_stm32f4/inc/stm32f4xx_flash.h"
 2323              		.file 20 "mcpwm.h"
 2324              		.file 21 "mc_interface.h"
 2325              		.file 22 "c:\\chibistudio\\tools\\gnu tools arm embedded\\6.3 2017q1\\arm-none-eabi\\include\\sys\
ARM GAS  C:\Users\Grillmo\AppData\Local\Temp\cchyPTfM.s 			page 42


 2326              		.file 23 "c:\\chibistudio\\tools\\gnu tools arm embedded\\6.3 2017q1\\arm-none-eabi\\include\\sys\
 2327              		.file 24 "c:\\chibistudio\\tools\\gnu tools arm embedded\\6.3 2017q1\\arm-none-eabi\\include\\sys\
 2328              		.file 25 "c:\\chibistudio\\tools\\gnu tools arm embedded\\6.3 2017q1\\arm-none-eabi\\include\\math
 2329              		.file 26 "ChibiOS_3.0.2/os/rt/include/chthreads.h"
 2330              		.file 27 "timeout.h"
 2331              		.file 28 "eeprom.h"
 2332              		.file 29 "utils.h"
 2333              		.file 30 "ChibiOS_3.0.2/ext/stdperiph_stm32f4/inc/stm32f4xx_rcc.h"