ARM GAS  /var/tmp//ccOTs1fc.s 			page 1


   1              		.cpu cortex-m4
   2              		.eabi_attribute 27, 1
   3              		.eabi_attribute 28, 1
   4              		.eabi_attribute 20, 1
   5              		.eabi_attribute 21, 1
   6              		.eabi_attribute 23, 3
   7              		.eabi_attribute 24, 1
   8              		.eabi_attribute 25, 1
   9              		.eabi_attribute 26, 1
  10              		.eabi_attribute 30, 2
  11              		.eabi_attribute 34, 1
  12              		.eabi_attribute 18, 4
  13              		.file	"digital_filter.c"
  14              		.text
  15              	.Ltext0:
  16              		.cfi_sections	.debug_frame
  17              		.global	__aeabi_f2d
  18              		.global	__aeabi_d2f
  19              		.section	.text.filter_fft,"ax",%progbits
  20              		.align	1
  21              		.p2align 4,,15
  22              		.global	filter_fft
  23              		.syntax unified
  24              		.thumb
  25              		.thumb_func
  26              		.fpu fpv4-sp-d16
  27              		.type	filter_fft, %function
  28              	filter_fft:
  29              	.LFB0:
  30              		.file 1 "digital_filter.c"
  31              		.loc 1 25 0
  32              		.cfi_startproc
  33              		@ args = 0, pretend = 0, frame = 16
  34              		@ frame_needed = 0, uses_anonymous_args = 0
  35              	.LVL0:
  36 0000 2DE9F04F 		push	{r4, r5, r6, r7, r8, r9, r10, fp, lr}
  37              		.cfi_def_cfa_offset 36
  38              		.cfi_offset 4, -36
  39              		.cfi_offset 5, -32
  40              		.cfi_offset 6, -28
  41              		.cfi_offset 7, -24
  42              		.cfi_offset 8, -20
  43              		.cfi_offset 9, -16
  44              		.cfi_offset 10, -12
  45              		.cfi_offset 11, -8
  46              		.cfi_offset 14, -4
  47 0004 2DED068B 		vpush.64	{d8, d9, d10}
  48              		.cfi_def_cfa_offset 60
  49              		.cfi_offset 80, -60
  50              		.cfi_offset 81, -56
  51              		.cfi_offset 82, -52
  52              		.cfi_offset 83, -48
  53              		.cfi_offset 84, -44
  54              		.cfi_offset 85, -40
  55              		.loc 1 30 0
  56 0008 0126     		movs	r6, #1
  57              		.loc 1 25 0
ARM GAS  /var/tmp//ccOTs1fc.s 			page 2


  58 000a 85B0     		sub	sp, sp, #20
  59              		.cfi_def_cfa_offset 80
  60              		.loc 1 30 0
  61 000c 8E40     		lsls	r6, r6, r1
  62              	.LVL1:
  63              		.loc 1 35 0
  64 000e 012E     		cmp	r6, #1
  65              		.loc 1 25 0
  66 0010 0191     		str	r1, [sp, #4]
  67 0012 0290     		str	r0, [sp, #8]
  68 0014 0392     		str	r2, [sp, #12]
  69 0016 0093     		str	r3, [sp]
  70              	.LVL2:
  71              		.loc 1 35 0
  72 0018 30DD     		ble	.L2
  73 001a 1046     		mov	r0, r2
  74              	.LVL3:
  75 001c 1F46     		mov	r7, r3
  76 001e 0021     		movs	r1, #0
  77              	.LVL4:
  78 0020 0346     		mov	r3, r0
  79              	.LVL5:
  80 0022 041D     		adds	r4, r0, #4
  81 0024 DDF80090 		ldr	r9, [sp]
  82 0028 3846     		mov	r0, r7
  83 002a 7510     		asrs	r5, r6, #1
  84              	.LVL6:
  85 002c 0A46     		mov	r2, r1
  86              	.LVL7:
  87 002e 0430     		adds	r0, r0, #4
  88 0030 771E     		subs	r7, r6, #1
  89              	.LVL8:
  90 0032 9846     		mov	r8, r3
  91              	.LVL9:
  92              	.L3:
  93              		.loc 1 45 0
  94 0034 9542     		cmp	r5, r2
  95 0036 2B46     		mov	r3, r5
  96 0038 03DC     		bgt	.L7
  97              	.LVL10:
  98              	.L8:
  99              		.loc 1 46 0
 100 003a D21A     		subs	r2, r2, r3
 101              	.LVL11:
 102              		.loc 1 47 0
 103 003c 5B10     		asrs	r3, r3, #1
 104              	.LVL12:
 105              		.loc 1 45 0
 106 003e 9A42     		cmp	r2, r3
 107 0040 FBDA     		bge	.L8
 108              	.L7:
 109              		.loc 1 35 0 discriminator 2
 110 0042 0131     		adds	r1, r1, #1
 111 0044 B942     		cmp	r1, r7
 112              		.loc 1 49 0 discriminator 2
 113 0046 1A44     		add	r2, r2, r3
 114              	.LVL13:
ARM GAS  /var/tmp//ccOTs1fc.s 			page 3


 115              		.loc 1 35 0 discriminator 2
 116 0048 18D0     		beq	.L2
 117              		.loc 1 36 0
 118 004a 8A42     		cmp	r2, r1
 119 004c 13DD     		ble	.L6
 120              		.loc 1 39 0
 121 004e 9300     		lsls	r3, r2, #2
 122              	.LVL14:
 123 0050 08EB030E 		add	lr, r8, r3
 124              		.loc 1 40 0
 125 0054 4B44     		add	r3, r3, r9
 126              		.loc 1 39 0
 127 0056 DEF800B0 		ldr	fp, [lr]	@ float
 128              		.loc 1 37 0
 129 005a D4F800A0 		ldr	r10, [r4]	@ float
 130              	.LVL15:
 131              		.loc 1 38 0
 132 005e D0F800C0 		ldr	ip, [r0]	@ float
 133              	.LVL16:
 134              		.loc 1 39 0
 135 0062 C4F800B0 		str	fp, [r4]	@ float
 136              		.loc 1 40 0
 137 0066 D3F800B0 		ldr	fp, [r3]	@ float
 138 006a C0F800B0 		str	fp, [r0]	@ float
 139              		.loc 1 41 0
 140 006e CEF800A0 		str	r10, [lr]	@ float
 141              		.loc 1 42 0
 142 0072 C3F800C0 		str	ip, [r3]	@ float
 143              	.LVL17:
 144              	.L6:
 145 0076 0434     		adds	r4, r4, #4
 146 0078 0430     		adds	r0, r0, #4
 147 007a DBE7     		b	.L3
 148              	.LVL18:
 149              	.L2:
 150              		.loc 1 56 0
 151 007c 019B     		ldr	r3, [sp, #4]
 152 007e 002B     		cmp	r3, #0
 153 0080 40F39480 		ble	.L5
 154 0084 9FED5AAA 		vldr.32	s20, .L32
 155 0088 FFEE009A 		vmov.f32	s19, #-1.0e+0
 156              		.loc 1 61 0
 157 008c B0EE4A9A 		vmov.f32	s18, s20
 158              		.loc 1 56 0
 159 0090 4FF0010B 		mov	fp, #1
 160 0094 0027     		movs	r7, #0
 161              		.loc 1 61 0
 162 0096 F7EE008A 		vmov.f32	s17, #1.0e+0
 163              		.loc 1 75 0
 164 009a B6EE008A 		vmov.f32	s16, #5.0e-1
 165              	.LVL19:
 166              	.L19:
 167              		.loc 1 61 0
 168 009e BBF1000F 		cmp	fp, #0
 169              		.loc 1 58 0
 170 00a2 4FEA4B08 		lsl	r8, fp, #1
 171              	.LVL20:
ARM GAS  /var/tmp//ccOTs1fc.s 			page 4


 172              		.loc 1 61 0
 173 00a6 53DD     		ble	.L13
 174 00a8 DDF80C90 		ldr	r9, [sp, #12]
 175 00ac DDF800C0 		ldr	ip, [sp]
 176              		.loc 1 61 0 is_stmt 0 discriminator 1
 177 00b0 B0EE495A 		vmov.f32	s10, s18
 178 00b4 4FEACB04 		lsl	r4, fp, #3
 179 00b8 4FEA8B0A 		lsl	r10, fp, #2
 180 00bc F7EE004A 		vmov.f32	s9, #1.0e+0
 181 00c0 4FF0000E 		mov	lr, #0
 182              	.LVL21:
 183              	.L15:
 184              		.loc 1 62 0 is_stmt 1 discriminator 1
 185 00c4 7645     		cmp	r6, lr
 186 00c6 31DD     		ble	.L17
 187 00c8 09EB0A00 		add	r0, r9, r10
 188 00cc 0CEB0A01 		add	r1, ip, r10
 189              		.loc 1 62 0 is_stmt 0 discriminator 3
 190 00d0 6246     		mov	r2, ip
 191 00d2 4B46     		mov	r3, r9
 192 00d4 7546     		mov	r5, lr
 193              	.LVL22:
 194              	.L14:
 195              		.loc 1 64 0 is_stmt 1 discriminator 3
 196 00d6 91ED006A 		vldr.32	s12, [r1]
 197 00da D0ED005A 		vldr.32	s11, [r0]
 198              		.loc 1 66 0 discriminator 3
 199 00de D3ED006A 		vldr.32	s13, [r3]
 200              		.loc 1 64 0 discriminator 3
 201 00e2 25EE467A 		vnmul.f32	s14, s10, s12
 202              		.loc 1 65 0 discriminator 3
 203 00e6 65EE857A 		vmul.f32	s15, s11, s10
 204              		.loc 1 64 0 discriminator 3
 205 00ea A5EEA47A 		vfma.f32	s14, s11, s9
 206              	.LVL23:
 207              		.loc 1 62 0 discriminator 3
 208 00ee 4544     		add	r5, r5, r8
 209              	.LVL24:
 210 00f0 AE42     		cmp	r6, r5
 211              		.loc 1 65 0 discriminator 3
 212 00f2 E6EE247A 		vfma.f32	s15, s12, s9
 213              	.LVL25:
 214              		.loc 1 66 0 discriminator 3
 215 00f6 76EEC76A 		vsub.f32	s13, s13, s14
 216 00fa C0ED006A 		vstr.32	s13, [r0]
 217              		.loc 1 67 0 discriminator 3
 218 00fe D2ED006A 		vldr.32	s13, [r2]
 219 0102 76EEE76A 		vsub.f32	s13, s13, s15
 220 0106 2044     		add	r0, r0, r4
 221 0108 C1ED006A 		vstr.32	s13, [r1]
 222              		.loc 1 68 0 discriminator 3
 223 010c D3ED006A 		vldr.32	s13, [r3]
 224 0110 36EE877A 		vadd.f32	s14, s13, s14
 225              	.LVL26:
 226 0114 2144     		add	r1, r1, r4
 227 0116 83ED007A 		vstr.32	s14, [r3]
 228              		.loc 1 69 0 discriminator 3
ARM GAS  /var/tmp//ccOTs1fc.s 			page 5


 229 011a 92ED007A 		vldr.32	s14, [r2]
 230 011e 77EE277A 		vadd.f32	s15, s14, s15
 231              	.LVL27:
 232 0122 2344     		add	r3, r3, r4
 233 0124 C2ED007A 		vstr.32	s15, [r2]
 234 0128 2244     		add	r2, r2, r4
 235              		.loc 1 62 0 discriminator 3
 236 012a D4DC     		bgt	.L14
 237              	.LVL28:
 238              	.L17:
 239              		.loc 1 71 0
 240 012c 65EE4A7A 		vnmul.f32	s15, s10, s20
 241              	.LVL29:
 242              		.loc 1 61 0
 243 0130 0EF1010E 		add	lr, lr, #1
 244              	.LVL30:
 245              		.loc 1 73 0
 246 0134 E9EEA47A 		vfma.f32	s15, s19, s9
 247              	.LVL31:
 248              		.loc 1 61 0
 249 0138 DE45     		cmp	lr, fp
 250 013a 09F10409 		add	r9, r9, #4
 251              		.loc 1 72 0
 252 013e 29EE855A 		vmul.f32	s10, s19, s10
 253              	.LVL32:
 254 0142 0CF1040C 		add	ip, ip, #4
 255 0146 AAEE245A 		vfma.f32	s10, s20, s9
 256              	.LVL33:
 257              		.loc 1 73 0
 258 014a F0EE674A 		vmov.f32	s9, s15
 259              		.loc 1 61 0
 260 014e B9D1     		bne	.L15
 261              	.LVL34:
 262              	.L13:
 263              		.loc 1 75 0
 264 0150 78EEE97A 		vsub.f32	s15, s17, s19
 265 0154 67EE887A 		vmul.f32	s15, s15, s16
 266 0158 17EE900A 		vmov	r0, s15
 267 015c FFF7FEFF 		bl	__aeabi_f2d
 268              	.LVL35:
 269 0160 41EC100B 		vmov	d0, r0, r1
 270 0164 FFF7FEFF 		bl	sqrt
 271              	.LVL36:
 272 0168 51EC100B 		vmov	r0, r1, d0
 273 016c FFF7FEFF 		bl	__aeabi_d2f
 274              	.LVL37:
 275              		.loc 1 76 0
 276 0170 029B     		ldr	r3, [sp, #8]
 277              		.loc 1 75 0
 278 0172 0AEE100A 		vmov	s20, r0
 279              	.LVL38:
 280              		.loc 1 76 0
 281 0176 0BB1     		cbz	r3, .L18
 282              		.loc 1 77 0
 283 0178 B1EE4AAA 		vneg.f32	s20, s20
 284              	.LVL39:
 285              	.L18:
ARM GAS  /var/tmp//ccOTs1fc.s 			page 6


 286              		.loc 1 79 0 discriminator 2
 287 017c 79EEA89A 		vadd.f32	s19, s19, s17
 288              	.LVL40:
 289              		.loc 1 56 0 discriminator 2
 290 0180 0137     		adds	r7, r7, #1
 291              	.LVL41:
 292              		.loc 1 79 0 discriminator 2
 293 0182 69EE887A 		vmul.f32	s15, s19, s16
 294              		.loc 1 58 0 discriminator 2
 295 0186 C346     		mov	fp, r8
 296              	.LVL42:
 297              		.loc 1 79 0 discriminator 2
 298 0188 17EE900A 		vmov	r0, s15
 299 018c FFF7FEFF 		bl	__aeabi_f2d
 300              	.LVL43:
 301 0190 41EC100B 		vmov	d0, r0, r1
 302 0194 FFF7FEFF 		bl	sqrt
 303              	.LVL44:
 304 0198 51EC100B 		vmov	r0, r1, d0
 305 019c FFF7FEFF 		bl	__aeabi_d2f
 306              	.LVL45:
 307              		.loc 1 56 0 discriminator 2
 308 01a0 019B     		ldr	r3, [sp, #4]
 309 01a2 BB42     		cmp	r3, r7
 310              		.loc 1 79 0 discriminator 2
 311 01a4 09EE900A 		vmov	s19, r0
 312              	.LVL46:
 313              		.loc 1 56 0 discriminator 2
 314 01a8 7FF479AF 		bne	.L19
 315              	.LVL47:
 316              	.L5:
 317              		.loc 1 83 0
 318 01ac 029B     		ldr	r3, [sp, #8]
 319 01ae CBB1     		cbz	r3, .L1
 320              	.LVL48:
 321              		.loc 1 84 0 discriminator 1
 322 01b0 002E     		cmp	r6, #0
 323 01b2 17DD     		ble	.L1
 324 01b4 019A     		ldr	r2, [sp, #4]
 325 01b6 039B     		ldr	r3, [sp, #12]
 326 01b8 07EE906A 		vmov	s15, r6	@ int
 327 01bc 0421     		movs	r1, #4
 328 01be 9140     		lsls	r1, r1, r2
 329 01c0 F8EEE77A 		vcvt.f32.s32	s15, s15
 330 01c4 009A     		ldr	r2, [sp]
 331 01c6 1944     		add	r1, r1, r3
 332              	.LVL49:
 333              	.L20:
 334              		.loc 1 85 0 discriminator 3
 335 01c8 D3ED006A 		vldr.32	s13, [r3]
 336 01cc 86EEA77A 		vdiv.f32	s14, s13, s15
 337 01d0 A3EC017A 		vstmia.32	r3!, {s14}
 338              		.loc 1 86 0 discriminator 3
 339 01d4 D2ED006A 		vldr.32	s13, [r2]
 340 01d8 86EEA77A 		vdiv.f32	s14, s13, s15
 341              		.loc 1 84 0 discriminator 3
 342 01dc 9942     		cmp	r1, r3
ARM GAS  /var/tmp//ccOTs1fc.s 			page 7


 343              		.loc 1 86 0 discriminator 3
 344 01de A2EC017A 		vstmia.32	r2!, {s14}
 345              		.loc 1 84 0 discriminator 3
 346 01e2 F1D1     		bne	.L20
 347              	.L1:
 348              		.loc 1 89 0
 349 01e4 05B0     		add	sp, sp, #20
 350              		.cfi_def_cfa_offset 60
 351              	.LVL50:
 352              		@ sp needed
 353 01e6 BDEC068B 		vldm	sp!, {d8-d10}
 354              		.cfi_restore 84
 355              		.cfi_restore 85
 356              		.cfi_restore 82
 357              		.cfi_restore 83
 358              		.cfi_restore 80
 359              		.cfi_restore 81
 360              		.cfi_def_cfa_offset 36
 361 01ea BDE8F08F 		pop	{r4, r5, r6, r7, r8, r9, r10, fp, pc}
 362              	.LVL51:
 363              	.L33:
 364 01ee 00BF     		.align	2
 365              	.L32:
 366 01f0 00000000 		.word	0
 367              		.cfi_endproc
 368              	.LFE0:
 369              		.size	filter_fft, .-filter_fft
 370              		.section	.text.filter_dft,"ax",%progbits
 371              		.align	1
 372              		.p2align 4,,15
 373              		.global	filter_dft
 374              		.syntax unified
 375              		.thumb
 376              		.thumb_func
 377              		.fpu fpv4-sp-d16
 378              		.type	filter_dft, %function
 379              	filter_dft:
 380              	.LFB1:
 381              		.loc 1 92 0
 382              		.cfi_startproc
 383              		@ args = 0, pretend = 0, frame = 40
 384              		@ frame_needed = 1, uses_anonymous_args = 0
 385              	.LVL52:
 386 0000 2DE9F04F 		push	{r4, r5, r6, r7, r8, r9, r10, fp, lr}
 387              		.cfi_def_cfa_offset 36
 388              		.cfi_offset 4, -36
 389              		.cfi_offset 5, -32
 390              		.cfi_offset 6, -28
 391              		.cfi_offset 7, -24
 392              		.cfi_offset 8, -20
 393              		.cfi_offset 9, -16
 394              		.cfi_offset 10, -12
 395              		.cfi_offset 11, -8
 396              		.cfi_offset 14, -4
 397 0004 2DED088B 		vpush.64	{d8, d9, d10, d11}
 398              		.cfi_def_cfa_offset 68
 399              		.cfi_offset 80, -68
ARM GAS  /var/tmp//ccOTs1fc.s 			page 8


 400              		.cfi_offset 81, -64
 401              		.cfi_offset 82, -60
 402              		.cfi_offset 83, -56
 403              		.cfi_offset 84, -52
 404              		.cfi_offset 85, -48
 405              		.cfi_offset 86, -44
 406              		.cfi_offset 87, -40
 407 0008 8BB0     		sub	sp, sp, #44
 408              		.cfi_def_cfa_offset 112
 409 000a 00AF     		add	r7, sp, #0
 410              		.cfi_def_cfa_register 7
 411              		.loc 1 97 0
 412 000c 0028     		cmp	r0, #0
 413 000e 40F08480 		bne	.L35
 414              	.LVL53:
 415              		.loc 1 103 0
 416 0012 8800     		lsls	r0, r1, #2
 417 0014 F860     		str	r0, [r7, #12]
 418 0016 0A30     		adds	r0, r0, #10
 419 0018 20F00700 		bic	r0, r0, #7
 420 001c ADEB000D 		sub	sp, sp, r0
 421 0020 C7F814D0 		str	sp, [r7, #20]
 422              	.LVL54:
 423              		.loc 1 106 0
 424 0024 0029     		cmp	r1, #0
 425              		.loc 1 104 0
 426 0026 ADEB000D 		sub	sp, sp, r0
 427              	.LVL55:
 428 002a C7F810D0 		str	sp, [r7, #16]
 429              	.LVL56:
 430              		.loc 1 106 0
 431 002e 6EDD     		ble	.L34
 432              		.loc 1 100 0
 433 0030 DFED51BA 		vldr.32	s23, .L56	@ int
 434              	.LVL57:
 435              	.L44:
 436 0034 DFED517A 		vldr.32	s15, .L56+4
 437 0038 F8EEEBAA 		vcvt.f32.s32	s21, s23
 438 003c 07EE101A 		vmov	s14, r1	@ int
 439 0040 F1EE6AAA 		vneg.f32	s21, s21
 440 0044 7AEEAAAA 		vadd.f32	s21, s21, s21
 441 0048 9846     		mov	r8, r3
 442 004a 1646     		mov	r6, r2
 443 004c 7B69     		ldr	r3, [r7, #20]
 444              	.LVL58:
 445 004e 3A69     		ldr	r2, [r7, #16]
 446              	.LVL59:
 447 0050 7B60     		str	r3, [r7, #4]
 448 0052 B8EEC7BA 		vcvt.f32.s32	s22, s14
 449 0056 6AEEA7AA 		vmul.f32	s21, s21, s15
 450 005a 0C46     		mov	r4, r1
 451 005c BA60     		str	r2, [r7, #8]
 452              		.loc 1 98 0
 453 005e 7A62     		str	r2, [r7, #36]
 454 0060 3B62     		str	r3, [r7, #32]
 455 0062 0025     		movs	r5, #0
 456              	.LVL60:
ARM GAS  /var/tmp//ccOTs1fc.s 			page 9


 457              	.L38:
 458              		.loc 1 109 0
 459 0064 07EE905A 		vmov	s15, r5	@ int
 460 0068 F8EEE77A 		vcvt.f32.s32	s15, s15
 461 006c 9FED449A 		vldr.32	s18, .L56+8
 462 0070 BE61     		str	r6, [r7, #24]
 463 0072 67EEAA7A 		vmul.f32	s15, s15, s21
 464 0076 F0EE499A 		vmov.f32	s19, s18
 465 007a 87EE8BAA 		vdiv.f32	s20, s15, s22
 466              	.LVL61:
 467 007e C7F81C80 		str	r8, [r7, #28]
 468 0082 C246     		mov	r10, r8
 469 0084 B146     		mov	r9, r6
 470 0086 4FF0000B 		mov	fp, #0
 471              	.LVL62:
 472              	.L37:
 473              		.loc 1 111 0 discriminator 3
 474 008a 07EE90BA 		vmov	s15, fp	@ int
 475 008e B8EEE78A 		vcvt.f32.s32	s16, s15
 476              		.loc 1 110 0 discriminator 3
 477 0092 0BF1010B 		add	fp, fp, #1
 478              	.LVL63:
 479              		.loc 1 111 0 discriminator 3
 480 0096 28EE0A8A 		vmul.f32	s16, s16, s20
 481 009a B0EE480A 		vmov.f32	s0, s16
 482 009e FFF7FEFF 		bl	cosf
 483              	.LVL64:
 484 00a2 F0EE408A 		vmov.f32	s17, s0
 485              	.LVL65:
 486              		.loc 1 112 0 discriminator 3
 487 00a6 B0EE480A 		vmov.f32	s0, s16
 488              	.LVL66:
 489 00aa FFF7FEFF 		bl	sinf
 490              	.LVL67:
 491              		.loc 1 113 0 discriminator 3
 492 00ae FAEC017A 		vldmia.32	r10!, {s15}
 493 00b2 F9EC016A 		vldmia.32	r9!, {s13}
 494 00b6 27EEC07A 		vnmul.f32	s14, s15, s0
 495              		.loc 1 114 0 discriminator 3
 496 00ba 68EEA77A 		vmul.f32	s15, s17, s15
 497              		.loc 1 113 0 discriminator 3
 498 00be A8EEA67A 		vfma.f32	s14, s17, s13
 499              		.loc 1 110 0 discriminator 3
 500 00c2 5C45     		cmp	r4, fp
 501              		.loc 1 114 0 discriminator 3
 502 00c4 E0EE267A 		vfma.f32	s15, s0, s13
 503              		.loc 1 113 0 discriminator 3
 504 00c8 79EE879A 		vadd.f32	s19, s19, s14
 505              		.loc 1 114 0 discriminator 3
 506 00cc 39EE279A 		vadd.f32	s18, s18, s15
 507              		.loc 1 110 0 discriminator 3
 508 00d0 DBD1     		bne	.L37
 509 00d2 3B6A     		ldr	r3, [r7, #32]
 510 00d4 E3EC019A 		vstmia.32	r3!, {s19}
 511 00d8 3B62     		str	r3, [r7, #32]
 512 00da 7B6A     		ldr	r3, [r7, #36]
 513              		.loc 1 106 0 discriminator 2
ARM GAS  /var/tmp//ccOTs1fc.s 			page 10


 514 00dc 0135     		adds	r5, r5, #1
 515              	.LVL68:
 516 00de A3EC019A 		vstmia.32	r3!, {s18}
 517 00e2 AC42     		cmp	r4, r5
 518 00e4 7B62     		str	r3, [r7, #36]
 519 00e6 BDD1     		bne	.L38
 520              		.loc 1 119 0
 521 00e8 1BEE903A 		vmov	r3, s23	@ int
 522 00ec 012B     		cmp	r3, #1
 523 00ee 28D0     		beq	.L55
 524              	.LVL69:
 525 00f0 7969     		ldr	r1, [r7, #20]
 526 00f2 FB68     		ldr	r3, [r7, #12]
 527 00f4 0B44     		add	r3, r3, r1
 528 00f6 1C46     		mov	r4, r3
 529              	.LVL70:
 530 00f8 3B69     		ldr	r3, [r7, #16]
 531              	.LVL71:
 532              	.L40:
 533              		.loc 1 126 0 discriminator 3
 534 00fa 51F8040B 		ldr	r0, [r1], #4	@ float
 535              		.loc 1 127 0 discriminator 3
 536 00fe 53F8042B 		ldr	r2, [r3], #4	@ float
 537              		.loc 1 126 0 discriminator 3
 538 0102 46F8040B 		str	r0, [r6], #4	@ float
 539              		.loc 1 125 0 discriminator 3
 540 0106 8C42     		cmp	r4, r1
 541              		.loc 1 127 0 discriminator 3
 542 0108 48F8042B 		str	r2, [r8], #4	@ float
 543              		.loc 1 125 0 discriminator 3
 544 010c F5D1     		bne	.L40
 545              	.LVL72:
 546              	.L34:
 547              		.loc 1 130 0
 548 010e 2C37     		adds	r7, r7, #44
 549              		.cfi_remember_state
 550              		.cfi_def_cfa_offset 68
 551              	.LVL73:
 552 0110 BD46     		mov	sp, r7
 553              		.cfi_def_cfa_register 13
 554              	.LVL74:
 555              		@ sp needed
 556 0112 BDEC088B 		vldm	sp!, {d8-d11}
 557              		.cfi_restore 86
 558              		.cfi_restore 87
 559              		.cfi_restore 84
 560              		.cfi_restore 85
 561              		.cfi_restore 82
 562              		.cfi_restore 83
 563              		.cfi_restore 80
 564              		.cfi_restore 81
 565              		.cfi_def_cfa_offset 36
 566 0116 BDE8F08F 		pop	{r4, r5, r6, r7, r8, r9, r10, fp, pc}
 567              	.LVL75:
 568              	.L35:
 569              		.cfi_restore_state
 570              		.loc 1 103 0
ARM GAS  /var/tmp//ccOTs1fc.s 			page 11


 571 011a 8800     		lsls	r0, r1, #2
 572 011c F860     		str	r0, [r7, #12]
 573 011e 0A30     		adds	r0, r0, #10
 574 0120 20F00700 		bic	r0, r0, #7
 575 0124 ADEB000D 		sub	sp, sp, r0
 576 0128 C7F814D0 		str	sp, [r7, #20]
 577              	.LVL76:
 578              		.loc 1 106 0
 579 012c 0029     		cmp	r1, #0
 580              		.loc 1 104 0
 581 012e ADEB000D 		sub	sp, sp, r0
 582              	.LVL77:
 583 0132 C7F810D0 		str	sp, [r7, #16]
 584              	.LVL78:
 585              		.loc 1 98 0
 586 0136 C8BF     		it	gt
 587 0138 DFED12BA 		vldrgt.32	s23, .L56+12	@ int
 588              		.loc 1 106 0
 589 013c 3FF77AAF 		bgt	.L44
 590 0140 E5E7     		b	.L34
 591              	.LVL79:
 592              	.L55:
 593 0142 FA68     		ldr	r2, [r7, #12]
 594 0144 7B69     		ldr	r3, [r7, #20]
 595 0146 F969     		ldr	r1, [r7, #28]
 596 0148 B868     		ldr	r0, [r7, #8]
 597 014a BC69     		ldr	r4, [r7, #24]
 598              	.LVL80:
 599 014c 1344     		add	r3, r3, r2
 600 014e 7A68     		ldr	r2, [r7, #4]
 601              	.LVL81:
 602              	.L41:
 603              		.loc 1 121 0 discriminator 3
 604 0150 F2EC017A 		vldmia.32	r2!, {s15}
 605              		.loc 1 122 0 discriminator 3
 606 0154 F0EC016A 		vldmia.32	r0!, {s13}
 607              		.loc 1 121 0 discriminator 3
 608 0158 87EE8B7A 		vdiv.f32	s14, s15, s22
 609              		.loc 1 120 0 discriminator 3
 610 015c 9342     		cmp	r3, r2
 611              		.loc 1 122 0 discriminator 3
 612 015e C6EE8B7A 		vdiv.f32	s15, s13, s22
 613              		.loc 1 121 0 discriminator 3
 614 0162 A4EC017A 		vstmia.32	r4!, {s14}
 615              		.loc 1 122 0 discriminator 3
 616 0166 E1EC017A 		vstmia.32	r1!, {s15}
 617              		.loc 1 120 0 discriminator 3
 618 016a F1D1     		bne	.L41
 619              		.loc 1 130 0
 620 016c 2C37     		adds	r7, r7, #44
 621              		.cfi_def_cfa_offset 68
 622 016e BD46     		mov	sp, r7
 623              		.cfi_def_cfa_register 13
 624              	.LVL82:
 625              		@ sp needed
 626 0170 BDEC088B 		vldm	sp!, {d8-d11}
 627              		.cfi_restore 80
ARM GAS  /var/tmp//ccOTs1fc.s 			page 12


 628              		.cfi_restore 81
 629              		.cfi_restore 82
 630              		.cfi_restore 83
 631              		.cfi_restore 84
 632              		.cfi_restore 85
 633              		.cfi_restore 86
 634              		.cfi_restore 87
 635              		.cfi_def_cfa_offset 36
 636              	.LVL83:
 637 0174 BDE8F08F 		pop	{r4, r5, r6, r7, r8, r9, r10, fp, pc}
 638              	.LVL84:
 639              	.L57:
 640              		.align	2
 641              	.L56:
 642 0178 FFFFFFFF 		.word	-1
 643 017c DB0F4940 		.word	1078530011
 644 0180 00000000 		.word	0
 645 0184 01000000 		.word	1
 646              		.cfi_endproc
 647              	.LFE1:
 648              		.size	filter_dft, .-filter_dft
 649              		.section	.text.filter_fftshift,"ax",%progbits
 650              		.align	1
 651              		.p2align 4,,15
 652              		.global	filter_fftshift
 653              		.syntax unified
 654              		.thumb
 655              		.thumb_func
 656              		.fpu fpv4-sp-d16
 657              		.type	filter_fftshift, %function
 658              	filter_fftshift:
 659              	.LFB2:
 660              		.loc 1 132 0
 661              		.cfi_startproc
 662              		@ args = 0, pretend = 0, frame = 0
 663              		@ frame_needed = 0, uses_anonymous_args = 0
 664              		@ link register save eliminated.
 665              	.LVL85:
 666              	.LBB11:
 667              		.loc 1 133 0
 668 0000 01EBD171 		add	r1, r1, r1, lsr #31
 669              	.LVL86:
 670              	.LBE11:
 671              		.loc 1 132 0
 672 0004 10B4     		push	{r4}
 673              		.cfi_def_cfa_offset 4
 674              		.cfi_offset 4, -4
 675              	.LBB14:
 676              		.loc 1 133 0
 677 0006 4C10     		asrs	r4, r1, #1
 678 0008 002C     		cmp	r4, #0
 679 000a 0ADD     		ble	.L58
 680 000c 00EB8404 		add	r4, r0, r4, lsl #2
 681 0010 2346     		mov	r3, r4
 682              	.LVL87:
 683              	.L60:
 684              	.LBB12:
ARM GAS  /var/tmp//ccOTs1fc.s 			page 13


 685              		.loc 1 135 0 discriminator 3
 686 0012 1968     		ldr	r1, [r3]	@ float
 687              		.loc 1 134 0 discriminator 3
 688 0014 0268     		ldr	r2, [r0]	@ float
 689              	.LVL88:
 690              		.loc 1 137 0 discriminator 3
 691 0016 40F8041B 		str	r1, [r0], #4	@ float
 692              	.LBE12:
 693              		.loc 1 133 0 discriminator 3
 694 001a 8442     		cmp	r4, r0
 695              	.LBB13:
 696              		.loc 1 138 0 discriminator 3
 697 001c 43F8042B 		str	r2, [r3], #4	@ float
 698              	.LBE13:
 699              		.loc 1 133 0 discriminator 3
 700 0020 F7D1     		bne	.L60
 701              	.LVL89:
 702              	.L58:
 703              	.LBE14:
 704              		.loc 1 140 0
 705 0022 5DF8044B 		ldr	r4, [sp], #4
 706              		.cfi_restore 4
 707              		.cfi_def_cfa_offset 0
 708 0026 7047     		bx	lr
 709              		.cfi_endproc
 710              	.LFE2:
 711              		.size	filter_fftshift, .-filter_fftshift
 712              		.section	.text.filter_hamming,"ax",%progbits
 713              		.align	1
 714              		.p2align 4,,15
 715              		.global	filter_hamming
 716              		.syntax unified
 717              		.thumb
 718              		.thumb_func
 719              		.fpu fpv4-sp-d16
 720              		.type	filter_hamming, %function
 721              	filter_hamming:
 722              	.LFB3:
 723              		.loc 1 142 0
 724              		.cfi_startproc
 725              		@ args = 0, pretend = 0, frame = 0
 726              		@ frame_needed = 0, uses_anonymous_args = 0
 727              	.LVL90:
 728 0000 F8B5     		push	{r3, r4, r5, r6, r7, lr}
 729              		.cfi_def_cfa_offset 24
 730              		.cfi_offset 3, -24
 731              		.cfi_offset 4, -20
 732              		.cfi_offset 5, -16
 733              		.cfi_offset 6, -12
 734              		.cfi_offset 7, -8
 735              		.cfi_offset 14, -4
 736              		.loc 1 143 0
 737 0002 11F00105 		ands	r5, r1, #1
 738              		.loc 1 142 0
 739 0006 2DED048B 		vpush.64	{d8, d9}
 740              		.cfi_def_cfa_offset 40
 741              		.cfi_offset 80, -40
ARM GAS  /var/tmp//ccOTs1fc.s 			page 14


 742              		.cfi_offset 81, -36
 743              		.cfi_offset 82, -32
 744              		.cfi_offset 83, -28
 745              		.loc 1 142 0
 746 000a 0E46     		mov	r6, r1
 747              		.loc 1 143 0
 748 000c 28D0     		beq	.L65
 749              	.LVL91:
 750              	.LBB22:
 751              		.loc 1 150 0 discriminator 1
 752 000e 0029     		cmp	r1, #0
 753 0010 23DD     		ble	.L64
 754 0012 4B1E     		subs	r3, r1, #1
 755 0014 08EE103A 		vmov	s16, r3	@ int
 756              		.loc 1 151 0
 757 0018 DFED2B9A 		vldr.32	s19, .L73
 758 001c 9FED2B9A 		vldr.32	s18, .L73+4
 759 0020 DFED2B8A 		vldr.32	s17, .L73+8
 760 0024 B8EEC88A 		vcvt.f32.s32	s16, s16
 761 0028 0446     		mov	r4, r0
 762              		.loc 1 150 0
 763 002a 0025     		movs	r5, #0
 764              	.LVL92:
 765              	.L69:
 766              		.loc 1 151 0 discriminator 3
 767 002c 07EE905A 		vmov	s15, r5	@ int
 768 0030 B8EEE70A 		vcvt.f32.s32	s0, s15
 769              		.loc 1 150 0 discriminator 3
 770 0034 0135     		adds	r5, r5, #1
 771              	.LVL93:
 772              		.loc 1 151 0 discriminator 3
 773 0036 20EE290A 		vmul.f32	s0, s0, s19
 774 003a 80EE080A 		vdiv.f32	s0, s0, s16
 775 003e FFF7FEFF 		bl	cosf
 776              	.LVL94:
 777              		.loc 1 150 0 discriminator 3
 778 0042 AE42     		cmp	r6, r5
 779              		.loc 1 151 0 discriminator 3
 780 0044 B0EE687A 		vmov.f32	s14, s17
 781 0048 A0EE497A 		vfms.f32	s14, s0, s18
 782 004c D4ED007A 		vldr.32	s15, [r4]
 783 0050 67EE877A 		vmul.f32	s15, s15, s14
 784 0054 E4EC017A 		vstmia.32	r4!, {s15}
 785              		.loc 1 150 0 discriminator 3
 786 0058 E8D1     		bne	.L69
 787              	.LVL95:
 788              	.L64:
 789              	.LBE22:
 790              		.loc 1 154 0
 791 005a BDEC048B 		vldm	sp!, {d8-d9}
 792              		.cfi_remember_state
 793              		.cfi_restore 82
 794              		.cfi_restore 83
 795              		.cfi_restore 80
 796              		.cfi_restore 81
 797              		.cfi_def_cfa_offset 24
 798 005e F8BD     		pop	{r3, r4, r5, r6, r7, pc}
ARM GAS  /var/tmp//ccOTs1fc.s 			page 15


 799              	.LVL96:
 800              	.L65:
 801              		.cfi_restore_state
 802              	.LBB23:
 803              	.LBB24:
 804              		.loc 1 144 0
 805 0060 01EBD177 		add	r7, r1, r1, lsr #31
 806 0064 7F10     		asrs	r7, r7, #1
 807 0066 002F     		cmp	r7, #0
 808 0068 F7DD     		ble	.L64
 809 006a 4B1E     		subs	r3, r1, #1
 810 006c 08EE103A 		vmov	s16, r3	@ int
 811              	.LBB25:
 812              		.loc 1 145 0
 813 0070 DFED159A 		vldr.32	s19, .L73
 814 0074 9FED159A 		vldr.32	s18, .L73+4
 815 0078 DFED158A 		vldr.32	s17, .L73+8
 816 007c B8EEC88A 		vcvt.f32.s32	s16, s16
 817 0080 0446     		mov	r4, r0
 818 0082 00EB8106 		add	r6, r0, r1, lsl #2
 819              	.LVL97:
 820              	.L68:
 821 0086 07EE905A 		vmov	s15, r5	@ int
 822 008a B8EEE70A 		vcvt.f32.s32	s0, s15
 823              	.LBE25:
 824              		.loc 1 144 0
 825 008e 0135     		adds	r5, r5, #1
 826              	.LVL98:
 827              	.LBB26:
 828              		.loc 1 145 0
 829 0090 20EE290A 		vmul.f32	s0, s0, s19
 830 0094 80EE080A 		vdiv.f32	s0, s0, s16
 831 0098 FFF7FEFF 		bl	cosf
 832              	.LVL99:
 833              	.LBE26:
 834              		.loc 1 144 0
 835 009c BD42     		cmp	r5, r7
 836              	.LBB27:
 837              		.loc 1 145 0
 838 009e F0EE687A 		vmov.f32	s15, s17
 839 00a2 E0EE497A 		vfms.f32	s15, s0, s18
 840              	.LVL100:
 841              		.loc 1 146 0
 842 00a6 94ED007A 		vldr.32	s14, [r4]
 843 00aa 27EE277A 		vmul.f32	s14, s14, s15
 844 00ae A4EC017A 		vstmia.32	r4!, {s14}
 845              		.loc 1 147 0
 846 00b2 16ED017A 		vldr.32	s14, [r6, #-4]
 847 00b6 67EE877A 		vmul.f32	s15, s15, s14
 848              	.LVL101:
 849 00ba 66ED017A 		vstmdb.32	r6!, {s15}
 850              	.LBE27:
 851              		.loc 1 144 0
 852 00be E2D1     		bne	.L68
 853              	.LBE24:
 854              	.LBE23:
 855              		.loc 1 154 0
ARM GAS  /var/tmp//ccOTs1fc.s 			page 16


 856 00c0 BDEC048B 		vldm	sp!, {d8-d9}
 857              		.cfi_restore 80
 858              		.cfi_restore 81
 859              		.cfi_restore 82
 860              		.cfi_restore 83
 861              		.cfi_def_cfa_offset 24
 862              	.LVL102:
 863 00c4 F8BD     		pop	{r3, r4, r5, r6, r7, pc}
 864              	.LVL103:
 865              	.L74:
 866 00c6 00BF     		.align	2
 867              	.L73:
 868 00c8 DB0FC940 		.word	1086918619
 869 00cc 1F85EB3E 		.word	1055622431
 870 00d0 713D0A3F 		.word	1057635697
 871              		.cfi_endproc
 872              	.LFE3:
 873              		.size	filter_hamming, .-filter_hamming
 874              		.section	.text.filter_zeroPad,"ax",%progbits
 875              		.align	1
 876              		.p2align 4,,15
 877              		.global	filter_zeroPad
 878              		.syntax unified
 879              		.thumb
 880              		.thumb_func
 881              		.fpu fpv4-sp-d16
 882              		.type	filter_zeroPad, %function
 883              	filter_zeroPad:
 884              	.LFB4:
 885              		.loc 1 156 0
 886              		.cfi_startproc
 887              		@ args = 0, pretend = 0, frame = 0
 888              		@ frame_needed = 0, uses_anonymous_args = 0
 889              		@ link register save eliminated.
 890              	.LVL104:
 891              	.LBB28:
 892              		.loc 1 157 0
 893 0000 002B     		cmp	r3, #0
 894 0002 11DD     		ble	.L86
 895              	.LBE28:
 896              		.loc 1 156 0
 897 0004 70B4     		push	{r4, r5, r6}
 898              		.cfi_def_cfa_offset 12
 899              		.cfi_offset 4, -12
 900              		.cfi_offset 5, -8
 901              		.cfi_offset 6, -4
 902              	.LBB29:
 903              		.loc 1 161 0
 904 0006 0026     		movs	r6, #0
 905              		.loc 1 157 0
 906 0008 0024     		movs	r4, #0
 907              	.LVL105:
 908              	.L79:
 909              		.loc 1 158 0
 910 000a A242     		cmp	r2, r4
 911              		.loc 1 159 0
 912 000c C4BF     		itt	gt
ARM GAS  /var/tmp//ccOTs1fc.s 			page 17


 913 000e 0568     		ldrgt	r5, [r0]	@ float
 914 0010 0D60     		strgt	r5, [r1]	@ float
 915              		.loc 1 157 0
 916 0012 04F10104 		add	r4, r4, #1
 917              	.LVL106:
 918              		.loc 1 161 0
 919 0016 D8BF     		it	le
 920 0018 0E60     		strle	r6, [r1]	@ float
 921              		.loc 1 157 0
 922 001a A342     		cmp	r3, r4
 923 001c 00F10400 		add	r0, r0, #4
 924 0020 01F10401 		add	r1, r1, #4
 925 0024 F1D1     		bne	.L79
 926              	.LBE29:
 927              		.loc 1 164 0
 928 0026 70BC     		pop	{r4, r5, r6}
 929              		.cfi_restore 6
 930              		.cfi_restore 5
 931              		.cfi_restore 4
 932              		.cfi_def_cfa_offset 0
 933              	.LVL107:
 934              	.L86:
 935 0028 7047     		bx	lr
 936              		.cfi_endproc
 937              	.LFE4:
 938              		.size	filter_zeroPad, .-filter_zeroPad
 939 002a 00BF     		.section	.text.filter_create_fir_lowpass,"ax",%progbits
 940              		.align	1
 941              		.p2align 4,,15
 942              		.global	filter_create_fir_lowpass
 943              		.syntax unified
 944              		.thumb
 945              		.thumb_func
 946              		.fpu fpv4-sp-d16
 947              		.type	filter_create_fir_lowpass, %function
 948              	filter_create_fir_lowpass:
 949              	.LFB5:
 950              		.loc 1 166 0
 951              		.cfi_startproc
 952              		@ args = 0, pretend = 0, frame = 0
 953              		@ frame_needed = 1, uses_anonymous_args = 0
 954              	.LVL108:
 955 0000 2DE9F843 		push	{r3, r4, r5, r6, r7, r8, r9, lr}
 956              		.cfi_def_cfa_offset 32
 957              		.cfi_offset 3, -32
 958              		.cfi_offset 4, -28
 959              		.cfi_offset 5, -24
 960              		.cfi_offset 6, -20
 961              		.cfi_offset 7, -16
 962              		.cfi_offset 8, -12
 963              		.cfi_offset 9, -8
 964              		.cfi_offset 14, -4
 965              		.loc 1 168 0
 966 0004 0423     		movs	r3, #4
 967 0006 8B40     		lsls	r3, r3, r1
 968 0008 0A33     		adds	r3, r3, #10
 969              		.loc 1 167 0
ARM GAS  /var/tmp//ccOTs1fc.s 			page 18


 970 000a 0126     		movs	r6, #1
 971              		.loc 1 168 0
 972 000c 23F00703 		bic	r3, r3, #7
 973              		.loc 1 167 0
 974 0010 8E40     		lsls	r6, r6, r1
 975              	.LVL109:
 976              		.loc 1 166 0
 977 0012 00AF     		add	r7, sp, #0
 978              		.cfi_def_cfa_register 7
 979              	.LBB30:
 980              		.loc 1 170 0
 981 0014 002E     		cmp	r6, #0
 982              	.LBE30:
 983              		.loc 1 168 0
 984 0016 ADEB030D 		sub	sp, sp, r3
 985              		.loc 1 166 0
 986 001a 8046     		mov	r8, r0
 987 001c 9146     		mov	r9, r2
 988              		.loc 1 168 0
 989 001e 6B46     		mov	r3, sp
 990              	.LVL110:
 991              	.LBB31:
 992              		.loc 1 170 0
 993 0020 1DDD     		ble	.L94
 994 0022 07EE906A 		vmov	s15, r6	@ int
 995 0026 F8EEE77A 		vcvt.f32.s32	s15, s15
 996              		.loc 1 174 0
 997 002a 4FF0000E 		mov	lr, #0
 998 002e 27EE800A 		vmul.f32	s0, s15, s0
 999              	.LVL111:
 1000 0032 6C46     		mov	r4, sp
 1001 0034 FDEEC07A 		vcvt.s32.f32	s15, s0
 1002              		.loc 1 170 0
 1003 0038 0022     		movs	r2, #0
 1004              	.LVL112:
 1005 003a 17EE905A 		vmov	r5, s15	@ int
 1006              		.loc 1 172 0
 1007 003e 4FF07E5C 		mov	ip, #1065353216
 1008              	.LVL113:
 1009              	.L93:
 1010              		.loc 1 171 0
 1011 0042 AA42     		cmp	r2, r5
 1012              		.loc 1 170 0
 1013 0044 02F10102 		add	r2, r2, #1
 1014              	.LVL114:
 1015              		.loc 1 172 0
 1016 0048 B4BF     		ite	lt
 1017 004a C0F800C0 		strlt	ip, [r0]	@ float
 1018              		.loc 1 174 0
 1019 004e C0F800E0 		strge	lr, [r0]	@ float
 1020              		.loc 1 170 0
 1021 0052 9642     		cmp	r6, r2
 1022              		.loc 1 176 0
 1023 0054 44F804EB 		str	lr, [r4], #4	@ float
 1024 0058 00F10400 		add	r0, r0, #4
 1025              		.loc 1 170 0
 1026 005c F1D1     		bne	.L93
ARM GAS  /var/tmp//ccOTs1fc.s 			page 19


 1027              	.LVL115:
 1028              	.L94:
 1029              	.LBE31:
 1030              	.LBB32:
 1031              		.loc 1 180 0
 1032 005e 06EBD67E 		add	lr, r6, r6, lsr #31
 1033 0062 4FEA6E0E 		asr	lr, lr, #1
 1034 0066 BEF1000F 		cmp	lr, #0
 1035 006a 23DD     		ble	.L111
 1036 006c 0422     		movs	r2, #4
 1037 006e 8A40     		lsls	r2, r2, r1
 1038 0070 08EB8E0E 		add	lr, r8, lr, lsl #2
 1039 0074 4244     		add	r2, r2, r8
 1040 0076 4546     		mov	r5, r8
 1041              		.loc 1 180 0 is_stmt 0 discriminator 3
 1042 0078 4446     		mov	r4, r8
 1043              	.LVL116:
 1044              	.L95:
 1045              		.loc 1 181 0 is_stmt 1 discriminator 3
 1046 007a 54F8040B 		ldr	r0, [r4], #4	@ float
 1047 007e 42F8040D 		str	r0, [r2, #-4]!	@ float
 1048              		.loc 1 180 0 discriminator 3
 1049 0082 7445     		cmp	r4, lr
 1050 0084 F9D1     		bne	.L95
 1051              	.LBE32:
 1052              		.loc 1 184 0
 1053 0086 4246     		mov	r2, r8
 1054 0088 0120     		movs	r0, #1
 1055 008a FFF7FEFF 		bl	filter_fft
 1056              	.LVL117:
 1057 008e 2346     		mov	r3, r4
 1058              	.LVL118:
 1059              	.L97:
 1060              	.LBB33:
 1061              	.LBB34:
 1062              	.LBB35:
 1063              		.loc 1 135 0
 1064 0090 1968     		ldr	r1, [r3]	@ float
 1065              		.loc 1 134 0
 1066 0092 2A68     		ldr	r2, [r5]	@ float
 1067              	.LVL119:
 1068              		.loc 1 137 0
 1069 0094 45F8041B 		str	r1, [r5], #4	@ float
 1070              	.LBE35:
 1071              		.loc 1 133 0
 1072 0098 AC42     		cmp	r4, r5
 1073              	.LBB36:
 1074              		.loc 1 138 0
 1075 009a 43F8042B 		str	r2, [r3], #4	@ float
 1076              	.LBE36:
 1077              		.loc 1 133 0
 1078 009e F7D1     		bne	.L97
 1079              	.LVL120:
 1080              	.L99:
 1081              	.LBE34:
 1082              	.LBE33:
 1083              		.loc 1 187 0
ARM GAS  /var/tmp//ccOTs1fc.s 			page 20


 1084 00a0 B9F1000F 		cmp	r9, #0
 1085 00a4 03D0     		beq	.L87
 1086              		.loc 1 188 0
 1087 00a6 3146     		mov	r1, r6
 1088 00a8 4046     		mov	r0, r8
 1089 00aa FFF7FEFF 		bl	filter_hamming
 1090              	.LVL121:
 1091              	.L87:
 1092              		.loc 1 190 0
 1093 00ae BD46     		mov	sp, r7
 1094              		.cfi_remember_state
 1095              		.cfi_def_cfa_register 13
 1096              	.LVL122:
 1097              		@ sp needed
 1098 00b0 BDE8F883 		pop	{r3, r4, r5, r6, r7, r8, r9, pc}
 1099              	.LVL123:
 1100              	.L111:
 1101              		.cfi_restore_state
 1102              		.loc 1 184 0
 1103 00b4 4246     		mov	r2, r8
 1104 00b6 0120     		movs	r0, #1
 1105 00b8 FFF7FEFF 		bl	filter_fft
 1106              	.LVL124:
 1107 00bc F0E7     		b	.L99
 1108              		.cfi_endproc
 1109              	.LFE5:
 1110              		.size	filter_create_fir_lowpass, .-filter_create_fir_lowpass
 1111 00be 00BF     		.section	.text.filter_run_fir_iteration,"ax",%progbits
 1112              		.align	1
 1113              		.p2align 4,,15
 1114              		.global	filter_run_fir_iteration
 1115              		.syntax unified
 1116              		.thumb
 1117              		.thumb_func
 1118              		.fpu fpv4-sp-d16
 1119              		.type	filter_run_fir_iteration, %function
 1120              	filter_run_fir_iteration:
 1121              	.LFB6:
 1122              		.loc 1 203 0
 1123              		.cfi_startproc
 1124              		@ args = 0, pretend = 0, frame = 0
 1125              		@ frame_needed = 0, uses_anonymous_args = 0
 1126              		@ link register save eliminated.
 1127              	.LVL125:
 1128 0000 70B4     		push	{r4, r5, r6}
 1129              		.cfi_def_cfa_offset 12
 1130              		.cfi_offset 4, -12
 1131              		.cfi_offset 5, -8
 1132              		.cfi_offset 6, -4
 1133              		.loc 1 205 0
 1134 0002 0126     		movs	r6, #1
 1135 0004 9640     		lsls	r6, r6, r2
 1136              	.LVL126:
 1137              		.loc 1 206 0
 1138 0006 C2F12004 		rsb	r4, r2, #32
 1139 000a 4FF0FF35 		mov	r5, #-1
 1140              	.LBB37:
ARM GAS  /var/tmp//ccOTs1fc.s 			page 21


 1141              		.loc 1 208 0
 1142 000e 002E     		cmp	r6, #0
 1143              	.LBE37:
 1144              		.loc 1 206 0
 1145 0010 25FA04F5 		lsr	r5, r5, r4
 1146              	.LVL127:
 1147              	.LBB38:
 1148              		.loc 1 208 0
 1149 0014 13DD     		ble	.L115
 1150 0016 0424     		movs	r4, #4
 1151 0018 9440     		lsls	r4, r4, r2
 1152 001a 9FED0A0A 		vldr.32	s0, .L118
 1153 001e 0C44     		add	r4, r4, r1
 1154              	.LVL128:
 1155              	.L114:
 1156              		.loc 1 209 0 discriminator 3
 1157 0020 00EB8302 		add	r2, r0, r3, lsl #2
 1158 0024 B1EC017A 		vldmia.32	r1!, {s14}
 1159 0028 D2ED007A 		vldr.32	s15, [r2]
 1160              		.loc 1 210 0 discriminator 3
 1161 002c 0133     		adds	r3, r3, #1
 1162              	.LVL129:
 1163              		.loc 1 208 0 discriminator 3
 1164 002e 8C42     		cmp	r4, r1
 1165              		.loc 1 211 0 discriminator 3
 1166 0030 03EA0503 		and	r3, r3, r5
 1167              	.LVL130:
 1168              		.loc 1 209 0 discriminator 3
 1169 0034 A7EE270A 		vfma.f32	s0, s14, s15
 1170              	.LVL131:
 1171              		.loc 1 208 0 discriminator 3
 1172 0038 F2D1     		bne	.L114
 1173              	.LVL132:
 1174              	.L112:
 1175              	.LBE38:
 1176              		.loc 1 215 0
 1177 003a 70BC     		pop	{r4, r5, r6}
 1178              		.cfi_remember_state
 1179              		.cfi_restore 6
 1180              		.cfi_restore 5
 1181              		.cfi_restore 4
 1182              		.cfi_def_cfa_offset 0
 1183              	.LVL133:
 1184 003c 7047     		bx	lr
 1185              	.LVL134:
 1186              	.L115:
 1187              		.cfi_restore_state
 1188              		.loc 1 204 0
 1189 003e 9FED010A 		vldr.32	s0, .L118
 1190              		.loc 1 214 0
 1191 0042 FAE7     		b	.L112
 1192              	.L119:
 1193              		.align	2
 1194              	.L118:
 1195 0044 00000000 		.word	0
 1196              		.cfi_endproc
 1197              	.LFE6:
ARM GAS  /var/tmp//ccOTs1fc.s 			page 22


 1198              		.size	filter_run_fir_iteration, .-filter_run_fir_iteration
 1199              		.section	.text.filter_add_sample,"ax",%progbits
 1200              		.align	1
 1201              		.p2align 4,,15
 1202              		.global	filter_add_sample
 1203              		.syntax unified
 1204              		.thumb
 1205              		.thumb_func
 1206              		.fpu fpv4-sp-d16
 1207              		.type	filter_add_sample, %function
 1208              	filter_add_sample:
 1209              	.LFB7:
 1210              		.loc 1 229 0
 1211              		.cfi_startproc
 1212              		@ args = 0, pretend = 0, frame = 0
 1213              		@ frame_needed = 0, uses_anonymous_args = 0
 1214              		@ link register save eliminated.
 1215              	.LVL135:
 1216 0000 10B4     		push	{r4}
 1217              		.cfi_def_cfa_offset 4
 1218              		.cfi_offset 4, -4
 1219              		.loc 1 231 0
 1220 0002 1468     		ldr	r4, [r2]
 1221              		.loc 1 230 0
 1222 0004 4FF0FF33 		mov	r3, #-1
 1223 0008 C1F12001 		rsb	r1, r1, #32
 1224              	.LVL136:
 1225 000c 23FA01F1 		lsr	r1, r3, r1
 1226              	.LVL137:
 1227              		.loc 1 232 0
 1228 0010 631C     		adds	r3, r4, #1
 1229              		.loc 1 231 0
 1230 0012 00EB8400 		add	r0, r0, r4, lsl #2
 1231              	.LVL138:
 1232              		.loc 1 233 0
 1233 0016 1940     		ands	r1, r1, r3
 1234              	.LVL139:
 1235              		.loc 1 231 0
 1236 0018 80ED000A 		vstr.32	s0, [r0]
 1237              		.loc 1 234 0
 1238 001c 5DF8044B 		ldr	r4, [sp], #4
 1239              		.cfi_restore 4
 1240              		.cfi_def_cfa_offset 0
 1241              		.loc 1 233 0
 1242 0020 1160     		str	r1, [r2]
 1243              		.loc 1 234 0
 1244 0022 7047     		bx	lr
 1245              		.cfi_endproc
 1246              	.LFE7:
 1247              		.size	filter_add_sample, .-filter_add_sample
 1248              		.text
 1249              	.Letext0:
 1250              		.file 2 "/usr/local/gcc_arm/gcc-arm-none-eabi-6-2017-q2-update/arm-none-eabi/include/machine/_defa
 1251              		.file 3 "/usr/local/gcc_arm/gcc-arm-none-eabi-6-2017-q2-update/arm-none-eabi/include/sys/_stdint.h
 1252              		.file 4 "/usr/local/gcc_arm/gcc-arm-none-eabi-6-2017-q2-update/arm-none-eabi/include/sys/lock.h"
 1253              		.file 5 "/usr/local/gcc_arm/gcc-arm-none-eabi-6-2017-q2-update/arm-none-eabi/include/sys/_types.h"
 1254              		.file 6 "/usr/local/gcc_arm/gcc-arm-none-eabi-6-2017-q2-update/lib/gcc/arm-none-eabi/6.3.1/include
ARM GAS  /var/tmp//ccOTs1fc.s 			page 23


 1255              		.file 7 "/usr/local/gcc_arm/gcc-arm-none-eabi-6-2017-q2-update/arm-none-eabi/include/sys/reent.h"
 1256              		.file 8 "/usr/local/gcc_arm/gcc-arm-none-eabi-6-2017-q2-update/arm-none-eabi/include/math.h"