ARM GAS  /var/tmp//ccyBjVdU.s 			page 1


   1              		.cpu cortex-m4
   2              		.eabi_attribute 27, 1
   3              		.eabi_attribute 28, 1
   4              		.eabi_attribute 20, 1
   5              		.eabi_attribute 21, 1
   6              		.eabi_attribute 23, 3
   7              		.eabi_attribute 24, 1
   8              		.eabi_attribute 25, 1
   9              		.eabi_attribute 26, 1
  10              		.eabi_attribute 30, 2
  11              		.eabi_attribute 34, 1
  12              		.eabi_attribute 18, 4
  13              		.file	"ebikeCustomApplication.c"
  14              		.text
  15              	.Ltext0:
  16              		.cfi_sections	.debug_frame
  17              		.global	__aeabi_f2d
  18              		.section	.text.example_thread,"ax",%progbits
  19              		.align	1
  20              		.p2align 4,,15
  21              		.syntax unified
  22              		.thumb
  23              		.thumb_func
  24              		.fpu fpv4-sp-d16
  25              		.type	example_thread, %function
  26              	example_thread:
  27              	.LFB257:
  28              		.file 1 "applications/ebikeCustomApplication.c"
  29              		.loc 1 109 0
  30              		.cfi_startproc
  31              		@ args = 0, pretend = 0, frame = 8
  32              		@ frame_needed = 0, uses_anonymous_args = 0
  33              	.LVL0:
  34 0000 2DE9F04F 		push	{r4, r5, r6, r7, r8, r9, r10, fp, lr}
  35              		.cfi_def_cfa_offset 36
  36              		.cfi_offset 4, -36
  37              		.cfi_offset 5, -32
  38              		.cfi_offset 6, -28
  39              		.cfi_offset 7, -24
  40              		.cfi_offset 8, -20
  41              		.cfi_offset 9, -16
  42              		.cfi_offset 10, -12
  43              		.cfi_offset 11, -8
  44              		.cfi_offset 14, -4
  45              	.LBB52:
  46              	.LBB53:
  47              		.file 2 "ChibiOS_3.0.2/os/rt/include/chregistry.h"
  48              		.loc 2 135 0
  49 0004 B04C     		ldr	r4, .L70
  50 0006 B14A     		ldr	r2, .L70+4
  51 0008 A369     		ldr	r3, [r4, #24]
  52 000a B14F     		ldr	r7, .L70+8
  53 000c DFF824B3 		ldr	fp, .L70+108
  54 0010 DFF824A3 		ldr	r10, .L70+112
  55 0014 DFF82493 		ldr	r9, .L70+116
  56 0018 DFF82483 		ldr	r8, .L70+120
  57              	.LBE53:
ARM GAS  /var/tmp//ccyBjVdU.s 			page 2


  58              	.LBE52:
  59              	.LBB55:
  60              		.loc 1 148 0
  61 001c AD4E     		ldr	r6, .L70+12
  62              	.LBE55:
  63              		.loc 1 109 0
  64 001e 2DED068B 		vpush.64	{d8, d9, d10}
  65              		.cfi_def_cfa_offset 60
  66              		.cfi_offset 80, -60
  67              		.cfi_offset 81, -56
  68              		.cfi_offset 82, -52
  69              		.cfi_offset 83, -48
  70              		.cfi_offset 84, -44
  71              		.cfi_offset 85, -40
  72              	.LBB114:
  73              	.LBB54:
  74              		.loc 2 135 0
  75 0022 9A61     		str	r2, [r3, #24]
  76              	.LVL1:
  77              	.LBE54:
  78              	.LBE114:
  79              		.loc 1 109 0
  80 0024 83B0     		sub	sp, sp, #12
  81              		.cfi_def_cfa_offset 72
  82              		.loc 1 116 0
  83 0026 FFF7FEFF 		bl	mc_interface_get_configuration
  84              	.LVL2:
  85              		.loc 1 129 0
  86 002a AB4A     		ldr	r2, .L70+16
  87              	.LBB115:
  88              		.loc 1 144 0
  89 002c 9FEDAB8A 		vldr.32	s16, .L70+20
  90              		.loc 1 165 0
  91 0030 9FEDAB9A 		vldr.32	s18, .L70+24
  92              		.loc 1 168 0
  93 0034 DFEDAB9A 		vldr.32	s19, .L70+28
  94              		.loc 1 154 0
  95 0038 DFEDAB8A 		vldr.32	s17, .L70+32
  96              	.LBE115:
  97              		.loc 1 116 0
  98 003c 0190     		str	r0, [sp, #4]
  99              	.LVL3:
 100              		.loc 1 129 0
 101 003e 0023     		movs	r3, #0
 102              		.loc 1 134 0
 103 0040 0125     		movs	r5, #1
 104              		.loc 1 129 0
 105 0042 1360     		str	r3, [r2]
 106              	.LVL4:
 107              		.loc 1 133 0
 108 0044 0095     		str	r5, [sp]
 109              	.LVL5:
 110              	.L33:
 111              	.LBB116:
 112              		.loc 1 143 0
 113 0046 A94B     		ldr	r3, .L70+36
 114 0048 9A8A     		ldrh	r2, [r3, #20]
ARM GAS  /var/tmp//ccyBjVdU.s 			page 3


 115              		.loc 1 148 0
 116 004a 3169     		ldr	r1, [r6, #16]
 117              		.loc 1 149 0
 118 004c 3369     		ldr	r3, [r6, #16]
 119              		.loc 1 143 0
 120 004e 92B2     		uxth	r2, r2
 121 0050 07EE902A 		vmov	s15, r2	@ int
 122 0054 F8EE677A 		vcvt.f32.u32	s15, s15
 123              	.LVL6:
 124              		.loc 1 152 0
 125 0058 0906     		lsls	r1, r1, #24
 126 005a 03F04003 		and	r3, r3, #64
 127              		.loc 1 144 0
 128 005e 87EE88AA 		vdiv.f32	s20, s15, s16
 129              	.LVL7:
 130              		.loc 1 152 0
 131 0062 009A     		ldr	r2, [sp]
 132 0064 00F19180 		bmi	.L66
 133              		.loc 1 162 0 discriminator 1
 134 0068 002A     		cmp	r2, #0
 135 006a 40F0BE80 		bne	.L67
 136              		.loc 1 164 0
 137 006e 0122     		movs	r2, #1
 138 0070 0092     		str	r2, [sp]
 139              	.LVL8:
 140              	.L3:
 141              		.loc 1 173 0
 142 0072 002B     		cmp	r3, #0
 143 0074 6DD0     		beq	.L5
 144              		.loc 1 173 0 is_stmt 0 discriminator 1
 145 0076 002D     		cmp	r5, #0
 146 0078 40F06481 		bne	.L68
 147              	.LVL9:
 148              	.L6:
 149              		.loc 1 218 0 is_stmt 1
 150 007c D8F80030 		ldr	r3, [r8]
 151 0080 B3B9     		cbnz	r3, .L37
 152              	.LBB56:
 153              	.LBB57:
 154              		.file 3 "ChibiOS_3.0.2/os/rt/include/chvt.h"
 155              		.loc 3 267 0
 156 0082 9B4A     		ldr	r2, .L70+40
 157              	.LBB58:
 158              	.LBB59:
 159              		.loc 3 231 0
 160 0084 A36A     		ldr	r3, [r4, #40]
 161              	.LBE59:
 162              	.LBE58:
 163              		.loc 3 267 0
 164 0086 1268     		ldr	r2, [r2]
 165              	.LBE57:
 166              	.LBE56:
 167              		.loc 1 222 0
 168 0088 4FF47A71 		mov	r1, #1000
 169              	.LBB61:
 170              	.LBB60:
 171              		.loc 3 267 0
ARM GAS  /var/tmp//ccyBjVdU.s 			page 4


 172 008c 9B1A     		subs	r3, r3, r2
 173              	.LBE60:
 174              	.LBE61:
 175              		.loc 1 222 0
 176 008e 42F20F72 		movw	r2, #9999
 177 0092 01FB0323 		mla	r3, r1, r3, r2
 178 0096 974A     		ldr	r2, .L70+44
 179 0098 A2FB0323 		umull	r2, r3, r2, r3
 180 009c 5B0B     		lsrs	r3, r3, #13
 181 009e 07EE903A 		vmov	s15, r3	@ int
 182 00a2 F8EEE77A 		vcvt.f32.s32	s15, s15
 183              		.loc 1 220 0
 184 00a6 0123     		movs	r3, #1
 185              		.loc 1 222 0
 186 00a8 CBED007A 		vstr.32	s15, [fp]
 187              		.loc 1 220 0
 188 00ac C8F80030 		str	r3, [r8]
 189              	.L37:
 190              		.loc 1 225 0
 191 00b0 DAF80030 		ldr	r3, [r10]
 192 00b4 2BB9     		cbnz	r3, .L15
 193              		.loc 1 227 0
 194 00b6 904A     		ldr	r2, .L70+48
 195              	.LBB62:
 196              	.LBB63:
 197              		.loc 3 231 0
 198 00b8 A36A     		ldr	r3, [r4, #40]
 199              	.LBE63:
 200              	.LBE62:
 201              		.loc 1 227 0
 202 00ba 1360     		str	r3, [r2]
 203              		.loc 1 228 0
 204 00bc 0123     		movs	r3, #1
 205 00be CAF80030 		str	r3, [r10]
 206              	.L15:
 207              		.loc 1 232 0
 208 00c2 8E4B     		ldr	r3, .L70+52
 209              	.LBB64:
 210              	.LBB65:
 211              		.loc 3 231 0
 212 00c4 A16A     		ldr	r1, [r4, #40]
 213              	.LBE65:
 214              	.LBE64:
 215              		.loc 1 231 0
 216 00c6 0025     		movs	r5, #0
 217              		.loc 1 232 0
 218 00c8 1D60     		str	r5, [r3]
 219              		.loc 1 234 0
 220 00ca 8D4B     		ldr	r3, .L70+56
 221              		.loc 1 231 0
 222 00cc C9F80050 		str	r5, [r9]
 223              		.loc 1 234 0
 224 00d0 1960     		str	r1, [r3]
 225 00d2 8C4B     		ldr	r3, .L70+60
 226 00d4 D3ED007A 		vldr.32	s15, [r3]
 227 00d8 8B4B     		ldr	r3, .L70+64
 228 00da 1B68     		ldr	r3, [r3]
ARM GAS  /var/tmp//ccyBjVdU.s 			page 5


 229              	.LVL10:
 230              	.L16:
 231              	.LBB66:
 232              		.loc 1 259 0
 233 00dc 9BED007A 		vldr.32	s14, [fp]
 234              		.loc 1 264 0
 235 00e0 8A48     		ldr	r0, .L70+68
 236              		.loc 1 259 0
 237 00e2 B4EEE77A 		vcmpe.f32	s14, s15
 238 00e6 F1EE10FA 		vmrs	APSR_nzcv, FPSCR
 239              		.loc 1 261 0
 240 00ea CCBF     		ite	gt
 241 00ec 0122     		movgt	r2, #1
 242              		.loc 1 264 0
 243 00ee 0022     		movle	r2, #0
 244              	.LBE66:
 245              		.loc 1 270 0
 246 00f0 8B42     		cmp	r3, r1
 247              		.loc 1 272 0
 248 00f2 94BF     		ite	ls
 249 00f4 CB1A     		subls	r3, r1, r3
 250              		.loc 1 274 0
 251 00f6 5B1A     		subhi	r3, r3, r1
 252 00f8 07EE903A 		vmov	s15, r3	@ int
 253              		.loc 1 279 0
 254 00fc 3B78     		ldrb	r3, [r7]	@ zero_extendqisi2
 255              	.LBB67:
 256              		.loc 1 264 0
 257 00fe 0270     		strb	r2, [r0]
 258              	.LBE67:
 259              		.loc 1 274 0
 260 0100 F8EE677A 		vcvt.f32.u32	s15, s15
 261              	.LVL11:
 262              		.loc 1 279 0
 263 0104 5BB1     		cbz	r3, .L24
 264              		.loc 1 279 0 is_stmt 0 discriminator 1
 265 0106 9FED827A 		vldr.32	s14, .L70+72
 266 010a F4EEC77A 		vcmpe.f32	s15, s14
 267 010e F1EE10FA 		vmrs	APSR_nzcv, FPSCR
 268 0112 40F39F80 		ble	.L61
 269              		.loc 1 282 0 is_stmt 1
 270 0116 7F49     		ldr	r1, .L70+76
 271              		.loc 1 281 0
 272 0118 0023     		movs	r3, #0
 273 011a 3B70     		strb	r3, [r7]
 274              		.loc 1 282 0
 275 011c 0B60     		str	r3, [r1]
 276              	.L24:
 277              		.loc 1 285 0
 278 011e 0AB9     		cbnz	r2, .L27
 279              	.L41:
 280              		.loc 1 287 0
 281 0120 0023     		movs	r3, #0
 282 0122 3B70     		strb	r3, [r7]
 283              	.L27:
 284              		.loc 1 318 0
 285 0124 FFF7FEFF 		bl	mc_interface_release_motor
ARM GAS  /var/tmp//ccyBjVdU.s 			page 6


 286              	.LVL12:
 287              		.loc 1 319 0
 288 0128 7B49     		ldr	r1, .L70+80
 289 012a 0022     		movs	r2, #0
 290 012c 0A60     		str	r2, [r1]
 291              		.loc 1 320 0
 292 012e 7B4A     		ldr	r2, .L70+84
 293 0130 0123     		movs	r3, #1
 294 0132 1370     		strb	r3, [r2]
 295              	.L32:
 296              		.loc 1 323 0
 297 0134 1AEE100A 		vmov	r0, s20
 298 0138 FFF7FEFF 		bl	__aeabi_f2d
 299              	.LVL13:
 300 013c 0246     		mov	r2, r0
 301 013e 0B46     		mov	r3, r1
 302 0140 7748     		ldr	r0, .L70+88
 303 0142 FFF7FEFF 		bl	commands_printf
 304              	.LVL14:
 305              		.loc 1 326 0
 306 0146 1420     		movs	r0, #20
 307 0148 FFF7FEFF 		bl	chThdSleep
 308              	.LVL15:
 309              		.loc 1 329 0
 310 014c FFF7FEFF 		bl	timeout_reset
 311              	.LVL16:
 312              	.LBE116:
 313              		.loc 1 139 0
 314 0150 79E7     		b	.L33
 315              	.LVL17:
 316              	.L5:
 317              	.LBB117:
 318              		.loc 1 238 0
 319 0152 D9F80030 		ldr	r3, [r9]
 320 0156 2BB9     		cbnz	r3, .L35
 321              		.loc 1 240 0
 322 0158 654A     		ldr	r2, .L70+40
 323              	.LBB68:
 324              	.LBB69:
 325              		.loc 3 231 0
 326 015a A36A     		ldr	r3, [r4, #40]
 327              	.LBE69:
 328              	.LBE68:
 329              		.loc 1 240 0
 330 015c 1360     		str	r3, [r2]
 331              		.loc 1 241 0
 332 015e 0123     		movs	r3, #1
 333 0160 C9F80030 		str	r3, [r9]
 334              	.L35:
 335              		.loc 1 244 0
 336 0164 654B     		ldr	r3, .L70+52
 337 0166 1B68     		ldr	r3, [r3]
 338 0168 002B     		cmp	r3, #0
 339 016a 5AD0     		beq	.L17
 340 016c 654B     		ldr	r3, .L70+60
 341 016e D3ED007A 		vldr.32	s15, [r3]
 342              	.L18:
ARM GAS  /var/tmp//ccyBjVdU.s 			page 7


 343 0172 6349     		ldr	r1, .L70+56
 344              	.LBB70:
 345              	.LBB71:
 346              		.loc 3 231 0
 347 0174 A36A     		ldr	r3, [r4, #40]
 348 0176 0968     		ldr	r1, [r1]
 349              	.LBE71:
 350              	.LBE70:
 351              		.loc 1 251 0
 352 0178 0022     		movs	r2, #0
 353 017a C8F80020 		str	r2, [r8]
 354              		.loc 1 252 0
 355 017e CAF80020 		str	r2, [r10]
 356              		.loc 1 254 0
 357 0182 614A     		ldr	r2, .L70+64
 358              		.loc 1 210 0
 359 0184 0125     		movs	r5, #1
 360              		.loc 1 254 0
 361 0186 1360     		str	r3, [r2]
 362 0188 A8E7     		b	.L16
 363              	.LVL18:
 364              	.L66:
 365              		.loc 1 152 0 discriminator 1
 366 018a 002A     		cmp	r2, #0
 367 018c 3FF471AF 		beq	.L3
 368              	.LVL19:
 369              	.LBB72:
 370              	.LBB73:
 371              		.loc 3 267 0
 372 0190 5149     		ldr	r1, .L70+16
 373              	.LBB74:
 374              	.LBB75:
 375              		.loc 3 231 0
 376 0192 D4F828E0 		ldr	lr, [r4, #40]
 377              	.LVL20:
 378              	.LBE75:
 379              	.LBE74:
 380              		.loc 3 267 0
 381 0196 0968     		ldr	r1, [r1]
 382              	.LBE73:
 383              	.LBE72:
 384              		.loc 1 160 0
 385 0198 4F4A     		ldr	r2, .L70+16
 386              	.LVL21:
 387              	.LBB77:
 388              	.LBB78:
 389              		.loc 3 231 0
 390 019a A06A     		ldr	r0, [r4, #40]
 391              	.LBE78:
 392              	.LBE77:
 393              		.loc 1 160 0
 394 019c 1060     		str	r0, [r2]
 395              	.LVL22:
 396              	.LBB79:
 397              	.LBB76:
 398              		.loc 3 267 0
 399 019e AEEB0102 		sub	r2, lr, r1
ARM GAS  /var/tmp//ccyBjVdU.s 			page 8


 400              	.LBE76:
 401              	.LBE79:
 402              		.loc 1 154 0
 403 01a2 4FF47A70 		mov	r0, #1000
 404 01a6 42F20F71 		movw	r1, #9999
 405              	.LVL23:
 406 01aa 00FB0212 		mla	r2, r0, r2, r1
 407 01ae 5149     		ldr	r1, .L70+44
 408              		.loc 1 157 0
 409 01b0 DFED5C6A 		vldr.32	s13, .L70+92
 410              		.loc 1 154 0
 411 01b4 A1FB0212 		umull	r1, r2, r1, r2
 412 01b8 520B     		lsrs	r2, r2, #13
 413 01ba 07EE902A 		vmov	s15, r2	@ int
 414 01be F8EEE77A 		vcvt.f32.s32	s15, s15
 415 01c2 F7EE005A 		vmov.f32	s11, #1.0e+0
 416 01c6 87EEA86A 		vdiv.f32	s12, s15, s17
 417              		.loc 1 159 0
 418 01ca 0022     		movs	r2, #0
 419 01cc 0092     		str	r2, [sp]
 420              	.LVL24:
 421              		.loc 1 157 0
 422 01ce 564A     		ldr	r2, .L70+96
 423              		.loc 1 154 0
 424 01d0 DFED567A 		vldr.32	s15, .L70+100
 425 01d4 85EE867A 		vdiv.f32	s14, s11, s12
 426 01d8 27EE277A 		vmul.f32	s14, s14, s15
 427              		.loc 1 157 0
 428 01dc 27EE267A 		vmul.f32	s14, s14, s13
 429 01e0 67EE277A 		vmul.f32	s15, s14, s15
 430 01e4 C2ED007A 		vstr.32	s15, [r2]
 431              	.LVL25:
 432              		.loc 1 160 0
 433 01e8 43E7     		b	.L3
 434              	.LVL26:
 435              	.L67:
 436              	.LBB80:
 437              	.LBB81:
 438              		.loc 3 267 0 discriminator 1
 439 01ea 3B49     		ldr	r1, .L70+16
 440              	.LBB82:
 441              	.LBB83:
 442              		.loc 3 231 0 discriminator 1
 443 01ec A26A     		ldr	r2, [r4, #40]
 444              	.LVL27:
 445              	.LBE83:
 446              	.LBE82:
 447              		.loc 3 267 0 discriminator 1
 448 01ee 0968     		ldr	r1, [r1]
 449              	.LBE81:
 450              	.LBE80:
 451              		.loc 1 165 0 discriminator 1
 452 01f0 4FF47A70 		mov	r0, #1000
 453              	.LBB85:
 454              	.LBB84:
 455              		.loc 3 267 0 discriminator 1
 456 01f4 521A     		subs	r2, r2, r1
ARM GAS  /var/tmp//ccyBjVdU.s 			page 9


 457              	.LBE84:
 458              	.LBE85:
 459              		.loc 1 165 0 discriminator 1
 460 01f6 42F20F71 		movw	r1, #9999
 461 01fa 00FB0212 		mla	r2, r0, r2, r1
 462 01fe 3D49     		ldr	r1, .L70+44
 463 0200 A1FB0212 		umull	r1, r2, r1, r2
 464 0204 520B     		lsrs	r2, r2, #13
 465 0206 07EE902A 		vmov	s15, r2	@ int
 466 020a F8EEE77A 		vcvt.f32.s32	s15, s15
 467 020e F4EEC97A 		vcmpe.f32	s15, s18
 468 0212 F1EE10FA 		vmrs	APSR_nzcv, FPSCR
 469 0216 7FF72CAF 		ble	.L3
 470              	.LVL28:
 471              		.loc 1 168 0
 472 021a 434A     		ldr	r2, .L70+96
 473 021c C2ED009A 		vstr.32	s19, [r2]
 474 0220 27E7     		b	.L3
 475              	.LVL29:
 476              	.L17:
 477              	.LBB86:
 478              	.LBB87:
 479              		.loc 3 267 0
 480 0222 354A     		ldr	r2, .L70+48
 481              	.LBB88:
 482              	.LBB89:
 483              		.loc 3 231 0
 484 0224 A36A     		ldr	r3, [r4, #40]
 485              	.LBE89:
 486              	.LBE88:
 487              		.loc 3 267 0
 488 0226 1268     		ldr	r2, [r2]
 489              	.LBE87:
 490              	.LBE86:
 491              		.loc 1 248 0
 492 0228 4FF47A71 		mov	r1, #1000
 493              	.LBB91:
 494              	.LBB90:
 495              		.loc 3 267 0
 496 022c 9B1A     		subs	r3, r3, r2
 497              	.LBE90:
 498              	.LBE91:
 499              		.loc 1 248 0
 500 022e 42F20F72 		movw	r2, #9999
 501 0232 01FB0323 		mla	r3, r1, r3, r2
 502 0236 2F4A     		ldr	r2, .L70+44
 503 0238 A2FB0323 		umull	r2, r3, r2, r3
 504 023c 5B0B     		lsrs	r3, r3, #13
 505 023e 07EE903A 		vmov	s15, r3	@ int
 506 0242 304A     		ldr	r2, .L70+60
 507 0244 F8EEE77A 		vcvt.f32.s32	s15, s15
 508              		.loc 1 246 0
 509 0248 0123     		movs	r3, #1
 510              		.loc 1 248 0
 511 024a C2ED007A 		vstr.32	s15, [r2]
 512              		.loc 1 246 0
 513 024e 2B4A     		ldr	r2, .L70+52
ARM GAS  /var/tmp//ccyBjVdU.s 			page 10


 514 0250 1360     		str	r3, [r2]
 515 0252 8EE7     		b	.L18
 516              	.LVL30:
 517              	.L61:
 518              		.loc 1 285 0
 519 0254 002A     		cmp	r2, #0
 520 0256 3FF463AF 		beq	.L41
 521              		.loc 1 293 0
 522 025a 304B     		ldr	r3, .L70+84
 523 025c 1B78     		ldrb	r3, [r3]	@ zero_extendqisi2
 524 025e 43B3     		cbz	r3, .L69
 525              		.loc 1 295 0
 526 0260 2D4B     		ldr	r3, .L70+80
 527 0262 1B68     		ldr	r3, [r3]
 528 0264 F3B1     		cbz	r3, .L28
 529 0266 324B     		ldr	r3, .L70+104
 530 0268 1A68     		ldr	r2, [r3]
 531              	.L29:
 532              	.LVL31:
 533              	.LBB92:
 534              	.LBB93:
 535              	.LBB94:
 536              	.LBB95:
 537              		.loc 3 231 0
 538 026a A36A     		ldr	r3, [r4, #40]
 539              	.LVL32:
 540              	.LBE95:
 541              	.LBE94:
 542              	.LBE93:
 543              	.LBE92:
 544              		.loc 1 300 0
 545 026c 4FF47A71 		mov	r1, #1000
 546              	.LBB97:
 547              	.LBB96:
 548              		.loc 3 267 0
 549 0270 9B1A     		subs	r3, r3, r2
 550              	.LBE96:
 551              	.LBE97:
 552              		.loc 1 300 0
 553 0272 42F20F72 		movw	r2, #9999
 554 0276 01FB0323 		mla	r3, r1, r3, r2
 555 027a 1E4A     		ldr	r2, .L70+44
 556 027c A2FB0323 		umull	r2, r3, r2, r3
 557 0280 5B0B     		lsrs	r3, r3, #13
 558 0282 07EE903A 		vmov	s15, r3	@ int
 559              	.LVL33:
 560 0286 F8EEE77A 		vcvt.f32.s32	s15, s15
 561 028a F4EEE87A 		vcmpe.f32	s15, s17
 562 028e F1EE10FA 		vmrs	APSR_nzcv, FPSCR
 563 0292 02DD     		ble	.L30
 564              		.loc 1 302 0
 565 0294 214A     		ldr	r2, .L70+84
 566 0296 0023     		movs	r3, #0
 567 0298 1370     		strb	r3, [r2]
 568              	.L30:
 569              	.LVL34:
 570              		.loc 1 306 0
ARM GAS  /var/tmp//ccyBjVdU.s 			page 11


 571 029a B1EE000A 		vmov.f32	s0, #4.0e+0
 572 029e FFF7FEFF 		bl	mc_interface_set_current
 573              	.LVL35:
 574 02a2 47E7     		b	.L32
 575              	.LVL36:
 576              	.L28:
 577              		.loc 1 296 0
 578 02a4 224B     		ldr	r3, .L70+104
 579              	.LBB98:
 580              	.LBB99:
 581              		.loc 3 231 0
 582 02a6 A26A     		ldr	r2, [r4, #40]
 583              	.LBE99:
 584              	.LBE98:
 585              		.loc 1 297 0
 586 02a8 1B49     		ldr	r1, .L70+80
 587              		.loc 1 296 0
 588 02aa 1A60     		str	r2, [r3]
 589              		.loc 1 297 0
 590 02ac 0123     		movs	r3, #1
 591 02ae 0B60     		str	r3, [r1]
 592 02b0 DBE7     		b	.L29
 593              	.L69:
 594              		.loc 1 311 0
 595 02b2 019B     		ldr	r3, [sp, #4]
 596 02b4 D3ED1D7A 		vldr.32	s15, [r3, #116]
 597              	.LVL37:
 598 02b8 B2EE040A 		vmov.f32	s0, #1.0e+1
 599              		.loc 1 312 0
 600 02bc AAEE270A 		vfma.f32	s0, s20, s15
 601              	.LVL38:
 602 02c0 FFF7FEFF 		bl	mc_interface_set_current
 603              	.LVL39:
 604 02c4 36E7     		b	.L32
 605              	.L71:
 606 02c6 00BF     		.align	2
 607              	.L70:
 608 02c8 00000000 		.word	ch
 609 02cc 00000000 		.word	.LC0
 610 02d0 00000000 		.word	.LANCHOR4
 611 02d4 00040240 		.word	1073873920
 612 02d8 00000000 		.word	.LANCHOR0
 613 02dc 00F07F45 		.word	1166012416
 614 02e0 00803B45 		.word	1161527296
 615 02e4 00000000 		.word	0
 616 02e8 00007A44 		.word	1148846080
 617 02ec 00000000 		.word	ADC_Value
 618 02f0 00000000 		.word	.LANCHOR8
 619 02f4 5917B7D1 		.word	-776530087
 620 02f8 00000000 		.word	.LANCHOR10
 621 02fc 00000000 		.word	.LANCHOR12
 622 0300 00000000 		.word	.LANCHOR13
 623 0304 00000000 		.word	.LANCHOR14
 624 0308 00000000 		.word	.LANCHOR15
 625 030c 00000000 		.word	.LANCHOR5
 626 0310 0000FA45 		.word	1174011904
 627 0314 00000000 		.word	.LANCHOR2
ARM GAS  /var/tmp//ccyBjVdU.s 			page 12


 628 0318 00000000 		.word	.LANCHOR16
 629 031c 00000000 		.word	.LANCHOR18
 630 0320 0C000000 		.word	.LC1
 631 0324 585A123B 		.word	991058520
 632 0328 00000000 		.word	.LANCHOR1
 633 032c 00007042 		.word	1114636288
 634 0330 00000000 		.word	.LANCHOR17
 635 0334 00000000 		.word	.LANCHOR7
 636 0338 00000000 		.word	.LANCHOR9
 637 033c 00000000 		.word	.LANCHOR11
 638 0340 00000000 		.word	.LANCHOR6
 639              	.LVL40:
 640              	.L68:
 641              		.loc 1 175 0
 642 0344 2A4B     		ldr	r3, .L72
 643 0346 1A68     		ldr	r2, [r3]
 644 0348 32B9     		cbnz	r2, .L7
 645              		.loc 1 177 0
 646 034a 2A48     		ldr	r0, .L72+4
 647              		.loc 1 181 0
 648 034c 3B78     		ldrb	r3, [r7]	@ zero_extendqisi2
 649              	.LBB100:
 650              	.LBB101:
 651              		.loc 3 231 0
 652 034e A16A     		ldr	r1, [r4, #40]
 653              	.LBE101:
 654              	.LBE100:
 655              		.loc 1 177 0
 656 0350 0160     		str	r1, [r0]
 657              		.loc 1 181 0
 658 0352 8BB3     		cbz	r3, .L8
 659              	.L9:
 660              	.LVL41:
 661              	.LBB102:
 662              	.LBB103:
 663              		.loc 3 231 0
 664 0354 A36A     		ldr	r3, [r4, #40]
 665              	.LBE103:
 666              	.LBE102:
 667              		.loc 1 205 0
 668 0356 91E6     		b	.L6
 669              	.LVL42:
 670              	.L7:
 671              		.loc 1 181 0
 672 0358 3978     		ldrb	r1, [r7]	@ zero_extendqisi2
 673 035a 0029     		cmp	r1, #0
 674 035c FAD1     		bne	.L9
 675              		.loc 1 183 0
 676 035e 002A     		cmp	r2, #0
 677 0360 2ADD     		ble	.L8
 678              		.loc 1 183 0 is_stmt 0 discriminator 1
 679 0362 244B     		ldr	r3, .L72+4
 680 0364 9FED247A 		vldr.32	s14, .L72+8
 681 0368 D3F800C0 		ldr	ip, [r3]
 682              	.LVL43:
 683              	.LBB104:
 684              	.LBB105:
ARM GAS  /var/tmp//ccyBjVdU.s 			page 13


 685              	.LBB106:
 686              	.LBB107:
 687              		.loc 3 231 0 is_stmt 1 discriminator 1
 688 036c A36A     		ldr	r3, [r4, #40]
 689              	.LVL44:
 690              	.LBE107:
 691              	.LBE106:
 692              	.LBE105:
 693              	.LBE104:
 694              		.loc 1 183 0 discriminator 1
 695 036e 42F20F70 		movw	r0, #9999
 696              	.LBB109:
 697              	.LBB108:
 698              		.loc 3 267 0 discriminator 1
 699 0372 A3EB0C03 		sub	r3, r3, ip
 700              	.LBE108:
 701              	.LBE109:
 702              		.loc 1 183 0 discriminator 1
 703 0376 4FF47A7E 		mov	lr, #1000
 704 037a 0EFB0303 		mla	r3, lr, r3, r0
 705 037e 1F48     		ldr	r0, .L72+12
 706 0380 A0FB0303 		umull	r0, r3, r0, r3
 707 0384 5B0B     		lsrs	r3, r3, #13
 708 0386 07EE903A 		vmov	s15, r3	@ int
 709 038a F8EEE77A 		vcvt.f32.s32	s15, s15
 710 038e F4EEC77A 		vcmpe.f32	s15, s14
 711 0392 F1EE10FA 		vmrs	APSR_nzcv, FPSCR
 712 0396 13D5     		bpl	.L59
 713              		.loc 1 186 0
 714 0398 194B     		ldr	r3, .L72+16
 715 039a 1B78     		ldrb	r3, [r3]	@ zero_extendqisi2
 716 039c 002B     		cmp	r3, #0
 717 039e D9D0     		beq	.L9
 718              		.loc 1 186 0 is_stmt 0 discriminator 1
 719 03a0 184B     		ldr	r3, .L72+20
 720 03a2 93ED007A 		vldr.32	s14, [r3]
 721 03a6 F1EE087A 		vmov.f32	s15, #6.0e+0
 722 03aa B4EEE77A 		vcmpe.f32	s14, s15
 723 03ae F1EE10FA 		vmrs	APSR_nzcv, FPSCR
 724 03b2 CFDD     		ble	.L9
 725              		.loc 1 188 0 is_stmt 1
 726 03b4 3D70     		strb	r5, [r7]
 727 03b6 CDE7     		b	.L9
 728              	.L8:
 729              		.loc 1 200 0
 730 03b8 0D4B     		ldr	r3, .L72
 731 03ba 0132     		adds	r2, r2, #1
 732 03bc 1A60     		str	r2, [r3]
 733 03be C9E7     		b	.L9
 734              	.L59:
 735              	.LVL45:
 736              	.LBB110:
 737              	.LBB111:
 738              	.LBB112:
 739              	.LBB113:
 740              		.loc 3 231 0 discriminator 1
 741 03c0 A36A     		ldr	r3, [r4, #40]
ARM GAS  /var/tmp//ccyBjVdU.s 			page 14


 742              	.LVL46:
 743              	.LBE113:
 744              	.LBE112:
 745              		.loc 3 267 0 discriminator 1
 746 03c2 A3EB0C0C 		sub	ip, r3, ip
 747              	.LBE111:
 748              	.LBE110:
 749              		.loc 1 194 0 discriminator 1
 750 03c6 42F20F73 		movw	r3, #9999
 751 03ca 0EFB0C30 		mla	r0, lr, ip, r3
 752 03ce 0B4B     		ldr	r3, .L72+12
 753 03d0 A3FB0030 		umull	r3, r0, r3, r0
 754 03d4 400B     		lsrs	r0, r0, #13
 755 03d6 07EE900A 		vmov	s15, r0	@ int
 756 03da F8EEE77A 		vcvt.f32.s32	s15, s15
 757 03de F4EEC77A 		vcmpe.f32	s15, s14
 758 03e2 F1EE10FA 		vmrs	APSR_nzcv, FPSCR
 759 03e6 E7DD     		ble	.L8
 760              		.loc 1 196 0
 761 03e8 014B     		ldr	r3, .L72
 762 03ea 1960     		str	r1, [r3]
 763 03ec B2E7     		b	.L9
 764              	.L73:
 765 03ee 00BF     		.align	2
 766              	.L72:
 767 03f0 00000000 		.word	.LANCHOR2
 768 03f4 00000000 		.word	.LANCHOR3
 769 03f8 00606A46 		.word	1181376512
 770 03fc 5917B7D1 		.word	-776530087
 771 0400 00000000 		.word	.LANCHOR5
 772 0404 00000000 		.word	.LANCHOR1
 773              	.LBE117:
 774              		.cfi_endproc
 775              	.LFE257:
 776              		.size	example_thread, .-example_thread
 777              		.section	.text.settingMotorCurrent,"ax",%progbits
 778              		.align	1
 779              		.p2align 4,,15
 780              		.global	settingMotorCurrent
 781              		.syntax unified
 782              		.thumb
 783              		.thumb_func
 784              		.fpu fpv4-sp-d16
 785              		.type	settingMotorCurrent, %function
 786              	settingMotorCurrent:
 787              	.LFB256:
 788              		.loc 1 100 0
 789              		.cfi_startproc
 790              		@ args = 0, pretend = 0, frame = 0
 791              		@ frame_needed = 0, uses_anonymous_args = 0
 792 0000 00B5     		push	{lr}
 793              		.cfi_def_cfa_offset 4
 794              		.cfi_offset 14, -4
 795              		.loc 1 102 0
 796 0002 4022     		movs	r2, #64
 797              		.loc 1 100 0
 798 0004 83B0     		sub	sp, sp, #12
ARM GAS  /var/tmp//ccyBjVdU.s 			page 15


 799              		.cfi_def_cfa_offset 16
 800              		.loc 1 102 0
 801 0006 1146     		mov	r1, r2
 802 0008 0748     		ldr	r0, .L76
 803 000a FFF7FEFF 		bl	_pal_lld_setgroupmode
 804              	.LVL47:
 805              		.loc 1 105 0
 806 000e 0023     		movs	r3, #0
 807 0010 0093     		str	r3, [sp]
 808 0012 4022     		movs	r2, #64
 809 0014 054B     		ldr	r3, .L76+4
 810 0016 0648     		ldr	r0, .L76+8
 811 0018 40F69811 		movw	r1, #2456
 812 001c FFF7FEFF 		bl	chThdCreateStatic
 813              	.LVL48:
 814              		.loc 1 107 0
 815 0020 03B0     		add	sp, sp, #12
 816              		.cfi_def_cfa_offset 4
 817              		@ sp needed
 818 0022 5DF804FB 		ldr	pc, [sp], #4
 819              	.L77:
 820 0026 00BF     		.align	2
 821              	.L76:
 822 0028 00080240 		.word	1073874944
 823 002c 00000000 		.word	example_thread
 824 0030 00000000 		.word	.LANCHOR19
 825              		.cfi_endproc
 826              	.LFE256:
 827              		.size	settingMotorCurrent, .-settingMotorCurrent
 828              		.section	.bss.differenceHigh,"aw",%nobits
 829              		.align	2
 830              		.set	.LANCHOR14,. + 0
 831              		.type	differenceHigh, %object
 832              		.size	differenceHigh, 4
 833              	differenceHigh:
 834 0000 00000000 		.space	4
 835              		.section	.bss.differenceLow,"aw",%nobits
 836              		.align	2
 837              		.set	.LANCHOR7,. + 0
 838              		.type	differenceLow, %object
 839              		.size	differenceLow, 4
 840              	differenceLow:
 841 0000 00000000 		.space	4
 842              		.section	.bss.example_thread_wa,"aw",%nobits
 843              		.align	3
 844              		.set	.LANCHOR19,. + 0
 845              		.type	example_thread_wa, %object
 846              		.size	example_thread_wa, 2456
 847              	example_thread_wa:
 848 0000 00000000 		.space	2456
 848      00000000 
 848      00000000 
 848      00000000 
 848      00000000 
 849              		.section	.bss.firstPedalStroke,"aw",%nobits
 850              		.align	2
 851              		.set	.LANCHOR3,. + 0
ARM GAS  /var/tmp//ccyBjVdU.s 			page 16


 852              		.type	firstPedalStroke, %object
 853              		.size	firstPedalStroke, 4
 854              	firstPedalStroke:
 855 0000 00000000 		.space	4
 856              		.section	.bss.highStart,"aw",%nobits
 857              		.align	2
 858              		.set	.LANCHOR10,. + 0
 859              		.type	highStart, %object
 860              		.size	highStart, 4
 861              	highStart:
 862 0000 00000000 		.space	4
 863              		.section	.bss.highTriggerEnd,"aw",%nobits
 864              		.align	2
 865              		.set	.LANCHOR12,. + 0
 866              		.type	highTriggerEnd, %object
 867              		.size	highTriggerEnd, 4
 868              	highTriggerEnd:
 869 0000 00000000 		.space	4
 870              		.section	.bss.highTriggerStart,"aw",%nobits
 871              		.align	2
 872              		.set	.LANCHOR9,. + 0
 873              		.type	highTriggerStart, %object
 874              		.size	highTriggerStart, 4
 875              	highTriggerStart:
 876 0000 00000000 		.space	4
 877              		.section	.bss.isPedaling,"aw",%nobits
 878              		.set	.LANCHOR4,. + 0
 879              		.type	isPedaling, %object
 880              		.size	isPedaling, 1
 881              	isPedaling:
 882 0000 00       		.space	1
 883              		.section	.bss.lowStart,"aw",%nobits
 884              		.align	2
 885              		.set	.LANCHOR8,. + 0
 886              		.type	lowStart, %object
 887              		.size	lowStart, 4
 888              	lowStart:
 889 0000 00000000 		.space	4
 890              		.section	.bss.lowTriggerEnd,"aw",%nobits
 891              		.align	2
 892              		.set	.LANCHOR6,. + 0
 893              		.type	lowTriggerEnd, %object
 894              		.size	lowTriggerEnd, 4
 895              	lowTriggerEnd:
 896 0000 00000000 		.space	4
 897              		.section	.bss.lowTriggerStart,"aw",%nobits
 898              		.align	2
 899              		.set	.LANCHOR11,. + 0
 900              		.type	lowTriggerStart, %object
 901              		.size	lowTriggerStart, 4
 902              	lowTriggerStart:
 903 0000 00000000 		.space	4
 904              		.section	.bss.pedalCount,"aw",%nobits
 905              		.align	2
 906              		.set	.LANCHOR2,. + 0
 907              		.type	pedalCount, %object
 908              		.size	pedalCount, 4
ARM GAS  /var/tmp//ccyBjVdU.s 			page 17


 909              	pedalCount:
 910 0000 00000000 		.space	4
 911              		.section	.bss.pedalingForward,"aw",%nobits
 912              		.set	.LANCHOR5,. + 0
 913              		.type	pedalingForward, %object
 914              		.size	pedalingForward, 1
 915              	pedalingForward:
 916 0000 00       		.space	1
 917              		.section	.bss.startUpTrigger,"aw",%nobits
 918              		.align	2
 919              		.set	.LANCHOR16,. + 0
 920              		.type	startUpTrigger, %object
 921              		.size	startUpTrigger, 4
 922              	startUpTrigger:
 923 0000 00000000 		.space	4
 924              		.section	.bss.timeOffPedaling,"aw",%nobits
 925              		.align	2
 926              		.set	.LANCHOR15,. + 0
 927              		.type	timeOffPedaling, %object
 928              		.size	timeOffPedaling, 4
 929              	timeOffPedaling:
 930 0000 00000000 		.space	4
 931              		.section	.bss.timeOnPedaling,"aw",%nobits
 932              		.align	2
 933              		.set	.LANCHOR13,. + 0
 934              		.type	timeOnPedaling, %object
 935              		.size	timeOnPedaling, 4
 936              	timeOnPedaling:
 937 0000 00000000 		.space	4
 938              		.section	.bss.timeStartPedaling,"aw",%nobits
 939              		.align	2
 940              		.set	.LANCHOR17,. + 0
 941              		.type	timeStartPedaling, %object
 942              		.size	timeStartPedaling, 4
 943              	timeStartPedaling:
 944 0000 00000000 		.space	4
 945              		.section	.bss.timerSpeedSensor,"aw",%nobits
 946              		.align	2
 947              		.set	.LANCHOR0,. + 0
 948              		.type	timerSpeedSensor, %object
 949              		.size	timerSpeedSensor, 4
 950              	timerSpeedSensor:
 951 0000 00000000 		.space	4
 952              		.section	.bss.vehicleVelocity,"aw",%nobits
 953              		.align	2
 954              		.set	.LANCHOR1,. + 0
 955              		.type	vehicleVelocity, %object
 956              		.size	vehicleVelocity, 4
 957              	vehicleVelocity:
 958 0000 00000000 		.space	4
 959              		.section	.data.startUpRoutine,"aw",%progbits
 960              		.set	.LANCHOR18,. + 0
 961              		.type	startUpRoutine, %object
 962              		.size	startUpRoutine, 1
 963              	startUpRoutine:
 964 0000 01       		.byte	1
 965              		.section	.rodata.example_thread.str1.4,"aMS",%progbits,1
ARM GAS  /var/tmp//ccyBjVdU.s 			page 18


 966              		.align	2
 967              	.LC0:
 968 0000 4150505F 		.ascii	"APP_EXAMPLE\000"
 968      4558414D 
 968      504C4500 
 969              	.LC1:
 970 000c 69735065 		.ascii	"isPedaling: %f \012\000"
 970      64616C69 
 970      6E673A20 
 970      2566200A 
 970      00
 971              		.text
 972              	.Letext0:
 973              		.file 4 "/usr/local/gcc_arm/gcc-arm-none-eabi-6-2017-q2-update/lib/gcc/arm-none-eabi/6.3.1/include
 974              		.file 5 "/usr/local/gcc_arm/gcc-arm-none-eabi-6-2017-q2-update/arm-none-eabi/include/machine/_defa
 975              		.file 6 "/usr/local/gcc_arm/gcc-arm-none-eabi-6-2017-q2-update/arm-none-eabi/include/sys/_stdint.h
 976              		.file 7 "ChibiOS_3.0.2/os/rt/ports/ARMCMx/compilers/GCC/chtypes.h"
 977              		.file 8 "ChibiOS_3.0.2/os/rt/include/chsystypes.h"
 978              		.file 9 "ChibiOS_3.0.2/os/rt/include/chschd.h"
 979              		.file 10 "ChibiOS_3.0.2/os/ext/CMSIS/include/core_cm4.h"
 980              		.file 11 "ChibiOS_3.0.2/os/ext/CMSIS/ST/system_stm32f4xx.h"
 981              		.file 12 "ChibiOS_3.0.2/os/ext/CMSIS/ST/stm32f407xx.h"
 982              		.file 13 "ChibiOS_3.0.2/os/rt/ports/ARMCMx/chcore.h"
 983              		.file 14 "ChibiOS_3.0.2/os/rt/ports/ARMCMx/chcore_v7m.h"
 984              		.file 15 "ChibiOS_3.0.2/os/rt/include/chtm.h"
 985              		.file 16 "ChibiOS_3.0.2/os/rt/include/chsem.h"
 986              		.file 17 "ChibiOS_3.0.2/os/rt/include/chmtx.h"
 987              		.file 18 "ChibiOS_3.0.2/os/rt/include/chevents.h"
 988              		.file 19 "ChibiOS_3.0.2/os/rt/include/chqueues.h"
 989              		.file 20 "./datatypes.h"
 990              		.file 21 "./conf_general.h"
 991              		.file 22 "ChibiOS_3.0.2/os/hal/ports/STM32/STM32F4xx/stm32_dma.h"
 992              		.file 23 "ChibiOS_3.0.2/os/hal/ports/STM32/LLD/GPIOv2/pal_lld.h"
 993              		.file 24 "ChibiOS_3.0.2/os/hal/include/can.h"
 994              		.file 25 "ChibiOS_3.0.2/os/hal/ports/STM32/LLD/can_lld.h"
 995              		.file 26 "ChibiOS_3.0.2/os/hal/include/i2c.h"
 996              		.file 27 "ChibiOS_3.0.2/os/hal/ports/STM32/LLD/I2Cv1/i2c_lld.h"
 997              		.file 28 "ChibiOS_3.0.2/os/hal/include/icu.h"
 998              		.file 29 "ChibiOS_3.0.2/os/hal/ports/STM32/LLD/TIMv1/icu_lld.h"
 999              		.file 30 "ChibiOS_3.0.2/os/hal/ports/STM32/LLD/TIMv1/stm32_tim.h"
 1000              		.file 31 "ChibiOS_3.0.2/os/hal/include/spi.h"
 1001              		.file 32 "ChibiOS_3.0.2/os/hal/ports/STM32/LLD/SPIv1/spi_lld.h"
 1002              		.file 33 "ChibiOS_3.0.2/os/hal/include/uart.h"
 1003              		.file 34 "ChibiOS_3.0.2/os/hal/ports/STM32/LLD/USARTv1/uart_lld.h"
 1004              		.file 35 "ChibiOS_3.0.2/os/hal/include/usb.h"
 1005              		.file 36 "ChibiOS_3.0.2/os/hal/ports/STM32/LLD/OTGv1/usb_lld.h"
 1006              		.file 37 "ChibiOS_3.0.2/os/hal/ports/STM32/LLD/OTGv1/stm32_otg.h"
 1007              		.file 38 "./mc_interface.h"
 1008              		.file 39 "./commands.h"
 1009              		.file 40 "ChibiOS_3.0.2/os/rt/include/chthreads.h"
 1010              		.file 41 "./timeout.h"
 1011              		.file 42 "<built-in>"