ARM GAS  /var/tmp//cclgCVgN.s 			page 1


   1              		.cpu cortex-m4
   2              		.eabi_attribute 27, 1
   3              		.eabi_attribute 28, 1
   4              		.eabi_attribute 20, 1
   5              		.eabi_attribute 21, 1
   6              		.eabi_attribute 23, 3
   7              		.eabi_attribute 24, 1
   8              		.eabi_attribute 25, 1
   9              		.eabi_attribute 26, 1
  10              		.eabi_attribute 30, 2
  11              		.eabi_attribute 34, 1
  12              		.eabi_attribute 18, 4
  13              		.file	"eeprom.c"
  14              		.text
  15              	.Ltext0:
  16              		.cfi_sections	.debug_frame
  17              		.section	.text.EE_VerifyPageFullWriteVariable,"ax",%progbits
  18              		.align	1
  19              		.p2align 4,,15
  20              		.syntax unified
  21              		.thumb
  22              		.thumb_func
  23              		.fpu fpv4-sp-d16
  24              		.type	EE_VerifyPageFullWriteVariable, %function
  25              	EE_VerifyPageFullWriteVariable:
  26              	.LFB224:
  27              		.file 1 "eeprom.c"
  28              		.loc 1 465 0
  29              		.cfi_startproc
  30              		@ args = 0, pretend = 0, frame = 0
  31              		@ frame_needed = 0, uses_anonymous_args = 0
  32              	.LVL0:
  33 0000 38B5     		push	{r3, r4, r5, lr}
  34              		.cfi_def_cfa_offset 16
  35              		.cfi_offset 3, -16
  36              		.cfi_offset 4, -12
  37              		.cfi_offset 5, -8
  38              		.cfi_offset 14, -4
  39              	.LBB9:
  40              	.LBB10:
  41              		.loc 1 397 0
  42 0002 1B4A     		ldr	r2, .L22
  43              		.loc 1 400 0
  44 0004 1B4B     		ldr	r3, .L22+4
  45              		.loc 1 397 0
  46 0006 1288     		ldrh	r2, [r2]
  47              		.loc 1 400 0
  48 0008 1B88     		ldrh	r3, [r3]
  49 000a 9CB2     		uxth	r4, r3
  50              		.loc 1 397 0
  51 000c 92B2     		uxth	r2, r2
  52              	.LVL1:
  53              		.loc 1 406 0
  54 000e ECB9     		cbnz	r4, .L2
  55              		.loc 1 409 0
  56 0010 4EF6EE63 		movw	r3, #61166
  57              		.loc 1 423 0
ARM GAS  /var/tmp//cclgCVgN.s 			page 2


  58 0014 D31A     		subs	r3, r2, r3
  59 0016 18BF     		it	ne
  60 0018 0123     		movne	r3, #1
  61              	.L3:
  62              	.LVL2:
  63              	.LBE10:
  64              	.LBE9:
  65              		.loc 1 480 0
  66 001a 03F50054 		add	r4, r3, #8192
  67              		.loc 1 483 0
  68 001e 164A     		ldr	r2, .L22+8
  69              		.loc 1 480 0
  70 0020 0134     		adds	r4, r4, #1
  71              		.loc 1 483 0
  72 0022 0133     		adds	r3, r3, #1
  73              		.loc 1 480 0
  74 0024 A403     		lsls	r4, r4, #14
  75              	.LVL3:
  76              		.loc 1 483 0
  77 0026 02EB8332 		add	r2, r2, r3, lsl #14
  78              	.LVL4:
  79              		.loc 1 486 0
  80 002a 9442     		cmp	r4, r2
  81 002c 03D3     		bcc	.L7
  82 002e 17E0     		b	.L11
  83              	.L5:
  84              		.loc 1 506 0
  85 0030 0434     		adds	r4, r4, #4
  86              	.LVL5:
  87              		.loc 1 486 0
  88 0032 A242     		cmp	r2, r4
  89 0034 14D9     		bls	.L11
  90              	.L7:
  91              		.loc 1 489 0
  92 0036 2368     		ldr	r3, [r4]
  93 0038 0133     		adds	r3, r3, #1
  94 003a F9D1     		bne	.L5
  95 003c 0546     		mov	r5, r0
  96              		.loc 1 492 0
  97 003e 2046     		mov	r0, r4
  98              	.LVL6:
  99 0040 FFF7FEFF 		bl	FLASH_ProgramHalfWord
 100              	.LVL7:
 101              		.loc 1 494 0
 102 0044 0928     		cmp	r0, #9
 103 0046 0DD0     		beq	.L21
 104              	.LVL8:
 105              	.L19:
 106              		.loc 1 501 0
 107 0048 80B2     		uxth	r0, r0
 108              	.LVL9:
 109 004a 38BD     		pop	{r3, r4, r5, pc}
 110              	.LVL10:
 111              	.L2:
 112              	.LBB12:
 113              	.LBB11:
 114              		.loc 1 418 0
ARM GAS  /var/tmp//cclgCVgN.s 			page 3


 115 004c 32B9     		cbnz	r2, .L10
 116              		.loc 1 421 0
 117 004e 4EF6EE63 		movw	r3, #61166
 118              		.loc 1 423 0
 119 0052 E31A     		subs	r3, r4, r3
 120 0054 B3FA83F3 		clz	r3, r3
 121 0058 5B09     		lsrs	r3, r3, #5
 122 005a DEE7     		b	.L3
 123              	.L10:
 124              	.LBE11:
 125              	.LBE12:
 126              		.loc 1 476 0
 127 005c AB20     		movs	r0, #171
 128              	.LVL11:
 129 005e 38BD     		pop	{r3, r4, r5, pc}
 130              	.LVL12:
 131              	.L11:
 132              		.loc 1 511 0
 133 0060 8020     		movs	r0, #128
 134              	.LVL13:
 135 0062 38BD     		pop	{r3, r4, r5, pc}
 136              	.LVL14:
 137              	.L21:
 138              		.loc 1 499 0
 139 0064 2946     		mov	r1, r5
 140 0066 A01C     		adds	r0, r4, #2
 141              	.LVL15:
 142 0068 FFF7FEFF 		bl	FLASH_ProgramHalfWord
 143              	.LVL16:
 144 006c ECE7     		b	.L19
 145              	.L23:
 146 006e 00BF     		.align	2
 147              	.L22:
 148 0070 00400008 		.word	134234112
 149 0074 00800008 		.word	134250496
 150 0078 FE3F0008 		.word	134234110
 151              		.cfi_endproc
 152              	.LFE224:
 153              		.size	EE_VerifyPageFullWriteVariable, .-EE_VerifyPageFullWriteVariable
 154              		.section	.text.EE_EraseSectorIfNotEmpty.constprop.1,"ax",%progbits
 155              		.align	1
 156              		.p2align 4,,15
 157              		.syntax unified
 158              		.thumb
 159              		.thumb_func
 160              		.fpu fpv4-sp-d16
 161              		.type	EE_EraseSectorIfNotEmpty.constprop.1, %function
 162              	EE_EraseSectorIfNotEmpty.constprop.1:
 163              	.LFB228:
 164              		.loc 1 618 0
 165              		.cfi_startproc
 166              		@ args = 0, pretend = 0, frame = 0
 167              		@ frame_needed = 0, uses_anonymous_args = 0
 168              	.LVL17:
 169 0000 10B5     		push	{r4, lr}
 170              		.cfi_def_cfa_offset 8
 171              		.cfi_offset 4, -8
ARM GAS  /var/tmp//cclgCVgN.s 			page 4


 172              		.cfi_offset 14, -4
 173              		.loc 1 618 0
 174 0002 0446     		mov	r4, r0
 175              		.loc 1 619 0
 176 0004 FFF7FEFF 		bl	flash_helper_get_sector_address
 177              	.LVL18:
 178 0008 00F57F52 		add	r2, r0, #16320
 179 000c 3F32     		adds	r2, r2, #63
 180 000e 0138     		subs	r0, r0, #1
 181              	.LVL19:
 182 0010 01E0     		b	.L27
 183              	.LVL20:
 184              	.L25:
 185              	.LBB13:
 186              		.loc 1 621 0
 187 0012 9042     		cmp	r0, r2
 188 0014 09D0     		beq	.L30
 189              	.LVL21:
 190              	.L27:
 191              		.loc 1 622 0
 192 0016 10F8013F 		ldrb	r3, [r0, #1]!	@ zero_extendqisi2
 193              	.LVL22:
 194 001a FF2B     		cmp	r3, #255
 195 001c F9D0     		beq	.L25
 196              		.loc 1 623 0
 197 001e 2046     		mov	r0, r4
 198              	.LVL23:
 199 0020 0221     		movs	r1, #2
 200 0022 FFF7FEFF 		bl	FLASH_EraseSector
 201              	.LVL24:
 202 0026 80B2     		uxth	r0, r0
 203 0028 10BD     		pop	{r4, pc}
 204              	.LVL25:
 205              	.L30:
 206              	.LBE13:
 207              		.loc 1 627 0
 208 002a 0920     		movs	r0, #9
 209              	.LVL26:
 210              		.loc 1 628 0
 211 002c 10BD     		pop	{r4, pc}
 212              		.cfi_endproc
 213              	.LFE228:
 214              		.size	EE_EraseSectorIfNotEmpty.constprop.1, .-EE_EraseSectorIfNotEmpty.constprop.1
 215 002e 00BF     		.section	.text.EE_Format,"ax",%progbits
 216              		.align	1
 217              		.p2align 4,,15
 218              		.syntax unified
 219              		.thumb
 220              		.thumb_func
 221              		.fpu fpv4-sp-d16
 222              		.type	EE_Format, %function
 223              	EE_Format:
 224              	.LFB222:
 225              		.loc 1 355 0
 226              		.cfi_startproc
 227              		@ args = 0, pretend = 0, frame = 0
 228              		@ frame_needed = 0, uses_anonymous_args = 0
ARM GAS  /var/tmp//cclgCVgN.s 			page 5


 229              	.LVL27:
 230 0000 08B5     		push	{r3, lr}
 231              		.cfi_def_cfa_offset 8
 232              		.cfi_offset 3, -8
 233              		.cfi_offset 14, -4
 234              		.loc 1 359 0
 235 0002 0820     		movs	r0, #8
 236 0004 FFF7FEFF 		bl	EE_EraseSectorIfNotEmpty.constprop.1
 237              	.LVL28:
 238 0008 C0B2     		uxtb	r0, r0
 239              	.LVL29:
 240              		.loc 1 362 0
 241 000a 0928     		cmp	r0, #9
 242 000c 00D0     		beq	.L34
 243              	.LVL30:
 244              	.L32:
 245              		.loc 1 381 0
 246 000e 08BD     		pop	{r3, pc}
 247              	.LVL31:
 248              	.L34:
 249              		.loc 1 368 0
 250 0010 0021     		movs	r1, #0
 251 0012 0548     		ldr	r0, .L35
 252              	.LVL32:
 253 0014 FFF7FEFF 		bl	FLASH_ProgramHalfWord
 254              	.LVL33:
 255              		.loc 1 371 0
 256 0018 0928     		cmp	r0, #9
 257 001a F8D1     		bne	.L32
 258              	.LBB16:
 259              		.loc 1 377 0
 260 001c 1020     		movs	r0, #16
 261              	.LVL34:
 262 001e FFF7FEFF 		bl	EE_EraseSectorIfNotEmpty.constprop.1
 263              	.LVL35:
 264 0022 C0B2     		uxtb	r0, r0
 265 0024 F3E7     		b	.L32
 266              	.L36:
 267 0026 00BF     		.align	2
 268              	.L35:
 269 0028 00400008 		.word	134234112
 270              	.LBE16:
 271              		.cfi_endproc
 272              	.LFE222:
 273              		.size	EE_Format, .-EE_Format
 274              		.section	.text.EE_ReadVariable,"ax",%progbits
 275              		.align	1
 276              		.p2align 4,,15
 277              		.global	EE_ReadVariable
 278              		.syntax unified
 279              		.thumb
 280              		.thumb_func
 281              		.fpu fpv4-sp-d16
 282              		.type	EE_ReadVariable, %function
 283              	EE_ReadVariable:
 284              	.LFB220:
 285              		.loc 1 272 0
ARM GAS  /var/tmp//cclgCVgN.s 			page 6


 286              		.cfi_startproc
 287              		@ args = 0, pretend = 0, frame = 0
 288              		@ frame_needed = 0, uses_anonymous_args = 0
 289              		@ link register save eliminated.
 290              	.LVL36:
 291              	.LBB17:
 292              	.LBB18:
 293              		.loc 1 397 0
 294 0000 154B     		ldr	r3, .L50
 295              		.loc 1 400 0
 296 0002 164A     		ldr	r2, .L50+4
 297              		.loc 1 397 0
 298 0004 1B88     		ldrh	r3, [r3]
 299              		.loc 1 400 0
 300 0006 1288     		ldrh	r2, [r2]
 301              		.loc 1 397 0
 302 0008 9BB2     		uxth	r3, r3
 303              	.LVL37:
 304              	.LBE18:
 305              	.LBE17:
 306              		.loc 1 272 0
 307 000a 10B4     		push	{r4}
 308              		.cfi_def_cfa_offset 4
 309              		.cfi_offset 4, -4
 310              	.LBB20:
 311              	.LBB19:
 312              		.loc 1 436 0
 313 000c 2BB1     		cbz	r3, .L44
 314 000e 92B2     		uxth	r2, r2
 315              		.loc 1 440 0
 316 0010 B2B9     		cbnz	r2, .L49
 317 0012 134B     		ldr	r3, .L50+8
 318              	.LVL38:
 319 0014 134C     		ldr	r4, .L50+12
 320 0016 1A46     		mov	r2, r3
 321              	.LVL39:
 322 0018 02E0     		b	.L38
 323              	.LVL40:
 324              	.L44:
 325              		.loc 1 436 0
 326 001a 134B     		ldr	r3, .L50+16
 327              	.LVL41:
 328 001c 134C     		ldr	r4, .L50+20
 329 001e 1A46     		mov	r2, r3
 330              	.LVL42:
 331              	.L38:
 332              	.LBE19:
 333              	.LBE20:
 334              		.loc 1 296 0
 335 0020 1288     		ldrh	r2, [r2]
 336 0022 92B2     		uxth	r2, r2
 337              	.LVL43:
 338              		.loc 1 299 0
 339 0024 9042     		cmp	r0, r2
 340 0026 04D1     		bne	.L40
 341 0028 0EE0     		b	.L42
 342              	.LVL44:
ARM GAS  /var/tmp//cclgCVgN.s 			page 7


 343              	.L41:
 344              		.loc 1 296 0
 345 002a 1A88     		ldrh	r2, [r3]
 346 002c 92B2     		uxth	r2, r2
 347              	.LVL45:
 348              		.loc 1 299 0
 349 002e 8242     		cmp	r2, r0
 350 0030 0AD0     		beq	.L42
 351              	.LVL46:
 352              	.L40:
 353              		.loc 1 312 0
 354 0032 043B     		subs	r3, r3, #4
 355              	.LVL47:
 356              		.loc 1 293 0
 357 0034 9C42     		cmp	r4, r3
 358 0036 F8D3     		bcc	.L41
 359              		.loc 1 274 0
 360 0038 0120     		movs	r0, #1
 361              	.LVL48:
 362              		.loc 1 318 0
 363 003a 5DF8044B 		ldr	r4, [sp], #4
 364              		.cfi_remember_state
 365              		.cfi_restore 4
 366              		.cfi_def_cfa_offset 0
 367 003e 7047     		bx	lr
 368              	.LVL49:
 369              	.L49:
 370              		.cfi_restore_state
 371              		.loc 1 283 0
 372 0040 AB20     		movs	r0, #171
 373              	.LVL50:
 374              		.loc 1 318 0
 375 0042 5DF8044B 		ldr	r4, [sp], #4
 376              		.cfi_remember_state
 377              		.cfi_restore 4
 378              		.cfi_def_cfa_offset 0
 379 0046 7047     		bx	lr
 380              	.LVL51:
 381              	.L42:
 382              		.cfi_restore_state
 383              		.loc 1 302 0
 384 0048 33F8023C 		ldrh	r3, [r3, #-2]
 385 004c 0B80     		strh	r3, [r1]	@ movhi
 386              	.LVL52:
 387              		.loc 1 305 0
 388 004e 0020     		movs	r0, #0
 389              	.LVL53:
 390              		.loc 1 318 0
 391 0050 5DF8044B 		ldr	r4, [sp], #4
 392              		.cfi_restore 4
 393              		.cfi_def_cfa_offset 0
 394 0054 7047     		bx	lr
 395              	.L51:
 396 0056 00BF     		.align	2
 397              	.L50:
 398 0058 00400008 		.word	134234112
 399 005c 00800008 		.word	134250496
ARM GAS  /var/tmp//cclgCVgN.s 			page 8


 400 0060 FEBF0008 		.word	134266878
 401 0064 02800008 		.word	134250498
 402 0068 FE7F0008 		.word	134250494
 403 006c 02400008 		.word	134234114
 404              		.cfi_endproc
 405              	.LFE220:
 406              		.size	EE_ReadVariable, .-EE_ReadVariable
 407              		.section	.text.EE_Init,"ax",%progbits
 408              		.align	1
 409              		.p2align 4,,15
 410              		.global	EE_Init
 411              		.syntax unified
 412              		.thumb
 413              		.thumb_func
 414              		.fpu fpv4-sp-d16
 415              		.type	EE_Init, %function
 416              	EE_Init:
 417              	.LFB219:
 418              		.loc 1 57 0
 419              		.cfi_startproc
 420              		@ args = 0, pretend = 0, frame = 0
 421              		@ frame_needed = 0, uses_anonymous_args = 0
 422              	.LVL54:
 423 0000 2DE9F041 		push	{r4, r5, r6, r7, r8, lr}
 424              		.cfi_def_cfa_offset 24
 425              		.cfi_offset 4, -24
 426              		.cfi_offset 5, -20
 427              		.cfi_offset 6, -16
 428              		.cfi_offset 7, -12
 429              		.cfi_offset 8, -8
 430              		.cfi_offset 14, -4
 431              		.loc 1 65 0
 432 0004 4D4D     		ldr	r5, .L95
 433              		.loc 1 67 0
 434 0006 4E4E     		ldr	r6, .L95+4
 435              		.loc 1 65 0
 436 0008 2C88     		ldrh	r4, [r5]
 437              		.loc 1 67 0
 438 000a 3388     		ldrh	r3, [r6]
 439              		.loc 1 65 0
 440 000c A4B2     		uxth	r4, r4
 441              	.LVL55:
 442              		.loc 1 70 0
 443 000e 4EF6EE62 		movw	r2, #61166
 444 0012 9442     		cmp	r4, r2
 445              		.loc 1 67 0
 446 0014 9BB2     		uxth	r3, r3
 447              	.LVL56:
 448              		.loc 1 70 0
 449 0016 41D0     		beq	.L54
 450 0018 4FF6FF71 		movw	r1, #65535
 451 001c 8C42     		cmp	r4, r1
 452 001e 2DD0     		beq	.L55
 453 0020 24B1     		cbz	r4, .L92
 454              	.L83:
 455              		.loc 1 249 0
 456 0022 FFF7FEFF 		bl	EE_Format
ARM GAS  /var/tmp//cclgCVgN.s 			page 9


 457              	.LVL57:
 458 0026 80B2     		uxth	r0, r0
 459              	.LVL58:
 460              	.L59:
 461              		.loc 1 259 0
 462 0028 BDE8F081 		pop	{r4, r5, r6, r7, r8, pc}
 463              	.LVL59:
 464              	.L92:
 465              		.loc 1 184 0
 466 002c 002B     		cmp	r3, #0
 467 002e F8D0     		beq	.L83
 468              		.loc 1 194 0
 469 0030 8B42     		cmp	r3, r1
 470 0032 7DD0     		beq	.L88
 471 0034 434D     		ldr	r5, .L95+8
 472              		.loc 1 209 0
 473 0036 444E     		ldr	r6, .L95+12
 474              		.loc 1 216 0
 475 0038 444F     		ldr	r7, .L95+16
 476              		.loc 1 194 0
 477 003a 4FF0FF38 		mov	r8, #-1
 478 003e 04E0     		b	.L69
 479              	.LVL60:
 480              	.L71:
 481              		.loc 1 207 0
 482 0040 B4F58F7F 		cmp	r4, #286
 483 0044 05F10205 		add	r5, r5, #2
 484 0048 5ED0     		beq	.L93
 485              	.LVL61:
 486              	.L69:
 487              		.loc 1 209 0
 488 004a 3388     		ldrh	r3, [r6]
 489 004c 2A88     		ldrh	r2, [r5]
 490              		.loc 1 216 0
 491 004e 3F49     		ldr	r1, .L95+16
 492              		.loc 1 209 0
 493 0050 9BB2     		uxth	r3, r3
 494 0052 9342     		cmp	r3, r2
 495              		.loc 1 211 0
 496 0054 08BF     		it	eq
 497 0056 0FFA84F8 		sxtheq	r8, r4
 498              	.LVL62:
 499              		.loc 1 213 0
 500 005a 4445     		cmp	r4, r8
 501              		.loc 1 216 0
 502 005c 1046     		mov	r0, r2
 503 005e 04F10104 		add	r4, r4, #1
 504              	.LVL63:
 505              		.loc 1 213 0
 506 0062 EDD0     		beq	.L71
 507              		.loc 1 216 0
 508 0064 FFF7FEFF 		bl	EE_ReadVariable
 509              	.LVL64:
 510              		.loc 1 218 0
 511 0068 0128     		cmp	r0, #1
 512 006a E9D0     		beq	.L71
 513              		.loc 1 221 0
ARM GAS  /var/tmp//cclgCVgN.s 			page 10


 514 006c 3988     		ldrh	r1, [r7]
 515 006e 2888     		ldrh	r0, [r5]
 516              	.LVL65:
 517 0070 FFF7FEFF 		bl	EE_VerifyPageFullWriteVariable
 518              	.LVL66:
 519              		.loc 1 223 0
 520 0074 0928     		cmp	r0, #9
 521 0076 E3D0     		beq	.L71
 522 0078 BDE8F081 		pop	{r4, r5, r6, r7, r8, pc}
 523              	.LVL67:
 524              	.L55:
 525              		.loc 1 73 0
 526 007c 002B     		cmp	r3, #0
 527 007e 4AD0     		beq	.L87
 528              		.loc 1 83 0
 529 0080 9342     		cmp	r3, r2
 530 0082 CED1     		bne	.L83
 531              		.loc 1 86 0
 532 0084 0820     		movs	r0, #8
 533 0086 FFF7FEFF 		bl	EE_EraseSectorIfNotEmpty.constprop.1
 534              	.LVL68:
 535              		.loc 1 88 0
 536 008a 0928     		cmp	r0, #9
 537 008c CCD1     		bne	.L59
 538              		.loc 1 93 0
 539 008e 3046     		mov	r0, r6
 540              	.LVL69:
 541 0090 0021     		movs	r1, #0
 542 0092 FFF7FEFF 		bl	FLASH_ProgramHalfWord
 543              	.LVL70:
 544 0096 80B2     		uxth	r0, r0
 545              	.LVL71:
 546 0098 BDE8F081 		pop	{r4, r5, r6, r7, r8, pc}
 547              	.LVL72:
 548              	.L54:
 549              		.loc 1 113 0
 550 009c 23BB     		cbnz	r3, .L60
 551 009e 294D     		ldr	r5, .L95+8
 552              		.loc 1 118 0
 553 00a0 2B4E     		ldr	r6, .L95+20
 554              		.loc 1 125 0
 555 00a2 2A4F     		ldr	r7, .L95+16
 556              		.loc 1 113 0
 557 00a4 1C46     		mov	r4, r3
 558              	.LVL73:
 559 00a6 4FF0FF38 		mov	r8, #-1
 560 00aa 04E0     		b	.L63
 561              	.LVL74:
 562              	.L65:
 563              		.loc 1 116 0
 564 00ac B4F58F7F 		cmp	r4, #286
 565 00b0 05F10205 		add	r5, r5, #2
 566 00b4 34D0     		beq	.L94
 567              	.LVL75:
 568              	.L63:
 569              		.loc 1 118 0
 570 00b6 3388     		ldrh	r3, [r6]
ARM GAS  /var/tmp//cclgCVgN.s 			page 11


 571 00b8 2A88     		ldrh	r2, [r5]
 572              		.loc 1 125 0
 573 00ba 2449     		ldr	r1, .L95+16
 574              		.loc 1 118 0
 575 00bc 9BB2     		uxth	r3, r3
 576 00be 9342     		cmp	r3, r2
 577              		.loc 1 120 0
 578 00c0 08BF     		it	eq
 579 00c2 0FFA84F8 		sxtheq	r8, r4
 580              	.LVL76:
 581              		.loc 1 122 0
 582 00c6 4445     		cmp	r4, r8
 583              		.loc 1 125 0
 584 00c8 1046     		mov	r0, r2
 585 00ca 04F10104 		add	r4, r4, #1
 586              	.LVL77:
 587              		.loc 1 122 0
 588 00ce EDD0     		beq	.L65
 589              		.loc 1 125 0
 590 00d0 FFF7FEFF 		bl	EE_ReadVariable
 591              	.LVL78:
 592              		.loc 1 127 0
 593 00d4 0128     		cmp	r0, #1
 594 00d6 E9D0     		beq	.L65
 595              		.loc 1 130 0
 596 00d8 3988     		ldrh	r1, [r7]
 597 00da 2888     		ldrh	r0, [r5]
 598              	.LVL79:
 599 00dc FFF7FEFF 		bl	EE_VerifyPageFullWriteVariable
 600              	.LVL80:
 601              		.loc 1 132 0
 602 00e0 0928     		cmp	r0, #9
 603 00e2 E3D0     		beq	.L65
 604 00e4 BDE8F081 		pop	{r4, r5, r6, r7, r8, pc}
 605              	.LVL81:
 606              	.L60:
 607              		.loc 1 154 0
 608 00e8 4FF6FF72 		movw	r2, #65535
 609 00ec 9342     		cmp	r3, r2
 610 00ee 98D1     		bne	.L83
 611              		.loc 1 157 0
 612 00f0 1020     		movs	r0, #16
 613 00f2 FFF7FEFF 		bl	EE_EraseSectorIfNotEmpty.constprop.1
 614              	.LVL82:
 615              		.loc 1 159 0
 616 00f6 0928     		cmp	r0, #9
 617 00f8 96D1     		bne	.L59
 618              		.loc 1 164 0
 619 00fa 2846     		mov	r0, r5
 620              	.LVL83:
 621 00fc 0021     		movs	r1, #0
 622 00fe FFF7FEFF 		bl	FLASH_ProgramHalfWord
 623              	.LVL84:
 624 0102 80B2     		uxth	r0, r0
 625              	.LVL85:
 626 0104 BDE8F081 		pop	{r4, r5, r6, r7, r8, pc}
 627              	.LVL86:
ARM GAS  /var/tmp//cclgCVgN.s 			page 12


 628              	.L93:
 629              		.loc 1 231 0
 630 0108 0021     		movs	r1, #0
 631 010a 0D48     		ldr	r0, .L95+4
 632 010c FFF7FEFF 		bl	FLASH_ProgramHalfWord
 633              	.LVL87:
 634 0110 80B2     		uxth	r0, r0
 635              	.LVL88:
 636              		.loc 1 233 0
 637 0112 0928     		cmp	r0, #9
 638 0114 88D1     		bne	.L59
 639              	.LVL89:
 640              	.L87:
 641              		.loc 1 238 0
 642 0116 0820     		movs	r0, #8
 643              		.loc 1 259 0
 644 0118 BDE8F041 		pop	{r4, r5, r6, r7, r8, lr}
 645              		.cfi_remember_state
 646              		.cfi_restore 14
 647              		.cfi_restore 8
 648              		.cfi_restore 7
 649              		.cfi_restore 6
 650              		.cfi_restore 5
 651              		.cfi_restore 4
 652              		.cfi_def_cfa_offset 0
 653              		.loc 1 238 0
 654 011c FFF7FEBF 		b	EE_EraseSectorIfNotEmpty.constprop.1
 655              	.LVL90:
 656              	.L94:
 657              		.cfi_restore_state
 658              		.loc 1 140 0
 659 0120 0021     		movs	r1, #0
 660 0122 0648     		ldr	r0, .L95
 661 0124 FFF7FEFF 		bl	FLASH_ProgramHalfWord
 662              	.LVL91:
 663 0128 80B2     		uxth	r0, r0
 664              	.LVL92:
 665              		.loc 1 142 0
 666 012a 0928     		cmp	r0, #9
 667 012c 7FF47CAF 		bne	.L59
 668              	.LVL93:
 669              	.L88:
 670              		.loc 1 197 0
 671 0130 1020     		movs	r0, #16
 672              		.loc 1 259 0
 673 0132 BDE8F041 		pop	{r4, r5, r6, r7, r8, lr}
 674              		.cfi_restore 14
 675              		.cfi_restore 8
 676              		.cfi_restore 7
 677              		.cfi_restore 6
 678              		.cfi_restore 5
 679              		.cfi_restore 4
 680              		.cfi_def_cfa_offset 0
 681              		.loc 1 197 0
 682 0136 FFF7FEBF 		b	EE_EraseSectorIfNotEmpty.constprop.1
 683              	.LVL94:
 684              	.L96:
ARM GAS  /var/tmp//cclgCVgN.s 			page 13


 685 013a 00BF     		.align	2
 686              	.L95:
 687 013c 00400008 		.word	134234112
 688 0140 00800008 		.word	134250496
 689 0144 00000000 		.word	VirtAddVarTab
 690 0148 06800008 		.word	134250502
 691 014c 00000000 		.word	.LANCHOR0
 692 0150 06400008 		.word	134234118
 693              		.cfi_endproc
 694              	.LFE219:
 695              		.size	EE_Init, .-EE_Init
 696              		.section	.text.EE_WriteVariable,"ax",%progbits
 697              		.align	1
 698              		.p2align 4,,15
 699              		.global	EE_WriteVariable
 700              		.syntax unified
 701              		.thumb
 702              		.thumb_func
 703              		.fpu fpv4-sp-d16
 704              		.type	EE_WriteVariable, %function
 705              	EE_WriteVariable:
 706              	.LFB221:
 707              		.loc 1 331 0
 708              		.cfi_startproc
 709              		@ args = 0, pretend = 0, frame = 0
 710              		@ frame_needed = 0, uses_anonymous_args = 0
 711              	.LVL95:
 712 0000 2DE9F843 		push	{r3, r4, r5, r6, r7, r8, r9, lr}
 713              		.cfi_def_cfa_offset 32
 714              		.cfi_offset 3, -32
 715              		.cfi_offset 4, -28
 716              		.cfi_offset 5, -24
 717              		.cfi_offset 6, -20
 718              		.cfi_offset 7, -16
 719              		.cfi_offset 8, -12
 720              		.cfi_offset 9, -8
 721              		.cfi_offset 14, -4
 722              		.loc 1 331 0
 723 0004 0446     		mov	r4, r0
 724 0006 0D46     		mov	r5, r1
 725              		.loc 1 335 0
 726 0008 FFF7FEFF 		bl	EE_VerifyPageFullWriteVariable
 727              	.LVL96:
 728              		.loc 1 338 0
 729 000c 8028     		cmp	r0, #128
 730 000e 01D0     		beq	.L117
 731              	.LVL97:
 732              	.L98:
 733              		.loc 1 346 0
 734 0010 BDE8F883 		pop	{r3, r4, r5, r6, r7, r8, r9, pc}
 735              	.L117:
 736              	.LVL98:
 737              	.LBB25:
 738              	.LBB26:
 739              	.LBB27:
 740              	.LBB28:
 741              		.loc 1 397 0
ARM GAS  /var/tmp//cclgCVgN.s 			page 14


 742 0014 224E     		ldr	r6, .L120
 743              		.loc 1 400 0
 744 0016 2348     		ldr	r0, .L120+4
 745              	.LVL99:
 746              		.loc 1 397 0
 747 0018 3388     		ldrh	r3, [r6]
 748              		.loc 1 400 0
 749 001a 0288     		ldrh	r2, [r0]
 750              		.loc 1 397 0
 751 001c 9BB2     		uxth	r3, r3
 752              	.LVL100:
 753              		.loc 1 400 0
 754 001e 92B2     		uxth	r2, r2
 755              	.LVL101:
 756              		.loc 1 436 0
 757 0020 13B1     		cbz	r3, .L106
 758              		.loc 1 440 0
 759 0022 6AB9     		cbnz	r2, .L107
 760              	.LBE28:
 761              	.LBE27:
 762              		.loc 1 542 0
 763 0024 1027     		movs	r7, #16
 764 0026 01E0     		b	.L99
 765              	.L106:
 766              		.loc 1 547 0
 767 0028 0646     		mov	r6, r0
 768              		.loc 1 550 0
 769 002a 0827     		movs	r7, #8
 770              	.L99:
 771              	.LVL102:
 772              		.loc 1 558 0
 773 002c 4EF6EE61 		movw	r1, #61166
 774 0030 3046     		mov	r0, r6
 775 0032 FFF7FEFF 		bl	FLASH_ProgramHalfWord
 776              	.LVL103:
 777              		.loc 1 560 0
 778 0036 0928     		cmp	r0, #9
 779 0038 04D0     		beq	.L118
 780              	.LVL104:
 781              	.L115:
 782              		.loc 1 607 0
 783 003a 80B2     		uxth	r0, r0
 784 003c BDE8F883 		pop	{r3, r4, r5, r6, r7, r8, r9, pc}
 785              	.LVL105:
 786              	.L107:
 787              		.loc 1 554 0
 788 0040 AB20     		movs	r0, #171
 789 0042 E5E7     		b	.L98
 790              	.LVL106:
 791              	.L118:
 792              		.loc 1 566 0
 793 0044 2946     		mov	r1, r5
 794 0046 2046     		mov	r0, r4
 795              	.LVL107:
 796 0048 FFF7FEFF 		bl	EE_VerifyPageFullWriteVariable
 797              	.LVL108:
 798              		.loc 1 568 0
ARM GAS  /var/tmp//cclgCVgN.s 			page 15


 799 004c 0928     		cmp	r0, #9
 800 004e DFD1     		bne	.L98
 801 0050 154D     		ldr	r5, .L120+8
 802              	.LVL109:
 803              		.loc 1 579 0
 804 0052 DFF85890 		ldr	r9, .L120+12
 805 0056 05F50F78 		add	r8, r5, #572
 806 005a 02E0     		b	.L102
 807              	.LVL110:
 808              	.L104:
 809 005c 0235     		adds	r5, r5, #2
 810              		.loc 1 574 0
 811 005e A845     		cmp	r8, r5
 812 0060 11D0     		beq	.L119
 813              	.L102:
 814              		.loc 1 576 0
 815 0062 2B88     		ldrh	r3, [r5]
 816              		.loc 1 579 0
 817 0064 1149     		ldr	r1, .L120+12
 818              		.loc 1 576 0
 819 0066 9C42     		cmp	r4, r3
 820              		.loc 1 579 0
 821 0068 1846     		mov	r0, r3
 822              		.loc 1 576 0
 823 006a F7D0     		beq	.L104
 824              		.loc 1 579 0
 825 006c FFF7FEFF 		bl	EE_ReadVariable
 826              	.LVL111:
 827              		.loc 1 581 0
 828 0070 0128     		cmp	r0, #1
 829 0072 F3D0     		beq	.L104
 830              		.loc 1 584 0
 831 0074 B9F80010 		ldrh	r1, [r9]
 832 0078 2888     		ldrh	r0, [r5]
 833              	.LVL112:
 834 007a FFF7FEFF 		bl	EE_VerifyPageFullWriteVariable
 835              	.LVL113:
 836              		.loc 1 586 0
 837 007e 0928     		cmp	r0, #9
 838 0080 ECD0     		beq	.L104
 839 0082 BDE8F883 		pop	{r3, r4, r5, r6, r7, r8, r9, pc}
 840              	.LVL114:
 841              	.L119:
 842              		.loc 1 595 0
 843 0086 3846     		mov	r0, r7
 844 0088 FFF7FEFF 		bl	EE_EraseSectorIfNotEmpty.constprop.1
 845              	.LVL115:
 846              		.loc 1 597 0
 847 008c C0B2     		uxtb	r0, r0
 848 008e 0928     		cmp	r0, #9
 849 0090 D3D1     		bne	.L115
 850              		.loc 1 603 0
 851 0092 3046     		mov	r0, r6
 852              	.LVL116:
 853 0094 0021     		movs	r1, #0
 854 0096 FFF7FEFF 		bl	FLASH_ProgramHalfWord
 855              	.LVL117:
ARM GAS  /var/tmp//cclgCVgN.s 			page 16


 856              		.loc 1 605 0
 857 009a 0928     		cmp	r0, #9
 858 009c CDD1     		bne	.L115
 859 009e B7E7     		b	.L98
 860              	.L121:
 861              		.align	2
 862              	.L120:
 863 00a0 00400008 		.word	134234112
 864 00a4 00800008 		.word	134250496
 865 00a8 00000000 		.word	VirtAddVarTab
 866 00ac 00000000 		.word	.LANCHOR0
 867              	.LBE26:
 868              	.LBE25:
 869              		.cfi_endproc
 870              	.LFE221:
 871              		.size	EE_WriteVariable, .-EE_WriteVariable
 872              		.global	DataVar
 873              		.section	.bss.DataVar,"aw",%nobits
 874              		.align	1
 875              		.set	.LANCHOR0,. + 0
 876              		.type	DataVar, %object
 877              		.size	DataVar, 2
 878              	DataVar:
 879 0000 0000     		.space	2
 880              		.text
 881              	.Letext0:
 882              		.file 2 "/usr/local/gcc_arm/gcc-arm-none-eabi-6-2017-q2-update/arm-none-eabi/include/machine/_defa
 883              		.file 3 "/usr/local/gcc_arm/gcc-arm-none-eabi-6-2017-q2-update/arm-none-eabi/include/sys/_stdint.h
 884              		.file 4 "ChibiOS_3.0.2/os/ext/CMSIS/include/core_cm4.h"
 885              		.file 5 "ChibiOS_3.0.2/os/ext/CMSIS/ST/system_stm32f4xx.h"
 886              		.file 6 "ChibiOS_3.0.2/ext/stdperiph_stm32f4/inc/stm32f4xx_flash.h"
 887              		.file 7 "/usr/local/gcc_arm/gcc-arm-none-eabi-6-2017-q2-update/lib/gcc/arm-none-eabi/6.3.1/include
 888              		.file 8 "ChibiOS_3.0.2/os/rt/ports/ARMCMx/compilers/GCC/chtypes.h"
 889              		.file 9 "ChibiOS_3.0.2/os/rt/include/chsystypes.h"
 890              		.file 10 "ChibiOS_3.0.2/os/rt/include/chschd.h"
 891              		.file 11 "ChibiOS_3.0.2/os/rt/ports/ARMCMx/chcore.h"
 892              		.file 12 "ChibiOS_3.0.2/os/rt/ports/ARMCMx/chcore_v7m.h"
 893              		.file 13 "ChibiOS_3.0.2/os/rt/include/chtm.h"
 894              		.file 14 "ChibiOS_3.0.2/os/rt/include/chsem.h"
 895              		.file 15 "ChibiOS_3.0.2/os/rt/include/chmtx.h"
 896              		.file 16 "ChibiOS_3.0.2/os/rt/include/chregistry.h"
 897              		.file 17 "conf_general.h"
 898              		.file 18 "flash_helper.h"
 899              		.section	.debug_info,"",%progbits
 900              	.Ldebug_info0:
 901 0000 9E0F0000 		.4byte	0xf9e
 902 0004 0400     		.2byte	0x4
 903 0006 00000000 		.4byte	.Ldebug_abbrev0
 904 000a 04       		.byte	0x4
 905 000b 01       		.uleb128 0x1
 906 000c A2030000 		.4byte	.LASF176
 907 0010 0C       		.byte	0xc
 908 0011 24010000 		.4byte	.LASF177
 909 0015 12030000 		.4byte	.LASF178
 910 0019 30000000 		.4byte	.Ldebug_ranges0+0x30
 911 001d 00000000 		.4byte	0
 912 0021 00000000 		.4byte	.Ldebug_line0
ARM GAS  /var/tmp//cclgCVgN.s 			page 17


 913 0025 02       		.uleb128 0x2
 914 0026 01       		.byte	0x1
 915 0027 06       		.byte	0x6
 916 0028 18010000 		.4byte	.LASF0
 917 002c 03       		.uleb128 0x3
 918 002d 2A000000 		.4byte	.LASF2
 919 0031 02       		.byte	0x2
 920 0032 2B       		.byte	0x2b
 921 0033 37000000 		.4byte	0x37
 922 0037 02       		.uleb128 0x2
 923 0038 01       		.byte	0x1
 924 0039 08       		.byte	0x8
 925 003a 35060000 		.4byte	.LASF1
 926 003e 03       		.uleb128 0x3
 927 003f 08020000 		.4byte	.LASF3
 928 0043 02       		.byte	0x2
 929 0044 37       		.byte	0x37
 930 0045 49000000 		.4byte	0x49
 931 0049 02       		.uleb128 0x2
 932 004a 02       		.byte	0x2
 933 004b 05       		.byte	0x5
 934 004c 64060000 		.4byte	.LASF4
 935 0050 03       		.uleb128 0x3
 936 0051 AD070000 		.4byte	.LASF5
 937 0055 02       		.byte	0x2
 938 0056 39       		.byte	0x39
 939 0057 5B000000 		.4byte	0x5b
 940 005b 02       		.uleb128 0x2
 941 005c 02       		.byte	0x2
 942 005d 07       		.byte	0x7
 943 005e B3020000 		.4byte	.LASF6
 944 0062 03       		.uleb128 0x3
 945 0063 82030000 		.4byte	.LASF7
 946 0067 02       		.byte	0x2
 947 0068 4D       		.byte	0x4d
 948 0069 6D000000 		.4byte	0x6d
 949 006d 02       		.uleb128 0x2
 950 006e 04       		.byte	0x4
 951 006f 05       		.byte	0x5
 952 0070 AC010000 		.4byte	.LASF8
 953 0074 03       		.uleb128 0x3
 954 0075 E6070000 		.4byte	.LASF9
 955 0079 02       		.byte	0x2
 956 007a 4F       		.byte	0x4f
 957 007b 7F000000 		.4byte	0x7f
 958 007f 02       		.uleb128 0x2
 959 0080 04       		.byte	0x4
 960 0081 07       		.byte	0x7
 961 0082 5F070000 		.4byte	.LASF10
 962 0086 02       		.uleb128 0x2
 963 0087 08       		.byte	0x8
 964 0088 05       		.byte	0x5
 965 0089 0A010000 		.4byte	.LASF11
 966 008d 03       		.uleb128 0x3
 967 008e BD050000 		.4byte	.LASF12
 968 0092 02       		.byte	0x2
 969 0093 69       		.byte	0x69
ARM GAS  /var/tmp//cclgCVgN.s 			page 18


 970 0094 98000000 		.4byte	0x98
 971 0098 02       		.uleb128 0x2
 972 0099 08       		.byte	0x8
 973 009a 07       		.byte	0x7
 974 009b 4F000000 		.4byte	.LASF13
 975 009f 04       		.uleb128 0x4
 976 00a0 04       		.byte	0x4
 977 00a1 05       		.byte	0x5
 978 00a2 696E7400 		.ascii	"int\000"
 979 00a6 02       		.uleb128 0x2
 980 00a7 04       		.byte	0x4
 981 00a8 07       		.byte	0x7
 982 00a9 36020000 		.4byte	.LASF14
 983 00ad 03       		.uleb128 0x3
 984 00ae A7080000 		.4byte	.LASF15
 985 00b2 03       		.byte	0x3
 986 00b3 18       		.byte	0x18
 987 00b4 2C000000 		.4byte	0x2c
 988 00b8 03       		.uleb128 0x3
 989 00b9 25090000 		.4byte	.LASF16
 990 00bd 03       		.byte	0x3
 991 00be 20       		.byte	0x20
 992 00bf 3E000000 		.4byte	0x3e
 993 00c3 03       		.uleb128 0x3
 994 00c4 4B020000 		.4byte	.LASF17
 995 00c8 03       		.byte	0x3
 996 00c9 24       		.byte	0x24
 997 00ca 50000000 		.4byte	0x50
 998 00ce 03       		.uleb128 0x3
 999 00cf 2D060000 		.4byte	.LASF18
 1000 00d3 03       		.byte	0x3
 1001 00d4 2C       		.byte	0x2c
 1002 00d5 62000000 		.4byte	0x62
 1003 00d9 05       		.uleb128 0x5
 1004 00da CE000000 		.4byte	0xce
 1005 00de 03       		.uleb128 0x3
 1006 00df 75080000 		.4byte	.LASF19
 1007 00e3 03       		.byte	0x3
 1008 00e4 30       		.byte	0x30
 1009 00e5 74000000 		.4byte	0x74
 1010 00e9 03       		.uleb128 0x3
 1011 00ea 21000000 		.4byte	.LASF20
 1012 00ee 03       		.byte	0x3
 1013 00ef 3C       		.byte	0x3c
 1014 00f0 8D000000 		.4byte	0x8d
 1015 00f4 02       		.uleb128 0x2
 1016 00f5 04       		.byte	0x4
 1017 00f6 07       		.byte	0x7
 1018 00f7 29050000 		.4byte	.LASF21
 1019 00fb 06       		.uleb128 0x6
 1020 00fc C2000000 		.4byte	.LASF22
 1021 0100 04       		.byte	0x4
 1022 0101 A706     		.2byte	0x6a7
 1023 0103 D9000000 		.4byte	0xd9
 1024 0107 07       		.uleb128 0x7
 1025 0108 54020000 		.4byte	.LASF23
 1026 010c 05       		.byte	0x5
ARM GAS  /var/tmp//cclgCVgN.s 			page 19


 1027 010d 4C       		.byte	0x4c
 1028 010e DE000000 		.4byte	0xde
 1029 0112 08       		.uleb128 0x8
 1030 0113 01       		.byte	0x1
 1031 0114 37000000 		.4byte	0x37
 1032 0118 06       		.byte	0x6
 1033 0119 35       		.byte	0x35
 1034 011a 55010000 		.4byte	0x155
 1035 011e 09       		.uleb128 0x9
 1036 011f 5A010000 		.4byte	.LASF24
 1037 0123 01       		.byte	0x1
 1038 0124 09       		.uleb128 0x9
 1039 0125 66080000 		.4byte	.LASF25
 1040 0129 02       		.byte	0x2
 1041 012a 09       		.uleb128 0x9
 1042 012b 9D070000 		.4byte	.LASF26
 1043 012f 03       		.byte	0x3
 1044 0130 09       		.uleb128 0x9
 1045 0131 80070000 		.4byte	.LASF27
 1046 0135 04       		.byte	0x4
 1047 0136 09       		.uleb128 0x9
 1048 0137 1D070000 		.4byte	.LASF28
 1049 013b 05       		.byte	0x5
 1050 013c 09       		.uleb128 0x9
 1051 013d FF080000 		.4byte	.LASF29
 1052 0141 06       		.byte	0x6
 1053 0142 09       		.uleb128 0x9
 1054 0143 A9050000 		.4byte	.LASF30
 1055 0147 07       		.byte	0x7
 1056 0148 09       		.uleb128 0x9
 1057 0149 F4000000 		.4byte	.LASF31
 1058 014d 08       		.byte	0x8
 1059 014e 09       		.uleb128 0x9
 1060 014f 16090000 		.4byte	.LASF32
 1061 0153 09       		.byte	0x9
 1062 0154 00       		.byte	0
 1063 0155 03       		.uleb128 0x3
 1064 0156 E2010000 		.4byte	.LASF33
 1065 015a 06       		.byte	0x6
 1066 015b 3F       		.byte	0x3f
 1067 015c 12010000 		.4byte	0x112
 1068 0160 03       		.uleb128 0x3
 1069 0161 12020000 		.4byte	.LASF34
 1070 0165 07       		.byte	0x7
 1071 0166 D8       		.byte	0xd8
 1072 0167 A6000000 		.4byte	0xa6
 1073 016b 03       		.uleb128 0x3
 1074 016c 31080000 		.4byte	.LASF35
 1075 0170 08       		.byte	0x8
 1076 0171 45       		.byte	0x45
 1077 0172 DE000000 		.4byte	0xde
 1078 0176 03       		.uleb128 0x3
 1079 0177 AB060000 		.4byte	.LASF36
 1080 017b 08       		.byte	0x8
 1081 017c 48       		.byte	0x48
 1082 017d AD000000 		.4byte	0xad
 1083 0181 03       		.uleb128 0x3
ARM GAS  /var/tmp//cclgCVgN.s 			page 20


 1084 0182 BF010000 		.4byte	.LASF37
 1085 0186 08       		.byte	0x8
 1086 0187 49       		.byte	0x49
 1087 0188 AD000000 		.4byte	0xad
 1088 018c 03       		.uleb128 0x3
 1089 018d CE050000 		.4byte	.LASF38
 1090 0191 08       		.byte	0x8
 1091 0192 4A       		.byte	0x4a
 1092 0193 AD000000 		.4byte	0xad
 1093 0197 03       		.uleb128 0x3
 1094 0198 85010000 		.4byte	.LASF39
 1095 019c 08       		.byte	0x8
 1096 019d 4B       		.byte	0x4b
 1097 019e AD000000 		.4byte	0xad
 1098 01a2 03       		.uleb128 0x3
 1099 01a3 05060000 		.4byte	.LASF40
 1100 01a7 08       		.byte	0x8
 1101 01a8 4C       		.byte	0x4c
 1102 01a9 DE000000 		.4byte	0xde
 1103 01ad 03       		.uleb128 0x3
 1104 01ae F1020000 		.4byte	.LASF41
 1105 01b2 08       		.byte	0x8
 1106 01b3 4D       		.byte	0x4d
 1107 01b4 CE000000 		.4byte	0xce
 1108 01b8 03       		.uleb128 0x3
 1109 01b9 76030000 		.4byte	.LASF42
 1110 01bd 08       		.byte	0x8
 1111 01be 4F       		.byte	0x4f
 1112 01bf DE000000 		.4byte	0xde
 1113 01c3 03       		.uleb128 0x3
 1114 01c4 30020000 		.4byte	.LASF43
 1115 01c8 08       		.byte	0x8
 1116 01c9 51       		.byte	0x51
 1117 01ca CE000000 		.4byte	0xce
 1118 01ce 03       		.uleb128 0x3
 1119 01cf C8070000 		.4byte	.LASF44
 1120 01d3 09       		.byte	0x9
 1121 01d4 33       		.byte	0x33
 1122 01d5 DE000000 		.4byte	0xde
 1123 01d9 05       		.uleb128 0x5
 1124 01da CE010000 		.4byte	0x1ce
 1125 01de 03       		.uleb128 0x3
 1126 01df B8070000 		.4byte	.LASF45
 1127 01e3 09       		.byte	0x9
 1128 01e4 3F       		.byte	0x3f
 1129 01e5 E9010000 		.4byte	0x1e9
 1130 01e9 0A       		.uleb128 0xa
 1131 01ea E7020000 		.4byte	.LASF67
 1132 01ee 48       		.byte	0x48
 1133 01ef 0A       		.byte	0xa
 1134 01f0 C2       		.byte	0xc2
 1135 01f1 EE020000 		.4byte	0x2ee
 1136 01f5 0B       		.uleb128 0xb
 1137 01f6 A4060000 		.4byte	.LASF46
 1138 01fa 0A       		.byte	0xa
 1139 01fb C3       		.byte	0xc3
 1140 01fc F9020000 		.4byte	0x2f9
ARM GAS  /var/tmp//cclgCVgN.s 			page 21


 1141 0200 00       		.byte	0
 1142 0201 0B       		.uleb128 0xb
 1143 0202 FE050000 		.4byte	.LASF47
 1144 0206 0A       		.byte	0xa
 1145 0207 C5       		.byte	0xc5
 1146 0208 F9020000 		.4byte	0x2f9
 1147 020c 04       		.byte	0x4
 1148 020d 0B       		.uleb128 0xb
 1149 020e E0000000 		.4byte	.LASF48
 1150 0212 0A       		.byte	0xa
 1151 0213 C7       		.byte	0xc7
 1152 0214 A2010000 		.4byte	0x1a2
 1153 0218 08       		.byte	0x8
 1154 0219 0B       		.uleb128 0xb
 1155 021a 80050000 		.4byte	.LASF49
 1156 021e 0A       		.byte	0xa
 1157 021f C8       		.byte	0xc8
 1158 0220 22050000 		.4byte	0x522
 1159 0224 0C       		.byte	0xc
 1160 0225 0B       		.uleb128 0xb
 1161 0226 D2010000 		.4byte	.LASF50
 1162 022a 0A       		.byte	0xa
 1163 022b CA       		.byte	0xca
 1164 022c F9020000 		.4byte	0x2f9
 1165 0230 10       		.byte	0x10
 1166 0231 0B       		.uleb128 0xb
 1167 0232 72050000 		.4byte	.LASF51
 1168 0236 0A       		.byte	0xa
 1169 0237 CB       		.byte	0xcb
 1170 0238 F9020000 		.4byte	0x2f9
 1171 023c 14       		.byte	0x14
 1172 023d 0B       		.uleb128 0xb
 1173 023e ED080000 		.4byte	.LASF52
 1174 0242 0A       		.byte	0xa
 1175 0243 D2       		.byte	0xd2
 1176 0244 67070000 		.4byte	0x767
 1177 0248 18       		.byte	0x18
 1178 0249 0B       		.uleb128 0xb
 1179 024a 6E060000 		.4byte	.LASF53
 1180 024e 0A       		.byte	0xa
 1181 024f DD       		.byte	0xdd
 1182 0250 81010000 		.4byte	0x181
 1183 0254 1C       		.byte	0x1c
 1184 0255 0B       		.uleb128 0xb
 1185 0256 C2060000 		.4byte	.LASF54
 1186 025a 0A       		.byte	0xa
 1187 025b E1       		.byte	0xe1
 1188 025c 76010000 		.4byte	0x176
 1189 0260 1D       		.byte	0x1d
 1190 0261 0B       		.uleb128 0xb
 1191 0262 92080000 		.4byte	.LASF55
 1192 0266 0A       		.byte	0xa
 1193 0267 E6       		.byte	0xe6
 1194 0268 8C010000 		.4byte	0x18c
 1195 026c 1E       		.byte	0x1e
 1196 026d 0B       		.uleb128 0xb
 1197 026e 88060000 		.4byte	.LASF56
ARM GAS  /var/tmp//cclgCVgN.s 			page 22


 1198 0272 0A       		.byte	0xa
 1199 0273 EC       		.byte	0xec
 1200 0274 97010000 		.4byte	0x197
 1201 0278 1F       		.byte	0x1f
 1202 0279 0B       		.uleb128 0xb
 1203 027a 64020000 		.4byte	.LASF57
 1204 027e 0A       		.byte	0xa
 1205 027f F3       		.byte	0xf3
 1206 0280 D9010000 		.4byte	0x1d9
 1207 0284 20       		.byte	0x20
 1208 0285 0C       		.uleb128 0xc
 1209 0286 705F7500 		.ascii	"p_u\000"
 1210 028a 0A       		.byte	0xa
 1211 028b 3101     		.2byte	0x131
 1212 028d A2060000 		.4byte	0x6a2
 1213 0291 24       		.byte	0x24
 1214 0292 0D       		.uleb128 0xd
 1215 0293 10050000 		.4byte	.LASF58
 1216 0297 0A       		.byte	0xa
 1217 0298 3601     		.2byte	0x136
 1218 029a FF020000 		.4byte	0x2ff
 1219 029e 28       		.byte	0x28
 1220 029f 0D       		.uleb128 0xd
 1221 02a0 8B020000 		.4byte	.LASF59
 1222 02a4 0A       		.byte	0xa
 1223 02a5 3C01     		.2byte	0x13c
 1224 02a7 23030000 		.4byte	0x323
 1225 02ab 2C       		.byte	0x2c
 1226 02ac 0D       		.uleb128 0xd
 1227 02ad 2B080000 		.4byte	.LASF60
 1228 02b1 0A       		.byte	0xa
 1229 02b2 4001     		.2byte	0x140
 1230 02b4 AD010000 		.4byte	0x1ad
 1231 02b8 34       		.byte	0x34
 1232 02b9 0D       		.uleb128 0xd
 1233 02ba 12070000 		.4byte	.LASF61
 1234 02be 0A       		.byte	0xa
 1235 02bf 4601     		.2byte	0x146
 1236 02c1 B8010000 		.4byte	0x1b8
 1237 02c5 38       		.byte	0x38
 1238 02c6 0D       		.uleb128 0xd
 1239 02c7 5A060000 		.4byte	.LASF62
 1240 02cb 0A       		.byte	0xa
 1241 02cc 4D01     		.2byte	0x14d
 1242 02ce 61070000 		.4byte	0x761
 1243 02d2 3C       		.byte	0x3c
 1244 02d3 0D       		.uleb128 0xd
 1245 02d4 D2070000 		.4byte	.LASF63
 1246 02d8 0A       		.byte	0xa
 1247 02d9 5101     		.2byte	0x151
 1248 02db A2010000 		.4byte	0x1a2
 1249 02df 40       		.byte	0x40
 1250 02e0 0D       		.uleb128 0xd
 1251 02e1 4A010000 		.4byte	.LASF64
 1252 02e5 0A       		.byte	0xa
 1253 02e6 5801     		.2byte	0x158
 1254 02e8 D6030000 		.4byte	0x3d6
ARM GAS  /var/tmp//cclgCVgN.s 			page 23


 1255 02ec 44       		.byte	0x44
 1256 02ed 00       		.byte	0
 1257 02ee 03       		.uleb128 0x3
 1258 02ef D3080000 		.4byte	.LASF65
 1259 02f3 09       		.byte	0x9
 1260 02f4 44       		.byte	0x44
 1261 02f5 F9020000 		.4byte	0x2f9
 1262 02f9 0E       		.uleb128 0xe
 1263 02fa 04       		.byte	0x4
 1264 02fb DE010000 		.4byte	0x1de
 1265 02ff 03       		.uleb128 0x3
 1266 0300 C6040000 		.4byte	.LASF66
 1267 0304 09       		.byte	0x9
 1268 0305 49       		.byte	0x49
 1269 0306 0A030000 		.4byte	0x30a
 1270 030a 0A       		.uleb128 0xa
 1271 030b 41070000 		.4byte	.LASF68
 1272 030f 04       		.byte	0x4
 1273 0310 0A       		.byte	0xa
 1274 0311 B0       		.byte	0xb0
 1275 0312 23030000 		.4byte	0x323
 1276 0316 0B       		.uleb128 0xb
 1277 0317 A4060000 		.4byte	.LASF46
 1278 031b 0A       		.byte	0xa
 1279 031c B1       		.byte	0xb1
 1280 031d F9020000 		.4byte	0x2f9
 1281 0321 00       		.byte	0
 1282 0322 00       		.byte	0
 1283 0323 03       		.uleb128 0x3
 1284 0324 D7060000 		.4byte	.LASF69
 1285 0328 09       		.byte	0x9
 1286 0329 50       		.byte	0x50
 1287 032a 2E030000 		.4byte	0x32e
 1288 032e 0A       		.uleb128 0xa
 1289 032f CF000000 		.4byte	.LASF70
 1290 0333 08       		.byte	0x8
 1291 0334 0A       		.byte	0xa
 1292 0335 B7       		.byte	0xb7
 1293 0336 53030000 		.4byte	0x353
 1294 033a 0B       		.uleb128 0xb
 1295 033b A4060000 		.4byte	.LASF46
 1296 033f 0A       		.byte	0xa
 1297 0340 B8       		.byte	0xb8
 1298 0341 F9020000 		.4byte	0x2f9
 1299 0345 00       		.byte	0
 1300 0346 0B       		.uleb128 0xb
 1301 0347 FE050000 		.4byte	.LASF47
 1302 034b 0A       		.byte	0xa
 1303 034c B9       		.byte	0xb9
 1304 034d F9020000 		.4byte	0x2f9
 1305 0351 04       		.byte	0x4
 1306 0352 00       		.byte	0
 1307 0353 03       		.uleb128 0x3
 1308 0354 0D000000 		.4byte	.LASF71
 1309 0358 09       		.byte	0x9
 1310 0359 57       		.byte	0x57
 1311 035a 5E030000 		.4byte	0x35e
ARM GAS  /var/tmp//cclgCVgN.s 			page 24


 1312 035e 0F       		.uleb128 0xf
 1313 035f 9F020000 		.4byte	.LASF72
 1314 0363 1C       		.byte	0x1c
 1315 0364 0A       		.byte	0xa
 1316 0365 9001     		.2byte	0x190
 1317 0367 BA030000 		.4byte	0x3ba
 1318 036b 0D       		.uleb128 0xd
 1319 036c 39070000 		.4byte	.LASF73
 1320 0370 0A       		.byte	0xa
 1321 0371 9101     		.2byte	0x191
 1322 0373 23030000 		.4byte	0x323
 1323 0377 00       		.byte	0
 1324 0378 0D       		.uleb128 0xd
 1325 0379 09050000 		.4byte	.LASF74
 1326 037d 0A       		.byte	0xa
 1327 037e 9201     		.2byte	0x192
 1328 0380 A2010000 		.4byte	0x1a2
 1329 0384 08       		.byte	0x8
 1330 0385 0D       		.uleb128 0xd
 1331 0386 7A050000 		.4byte	.LASF75
 1332 038a 0A       		.byte	0xa
 1333 038b 9401     		.2byte	0x194
 1334 038d 22050000 		.4byte	0x522
 1335 0391 0C       		.byte	0xc
 1336 0392 0D       		.uleb128 0xd
 1337 0393 EF010000 		.4byte	.LASF76
 1338 0397 0A       		.byte	0xa
 1339 0398 9701     		.2byte	0x197
 1340 039a F9020000 		.4byte	0x2f9
 1341 039e 10       		.byte	0x10
 1342 039f 0D       		.uleb128 0xd
 1343 03a0 A1050000 		.4byte	.LASF77
 1344 03a4 0A       		.byte	0xa
 1345 03a5 9801     		.2byte	0x198
 1346 03a7 F9020000 		.4byte	0x2f9
 1347 03ab 14       		.byte	0x14
 1348 03ac 0D       		.uleb128 0xd
 1349 03ad 97050000 		.4byte	.LASF78
 1350 03b1 0A       		.byte	0xa
 1351 03b2 9B01     		.2byte	0x19b
 1352 03b4 F9020000 		.4byte	0x2f9
 1353 03b8 18       		.byte	0x18
 1354 03b9 00       		.byte	0
 1355 03ba 03       		.uleb128 0x3
 1356 03bb DD070000 		.4byte	.LASF79
 1357 03bf 09       		.byte	0x9
 1358 03c0 5C       		.byte	0x5c
 1359 03c1 C5030000 		.4byte	0x3c5
 1360 03c5 0E       		.uleb128 0xe
 1361 03c6 04       		.byte	0x4
 1362 03c7 CB030000 		.4byte	0x3cb
 1363 03cb 10       		.uleb128 0x10
 1364 03cc D6030000 		.4byte	0x3d6
 1365 03d0 11       		.uleb128 0x11
 1366 03d1 D6030000 		.4byte	0x3d6
 1367 03d5 00       		.byte	0
 1368 03d6 12       		.uleb128 0x12
ARM GAS  /var/tmp//cclgCVgN.s 			page 25


 1369 03d7 04       		.byte	0x4
 1370 03d8 03       		.uleb128 0x3
 1371 03d9 EE050000 		.4byte	.LASF80
 1372 03dd 09       		.byte	0x9
 1373 03de 61       		.byte	0x61
 1374 03df E3030000 		.4byte	0x3e3
 1375 03e3 0F       		.uleb128 0xf
 1376 03e4 E7060000 		.4byte	.LASF81
 1377 03e8 14       		.byte	0x14
 1378 03e9 0A       		.byte	0xa
 1379 03ea 6B01     		.2byte	0x16b
 1380 03ec 32040000 		.4byte	0x432
 1381 03f0 0D       		.uleb128 0xd
 1382 03f1 43020000 		.4byte	.LASF82
 1383 03f5 0A       		.byte	0xa
 1384 03f6 6C01     		.2byte	0x16c
 1385 03f8 7E070000 		.4byte	0x77e
 1386 03fc 00       		.byte	0
 1387 03fd 0D       		.uleb128 0xd
 1388 03fe 00020000 		.4byte	.LASF83
 1389 0402 0A       		.byte	0xa
 1390 0403 6D01     		.2byte	0x16d
 1391 0405 7E070000 		.4byte	0x77e
 1392 0409 04       		.byte	0x4
 1393 040a 0D       		.uleb128 0xd
 1394 040b 72020000 		.4byte	.LASF84
 1395 040f 0A       		.byte	0xa
 1396 0410 6E01     		.2byte	0x16e
 1397 0412 CE010000 		.4byte	0x1ce
 1398 0416 08       		.byte	0x8
 1399 0417 0D       		.uleb128 0xd
 1400 0418 43090000 		.4byte	.LASF85
 1401 041c 0A       		.byte	0xa
 1402 041d 6F01     		.2byte	0x16f
 1403 041f BA030000 		.4byte	0x3ba
 1404 0423 0C       		.byte	0xc
 1405 0424 0D       		.uleb128 0xd
 1406 0425 5F080000 		.4byte	.LASF86
 1407 0429 0A       		.byte	0xa
 1408 042a 7101     		.2byte	0x171
 1409 042c D6030000 		.4byte	0x3d6
 1410 0430 10       		.byte	0x10
 1411 0431 00       		.byte	0
 1412 0432 03       		.uleb128 0x3
 1413 0433 A0000000 		.4byte	.LASF87
 1414 0437 09       		.byte	0x9
 1415 0438 66       		.byte	0x66
 1416 0439 3D040000 		.4byte	0x43d
 1417 043d 0F       		.uleb128 0xf
 1418 043e 32050000 		.4byte	.LASF88
 1419 0442 10       		.byte	0x10
 1420 0443 0A       		.byte	0xa
 1421 0444 7B01     		.2byte	0x17b
 1422 0446 7F040000 		.4byte	0x47f
 1423 044a 0D       		.uleb128 0xd
 1424 044b 43020000 		.4byte	.LASF82
 1425 044f 0A       		.byte	0xa
ARM GAS  /var/tmp//cclgCVgN.s 			page 26


 1426 0450 7C01     		.2byte	0x17c
 1427 0452 7E070000 		.4byte	0x77e
 1428 0456 00       		.byte	0
 1429 0457 0D       		.uleb128 0xd
 1430 0458 00020000 		.4byte	.LASF83
 1431 045c 0A       		.byte	0xa
 1432 045d 7E01     		.2byte	0x17e
 1433 045f 7E070000 		.4byte	0x77e
 1434 0463 04       		.byte	0x4
 1435 0464 0D       		.uleb128 0xd
 1436 0465 72020000 		.4byte	.LASF84
 1437 0469 0A       		.byte	0xa
 1438 046a 8001     		.2byte	0x180
 1439 046c CE010000 		.4byte	0x1ce
 1440 0470 08       		.byte	0x8
 1441 0471 0D       		.uleb128 0xd
 1442 0472 F4080000 		.4byte	.LASF89
 1443 0476 0A       		.byte	0xa
 1444 0477 8201     		.2byte	0x182
 1445 0479 D9010000 		.4byte	0x1d9
 1446 047d 0C       		.byte	0xc
 1447 047e 00       		.byte	0
 1448 047f 03       		.uleb128 0x3
 1449 0480 40000000 		.4byte	.LASF90
 1450 0484 09       		.byte	0x9
 1451 0485 6B       		.byte	0x6b
 1452 0486 8A040000 		.4byte	0x48a
 1453 048a 0F       		.uleb128 0xf
 1454 048b 12060000 		.4byte	.LASF91
 1455 048f 04       		.byte	0x4
 1456 0490 0A       		.byte	0xa
 1457 0491 A201     		.2byte	0x1a2
 1458 0493 A5040000 		.4byte	0x4a5
 1459 0497 0D       		.uleb128 0xd
 1460 0498 F8070000 		.4byte	.LASF92
 1461 049c 0A       		.byte	0xa
 1462 049d AA01     		.2byte	0x1aa
 1463 049f 6D070000 		.4byte	0x76d
 1464 04a3 00       		.byte	0
 1465 04a4 00       		.byte	0
 1466 04a5 03       		.uleb128 0x3
 1467 04a6 1F080000 		.4byte	.LASF93
 1468 04aa 09       		.byte	0x9
 1469 04ab 70       		.byte	0x70
 1470 04ac B0040000 		.4byte	0x4b0
 1471 04b0 13       		.uleb128 0x13
 1472 04b1 A2010000 		.4byte	.LASF94
 1473 04b5 5802     		.2byte	0x258
 1474 04b7 0A       		.byte	0xa
 1475 04b8 C201     		.2byte	0x1c2
 1476 04ba 0C050000 		.4byte	0x50c
 1477 04be 0D       		.uleb128 0xd
 1478 04bf A1080000 		.4byte	.LASF95
 1479 04c3 0A       		.byte	0xa
 1480 04c4 C601     		.2byte	0x1c6
 1481 04c6 53030000 		.4byte	0x353
 1482 04ca 00       		.byte	0
ARM GAS  /var/tmp//cclgCVgN.s 			page 27


 1483 04cb 0D       		.uleb128 0xd
 1484 04cc 7E010000 		.4byte	.LASF96
 1485 04d0 0A       		.byte	0xa
 1486 04d1 CA01     		.2byte	0x1ca
 1487 04d3 32040000 		.4byte	0x432
 1488 04d7 1C       		.byte	0x1c
 1489 04d8 0C       		.uleb128 0xc
 1490 04d9 64626700 		.ascii	"dbg\000"
 1491 04dd 0A       		.byte	0xa
 1492 04de CE01     		.2byte	0x1ce
 1493 04e0 7F040000 		.4byte	0x47f
 1494 04e4 2C       		.byte	0x2c
 1495 04e5 0D       		.uleb128 0xd
 1496 04e6 8E000000 		.4byte	.LASF97
 1497 04ea 0A       		.byte	0xa
 1498 04eb D201     		.2byte	0x1d2
 1499 04ed DE010000 		.4byte	0x1de
 1500 04f1 30       		.byte	0x30
 1501 04f2 0C       		.uleb128 0xc
 1502 04f3 746D00   		.ascii	"tm\000"
 1503 04f6 0A       		.byte	0xa
 1504 04f7 D701     		.2byte	0x1d7
 1505 04f9 97060000 		.4byte	0x697
 1506 04fd 78       		.byte	0x78
 1507 04fe 0D       		.uleb128 0xd
 1508 04ff 21020000 		.4byte	.LASF98
 1509 0503 0A       		.byte	0xa
 1510 0504 E301     		.2byte	0x1e3
 1511 0506 84070000 		.4byte	0x784
 1512 050a 80       		.byte	0x80
 1513 050b 00       		.byte	0
 1514 050c 03       		.uleb128 0x3
 1515 050d F7010000 		.4byte	.LASF99
 1516 0511 0B       		.byte	0xb
 1517 0512 65       		.byte	0x65
 1518 0513 D6030000 		.4byte	0x3d6
 1519 0517 03       		.uleb128 0x3
 1520 0518 97030000 		.4byte	.LASF100
 1521 051c 0B       		.byte	0xb
 1522 051d 6D       		.byte	0x6d
 1523 051e E9000000 		.4byte	0xe9
 1524 0522 0A       		.uleb128 0xa
 1525 0523 09080000 		.4byte	.LASF101
 1526 0527 04       		.byte	0x4
 1527 0528 0B       		.byte	0xb
 1528 0529 89       		.byte	0x89
 1529 052a 3B050000 		.4byte	0x53b
 1530 052e 14       		.uleb128 0x14
 1531 052f 72313300 		.ascii	"r13\000"
 1532 0533 0B       		.byte	0xb
 1533 0534 8A       		.byte	0x8a
 1534 0535 7C060000 		.4byte	0x67c
 1535 0539 00       		.byte	0
 1536 053a 00       		.byte	0
 1537 053b 0A       		.uleb128 0xa
 1538 053c 34000000 		.4byte	.LASF102
 1539 0540 64       		.byte	0x64
ARM GAS  /var/tmp//cclgCVgN.s 			page 28


 1540 0541 0C       		.byte	0xc
 1541 0542 F4       		.byte	0xf4
 1542 0543 7C060000 		.4byte	0x67c
 1543 0547 14       		.uleb128 0x14
 1544 0548 73313600 		.ascii	"s16\000"
 1545 054c 0C       		.byte	0xc
 1546 054d F6       		.byte	0xf6
 1547 054e 0C050000 		.4byte	0x50c
 1548 0552 00       		.byte	0
 1549 0553 14       		.uleb128 0x14
 1550 0554 73313700 		.ascii	"s17\000"
 1551 0558 0C       		.byte	0xc
 1552 0559 F7       		.byte	0xf7
 1553 055a 0C050000 		.4byte	0x50c
 1554 055e 04       		.byte	0x4
 1555 055f 14       		.uleb128 0x14
 1556 0560 73313800 		.ascii	"s18\000"
 1557 0564 0C       		.byte	0xc
 1558 0565 F8       		.byte	0xf8
 1559 0566 0C050000 		.4byte	0x50c
 1560 056a 08       		.byte	0x8
 1561 056b 14       		.uleb128 0x14
 1562 056c 73313900 		.ascii	"s19\000"
 1563 0570 0C       		.byte	0xc
 1564 0571 F9       		.byte	0xf9
 1565 0572 0C050000 		.4byte	0x50c
 1566 0576 0C       		.byte	0xc
 1567 0577 14       		.uleb128 0x14
 1568 0578 73323000 		.ascii	"s20\000"
 1569 057c 0C       		.byte	0xc
 1570 057d FA       		.byte	0xfa
 1571 057e 0C050000 		.4byte	0x50c
 1572 0582 10       		.byte	0x10
 1573 0583 14       		.uleb128 0x14
 1574 0584 73323100 		.ascii	"s21\000"
 1575 0588 0C       		.byte	0xc
 1576 0589 FB       		.byte	0xfb
 1577 058a 0C050000 		.4byte	0x50c
 1578 058e 14       		.byte	0x14
 1579 058f 14       		.uleb128 0x14
 1580 0590 73323200 		.ascii	"s22\000"
 1581 0594 0C       		.byte	0xc
 1582 0595 FC       		.byte	0xfc
 1583 0596 0C050000 		.4byte	0x50c
 1584 059a 18       		.byte	0x18
 1585 059b 14       		.uleb128 0x14
 1586 059c 73323300 		.ascii	"s23\000"
 1587 05a0 0C       		.byte	0xc
 1588 05a1 FD       		.byte	0xfd
 1589 05a2 0C050000 		.4byte	0x50c
 1590 05a6 1C       		.byte	0x1c
 1591 05a7 14       		.uleb128 0x14
 1592 05a8 73323400 		.ascii	"s24\000"
 1593 05ac 0C       		.byte	0xc
 1594 05ad FE       		.byte	0xfe
 1595 05ae 0C050000 		.4byte	0x50c
 1596 05b2 20       		.byte	0x20
ARM GAS  /var/tmp//cclgCVgN.s 			page 29


 1597 05b3 14       		.uleb128 0x14
 1598 05b4 73323500 		.ascii	"s25\000"
 1599 05b8 0C       		.byte	0xc
 1600 05b9 FF       		.byte	0xff
 1601 05ba 0C050000 		.4byte	0x50c
 1602 05be 24       		.byte	0x24
 1603 05bf 0C       		.uleb128 0xc
 1604 05c0 73323600 		.ascii	"s26\000"
 1605 05c4 0C       		.byte	0xc
 1606 05c5 0001     		.2byte	0x100
 1607 05c7 0C050000 		.4byte	0x50c
 1608 05cb 28       		.byte	0x28
 1609 05cc 0C       		.uleb128 0xc
 1610 05cd 73323700 		.ascii	"s27\000"
 1611 05d1 0C       		.byte	0xc
 1612 05d2 0101     		.2byte	0x101
 1613 05d4 0C050000 		.4byte	0x50c
 1614 05d8 2C       		.byte	0x2c
 1615 05d9 0C       		.uleb128 0xc
 1616 05da 73323800 		.ascii	"s28\000"
 1617 05de 0C       		.byte	0xc
 1618 05df 0201     		.2byte	0x102
 1619 05e1 0C050000 		.4byte	0x50c
 1620 05e5 30       		.byte	0x30
 1621 05e6 0C       		.uleb128 0xc
 1622 05e7 73323900 		.ascii	"s29\000"
 1623 05eb 0C       		.byte	0xc
 1624 05ec 0301     		.2byte	0x103
 1625 05ee 0C050000 		.4byte	0x50c
 1626 05f2 34       		.byte	0x34
 1627 05f3 0C       		.uleb128 0xc
 1628 05f4 73333000 		.ascii	"s30\000"
 1629 05f8 0C       		.byte	0xc
 1630 05f9 0401     		.2byte	0x104
 1631 05fb 0C050000 		.4byte	0x50c
 1632 05ff 38       		.byte	0x38
 1633 0600 0C       		.uleb128 0xc
 1634 0601 73333100 		.ascii	"s31\000"
 1635 0605 0C       		.byte	0xc
 1636 0606 0501     		.2byte	0x105
 1637 0608 0C050000 		.4byte	0x50c
 1638 060c 3C       		.byte	0x3c
 1639 060d 0C       		.uleb128 0xc
 1640 060e 723400   		.ascii	"r4\000"
 1641 0611 0C       		.byte	0xc
 1642 0612 0701     		.2byte	0x107
 1643 0614 0C050000 		.4byte	0x50c
 1644 0618 40       		.byte	0x40
 1645 0619 0C       		.uleb128 0xc
 1646 061a 723500   		.ascii	"r5\000"
 1647 061d 0C       		.byte	0xc
 1648 061e 0801     		.2byte	0x108
 1649 0620 0C050000 		.4byte	0x50c
 1650 0624 44       		.byte	0x44
 1651 0625 0C       		.uleb128 0xc
 1652 0626 723600   		.ascii	"r6\000"
 1653 0629 0C       		.byte	0xc
ARM GAS  /var/tmp//cclgCVgN.s 			page 30


 1654 062a 0901     		.2byte	0x109
 1655 062c 0C050000 		.4byte	0x50c
 1656 0630 48       		.byte	0x48
 1657 0631 0C       		.uleb128 0xc
 1658 0632 723700   		.ascii	"r7\000"
 1659 0635 0C       		.byte	0xc
 1660 0636 0A01     		.2byte	0x10a
 1661 0638 0C050000 		.4byte	0x50c
 1662 063c 4C       		.byte	0x4c
 1663 063d 0C       		.uleb128 0xc
 1664 063e 723800   		.ascii	"r8\000"
 1665 0641 0C       		.byte	0xc
 1666 0642 0B01     		.2byte	0x10b
 1667 0644 0C050000 		.4byte	0x50c
 1668 0648 50       		.byte	0x50
 1669 0649 0C       		.uleb128 0xc
 1670 064a 723900   		.ascii	"r9\000"
 1671 064d 0C       		.byte	0xc
 1672 064e 0C01     		.2byte	0x10c
 1673 0650 0C050000 		.4byte	0x50c
 1674 0654 54       		.byte	0x54
 1675 0655 0C       		.uleb128 0xc
 1676 0656 72313000 		.ascii	"r10\000"
 1677 065a 0C       		.byte	0xc
 1678 065b 0D01     		.2byte	0x10d
 1679 065d 0C050000 		.4byte	0x50c
 1680 0661 58       		.byte	0x58
 1681 0662 0C       		.uleb128 0xc
 1682 0663 72313100 		.ascii	"r11\000"
 1683 0667 0C       		.byte	0xc
 1684 0668 0E01     		.2byte	0x10e
 1685 066a 0C050000 		.4byte	0x50c
 1686 066e 5C       		.byte	0x5c
 1687 066f 0C       		.uleb128 0xc
 1688 0670 6C7200   		.ascii	"lr\000"
 1689 0673 0C       		.byte	0xc
 1690 0674 0F01     		.2byte	0x10f
 1691 0676 0C050000 		.4byte	0x50c
 1692 067a 60       		.byte	0x60
 1693 067b 00       		.byte	0
 1694 067c 0E       		.uleb128 0xe
 1695 067d 04       		.byte	0x4
 1696 067e 3B050000 		.4byte	0x53b
 1697 0682 15       		.uleb128 0x15
 1698 0683 04       		.byte	0x4
 1699 0684 0D       		.byte	0xd
 1700 0685 38       		.byte	0x38
 1701 0686 97060000 		.4byte	0x697
 1702 068a 0B       		.uleb128 0xb
 1703 068b 02080000 		.4byte	.LASF103
 1704 068f 0D       		.byte	0xd
 1705 0690 3C       		.byte	0x3c
 1706 0691 6B010000 		.4byte	0x16b
 1707 0695 00       		.byte	0
 1708 0696 00       		.byte	0
 1709 0697 03       		.uleb128 0x3
 1710 0698 86050000 		.4byte	.LASF104
ARM GAS  /var/tmp//cclgCVgN.s 			page 31


 1711 069c 0D       		.byte	0xd
 1712 069d 3D       		.byte	0x3d
 1713 069e 82060000 		.4byte	0x682
 1714 06a2 16       		.uleb128 0x16
 1715 06a3 04       		.byte	0x4
 1716 06a4 0A       		.byte	0xa
 1717 06a5 FA       		.byte	0xfa
 1718 06a6 FF060000 		.4byte	0x6ff
 1719 06aa 17       		.uleb128 0x17
 1720 06ab 1A000000 		.4byte	.LASF105
 1721 06af 0A       		.byte	0xa
 1722 06b0 0101     		.2byte	0x101
 1723 06b2 AD010000 		.4byte	0x1ad
 1724 06b6 17       		.uleb128 0x17
 1725 06b7 85000000 		.4byte	.LASF106
 1726 06bb 0A       		.byte	0xa
 1727 06bc 0801     		.2byte	0x108
 1728 06be AD010000 		.4byte	0x1ad
 1729 06c2 17       		.uleb128 0x17
 1730 06c3 E6080000 		.4byte	.LASF107
 1731 06c7 0A       		.byte	0xa
 1732 06c8 0F01     		.2byte	0x10f
 1733 06ca D6030000 		.4byte	0x3d6
 1734 06ce 17       		.uleb128 0x17
 1735 06cf 9C010000 		.4byte	.LASF108
 1736 06d3 0A       		.byte	0xa
 1737 06d4 1601     		.2byte	0x116
 1738 06d6 FF060000 		.4byte	0x6ff
 1739 06da 17       		.uleb128 0x17
 1740 06db 6B020000 		.4byte	.LASF109
 1741 06df 0A       		.byte	0xa
 1742 06e0 1E01     		.2byte	0x11e
 1743 06e2 2A070000 		.4byte	0x72a
 1744 06e6 17       		.uleb128 0x17
 1745 06e7 F1070000 		.4byte	.LASF110
 1746 06eb 0A       		.byte	0xa
 1747 06ec 2701     		.2byte	0x127
 1748 06ee 61070000 		.4byte	0x761
 1749 06f2 17       		.uleb128 0x17
 1750 06f3 9D060000 		.4byte	.LASF111
 1751 06f7 0A       		.byte	0xa
 1752 06f8 2F01     		.2byte	0x12f
 1753 06fa B8010000 		.4byte	0x1b8
 1754 06fe 00       		.byte	0
 1755 06ff 0E       		.uleb128 0xe
 1756 0700 04       		.byte	0x4
 1757 0701 EE020000 		.4byte	0x2ee
 1758 0705 0A       		.uleb128 0xa
 1759 0706 05070000 		.4byte	.LASF112
 1760 070a 0C       		.byte	0xc
 1761 070b 0E       		.byte	0xe
 1762 070c 34       		.byte	0x34
 1763 070d 2A070000 		.4byte	0x72a
 1764 0711 0B       		.uleb128 0xb
 1765 0712 DA010000 		.4byte	.LASF113
 1766 0716 0E       		.byte	0xe
 1767 0717 35       		.byte	0x35
ARM GAS  /var/tmp//cclgCVgN.s 			page 32


 1768 0718 23030000 		.4byte	0x323
 1769 071c 00       		.byte	0
 1770 071d 0B       		.uleb128 0xb
 1771 071e AD020000 		.4byte	.LASF114
 1772 0722 0E       		.byte	0xe
 1773 0723 37       		.byte	0x37
 1774 0724 C3010000 		.4byte	0x1c3
 1775 0728 08       		.byte	0x8
 1776 0729 00       		.byte	0
 1777 072a 0E       		.uleb128 0xe
 1778 072b 04       		.byte	0x4
 1779 072c 05070000 		.4byte	0x705
 1780 0730 0A       		.uleb128 0xa
 1781 0731 89080000 		.4byte	.LASF115
 1782 0735 10       		.byte	0x10
 1783 0736 0F       		.byte	0xf
 1784 0737 39       		.byte	0x39
 1785 0738 61070000 		.4byte	0x761
 1786 073c 0B       		.uleb128 0xb
 1787 073d 52010000 		.4byte	.LASF116
 1788 0741 0F       		.byte	0xf
 1789 0742 3A       		.byte	0x3a
 1790 0743 23030000 		.4byte	0x323
 1791 0747 00       		.byte	0
 1792 0748 0B       		.uleb128 0xb
 1793 0749 2D090000 		.4byte	.LASF117
 1794 074d 0F       		.byte	0xf
 1795 074e 3C       		.byte	0x3c
 1796 074f F9020000 		.4byte	0x2f9
 1797 0753 08       		.byte	0x8
 1798 0754 0B       		.uleb128 0xb
 1799 0755 C1070000 		.4byte	.LASF118
 1800 0759 0F       		.byte	0xf
 1801 075a 3E       		.byte	0x3e
 1802 075b B6080000 		.4byte	0x8b6
 1803 075f 0C       		.byte	0xc
 1804 0760 00       		.byte	0
 1805 0761 0E       		.uleb128 0xe
 1806 0762 04       		.byte	0x4
 1807 0763 30070000 		.4byte	0x730
 1808 0767 0E       		.uleb128 0xe
 1809 0768 04       		.byte	0x4
 1810 0769 79070000 		.4byte	0x779
 1811 076d 05       		.uleb128 0x5
 1812 076e 67070000 		.4byte	0x767
 1813 0772 02       		.uleb128 0x2
 1814 0773 01       		.byte	0x1
 1815 0774 08       		.byte	0x8
 1816 0775 7B070000 		.4byte	.LASF119
 1817 0779 18       		.uleb128 0x18
 1818 077a 72070000 		.4byte	0x772
 1819 077e 0E       		.uleb128 0xe
 1820 077f 04       		.byte	0x4
 1821 0780 D8030000 		.4byte	0x3d8
 1822 0784 19       		.uleb128 0x19
 1823 0785 17050000 		.4byte	0x517
 1824 0789 94070000 		.4byte	0x794
ARM GAS  /var/tmp//cclgCVgN.s 			page 33


 1825 078d 1A       		.uleb128 0x1a
 1826 078e F4000000 		.4byte	0xf4
 1827 0792 3A       		.byte	0x3a
 1828 0793 00       		.byte	0
 1829 0794 1B       		.uleb128 0x1b
 1830 0795 636800   		.ascii	"ch\000"
 1831 0798 0A       		.byte	0xa
 1832 0799 0902     		.2byte	0x209
 1833 079b A5040000 		.4byte	0x4a5
 1834 079f 15       		.uleb128 0x15
 1835 07a0 16       		.byte	0x16
 1836 07a1 10       		.byte	0x10
 1837 07a2 34       		.byte	0x34
 1838 07a3 80080000 		.4byte	0x880
 1839 07a7 0B       		.uleb128 0xb
 1840 07a8 35090000 		.4byte	.LASF120
 1841 07ac 10       		.byte	0x10
 1842 07ad 35       		.byte	0x35
 1843 07ae 80080000 		.4byte	0x880
 1844 07b2 00       		.byte	0
 1845 07b3 0B       		.uleb128 0xb
 1846 07b4 D5040000 		.4byte	.LASF121
 1847 07b8 10       		.byte	0x10
 1848 07b9 36       		.byte	0x36
 1849 07ba AD000000 		.4byte	0xad
 1850 07be 04       		.byte	0x4
 1851 07bf 0B       		.uleb128 0xb
 1852 07c0 51070000 		.4byte	.LASF122
 1853 07c4 10       		.byte	0x10
 1854 07c5 37       		.byte	0x37
 1855 07c6 AD000000 		.4byte	0xad
 1856 07ca 05       		.byte	0x5
 1857 07cb 0B       		.uleb128 0xb
 1858 07cc 92060000 		.4byte	.LASF123
 1859 07d0 10       		.byte	0x10
 1860 07d1 38       		.byte	0x38
 1861 07d2 C3000000 		.4byte	0xc3
 1862 07d6 06       		.byte	0x6
 1863 07d7 0B       		.uleb128 0xb
 1864 07d8 22060000 		.4byte	.LASF124
 1865 07dc 10       		.byte	0x10
 1866 07dd 39       		.byte	0x39
 1867 07de AD000000 		.4byte	0xad
 1868 07e2 08       		.byte	0x8
 1869 07e3 0B       		.uleb128 0xb
 1870 07e4 5A050000 		.4byte	.LASF125
 1871 07e8 10       		.byte	0x10
 1872 07e9 3A       		.byte	0x3a
 1873 07ea AD000000 		.4byte	0xad
 1874 07ee 09       		.byte	0x9
 1875 07ef 0B       		.uleb128 0xb
 1876 07f0 77000000 		.4byte	.LASF126
 1877 07f4 10       		.byte	0x10
 1878 07f5 3B       		.byte	0x3b
 1879 07f6 AD000000 		.4byte	0xad
 1880 07fa 0A       		.byte	0xa
 1881 07fb 0B       		.uleb128 0xb
ARM GAS  /var/tmp//cclgCVgN.s 			page 34


 1882 07fc 2D070000 		.4byte	.LASF127
 1883 0800 10       		.byte	0x10
 1884 0801 3C       		.byte	0x3c
 1885 0802 AD000000 		.4byte	0xad
 1886 0806 0B       		.byte	0xb
 1887 0807 0B       		.uleb128 0xb
 1888 0808 7E080000 		.4byte	.LASF128
 1889 080c 10       		.byte	0x10
 1890 080d 3D       		.byte	0x3d
 1891 080e AD000000 		.4byte	0xad
 1892 0812 0C       		.byte	0xc
 1893 0813 0B       		.uleb128 0xb
 1894 0814 F8060000 		.4byte	.LASF129
 1895 0818 10       		.byte	0x10
 1896 0819 3E       		.byte	0x3e
 1897 081a AD000000 		.4byte	0xad
 1898 081e 0D       		.byte	0xd
 1899 081f 0B       		.uleb128 0xb
 1900 0820 00000000 		.4byte	.LASF130
 1901 0824 10       		.byte	0x10
 1902 0825 3F       		.byte	0x3f
 1903 0826 AD000000 		.4byte	0xad
 1904 082a 0E       		.byte	0xe
 1905 082b 0B       		.uleb128 0xb
 1906 082c 66050000 		.4byte	.LASF131
 1907 0830 10       		.byte	0x10
 1908 0831 40       		.byte	0x40
 1909 0832 AD000000 		.4byte	0xad
 1910 0836 0F       		.byte	0xf
 1911 0837 0B       		.uleb128 0xb
 1912 0838 2D010000 		.4byte	.LASF132
 1913 083c 10       		.byte	0x10
 1914 083d 41       		.byte	0x41
 1915 083e AD000000 		.4byte	0xad
 1916 0842 10       		.byte	0x10
 1917 0843 0B       		.uleb128 0xb
 1918 0844 E7000000 		.4byte	.LASF133
 1919 0848 10       		.byte	0x10
 1920 0849 43       		.byte	0x43
 1921 084a AD000000 		.4byte	0xad
 1922 084e 11       		.byte	0x11
 1923 084f 0B       		.uleb128 0xb
 1924 0850 3D010000 		.4byte	.LASF134
 1925 0854 10       		.byte	0x10
 1926 0855 44       		.byte	0x44
 1927 0856 AD000000 		.4byte	0xad
 1928 085a 12       		.byte	0x12
 1929 085b 0B       		.uleb128 0xb
 1930 085c DD040000 		.4byte	.LASF135
 1931 0860 10       		.byte	0x10
 1932 0861 45       		.byte	0x45
 1933 0862 AD000000 		.4byte	0xad
 1934 0866 13       		.byte	0x13
 1935 0867 0B       		.uleb128 0xb
 1936 0868 B3060000 		.4byte	.LASF136
 1937 086c 10       		.byte	0x10
 1938 086d 46       		.byte	0x46
ARM GAS  /var/tmp//cclgCVgN.s 			page 35


 1939 086e AD000000 		.4byte	0xad
 1940 0872 14       		.byte	0x14
 1941 0873 0B       		.uleb128 0xb
 1942 0874 56030000 		.4byte	.LASF137
 1943 0878 10       		.byte	0x10
 1944 0879 48       		.byte	0x48
 1945 087a AD000000 		.4byte	0xad
 1946 087e 15       		.byte	0x15
 1947 087f 00       		.byte	0
 1948 0880 19       		.uleb128 0x19
 1949 0881 72070000 		.4byte	0x772
 1950 0885 90080000 		.4byte	0x890
 1951 0889 1A       		.uleb128 0x1a
 1952 088a F4000000 		.4byte	0xf4
 1953 088e 03       		.byte	0x3
 1954 088f 00       		.byte	0
 1955 0890 03       		.uleb128 0x3
 1956 0891 C8010000 		.4byte	.LASF138
 1957 0895 10       		.byte	0x10
 1958 0896 49       		.byte	0x49
 1959 0897 9F070000 		.4byte	0x79f
 1960 089b 18       		.uleb128 0x18
 1961 089c 90080000 		.4byte	0x890
 1962 08a0 07       		.uleb128 0x7
 1963 08a1 96020000 		.4byte	.LASF139
 1964 08a5 10       		.byte	0x10
 1965 08a6 6E       		.byte	0x6e
 1966 08a7 9B080000 		.4byte	0x89b
 1967 08ab 03       		.uleb128 0x3
 1968 08ac 19020000 		.4byte	.LASF140
 1969 08b0 0F       		.byte	0xf
 1970 08b1 34       		.byte	0x34
 1971 08b2 30070000 		.4byte	0x730
 1972 08b6 0E       		.uleb128 0xe
 1973 08b7 04       		.byte	0x4
 1974 08b8 AB080000 		.4byte	0x8ab
 1975 08bc 0E       		.uleb128 0xe
 1976 08bd 04       		.byte	0x4
 1977 08be AD000000 		.4byte	0xad
 1978 08c2 02       		.uleb128 0x2
 1979 08c3 04       		.byte	0x4
 1980 08c4 04       		.byte	0x4
 1981 08c5 C8050000 		.4byte	.LASF141
 1982 08c9 02       		.uleb128 0x2
 1983 08ca 01       		.byte	0x1
 1984 08cb 02       		.byte	0x2
 1985 08cc 59070000 		.4byte	.LASF142
 1986 08d0 07       		.uleb128 0x7
 1987 08d1 C6020000 		.4byte	.LASF143
 1988 08d5 11       		.byte	0x11
 1989 08d6 A0       		.byte	0xa0
 1990 08d7 C9080000 		.4byte	0x8c9
 1991 08db 1C       		.uleb128 0x1c
 1992 08dc 99080000 		.4byte	.LASF144
 1993 08e0 01       		.byte	0x1
 1994 08e1 24       		.byte	0x24
 1995 08e2 C3000000 		.4byte	0xc3
ARM GAS  /var/tmp//cclgCVgN.s 			page 36


 1996 08e6 05       		.uleb128 0x5
 1997 08e7 03       		.byte	0x3
 1998 08e8 00000000 		.4byte	DataVar
 1999 08ec 19       		.uleb128 0x19
 2000 08ed C3000000 		.4byte	0xc3
 2001 08f1 FD080000 		.4byte	0x8fd
 2002 08f5 1D       		.uleb128 0x1d
 2003 08f6 F4000000 		.4byte	0xf4
 2004 08fa 1D01     		.2byte	0x11d
 2005 08fc 00       		.byte	0
 2006 08fd 07       		.uleb128 0x7
 2007 08fe 11080000 		.4byte	.LASF145
 2008 0902 01       		.byte	0x1
 2009 0903 27       		.byte	0x27
 2010 0904 EC080000 		.4byte	0x8ec
 2011 0908 1E       		.uleb128 0x1e
 2012 0909 65010000 		.4byte	.LASF149
 2013 090d 01       		.byte	0x1
 2014 090e 6A02     		.2byte	0x26a
 2015 0910 C3000000 		.4byte	0xc3
 2016 0914 01       		.byte	0x1
 2017 0915 4A090000 		.4byte	0x94a
 2018 0919 1F       		.uleb128 0x1f
 2019 091a 8F010000 		.4byte	.LASF146
 2020 091e 01       		.byte	0x1
 2021 091f 6A02     		.2byte	0x26a
 2022 0921 DE000000 		.4byte	0xde
 2023 0925 1F       		.uleb128 0x1f
 2024 0926 90070000 		.4byte	.LASF147
 2025 092a 01       		.byte	0x1
 2026 092b 6A02     		.2byte	0x26a
 2027 092d AD000000 		.4byte	0xad
 2028 0931 20       		.uleb128 0x20
 2029 0932 0D060000 		.4byte	.LASF148
 2030 0936 01       		.byte	0x1
 2031 0937 6B02     		.2byte	0x26b
 2032 0939 BC080000 		.4byte	0x8bc
 2033 093d 21       		.uleb128 0x21
 2034 093e 22       		.uleb128 0x22
 2035 093f 6900     		.ascii	"i\000"
 2036 0941 01       		.byte	0x1
 2037 0942 6D02     		.2byte	0x26d
 2038 0944 A6000000 		.4byte	0xa6
 2039 0948 00       		.byte	0
 2040 0949 00       		.byte	0
 2041 094a 1E       		.uleb128 0x1e
 2042 094b 7B020000 		.4byte	.LASF150
 2043 094f 01       		.byte	0x1
 2044 0950 0D02     		.2byte	0x20d
 2045 0952 C3000000 		.4byte	0xc3
 2046 0956 01       		.byte	0x1
 2047 0957 C8090000 		.4byte	0x9c8
 2048 095b 1F       		.uleb128 0x1f
 2049 095c 62030000 		.4byte	.LASF151
 2050 0960 01       		.byte	0x1
 2051 0961 0D02     		.2byte	0x20d
 2052 0963 C3000000 		.4byte	0xc3
ARM GAS  /var/tmp//cclgCVgN.s 			page 37


 2053 0967 1F       		.uleb128 0x1f
 2054 0968 AF080000 		.4byte	.LASF152
 2055 096c 01       		.byte	0x1
 2056 096d 0D02     		.2byte	0x20d
 2057 096f C3000000 		.4byte	0xc3
 2058 0973 20       		.uleb128 0x20
 2059 0974 B6000000 		.4byte	.LASF153
 2060 0978 01       		.byte	0x1
 2061 0979 0F02     		.2byte	0x20f
 2062 097b 55010000 		.4byte	0x155
 2063 097f 20       		.uleb128 0x20
 2064 0980 1A050000 		.4byte	.LASF154
 2065 0984 01       		.byte	0x1
 2066 0985 1002     		.2byte	0x210
 2067 0987 DE000000 		.4byte	0xde
 2068 098b 20       		.uleb128 0x20
 2069 098c 08030000 		.4byte	.LASF155
 2070 0990 01       		.byte	0x1
 2071 0991 1102     		.2byte	0x211
 2072 0993 C3000000 		.4byte	0xc3
 2073 0997 20       		.uleb128 0x20
 2074 0998 71070000 		.4byte	.LASF156
 2075 099c 01       		.byte	0x1
 2076 099d 1202     		.2byte	0x212
 2077 099f C3000000 		.4byte	0xc3
 2078 09a3 20       		.uleb128 0x20
 2079 09a4 99000000 		.4byte	.LASF157
 2080 09a8 01       		.byte	0x1
 2081 09a9 1202     		.2byte	0x212
 2082 09ab C3000000 		.4byte	0xc3
 2083 09af 20       		.uleb128 0x20
 2084 09b0 CA060000 		.4byte	.LASF158
 2085 09b4 01       		.byte	0x1
 2086 09b5 1302     		.2byte	0x213
 2087 09b7 C3000000 		.4byte	0xc3
 2088 09bb 20       		.uleb128 0x20
 2089 09bc 8C030000 		.4byte	.LASF159
 2090 09c0 01       		.byte	0x1
 2091 09c1 1302     		.2byte	0x213
 2092 09c3 C3000000 		.4byte	0xc3
 2093 09c7 00       		.byte	0
 2094 09c8 23       		.uleb128 0x23
 2095 09c9 B4080000 		.4byte	.LASF179
 2096 09cd 01       		.byte	0x1
 2097 09ce D001     		.2byte	0x1d0
 2098 09d0 C3000000 		.4byte	0xc3
 2099 09d4 00000000 		.4byte	.LFB224
 2100 09d8 7C000000 		.4byte	.LFE224-.LFB224
 2101 09dc 01       		.uleb128 0x1
 2102 09dd 9C       		.byte	0x9c
 2103 09de A30A0000 		.4byte	0xaa3
 2104 09e2 24       		.uleb128 0x24
 2105 09e3 62030000 		.4byte	.LASF151
 2106 09e7 01       		.byte	0x1
 2107 09e8 D001     		.2byte	0x1d0
 2108 09ea C3000000 		.4byte	0xc3
 2109 09ee 00000000 		.4byte	.LLST0
ARM GAS  /var/tmp//cclgCVgN.s 			page 38


 2110 09f2 24       		.uleb128 0x24
 2111 09f3 AF080000 		.4byte	.LASF152
 2112 09f7 01       		.byte	0x1
 2113 09f8 D001     		.2byte	0x1d0
 2114 09fa C3000000 		.4byte	0xc3
 2115 09fe 53000000 		.4byte	.LLST1
 2116 0a02 25       		.uleb128 0x25
 2117 0a03 B6000000 		.4byte	.LASF153
 2118 0a07 01       		.byte	0x1
 2119 0a08 D201     		.2byte	0x1d2
 2120 0a0a 55010000 		.4byte	0x155
 2121 0a0e 8D000000 		.4byte	.LLST2
 2122 0a12 25       		.uleb128 0x25
 2123 0a13 71070000 		.4byte	.LASF156
 2124 0a17 01       		.byte	0x1
 2125 0a18 D301     		.2byte	0x1d3
 2126 0a1a C3000000 		.4byte	0xc3
 2127 0a1e C3000000 		.4byte	.LLST3
 2128 0a22 25       		.uleb128 0x25
 2129 0a23 6E030000 		.4byte	.LASF160
 2130 0a27 01       		.byte	0x1
 2131 0a28 D401     		.2byte	0x1d4
 2132 0a2a DE000000 		.4byte	0xde
 2133 0a2e E3000000 		.4byte	.LLST4
 2134 0a32 25       		.uleb128 0x25
 2135 0a33 3F030000 		.4byte	.LASF161
 2136 0a37 01       		.byte	0x1
 2137 0a38 D401     		.2byte	0x1d4
 2138 0a3a DE000000 		.4byte	0xde
 2139 0a3e 21010000 		.4byte	.LLST5
 2140 0a42 26       		.uleb128 0x26
 2141 0a43 A30A0000 		.4byte	0xaa3
 2142 0a47 02000000 		.4byte	.LBB9
 2143 0a4b 00000000 		.4byte	.Ldebug_ranges0+0
 2144 0a4f 01       		.byte	0x1
 2145 0a50 D701     		.2byte	0x1d7
 2146 0a52 780A0000 		.4byte	0xa78
 2147 0a56 27       		.uleb128 0x27
 2148 0a57 B40A0000 		.4byte	0xab4
 2149 0a5b 5F010000 		.4byte	.LLST6
 2150 0a5f 28       		.uleb128 0x28
 2151 0a60 00000000 		.4byte	.Ldebug_ranges0+0
 2152 0a64 29       		.uleb128 0x29
 2153 0a65 C00A0000 		.4byte	0xac0
 2154 0a69 7F010000 		.4byte	.LLST7
 2155 0a6d 29       		.uleb128 0x29
 2156 0a6e CC0A0000 		.4byte	0xacc
 2157 0a72 A9010000 		.4byte	.LLST8
 2158 0a76 00       		.byte	0
 2159 0a77 00       		.byte	0
 2160 0a78 2A       		.uleb128 0x2a
 2161 0a79 44000000 		.4byte	.LVL7
 2162 0a7d 7E0F0000 		.4byte	0xf7e
 2163 0a81 8C0A0000 		.4byte	0xa8c
 2164 0a85 2B       		.uleb128 0x2b
 2165 0a86 01       		.uleb128 0x1
 2166 0a87 50       		.byte	0x50
ARM GAS  /var/tmp//cclgCVgN.s 			page 39


 2167 0a88 02       		.uleb128 0x2
 2168 0a89 74       		.byte	0x74
 2169 0a8a 00       		.sleb128 0
 2170 0a8b 00       		.byte	0
 2171 0a8c 2C       		.uleb128 0x2c
 2172 0a8d 6C000000 		.4byte	.LVL16
 2173 0a91 7E0F0000 		.4byte	0xf7e
 2174 0a95 2B       		.uleb128 0x2b
 2175 0a96 01       		.uleb128 0x1
 2176 0a97 50       		.byte	0x50
 2177 0a98 02       		.uleb128 0x2
 2178 0a99 74       		.byte	0x74
 2179 0a9a 02       		.sleb128 2
 2180 0a9b 2B       		.uleb128 0x2b
 2181 0a9c 01       		.uleb128 0x1
 2182 0a9d 51       		.byte	0x51
 2183 0a9e 02       		.uleb128 0x2
 2184 0a9f 75       		.byte	0x75
 2185 0aa0 00       		.sleb128 0
 2186 0aa1 00       		.byte	0
 2187 0aa2 00       		.byte	0
 2188 0aa3 1E       		.uleb128 0x1e
 2189 0aa4 F7020000 		.4byte	.LASF162
 2190 0aa8 01       		.byte	0x1
 2191 0aa9 8801     		.2byte	0x188
 2192 0aab C3000000 		.4byte	0xc3
 2193 0aaf 01       		.byte	0x1
 2194 0ab0 D90A0000 		.4byte	0xad9
 2195 0ab4 1F       		.uleb128 0x1f
 2196 0ab5 50060000 		.4byte	.LASF163
 2197 0ab9 01       		.byte	0x1
 2198 0aba 8801     		.2byte	0x188
 2199 0abc AD000000 		.4byte	0xad
 2200 0ac0 20       		.uleb128 0x20
 2201 0ac1 D6050000 		.4byte	.LASF164
 2202 0ac5 01       		.byte	0x1
 2203 0ac6 8A01     		.2byte	0x18a
 2204 0ac8 C3000000 		.4byte	0xc3
 2205 0acc 20       		.uleb128 0x20
 2206 0acd E2050000 		.4byte	.LASF165
 2207 0ad1 01       		.byte	0x1
 2208 0ad2 8A01     		.2byte	0x18a
 2209 0ad4 C3000000 		.4byte	0xc3
 2210 0ad8 00       		.byte	0
 2211 0ad9 1E       		.uleb128 0x1e
 2212 0ada B5010000 		.4byte	.LASF166
 2213 0ade 01       		.byte	0x1
 2214 0adf 6201     		.2byte	0x162
 2215 0ae1 55010000 		.4byte	0x155
 2216 0ae5 01       		.byte	0x1
 2217 0ae6 F70A0000 		.4byte	0xaf7
 2218 0aea 20       		.uleb128 0x20
 2219 0aeb B6000000 		.4byte	.LASF153
 2220 0aef 01       		.byte	0x1
 2221 0af0 6401     		.2byte	0x164
 2222 0af2 55010000 		.4byte	0x155
 2223 0af6 00       		.byte	0
ARM GAS  /var/tmp//cclgCVgN.s 			page 40


 2224 0af7 2D       		.uleb128 0x2d
 2225 0af8 66000000 		.4byte	.LASF168
 2226 0afc 01       		.byte	0x1
 2227 0afd 4A01     		.2byte	0x14a
 2228 0aff C3000000 		.4byte	0xc3
 2229 0b03 00000000 		.4byte	.LFB221
 2230 0b07 B0000000 		.4byte	.LFE221-.LFB221
 2231 0b0b 01       		.uleb128 0x1
 2232 0b0c 9C       		.byte	0x9c
 2233 0b0d 750C0000 		.4byte	0xc75
 2234 0b11 24       		.uleb128 0x24
 2235 0b12 62030000 		.4byte	.LASF151
 2236 0b16 01       		.byte	0x1
 2237 0b17 4A01     		.2byte	0x14a
 2238 0b19 C3000000 		.4byte	0xc3
 2239 0b1d D3010000 		.4byte	.LLST29
 2240 0b21 24       		.uleb128 0x24
 2241 0b22 AF080000 		.4byte	.LASF152
 2242 0b26 01       		.byte	0x1
 2243 0b27 4A01     		.2byte	0x14a
 2244 0b29 C3000000 		.4byte	0xc3
 2245 0b2d F4010000 		.4byte	.LLST30
 2246 0b31 25       		.uleb128 0x25
 2247 0b32 0F090000 		.4byte	.LASF167
 2248 0b36 01       		.byte	0x1
 2249 0b37 4C01     		.2byte	0x14c
 2250 0b39 C3000000 		.4byte	0xc3
 2251 0b3d 15020000 		.4byte	.LLST31
 2252 0b41 2E       		.uleb128 0x2e
 2253 0b42 4A090000 		.4byte	0x94a
 2254 0b46 14000000 		.4byte	.LBB25
 2255 0b4a 9C000000 		.4byte	.LBE25-.LBB25
 2256 0b4e 01       		.byte	0x1
 2257 0b4f 5501     		.2byte	0x155
 2258 0b51 5E0C0000 		.4byte	0xc5e
 2259 0b55 27       		.uleb128 0x27
 2260 0b56 67090000 		.4byte	0x967
 2261 0b5a 34020000 		.4byte	.LLST32
 2262 0b5e 2F       		.uleb128 0x2f
 2263 0b5f 5B090000 		.4byte	0x95b
 2264 0b63 01       		.uleb128 0x1
 2265 0b64 54       		.byte	0x54
 2266 0b65 30       		.uleb128 0x30
 2267 0b66 14000000 		.4byte	.LBB26
 2268 0b6a 9C000000 		.4byte	.LBE26-.LBB26
 2269 0b6e 29       		.uleb128 0x29
 2270 0b6f 73090000 		.4byte	0x973
 2271 0b73 52020000 		.4byte	.LLST33
 2272 0b77 29       		.uleb128 0x29
 2273 0b78 7F090000 		.4byte	0x97f
 2274 0b7c 9E020000 		.4byte	.LLST34
 2275 0b80 29       		.uleb128 0x29
 2276 0b81 8B090000 		.4byte	0x98b
 2277 0b85 DC020000 		.4byte	.LLST35
 2278 0b89 31       		.uleb128 0x31
 2279 0b8a 97090000 		.4byte	0x997
 2280 0b8e 00       		.byte	0
ARM GAS  /var/tmp//cclgCVgN.s 			page 41


 2281 0b8f 29       		.uleb128 0x29
 2282 0b90 A3090000 		.4byte	0x9a3
 2283 0b94 12030000 		.4byte	.LLST36
 2284 0b98 29       		.uleb128 0x29
 2285 0b99 AF090000 		.4byte	0x9af
 2286 0b9d 32030000 		.4byte	.LLST37
 2287 0ba1 29       		.uleb128 0x29
 2288 0ba2 BB090000 		.4byte	0x9bb
 2289 0ba6 68030000 		.4byte	.LLST38
 2290 0baa 2E       		.uleb128 0x2e
 2291 0bab A30A0000 		.4byte	0xaa3
 2292 0baf 14000000 		.4byte	.LBB27
 2293 0bb3 10000000 		.4byte	.LBE27-.LBB27
 2294 0bb7 01       		.byte	0x1
 2295 0bb8 1602     		.2byte	0x216
 2296 0bba E10B0000 		.4byte	0xbe1
 2297 0bbe 32       		.uleb128 0x32
 2298 0bbf B40A0000 		.4byte	0xab4
 2299 0bc3 00       		.byte	0
 2300 0bc4 30       		.uleb128 0x30
 2301 0bc5 14000000 		.4byte	.LBB28
 2302 0bc9 10000000 		.4byte	.LBE28-.LBB28
 2303 0bcd 29       		.uleb128 0x29
 2304 0bce C00A0000 		.4byte	0xac0
 2305 0bd2 93030000 		.4byte	.LLST39
 2306 0bd6 29       		.uleb128 0x29
 2307 0bd7 CC0A0000 		.4byte	0xacc
 2308 0bdb BD030000 		.4byte	.LLST40
 2309 0bdf 00       		.byte	0
 2310 0be0 00       		.byte	0
 2311 0be1 2A       		.uleb128 0x2a
 2312 0be2 36000000 		.4byte	.LVL103
 2313 0be6 7E0F0000 		.4byte	0xf7e
 2314 0bea FC0B0000 		.4byte	0xbfc
 2315 0bee 2B       		.uleb128 0x2b
 2316 0bef 01       		.uleb128 0x1
 2317 0bf0 50       		.byte	0x50
 2318 0bf1 02       		.uleb128 0x2
 2319 0bf2 76       		.byte	0x76
 2320 0bf3 00       		.sleb128 0
 2321 0bf4 2B       		.uleb128 0x2b
 2322 0bf5 01       		.uleb128 0x1
 2323 0bf6 51       		.byte	0x51
 2324 0bf7 03       		.uleb128 0x3
 2325 0bf8 0B       		.byte	0xb
 2326 0bf9 EEEE     		.2byte	0xeeee
 2327 0bfb 00       		.byte	0
 2328 0bfc 2A       		.uleb128 0x2a
 2329 0bfd 4C000000 		.4byte	.LVL108
 2330 0c01 C8090000 		.4byte	0x9c8
 2331 0c05 160C0000 		.4byte	0xc16
 2332 0c09 2B       		.uleb128 0x2b
 2333 0c0a 01       		.uleb128 0x1
 2334 0c0b 50       		.byte	0x50
 2335 0c0c 02       		.uleb128 0x2
 2336 0c0d 74       		.byte	0x74
 2337 0c0e 00       		.sleb128 0
ARM GAS  /var/tmp//cclgCVgN.s 			page 42


 2338 0c0f 2B       		.uleb128 0x2b
 2339 0c10 01       		.uleb128 0x1
 2340 0c11 51       		.byte	0x51
 2341 0c12 02       		.uleb128 0x2
 2342 0c13 75       		.byte	0x75
 2343 0c14 00       		.sleb128 0
 2344 0c15 00       		.byte	0
 2345 0c16 2A       		.uleb128 0x2a
 2346 0c17 70000000 		.4byte	.LVL111
 2347 0c1b 750C0000 		.4byte	0xc75
 2348 0c1f 2A0C0000 		.4byte	0xc2a
 2349 0c23 2B       		.uleb128 0x2b
 2350 0c24 01       		.uleb128 0x1
 2351 0c25 51       		.byte	0x51
 2352 0c26 02       		.uleb128 0x2
 2353 0c27 71       		.byte	0x71
 2354 0c28 00       		.sleb128 0
 2355 0c29 00       		.byte	0
 2356 0c2a 33       		.uleb128 0x33
 2357 0c2b 7E000000 		.4byte	.LVL113
 2358 0c2f C8090000 		.4byte	0x9c8
 2359 0c33 2A       		.uleb128 0x2a
 2360 0c34 8C000000 		.4byte	.LVL115
 2361 0c38 AC0E0000 		.4byte	0xeac
 2362 0c3c 470C0000 		.4byte	0xc47
 2363 0c40 2B       		.uleb128 0x2b
 2364 0c41 01       		.uleb128 0x1
 2365 0c42 50       		.byte	0x50
 2366 0c43 02       		.uleb128 0x2
 2367 0c44 77       		.byte	0x77
 2368 0c45 00       		.sleb128 0
 2369 0c46 00       		.byte	0
 2370 0c47 2C       		.uleb128 0x2c
 2371 0c48 9A000000 		.4byte	.LVL117
 2372 0c4c 7E0F0000 		.4byte	0xf7e
 2373 0c50 2B       		.uleb128 0x2b
 2374 0c51 01       		.uleb128 0x1
 2375 0c52 50       		.byte	0x50
 2376 0c53 02       		.uleb128 0x2
 2377 0c54 76       		.byte	0x76
 2378 0c55 00       		.sleb128 0
 2379 0c56 2B       		.uleb128 0x2b
 2380 0c57 01       		.uleb128 0x1
 2381 0c58 51       		.byte	0x51
 2382 0c59 01       		.uleb128 0x1
 2383 0c5a 30       		.byte	0x30
 2384 0c5b 00       		.byte	0
 2385 0c5c 00       		.byte	0
 2386 0c5d 00       		.byte	0
 2387 0c5e 2C       		.uleb128 0x2c
 2388 0c5f 0C000000 		.4byte	.LVL96
 2389 0c63 C8090000 		.4byte	0x9c8
 2390 0c67 2B       		.uleb128 0x2b
 2391 0c68 01       		.uleb128 0x1
 2392 0c69 50       		.byte	0x50
 2393 0c6a 02       		.uleb128 0x2
 2394 0c6b 74       		.byte	0x74
ARM GAS  /var/tmp//cclgCVgN.s 			page 43


 2395 0c6c 00       		.sleb128 0
 2396 0c6d 2B       		.uleb128 0x2b
 2397 0c6e 01       		.uleb128 0x1
 2398 0c6f 51       		.byte	0x51
 2399 0c70 02       		.uleb128 0x2
 2400 0c71 75       		.byte	0x75
 2401 0c72 00       		.sleb128 0
 2402 0c73 00       		.byte	0
 2403 0c74 00       		.byte	0
 2404 0c75 2D       		.uleb128 0x2d
 2405 0c76 4F080000 		.4byte	.LASF169
 2406 0c7a 01       		.byte	0x1
 2407 0c7b 0F01     		.2byte	0x10f
 2408 0c7d C3000000 		.4byte	0xc3
 2409 0c81 00000000 		.4byte	.LFB220
 2410 0c85 70000000 		.4byte	.LFE220-.LFB220
 2411 0c89 01       		.uleb128 0x1
 2412 0c8a 9C       		.byte	0x9c
 2413 0c8b 300D0000 		.4byte	0xd30
 2414 0c8f 24       		.uleb128 0x24
 2415 0c90 62030000 		.4byte	.LASF151
 2416 0c94 01       		.byte	0x1
 2417 0c95 0F01     		.2byte	0x10f
 2418 0c97 C3000000 		.4byte	0xc3
 2419 0c9b E7030000 		.4byte	.LLST13
 2420 0c9f 34       		.uleb128 0x34
 2421 0ca0 AF080000 		.4byte	.LASF152
 2422 0ca4 01       		.byte	0x1
 2423 0ca5 0F01     		.2byte	0x10f
 2424 0ca7 300D0000 		.4byte	0xd30
 2425 0cab 01       		.uleb128 0x1
 2426 0cac 51       		.byte	0x51
 2427 0cad 25       		.uleb128 0x25
 2428 0cae 71070000 		.4byte	.LASF156
 2429 0cb2 01       		.byte	0x1
 2430 0cb3 1101     		.2byte	0x111
 2431 0cb5 C3000000 		.4byte	0xc3
 2432 0cb9 3A040000 		.4byte	.LLST14
 2433 0cbd 25       		.uleb128 0x25
 2434 0cbe 43060000 		.4byte	.LASF170
 2435 0cc2 01       		.byte	0x1
 2436 0cc3 1201     		.2byte	0x112
 2437 0cc5 C3000000 		.4byte	0xc3
 2438 0cc9 5A040000 		.4byte	.LLST15
 2439 0ccd 25       		.uleb128 0x25
 2440 0cce 8C030000 		.4byte	.LASF159
 2441 0cd2 01       		.byte	0x1
 2442 0cd3 1201     		.2byte	0x112
 2443 0cd5 C3000000 		.4byte	0xc3
 2444 0cd9 94040000 		.4byte	.LLST16
 2445 0cdd 25       		.uleb128 0x25
 2446 0cde 6E030000 		.4byte	.LASF160
 2447 0ce2 01       		.byte	0x1
 2448 0ce3 1301     		.2byte	0x113
 2449 0ce5 DE000000 		.4byte	0xde
 2450 0ce9 B4040000 		.4byte	.LLST17
 2451 0ced 25       		.uleb128 0x25
ARM GAS  /var/tmp//cclgCVgN.s 			page 44


 2452 0cee 49050000 		.4byte	.LASF171
 2453 0cf2 01       		.byte	0x1
 2454 0cf3 1301     		.2byte	0x113
 2455 0cf5 DE000000 		.4byte	0xde
 2456 0cf9 E7040000 		.4byte	.LLST18
 2457 0cfd 35       		.uleb128 0x35
 2458 0cfe A30A0000 		.4byte	0xaa3
 2459 0d02 00000000 		.4byte	.LBB17
 2460 0d06 18000000 		.4byte	.Ldebug_ranges0+0x18
 2461 0d0a 01       		.byte	0x1
 2462 0d0b 1601     		.2byte	0x116
 2463 0d0d 27       		.uleb128 0x27
 2464 0d0e B40A0000 		.4byte	0xab4
 2465 0d12 3A040000 		.4byte	.LLST14
 2466 0d16 28       		.uleb128 0x28
 2467 0d17 18000000 		.4byte	.Ldebug_ranges0+0x18
 2468 0d1b 29       		.uleb128 0x29
 2469 0d1c C00A0000 		.4byte	0xac0
 2470 0d20 0F050000 		.4byte	.LLST20
 2471 0d24 29       		.uleb128 0x29
 2472 0d25 CC0A0000 		.4byte	0xacc
 2473 0d29 44050000 		.4byte	.LLST21
 2474 0d2d 00       		.byte	0
 2475 0d2e 00       		.byte	0
 2476 0d2f 00       		.byte	0
 2477 0d30 0E       		.uleb128 0xe
 2478 0d31 04       		.byte	0x4
 2479 0d32 C3000000 		.4byte	0xc3
 2480 0d36 36       		.uleb128 0x36
 2481 0d37 4E030000 		.4byte	.LASF172
 2482 0d3b 01       		.byte	0x1
 2483 0d3c 38       		.byte	0x38
 2484 0d3d C3000000 		.4byte	0xc3
 2485 0d41 00000000 		.4byte	.LFB219
 2486 0d45 54010000 		.4byte	.LFE219-.LFB219
 2487 0d49 01       		.uleb128 0x1
 2488 0d4a 9C       		.byte	0x9c
 2489 0d4b AC0E0000 		.4byte	0xeac
 2490 0d4f 37       		.uleb128 0x37
 2491 0d50 D6050000 		.4byte	.LASF164
 2492 0d54 01       		.byte	0x1
 2493 0d55 3A       		.byte	0x3a
 2494 0d56 C3000000 		.4byte	0xc3
 2495 0d5a 79050000 		.4byte	.LLST22
 2496 0d5e 37       		.uleb128 0x37
 2497 0d5f E2050000 		.4byte	.LASF165
 2498 0d63 01       		.byte	0x1
 2499 0d64 3A       		.byte	0x3a
 2500 0d65 C3000000 		.4byte	0xc3
 2501 0d69 B9050000 		.4byte	.LLST23
 2502 0d6d 37       		.uleb128 0x37
 2503 0d6e 99000000 		.4byte	.LASF157
 2504 0d72 01       		.byte	0x1
 2505 0d73 3B       		.byte	0x3b
 2506 0d74 C3000000 		.4byte	0xc3
 2507 0d78 04060000 		.4byte	.LLST24
 2508 0d7c 37       		.uleb128 0x37
ARM GAS  /var/tmp//cclgCVgN.s 			page 45


 2509 0d7d CA060000 		.4byte	.LASF158
 2510 0d81 01       		.byte	0x1
 2511 0d82 3C       		.byte	0x3c
 2512 0d83 C3000000 		.4byte	0xc3
 2513 0d87 52060000 		.4byte	.LLST25
 2514 0d8b 37       		.uleb128 0x37
 2515 0d8c 8C030000 		.4byte	.LASF159
 2516 0d90 01       		.byte	0x1
 2517 0d91 3C       		.byte	0x3c
 2518 0d92 C3000000 		.4byte	0xc3
 2519 0d96 A0060000 		.4byte	.LLST26
 2520 0d9a 38       		.uleb128 0x38
 2521 0d9b 7800     		.ascii	"x\000"
 2522 0d9d 01       		.byte	0x1
 2523 0d9e 3D       		.byte	0x3d
 2524 0d9f B8000000 		.4byte	0xb8
 2525 0da3 EE060000 		.4byte	.LLST27
 2526 0da7 37       		.uleb128 0x37
 2527 0da8 B6000000 		.4byte	.LASF153
 2528 0dac 01       		.byte	0x1
 2529 0dad 3E       		.byte	0x3e
 2530 0dae C3000000 		.4byte	0xc3
 2531 0db2 56070000 		.4byte	.LLST28
 2532 0db6 33       		.uleb128 0x33
 2533 0db7 26000000 		.4byte	.LVL57
 2534 0dbb D90A0000 		.4byte	0xad9
 2535 0dbf 2A       		.uleb128 0x2a
 2536 0dc0 68000000 		.4byte	.LVL64
 2537 0dc4 750C0000 		.4byte	0xc75
 2538 0dc8 D30D0000 		.4byte	0xdd3
 2539 0dcc 2B       		.uleb128 0x2b
 2540 0dcd 01       		.uleb128 0x1
 2541 0dce 51       		.byte	0x51
 2542 0dcf 02       		.uleb128 0x2
 2543 0dd0 71       		.byte	0x71
 2544 0dd1 00       		.sleb128 0
 2545 0dd2 00       		.byte	0
 2546 0dd3 33       		.uleb128 0x33
 2547 0dd4 74000000 		.4byte	.LVL66
 2548 0dd8 C8090000 		.4byte	0x9c8
 2549 0ddc 2A       		.uleb128 0x2a
 2550 0ddd 8A000000 		.4byte	.LVL68
 2551 0de1 AC0E0000 		.4byte	0xeac
 2552 0de5 EF0D0000 		.4byte	0xdef
 2553 0de9 2B       		.uleb128 0x2b
 2554 0dea 01       		.uleb128 0x1
 2555 0deb 50       		.byte	0x50
 2556 0dec 01       		.uleb128 0x1
 2557 0ded 38       		.byte	0x38
 2558 0dee 00       		.byte	0
 2559 0def 2A       		.uleb128 0x2a
 2560 0df0 96000000 		.4byte	.LVL70
 2561 0df4 7E0F0000 		.4byte	0xf7e
 2562 0df8 080E0000 		.4byte	0xe08
 2563 0dfc 2B       		.uleb128 0x2b
 2564 0dfd 01       		.uleb128 0x1
 2565 0dfe 50       		.byte	0x50
ARM GAS  /var/tmp//cclgCVgN.s 			page 46


 2566 0dff 02       		.uleb128 0x2
 2567 0e00 76       		.byte	0x76
 2568 0e01 00       		.sleb128 0
 2569 0e02 2B       		.uleb128 0x2b
 2570 0e03 01       		.uleb128 0x1
 2571 0e04 51       		.byte	0x51
 2572 0e05 01       		.uleb128 0x1
 2573 0e06 30       		.byte	0x30
 2574 0e07 00       		.byte	0
 2575 0e08 2A       		.uleb128 0x2a
 2576 0e09 D4000000 		.4byte	.LVL78
 2577 0e0d 750C0000 		.4byte	0xc75
 2578 0e11 1C0E0000 		.4byte	0xe1c
 2579 0e15 2B       		.uleb128 0x2b
 2580 0e16 01       		.uleb128 0x1
 2581 0e17 51       		.byte	0x51
 2582 0e18 02       		.uleb128 0x2
 2583 0e19 71       		.byte	0x71
 2584 0e1a 00       		.sleb128 0
 2585 0e1b 00       		.byte	0
 2586 0e1c 33       		.uleb128 0x33
 2587 0e1d E0000000 		.4byte	.LVL80
 2588 0e21 C8090000 		.4byte	0x9c8
 2589 0e25 2A       		.uleb128 0x2a
 2590 0e26 F6000000 		.4byte	.LVL82
 2591 0e2a AC0E0000 		.4byte	0xeac
 2592 0e2e 380E0000 		.4byte	0xe38
 2593 0e32 2B       		.uleb128 0x2b
 2594 0e33 01       		.uleb128 0x1
 2595 0e34 50       		.byte	0x50
 2596 0e35 01       		.uleb128 0x1
 2597 0e36 40       		.byte	0x40
 2598 0e37 00       		.byte	0
 2599 0e38 2A       		.uleb128 0x2a
 2600 0e39 02010000 		.4byte	.LVL84
 2601 0e3d 7E0F0000 		.4byte	0xf7e
 2602 0e41 510E0000 		.4byte	0xe51
 2603 0e45 2B       		.uleb128 0x2b
 2604 0e46 01       		.uleb128 0x1
 2605 0e47 50       		.byte	0x50
 2606 0e48 02       		.uleb128 0x2
 2607 0e49 75       		.byte	0x75
 2608 0e4a 00       		.sleb128 0
 2609 0e4b 2B       		.uleb128 0x2b
 2610 0e4c 01       		.uleb128 0x1
 2611 0e4d 51       		.byte	0x51
 2612 0e4e 01       		.uleb128 0x1
 2613 0e4f 30       		.byte	0x30
 2614 0e50 00       		.byte	0
 2615 0e51 2A       		.uleb128 0x2a
 2616 0e52 10010000 		.4byte	.LVL87
 2617 0e56 7E0F0000 		.4byte	0xf7e
 2618 0e5a 6D0E0000 		.4byte	0xe6d
 2619 0e5e 2B       		.uleb128 0x2b
 2620 0e5f 01       		.uleb128 0x1
 2621 0e60 50       		.byte	0x50
 2622 0e61 05       		.uleb128 0x5
ARM GAS  /var/tmp//cclgCVgN.s 			page 47


 2623 0e62 0C       		.byte	0xc
 2624 0e63 00800008 		.4byte	0x8008000
 2625 0e67 2B       		.uleb128 0x2b
 2626 0e68 01       		.uleb128 0x1
 2627 0e69 51       		.byte	0x51
 2628 0e6a 01       		.uleb128 0x1
 2629 0e6b 30       		.byte	0x30
 2630 0e6c 00       		.byte	0
 2631 0e6d 39       		.uleb128 0x39
 2632 0e6e 20010000 		.4byte	.LVL90
 2633 0e72 AC0E0000 		.4byte	0xeac
 2634 0e76 800E0000 		.4byte	0xe80
 2635 0e7a 2B       		.uleb128 0x2b
 2636 0e7b 01       		.uleb128 0x1
 2637 0e7c 50       		.byte	0x50
 2638 0e7d 01       		.uleb128 0x1
 2639 0e7e 38       		.byte	0x38
 2640 0e7f 00       		.byte	0
 2641 0e80 2A       		.uleb128 0x2a
 2642 0e81 28010000 		.4byte	.LVL91
 2643 0e85 7E0F0000 		.4byte	0xf7e
 2644 0e89 9C0E0000 		.4byte	0xe9c
 2645 0e8d 2B       		.uleb128 0x2b
 2646 0e8e 01       		.uleb128 0x1
 2647 0e8f 50       		.byte	0x50
 2648 0e90 05       		.uleb128 0x5
 2649 0e91 0C       		.byte	0xc
 2650 0e92 00400008 		.4byte	0x8004000
 2651 0e96 2B       		.uleb128 0x2b
 2652 0e97 01       		.uleb128 0x1
 2653 0e98 51       		.byte	0x51
 2654 0e99 01       		.uleb128 0x1
 2655 0e9a 30       		.byte	0x30
 2656 0e9b 00       		.byte	0
 2657 0e9c 3A       		.uleb128 0x3a
 2658 0e9d 3A010000 		.4byte	.LVL94
 2659 0ea1 AC0E0000 		.4byte	0xeac
 2660 0ea5 2B       		.uleb128 0x2b
 2661 0ea6 01       		.uleb128 0x1
 2662 0ea7 50       		.byte	0x50
 2663 0ea8 01       		.uleb128 0x1
 2664 0ea9 40       		.byte	0x40
 2665 0eaa 00       		.byte	0
 2666 0eab 00       		.byte	0
 2667 0eac 3B       		.uleb128 0x3b
 2668 0ead 08090000 		.4byte	0x908
 2669 0eb1 00000000 		.4byte	.LFB228
 2670 0eb5 2E000000 		.4byte	.LFE228-.LFB228
 2671 0eb9 01       		.uleb128 0x1
 2672 0eba 9C       		.byte	0x9c
 2673 0ebb 140F0000 		.4byte	0xf14
 2674 0ebf 27       		.uleb128 0x27
 2675 0ec0 19090000 		.4byte	0x919
 2676 0ec4 AB070000 		.4byte	.LLST9
 2677 0ec8 29       		.uleb128 0x29
 2678 0ec9 31090000 		.4byte	0x931
 2679 0ecd C9070000 		.4byte	.LLST10
ARM GAS  /var/tmp//cclgCVgN.s 			page 48


 2680 0ed1 32       		.uleb128 0x32
 2681 0ed2 25090000 		.4byte	0x925
 2682 0ed6 02       		.byte	0x2
 2683 0ed7 3C       		.uleb128 0x3c
 2684 0ed8 12000000 		.4byte	.LBB13
 2685 0edc 18000000 		.4byte	.LBE13-.LBB13
 2686 0ee0 030F0000 		.4byte	0xf03
 2687 0ee4 29       		.uleb128 0x29
 2688 0ee5 3E090000 		.4byte	0x93e
 2689 0ee9 07080000 		.4byte	.LLST11
 2690 0eed 2C       		.uleb128 0x2c
 2691 0eee 26000000 		.4byte	.LVL24
 2692 0ef2 8A0F0000 		.4byte	0xf8a
 2693 0ef6 2B       		.uleb128 0x2b
 2694 0ef7 01       		.uleb128 0x1
 2695 0ef8 50       		.byte	0x50
 2696 0ef9 02       		.uleb128 0x2
 2697 0efa 74       		.byte	0x74
 2698 0efb 00       		.sleb128 0
 2699 0efc 2B       		.uleb128 0x2b
 2700 0efd 01       		.uleb128 0x1
 2701 0efe 51       		.byte	0x51
 2702 0eff 01       		.uleb128 0x1
 2703 0f00 32       		.byte	0x32
 2704 0f01 00       		.byte	0
 2705 0f02 00       		.byte	0
 2706 0f03 2C       		.uleb128 0x2c
 2707 0f04 08000000 		.4byte	.LVL18
 2708 0f08 960F0000 		.4byte	0xf96
 2709 0f0c 2B       		.uleb128 0x2b
 2710 0f0d 01       		.uleb128 0x1
 2711 0f0e 50       		.byte	0x50
 2712 0f0f 02       		.uleb128 0x2
 2713 0f10 74       		.byte	0x74
 2714 0f11 00       		.sleb128 0
 2715 0f12 00       		.byte	0
 2716 0f13 00       		.byte	0
 2717 0f14 3B       		.uleb128 0x3b
 2718 0f15 D90A0000 		.4byte	0xad9
 2719 0f19 00000000 		.4byte	.LFB222
 2720 0f1d 2C000000 		.4byte	.LFE222-.LFB222
 2721 0f21 01       		.uleb128 0x1
 2722 0f22 9C       		.byte	0x9c
 2723 0f23 7E0F0000 		.4byte	0xf7e
 2724 0f27 29       		.uleb128 0x29
 2725 0f28 EA0A0000 		.4byte	0xaea
 2726 0f2c 43080000 		.4byte	.LLST12
 2727 0f30 3C       		.uleb128 0x3c
 2728 0f31 1C000000 		.4byte	.LBB16
 2729 0f35 10000000 		.4byte	.LBE16-.LBB16
 2730 0f39 520F0000 		.4byte	0xf52
 2731 0f3d 3D       		.uleb128 0x3d
 2732 0f3e 270F0000 		.4byte	0xf27
 2733 0f42 2C       		.uleb128 0x2c
 2734 0f43 22000000 		.4byte	.LVL35
 2735 0f47 AC0E0000 		.4byte	0xeac
 2736 0f4b 2B       		.uleb128 0x2b
ARM GAS  /var/tmp//cclgCVgN.s 			page 49


 2737 0f4c 01       		.uleb128 0x1
 2738 0f4d 50       		.byte	0x50
 2739 0f4e 01       		.uleb128 0x1
 2740 0f4f 40       		.byte	0x40
 2741 0f50 00       		.byte	0
 2742 0f51 00       		.byte	0
 2743 0f52 2A       		.uleb128 0x2a
 2744 0f53 08000000 		.4byte	.LVL28
 2745 0f57 AC0E0000 		.4byte	0xeac
 2746 0f5b 650F0000 		.4byte	0xf65
 2747 0f5f 2B       		.uleb128 0x2b
 2748 0f60 01       		.uleb128 0x1
 2749 0f61 50       		.byte	0x50
 2750 0f62 01       		.uleb128 0x1
 2751 0f63 38       		.byte	0x38
 2752 0f64 00       		.byte	0
 2753 0f65 2C       		.uleb128 0x2c
 2754 0f66 18000000 		.4byte	.LVL33
 2755 0f6a 7E0F0000 		.4byte	0xf7e
 2756 0f6e 2B       		.uleb128 0x2b
 2757 0f6f 01       		.uleb128 0x1
 2758 0f70 50       		.byte	0x50
 2759 0f71 05       		.uleb128 0x5
 2760 0f72 0C       		.byte	0xc
 2761 0f73 00400008 		.4byte	0x8004000
 2762 0f77 2B       		.uleb128 0x2b
 2763 0f78 01       		.uleb128 0x1
 2764 0f79 51       		.byte	0x51
 2765 0f7a 01       		.uleb128 0x1
 2766 0f7b 30       		.byte	0x30
 2767 0f7c 00       		.byte	0
 2768 0f7d 00       		.byte	0
 2769 0f7e 3E       		.uleb128 0x3e
 2770 0f7f 39080000 		.4byte	.LASF173
 2771 0f83 39080000 		.4byte	.LASF173
 2772 0f87 06       		.byte	0x6
 2773 0f88 C001     		.2byte	0x1c0
 2774 0f8a 3E       		.uleb128 0x3e
 2775 0f8b 76060000 		.4byte	.LASF174
 2776 0f8f 76060000 		.4byte	.LASF174
 2777 0f93 06       		.byte	0x6
 2778 0f94 BA01     		.2byte	0x1ba
 2779 0f96 3F       		.uleb128 0x3f
 2780 0f97 E9040000 		.4byte	.LASF175
 2781 0f9b E9040000 		.4byte	.LASF175
 2782 0f9f 12       		.byte	0x12
 2783 0fa0 1D       		.byte	0x1d
 2784 0fa1 00       		.byte	0
 2785              		.section	.debug_abbrev,"",%progbits
 2786              	.Ldebug_abbrev0:
 2787 0000 01       		.uleb128 0x1
 2788 0001 11       		.uleb128 0x11
 2789 0002 01       		.byte	0x1
 2790 0003 25       		.uleb128 0x25
 2791 0004 0E       		.uleb128 0xe
 2792 0005 13       		.uleb128 0x13
 2793 0006 0B       		.uleb128 0xb
ARM GAS  /var/tmp//cclgCVgN.s 			page 50


 2794 0007 03       		.uleb128 0x3
 2795 0008 0E       		.uleb128 0xe
 2796 0009 1B       		.uleb128 0x1b
 2797 000a 0E       		.uleb128 0xe
 2798 000b 55       		.uleb128 0x55
 2799 000c 17       		.uleb128 0x17
 2800 000d 11       		.uleb128 0x11
 2801 000e 01       		.uleb128 0x1
 2802 000f 10       		.uleb128 0x10
 2803 0010 17       		.uleb128 0x17
 2804 0011 00       		.byte	0
 2805 0012 00       		.byte	0
 2806 0013 02       		.uleb128 0x2
 2807 0014 24       		.uleb128 0x24
 2808 0015 00       		.byte	0
 2809 0016 0B       		.uleb128 0xb
 2810 0017 0B       		.uleb128 0xb
 2811 0018 3E       		.uleb128 0x3e
 2812 0019 0B       		.uleb128 0xb
 2813 001a 03       		.uleb128 0x3
 2814 001b 0E       		.uleb128 0xe
 2815 001c 00       		.byte	0
 2816 001d 00       		.byte	0
 2817 001e 03       		.uleb128 0x3
 2818 001f 16       		.uleb128 0x16
 2819 0020 00       		.byte	0
 2820 0021 03       		.uleb128 0x3
 2821 0022 0E       		.uleb128 0xe
 2822 0023 3A       		.uleb128 0x3a
 2823 0024 0B       		.uleb128 0xb
 2824 0025 3B       		.uleb128 0x3b
 2825 0026 0B       		.uleb128 0xb
 2826 0027 49       		.uleb128 0x49
 2827 0028 13       		.uleb128 0x13
 2828 0029 00       		.byte	0
 2829 002a 00       		.byte	0
 2830 002b 04       		.uleb128 0x4
 2831 002c 24       		.uleb128 0x24
 2832 002d 00       		.byte	0
 2833 002e 0B       		.uleb128 0xb
 2834 002f 0B       		.uleb128 0xb
 2835 0030 3E       		.uleb128 0x3e
 2836 0031 0B       		.uleb128 0xb
 2837 0032 03       		.uleb128 0x3
 2838 0033 08       		.uleb128 0x8
 2839 0034 00       		.byte	0
 2840 0035 00       		.byte	0
 2841 0036 05       		.uleb128 0x5
 2842 0037 35       		.uleb128 0x35
 2843 0038 00       		.byte	0
 2844 0039 49       		.uleb128 0x49
 2845 003a 13       		.uleb128 0x13
 2846 003b 00       		.byte	0
 2847 003c 00       		.byte	0
 2848 003d 06       		.uleb128 0x6
 2849 003e 34       		.uleb128 0x34
 2850 003f 00       		.byte	0
ARM GAS  /var/tmp//cclgCVgN.s 			page 51


 2851 0040 03       		.uleb128 0x3
 2852 0041 0E       		.uleb128 0xe
 2853 0042 3A       		.uleb128 0x3a
 2854 0043 0B       		.uleb128 0xb
 2855 0044 3B       		.uleb128 0x3b
 2856 0045 05       		.uleb128 0x5
 2857 0046 49       		.uleb128 0x49
 2858 0047 13       		.uleb128 0x13
 2859 0048 3F       		.uleb128 0x3f
 2860 0049 19       		.uleb128 0x19
 2861 004a 3C       		.uleb128 0x3c
 2862 004b 19       		.uleb128 0x19
 2863 004c 00       		.byte	0
 2864 004d 00       		.byte	0
 2865 004e 07       		.uleb128 0x7
 2866 004f 34       		.uleb128 0x34
 2867 0050 00       		.byte	0
 2868 0051 03       		.uleb128 0x3
 2869 0052 0E       		.uleb128 0xe
 2870 0053 3A       		.uleb128 0x3a
 2871 0054 0B       		.uleb128 0xb
 2872 0055 3B       		.uleb128 0x3b
 2873 0056 0B       		.uleb128 0xb
 2874 0057 49       		.uleb128 0x49
 2875 0058 13       		.uleb128 0x13
 2876 0059 3F       		.uleb128 0x3f
 2877 005a 19       		.uleb128 0x19
 2878 005b 3C       		.uleb128 0x3c
 2879 005c 19       		.uleb128 0x19
 2880 005d 00       		.byte	0
 2881 005e 00       		.byte	0
 2882 005f 08       		.uleb128 0x8
 2883 0060 04       		.uleb128 0x4
 2884 0061 01       		.byte	0x1
 2885 0062 0B       		.uleb128 0xb
 2886 0063 0B       		.uleb128 0xb
 2887 0064 49       		.uleb128 0x49
 2888 0065 13       		.uleb128 0x13
 2889 0066 3A       		.uleb128 0x3a
 2890 0067 0B       		.uleb128 0xb
 2891 0068 3B       		.uleb128 0x3b
 2892 0069 0B       		.uleb128 0xb
 2893 006a 01       		.uleb128 0x1
 2894 006b 13       		.uleb128 0x13
 2895 006c 00       		.byte	0
 2896 006d 00       		.byte	0
 2897 006e 09       		.uleb128 0x9
 2898 006f 28       		.uleb128 0x28
 2899 0070 00       		.byte	0
 2900 0071 03       		.uleb128 0x3
 2901 0072 0E       		.uleb128 0xe
 2902 0073 1C       		.uleb128 0x1c
 2903 0074 0B       		.uleb128 0xb
 2904 0075 00       		.byte	0
 2905 0076 00       		.byte	0
 2906 0077 0A       		.uleb128 0xa
 2907 0078 13       		.uleb128 0x13
ARM GAS  /var/tmp//cclgCVgN.s 			page 52


 2908 0079 01       		.byte	0x1
 2909 007a 03       		.uleb128 0x3
 2910 007b 0E       		.uleb128 0xe
 2911 007c 0B       		.uleb128 0xb
 2912 007d 0B       		.uleb128 0xb
 2913 007e 3A       		.uleb128 0x3a
 2914 007f 0B       		.uleb128 0xb
 2915 0080 3B       		.uleb128 0x3b
 2916 0081 0B       		.uleb128 0xb
 2917 0082 01       		.uleb128 0x1
 2918 0083 13       		.uleb128 0x13
 2919 0084 00       		.byte	0
 2920 0085 00       		.byte	0
 2921 0086 0B       		.uleb128 0xb
 2922 0087 0D       		.uleb128 0xd
 2923 0088 00       		.byte	0
 2924 0089 03       		.uleb128 0x3
 2925 008a 0E       		.uleb128 0xe
 2926 008b 3A       		.uleb128 0x3a
 2927 008c 0B       		.uleb128 0xb
 2928 008d 3B       		.uleb128 0x3b
 2929 008e 0B       		.uleb128 0xb
 2930 008f 49       		.uleb128 0x49
 2931 0090 13       		.uleb128 0x13
 2932 0091 38       		.uleb128 0x38
 2933 0092 0B       		.uleb128 0xb
 2934 0093 00       		.byte	0
 2935 0094 00       		.byte	0
 2936 0095 0C       		.uleb128 0xc
 2937 0096 0D       		.uleb128 0xd
 2938 0097 00       		.byte	0
 2939 0098 03       		.uleb128 0x3
 2940 0099 08       		.uleb128 0x8
 2941 009a 3A       		.uleb128 0x3a
 2942 009b 0B       		.uleb128 0xb
 2943 009c 3B       		.uleb128 0x3b
 2944 009d 05       		.uleb128 0x5
 2945 009e 49       		.uleb128 0x49
 2946 009f 13       		.uleb128 0x13
 2947 00a0 38       		.uleb128 0x38
 2948 00a1 0B       		.uleb128 0xb
 2949 00a2 00       		.byte	0
 2950 00a3 00       		.byte	0
 2951 00a4 0D       		.uleb128 0xd
 2952 00a5 0D       		.uleb128 0xd
 2953 00a6 00       		.byte	0
 2954 00a7 03       		.uleb128 0x3
 2955 00a8 0E       		.uleb128 0xe
 2956 00a9 3A       		.uleb128 0x3a
 2957 00aa 0B       		.uleb128 0xb
 2958 00ab 3B       		.uleb128 0x3b
 2959 00ac 05       		.uleb128 0x5
 2960 00ad 49       		.uleb128 0x49
 2961 00ae 13       		.uleb128 0x13
 2962 00af 38       		.uleb128 0x38
 2963 00b0 0B       		.uleb128 0xb
 2964 00b1 00       		.byte	0
ARM GAS  /var/tmp//cclgCVgN.s 			page 53


 2965 00b2 00       		.byte	0
 2966 00b3 0E       		.uleb128 0xe
 2967 00b4 0F       		.uleb128 0xf
 2968 00b5 00       		.byte	0
 2969 00b6 0B       		.uleb128 0xb
 2970 00b7 0B       		.uleb128 0xb
 2971 00b8 49       		.uleb128 0x49
 2972 00b9 13       		.uleb128 0x13
 2973 00ba 00       		.byte	0
 2974 00bb 00       		.byte	0
 2975 00bc 0F       		.uleb128 0xf
 2976 00bd 13       		.uleb128 0x13
 2977 00be 01       		.byte	0x1
 2978 00bf 03       		.uleb128 0x3
 2979 00c0 0E       		.uleb128 0xe
 2980 00c1 0B       		.uleb128 0xb
 2981 00c2 0B       		.uleb128 0xb
 2982 00c3 3A       		.uleb128 0x3a
 2983 00c4 0B       		.uleb128 0xb
 2984 00c5 3B       		.uleb128 0x3b
 2985 00c6 05       		.uleb128 0x5
 2986 00c7 01       		.uleb128 0x1
 2987 00c8 13       		.uleb128 0x13
 2988 00c9 00       		.byte	0
 2989 00ca 00       		.byte	0
 2990 00cb 10       		.uleb128 0x10
 2991 00cc 15       		.uleb128 0x15
 2992 00cd 01       		.byte	0x1
 2993 00ce 27       		.uleb128 0x27
 2994 00cf 19       		.uleb128 0x19
 2995 00d0 01       		.uleb128 0x1
 2996 00d1 13       		.uleb128 0x13
 2997 00d2 00       		.byte	0
 2998 00d3 00       		.byte	0
 2999 00d4 11       		.uleb128 0x11
 3000 00d5 05       		.uleb128 0x5
 3001 00d6 00       		.byte	0
 3002 00d7 49       		.uleb128 0x49
 3003 00d8 13       		.uleb128 0x13
 3004 00d9 00       		.byte	0
 3005 00da 00       		.byte	0
 3006 00db 12       		.uleb128 0x12
 3007 00dc 0F       		.uleb128 0xf
 3008 00dd 00       		.byte	0
 3009 00de 0B       		.uleb128 0xb
 3010 00df 0B       		.uleb128 0xb
 3011 00e0 00       		.byte	0
 3012 00e1 00       		.byte	0
 3013 00e2 13       		.uleb128 0x13
 3014 00e3 13       		.uleb128 0x13
 3015 00e4 01       		.byte	0x1
 3016 00e5 03       		.uleb128 0x3
 3017 00e6 0E       		.uleb128 0xe
 3018 00e7 0B       		.uleb128 0xb
 3019 00e8 05       		.uleb128 0x5
 3020 00e9 3A       		.uleb128 0x3a
 3021 00ea 0B       		.uleb128 0xb
ARM GAS  /var/tmp//cclgCVgN.s 			page 54


 3022 00eb 3B       		.uleb128 0x3b
 3023 00ec 05       		.uleb128 0x5
 3024 00ed 01       		.uleb128 0x1
 3025 00ee 13       		.uleb128 0x13
 3026 00ef 00       		.byte	0
 3027 00f0 00       		.byte	0
 3028 00f1 14       		.uleb128 0x14
 3029 00f2 0D       		.uleb128 0xd
 3030 00f3 00       		.byte	0
 3031 00f4 03       		.uleb128 0x3
 3032 00f5 08       		.uleb128 0x8
 3033 00f6 3A       		.uleb128 0x3a
 3034 00f7 0B       		.uleb128 0xb
 3035 00f8 3B       		.uleb128 0x3b
 3036 00f9 0B       		.uleb128 0xb
 3037 00fa 49       		.uleb128 0x49
 3038 00fb 13       		.uleb128 0x13
 3039 00fc 38       		.uleb128 0x38
 3040 00fd 0B       		.uleb128 0xb
 3041 00fe 00       		.byte	0
 3042 00ff 00       		.byte	0
 3043 0100 15       		.uleb128 0x15
 3044 0101 13       		.uleb128 0x13
 3045 0102 01       		.byte	0x1
 3046 0103 0B       		.uleb128 0xb
 3047 0104 0B       		.uleb128 0xb
 3048 0105 3A       		.uleb128 0x3a
 3049 0106 0B       		.uleb128 0xb
 3050 0107 3B       		.uleb128 0x3b
 3051 0108 0B       		.uleb128 0xb
 3052 0109 01       		.uleb128 0x1
 3053 010a 13       		.uleb128 0x13
 3054 010b 00       		.byte	0
 3055 010c 00       		.byte	0
 3056 010d 16       		.uleb128 0x16
 3057 010e 17       		.uleb128 0x17
 3058 010f 01       		.byte	0x1
 3059 0110 0B       		.uleb128 0xb
 3060 0111 0B       		.uleb128 0xb
 3061 0112 3A       		.uleb128 0x3a
 3062 0113 0B       		.uleb128 0xb
 3063 0114 3B       		.uleb128 0x3b
 3064 0115 0B       		.uleb128 0xb
 3065 0116 01       		.uleb128 0x1
 3066 0117 13       		.uleb128 0x13
 3067 0118 00       		.byte	0
 3068 0119 00       		.byte	0
 3069 011a 17       		.uleb128 0x17
 3070 011b 0D       		.uleb128 0xd
 3071 011c 00       		.byte	0
 3072 011d 03       		.uleb128 0x3
 3073 011e 0E       		.uleb128 0xe
 3074 011f 3A       		.uleb128 0x3a
 3075 0120 0B       		.uleb128 0xb
 3076 0121 3B       		.uleb128 0x3b
 3077 0122 05       		.uleb128 0x5
 3078 0123 49       		.uleb128 0x49
ARM GAS  /var/tmp//cclgCVgN.s 			page 55


 3079 0124 13       		.uleb128 0x13
 3080 0125 00       		.byte	0
 3081 0126 00       		.byte	0
 3082 0127 18       		.uleb128 0x18
 3083 0128 26       		.uleb128 0x26
 3084 0129 00       		.byte	0
 3085 012a 49       		.uleb128 0x49
 3086 012b 13       		.uleb128 0x13
 3087 012c 00       		.byte	0
 3088 012d 00       		.byte	0
 3089 012e 19       		.uleb128 0x19
 3090 012f 01       		.uleb128 0x1
 3091 0130 01       		.byte	0x1
 3092 0131 49       		.uleb128 0x49
 3093 0132 13       		.uleb128 0x13
 3094 0133 01       		.uleb128 0x1
 3095 0134 13       		.uleb128 0x13
 3096 0135 00       		.byte	0
 3097 0136 00       		.byte	0
 3098 0137 1A       		.uleb128 0x1a
 3099 0138 21       		.uleb128 0x21
 3100 0139 00       		.byte	0
 3101 013a 49       		.uleb128 0x49
 3102 013b 13       		.uleb128 0x13
 3103 013c 2F       		.uleb128 0x2f
 3104 013d 0B       		.uleb128 0xb
 3105 013e 00       		.byte	0
 3106 013f 00       		.byte	0
 3107 0140 1B       		.uleb128 0x1b
 3108 0141 34       		.uleb128 0x34
 3109 0142 00       		.byte	0
 3110 0143 03       		.uleb128 0x3
 3111 0144 08       		.uleb128 0x8
 3112 0145 3A       		.uleb128 0x3a
 3113 0146 0B       		.uleb128 0xb
 3114 0147 3B       		.uleb128 0x3b
 3115 0148 05       		.uleb128 0x5
 3116 0149 49       		.uleb128 0x49
 3117 014a 13       		.uleb128 0x13
 3118 014b 3F       		.uleb128 0x3f
 3119 014c 19       		.uleb128 0x19
 3120 014d 3C       		.uleb128 0x3c
 3121 014e 19       		.uleb128 0x19
 3122 014f 00       		.byte	0
 3123 0150 00       		.byte	0
 3124 0151 1C       		.uleb128 0x1c
 3125 0152 34       		.uleb128 0x34
 3126 0153 00       		.byte	0
 3127 0154 03       		.uleb128 0x3
 3128 0155 0E       		.uleb128 0xe
 3129 0156 3A       		.uleb128 0x3a
 3130 0157 0B       		.uleb128 0xb
 3131 0158 3B       		.uleb128 0x3b
 3132 0159 0B       		.uleb128 0xb
 3133 015a 49       		.uleb128 0x49
 3134 015b 13       		.uleb128 0x13
 3135 015c 3F       		.uleb128 0x3f
ARM GAS  /var/tmp//cclgCVgN.s 			page 56


 3136 015d 19       		.uleb128 0x19
 3137 015e 02       		.uleb128 0x2
 3138 015f 18       		.uleb128 0x18
 3139 0160 00       		.byte	0
 3140 0161 00       		.byte	0
 3141 0162 1D       		.uleb128 0x1d
 3142 0163 21       		.uleb128 0x21
 3143 0164 00       		.byte	0
 3144 0165 49       		.uleb128 0x49
 3145 0166 13       		.uleb128 0x13
 3146 0167 2F       		.uleb128 0x2f
 3147 0168 05       		.uleb128 0x5
 3148 0169 00       		.byte	0
 3149 016a 00       		.byte	0
 3150 016b 1E       		.uleb128 0x1e
 3151 016c 2E       		.uleb128 0x2e
 3152 016d 01       		.byte	0x1
 3153 016e 03       		.uleb128 0x3
 3154 016f 0E       		.uleb128 0xe
 3155 0170 3A       		.uleb128 0x3a
 3156 0171 0B       		.uleb128 0xb
 3157 0172 3B       		.uleb128 0x3b
 3158 0173 05       		.uleb128 0x5
 3159 0174 27       		.uleb128 0x27
 3160 0175 19       		.uleb128 0x19
 3161 0176 49       		.uleb128 0x49
 3162 0177 13       		.uleb128 0x13
 3163 0178 20       		.uleb128 0x20
 3164 0179 0B       		.uleb128 0xb
 3165 017a 01       		.uleb128 0x1
 3166 017b 13       		.uleb128 0x13
 3167 017c 00       		.byte	0
 3168 017d 00       		.byte	0
 3169 017e 1F       		.uleb128 0x1f
 3170 017f 05       		.uleb128 0x5
 3171 0180 00       		.byte	0
 3172 0181 03       		.uleb128 0x3
 3173 0182 0E       		.uleb128 0xe
 3174 0183 3A       		.uleb128 0x3a
 3175 0184 0B       		.uleb128 0xb
 3176 0185 3B       		.uleb128 0x3b
 3177 0186 05       		.uleb128 0x5
 3178 0187 49       		.uleb128 0x49
 3179 0188 13       		.uleb128 0x13
 3180 0189 00       		.byte	0
 3181 018a 00       		.byte	0
 3182 018b 20       		.uleb128 0x20
 3183 018c 34       		.uleb128 0x34
 3184 018d 00       		.byte	0
 3185 018e 03       		.uleb128 0x3
 3186 018f 0E       		.uleb128 0xe
 3187 0190 3A       		.uleb128 0x3a
 3188 0191 0B       		.uleb128 0xb
 3189 0192 3B       		.uleb128 0x3b
 3190 0193 05       		.uleb128 0x5
 3191 0194 49       		.uleb128 0x49
 3192 0195 13       		.uleb128 0x13
ARM GAS  /var/tmp//cclgCVgN.s 			page 57


 3193 0196 00       		.byte	0
 3194 0197 00       		.byte	0
 3195 0198 21       		.uleb128 0x21
 3196 0199 0B       		.uleb128 0xb
 3197 019a 01       		.byte	0x1
 3198 019b 00       		.byte	0
 3199 019c 00       		.byte	0
 3200 019d 22       		.uleb128 0x22
 3201 019e 34       		.uleb128 0x34
 3202 019f 00       		.byte	0
 3203 01a0 03       		.uleb128 0x3
 3204 01a1 08       		.uleb128 0x8
 3205 01a2 3A       		.uleb128 0x3a
 3206 01a3 0B       		.uleb128 0xb
 3207 01a4 3B       		.uleb128 0x3b
 3208 01a5 05       		.uleb128 0x5
 3209 01a6 49       		.uleb128 0x49
 3210 01a7 13       		.uleb128 0x13
 3211 01a8 00       		.byte	0
 3212 01a9 00       		.byte	0
 3213 01aa 23       		.uleb128 0x23
 3214 01ab 2E       		.uleb128 0x2e
 3215 01ac 01       		.byte	0x1
 3216 01ad 03       		.uleb128 0x3
 3217 01ae 0E       		.uleb128 0xe
 3218 01af 3A       		.uleb128 0x3a
 3219 01b0 0B       		.uleb128 0xb
 3220 01b1 3B       		.uleb128 0x3b
 3221 01b2 05       		.uleb128 0x5
 3222 01b3 27       		.uleb128 0x27
 3223 01b4 19       		.uleb128 0x19
 3224 01b5 49       		.uleb128 0x49
 3225 01b6 13       		.uleb128 0x13
 3226 01b7 11       		.uleb128 0x11
 3227 01b8 01       		.uleb128 0x1
 3228 01b9 12       		.uleb128 0x12
 3229 01ba 06       		.uleb128 0x6
 3230 01bb 40       		.uleb128 0x40
 3231 01bc 18       		.uleb128 0x18
 3232 01bd 9742     		.uleb128 0x2117
 3233 01bf 19       		.uleb128 0x19
 3234 01c0 01       		.uleb128 0x1
 3235 01c1 13       		.uleb128 0x13
 3236 01c2 00       		.byte	0
 3237 01c3 00       		.byte	0
 3238 01c4 24       		.uleb128 0x24
 3239 01c5 05       		.uleb128 0x5
 3240 01c6 00       		.byte	0
 3241 01c7 03       		.uleb128 0x3
 3242 01c8 0E       		.uleb128 0xe
 3243 01c9 3A       		.uleb128 0x3a
 3244 01ca 0B       		.uleb128 0xb
 3245 01cb 3B       		.uleb128 0x3b
 3246 01cc 05       		.uleb128 0x5
 3247 01cd 49       		.uleb128 0x49
 3248 01ce 13       		.uleb128 0x13
 3249 01cf 02       		.uleb128 0x2
ARM GAS  /var/tmp//cclgCVgN.s 			page 58


 3250 01d0 17       		.uleb128 0x17
 3251 01d1 00       		.byte	0
 3252 01d2 00       		.byte	0
 3253 01d3 25       		.uleb128 0x25
 3254 01d4 34       		.uleb128 0x34
 3255 01d5 00       		.byte	0
 3256 01d6 03       		.uleb128 0x3
 3257 01d7 0E       		.uleb128 0xe
 3258 01d8 3A       		.uleb128 0x3a
 3259 01d9 0B       		.uleb128 0xb
 3260 01da 3B       		.uleb128 0x3b
 3261 01db 05       		.uleb128 0x5
 3262 01dc 49       		.uleb128 0x49
 3263 01dd 13       		.uleb128 0x13
 3264 01de 02       		.uleb128 0x2
 3265 01df 17       		.uleb128 0x17
 3266 01e0 00       		.byte	0
 3267 01e1 00       		.byte	0
 3268 01e2 26       		.uleb128 0x26
 3269 01e3 1D       		.uleb128 0x1d
 3270 01e4 01       		.byte	0x1
 3271 01e5 31       		.uleb128 0x31
 3272 01e6 13       		.uleb128 0x13
 3273 01e7 52       		.uleb128 0x52
 3274 01e8 01       		.uleb128 0x1
 3275 01e9 55       		.uleb128 0x55
 3276 01ea 17       		.uleb128 0x17
 3277 01eb 58       		.uleb128 0x58
 3278 01ec 0B       		.uleb128 0xb
 3279 01ed 59       		.uleb128 0x59
 3280 01ee 05       		.uleb128 0x5
 3281 01ef 01       		.uleb128 0x1
 3282 01f0 13       		.uleb128 0x13
 3283 01f1 00       		.byte	0
 3284 01f2 00       		.byte	0
 3285 01f3 27       		.uleb128 0x27
 3286 01f4 05       		.uleb128 0x5
 3287 01f5 00       		.byte	0
 3288 01f6 31       		.uleb128 0x31
 3289 01f7 13       		.uleb128 0x13
 3290 01f8 02       		.uleb128 0x2
 3291 01f9 17       		.uleb128 0x17
 3292 01fa 00       		.byte	0
 3293 01fb 00       		.byte	0
 3294 01fc 28       		.uleb128 0x28
 3295 01fd 0B       		.uleb128 0xb
 3296 01fe 01       		.byte	0x1
 3297 01ff 55       		.uleb128 0x55
 3298 0200 17       		.uleb128 0x17
 3299 0201 00       		.byte	0
 3300 0202 00       		.byte	0
 3301 0203 29       		.uleb128 0x29
 3302 0204 34       		.uleb128 0x34
 3303 0205 00       		.byte	0
 3304 0206 31       		.uleb128 0x31
 3305 0207 13       		.uleb128 0x13
 3306 0208 02       		.uleb128 0x2
ARM GAS  /var/tmp//cclgCVgN.s 			page 59


 3307 0209 17       		.uleb128 0x17
 3308 020a 00       		.byte	0
 3309 020b 00       		.byte	0
 3310 020c 2A       		.uleb128 0x2a
 3311 020d 898201   		.uleb128 0x4109
 3312 0210 01       		.byte	0x1
 3313 0211 11       		.uleb128 0x11
 3314 0212 01       		.uleb128 0x1
 3315 0213 31       		.uleb128 0x31
 3316 0214 13       		.uleb128 0x13
 3317 0215 01       		.uleb128 0x1
 3318 0216 13       		.uleb128 0x13
 3319 0217 00       		.byte	0
 3320 0218 00       		.byte	0
 3321 0219 2B       		.uleb128 0x2b
 3322 021a 8A8201   		.uleb128 0x410a
 3323 021d 00       		.byte	0
 3324 021e 02       		.uleb128 0x2
 3325 021f 18       		.uleb128 0x18
 3326 0220 9142     		.uleb128 0x2111
 3327 0222 18       		.uleb128 0x18
 3328 0223 00       		.byte	0
 3329 0224 00       		.byte	0
 3330 0225 2C       		.uleb128 0x2c
 3331 0226 898201   		.uleb128 0x4109
 3332 0229 01       		.byte	0x1
 3333 022a 11       		.uleb128 0x11
 3334 022b 01       		.uleb128 0x1
 3335 022c 31       		.uleb128 0x31
 3336 022d 13       		.uleb128 0x13
 3337 022e 00       		.byte	0
 3338 022f 00       		.byte	0
 3339 0230 2D       		.uleb128 0x2d
 3340 0231 2E       		.uleb128 0x2e
 3341 0232 01       		.byte	0x1
 3342 0233 3F       		.uleb128 0x3f
 3343 0234 19       		.uleb128 0x19
 3344 0235 03       		.uleb128 0x3
 3345 0236 0E       		.uleb128 0xe
 3346 0237 3A       		.uleb128 0x3a
 3347 0238 0B       		.uleb128 0xb
 3348 0239 3B       		.uleb128 0x3b
 3349 023a 05       		.uleb128 0x5
 3350 023b 27       		.uleb128 0x27
 3351 023c 19       		.uleb128 0x19
 3352 023d 49       		.uleb128 0x49
 3353 023e 13       		.uleb128 0x13
 3354 023f 11       		.uleb128 0x11
 3355 0240 01       		.uleb128 0x1
 3356 0241 12       		.uleb128 0x12
 3357 0242 06       		.uleb128 0x6
 3358 0243 40       		.uleb128 0x40
 3359 0244 18       		.uleb128 0x18
 3360 0245 9742     		.uleb128 0x2117
 3361 0247 19       		.uleb128 0x19
 3362 0248 01       		.uleb128 0x1
 3363 0249 13       		.uleb128 0x13
ARM GAS  /var/tmp//cclgCVgN.s 			page 60


 3364 024a 00       		.byte	0
 3365 024b 00       		.byte	0
 3366 024c 2E       		.uleb128 0x2e
 3367 024d 1D       		.uleb128 0x1d
 3368 024e 01       		.byte	0x1
 3369 024f 31       		.uleb128 0x31
 3370 0250 13       		.uleb128 0x13
 3371 0251 11       		.uleb128 0x11
 3372 0252 01       		.uleb128 0x1
 3373 0253 12       		.uleb128 0x12
 3374 0254 06       		.uleb128 0x6
 3375 0255 58       		.uleb128 0x58
 3376 0256 0B       		.uleb128 0xb
 3377 0257 59       		.uleb128 0x59
 3378 0258 05       		.uleb128 0x5
 3379 0259 01       		.uleb128 0x1
 3380 025a 13       		.uleb128 0x13
 3381 025b 00       		.byte	0
 3382 025c 00       		.byte	0
 3383 025d 2F       		.uleb128 0x2f
 3384 025e 05       		.uleb128 0x5
 3385 025f 00       		.byte	0
 3386 0260 31       		.uleb128 0x31
 3387 0261 13       		.uleb128 0x13
 3388 0262 02       		.uleb128 0x2
 3389 0263 18       		.uleb128 0x18
 3390 0264 00       		.byte	0
 3391 0265 00       		.byte	0
 3392 0266 30       		.uleb128 0x30
 3393 0267 0B       		.uleb128 0xb
 3394 0268 01       		.byte	0x1
 3395 0269 11       		.uleb128 0x11
 3396 026a 01       		.uleb128 0x1
 3397 026b 12       		.uleb128 0x12
 3398 026c 06       		.uleb128 0x6
 3399 026d 00       		.byte	0
 3400 026e 00       		.byte	0
 3401 026f 31       		.uleb128 0x31
 3402 0270 34       		.uleb128 0x34
 3403 0271 00       		.byte	0
 3404 0272 31       		.uleb128 0x31
 3405 0273 13       		.uleb128 0x13
 3406 0274 1C       		.uleb128 0x1c
 3407 0275 0B       		.uleb128 0xb
 3408 0276 00       		.byte	0
 3409 0277 00       		.byte	0
 3410 0278 32       		.uleb128 0x32
 3411 0279 05       		.uleb128 0x5
 3412 027a 00       		.byte	0
 3413 027b 31       		.uleb128 0x31
 3414 027c 13       		.uleb128 0x13
 3415 027d 1C       		.uleb128 0x1c
 3416 027e 0B       		.uleb128 0xb
 3417 027f 00       		.byte	0
 3418 0280 00       		.byte	0
 3419 0281 33       		.uleb128 0x33
 3420 0282 898201   		.uleb128 0x4109
ARM GAS  /var/tmp//cclgCVgN.s 			page 61


 3421 0285 00       		.byte	0
 3422 0286 11       		.uleb128 0x11
 3423 0287 01       		.uleb128 0x1
 3424 0288 31       		.uleb128 0x31
 3425 0289 13       		.uleb128 0x13
 3426 028a 00       		.byte	0
 3427 028b 00       		.byte	0
 3428 028c 34       		.uleb128 0x34
 3429 028d 05       		.uleb128 0x5
 3430 028e 00       		.byte	0
 3431 028f 03       		.uleb128 0x3
 3432 0290 0E       		.uleb128 0xe
 3433 0291 3A       		.uleb128 0x3a
 3434 0292 0B       		.uleb128 0xb
 3435 0293 3B       		.uleb128 0x3b
 3436 0294 05       		.uleb128 0x5
 3437 0295 49       		.uleb128 0x49
 3438 0296 13       		.uleb128 0x13
 3439 0297 02       		.uleb128 0x2
 3440 0298 18       		.uleb128 0x18
 3441 0299 00       		.byte	0
 3442 029a 00       		.byte	0
 3443 029b 35       		.uleb128 0x35
 3444 029c 1D       		.uleb128 0x1d
 3445 029d 01       		.byte	0x1
 3446 029e 31       		.uleb128 0x31
 3447 029f 13       		.uleb128 0x13
 3448 02a0 52       		.uleb128 0x52
 3449 02a1 01       		.uleb128 0x1
 3450 02a2 55       		.uleb128 0x55
 3451 02a3 17       		.uleb128 0x17
 3452 02a4 58       		.uleb128 0x58
 3453 02a5 0B       		.uleb128 0xb
 3454 02a6 59       		.uleb128 0x59
 3455 02a7 05       		.uleb128 0x5
 3456 02a8 00       		.byte	0
 3457 02a9 00       		.byte	0
 3458 02aa 36       		.uleb128 0x36
 3459 02ab 2E       		.uleb128 0x2e
 3460 02ac 01       		.byte	0x1
 3461 02ad 3F       		.uleb128 0x3f
 3462 02ae 19       		.uleb128 0x19
 3463 02af 03       		.uleb128 0x3
 3464 02b0 0E       		.uleb128 0xe
 3465 02b1 3A       		.uleb128 0x3a
 3466 02b2 0B       		.uleb128 0xb
 3467 02b3 3B       		.uleb128 0x3b
 3468 02b4 0B       		.uleb128 0xb
 3469 02b5 27       		.uleb128 0x27
 3470 02b6 19       		.uleb128 0x19
 3471 02b7 49       		.uleb128 0x49
 3472 02b8 13       		.uleb128 0x13
 3473 02b9 11       		.uleb128 0x11
 3474 02ba 01       		.uleb128 0x1
 3475 02bb 12       		.uleb128 0x12
 3476 02bc 06       		.uleb128 0x6
 3477 02bd 40       		.uleb128 0x40
ARM GAS  /var/tmp//cclgCVgN.s 			page 62


 3478 02be 18       		.uleb128 0x18
 3479 02bf 9742     		.uleb128 0x2117
 3480 02c1 19       		.uleb128 0x19
 3481 02c2 01       		.uleb128 0x1
 3482 02c3 13       		.uleb128 0x13
 3483 02c4 00       		.byte	0
 3484 02c5 00       		.byte	0
 3485 02c6 37       		.uleb128 0x37
 3486 02c7 34       		.uleb128 0x34
 3487 02c8 00       		.byte	0
 3488 02c9 03       		.uleb128 0x3
 3489 02ca 0E       		.uleb128 0xe
 3490 02cb 3A       		.uleb128 0x3a
 3491 02cc 0B       		.uleb128 0xb
 3492 02cd 3B       		.uleb128 0x3b
 3493 02ce 0B       		.uleb128 0xb
 3494 02cf 49       		.uleb128 0x49
 3495 02d0 13       		.uleb128 0x13
 3496 02d1 02       		.uleb128 0x2
 3497 02d2 17       		.uleb128 0x17
 3498 02d3 00       		.byte	0
 3499 02d4 00       		.byte	0
 3500 02d5 38       		.uleb128 0x38
 3501 02d6 34       		.uleb128 0x34
 3502 02d7 00       		.byte	0
 3503 02d8 03       		.uleb128 0x3
 3504 02d9 08       		.uleb128 0x8
 3505 02da 3A       		.uleb128 0x3a
 3506 02db 0B       		.uleb128 0xb
 3507 02dc 3B       		.uleb128 0x3b
 3508 02dd 0B       		.uleb128 0xb
 3509 02de 49       		.uleb128 0x49
 3510 02df 13       		.uleb128 0x13
 3511 02e0 02       		.uleb128 0x2
 3512 02e1 17       		.uleb128 0x17
 3513 02e2 00       		.byte	0
 3514 02e3 00       		.byte	0
 3515 02e4 39       		.uleb128 0x39
 3516 02e5 898201   		.uleb128 0x4109
 3517 02e8 01       		.byte	0x1
 3518 02e9 11       		.uleb128 0x11
 3519 02ea 01       		.uleb128 0x1
 3520 02eb 9542     		.uleb128 0x2115
 3521 02ed 19       		.uleb128 0x19
 3522 02ee 31       		.uleb128 0x31
 3523 02ef 13       		.uleb128 0x13
 3524 02f0 01       		.uleb128 0x1
 3525 02f1 13       		.uleb128 0x13
 3526 02f2 00       		.byte	0
 3527 02f3 00       		.byte	0
 3528 02f4 3A       		.uleb128 0x3a
 3529 02f5 898201   		.uleb128 0x4109
 3530 02f8 01       		.byte	0x1
 3531 02f9 11       		.uleb128 0x11
 3532 02fa 01       		.uleb128 0x1
 3533 02fb 9542     		.uleb128 0x2115
 3534 02fd 19       		.uleb128 0x19
ARM GAS  /var/tmp//cclgCVgN.s 			page 63


 3535 02fe 31       		.uleb128 0x31
 3536 02ff 13       		.uleb128 0x13
 3537 0300 00       		.byte	0
 3538 0301 00       		.byte	0
 3539 0302 3B       		.uleb128 0x3b
 3540 0303 2E       		.uleb128 0x2e
 3541 0304 01       		.byte	0x1
 3542 0305 31       		.uleb128 0x31
 3543 0306 13       		.uleb128 0x13
 3544 0307 11       		.uleb128 0x11
 3545 0308 01       		.uleb128 0x1
 3546 0309 12       		.uleb128 0x12
 3547 030a 06       		.uleb128 0x6
 3548 030b 40       		.uleb128 0x40
 3549 030c 18       		.uleb128 0x18
 3550 030d 9742     		.uleb128 0x2117
 3551 030f 19       		.uleb128 0x19
 3552 0310 01       		.uleb128 0x1
 3553 0311 13       		.uleb128 0x13
 3554 0312 00       		.byte	0
 3555 0313 00       		.byte	0
 3556 0314 3C       		.uleb128 0x3c
 3557 0315 0B       		.uleb128 0xb
 3558 0316 01       		.byte	0x1
 3559 0317 11       		.uleb128 0x11
 3560 0318 01       		.uleb128 0x1
 3561 0319 12       		.uleb128 0x12
 3562 031a 06       		.uleb128 0x6
 3563 031b 01       		.uleb128 0x1
 3564 031c 13       		.uleb128 0x13
 3565 031d 00       		.byte	0
 3566 031e 00       		.byte	0
 3567 031f 3D       		.uleb128 0x3d
 3568 0320 34       		.uleb128 0x34
 3569 0321 00       		.byte	0
 3570 0322 31       		.uleb128 0x31
 3571 0323 13       		.uleb128 0x13
 3572 0324 00       		.byte	0
 3573 0325 00       		.byte	0
 3574 0326 3E       		.uleb128 0x3e
 3575 0327 2E       		.uleb128 0x2e
 3576 0328 00       		.byte	0
 3577 0329 3F       		.uleb128 0x3f
 3578 032a 19       		.uleb128 0x19
 3579 032b 3C       		.uleb128 0x3c
 3580 032c 19       		.uleb128 0x19
 3581 032d 6E       		.uleb128 0x6e
 3582 032e 0E       		.uleb128 0xe
 3583 032f 03       		.uleb128 0x3
 3584 0330 0E       		.uleb128 0xe
 3585 0331 3A       		.uleb128 0x3a
 3586 0332 0B       		.uleb128 0xb
 3587 0333 3B       		.uleb128 0x3b
 3588 0334 05       		.uleb128 0x5
 3589 0335 00       		.byte	0
 3590 0336 00       		.byte	0
 3591 0337 3F       		.uleb128 0x3f
ARM GAS  /var/tmp//cclgCVgN.s 			page 64


 3592 0338 2E       		.uleb128 0x2e
 3593 0339 00       		.byte	0
 3594 033a 3F       		.uleb128 0x3f
 3595 033b 19       		.uleb128 0x19
 3596 033c 3C       		.uleb128 0x3c
 3597 033d 19       		.uleb128 0x19
 3598 033e 6E       		.uleb128 0x6e
 3599 033f 0E       		.uleb128 0xe
 3600 0340 03       		.uleb128 0x3
 3601 0341 0E       		.uleb128 0xe
 3602 0342 3A       		.uleb128 0x3a
 3603 0343 0B       		.uleb128 0xb
 3604 0344 3B       		.uleb128 0x3b
 3605 0345 0B       		.uleb128 0xb
 3606 0346 00       		.byte	0
 3607 0347 00       		.byte	0
 3608 0348 00       		.byte	0
 3609              		.section	.debug_loc,"",%progbits
 3610              	.Ldebug_loc0:
 3611              	.LLST0:
 3612 0000 00000000 		.4byte	.LVL0
 3613 0004 40000000 		.4byte	.LVL6
 3614 0008 0100     		.2byte	0x1
 3615 000a 50       		.byte	0x50
 3616 000b 40000000 		.4byte	.LVL6
 3617 000f 4C000000 		.4byte	.LVL10
 3618 0013 0400     		.2byte	0x4
 3619 0015 F3       		.byte	0xf3
 3620 0016 01       		.uleb128 0x1
 3621 0017 50       		.byte	0x50
 3622 0018 9F       		.byte	0x9f
 3623 0019 4C000000 		.4byte	.LVL10
 3624 001d 5E000000 		.4byte	.LVL11
 3625 0021 0100     		.2byte	0x1
 3626 0023 50       		.byte	0x50
 3627 0024 5E000000 		.4byte	.LVL11
 3628 0028 60000000 		.4byte	.LVL12
 3629 002c 0400     		.2byte	0x4
 3630 002e F3       		.byte	0xf3
 3631 002f 01       		.uleb128 0x1
 3632 0030 50       		.byte	0x50
 3633 0031 9F       		.byte	0x9f
 3634 0032 60000000 		.4byte	.LVL12
 3635 0036 62000000 		.4byte	.LVL13
 3636 003a 0100     		.2byte	0x1
 3637 003c 50       		.byte	0x50
 3638 003d 62000000 		.4byte	.LVL13
 3639 0041 7C000000 		.4byte	.LFE224
 3640 0045 0400     		.2byte	0x4
 3641 0047 F3       		.byte	0xf3
 3642 0048 01       		.uleb128 0x1
 3643 0049 50       		.byte	0x50
 3644 004a 9F       		.byte	0x9f
 3645 004b 00000000 		.4byte	0
 3646 004f 00000000 		.4byte	0
 3647              	.LLST1:
 3648 0053 00000000 		.4byte	.LVL0
ARM GAS  /var/tmp//cclgCVgN.s 			page 65


 3649 0057 43000000 		.4byte	.LVL7-1
 3650 005b 0100     		.2byte	0x1
 3651 005d 51       		.byte	0x51
 3652 005e 43000000 		.4byte	.LVL7-1
 3653 0062 4C000000 		.4byte	.LVL10
 3654 0066 0400     		.2byte	0x4
 3655 0068 F3       		.byte	0xf3
 3656 0069 01       		.uleb128 0x1
 3657 006a 51       		.byte	0x51
 3658 006b 9F       		.byte	0x9f
 3659 006c 4C000000 		.4byte	.LVL10
 3660 0070 64000000 		.4byte	.LVL14
 3661 0074 0100     		.2byte	0x1
 3662 0076 51       		.byte	0x51
 3663 0077 64000000 		.4byte	.LVL14
 3664 007b 7C000000 		.4byte	.LFE224
 3665 007f 0400     		.2byte	0x4
 3666 0081 F3       		.byte	0xf3
 3667 0082 01       		.uleb128 0x1
 3668 0083 51       		.byte	0x51
 3669 0084 9F       		.byte	0x9f
 3670 0085 00000000 		.4byte	0
 3671 0089 00000000 		.4byte	0
 3672              	.LLST2:
 3673 008d 00000000 		.4byte	.LVL0
 3674 0091 44000000 		.4byte	.LVL7
 3675 0095 0200     		.2byte	0x2
 3676 0097 39       		.byte	0x39
 3677 0098 9F       		.byte	0x9f
 3678 0099 44000000 		.4byte	.LVL7
 3679 009d 4A000000 		.4byte	.LVL9
 3680 00a1 0100     		.2byte	0x1
 3681 00a3 50       		.byte	0x50
 3682 00a4 4C000000 		.4byte	.LVL10
 3683 00a8 64000000 		.4byte	.LVL14
 3684 00ac 0200     		.2byte	0x2
 3685 00ae 39       		.byte	0x39
 3686 00af 9F       		.byte	0x9f
 3687 00b0 64000000 		.4byte	.LVL14
 3688 00b4 68000000 		.4byte	.LVL15
 3689 00b8 0100     		.2byte	0x1
 3690 00ba 50       		.byte	0x50
 3691 00bb 00000000 		.4byte	0
 3692 00bf 00000000 		.4byte	0
 3693              	.LLST3:
 3694 00c3 00000000 		.4byte	.LVL0
 3695 00c7 1A000000 		.4byte	.LVL2
 3696 00cb 0200     		.2byte	0x2
 3697 00cd 30       		.byte	0x30
 3698 00ce 9F       		.byte	0x9f
 3699 00cf 4C000000 		.4byte	.LVL10
 3700 00d3 60000000 		.4byte	.LVL12
 3701 00d7 0200     		.2byte	0x2
 3702 00d9 30       		.byte	0x30
 3703 00da 9F       		.byte	0x9f
 3704 00db 00000000 		.4byte	0
 3705 00df 00000000 		.4byte	0
ARM GAS  /var/tmp//cclgCVgN.s 			page 66


 3706              	.LLST4:
 3707 00e3 00000000 		.4byte	.LVL0
 3708 00e7 26000000 		.4byte	.LVL3
 3709 00eb 0600     		.2byte	0x6
 3710 00ed 0C       		.byte	0xc
 3711 00ee 00400008 		.4byte	0x8004000
 3712 00f2 9F       		.byte	0x9f
 3713 00f3 26000000 		.4byte	.LVL3
 3714 00f7 4C000000 		.4byte	.LVL10
 3715 00fb 0100     		.2byte	0x1
 3716 00fd 54       		.byte	0x54
 3717 00fe 4C000000 		.4byte	.LVL10
 3718 0102 60000000 		.4byte	.LVL12
 3719 0106 0600     		.2byte	0x6
 3720 0108 0C       		.byte	0xc
 3721 0109 00400008 		.4byte	0x8004000
 3722 010d 9F       		.byte	0x9f
 3723 010e 60000000 		.4byte	.LVL12
 3724 0112 7C000000 		.4byte	.LFE224
 3725 0116 0100     		.2byte	0x1
 3726 0118 54       		.byte	0x54
 3727 0119 00000000 		.4byte	0
 3728 011d 00000000 		.4byte	0
 3729              	.LLST5:
 3730 0121 00000000 		.4byte	.LVL0
 3731 0125 2A000000 		.4byte	.LVL4
 3732 0129 0600     		.2byte	0x6
 3733 012b 0C       		.byte	0xc
 3734 012c 00800008 		.4byte	0x8008000
 3735 0130 9F       		.byte	0x9f
 3736 0131 2A000000 		.4byte	.LVL4
 3737 0135 43000000 		.4byte	.LVL7-1
 3738 0139 0100     		.2byte	0x1
 3739 013b 52       		.byte	0x52
 3740 013c 4C000000 		.4byte	.LVL10
 3741 0140 60000000 		.4byte	.LVL12
 3742 0144 0600     		.2byte	0x6
 3743 0146 0C       		.byte	0xc
 3744 0147 00800008 		.4byte	0x8008000
 3745 014b 9F       		.byte	0x9f
 3746 014c 60000000 		.4byte	.LVL12
 3747 0150 64000000 		.4byte	.LVL14
 3748 0154 0100     		.2byte	0x1
 3749 0156 52       		.byte	0x52
 3750 0157 00000000 		.4byte	0
 3751 015b 00000000 		.4byte	0
 3752              	.LLST6:
 3753 015f 00000000 		.4byte	.LVL0
 3754 0163 1A000000 		.4byte	.LVL2
 3755 0167 0200     		.2byte	0x2
 3756 0169 31       		.byte	0x31
 3757 016a 9F       		.byte	0x9f
 3758 016b 4C000000 		.4byte	.LVL10
 3759 016f 60000000 		.4byte	.LVL12
 3760 0173 0200     		.2byte	0x2
 3761 0175 31       		.byte	0x31
 3762 0176 9F       		.byte	0x9f
ARM GAS  /var/tmp//cclgCVgN.s 			page 67


 3763 0177 00000000 		.4byte	0
 3764 017b 00000000 		.4byte	0
 3765              	.LLST7:
 3766 017f 00000000 		.4byte	.LVL0
 3767 0183 0E000000 		.4byte	.LVL1
 3768 0187 0200     		.2byte	0x2
 3769 0189 36       		.byte	0x36
 3770 018a 9F       		.byte	0x9f
 3771 018b 0E000000 		.4byte	.LVL1
 3772 018f 1A000000 		.4byte	.LVL2
 3773 0193 0100     		.2byte	0x1
 3774 0195 52       		.byte	0x52
 3775 0196 4C000000 		.4byte	.LVL10
 3776 019a 60000000 		.4byte	.LVL12
 3777 019e 0100     		.2byte	0x1
 3778 01a0 52       		.byte	0x52
 3779 01a1 00000000 		.4byte	0
 3780 01a5 00000000 		.4byte	0
 3781              	.LLST8:
 3782 01a9 00000000 		.4byte	.LVL0
 3783 01ad 0E000000 		.4byte	.LVL1
 3784 01b1 0200     		.2byte	0x2
 3785 01b3 36       		.byte	0x36
 3786 01b4 9F       		.byte	0x9f
 3787 01b5 0E000000 		.4byte	.LVL1
 3788 01b9 1A000000 		.4byte	.LVL2
 3789 01bd 0100     		.2byte	0x1
 3790 01bf 54       		.byte	0x54
 3791 01c0 4C000000 		.4byte	.LVL10
 3792 01c4 60000000 		.4byte	.LVL12
 3793 01c8 0100     		.2byte	0x1
 3794 01ca 54       		.byte	0x54
 3795 01cb 00000000 		.4byte	0
 3796 01cf 00000000 		.4byte	0
 3797              	.LLST29:
 3798 01d3 00000000 		.4byte	.LVL95
 3799 01d7 0B000000 		.4byte	.LVL96-1
 3800 01db 0100     		.2byte	0x1
 3801 01dd 50       		.byte	0x50
 3802 01de 0B000000 		.4byte	.LVL96-1
 3803 01e2 B0000000 		.4byte	.LFE221
 3804 01e6 0400     		.2byte	0x4
 3805 01e8 F3       		.byte	0xf3
 3806 01e9 01       		.uleb128 0x1
 3807 01ea 50       		.byte	0x50
 3808 01eb 9F       		.byte	0x9f
 3809 01ec 00000000 		.4byte	0
 3810 01f0 00000000 		.4byte	0
 3811              	.LLST30:
 3812 01f4 00000000 		.4byte	.LVL95
 3813 01f8 0B000000 		.4byte	.LVL96-1
 3814 01fc 0100     		.2byte	0x1
 3815 01fe 51       		.byte	0x51
 3816 01ff 0B000000 		.4byte	.LVL96-1
 3817 0203 B0000000 		.4byte	.LFE221
 3818 0207 0400     		.2byte	0x4
 3819 0209 F3       		.byte	0xf3
ARM GAS  /var/tmp//cclgCVgN.s 			page 68


 3820 020a 01       		.uleb128 0x1
 3821 020b 51       		.byte	0x51
 3822 020c 9F       		.byte	0x9f
 3823 020d 00000000 		.4byte	0
 3824 0211 00000000 		.4byte	0
 3825              	.LLST31:
 3826 0215 00000000 		.4byte	.LVL95
 3827 0219 0C000000 		.4byte	.LVL96
 3828 021d 0200     		.2byte	0x2
 3829 021f 30       		.byte	0x30
 3830 0220 9F       		.byte	0x9f
 3831 0221 0C000000 		.4byte	.LVL96
 3832 0225 18000000 		.4byte	.LVL99
 3833 0229 0100     		.2byte	0x1
 3834 022b 50       		.byte	0x50
 3835 022c 00000000 		.4byte	0
 3836 0230 00000000 		.4byte	0
 3837              	.LLST32:
 3838 0234 14000000 		.4byte	.LVL98
 3839 0238 3A000000 		.4byte	.LVL104
 3840 023c 0100     		.2byte	0x1
 3841 023e 55       		.byte	0x55
 3842 023f 40000000 		.4byte	.LVL105
 3843 0243 52000000 		.4byte	.LVL109
 3844 0247 0100     		.2byte	0x1
 3845 0249 55       		.byte	0x55
 3846 024a 00000000 		.4byte	0
 3847 024e 00000000 		.4byte	0
 3848              	.LLST33:
 3849 0252 14000000 		.4byte	.LVL98
 3850 0256 36000000 		.4byte	.LVL103
 3851 025a 0200     		.2byte	0x2
 3852 025c 39       		.byte	0x39
 3853 025d 9F       		.byte	0x9f
 3854 025e 36000000 		.4byte	.LVL103
 3855 0262 3A000000 		.4byte	.LVL104
 3856 0266 0100     		.2byte	0x1
 3857 0268 50       		.byte	0x50
 3858 0269 40000000 		.4byte	.LVL105
 3859 026d 44000000 		.4byte	.LVL106
 3860 0271 0200     		.2byte	0x2
 3861 0273 39       		.byte	0x39
 3862 0274 9F       		.byte	0x9f
 3863 0275 44000000 		.4byte	.LVL106
 3864 0279 48000000 		.4byte	.LVL107
 3865 027d 0100     		.2byte	0x1
 3866 027f 50       		.byte	0x50
 3867 0280 8C000000 		.4byte	.LVL115
 3868 0284 94000000 		.4byte	.LVL116
 3869 0288 0100     		.2byte	0x1
 3870 028a 50       		.byte	0x50
 3871 028b 9A000000 		.4byte	.LVL117
 3872 028f B0000000 		.4byte	.LFE221
 3873 0293 0100     		.2byte	0x1
 3874 0295 50       		.byte	0x50
 3875 0296 00000000 		.4byte	0
 3876 029a 00000000 		.4byte	0
ARM GAS  /var/tmp//cclgCVgN.s 			page 69


 3877              	.LLST34:
 3878 029e 14000000 		.4byte	.LVL98
 3879 02a2 2C000000 		.4byte	.LVL102
 3880 02a6 0600     		.2byte	0x6
 3881 02a8 0C       		.byte	0xc
 3882 02a9 00400008 		.4byte	0x8004000
 3883 02ad 9F       		.byte	0x9f
 3884 02ae 2C000000 		.4byte	.LVL102
 3885 02b2 40000000 		.4byte	.LVL105
 3886 02b6 0100     		.2byte	0x1
 3887 02b8 56       		.byte	0x56
 3888 02b9 40000000 		.4byte	.LVL105
 3889 02bd 44000000 		.4byte	.LVL106
 3890 02c1 0600     		.2byte	0x6
 3891 02c3 0C       		.byte	0xc
 3892 02c4 00400008 		.4byte	0x8004000
 3893 02c8 9F       		.byte	0x9f
 3894 02c9 44000000 		.4byte	.LVL106
 3895 02cd B0000000 		.4byte	.LFE221
 3896 02d1 0100     		.2byte	0x1
 3897 02d3 56       		.byte	0x56
 3898 02d4 00000000 		.4byte	0
 3899 02d8 00000000 		.4byte	0
 3900              	.LLST35:
 3901 02dc 14000000 		.4byte	.LVL98
 3902 02e0 2C000000 		.4byte	.LVL102
 3903 02e4 0200     		.2byte	0x2
 3904 02e6 30       		.byte	0x30
 3905 02e7 9F       		.byte	0x9f
 3906 02e8 2C000000 		.4byte	.LVL102
 3907 02ec 40000000 		.4byte	.LVL105
 3908 02f0 0100     		.2byte	0x1
 3909 02f2 57       		.byte	0x57
 3910 02f3 40000000 		.4byte	.LVL105
 3911 02f7 44000000 		.4byte	.LVL106
 3912 02fb 0200     		.2byte	0x2
 3913 02fd 30       		.byte	0x30
 3914 02fe 9F       		.byte	0x9f
 3915 02ff 44000000 		.4byte	.LVL106
 3916 0303 B0000000 		.4byte	.LFE221
 3917 0307 0100     		.2byte	0x1
 3918 0309 57       		.byte	0x57
 3919 030a 00000000 		.4byte	0
 3920 030e 00000000 		.4byte	0
 3921              	.LLST36:
 3922 0312 14000000 		.4byte	.LVL98
 3923 0316 3A000000 		.4byte	.LVL104
 3924 031a 0200     		.2byte	0x2
 3925 031c 30       		.byte	0x30
 3926 031d 9F       		.byte	0x9f
 3927 031e 40000000 		.4byte	.LVL105
 3928 0322 5C000000 		.4byte	.LVL110
 3929 0326 0200     		.2byte	0x2
 3930 0328 30       		.byte	0x30
 3931 0329 9F       		.byte	0x9f
 3932 032a 00000000 		.4byte	0
 3933 032e 00000000 		.4byte	0
ARM GAS  /var/tmp//cclgCVgN.s 			page 70


 3934              	.LLST37:
 3935 0332 14000000 		.4byte	.LVL98
 3936 0336 3A000000 		.4byte	.LVL104
 3937 033a 0200     		.2byte	0x2
 3938 033c 30       		.byte	0x30
 3939 033d 9F       		.byte	0x9f
 3940 033e 40000000 		.4byte	.LVL105
 3941 0342 4C000000 		.4byte	.LVL108
 3942 0346 0200     		.2byte	0x2
 3943 0348 30       		.byte	0x30
 3944 0349 9F       		.byte	0x9f
 3945 034a 4C000000 		.4byte	.LVL108
 3946 034e 5C000000 		.4byte	.LVL110
 3947 0352 0100     		.2byte	0x1
 3948 0354 50       		.byte	0x50
 3949 0355 7E000000 		.4byte	.LVL113
 3950 0359 86000000 		.4byte	.LVL114
 3951 035d 0100     		.2byte	0x1
 3952 035f 50       		.byte	0x50
 3953 0360 00000000 		.4byte	0
 3954 0364 00000000 		.4byte	0
 3955              	.LLST38:
 3956 0368 14000000 		.4byte	.LVL98
 3957 036c 3A000000 		.4byte	.LVL104
 3958 0370 0200     		.2byte	0x2
 3959 0372 30       		.byte	0x30
 3960 0373 9F       		.byte	0x9f
 3961 0374 40000000 		.4byte	.LVL105
 3962 0378 5C000000 		.4byte	.LVL110
 3963 037c 0200     		.2byte	0x2
 3964 037e 30       		.byte	0x30
 3965 037f 9F       		.byte	0x9f
 3966 0380 70000000 		.4byte	.LVL111
 3967 0384 7A000000 		.4byte	.LVL112
 3968 0388 0100     		.2byte	0x1
 3969 038a 50       		.byte	0x50
 3970 038b 00000000 		.4byte	0
 3971 038f 00000000 		.4byte	0
 3972              	.LLST39:
 3973 0393 14000000 		.4byte	.LVL98
 3974 0397 1E000000 		.4byte	.LVL100
 3975 039b 0200     		.2byte	0x2
 3976 039d 36       		.byte	0x36
 3977 039e 9F       		.byte	0x9f
 3978 039f 1E000000 		.4byte	.LVL100
 3979 03a3 35000000 		.4byte	.LVL103-1
 3980 03a7 0100     		.2byte	0x1
 3981 03a9 53       		.byte	0x53
 3982 03aa 40000000 		.4byte	.LVL105
 3983 03ae 44000000 		.4byte	.LVL106
 3984 03b2 0100     		.2byte	0x1
 3985 03b4 53       		.byte	0x53
 3986 03b5 00000000 		.4byte	0
 3987 03b9 00000000 		.4byte	0
 3988              	.LLST40:
 3989 03bd 14000000 		.4byte	.LVL98
 3990 03c1 20000000 		.4byte	.LVL101
ARM GAS  /var/tmp//cclgCVgN.s 			page 71


 3991 03c5 0200     		.2byte	0x2
 3992 03c7 36       		.byte	0x36
 3993 03c8 9F       		.byte	0x9f
 3994 03c9 20000000 		.4byte	.LVL101
 3995 03cd 35000000 		.4byte	.LVL103-1
 3996 03d1 0100     		.2byte	0x1
 3997 03d3 52       		.byte	0x52
 3998 03d4 40000000 		.4byte	.LVL105
 3999 03d8 44000000 		.4byte	.LVL106
 4000 03dc 0100     		.2byte	0x1
 4001 03de 52       		.byte	0x52
 4002 03df 00000000 		.4byte	0
 4003 03e3 00000000 		.4byte	0
 4004              	.LLST13:
 4005 03e7 00000000 		.4byte	.LVL36
 4006 03eb 3A000000 		.4byte	.LVL48
 4007 03ef 0100     		.2byte	0x1
 4008 03f1 50       		.byte	0x50
 4009 03f2 3A000000 		.4byte	.LVL48
 4010 03f6 40000000 		.4byte	.LVL49
 4011 03fa 0400     		.2byte	0x4
 4012 03fc F3       		.byte	0xf3
 4013 03fd 01       		.uleb128 0x1
 4014 03fe 50       		.byte	0x50
 4015 03ff 9F       		.byte	0x9f
 4016 0400 40000000 		.4byte	.LVL49
 4017 0404 42000000 		.4byte	.LVL50
 4018 0408 0100     		.2byte	0x1
 4019 040a 50       		.byte	0x50
 4020 040b 42000000 		.4byte	.LVL50
 4021 040f 48000000 		.4byte	.LVL51
 4022 0413 0400     		.2byte	0x4
 4023 0415 F3       		.byte	0xf3
 4024 0416 01       		.uleb128 0x1
 4025 0417 50       		.byte	0x50
 4026 0418 9F       		.byte	0x9f
 4027 0419 48000000 		.4byte	.LVL51
 4028 041d 50000000 		.4byte	.LVL53
 4029 0421 0100     		.2byte	0x1
 4030 0423 50       		.byte	0x50
 4031 0424 50000000 		.4byte	.LVL53
 4032 0428 70000000 		.4byte	.LFE220
 4033 042c 0400     		.2byte	0x4
 4034 042e F3       		.byte	0xf3
 4035 042f 01       		.uleb128 0x1
 4036 0430 50       		.byte	0x50
 4037 0431 9F       		.byte	0x9f
 4038 0432 00000000 		.4byte	0
 4039 0436 00000000 		.4byte	0
 4040              	.LLST14:
 4041 043a 00000000 		.4byte	.LVL36
 4042 043e 20000000 		.4byte	.LVL42
 4043 0442 0200     		.2byte	0x2
 4044 0444 30       		.byte	0x30
 4045 0445 9F       		.byte	0x9f
 4046 0446 40000000 		.4byte	.LVL49
 4047 044a 48000000 		.4byte	.LVL51
ARM GAS  /var/tmp//cclgCVgN.s 			page 72


 4048 044e 0200     		.2byte	0x2
 4049 0450 30       		.byte	0x30
 4050 0451 9F       		.byte	0x9f
 4051 0452 00000000 		.4byte	0
 4052 0456 00000000 		.4byte	0
 4053              	.LLST15:
 4054 045a 00000000 		.4byte	.LVL36
 4055 045e 24000000 		.4byte	.LVL43
 4056 0462 0400     		.2byte	0x4
 4057 0464 0A       		.byte	0xa
 4058 0465 5555     		.2byte	0x5555
 4059 0467 9F       		.byte	0x9f
 4060 0468 24000000 		.4byte	.LVL43
 4061 046c 2A000000 		.4byte	.LVL44
 4062 0470 0100     		.2byte	0x1
 4063 0472 52       		.byte	0x52
 4064 0473 2E000000 		.4byte	.LVL45
 4065 0477 32000000 		.4byte	.LVL46
 4066 047b 0100     		.2byte	0x1
 4067 047d 52       		.byte	0x52
 4068 047e 40000000 		.4byte	.LVL49
 4069 0482 48000000 		.4byte	.LVL51
 4070 0486 0400     		.2byte	0x4
 4071 0488 0A       		.byte	0xa
 4072 0489 5555     		.2byte	0x5555
 4073 048b 9F       		.byte	0x9f
 4074 048c 00000000 		.4byte	0
 4075 0490 00000000 		.4byte	0
 4076              	.LLST16:
 4077 0494 00000000 		.4byte	.LVL36
 4078 0498 4E000000 		.4byte	.LVL52
 4079 049c 0200     		.2byte	0x2
 4080 049e 31       		.byte	0x31
 4081 049f 9F       		.byte	0x9f
 4082 04a0 4E000000 		.4byte	.LVL52
 4083 04a4 70000000 		.4byte	.LFE220
 4084 04a8 0200     		.2byte	0x2
 4085 04aa 30       		.byte	0x30
 4086 04ab 9F       		.byte	0x9f
 4087 04ac 00000000 		.4byte	0
 4088 04b0 00000000 		.4byte	0
 4089              	.LLST17:
 4090 04b4 00000000 		.4byte	.LVL36
 4091 04b8 20000000 		.4byte	.LVL42
 4092 04bc 0600     		.2byte	0x6
 4093 04be 0C       		.byte	0xc
 4094 04bf 00400008 		.4byte	0x8004000
 4095 04c3 9F       		.byte	0x9f
 4096 04c4 2A000000 		.4byte	.LVL44
 4097 04c8 40000000 		.4byte	.LVL49
 4098 04cc 0100     		.2byte	0x1
 4099 04ce 53       		.byte	0x53
 4100 04cf 40000000 		.4byte	.LVL49
 4101 04d3 48000000 		.4byte	.LVL51
 4102 04d7 0600     		.2byte	0x6
 4103 04d9 0C       		.byte	0xc
 4104 04da 00400008 		.4byte	0x8004000
ARM GAS  /var/tmp//cclgCVgN.s 			page 73


 4105 04de 9F       		.byte	0x9f
 4106 04df 00000000 		.4byte	0
 4107 04e3 00000000 		.4byte	0
 4108              	.LLST18:
 4109 04e7 00000000 		.4byte	.LVL36
 4110 04eb 20000000 		.4byte	.LVL42
 4111 04ef 0600     		.2byte	0x6
 4112 04f1 0C       		.byte	0xc
 4113 04f2 00400008 		.4byte	0x8004000
 4114 04f6 9F       		.byte	0x9f
 4115 04f7 40000000 		.4byte	.LVL49
 4116 04fb 48000000 		.4byte	.LVL51
 4117 04ff 0600     		.2byte	0x6
 4118 0501 0C       		.byte	0xc
 4119 0502 00400008 		.4byte	0x8004000
 4120 0506 9F       		.byte	0x9f
 4121 0507 00000000 		.4byte	0
 4122 050b 00000000 		.4byte	0
 4123              	.LLST20:
 4124 050f 00000000 		.4byte	.LVL36
 4125 0513 0A000000 		.4byte	.LVL37
 4126 0517 0200     		.2byte	0x2
 4127 0519 36       		.byte	0x36
 4128 051a 9F       		.byte	0x9f
 4129 051b 0A000000 		.4byte	.LVL37
 4130 051f 14000000 		.4byte	.LVL38
 4131 0523 0100     		.2byte	0x1
 4132 0525 53       		.byte	0x53
 4133 0526 1A000000 		.4byte	.LVL40
 4134 052a 1C000000 		.4byte	.LVL41
 4135 052e 0100     		.2byte	0x1
 4136 0530 53       		.byte	0x53
 4137 0531 40000000 		.4byte	.LVL49
 4138 0535 48000000 		.4byte	.LVL51
 4139 0539 0100     		.2byte	0x1
 4140 053b 53       		.byte	0x53
 4141 053c 00000000 		.4byte	0
 4142 0540 00000000 		.4byte	0
 4143              	.LLST21:
 4144 0544 00000000 		.4byte	.LVL36
 4145 0548 0A000000 		.4byte	.LVL37
 4146 054c 0200     		.2byte	0x2
 4147 054e 36       		.byte	0x36
 4148 054f 9F       		.byte	0x9f
 4149 0550 0A000000 		.4byte	.LVL37
 4150 0554 18000000 		.4byte	.LVL39
 4151 0558 0100     		.2byte	0x1
 4152 055a 52       		.byte	0x52
 4153 055b 1A000000 		.4byte	.LVL40
 4154 055f 20000000 		.4byte	.LVL42
 4155 0563 0100     		.2byte	0x1
 4156 0565 52       		.byte	0x52
 4157 0566 40000000 		.4byte	.LVL49
 4158 056a 48000000 		.4byte	.LVL51
 4159 056e 0100     		.2byte	0x1
 4160 0570 52       		.byte	0x52
 4161 0571 00000000 		.4byte	0
ARM GAS  /var/tmp//cclgCVgN.s 			page 74


 4162 0575 00000000 		.4byte	0
 4163              	.LLST22:
 4164 0579 00000000 		.4byte	.LVL54
 4165 057d 0E000000 		.4byte	.LVL55
 4166 0581 0200     		.2byte	0x2
 4167 0583 36       		.byte	0x36
 4168 0584 9F       		.byte	0x9f
 4169 0585 0E000000 		.4byte	.LVL55
 4170 0589 28000000 		.4byte	.LVL58
 4171 058d 0100     		.2byte	0x1
 4172 058f 54       		.byte	0x54
 4173 0590 2C000000 		.4byte	.LVL59
 4174 0594 40000000 		.4byte	.LVL60
 4175 0598 0100     		.2byte	0x1
 4176 059a 54       		.byte	0x54
 4177 059b 7C000000 		.4byte	.LVL67
 4178 059f A6000000 		.4byte	.LVL73
 4179 05a3 0100     		.2byte	0x1
 4180 05a5 54       		.byte	0x54
 4181 05a6 E8000000 		.4byte	.LVL81
 4182 05aa 08010000 		.4byte	.LVL86
 4183 05ae 0100     		.2byte	0x1
 4184 05b0 54       		.byte	0x54
 4185 05b1 00000000 		.4byte	0
 4186 05b5 00000000 		.4byte	0
 4187              	.LLST23:
 4188 05b9 00000000 		.4byte	.LVL54
 4189 05bd 16000000 		.4byte	.LVL56
 4190 05c1 0200     		.2byte	0x2
 4191 05c3 36       		.byte	0x36
 4192 05c4 9F       		.byte	0x9f
 4193 05c5 16000000 		.4byte	.LVL56
 4194 05c9 25000000 		.4byte	.LVL57-1
 4195 05cd 0100     		.2byte	0x1
 4196 05cf 53       		.byte	0x53
 4197 05d0 2C000000 		.4byte	.LVL59
 4198 05d4 40000000 		.4byte	.LVL60
 4199 05d8 0100     		.2byte	0x1
 4200 05da 53       		.byte	0x53
 4201 05db 7C000000 		.4byte	.LVL67
 4202 05df 89000000 		.4byte	.LVL68-1
 4203 05e3 0100     		.2byte	0x1
 4204 05e5 53       		.byte	0x53
 4205 05e6 9C000000 		.4byte	.LVL72
 4206 05ea AC000000 		.4byte	.LVL74
 4207 05ee 0100     		.2byte	0x1
 4208 05f0 53       		.byte	0x53
 4209 05f1 E8000000 		.4byte	.LVL81
 4210 05f5 F5000000 		.4byte	.LVL82-1
 4211 05f9 0100     		.2byte	0x1
 4212 05fb 53       		.byte	0x53
 4213 05fc 00000000 		.4byte	0
 4214 0600 00000000 		.4byte	0
 4215              	.LLST24:
 4216 0604 00000000 		.4byte	.LVL54
 4217 0608 28000000 		.4byte	.LVL58
 4218 060c 0200     		.2byte	0x2
ARM GAS  /var/tmp//cclgCVgN.s 			page 75


 4219 060e 30       		.byte	0x30
 4220 060f 9F       		.byte	0x9f
 4221 0610 2C000000 		.4byte	.LVL59
 4222 0614 40000000 		.4byte	.LVL60
 4223 0618 0200     		.2byte	0x2
 4224 061a 30       		.byte	0x30
 4225 061b 9F       		.byte	0x9f
 4226 061c 4A000000 		.4byte	.LVL61
 4227 0620 62000000 		.4byte	.LVL63
 4228 0624 0100     		.2byte	0x1
 4229 0626 54       		.byte	0x54
 4230 0627 7C000000 		.4byte	.LVL67
 4231 062b AC000000 		.4byte	.LVL74
 4232 062f 0200     		.2byte	0x2
 4233 0631 30       		.byte	0x30
 4234 0632 9F       		.byte	0x9f
 4235 0633 B6000000 		.4byte	.LVL75
 4236 0637 CE000000 		.4byte	.LVL77
 4237 063b 0100     		.2byte	0x1
 4238 063d 54       		.byte	0x54
 4239 063e E8000000 		.4byte	.LVL81
 4240 0642 08010000 		.4byte	.LVL86
 4241 0646 0200     		.2byte	0x2
 4242 0648 30       		.byte	0x30
 4243 0649 9F       		.byte	0x9f
 4244 064a 00000000 		.4byte	0
 4245 064e 00000000 		.4byte	0
 4246              	.LLST25:
 4247 0652 00000000 		.4byte	.LVL54
 4248 0656 28000000 		.4byte	.LVL58
 4249 065a 0200     		.2byte	0x2
 4250 065c 30       		.byte	0x30
 4251 065d 9F       		.byte	0x9f
 4252 065e 2C000000 		.4byte	.LVL59
 4253 0662 40000000 		.4byte	.LVL60
 4254 0666 0200     		.2byte	0x2
 4255 0668 30       		.byte	0x30
 4256 0669 9F       		.byte	0x9f
 4257 066a 74000000 		.4byte	.LVL66
 4258 066e 7C000000 		.4byte	.LVL67
 4259 0672 0100     		.2byte	0x1
 4260 0674 50       		.byte	0x50
 4261 0675 7C000000 		.4byte	.LVL67
 4262 0679 AC000000 		.4byte	.LVL74
 4263 067d 0200     		.2byte	0x2
 4264 067f 30       		.byte	0x30
 4265 0680 9F       		.byte	0x9f
 4266 0681 E0000000 		.4byte	.LVL80
 4267 0685 E8000000 		.4byte	.LVL81
 4268 0689 0100     		.2byte	0x1
 4269 068b 50       		.byte	0x50
 4270 068c E8000000 		.4byte	.LVL81
 4271 0690 08010000 		.4byte	.LVL86
 4272 0694 0200     		.2byte	0x2
 4273 0696 30       		.byte	0x30
 4274 0697 9F       		.byte	0x9f
 4275 0698 00000000 		.4byte	0
ARM GAS  /var/tmp//cclgCVgN.s 			page 76


 4276 069c 00000000 		.4byte	0
 4277              	.LLST26:
 4278 06a0 00000000 		.4byte	.LVL54
 4279 06a4 28000000 		.4byte	.LVL58
 4280 06a8 0200     		.2byte	0x2
 4281 06aa 30       		.byte	0x30
 4282 06ab 9F       		.byte	0x9f
 4283 06ac 2C000000 		.4byte	.LVL59
 4284 06b0 40000000 		.4byte	.LVL60
 4285 06b4 0200     		.2byte	0x2
 4286 06b6 30       		.byte	0x30
 4287 06b7 9F       		.byte	0x9f
 4288 06b8 68000000 		.4byte	.LVL64
 4289 06bc 70000000 		.4byte	.LVL65
 4290 06c0 0100     		.2byte	0x1
 4291 06c2 50       		.byte	0x50
 4292 06c3 7C000000 		.4byte	.LVL67
 4293 06c7 AC000000 		.4byte	.LVL74
 4294 06cb 0200     		.2byte	0x2
 4295 06cd 30       		.byte	0x30
 4296 06ce 9F       		.byte	0x9f
 4297 06cf D4000000 		.4byte	.LVL78
 4298 06d3 DC000000 		.4byte	.LVL79
 4299 06d7 0100     		.2byte	0x1
 4300 06d9 50       		.byte	0x50
 4301 06da E8000000 		.4byte	.LVL81
 4302 06de 08010000 		.4byte	.LVL86
 4303 06e2 0200     		.2byte	0x2
 4304 06e4 30       		.byte	0x30
 4305 06e5 9F       		.byte	0x9f
 4306 06e6 00000000 		.4byte	0
 4307 06ea 00000000 		.4byte	0
 4308              	.LLST27:
 4309 06ee 00000000 		.4byte	.LVL54
 4310 06f2 28000000 		.4byte	.LVL58
 4311 06f6 0300     		.2byte	0x3
 4312 06f8 09       		.byte	0x9
 4313 06f9 FF       		.byte	0xff
 4314 06fa 9F       		.byte	0x9f
 4315 06fb 2C000000 		.4byte	.LVL59
 4316 06ff 40000000 		.4byte	.LVL60
 4317 0703 0300     		.2byte	0x3
 4318 0705 09       		.byte	0x9
 4319 0706 FF       		.byte	0xff
 4320 0707 9F       		.byte	0x9f
 4321 0708 40000000 		.4byte	.LVL60
 4322 070c 7C000000 		.4byte	.LVL67
 4323 0710 0100     		.2byte	0x1
 4324 0712 58       		.byte	0x58
 4325 0713 7C000000 		.4byte	.LVL67
 4326 0717 AC000000 		.4byte	.LVL74
 4327 071b 0300     		.2byte	0x3
 4328 071d 09       		.byte	0x9
 4329 071e FF       		.byte	0xff
 4330 071f 9F       		.byte	0x9f
 4331 0720 AC000000 		.4byte	.LVL74
 4332 0724 E8000000 		.4byte	.LVL81
ARM GAS  /var/tmp//cclgCVgN.s 			page 77


 4333 0728 0100     		.2byte	0x1
 4334 072a 58       		.byte	0x58
 4335 072b E8000000 		.4byte	.LVL81
 4336 072f 08010000 		.4byte	.LVL86
 4337 0733 0300     		.2byte	0x3
 4338 0735 09       		.byte	0x9
 4339 0736 FF       		.byte	0xff
 4340 0737 9F       		.byte	0x9f
 4341 0738 08010000 		.4byte	.LVL86
 4342 073c 16010000 		.4byte	.LVL89
 4343 0740 0100     		.2byte	0x1
 4344 0742 58       		.byte	0x58
 4345 0743 20010000 		.4byte	.LVL90
 4346 0747 30010000 		.4byte	.LVL93
 4347 074b 0100     		.2byte	0x1
 4348 074d 58       		.byte	0x58
 4349 074e 00000000 		.4byte	0
 4350 0752 00000000 		.4byte	0
 4351              	.LLST28:
 4352 0756 28000000 		.4byte	.LVL58
 4353 075a 2C000000 		.4byte	.LVL59
 4354 075e 0100     		.2byte	0x1
 4355 0760 50       		.byte	0x50
 4356 0761 8A000000 		.4byte	.LVL68
 4357 0765 90000000 		.4byte	.LVL69
 4358 0769 0100     		.2byte	0x1
 4359 076b 50       		.byte	0x50
 4360 076c 98000000 		.4byte	.LVL71
 4361 0770 9C000000 		.4byte	.LVL72
 4362 0774 0100     		.2byte	0x1
 4363 0776 50       		.byte	0x50
 4364 0777 F6000000 		.4byte	.LVL82
 4365 077b FC000000 		.4byte	.LVL83
 4366 077f 0100     		.2byte	0x1
 4367 0781 50       		.byte	0x50
 4368 0782 04010000 		.4byte	.LVL85
 4369 0786 08010000 		.4byte	.LVL86
 4370 078a 0100     		.2byte	0x1
 4371 078c 50       		.byte	0x50
 4372 078d 12010000 		.4byte	.LVL88
 4373 0791 16010000 		.4byte	.LVL89
 4374 0795 0100     		.2byte	0x1
 4375 0797 50       		.byte	0x50
 4376 0798 2A010000 		.4byte	.LVL92
 4377 079c 30010000 		.4byte	.LVL93
 4378 07a0 0100     		.2byte	0x1
 4379 07a2 50       		.byte	0x50
 4380 07a3 00000000 		.4byte	0
 4381 07a7 00000000 		.4byte	0
 4382              	.LLST9:
 4383 07ab 00000000 		.4byte	.LVL17
 4384 07af 07000000 		.4byte	.LVL18-1
 4385 07b3 0100     		.2byte	0x1
 4386 07b5 50       		.byte	0x50
 4387 07b6 07000000 		.4byte	.LVL18-1
 4388 07ba 2E000000 		.4byte	.LFE228
 4389 07be 0100     		.2byte	0x1
ARM GAS  /var/tmp//cclgCVgN.s 			page 78


 4390 07c0 54       		.byte	0x54
 4391 07c1 00000000 		.4byte	0
 4392 07c5 00000000 		.4byte	0
 4393              	.LLST10:
 4394 07c9 08000000 		.4byte	.LVL18
 4395 07cd 10000000 		.4byte	.LVL19
 4396 07d1 0100     		.2byte	0x1
 4397 07d3 50       		.byte	0x50
 4398 07d4 10000000 		.4byte	.LVL19
 4399 07d8 12000000 		.4byte	.LVL20
 4400 07dc 0300     		.2byte	0x3
 4401 07de 70       		.byte	0x70
 4402 07df 01       		.sleb128 1
 4403 07e0 9F       		.byte	0x9f
 4404 07e1 12000000 		.4byte	.LVL20
 4405 07e5 25000000 		.4byte	.LVL24-1
 4406 07e9 0500     		.2byte	0x5
 4407 07eb 72       		.byte	0x72
 4408 07ec 81807F   		.sleb128 -16383
 4409 07ef 9F       		.byte	0x9f
 4410 07f0 2A000000 		.4byte	.LVL25
 4411 07f4 2E000000 		.4byte	.LFE228
 4412 07f8 0500     		.2byte	0x5
 4413 07fa 72       		.byte	0x72
 4414 07fb 81807F   		.sleb128 -16383
 4415 07fe 9F       		.byte	0x9f
 4416 07ff 00000000 		.4byte	0
 4417 0803 00000000 		.4byte	0
 4418              	.LLST11:
 4419 0807 08000000 		.4byte	.LVL18
 4420 080b 12000000 		.4byte	.LVL20
 4421 080f 0200     		.2byte	0x2
 4422 0811 30       		.byte	0x30
 4423 0812 9F       		.byte	0x9f
 4424 0813 12000000 		.4byte	.LVL20
 4425 0817 20000000 		.4byte	.LVL23
 4426 081b 0A00     		.2byte	0xa
 4427 081d 70       		.byte	0x70
 4428 081e 00       		.sleb128 0
 4429 081f 72       		.byte	0x72
 4430 0820 00       		.sleb128 0
 4431 0821 1C       		.byte	0x1c
 4432 0822 23       		.byte	0x23
 4433 0823 808001   		.uleb128 0x4000
 4434 0826 9F       		.byte	0x9f
 4435 0827 2A000000 		.4byte	.LVL25
 4436 082b 2C000000 		.4byte	.LVL26
 4437 082f 0A00     		.2byte	0xa
 4438 0831 70       		.byte	0x70
 4439 0832 00       		.sleb128 0
 4440 0833 72       		.byte	0x72
 4441 0834 00       		.sleb128 0
 4442 0835 1C       		.byte	0x1c
 4443 0836 23       		.byte	0x23
 4444 0837 808001   		.uleb128 0x4000
 4445 083a 9F       		.byte	0x9f
 4446 083b 00000000 		.4byte	0
ARM GAS  /var/tmp//cclgCVgN.s 			page 79


 4447 083f 00000000 		.4byte	0
 4448              	.LLST12:
 4449 0843 00000000 		.4byte	.LVL27
 4450 0847 0A000000 		.4byte	.LVL29
 4451 084b 0200     		.2byte	0x2
 4452 084d 39       		.byte	0x39
 4453 084e 9F       		.byte	0x9f
 4454 084f 0A000000 		.4byte	.LVL29
 4455 0853 0E000000 		.4byte	.LVL30
 4456 0857 0100     		.2byte	0x1
 4457 0859 50       		.byte	0x50
 4458 085a 10000000 		.4byte	.LVL31
 4459 085e 14000000 		.4byte	.LVL32
 4460 0862 0100     		.2byte	0x1
 4461 0864 50       		.byte	0x50
 4462 0865 18000000 		.4byte	.LVL33
 4463 0869 1E000000 		.4byte	.LVL34
 4464 086d 0100     		.2byte	0x1
 4465 086f 50       		.byte	0x50
 4466 0870 00000000 		.4byte	0
 4467 0874 00000000 		.4byte	0
 4468              		.section	.debug_aranges,"",%progbits
 4469 0000 44000000 		.4byte	0x44
 4470 0004 0200     		.2byte	0x2
 4471 0006 00000000 		.4byte	.Ldebug_info0
 4472 000a 04       		.byte	0x4
 4473 000b 00       		.byte	0
 4474 000c 0000     		.2byte	0
 4475 000e 0000     		.2byte	0
 4476 0010 00000000 		.4byte	.LFB224
 4477 0014 7C000000 		.4byte	.LFE224-.LFB224
 4478 0018 00000000 		.4byte	.LFB228
 4479 001c 2E000000 		.4byte	.LFE228-.LFB228
 4480 0020 00000000 		.4byte	.LFB222
 4481 0024 2C000000 		.4byte	.LFE222-.LFB222
 4482 0028 00000000 		.4byte	.LFB220
 4483 002c 70000000 		.4byte	.LFE220-.LFB220
 4484 0030 00000000 		.4byte	.LFB219
 4485 0034 54010000 		.4byte	.LFE219-.LFB219
 4486 0038 00000000 		.4byte	.LFB221
 4487 003c B0000000 		.4byte	.LFE221-.LFB221
 4488 0040 00000000 		.4byte	0
 4489 0044 00000000 		.4byte	0
 4490              		.section	.debug_ranges,"",%progbits
 4491              	.Ldebug_ranges0:
 4492 0000 02000000 		.4byte	.LBB9
 4493 0004 1A000000 		.4byte	.LBE9
 4494 0008 4C000000 		.4byte	.LBB12
 4495 000c 5C000000 		.4byte	.LBE12
 4496 0010 00000000 		.4byte	0
 4497 0014 00000000 		.4byte	0
 4498 0018 00000000 		.4byte	.LBB17
 4499 001c 0A000000 		.4byte	.LBE17
 4500 0020 0C000000 		.4byte	.LBB20
 4501 0024 20000000 		.4byte	.LBE20
 4502 0028 00000000 		.4byte	0
 4503 002c 00000000 		.4byte	0
ARM GAS  /var/tmp//cclgCVgN.s 			page 80


 4504 0030 00000000 		.4byte	.LFB224
 4505 0034 7C000000 		.4byte	.LFE224
 4506 0038 00000000 		.4byte	.LFB228
 4507 003c 2E000000 		.4byte	.LFE228
 4508 0040 00000000 		.4byte	.LFB222
 4509 0044 2C000000 		.4byte	.LFE222
 4510 0048 00000000 		.4byte	.LFB220
 4511 004c 70000000 		.4byte	.LFE220
 4512 0050 00000000 		.4byte	.LFB219
 4513 0054 54010000 		.4byte	.LFE219
 4514 0058 00000000 		.4byte	.LFB221
 4515 005c B0000000 		.4byte	.LFE221
 4516 0060 00000000 		.4byte	0
 4517 0064 00000000 		.4byte	0
 4518              		.section	.debug_line,"",%progbits
 4519              	.Ldebug_line0:
 4520 0000 6C040000 		.section	.debug_str,"MS",%progbits,1
 4520      0200F102 
 4520      00000201 
 4520      FB0E0D00 
 4520      01010101 
 4521              	.LASF130:
 4522 0000 63665F6F 		.ascii	"cf_off_older\000"
 4522      66665F6F 
 4522      6C646572 
 4522      00
 4523              	.LASF71:
 4524 000d 72656164 		.ascii	"ready_list_t\000"
 4524      795F6C69 
 4524      73745F74 
 4524      00
 4525              	.LASF105:
 4526 001a 7264796D 		.ascii	"rdymsg\000"
 4526      736700
 4527              	.LASF20:
 4528 0021 75696E74 		.ascii	"uint64_t\000"
 4528      36345F74 
 4528      00
 4529              	.LASF2:
 4530 002a 5F5F7569 		.ascii	"__uint8_t\000"
 4530      6E74385F 
 4530      7400
 4531              	.LASF102:
 4532 0034 706F7274 		.ascii	"port_intctx\000"
 4532      5F696E74 
 4532      63747800 
 4533              	.LASF90:
 4534 0040 73797374 		.ascii	"system_debug_t\000"
 4534      656D5F64 
 4534      65627567 
 4534      5F7400
 4535              	.LASF13:
 4536 004f 6C6F6E67 		.ascii	"long long unsigned int\000"
 4536      206C6F6E 
 4536      6720756E 
 4536      7369676E 
 4536      65642069 
ARM GAS  /var/tmp//cclgCVgN.s 			page 81


 4537              	.LASF168:
 4538 0066 45455F57 		.ascii	"EE_WriteVariable\000"
 4538      72697465 
 4538      56617269 
 4538      61626C65 
 4538      00
 4539              	.LASF126:
 4540 0077 63685F74 		.ascii	"ch_threadsize\000"
 4540      68726561 
 4540      6473697A 
 4540      6500
 4541              	.LASF106:
 4542 0085 65786974 		.ascii	"exitcode\000"
 4542      636F6465 
 4542      00
 4543              	.LASF97:
 4544 008e 6D61696E 		.ascii	"mainthread\000"
 4544      74687265 
 4544      616400
 4545              	.LASF157:
 4546 0099 56617249 		.ascii	"VarIdx\000"
 4546      647800
 4547              	.LASF87:
 4548 00a0 76697274 		.ascii	"virtual_timers_list_t\000"
 4548      75616C5F 
 4548      74696D65 
 4548      72735F6C 
 4548      6973745F 
 4549              	.LASF153:
 4550 00b6 466C6173 		.ascii	"FlashStatus\000"
 4550      68537461 
 4550      74757300 
 4551              	.LASF22:
 4552 00c2 49544D5F 		.ascii	"ITM_RxBuffer\000"
 4552      52784275 
 4552      66666572 
 4552      00
 4553              	.LASF70:
 4554 00cf 63685F74 		.ascii	"ch_threads_queue\000"
 4554      68726561 
 4554      64735F71 
 4554      75657565 
 4554      00
 4555              	.LASF48:
 4556 00e0 705F7072 		.ascii	"p_prio\000"
 4556      696F00
 4557              	.LASF133:
 4558 00e7 63665F6F 		.ascii	"cf_off_state\000"
 4558      66665F73 
 4558      74617465 
 4558      00
 4559              	.LASF31:
 4560 00f4 464C4153 		.ascii	"FLASH_ERROR_OPERATION\000"
 4560      485F4552 
 4560      524F525F 
 4560      4F504552 
 4560      4154494F 
ARM GAS  /var/tmp//cclgCVgN.s 			page 82


 4561              	.LASF11:
 4562 010a 6C6F6E67 		.ascii	"long long int\000"
 4562      206C6F6E 
 4562      6720696E 
 4562      7400
 4563              	.LASF0:
 4564 0118 7369676E 		.ascii	"signed char\000"
 4564      65642063 
 4564      68617200 
 4565              	.LASF177:
 4566 0124 65657072 		.ascii	"eeprom.c\000"
 4566      6F6D2E63 
 4566      00
 4567              	.LASF132:
 4568 012d 63665F6F 		.ascii	"cf_off_stklimit\000"
 4568      66665F73 
 4568      746B6C69 
 4568      6D697400 
 4569              	.LASF134:
 4570 013d 63665F6F 		.ascii	"cf_off_flags\000"
 4570      66665F66 
 4570      6C616773 
 4570      00
 4571              	.LASF64:
 4572 014a 705F6D70 		.ascii	"p_mpool\000"
 4572      6F6F6C00 
 4573              	.LASF116:
 4574 0152 6D5F7175 		.ascii	"m_queue\000"
 4574      65756500 
 4575              	.LASF24:
 4576 015a 464C4153 		.ascii	"FLASH_BUSY\000"
 4576      485F4255 
 4576      535900
 4577              	.LASF149:
 4578 0165 45455F45 		.ascii	"EE_EraseSectorIfNotEmpty\000"
 4578      72617365 
 4578      53656374 
 4578      6F724966 
 4578      4E6F7445 
 4579              	.LASF96:
 4580 017e 76746C69 		.ascii	"vtlist\000"
 4580      737400
 4581              	.LASF39:
 4582 0185 74736C69 		.ascii	"tslices_t\000"
 4582      6365735F 
 4582      7400
 4583              	.LASF146:
 4584 018f 464C4153 		.ascii	"FLASH_Sector\000"
 4584      485F5365 
 4584      63746F72 
 4584      00
 4585              	.LASF108:
 4586 019c 77747472 		.ascii	"wttrp\000"
 4586      7000
 4587              	.LASF94:
 4588 01a2 63685F73 		.ascii	"ch_system\000"
 4588      79737465 
ARM GAS  /var/tmp//cclgCVgN.s 			page 83


 4588      6D00
 4589              	.LASF8:
 4590 01ac 6C6F6E67 		.ascii	"long int\000"
 4590      20696E74 
 4590      00
 4591              	.LASF166:
 4592 01b5 45455F46 		.ascii	"EE_Format\000"
 4592      6F726D61 
 4592      7400
 4593              	.LASF37:
 4594 01bf 74737461 		.ascii	"tstate_t\000"
 4594      74655F74 
 4594      00
 4595              	.LASF138:
 4596 01c8 63686465 		.ascii	"chdebug_t\000"
 4596      6275675F 
 4596      7400
 4597              	.LASF50:
 4598 01d2 705F6E65 		.ascii	"p_newer\000"
 4598      77657200 
 4599              	.LASF113:
 4600 01da 735F7175 		.ascii	"s_queue\000"
 4600      65756500 
 4601              	.LASF33:
 4602 01e2 464C4153 		.ascii	"FLASH_Status\000"
 4602      485F5374 
 4602      61747573 
 4602      00
 4603              	.LASF76:
 4604 01ef 725F6E65 		.ascii	"r_newer\000"
 4604      77657200 
 4605              	.LASF99:
 4606 01f7 72656761 		.ascii	"regarm_t\000"
 4606      726D5F74 
 4606      00
 4607              	.LASF83:
 4608 0200 76745F70 		.ascii	"vt_prev\000"
 4608      72657600 
 4609              	.LASF3:
 4610 0208 5F5F696E 		.ascii	"__int16_t\000"
 4610      7431365F 
 4610      7400
 4611              	.LASF34:
 4612 0212 73697A65 		.ascii	"size_t\000"
 4612      5F7400
 4613              	.LASF140:
 4614 0219 6D757465 		.ascii	"mutex_t\000"
 4614      785F7400 
 4615              	.LASF98:
 4616 0221 69646C65 		.ascii	"idle_thread_wa\000"
 4616      5F746872 
 4616      6561645F 
 4616      776100
 4617              	.LASF43:
 4618 0230 636E745F 		.ascii	"cnt_t\000"
 4618      7400
 4619              	.LASF14:
ARM GAS  /var/tmp//cclgCVgN.s 			page 84


 4620 0236 756E7369 		.ascii	"unsigned int\000"
 4620      676E6564 
 4620      20696E74 
 4620      00
 4621              	.LASF82:
 4622 0243 76745F6E 		.ascii	"vt_next\000"
 4622      65787400 
 4623              	.LASF17:
 4624 024b 75696E74 		.ascii	"uint16_t\000"
 4624      31365F74 
 4624      00
 4625              	.LASF23:
 4626 0254 53797374 		.ascii	"SystemCoreClock\000"
 4626      656D436F 
 4626      7265436C 
 4626      6F636B00 
 4627              	.LASF57:
 4628 0264 705F7469 		.ascii	"p_time\000"
 4628      6D6500
 4629              	.LASF109:
 4630 026b 77747365 		.ascii	"wtsemp\000"
 4630      6D7000
 4631              	.LASF84:
 4632 0272 76745F64 		.ascii	"vt_delta\000"
 4632      656C7461 
 4632      00
 4633              	.LASF150:
 4634 027b 45455F50 		.ascii	"EE_PageTransfer\000"
 4634      61676554 
 4634      72616E73 
 4634      66657200 
 4635              	.LASF59:
 4636 028b 705F6D73 		.ascii	"p_msgqueue\000"
 4636      67717565 
 4636      756500
 4637              	.LASF139:
 4638 0296 63685F64 		.ascii	"ch_debug\000"
 4638      65627567 
 4638      00
 4639              	.LASF72:
 4640 029f 63685F72 		.ascii	"ch_ready_list\000"
 4640      65616479 
 4640      5F6C6973 
 4640      7400
 4641              	.LASF114:
 4642 02ad 735F636E 		.ascii	"s_cnt\000"
 4642      7400
 4643              	.LASF6:
 4644 02b3 73686F72 		.ascii	"short unsigned int\000"
 4644      7420756E 
 4644      7369676E 
 4644      65642069 
 4644      6E7400
 4645              	.LASF143:
 4646 02c6 636F6E66 		.ascii	"conf_general_permanent_nrf_found\000"
 4646      5F67656E 
 4646      6572616C 
ARM GAS  /var/tmp//cclgCVgN.s 			page 85


 4646      5F706572 
 4646      6D616E65 
 4647              	.LASF67:
 4648 02e7 63685F74 		.ascii	"ch_thread\000"
 4648      68726561 
 4648      6400
 4649              	.LASF41:
 4650 02f1 6D73675F 		.ascii	"msg_t\000"
 4650      7400
 4651              	.LASF162:
 4652 02f7 45455F46 		.ascii	"EE_FindValidPage\000"
 4652      696E6456 
 4652      616C6964 
 4652      50616765 
 4652      00
 4653              	.LASF155:
 4654 0308 4F6C6450 		.ascii	"OldPageId\000"
 4654      61676549 
 4654      6400
 4655              	.LASF178:
 4656 0312 2F557365 		.ascii	"/Users/yanrudall/Documents/eBike/ebikeSystem\000"
 4656      72732F79 
 4656      616E7275 
 4656      64616C6C 
 4656      2F446F63 
 4657              	.LASF161:
 4658 033f 50616765 		.ascii	"PageEndAddress\000"
 4658      456E6441 
 4658      64647265 
 4658      737300
 4659              	.LASF172:
 4660 034e 45455F49 		.ascii	"EE_Init\000"
 4660      6E697400 
 4661              	.LASF137:
 4662 0356 63665F6F 		.ascii	"cf_off_time\000"
 4662      66665F74 
 4662      696D6500 
 4663              	.LASF151:
 4664 0362 56697274 		.ascii	"VirtAddress\000"
 4664      41646472 
 4664      65737300 
 4665              	.LASF160:
 4666 036e 41646472 		.ascii	"Address\000"
 4666      65737300 
 4667              	.LASF42:
 4668 0376 6576656E 		.ascii	"eventmask_t\000"
 4668      746D6173 
 4668      6B5F7400 
 4669              	.LASF7:
 4670 0382 5F5F696E 		.ascii	"__int32_t\000"
 4670      7433325F 
 4670      7400
 4671              	.LASF159:
 4672 038c 52656164 		.ascii	"ReadStatus\000"
 4672      53746174 
 4672      757300
 4673              	.LASF100:
ARM GAS  /var/tmp//cclgCVgN.s 			page 86


 4674 0397 73746B61 		.ascii	"stkalign_t\000"
 4674      6C69676E 
 4674      5F7400
 4675              	.LASF176:
 4676 03a2 474E5520 		.ascii	"GNU C99 6.3.1 20170620 (release) [ARM/embedded-6-br"
 4676      43393920 
 4676      362E332E 
 4676      31203230 
 4676      31373036 
 4677 03d5 616E6368 		.ascii	"anch revision 249437] -mcpu=cortex-m4 -mfloat-abi=h"
 4677      20726576 
 4677      6973696F 
 4677      6E203234 
 4677      39343337 
 4678 0408 61726420 		.ascii	"ard -mfpu=fpv4-sp-d16 -mno-thumb-interwork -mthumb "
 4678      2D6D6670 
 4678      753D6670 
 4678      76342D73 
 4678      702D6431 
 4679 043b 2D676764 		.ascii	"-ggdb -O2 -std=gnu99 -fomit-frame-pointer -falign-f"
 4679      62202D4F 
 4679      32202D73 
 4679      74643D67 
 4679      6E753939 
 4680 046e 756E6374 		.ascii	"unctions=16 -ffunction-sections -fdata-sections -fn"
 4680      696F6E73 
 4680      3D313620 
 4680      2D666675 
 4680      6E637469 
 4681 04a1 6F2D636F 		.ascii	"o-common -fsingle-precision-constant\000"
 4681      6D6D6F6E 
 4681      202D6673 
 4681      696E676C 
 4681      652D7072 
 4682              	.LASF66:
 4683 04c6 74687265 		.ascii	"threads_list_t\000"
 4683      6164735F 
 4683      6C697374 
 4683      5F7400
 4684              	.LASF121:
 4685 04d5 63685F7A 		.ascii	"ch_zero\000"
 4685      65726F00 
 4686              	.LASF135:
 4687 04dd 63665F6F 		.ascii	"cf_off_refs\000"
 4687      66665F72 
 4687      65667300 
 4688              	.LASF175:
 4689 04e9 666C6173 		.ascii	"flash_helper_get_sector_address\000"
 4689      685F6865 
 4689      6C706572 
 4689      5F676574 
 4689      5F736563 
 4690              	.LASF74:
 4691 0509 725F7072 		.ascii	"r_prio\000"
 4691      696F00
 4692              	.LASF58:
 4693 0510 705F7761 		.ascii	"p_waiting\000"
ARM GAS  /var/tmp//cclgCVgN.s 			page 87


 4693      6974696E 
 4693      6700
 4694              	.LASF154:
 4695 051a 4E657750 		.ascii	"NewPageAddress\000"
 4695      61676541 
 4695      64647265 
 4695      737300
 4696              	.LASF21:
 4697 0529 73697A65 		.ascii	"sizetype\000"
 4697      74797065 
 4697      00
 4698              	.LASF88:
 4699 0532 63685F76 		.ascii	"ch_virtual_timers_list\000"
 4699      69727475 
 4699      616C5F74 
 4699      696D6572 
 4699      735F6C69 
 4700              	.LASF171:
 4701 0549 50616765 		.ascii	"PageStartAddress\000"
 4701      53746172 
 4701      74416464 
 4701      72657373 
 4701      00
 4702              	.LASF125:
 4703 055a 63685F74 		.ascii	"ch_timesize\000"
 4703      696D6573 
 4703      697A6500 
 4704              	.LASF131:
 4705 0566 63665F6F 		.ascii	"cf_off_name\000"
 4705      66665F6E 
 4705      616D6500 
 4706              	.LASF51:
 4707 0572 705F6F6C 		.ascii	"p_older\000"
 4707      64657200 
 4708              	.LASF75:
 4709 057a 725F6374 		.ascii	"r_ctx\000"
 4709      7800
 4710              	.LASF49:
 4711 0580 705F6374 		.ascii	"p_ctx\000"
 4711      7800
 4712              	.LASF104:
 4713 0586 746D5F63 		.ascii	"tm_calibration_t\000"
 4713      616C6962 
 4713      72617469 
 4713      6F6E5F74 
 4713      00
 4714              	.LASF78:
 4715 0597 725F6375 		.ascii	"r_current\000"
 4715      7272656E 
 4715      7400
 4716              	.LASF77:
 4717 05a1 725F6F6C 		.ascii	"r_older\000"
 4717      64657200 
 4718              	.LASF30:
 4719 05a9 464C4153 		.ascii	"FLASH_ERROR_PROGRAM\000"
 4719      485F4552 
 4719      524F525F 
ARM GAS  /var/tmp//cclgCVgN.s 			page 88


 4719      50524F47 
 4719      52414D00 
 4720              	.LASF12:
 4721 05bd 5F5F7569 		.ascii	"__uint64_t\000"
 4721      6E743634 
 4721      5F7400
 4722              	.LASF141:
 4723 05c8 666C6F61 		.ascii	"float\000"
 4723      7400
 4724              	.LASF38:
 4725 05ce 74726566 		.ascii	"trefs_t\000"
 4725      735F7400 
 4726              	.LASF164:
 4727 05d6 50616765 		.ascii	"PageStatus0\000"
 4727      53746174 
 4727      75733000 
 4728              	.LASF165:
 4729 05e2 50616765 		.ascii	"PageStatus1\000"
 4729      53746174 
 4729      75733100 
 4730              	.LASF80:
 4731 05ee 76697274 		.ascii	"virtual_timer_t\000"
 4731      75616C5F 
 4731      74696D65 
 4731      725F7400 
 4732              	.LASF47:
 4733 05fe 705F7072 		.ascii	"p_prev\000"
 4733      657600
 4734              	.LASF40:
 4735 0605 74707269 		.ascii	"tprio_t\000"
 4735      6F5F7400 
 4736              	.LASF148:
 4737 060d 61646472 		.ascii	"addr\000"
 4737      00
 4738              	.LASF91:
 4739 0612 63685F73 		.ascii	"ch_system_debug\000"
 4739      79737465 
 4739      6D5F6465 
 4739      62756700 
 4740              	.LASF124:
 4741 0622 63685F70 		.ascii	"ch_ptrsize\000"
 4741      74727369 
 4741      7A6500
 4742              	.LASF18:
 4743 062d 696E7433 		.ascii	"int32_t\000"
 4743      325F7400 
 4744              	.LASF1:
 4745 0635 756E7369 		.ascii	"unsigned char\000"
 4745      676E6564 
 4745      20636861 
 4745      7200
 4746              	.LASF170:
 4747 0643 41646472 		.ascii	"AddressValue\000"
 4747      65737356 
 4747      616C7565 
 4747      00
 4748              	.LASF163:
ARM GAS  /var/tmp//cclgCVgN.s 			page 89


 4749 0650 4F706572 		.ascii	"Operation\000"
 4749      6174696F 
 4749      6E00
 4750              	.LASF62:
 4751 065a 705F6D74 		.ascii	"p_mtxlist\000"
 4751      786C6973 
 4751      7400
 4752              	.LASF4:
 4753 0664 73686F72 		.ascii	"short int\000"
 4753      7420696E 
 4753      7400
 4754              	.LASF53:
 4755 066e 705F7374 		.ascii	"p_state\000"
 4755      61746500 
 4756              	.LASF174:
 4757 0676 464C4153 		.ascii	"FLASH_EraseSector\000"
 4757      485F4572 
 4757      61736553 
 4757      6563746F 
 4757      7200
 4758              	.LASF56:
 4759 0688 705F7072 		.ascii	"p_preempt\000"
 4759      65656D70 
 4759      7400
 4760              	.LASF123:
 4761 0692 63685F76 		.ascii	"ch_version\000"
 4761      65727369 
 4761      6F6E00
 4762              	.LASF111:
 4763 069d 65776D61 		.ascii	"ewmask\000"
 4763      736B00
 4764              	.LASF46:
 4765 06a4 705F6E65 		.ascii	"p_next\000"
 4765      787400
 4766              	.LASF36:
 4767 06ab 746D6F64 		.ascii	"tmode_t\000"
 4767      655F7400 
 4768              	.LASF136:
 4769 06b3 63665F6F 		.ascii	"cf_off_preempt\000"
 4769      66665F70 
 4769      7265656D 
 4769      707400
 4770              	.LASF54:
 4771 06c2 705F666C 		.ascii	"p_flags\000"
 4771      61677300 
 4772              	.LASF158:
 4773 06ca 45657072 		.ascii	"EepromStatus\000"
 4773      6F6D5374 
 4773      61747573 
 4773      00
 4774              	.LASF69:
 4775 06d7 74687265 		.ascii	"threads_queue_t\000"
 4775      6164735F 
 4775      71756575 
 4775      655F7400 
 4776              	.LASF81:
 4777 06e7 63685F76 		.ascii	"ch_virtual_timer\000"
ARM GAS  /var/tmp//cclgCVgN.s 			page 90


 4777      69727475 
 4777      616C5F74 
 4777      696D6572 
 4777      00
 4778              	.LASF129:
 4779 06f8 63665F6F 		.ascii	"cf_off_newer\000"
 4779      66665F6E 
 4779      65776572 
 4779      00
 4780              	.LASF112:
 4781 0705 63685F73 		.ascii	"ch_semaphore\000"
 4781      656D6170 
 4781      686F7265 
 4781      00
 4782              	.LASF61:
 4783 0712 705F6570 		.ascii	"p_epending\000"
 4783      656E6469 
 4783      6E6700
 4784              	.LASF28:
 4785 071d 464C4153 		.ascii	"FLASH_ERROR_PGA\000"
 4785      485F4552 
 4785      524F525F 
 4785      50474100 
 4786              	.LASF127:
 4787 072d 63665F6F 		.ascii	"cf_off_prio\000"
 4787      66665F70 
 4787      72696F00 
 4788              	.LASF73:
 4789 0739 725F7175 		.ascii	"r_queue\000"
 4789      65756500 
 4790              	.LASF68:
 4791 0741 63685F74 		.ascii	"ch_threads_list\000"
 4791      68726561 
 4791      64735F6C 
 4791      69737400 
 4792              	.LASF122:
 4793 0751 63685F73 		.ascii	"ch_size\000"
 4793      697A6500 
 4794              	.LASF142:
 4795 0759 5F426F6F 		.ascii	"_Bool\000"
 4795      6C00
 4796              	.LASF10:
 4797 075f 6C6F6E67 		.ascii	"long unsigned int\000"
 4797      20756E73 
 4797      69676E65 
 4797      6420696E 
 4797      7400
 4798              	.LASF156:
 4799 0771 56616C69 		.ascii	"ValidPage\000"
 4799      64506167 
 4799      6500
 4800              	.LASF119:
 4801 077b 63686172 		.ascii	"char\000"
 4801      00
 4802              	.LASF27:
 4803 0780 464C4153 		.ascii	"FLASH_ERROR_PGP\000"
 4803      485F4552 
ARM GAS  /var/tmp//cclgCVgN.s 			page 91


 4803      524F525F 
 4803      50475000 
 4804              	.LASF147:
 4805 0790 566F6C74 		.ascii	"VoltageRange\000"
 4805      61676552 
 4805      616E6765 
 4805      00
 4806              	.LASF26:
 4807 079d 464C4153 		.ascii	"FLASH_ERROR_PGS\000"
 4807      485F4552 
 4807      524F525F 
 4807      50475300 
 4808              	.LASF5:
 4809 07ad 5F5F7569 		.ascii	"__uint16_t\000"
 4809      6E743136 
 4809      5F7400
 4810              	.LASF45:
 4811 07b8 74687265 		.ascii	"thread_t\000"
 4811      61645F74 
 4811      00
 4812              	.LASF118:
 4813 07c1 6D5F6E65 		.ascii	"m_next\000"
 4813      787400
 4814              	.LASF44:
 4815 07c8 73797374 		.ascii	"systime_t\000"
 4815      696D655F 
 4815      7400
 4816              	.LASF63:
 4817 07d2 705F7265 		.ascii	"p_realprio\000"
 4817      616C7072 
 4817      696F00
 4818              	.LASF79:
 4819 07dd 76746675 		.ascii	"vtfunc_t\000"
 4819      6E635F74 
 4819      00
 4820              	.LASF9:
 4821 07e6 5F5F7569 		.ascii	"__uint32_t\000"
 4821      6E743332 
 4821      5F7400
 4822              	.LASF110:
 4823 07f1 77746D74 		.ascii	"wtmtxp\000"
 4823      787000
 4824              	.LASF92:
 4825 07f8 70616E69 		.ascii	"panic_msg\000"
 4825      635F6D73 
 4825      6700
 4826              	.LASF103:
 4827 0802 6F666673 		.ascii	"offset\000"
 4827      657400
 4828              	.LASF101:
 4829 0809 636F6E74 		.ascii	"context\000"
 4829      65787400 
 4830              	.LASF145:
 4831 0811 56697274 		.ascii	"VirtAddVarTab\000"
 4831      41646456 
 4831      61725461 
 4831      6200
ARM GAS  /var/tmp//cclgCVgN.s 			page 92


 4832              	.LASF93:
 4833 081f 63685F73 		.ascii	"ch_system_t\000"
 4833      79737465 
 4833      6D5F7400 
 4834              	.LASF60:
 4835 082b 705F6D73 		.ascii	"p_msg\000"
 4835      6700
 4836              	.LASF35:
 4837 0831 7274636E 		.ascii	"rtcnt_t\000"
 4837      745F7400 
 4838              	.LASF173:
 4839 0839 464C4153 		.ascii	"FLASH_ProgramHalfWord\000"
 4839      485F5072 
 4839      6F677261 
 4839      6D48616C 
 4839      66576F72 
 4840              	.LASF169:
 4841 084f 45455F52 		.ascii	"EE_ReadVariable\000"
 4841      65616456 
 4841      61726961 
 4841      626C6500 
 4842              	.LASF86:
 4843 085f 76745F70 		.ascii	"vt_par\000"
 4843      617200
 4844              	.LASF25:
 4845 0866 464C4153 		.ascii	"FLASH_ERROR_RD\000"
 4845      485F4552 
 4845      524F525F 
 4845      524400
 4846              	.LASF19:
 4847 0875 75696E74 		.ascii	"uint32_t\000"
 4847      33325F74 
 4847      00
 4848              	.LASF128:
 4849 087e 63665F6F 		.ascii	"cf_off_ctx\000"
 4849      66665F63 
 4849      747800
 4850              	.LASF115:
 4851 0889 63685F6D 		.ascii	"ch_mutex\000"
 4851      75746578 
 4851      00
 4852              	.LASF55:
 4853 0892 705F7265 		.ascii	"p_refs\000"
 4853      667300
 4854              	.LASF144:
 4855 0899 44617461 		.ascii	"DataVar\000"
 4855      56617200 
 4856              	.LASF95:
 4857 08a1 726C6973 		.ascii	"rlist\000"
 4857      7400
 4858              	.LASF15:
 4859 08a7 75696E74 		.ascii	"uint8_t\000"
 4859      385F7400 
 4860              	.LASF152:
 4861 08af 44617461 		.ascii	"Data\000"
 4861      00
 4862              	.LASF179:
ARM GAS  /var/tmp//cclgCVgN.s 			page 93


 4863 08b4 45455F56 		.ascii	"EE_VerifyPageFullWriteVariable\000"
 4863      65726966 
 4863      79506167 
 4863      6546756C 
 4863      6C577269 
 4864              	.LASF65:
 4865 08d3 74687265 		.ascii	"thread_reference_t\000"
 4865      61645F72 
 4865      65666572 
 4865      656E6365 
 4865      5F7400
 4866              	.LASF107:
 4867 08e6 77746F62 		.ascii	"wtobjp\000"
 4867      6A7000
 4868              	.LASF52:
 4869 08ed 705F6E61 		.ascii	"p_name\000"
 4869      6D6500
 4870              	.LASF89:
 4871 08f4 76745F73 		.ascii	"vt_systime\000"
 4871      79737469 
 4871      6D6500
 4872              	.LASF29:
 4873 08ff 464C4153 		.ascii	"FLASH_ERROR_WRP\000"
 4873      485F4552 
 4873      524F525F 
 4873      57525000 
 4874              	.LASF167:
 4875 090f 53746174 		.ascii	"Status\000"
 4875      757300
 4876              	.LASF32:
 4877 0916 464C4153 		.ascii	"FLASH_COMPLETE\000"
 4877      485F434F 
 4877      4D504C45 
 4877      544500
 4878              	.LASF16:
 4879 0925 696E7431 		.ascii	"int16_t\000"
 4879      365F7400 
 4880              	.LASF117:
 4881 092d 6D5F6F77 		.ascii	"m_owner\000"
 4881      6E657200 
 4882              	.LASF120:
 4883 0935 63685F69 		.ascii	"ch_identifier\000"
 4883      64656E74 
 4883      69666965 
 4883      7200
 4884              	.LASF85:
 4885 0943 76745F66 		.ascii	"vt_func\000"
 4885      756E6300 
 4886              		.ident	"GCC: (GNU Tools for ARM Embedded Processors 6-2017-q2-update) 6.3.1 20170620 (release) [AR
ARM GAS  /var/tmp//cclgCVgN.s 			page 94


DEFINED SYMBOLS
                            *ABS*:0000000000000000 eeprom.c
/var/tmp//cclgCVgN.s:18     .text.EE_VerifyPageFullWriteVariable:0000000000000000 $t
/var/tmp//cclgCVgN.s:25     .text.EE_VerifyPageFullWriteVariable:0000000000000000 EE_VerifyPageFullWriteVariable
/var/tmp//cclgCVgN.s:148    .text.EE_VerifyPageFullWriteVariable:0000000000000070 $d
/var/tmp//cclgCVgN.s:155    .text.EE_EraseSectorIfNotEmpty.constprop.1:0000000000000000 $t
/var/tmp//cclgCVgN.s:162    .text.EE_EraseSectorIfNotEmpty.constprop.1:0000000000000000 EE_EraseSectorIfNotEmpty.constprop.1
/var/tmp//cclgCVgN.s:216    .text.EE_Format:0000000000000000 $t
/var/tmp//cclgCVgN.s:223    .text.EE_Format:0000000000000000 EE_Format
/var/tmp//cclgCVgN.s:269    .text.EE_Format:0000000000000028 $d
/var/tmp//cclgCVgN.s:275    .text.EE_ReadVariable:0000000000000000 $t
/var/tmp//cclgCVgN.s:283    .text.EE_ReadVariable:0000000000000000 EE_ReadVariable
/var/tmp//cclgCVgN.s:398    .text.EE_ReadVariable:0000000000000058 $d
/var/tmp//cclgCVgN.s:408    .text.EE_Init:0000000000000000 $t
/var/tmp//cclgCVgN.s:416    .text.EE_Init:0000000000000000 EE_Init
/var/tmp//cclgCVgN.s:687    .text.EE_Init:000000000000013c $d
/var/tmp//cclgCVgN.s:697    .text.EE_WriteVariable:0000000000000000 $t
/var/tmp//cclgCVgN.s:705    .text.EE_WriteVariable:0000000000000000 EE_WriteVariable
/var/tmp//cclgCVgN.s:863    .text.EE_WriteVariable:00000000000000a0 $d
/var/tmp//cclgCVgN.s:878    .bss.DataVar:0000000000000000 DataVar
/var/tmp//cclgCVgN.s:874    .bss.DataVar:0000000000000000 $d
                     .debug_frame:0000000000000010 $d

UNDEFINED SYMBOLS
FLASH_ProgramHalfWord
flash_helper_get_sector_address
FLASH_EraseSector
VirtAddVarTab
