ARM GAS  /var/tmp//cclgCVgN.s 			page 1


   1              		.cpu cortex-m4
   2              		.eabi_attribute 27, 1
   3              		.eabi_attribute 28, 1
   4              		.eabi_attribute 20, 1
   5              		.eabi_attribute 21, 1
   6              		.eabi_attribute 23, 3
   7              		.eabi_attribute 24, 1
   8              		.eabi_attribute 25, 1
   9              		.eabi_attribute 26, 1
  10              		.eabi_attribute 30, 2
  11              		.eabi_attribute 34, 1
  12              		.eabi_attribute 18, 4
  13              		.file	"eeprom.c"
  14              		.text
  15              	.Ltext0:
  16              		.cfi_sections	.debug_frame
  17              		.section	.text.EE_VerifyPageFullWriteVariable,"ax",%progbits
  18              		.align	1
  19              		.p2align 4,,15
  20              		.syntax unified
  21              		.thumb
  22              		.thumb_func
  23              		.fpu fpv4-sp-d16
  24              		.type	EE_VerifyPageFullWriteVariable, %function
  25              	EE_VerifyPageFullWriteVariable:
  26              	.LFB224:
  27              		.file 1 "eeprom.c"
  28              		.loc 1 465 0
  29              		.cfi_startproc
  30              		@ args = 0, pretend = 0, frame = 0
  31              		@ frame_needed = 0, uses_anonymous_args = 0
  32              	.LVL0:
  33 0000 38B5     		push	{r3, r4, r5, lr}
  34              		.cfi_def_cfa_offset 16
  35              		.cfi_offset 3, -16
  36              		.cfi_offset 4, -12
  37              		.cfi_offset 5, -8
  38              		.cfi_offset 14, -4
  39              	.LBB9:
  40              	.LBB10:
  41              		.loc 1 397 0
  42 0002 1B4A     		ldr	r2, .L22
  43              		.loc 1 400 0
  44 0004 1B4B     		ldr	r3, .L22+4
  45              		.loc 1 397 0
  46 0006 1288     		ldrh	r2, [r2]
  47              		.loc 1 400 0
  48 0008 1B88     		ldrh	r3, [r3]
  49 000a 9CB2     		uxth	r4, r3
  50              		.loc 1 397 0
  51 000c 92B2     		uxth	r2, r2
  52              	.LVL1:
  53              		.loc 1 406 0
  54 000e ECB9     		cbnz	r4, .L2
  55              		.loc 1 409 0
  56 0010 4EF6EE63 		movw	r3, #61166
  57              		.loc 1 423 0
ARM GAS  /var/tmp//cclgCVgN.s 			page 2


  58 0014 D31A     		subs	r3, r2, r3
  59 0016 18BF     		it	ne
  60 0018 0123     		movne	r3, #1
  61              	.L3:
  62              	.LVL2:
  63              	.LBE10:
  64              	.LBE9:
  65              		.loc 1 480 0
  66 001a 03F50054 		add	r4, r3, #8192
  67              		.loc 1 483 0
  68 001e 164A     		ldr	r2, .L22+8
  69              		.loc 1 480 0
  70 0020 0134     		adds	r4, r4, #1
  71              		.loc 1 483 0
  72 0022 0133     		adds	r3, r3, #1
  73              		.loc 1 480 0
  74 0024 A403     		lsls	r4, r4, #14
  75              	.LVL3:
  76              		.loc 1 483 0
  77 0026 02EB8332 		add	r2, r2, r3, lsl #14
  78              	.LVL4:
  79              		.loc 1 486 0
  80 002a 9442     		cmp	r4, r2
  81 002c 03D3     		bcc	.L7
  82 002e 17E0     		b	.L11
  83              	.L5:
  84              		.loc 1 506 0
  85 0030 0434     		adds	r4, r4, #4
  86              	.LVL5:
  87              		.loc 1 486 0
  88 0032 A242     		cmp	r2, r4
  89 0034 14D9     		bls	.L11
  90              	.L7:
  91              		.loc 1 489 0
  92 0036 2368     		ldr	r3, [r4]
  93 0038 0133     		adds	r3, r3, #1
  94 003a F9D1     		bne	.L5
  95 003c 0546     		mov	r5, r0
  96              		.loc 1 492 0
  97 003e 2046     		mov	r0, r4
  98              	.LVL6:
  99 0040 FFF7FEFF 		bl	FLASH_ProgramHalfWord
 100              	.LVL7:
 101              		.loc 1 494 0
 102 0044 0928     		cmp	r0, #9
 103 0046 0DD0     		beq	.L21
 104              	.LVL8:
 105              	.L19:
 106              		.loc 1 501 0
 107 0048 80B2     		uxth	r0, r0
 108              	.LVL9:
 109 004a 38BD     		pop	{r3, r4, r5, pc}
 110              	.LVL10:
 111              	.L2:
 112              	.LBB12:
 113              	.LBB11:
 114              		.loc 1 418 0
ARM GAS  /var/tmp//cclgCVgN.s 			page 3


 115 004c 32B9     		cbnz	r2, .L10
 116              		.loc 1 421 0
 117 004e 4EF6EE63 		movw	r3, #61166
 118              		.loc 1 423 0
 119 0052 E31A     		subs	r3, r4, r3
 120 0054 B3FA83F3 		clz	r3, r3
 121 0058 5B09     		lsrs	r3, r3, #5
 122 005a DEE7     		b	.L3
 123              	.L10:
 124              	.LBE11:
 125              	.LBE12:
 126              		.loc 1 476 0
 127 005c AB20     		movs	r0, #171
 128              	.LVL11:
 129 005e 38BD     		pop	{r3, r4, r5, pc}
 130              	.LVL12:
 131              	.L11:
 132              		.loc 1 511 0
 133 0060 8020     		movs	r0, #128
 134              	.LVL13:
 135 0062 38BD     		pop	{r3, r4, r5, pc}
 136              	.LVL14:
 137              	.L21:
 138              		.loc 1 499 0
 139 0064 2946     		mov	r1, r5
 140 0066 A01C     		adds	r0, r4, #2
 141              	.LVL15:
 142 0068 FFF7FEFF 		bl	FLASH_ProgramHalfWord
 143              	.LVL16:
 144 006c ECE7     		b	.L19
 145              	.L23:
 146 006e 00BF     		.align	2
 147              	.L22:
 148 0070 00400008 		.word	134234112
 149 0074 00800008 		.word	134250496
 150 0078 FE3F0008 		.word	134234110
 151              		.cfi_endproc
 152              	.LFE224:
 153              		.size	EE_VerifyPageFullWriteVariable, .-EE_VerifyPageFullWriteVariable
 154              		.section	.text.EE_EraseSectorIfNotEmpty.constprop.1,"ax",%progbits
 155              		.align	1
 156              		.p2align 4,,15
 157              		.syntax unified
 158              		.thumb
 159              		.thumb_func
 160              		.fpu fpv4-sp-d16
 161              		.type	EE_EraseSectorIfNotEmpty.constprop.1, %function
 162              	EE_EraseSectorIfNotEmpty.constprop.1:
 163              	.LFB228:
 164              		.loc 1 618 0
 165              		.cfi_startproc
 166              		@ args = 0, pretend = 0, frame = 0
 167              		@ frame_needed = 0, uses_anonymous_args = 0
 168              	.LVL17:
 169 0000 10B5     		push	{r4, lr}
 170              		.cfi_def_cfa_offset 8
 171              		.cfi_offset 4, -8
ARM GAS  /var/tmp//cclgCVgN.s 			page 4


 172              		.cfi_offset 14, -4
 173              		.loc 1 618 0
 174 0002 0446     		mov	r4, r0
 175              		.loc 1 619 0
 176 0004 FFF7FEFF 		bl	flash_helper_get_sector_address
 177              	.LVL18:
 178 0008 00F57F52 		add	r2, r0, #16320
 179 000c 3F32     		adds	r2, r2, #63
 180 000e 0138     		subs	r0, r0, #1
 181              	.LVL19:
 182 0010 01E0     		b	.L27
 183              	.LVL20:
 184              	.L25:
 185              	.LBB13:
 186              		.loc 1 621 0
 187 0012 9042     		cmp	r0, r2
 188 0014 09D0     		beq	.L30
 189              	.LVL21:
 190              	.L27:
 191              		.loc 1 622 0
 192 0016 10F8013F 		ldrb	r3, [r0, #1]!	@ zero_extendqisi2
 193              	.LVL22:
 194 001a FF2B     		cmp	r3, #255
 195 001c F9D0     		beq	.L25
 196              		.loc 1 623 0
 197 001e 2046     		mov	r0, r4
 198              	.LVL23:
 199 0020 0221     		movs	r1, #2
 200 0022 FFF7FEFF 		bl	FLASH_EraseSector
 201              	.LVL24:
 202 0026 80B2     		uxth	r0, r0
 203 0028 10BD     		pop	{r4, pc}
 204              	.LVL25:
 205              	.L30:
 206              	.LBE13:
 207              		.loc 1 627 0
 208 002a 0920     		movs	r0, #9
 209              	.LVL26:
 210              		.loc 1 628 0
 211 002c 10BD     		pop	{r4, pc}
 212              		.cfi_endproc
 213              	.LFE228:
 214              		.size	EE_EraseSectorIfNotEmpty.constprop.1, .-EE_EraseSectorIfNotEmpty.constprop.1
 215 002e 00BF     		.section	.text.EE_Format,"ax",%progbits
 216              		.align	1
 217              		.p2align 4,,15
 218              		.syntax unified
 219              		.thumb
 220              		.thumb_func
 221              		.fpu fpv4-sp-d16
 222              		.type	EE_Format, %function
 223              	EE_Format:
 224              	.LFB222:
 225              		.loc 1 355 0
 226              		.cfi_startproc
 227              		@ args = 0, pretend = 0, frame = 0
 228              		@ frame_needed = 0, uses_anonymous_args = 0
ARM GAS  /var/tmp//cclgCVgN.s 			page 5


 229              	.LVL27:
 230 0000 08B5     		push	{r3, lr}
 231              		.cfi_def_cfa_offset 8
 232              		.cfi_offset 3, -8
 233              		.cfi_offset 14, -4
 234              		.loc 1 359 0
 235 0002 0820     		movs	r0, #8
 236 0004 FFF7FEFF 		bl	EE_EraseSectorIfNotEmpty.constprop.1
 237              	.LVL28:
 238 0008 C0B2     		uxtb	r0, r0
 239              	.LVL29:
 240              		.loc 1 362 0
 241 000a 0928     		cmp	r0, #9
 242 000c 00D0     		beq	.L34
 243              	.LVL30:
 244              	.L32:
 245              		.loc 1 381 0
 246 000e 08BD     		pop	{r3, pc}
 247              	.LVL31:
 248              	.L34:
 249              		.loc 1 368 0
 250 0010 0021     		movs	r1, #0
 251 0012 0548     		ldr	r0, .L35
 252              	.LVL32:
 253 0014 FFF7FEFF 		bl	FLASH_ProgramHalfWord
 254              	.LVL33:
 255              		.loc 1 371 0
 256 0018 0928     		cmp	r0, #9
 257 001a F8D1     		bne	.L32
 258              	.LBB16:
 259              		.loc 1 377 0
 260 001c 1020     		movs	r0, #16
 261              	.LVL34:
 262 001e FFF7FEFF 		bl	EE_EraseSectorIfNotEmpty.constprop.1
 263              	.LVL35:
 264 0022 C0B2     		uxtb	r0, r0
 265 0024 F3E7     		b	.L32
 266              	.L36:
 267 0026 00BF     		.align	2
 268              	.L35:
 269 0028 00400008 		.word	134234112
 270              	.LBE16:
 271              		.cfi_endproc
 272              	.LFE222:
 273              		.size	EE_Format, .-EE_Format
 274              		.section	.text.EE_ReadVariable,"ax",%progbits
 275              		.align	1
 276              		.p2align 4,,15
 277              		.global	EE_ReadVariable
 278              		.syntax unified
 279              		.thumb
 280              		.thumb_func
 281              		.fpu fpv4-sp-d16
 282              		.type	EE_ReadVariable, %function
 283              	EE_ReadVariable:
 284              	.LFB220:
 285              		.loc 1 272 0
ARM GAS  /var/tmp//cclgCVgN.s 			page 6


 286              		.cfi_startproc
 287              		@ args = 0, pretend = 0, frame = 0
 288              		@ frame_needed = 0, uses_anonymous_args = 0
 289              		@ link register save eliminated.
 290              	.LVL36:
 291              	.LBB17:
 292              	.LBB18:
 293              		.loc 1 397 0
 294 0000 154B     		ldr	r3, .L50
 295              		.loc 1 400 0
 296 0002 164A     		ldr	r2, .L50+4
 297              		.loc 1 397 0
 298 0004 1B88     		ldrh	r3, [r3]
 299              		.loc 1 400 0
 300 0006 1288     		ldrh	r2, [r2]
 301              		.loc 1 397 0
 302 0008 9BB2     		uxth	r3, r3
 303              	.LVL37:
 304              	.LBE18:
 305              	.LBE17:
 306              		.loc 1 272 0
 307 000a 10B4     		push	{r4}
 308              		.cfi_def_cfa_offset 4
 309              		.cfi_offset 4, -4
 310              	.LBB20:
 311              	.LBB19:
 312              		.loc 1 436 0
 313 000c 2BB1     		cbz	r3, .L44
 314 000e 92B2     		uxth	r2, r2
 315              		.loc 1 440 0
 316 0010 B2B9     		cbnz	r2, .L49
 317 0012 134B     		ldr	r3, .L50+8
 318              	.LVL38:
 319 0014 134C     		ldr	r4, .L50+12
 320 0016 1A46     		mov	r2, r3
 321              	.LVL39:
 322 0018 02E0     		b	.L38
 323              	.LVL40:
 324              	.L44:
 325              		.loc 1 436 0
 326 001a 134B     		ldr	r3, .L50+16
 327              	.LVL41:
 328 001c 134C     		ldr	r4, .L50+20
 329 001e 1A46     		mov	r2, r3
 330              	.LVL42:
 331              	.L38:
 332              	.LBE19:
 333              	.LBE20:
 334              		.loc 1 296 0
 335 0020 1288     		ldrh	r2, [r2]
 336 0022 92B2     		uxth	r2, r2
 337              	.LVL43:
 338              		.loc 1 299 0
 339 0024 9042     		cmp	r0, r2
 340 0026 04D1     		bne	.L40
 341 0028 0EE0     		b	.L42
 342              	.LVL44:
ARM GAS  /var/tmp//cclgCVgN.s 			page 7


 343              	.L41:
 344              		.loc 1 296 0
 345 002a 1A88     		ldrh	r2, [r3]
 346 002c 92B2     		uxth	r2, r2
 347              	.LVL45:
 348              		.loc 1 299 0
 349 002e 8242     		cmp	r2, r0
 350 0030 0AD0     		beq	.L42
 351              	.LVL46:
 352              	.L40:
 353              		.loc 1 312 0
 354 0032 043B     		subs	r3, r3, #4
 355              	.LVL47:
 356              		.loc 1 293 0
 357 0034 9C42     		cmp	r4, r3
 358 0036 F8D3     		bcc	.L41
 359              		.loc 1 274 0
 360 0038 0120     		movs	r0, #1
 361              	.LVL48:
 362              		.loc 1 318 0
 363 003a 5DF8044B 		ldr	r4, [sp], #4
 364              		.cfi_remember_state
 365              		.cfi_restore 4
 366              		.cfi_def_cfa_offset 0
 367 003e 7047     		bx	lr
 368              	.LVL49:
 369              	.L49:
 370              		.cfi_restore_state
 371              		.loc 1 283 0
 372 0040 AB20     		movs	r0, #171
 373              	.LVL50:
 374              		.loc 1 318 0
 375 0042 5DF8044B 		ldr	r4, [sp], #4
 376              		.cfi_remember_state
 377              		.cfi_restore 4
 378              		.cfi_def_cfa_offset 0
 379 0046 7047     		bx	lr
 380              	.LVL51:
 381              	.L42:
 382              		.cfi_restore_state
 383              		.loc 1 302 0
 384 0048 33F8023C 		ldrh	r3, [r3, #-2]
 385 004c 0B80     		strh	r3, [r1]	@ movhi
 386              	.LVL52:
 387              		.loc 1 305 0
 388 004e 0020     		movs	r0, #0
 389              	.LVL53:
 390              		.loc 1 318 0
 391 0050 5DF8044B 		ldr	r4, [sp], #4
 392              		.cfi_restore 4
 393              		.cfi_def_cfa_offset 0
 394 0054 7047     		bx	lr
 395              	.L51:
 396 0056 00BF     		.align	2
 397              	.L50:
 398 0058 00400008 		.word	134234112
 399 005c 00800008 		.word	134250496
ARM GAS  /var/tmp//cclgCVgN.s 			page 8


 400 0060 FEBF0008 		.word	134266878
 401 0064 02800008 		.word	134250498
 402 0068 FE7F0008 		.word	134250494
 403 006c 02400008 		.word	134234114
 404              		.cfi_endproc
 405              	.LFE220:
 406              		.size	EE_ReadVariable, .-EE_ReadVariable
 407              		.section	.text.EE_Init,"ax",%progbits
 408              		.align	1
 409              		.p2align 4,,15
 410              		.global	EE_Init
 411              		.syntax unified
 412              		.thumb
 413              		.thumb_func
 414              		.fpu fpv4-sp-d16
 415              		.type	EE_Init, %function
 416              	EE_Init:
 417              	.LFB219:
 418              		.loc 1 57 0
 419              		.cfi_startproc
 420              		@ args = 0, pretend = 0, frame = 0
 421              		@ frame_needed = 0, uses_anonymous_args = 0
 422              	.LVL54:
 423 0000 2DE9F041 		push	{r4, r5, r6, r7, r8, lr}
 424              		.cfi_def_cfa_offset 24
 425              		.cfi_offset 4, -24
 426              		.cfi_offset 5, -20
 427              		.cfi_offset 6, -16
 428              		.cfi_offset 7, -12
 429              		.cfi_offset 8, -8
 430              		.cfi_offset 14, -4
 431              		.loc 1 65 0
 432 0004 4D4D     		ldr	r5, .L95
 433              		.loc 1 67 0
 434 0006 4E4E     		ldr	r6, .L95+4
 435              		.loc 1 65 0
 436 0008 2C88     		ldrh	r4, [r5]
 437              		.loc 1 67 0
 438 000a 3388     		ldrh	r3, [r6]
 439              		.loc 1 65 0
 440 000c A4B2     		uxth	r4, r4
 441              	.LVL55:
 442              		.loc 1 70 0
 443 000e 4EF6EE62 		movw	r2, #61166
 444 0012 9442     		cmp	r4, r2
 445              		.loc 1 67 0
 446 0014 9BB2     		uxth	r3, r3
 447              	.LVL56:
 448              		.loc 1 70 0
 449 0016 41D0     		beq	.L54
 450 0018 4FF6FF71 		movw	r1, #65535
 451 001c 8C42     		cmp	r4, r1
 452 001e 2DD0     		beq	.L55
 453 0020 24B1     		cbz	r4, .L92
 454              	.L83:
 455              		.loc 1 249 0
 456 0022 FFF7FEFF 		bl	EE_Format
ARM GAS  /var/tmp//cclgCVgN.s 			page 9


 457              	.LVL57:
 458 0026 80B2     		uxth	r0, r0
 459              	.LVL58:
 460              	.L59:
 461              		.loc 1 259 0
 462 0028 BDE8F081 		pop	{r4, r5, r6, r7, r8, pc}
 463              	.LVL59:
 464              	.L92:
 465              		.loc 1 184 0
 466 002c 002B     		cmp	r3, #0
 467 002e F8D0     		beq	.L83
 468              		.loc 1 194 0
 469 0030 8B42     		cmp	r3, r1
 470 0032 7DD0     		beq	.L88
 471 0034 434D     		ldr	r5, .L95+8
 472              		.loc 1 209 0
 473 0036 444E     		ldr	r6, .L95+12
 474              		.loc 1 216 0
 475 0038 444F     		ldr	r7, .L95+16
 476              		.loc 1 194 0
 477 003a 4FF0FF38 		mov	r8, #-1
 478 003e 04E0     		b	.L69
 479              	.LVL60:
 480              	.L71:
 481              		.loc 1 207 0
 482 0040 B4F58F7F 		cmp	r4, #286
 483 0044 05F10205 		add	r5, r5, #2
 484 0048 5ED0     		beq	.L93
 485              	.LVL61:
 486              	.L69:
 487              		.loc 1 209 0
 488 004a 3388     		ldrh	r3, [r6]
 489 004c 2A88     		ldrh	r2, [r5]
 490              		.loc 1 216 0
 491 004e 3F49     		ldr	r1, .L95+16
 492              		.loc 1 209 0
 493 0050 9BB2     		uxth	r3, r3
 494 0052 9342     		cmp	r3, r2
 495              		.loc 1 211 0
 496 0054 08BF     		it	eq
 497 0056 0FFA84F8 		sxtheq	r8, r4
 498              	.LVL62:
 499              		.loc 1 213 0
 500 005a 4445     		cmp	r4, r8
 501              		.loc 1 216 0
 502 005c 1046     		mov	r0, r2
 503 005e 04F10104 		add	r4, r4, #1
 504              	.LVL63:
 505              		.loc 1 213 0
 506 0062 EDD0     		beq	.L71
 507              		.loc 1 216 0
 508 0064 FFF7FEFF 		bl	EE_ReadVariable
 509              	.LVL64:
 510              		.loc 1 218 0
 511 0068 0128     		cmp	r0, #1
 512 006a E9D0     		beq	.L71
 513              		.loc 1 221 0
ARM GAS  /var/tmp//cclgCVgN.s 			page 10


 514 006c 3988     		ldrh	r1, [r7]
 515 006e 2888     		ldrh	r0, [r5]
 516              	.LVL65:
 517 0070 FFF7FEFF 		bl	EE_VerifyPageFullWriteVariable
 518              	.LVL66:
 519              		.loc 1 223 0
 520 0074 0928     		cmp	r0, #9
 521 0076 E3D0     		beq	.L71
 522 0078 BDE8F081 		pop	{r4, r5, r6, r7, r8, pc}
 523              	.LVL67:
 524              	.L55:
 525              		.loc 1 73 0
 526 007c 002B     		cmp	r3, #0
 527 007e 4AD0     		beq	.L87
 528              		.loc 1 83 0
 529 0080 9342     		cmp	r3, r2
 530 0082 CED1     		bne	.L83
 531              		.loc 1 86 0
 532 0084 0820     		movs	r0, #8
 533 0086 FFF7FEFF 		bl	EE_EraseSectorIfNotEmpty.constprop.1
 534              	.LVL68:
 535              		.loc 1 88 0
 536 008a 0928     		cmp	r0, #9
 537 008c CCD1     		bne	.L59
 538              		.loc 1 93 0
 539 008e 3046     		mov	r0, r6
 540              	.LVL69:
 541 0090 0021     		movs	r1, #0
 542 0092 FFF7FEFF 		bl	FLASH_ProgramHalfWord
 543              	.LVL70:
 544 0096 80B2     		uxth	r0, r0
 545              	.LVL71:
 546 0098 BDE8F081 		pop	{r4, r5, r6, r7, r8, pc}
 547              	.LVL72:
 548              	.L54:
 549              		.loc 1 113 0
 550 009c 23BB     		cbnz	r3, .L60
 551 009e 294D     		ldr	r5, .L95+8
 552              		.loc 1 118 0
 553 00a0 2B4E     		ldr	r6, .L95+20
 554              		.loc 1 125 0
 555 00a2 2A4F     		ldr	r7, .L95+16
 556              		.loc 1 113 0
 557 00a4 1C46     		mov	r4, r3
 558              	.LVL73:
 559 00a6 4FF0FF38 		mov	r8, #-1
 560 00aa 04E0     		b	.L63
 561              	.LVL74:
 562              	.L65:
 563              		.loc 1 116 0
 564 00ac B4F58F7F 		cmp	r4, #286
 565 00b0 05F10205 		add	r5, r5, #2
 566 00b4 34D0     		beq	.L94
 567              	.LVL75:
 568              	.L63:
 569              		.loc 1 118 0
 570 00b6 3388     		ldrh	r3, [r6]
ARM GAS  /var/tmp//cclgCVgN.s 			page 11


 571 00b8 2A88     		ldrh	r2, [r5]
 572              		.loc 1 125 0
 573 00ba 2449     		ldr	r1, .L95+16
 574              		.loc 1 118 0
 575 00bc 9BB2     		uxth	r3, r3
 576 00be 9342     		cmp	r3, r2
 577              		.loc 1 120 0
 578 00c0 08BF     		it	eq
 579 00c2 0FFA84F8 		sxtheq	r8, r4
 580              	.LVL76:
 581              		.loc 1 122 0
 582 00c6 4445     		cmp	r4, r8
 583              		.loc 1 125 0
 584 00c8 1046     		mov	r0, r2
 585 00ca 04F10104 		add	r4, r4, #1
 586              	.LVL77:
 587              		.loc 1 122 0
 588 00ce EDD0     		beq	.L65
 589              		.loc 1 125 0
 590 00d0 FFF7FEFF 		bl	EE_ReadVariable
 591              	.LVL78:
 592              		.loc 1 127 0
 593 00d4 0128     		cmp	r0, #1
 594 00d6 E9D0     		beq	.L65
 595              		.loc 1 130 0
 596 00d8 3988     		ldrh	r1, [r7]
 597 00da 2888     		ldrh	r0, [r5]
 598              	.LVL79:
 599 00dc FFF7FEFF 		bl	EE_VerifyPageFullWriteVariable
 600              	.LVL80:
 601              		.loc 1 132 0
 602 00e0 0928     		cmp	r0, #9
 603 00e2 E3D0     		beq	.L65
 604 00e4 BDE8F081 		pop	{r4, r5, r6, r7, r8, pc}
 605              	.LVL81:
 606              	.L60:
 607              		.loc 1 154 0
 608 00e8 4FF6FF72 		movw	r2, #65535
 609 00ec 9342     		cmp	r3, r2
 610 00ee 98D1     		bne	.L83
 611              		.loc 1 157 0
 612 00f0 1020     		movs	r0, #16
 613 00f2 FFF7FEFF 		bl	EE_EraseSectorIfNotEmpty.constprop.1
 614              	.LVL82:
 615              		.loc 1 159 0
 616 00f6 0928     		cmp	r0, #9
 617 00f8 96D1     		bne	.L59
 618              		.loc 1 164 0
 619 00fa 2846     		mov	r0, r5
 620              	.LVL83:
 621 00fc 0021     		movs	r1, #0
 622 00fe FFF7FEFF 		bl	FLASH_ProgramHalfWord
 623              	.LVL84:
 624 0102 80B2     		uxth	r0, r0
 625              	.LVL85:
 626 0104 BDE8F081 		pop	{r4, r5, r6, r7, r8, pc}
 627              	.LVL86:
ARM GAS  /var/tmp//cclgCVgN.s 			page 12


 628              	.L93:
 629              		.loc 1 231 0
 630 0108 0021     		movs	r1, #0
 631 010a 0D48     		ldr	r0, .L95+4
 632 010c FFF7FEFF 		bl	FLASH_ProgramHalfWord
 633              	.LVL87:
 634 0110 80B2     		uxth	r0, r0
 635              	.LVL88:
 636              		.loc 1 233 0
 637 0112 0928     		cmp	r0, #9
 638 0114 88D1     		bne	.L59
 639              	.LVL89:
 640              	.L87:
 641              		.loc 1 238 0
 642 0116 0820     		movs	r0, #8
 643              		.loc 1 259 0
 644 0118 BDE8F041 		pop	{r4, r5, r6, r7, r8, lr}
 645              		.cfi_remember_state
 646              		.cfi_restore 14
 647              		.cfi_restore 8
 648              		.cfi_restore 7
 649              		.cfi_restore 6
 650              		.cfi_restore 5
 651              		.cfi_restore 4
 652              		.cfi_def_cfa_offset 0
 653              		.loc 1 238 0
 654 011c FFF7FEBF 		b	EE_EraseSectorIfNotEmpty.constprop.1
 655              	.LVL90:
 656              	.L94:
 657              		.cfi_restore_state
 658              		.loc 1 140 0
 659 0120 0021     		movs	r1, #0
 660 0122 0648     		ldr	r0, .L95
 661 0124 FFF7FEFF 		bl	FLASH_ProgramHalfWord
 662              	.LVL91:
 663 0128 80B2     		uxth	r0, r0
 664              	.LVL92:
 665              		.loc 1 142 0
 666 012a 0928     		cmp	r0, #9
 667 012c 7FF47CAF 		bne	.L59
 668              	.LVL93:
 669              	.L88:
 670              		.loc 1 197 0
 671 0130 1020     		movs	r0, #16
 672              		.loc 1 259 0
 673 0132 BDE8F041 		pop	{r4, r5, r6, r7, r8, lr}
 674              		.cfi_restore 14
 675              		.cfi_restore 8
 676              		.cfi_restore 7
 677              		.cfi_restore 6
 678              		.cfi_restore 5
 679              		.cfi_restore 4
 680              		.cfi_def_cfa_offset 0
 681              		.loc 1 197 0
 682 0136 FFF7FEBF 		b	EE_EraseSectorIfNotEmpty.constprop.1
 683              	.LVL94:
 684              	.L96:
ARM GAS  /var/tmp//cclgCVgN.s 			page 13


 685 013a 00BF     		.align	2
 686              	.L95:
 687 013c 00400008 		.word	134234112
 688 0140 00800008 		.word	134250496
 689 0144 00000000 		.word	VirtAddVarTab
 690 0148 06800008 		.word	134250502
 691 014c 00000000 		.word	.LANCHOR0
 692 0150 06400008 		.word	134234118
 693              		.cfi_endproc
 694              	.LFE219:
 695              		.size	EE_Init, .-EE_Init
 696              		.section	.text.EE_WriteVariable,"ax",%progbits
 697              		.align	1
 698              		.p2align 4,,15
 699              		.global	EE_WriteVariable
 700              		.syntax unified
 701              		.thumb
 702              		.thumb_func
 703              		.fpu fpv4-sp-d16
 704              		.type	EE_WriteVariable, %function
 705              	EE_WriteVariable:
 706              	.LFB221:
 707              		.loc 1 331 0
 708              		.cfi_startproc
 709              		@ args = 0, pretend = 0, frame = 0
 710              		@ frame_needed = 0, uses_anonymous_args = 0
 711              	.LVL95:
 712 0000 2DE9F843 		push	{r3, r4, r5, r6, r7, r8, r9, lr}
 713              		.cfi_def_cfa_offset 32
 714              		.cfi_offset 3, -32
 715              		.cfi_offset 4, -28
 716              		.cfi_offset 5, -24
 717              		.cfi_offset 6, -20
 718              		.cfi_offset 7, -16
 719              		.cfi_offset 8, -12
 720              		.cfi_offset 9, -8
 721              		.cfi_offset 14, -4
 722              		.loc 1 331 0
 723 0004 0446     		mov	r4, r0
 724 0006 0D46     		mov	r5, r1
 725              		.loc 1 335 0
 726 0008 FFF7FEFF 		bl	EE_VerifyPageFullWriteVariable
 727              	.LVL96:
 728              		.loc 1 338 0
 729 000c 8028     		cmp	r0, #128
 730 000e 01D0     		beq	.L117
 731              	.LVL97:
 732              	.L98:
 733              		.loc 1 346 0
 734 0010 BDE8F883 		pop	{r3, r4, r5, r6, r7, r8, r9, pc}
 735              	.L117:
 736              	.LVL98:
 737              	.LBB25:
 738              	.LBB26:
 739              	.LBB27:
 740              	.LBB28:
 741              		.loc 1 397 0
ARM GAS  /var/tmp//cclgCVgN.s 			page 14


 742 0014 224E     		ldr	r6, .L120
 743              		.loc 1 400 0
 744 0016 2348     		ldr	r0, .L120+4
 745              	.LVL99:
 746              		.loc 1 397 0
 747 0018 3388     		ldrh	r3, [r6]
 748              		.loc 1 400 0
 749 001a 0288     		ldrh	r2, [r0]
 750              		.loc 1 397 0
 751 001c 9BB2     		uxth	r3, r3
 752              	.LVL100:
 753              		.loc 1 400 0
 754 001e 92B2     		uxth	r2, r2
 755              	.LVL101:
 756              		.loc 1 436 0
 757 0020 13B1     		cbz	r3, .L106
 758              		.loc 1 440 0
 759 0022 6AB9     		cbnz	r2, .L107
 760              	.LBE28:
 761              	.LBE27:
 762              		.loc 1 542 0
 763 0024 1027     		movs	r7, #16
 764 0026 01E0     		b	.L99
 765              	.L106:
 766              		.loc 1 547 0
 767 0028 0646     		mov	r6, r0
 768              		.loc 1 550 0
 769 002a 0827     		movs	r7, #8
 770              	.L99:
 771              	.LVL102:
 772              		.loc 1 558 0
 773 002c 4EF6EE61 		movw	r1, #61166
 774 0030 3046     		mov	r0, r6
 775 0032 FFF7FEFF 		bl	FLASH_ProgramHalfWord
 776              	.LVL103:
 777              		.loc 1 560 0
 778 0036 0928     		cmp	r0, #9
 779 0038 04D0     		beq	.L118
 780              	.LVL104:
 781              	.L115:
 782              		.loc 1 607 0
 783 003a 80B2     		uxth	r0, r0
 784 003c BDE8F883 		pop	{r3, r4, r5, r6, r7, r8, r9, pc}
 785              	.LVL105:
 786              	.L107:
 787              		.loc 1 554 0
 788 0040 AB20     		movs	r0, #171
 789 0042 E5E7     		b	.L98
 790              	.LVL106:
 791              	.L118:
 792              		.loc 1 566 0
 793 0044 2946     		mov	r1, r5
 794 0046 2046     		mov	r0, r4
 795              	.LVL107:
 796 0048 FFF7FEFF 		bl	EE_VerifyPageFullWriteVariable
 797              	.LVL108:
 798              		.loc 1 568 0
ARM GAS  /var/tmp//cclgCVgN.s 			page 15


 799 004c 0928     		cmp	r0, #9
 800 004e DFD1     		bne	.L98
 801 0050 154D     		ldr	r5, .L120+8
 802              	.LVL109:
 803              		.loc 1 579 0
 804 0052 DFF85890 		ldr	r9, .L120+12
 805 0056 05F50F78 		add	r8, r5, #572
 806 005a 02E0     		b	.L102
 807              	.LVL110:
 808              	.L104:
 809 005c 0235     		adds	r5, r5, #2
 810              		.loc 1 574 0
 811 005e A845     		cmp	r8, r5
 812 0060 11D0     		beq	.L119
 813              	.L102:
 814              		.loc 1 576 0
 815 0062 2B88     		ldrh	r3, [r5]
 816              		.loc 1 579 0
 817 0064 1149     		ldr	r1, .L120+12
 818              		.loc 1 576 0
 819 0066 9C42     		cmp	r4, r3
 820              		.loc 1 579 0
 821 0068 1846     		mov	r0, r3
 822              		.loc 1 576 0
 823 006a F7D0     		beq	.L104
 824              		.loc 1 579 0
 825 006c FFF7FEFF 		bl	EE_ReadVariable
 826              	.LVL111:
 827              		.loc 1 581 0
 828 0070 0128     		cmp	r0, #1
 829 0072 F3D0     		beq	.L104
 830              		.loc 1 584 0
 831 0074 B9F80010 		ldrh	r1, [r9]
 832 0078 2888     		ldrh	r0, [r5]
 833              	.LVL112:
 834 007a FFF7FEFF 		bl	EE_VerifyPageFullWriteVariable
 835              	.LVL113:
 836              		.loc 1 586 0
 837 007e 0928     		cmp	r0, #9
 838 0080 ECD0     		beq	.L104
 839 0082 BDE8F883 		pop	{r3, r4, r5, r6, r7, r8, r9, pc}
 840              	.LVL114:
 841              	.L119:
 842              		.loc 1 595 0
 843 0086 3846     		mov	r0, r7
 844 0088 FFF7FEFF 		bl	EE_EraseSectorIfNotEmpty.constprop.1
 845              	.LVL115:
 846              		.loc 1 597 0
 847 008c C0B2     		uxtb	r0, r0
 848 008e 0928     		cmp	r0, #9
 849 0090 D3D1     		bne	.L115
 850              		.loc 1 603 0
 851 0092 3046     		mov	r0, r6
 852              	.LVL116:
 853 0094 0021     		movs	r1, #0
 854 0096 FFF7FEFF 		bl	FLASH_ProgramHalfWord
 855              	.LVL117:
ARM GAS  /var/tmp//cclgCVgN.s 			page 16


 856              		.loc 1 605 0
 857 009a 0928     		cmp	r0, #9
 858 009c CDD1     		bne	.L115
 859 009e B7E7     		b	.L98
 860              	.L121:
 861              		.align	2
 862              	.L120:
 863 00a0 00400008 		.word	134234112
 864 00a4 00800008 		.word	134250496
 865 00a8 00000000 		.word	VirtAddVarTab
 866 00ac 00000000 		.word	.LANCHOR0
 867              	.LBE26:
 868              	.LBE25:
 869              		.cfi_endproc
 870              	.LFE221:
 871              		.size	EE_WriteVariable, .-EE_WriteVariable
 872              		.global	DataVar
 873              		.section	.bss.DataVar,"aw",%nobits
 874              		.align	1
 875              		.set	.LANCHOR0,. + 0
 876              		.type	DataVar, %object
 877              		.size	DataVar, 2
 878              	DataVar:
 879 0000 0000     		.space	2
 880              		.text
 881              	.Letext0:
 882              		.file 2 "/usr/local/gcc_arm/gcc-arm-none-eabi-6-2017-q2-update/arm-none-eabi/include/machine/_defa
 883              		.file 3 "/usr/local/gcc_arm/gcc-arm-none-eabi-6-2017-q2-update/arm-none-eabi/include/sys/_stdint.h
 884              		.file 4 "ChibiOS_3.0.2/os/ext/CMSIS/include/core_cm4.h"
 885              		.file 5 "ChibiOS_3.0.2/os/ext/CMSIS/ST/system_stm32f4xx.h"
 886              		.file 6 "ChibiOS_3.0.2/ext/stdperiph_stm32f4/inc/stm32f4xx_flash.h"
 887              		.file 7 "/usr/local/gcc_arm/gcc-arm-none-eabi-6-2017-q2-update/lib/gcc/arm-none-eabi/6.3.1/include
 888              		.file 8 "ChibiOS_3.0.2/os/rt/ports/ARMCMx/compilers/GCC/chtypes.h"
 889              		.file 9 "ChibiOS_3.0.2/os/rt/include/chsystypes.h"
 890              		.file 10 "ChibiOS_3.0.2/os/rt/include/chschd.h"
 891              		.file 11 "ChibiOS_3.0.2/os/rt/ports/ARMCMx/chcore.h"
 892              		.file 12 "ChibiOS_3.0.2/os/rt/ports/ARMCMx/chcore_v7m.h"
 893              		.file 13 "ChibiOS_3.0.2/os/rt/include/chtm.h"
 894              		.file 14 "ChibiOS_3.0.2/os/rt/include/chsem.h"
 895              		.file 15 "ChibiOS_3.0.2/os/rt/include/chmtx.h"
 896              		.file 16 "ChibiOS_3.0.2/os/rt/include/chregistry.h"
 897              		.file 17 "conf_general.h"
 898              		.file 18 "flash_helper.h"