ARM GAS  /var/tmp//ccSbO5co.s 			page 1


   1              		.cpu cortex-m4
   2              		.eabi_attribute 27, 1
   3              		.eabi_attribute 28, 1
   4              		.eabi_attribute 20, 1
   5              		.eabi_attribute 21, 1
   6              		.eabi_attribute 23, 3
   7              		.eabi_attribute 24, 1
   8              		.eabi_attribute 25, 1
   9              		.eabi_attribute 26, 1
  10              		.eabi_attribute 30, 2
  11              		.eabi_attribute 34, 1
  12              		.eabi_attribute 18, 4
  13              		.file	"encoder.c"
  14              		.text
  15              	.Ltext0:
  16              		.cfi_sections	.debug_frame
  17              		.section	.text.encoder_deinit,"ax",%progbits
  18              		.align	1
  19              		.p2align 4,,15
  20              		.global	encoder_deinit
  21              		.syntax unified
  22              		.thumb
  23              		.thumb_func
  24              		.fpu fpv4-sp-d16
  25              		.type	encoder_deinit, %function
  26              	encoder_deinit:
  27              	.LFB256:
  28              		.file 1 "encoder.c"
  29              		.loc 1 80 0
  30              		.cfi_startproc
  31              		@ args = 0, pretend = 0, frame = 0
  32              		@ frame_needed = 0, uses_anonymous_args = 0
  33 0000 10B5     		push	{r4, lr}
  34              		.cfi_def_cfa_offset 8
  35              		.cfi_offset 4, -8
  36              		.cfi_offset 14, -4
  37              		.loc 1 81 0
  38 0002 2820     		movs	r0, #40
  39 0004 FFF7FEFF 		bl	nvicDisableVector
  40              	.LVL0:
  41              		.loc 1 86 0
  42 0008 144C     		ldr	r4, .L3
  43              		.loc 1 82 0
  44 000a 1E20     		movs	r0, #30
  45 000c FFF7FEFF 		bl	nvicDisableVector
  46              	.LVL1:
  47              		.loc 1 84 0
  48 0010 1348     		ldr	r0, .L3+4
  49 0012 FFF7FEFF 		bl	TIM_DeInit
  50              	.LVL2:
  51              		.loc 1 86 0
  52 0016 2046     		mov	r0, r4
  53 0018 2022     		movs	r2, #32
  54 001a 8021     		movs	r1, #128
  55 001c FFF7FEFF 		bl	_pal_lld_setgroupmode
  56              	.LVL3:
  57              		.loc 1 87 0
ARM GAS  /var/tmp//ccSbO5co.s 			page 2


  58 0020 2046     		mov	r0, r4
  59 0022 2022     		movs	r2, #32
  60 0024 4021     		movs	r1, #64
  61 0026 FFF7FEFF 		bl	_pal_lld_setgroupmode
  62              	.LVL4:
  63              		.loc 1 88 0
  64 002a 2022     		movs	r2, #32
  65 002c 4FF40061 		mov	r1, #2048
  66 0030 0C48     		ldr	r0, .L3+8
  67 0032 FFF7FEFF 		bl	_pal_lld_setgroupmode
  68              	.LVL5:
  69              		.loc 1 90 0
  70 0036 2046     		mov	r0, r4
  71 0038 2022     		movs	r2, #32
  72 003a 4021     		movs	r1, #64
  73 003c FFF7FEFF 		bl	_pal_lld_setgroupmode
  74              	.LVL6:
  75              		.loc 1 91 0
  76 0040 2046     		mov	r0, r4
  77 0042 2022     		movs	r2, #32
  78 0044 8021     		movs	r1, #128
  79 0046 FFF7FEFF 		bl	_pal_lld_setgroupmode
  80              	.LVL7:
  81              		.loc 1 93 0
  82 004a 074C     		ldr	r4, .L3+12
  83              		.loc 1 94 0
  84 004c 0748     		ldr	r0, .L3+16
  85              		.loc 1 95 0
  86 004e 084A     		ldr	r2, .L3+20
  87              		.loc 1 93 0
  88 0050 0023     		movs	r3, #0
  89              		.loc 1 95 0
  90 0052 0021     		movs	r1, #0
  91              		.loc 1 93 0
  92 0054 2370     		strb	r3, [r4]
  93              		.loc 1 94 0
  94 0056 0370     		strb	r3, [r0]
  95              		.loc 1 95 0
  96 0058 1160     		str	r1, [r2]	@ float
  97 005a 10BD     		pop	{r4, pc}
  98              	.L4:
  99              		.align	2
 100              	.L3:
 101 005c 00040240 		.word	1073873920
 102 0060 00080040 		.word	1073743872
 103 0064 00080240 		.word	1073874944
 104 0068 00000000 		.word	.LANCHOR0
 105 006c 00000000 		.word	.LANCHOR1
 106 0070 00000000 		.word	.LANCHOR2
 107              		.cfi_endproc
 108              	.LFE256:
 109              		.size	encoder_deinit, .-encoder_deinit
 110              		.section	.text.encoder_init_abi,"ax",%progbits
 111              		.align	1
 112              		.p2align 4,,15
 113              		.global	encoder_init_abi
 114              		.syntax unified
ARM GAS  /var/tmp//ccSbO5co.s 			page 3


 115              		.thumb
 116              		.thumb_func
 117              		.fpu fpv4-sp-d16
 118              		.type	encoder_init_abi, %function
 119              	encoder_init_abi:
 120              	.LFB257:
 121              		.loc 1 98 0
 122              		.cfi_startproc
 123              		@ args = 0, pretend = 0, frame = 8
 124              		@ frame_needed = 0, uses_anonymous_args = 0
 125              	.LVL8:
 126 0000 70B5     		push	{r4, r5, r6, lr}
 127              		.cfi_def_cfa_offset 16
 128              		.cfi_offset 4, -16
 129              		.cfi_offset 5, -12
 130              		.cfi_offset 6, -8
 131              		.cfi_offset 14, -4
 132              		.loc 1 103 0
 133 0002 284E     		ldr	r6, .L7
 134              		.loc 1 105 0
 135 0004 284C     		ldr	r4, .L7+4
 136              		.loc 1 102 0
 137 0006 294B     		ldr	r3, .L7+8
 138              		.loc 1 103 0
 139 0008 3060     		str	r0, [r6]
 140              		.loc 1 98 0
 141 000a 82B0     		sub	sp, sp, #8
 142              		.cfi_def_cfa_offset 24
 143              		.loc 1 102 0
 144 000c 0025     		movs	r5, #0
 145              		.loc 1 105 0
 146 000e 2046     		mov	r0, r4
 147              	.LVL9:
 148 0010 4FF48172 		mov	r2, #258
 149 0014 4021     		movs	r1, #64
 150              		.loc 1 102 0
 151 0016 1D70     		strb	r5, [r3]
 152              		.loc 1 105 0
 153 0018 FFF7FEFF 		bl	_pal_lld_setgroupmode
 154              	.LVL10:
 155              		.loc 1 106 0
 156 001c 4FF48172 		mov	r2, #258
 157 0020 2046     		mov	r0, r4
 158 0022 8021     		movs	r1, #128
 159 0024 FFF7FEFF 		bl	_pal_lld_setgroupmode
 160              	.LVL11:
 161              		.loc 1 110 0
 162 0028 0121     		movs	r1, #1
 163 002a 0420     		movs	r0, #4
 164              		.loc 1 115 0
 165 002c A4F5FE34 		sub	r4, r4, #130048
 166              		.loc 1 110 0
 167 0030 FFF7FEFF 		bl	RCC_APB1PeriphClockCmd
 168              	.LVL12:
 169              		.loc 1 113 0
 170 0034 0121     		movs	r1, #1
 171 0036 4FF48040 		mov	r0, #16384
ARM GAS  /var/tmp//ccSbO5co.s 			page 4


 172 003a FFF7FEFF 		bl	RCC_APB2PeriphClockCmd
 173              	.LVL13:
 174              		.loc 1 115 0
 175 003e 2A46     		mov	r2, r5
 176 0040 2B46     		mov	r3, r5
 177 0042 2046     		mov	r0, r4
 178 0044 0321     		movs	r1, #3
 179 0046 FFF7FEFF 		bl	TIM_EncoderInterfaceConfig
 180              	.LVL14:
 181              		.loc 1 118 0
 182 004a 3168     		ldr	r1, [r6]
 183 004c 2046     		mov	r0, r4
 184 004e 0139     		subs	r1, r1, #1
 185 0050 FFF7FEFF 		bl	TIM_SetAutoreload
 186              	.LVL15:
 187              		.loc 1 121 0
 188 0054 A369     		ldr	r3, [r4, #24]
 189 0056 43F4C043 		orr	r3, r3, #24576
 190 005a 43F06003 		orr	r3, r3, #96
 191 005e A361     		str	r3, [r4, #24]
 192              		.loc 1 122 0
 193 0060 E369     		ldr	r3, [r4, #28]
 194 0062 43F06003 		orr	r3, r3, #96
 195 0066 E361     		str	r3, [r4, #28]
 196              		.loc 1 124 0
 197 0068 2046     		mov	r0, r4
 198 006a 0121     		movs	r1, #1
 199 006c FFF7FEFF 		bl	TIM_Cmd
 200              	.LVL16:
 201              		.loc 1 129 0
 202 0070 0B21     		movs	r1, #11
 203 0072 0220     		movs	r0, #2
 204 0074 FFF7FEFF 		bl	SYSCFG_EXTILineConfig
 205              	.LVL17:
 206              		.loc 1 135 0
 207 0078 0124     		movs	r4, #1
 208              		.loc 1 132 0
 209 007a 4FF40062 		mov	r2, #2048
 210              		.loc 1 134 0
 211 007e 0823     		movs	r3, #8
 212              		.loc 1 136 0
 213 0080 6846     		mov	r0, sp
 214              		.loc 1 134 0
 215 0082 8DF80530 		strb	r3, [sp, #5]
 216              		.loc 1 132 0
 217 0086 0092     		str	r2, [sp]
 218              		.loc 1 133 0
 219 0088 8DF80450 		strb	r5, [sp, #4]
 220              		.loc 1 135 0
 221 008c 8DF80640 		strb	r4, [sp, #6]
 222              		.loc 1 136 0
 223 0090 FFF7FEFF 		bl	EXTI_Init
 224              	.LVL18:
 225              		.loc 1 139 0
 226 0094 2946     		mov	r1, r5
 227 0096 2820     		movs	r0, #40
 228 0098 FFF7FEFF 		bl	nvicEnableVector
ARM GAS  /var/tmp//ccSbO5co.s 			page 5


 229              	.LVL19:
 230              		.loc 1 141 0
 231 009c 044B     		ldr	r3, .L7+12
 232 009e 1C70     		strb	r4, [r3]
 233              		.loc 1 142 0
 234 00a0 02B0     		add	sp, sp, #8
 235              		.cfi_def_cfa_offset 16
 236              		@ sp needed
 237 00a2 70BD     		pop	{r4, r5, r6, pc}
 238              	.L8:
 239              		.align	2
 240              	.L7:
 241 00a4 00000000 		.word	.LANCHOR3
 242 00a8 00040240 		.word	1073873920
 243 00ac 00000000 		.word	.LANCHOR0
 244 00b0 00000000 		.word	.LANCHOR1
 245              		.cfi_endproc
 246              	.LFE257:
 247              		.size	encoder_init_abi, .-encoder_init_abi
 248              		.section	.text.encoder_init_as5047p_spi,"ax",%progbits
 249              		.align	1
 250              		.p2align 4,,15
 251              		.global	encoder_init_as5047p_spi
 252              		.syntax unified
 253              		.thumb
 254              		.thumb_func
 255              		.fpu fpv4-sp-d16
 256              		.type	encoder_init_as5047p_spi, %function
 257              	encoder_init_as5047p_spi:
 258              	.LFB258:
 259              		.loc 1 144 0
 260              		.cfi_startproc
 261              		@ args = 0, pretend = 0, frame = 16
 262              		@ frame_needed = 0, uses_anonymous_args = 0
 263 0000 30B5     		push	{r4, r5, lr}
 264              		.cfi_def_cfa_offset 12
 265              		.cfi_offset 4, -12
 266              		.cfi_offset 5, -8
 267              		.cfi_offset 14, -4
 268              		.loc 1 147 0
 269 0002 1E4D     		ldr	r5, .L11
 270              		.loc 1 166 0
 271 0004 1E4C     		ldr	r4, .L11+4
 272              		.loc 1 144 0
 273 0006 85B0     		sub	sp, sp, #20
 274              		.cfi_def_cfa_offset 32
 275              		.loc 1 147 0
 276 0008 2846     		mov	r0, r5
 277 000a 0022     		movs	r2, #0
 278 000c 8021     		movs	r1, #128
 279 000e FFF7FEFF 		bl	_pal_lld_setgroupmode
 280              	.LVL20:
 281              		.loc 1 148 0
 282 0012 2846     		mov	r0, r5
 283 0014 1922     		movs	r2, #25
 284 0016 4021     		movs	r1, #64
 285 0018 FFF7FEFF 		bl	_pal_lld_setgroupmode
ARM GAS  /var/tmp//ccSbO5co.s 			page 6


 286              	.LVL21:
 287              		.loc 1 149 0
 288 001c 1922     		movs	r2, #25
 289 001e 4FF40061 		mov	r1, #2048
 290 0022 1848     		ldr	r0, .L11+8
 291 0024 FFF7FEFF 		bl	_pal_lld_setgroupmode
 292              	.LVL22:
 293              		.loc 1 158 0
 294 0028 0121     		movs	r1, #1
 295 002a 0420     		movs	r0, #4
 296 002c FFF7FEFF 		bl	RCC_APB1PeriphClockCmd
 297              	.LVL23:
 298              		.loc 1 161 0
 299 0030 0023     		movs	r3, #0
 300              		.loc 1 166 0
 301 0032 2046     		mov	r0, r4
 302              		.loc 1 163 0
 303 0034 41F26702 		movw	r2, #4199
 304              		.loc 1 166 0
 305 0038 01A9     		add	r1, sp, #4
 306              		.loc 1 161 0
 307 003a ADF80430 		strh	r3, [sp, #4]	@ movhi
 308              		.loc 1 162 0
 309 003e ADF80630 		strh	r3, [sp, #6]	@ movhi
 310              		.loc 1 164 0
 311 0042 ADF80C30 		strh	r3, [sp, #12]	@ movhi
 312              		.loc 1 165 0
 313 0046 8DF80E30 		strb	r3, [sp, #14]
 314              		.loc 1 163 0
 315 004a 0292     		str	r2, [sp, #8]
 316              		.loc 1 166 0
 317 004c FFF7FEFF 		bl	TIM_TimeBaseInit
 318              	.LVL24:
 319              		.loc 1 169 0
 320 0050 0122     		movs	r2, #1
 321 0052 1146     		mov	r1, r2
 322 0054 2046     		mov	r0, r4
 323 0056 FFF7FEFF 		bl	TIM_ITConfig
 324              	.LVL25:
 325              		.loc 1 172 0
 326 005a 2046     		mov	r0, r4
 327 005c 0121     		movs	r1, #1
 328 005e FFF7FEFF 		bl	TIM_Cmd
 329              	.LVL26:
 330              		.loc 1 174 0
 331 0062 0621     		movs	r1, #6
 332 0064 1E20     		movs	r0, #30
 333 0066 FFF7FEFF 		bl	nvicEnableVector
 334              	.LVL27:
 335              		.loc 1 176 0
 336 006a 0749     		ldr	r1, .L11+12
 337              		.loc 1 177 0
 338 006c 074B     		ldr	r3, .L11+16
 339              		.loc 1 176 0
 340 006e 0220     		movs	r0, #2
 341              		.loc 1 177 0
 342 0070 0122     		movs	r2, #1
ARM GAS  /var/tmp//ccSbO5co.s 			page 7


 343              		.loc 1 176 0
 344 0072 0870     		strb	r0, [r1]
 345              		.loc 1 177 0
 346 0074 1A70     		strb	r2, [r3]
 347              		.loc 1 178 0
 348 0076 05B0     		add	sp, sp, #20
 349              		.cfi_def_cfa_offset 12
 350              		@ sp needed
 351 0078 30BD     		pop	{r4, r5, pc}
 352              	.L12:
 353 007a 00BF     		.align	2
 354              	.L11:
 355 007c 00040240 		.word	1073873920
 356 0080 00080040 		.word	1073743872
 357 0084 00080240 		.word	1073874944
 358 0088 00000000 		.word	.LANCHOR1
 359 008c 00000000 		.word	.LANCHOR0
 360              		.cfi_endproc
 361              	.LFE258:
 362              		.size	encoder_init_as5047p_spi, .-encoder_init_as5047p_spi
 363              		.section	.text.encoder_is_configured,"ax",%progbits
 364              		.align	1
 365              		.p2align 4,,15
 366              		.global	encoder_is_configured
 367              		.syntax unified
 368              		.thumb
 369              		.thumb_func
 370              		.fpu fpv4-sp-d16
 371              		.type	encoder_is_configured, %function
 372              	encoder_is_configured:
 373              	.LFB259:
 374              		.loc 1 180 0
 375              		.cfi_startproc
 376              		@ args = 0, pretend = 0, frame = 0
 377              		@ frame_needed = 0, uses_anonymous_args = 0
 378              		@ link register save eliminated.
 379              		.loc 1 181 0
 380 0000 024B     		ldr	r3, .L14
 381 0002 1878     		ldrb	r0, [r3]	@ zero_extendqisi2
 382              		.loc 1 182 0
 383 0004 0030     		adds	r0, r0, #0
 384 0006 18BF     		it	ne
 385 0008 0120     		movne	r0, #1
 386 000a 7047     		bx	lr
 387              	.L15:
 388              		.align	2
 389              	.L14:
 390 000c 00000000 		.word	.LANCHOR1
 391              		.cfi_endproc
 392              	.LFE259:
 393              		.size	encoder_is_configured, .-encoder_is_configured
 394              		.section	.text.encoder_read_deg,"ax",%progbits
 395              		.align	1
 396              		.p2align 4,,15
 397              		.global	encoder_read_deg
 398              		.syntax unified
 399              		.thumb
ARM GAS  /var/tmp//ccSbO5co.s 			page 8


 400              		.thumb_func
 401              		.fpu fpv4-sp-d16
 402              		.type	encoder_read_deg, %function
 403              	encoder_read_deg:
 404              	.LFB260:
 405              		.loc 1 184 0
 406              		.cfi_startproc
 407              		@ args = 0, pretend = 0, frame = 0
 408              		@ frame_needed = 0, uses_anonymous_args = 0
 409              		@ link register save eliminated.
 410              		.loc 1 187 0
 411 0000 124B     		ldr	r3, .L23
 412 0002 1B78     		ldrb	r3, [r3]	@ zero_extendqisi2
 413 0004 012B     		cmp	r3, #1
 414 0006 0CD0     		beq	.L18
 415 0008 022B     		cmp	r3, #2
 416 000a 06D1     		bne	.L22
 417              		.loc 1 193 0
 418 000c 104A     		ldr	r2, .L23+4
 419 000e 114B     		ldr	r3, .L23+8
 420 0010 92ED000A 		vldr.32	s0, [r2]
 421 0014 83ED000A 		vstr.32	s0, [r3]
 422              		.loc 1 201 0
 423 0018 7047     		bx	lr
 424              	.L22:
 425 001a 0E4B     		ldr	r3, .L23+8
 426 001c 93ED000A 		vldr.32	s0, [r3]
 427 0020 7047     		bx	lr
 428              	.L18:
 429              		.loc 1 189 0
 430 0022 0D4A     		ldr	r2, .L23+12
 431 0024 0D4B     		ldr	r3, .L23+16
 432 0026 D2ED097A 		vldr.32	s15, [r2, #36]	@ int
 433 002a 93ED007A 		vldr.32	s14, [r3]	@ int
 434 002e DFED0C6A 		vldr.32	s13, .L23+20
 435 0032 084B     		ldr	r3, .L23+8
 436 0034 F8EE677A 		vcvt.f32.u32	s15, s15
 437 0038 B8EE477A 		vcvt.f32.u32	s14, s14
 438 003c 67EEA67A 		vmul.f32	s15, s15, s13
 439 0040 87EE870A 		vdiv.f32	s0, s15, s14
 440 0044 83ED000A 		vstr.32	s0, [r3]
 441              		.loc 1 190 0
 442 0048 7047     		bx	lr
 443              	.L24:
 444 004a 00BF     		.align	2
 445              	.L23:
 446 004c 00000000 		.word	.LANCHOR1
 447 0050 00000000 		.word	.LANCHOR2
 448 0054 00000000 		.word	.LANCHOR4
 449 0058 00080040 		.word	1073743872
 450 005c 00000000 		.word	.LANCHOR3
 451 0060 0000B443 		.word	1135869952
 452              		.cfi_endproc
 453              	.LFE260:
 454              		.size	encoder_read_deg, .-encoder_read_deg
 455              		.section	.text.encoder_reset,"ax",%progbits
 456              		.align	1
ARM GAS  /var/tmp//ccSbO5co.s 			page 9


 457              		.p2align 4,,15
 458              		.global	encoder_reset
 459              		.syntax unified
 460              		.thumb
 461              		.thumb_func
 462              		.fpu fpv4-sp-d16
 463              		.type	encoder_reset, %function
 464              	encoder_reset:
 465              	.LFB261:
 466              		.loc 1 206 0
 467              		.cfi_startproc
 468              		@ args = 0, pretend = 0, frame = 0
 469              		@ frame_needed = 0, uses_anonymous_args = 0
 470              	.LBB139:
 471              	.LBB140:
 472              		.file 2 "ChibiOS_3.0.2/os/ext/CMSIS/include/core_cmInstr.h"
 473              		.loc 2 327 0
 474              		.syntax unified
 475              	@ 327 "ChibiOS_3.0.2/os/ext/CMSIS/include/core_cmInstr.h" 1
 476 0000 00BF     		nop
 477              	@ 0 "" 2
 478              		.thumb
 479              		.syntax unified
 480              	.LBE140:
 481              	.LBE139:
 482              	.LBB141:
 483              	.LBB142:
 484              		.syntax unified
 485              	@ 327 "ChibiOS_3.0.2/os/ext/CMSIS/include/core_cmInstr.h" 1
 486 0002 00BF     		nop
 487              	@ 0 "" 2
 488              		.thumb
 489              		.syntax unified
 490              	.LBE142:
 491              	.LBE141:
 492              	.LBB143:
 493              	.LBB144:
 494              		.syntax unified
 495              	@ 327 "ChibiOS_3.0.2/os/ext/CMSIS/include/core_cmInstr.h" 1
 496 0004 00BF     		nop
 497              	@ 0 "" 2
 498              		.thumb
 499              		.syntax unified
 500              	.LBE144:
 501              	.LBE143:
 502              	.LBB145:
 503              	.LBB146:
 504              		.syntax unified
 505              	@ 327 "ChibiOS_3.0.2/os/ext/CMSIS/include/core_cmInstr.h" 1
 506 0006 00BF     		nop
 507              	@ 0 "" 2
 508              		.thumb
 509              		.syntax unified
 510              	.LBE146:
 511              	.LBE145:
 512              		.loc 1 213 0
 513 0008 174B     		ldr	r3, .L36
ARM GAS  /var/tmp//ccSbO5co.s 			page 10


 514 000a 1B69     		ldr	r3, [r3, #16]
 515 000c 1B05     		lsls	r3, r3, #20
 516 000e 1AD5     		bpl	.L33
 517              	.LBB147:
 518              		.loc 1 218 0
 519 0010 164A     		ldr	r2, .L36+4
 520              		.loc 1 214 0
 521 0012 1749     		ldr	r1, .L36+8
 522              		.loc 1 218 0
 523 0014 1378     		ldrb	r3, [r2]	@ zero_extendqisi2
 524              		.loc 1 214 0
 525 0016 486A     		ldr	r0, [r1, #36]
 526              	.LVL28:
 527              		.loc 1 218 0
 528 0018 B3B1     		cbz	r3, .L28
 529              		.loc 1 216 0
 530 001a 1649     		ldr	r1, .L36+12
 531 001c 164B     		ldr	r3, .L36+16
 532 001e 0968     		ldr	r1, [r1]
 533              	.LBE147:
 534              		.loc 1 206 0
 535 0020 00B5     		push	{lr}
 536              		.cfi_def_cfa_offset 4
 537              		.cfi_offset 14, -4
 538              	.LBB148:
 539              		.loc 1 216 0
 540 0022 A3FB01E3 		umull	lr, r3, r3, r1
 541 0026 1B09     		lsrs	r3, r3, #4
 542              		.loc 1 220 0
 543 0028 C91A     		subs	r1, r1, r3
 544 002a 8842     		cmp	r0, r1
 545 002c 12D8     		bhi	.L29
 546              		.loc 1 220 0 is_stmt 0 discriminator 1
 547 002e 9842     		cmp	r0, r3
 548 0030 10D3     		bcc	.L29
 549              		.loc 1 224 0 is_stmt 1
 550 0032 1249     		ldr	r1, .L36+20
 551 0034 0B68     		ldr	r3, [r1]
 552 0036 0133     		adds	r3, r3, #1
 553              		.loc 1 226 0
 554 0038 052B     		cmp	r3, #5
 555              		.loc 1 224 0
 556 003a 0B60     		str	r3, [r1]
 557              		.loc 1 226 0
 558 003c 11DD     		ble	.L25
 559              		.loc 1 227 0
 560 003e 0023     		movs	r3, #0
 561 0040 1370     		strb	r3, [r2]
 562 0042 5DF804FB 		ldr	pc, [sp], #4
 563              	.LVL29:
 564              	.L33:
 565              		.cfi_def_cfa_offset 0
 566              		.cfi_restore 14
 567 0046 7047     		bx	lr
 568              	.LVL30:
 569              	.L28:
 570              		.loc 1 233 0
ARM GAS  /var/tmp//ccSbO5co.s 			page 11


 571 0048 0C48     		ldr	r0, .L36+20
 572              	.LVL31:
 573              		.loc 1 231 0
 574 004a 4B62     		str	r3, [r1, #36]
 575              	.LVL32:
 576              		.loc 1 232 0
 577 004c 0121     		movs	r1, #1
 578              		.loc 1 233 0
 579 004e 0360     		str	r3, [r0]
 580              		.loc 1 232 0
 581 0050 1170     		strb	r1, [r2]
 582              	.LBE148:
 583              		.loc 1 236 0
 584 0052 7047     		bx	lr
 585              	.LVL33:
 586              	.L29:
 587              		.cfi_def_cfa_offset 4
 588              		.cfi_offset 14, -4
 589              	.LBB149:
 590              		.loc 1 221 0
 591 0054 0649     		ldr	r1, .L36+8
 592              		.loc 1 222 0
 593 0056 094A     		ldr	r2, .L36+20
 594              		.loc 1 221 0
 595 0058 0023     		movs	r3, #0
 596 005a 4B62     		str	r3, [r1, #36]
 597              	.LVL34:
 598              		.loc 1 222 0
 599 005c 1360     		str	r3, [r2]
 600 005e 5DF804FB 		ldr	pc, [sp], #4
 601              	.LVL35:
 602              	.L25:
 603 0062 5DF804FB 		ldr	pc, [sp], #4
 604              	.L37:
 605 0066 00BF     		.align	2
 606              	.L36:
 607 0068 00080240 		.word	1073874944
 608 006c 00000000 		.word	.LANCHOR0
 609 0070 00080040 		.word	1073743872
 610 0074 00000000 		.word	.LANCHOR3
 611 0078 CDCCCCCC 		.word	-858993459
 612 007c 00000000 		.word	.LANCHOR5
 613              	.LBE149:
 614              		.cfi_endproc
 615              	.LFE261:
 616              		.size	encoder_reset, .-encoder_reset
 617              		.section	.text.encoder_tim_isr,"ax",%progbits
 618              		.align	1
 619              		.p2align 4,,15
 620              		.global	encoder_tim_isr
 621              		.syntax unified
 622              		.thumb
 623              		.thumb_func
 624              		.fpu fpv4-sp-d16
 625              		.type	encoder_tim_isr, %function
 626              	encoder_tim_isr:
 627              	.LFB262:
ARM GAS  /var/tmp//ccSbO5co.s 			page 12


 628              		.loc 1 241 0
 629              		.cfi_startproc
 630              		@ args = 0, pretend = 0, frame = 0
 631              		@ frame_needed = 0, uses_anonymous_args = 0
 632              	.LBB191:
 633              	.LBB192:
 634              		.loc 1 313 0
 635 0000 224B     		ldr	r3, .L47
 636              	.LBE192:
 637              	.LBE191:
 638              		.loc 1 241 0
 639 0002 2DE9F041 		push	{r4, r5, r6, r7, r8, lr}
 640              		.cfi_def_cfa_offset 24
 641              		.cfi_offset 4, -24
 642              		.cfi_offset 5, -20
 643              		.cfi_offset 6, -16
 644              		.cfi_offset 7, -12
 645              		.cfi_offset 8, -8
 646              		.cfi_offset 14, -4
 647              	.LBB196:
 648              	.LBB193:
 649              		.loc 1 313 0
 650 0006 4FF40062 		mov	r2, #2048
 651              	.LBE193:
 652              	.LBE196:
 653              	.LBB197:
 654              	.LBB198:
 655              	.LBB199:
 656              	.LBB200:
 657              	.LBB201:
 658              		.loc 1 287 0
 659 000a 4027     		movs	r7, #64
 660 000c 204D     		ldr	r5, .L47+4
 661              	.LBE201:
 662              	.LBE200:
 663              	.LBE199:
 664              	.LBE198:
 665              	.LBE197:
 666              	.LBB241:
 667              	.LBB194:
 668              		.loc 1 313 0
 669 000e 5A83     		strh	r2, [r3, #26]	@ movhi
 670              	.LVL36:
 671              	.LBE194:
 672              	.LBE241:
 673              	.LBB242:
 674              	.LBB239:
 675              	.LBB237:
 676              	.LBB235:
 677              	.LBB233:
 678              		.loc 1 287 0
 679 0010 B846     		mov	r8, r7	@ movhi
 680              	.LBE233:
 681              	.LBE235:
 682              	.LBE237:
 683              	.LBE239:
 684              	.LBE242:
ARM GAS  /var/tmp//ccSbO5co.s 			page 13


 685              	.LBB243:
 686              	.LBB195:
 687              		.loc 1 313 0
 688 0012 1026     		movs	r6, #16
 689 0014 0024     		movs	r4, #0
 690              	.LVL37:
 691              	.L40:
 692              	.LBE195:
 693              	.LBE243:
 694              	.LBB244:
 695              	.LBB240:
 696              	.LBB238:
 697              	.LBB236:
 698              	.LBB234:
 699              	.LBB202:
 700              	.LBB203:
 701              	.LBB204:
 702              		.loc 2 327 0
 703              		.syntax unified
 704              	@ 327 "ChibiOS_3.0.2/os/ext/CMSIS/include/core_cmInstr.h" 1
 705 0016 00BF     		nop
 706              	@ 0 "" 2
 707              		.thumb
 708              		.syntax unified
 709              	.LBE204:
 710              	.LBE203:
 711              	.LBB205:
 712              	.LBB206:
 713              		.syntax unified
 714              	@ 327 "ChibiOS_3.0.2/os/ext/CMSIS/include/core_cmInstr.h" 1
 715 0018 00BF     		nop
 716              	@ 0 "" 2
 717              		.thumb
 718              		.syntax unified
 719              	.LBE206:
 720              	.LBE205:
 721              	.LBB207:
 722              	.LBB208:
 723              		.syntax unified
 724              	@ 327 "ChibiOS_3.0.2/os/ext/CMSIS/include/core_cmInstr.h" 1
 725 001a 00BF     		nop
 726              	@ 0 "" 2
 727              		.thumb
 728              		.syntax unified
 729              	.LBE208:
 730              	.LBE207:
 731              	.LBB209:
 732              	.LBB210:
 733              		.syntax unified
 734              	@ 327 "ChibiOS_3.0.2/os/ext/CMSIS/include/core_cmInstr.h" 1
 735 001c 00BF     		nop
 736              	@ 0 "" 2
 737              		.thumb
 738              		.syntax unified
 739              	.LBE210:
 740              	.LBE209:
 741              	.LBE202:
ARM GAS  /var/tmp//ccSbO5co.s 			page 14


 742              		.loc 1 287 0
 743 001e A5F81880 		strh	r8, [r5, #24]	@ movhi
 744              	.LBB211:
 745              	.LBB212:
 746              	.LBB213:
 747              		.loc 2 327 0
 748              		.syntax unified
 749              	@ 327 "ChibiOS_3.0.2/os/ext/CMSIS/include/core_cmInstr.h" 1
 750 0022 00BF     		nop
 751              	@ 0 "" 2
 752              		.thumb
 753              		.syntax unified
 754              	.LBE213:
 755              	.LBE212:
 756              	.LBB214:
 757              	.LBB215:
 758              		.syntax unified
 759              	@ 327 "ChibiOS_3.0.2/os/ext/CMSIS/include/core_cmInstr.h" 1
 760 0024 00BF     		nop
 761              	@ 0 "" 2
 762              		.thumb
 763              		.syntax unified
 764              	.LBE215:
 765              	.LBE214:
 766              	.LBB216:
 767              	.LBB217:
 768              		.syntax unified
 769              	@ 327 "ChibiOS_3.0.2/os/ext/CMSIS/include/core_cmInstr.h" 1
 770 0026 00BF     		nop
 771              	@ 0 "" 2
 772              		.thumb
 773              		.syntax unified
 774              	.LBE217:
 775              	.LBE216:
 776              	.LBB218:
 777              	.LBB219:
 778              		.syntax unified
 779              	@ 327 "ChibiOS_3.0.2/os/ext/CMSIS/include/core_cmInstr.h" 1
 780 0028 00BF     		nop
 781              	@ 0 "" 2
 782              		.thumb
 783              		.syntax unified
 784              	.LBE219:
 785              	.LBE218:
 786              	.LBE211:
 787              		.loc 1 291 0
 788 002a 2869     		ldr	r0, [r5, #16]
 789              	.LVL38:
 790              	.LBB220:
 791              	.LBB221:
 792              		.loc 2 327 0
 793              		.syntax unified
 794              	@ 327 "ChibiOS_3.0.2/os/ext/CMSIS/include/core_cmInstr.h" 1
 795 002c 00BF     		nop
 796              	@ 0 "" 2
 797              		.thumb
 798              		.syntax unified
ARM GAS  /var/tmp//ccSbO5co.s 			page 15


 799              	.LBE221:
 800              	.LBE220:
 801              		.loc 1 293 0
 802 002e 2969     		ldr	r1, [r5, #16]
 803              	.LVL39:
 804              	.LBB222:
 805              	.LBB223:
 806              		.loc 2 327 0
 807              		.syntax unified
 808              	@ 327 "ChibiOS_3.0.2/os/ext/CMSIS/include/core_cmInstr.h" 1
 809 0030 00BF     		nop
 810              	@ 0 "" 2
 811              		.thumb
 812              		.syntax unified
 813              	.LBE223:
 814              	.LBE222:
 815              		.loc 1 295 0
 816 0032 2A69     		ldr	r2, [r5, #16]
 817              	.LVL40:
 818              		.loc 1 297 0
 819 0034 6400     		lsls	r4, r4, #1
 820              	.LVL41:
 821              		.loc 1 298 0
 822 0036 C1F3C011 		ubfx	r1, r1, #7, #1
 823              	.LVL42:
 824 003a C0F3C010 		ubfx	r0, r0, #7, #1
 825              	.LVL43:
 826 003e C2F3C012 		ubfx	r2, r2, #7, #1
 827              	.LVL44:
 828              		.loc 1 297 0
 829 0042 A4B2     		uxth	r4, r4
 830              	.LVL45:
 831              		.loc 1 298 0
 832 0044 FFF7FEFF 		bl	utils_middle_of_3_int
 833              	.LVL46:
 834 0048 08B1     		cbz	r0, .L42
 835              		.loc 1 299 0
 836 004a 44F00104 		orr	r4, r4, #1
 837              	.LVL47:
 838              	.L42:
 839              		.loc 1 302 0
 840 004e 6F83     		strh	r7, [r5, #26]	@ movhi
 841              	.LBB224:
 842              	.LBB225:
 843              	.LBB226:
 844              		.loc 2 327 0
 845              		.syntax unified
 846              	@ 327 "ChibiOS_3.0.2/os/ext/CMSIS/include/core_cmInstr.h" 1
 847 0050 00BF     		nop
 848              	@ 0 "" 2
 849              		.thumb
 850              		.syntax unified
 851              	.LBE226:
 852              	.LBE225:
 853              	.LBB227:
 854              	.LBB228:
 855              		.syntax unified
ARM GAS  /var/tmp//ccSbO5co.s 			page 16


 856              	@ 327 "ChibiOS_3.0.2/os/ext/CMSIS/include/core_cmInstr.h" 1
 857 0052 00BF     		nop
 858              	@ 0 "" 2
 859              		.thumb
 860              		.syntax unified
 861              	.LBE228:
 862              	.LBE227:
 863              	.LBB229:
 864              	.LBB230:
 865              		.syntax unified
 866              	@ 327 "ChibiOS_3.0.2/os/ext/CMSIS/include/core_cmInstr.h" 1
 867 0054 00BF     		nop
 868              	@ 0 "" 2
 869              		.thumb
 870              		.syntax unified
 871              	.LBE230:
 872              	.LBE229:
 873              	.LBB231:
 874              	.LBB232:
 875              		.syntax unified
 876              	@ 327 "ChibiOS_3.0.2/os/ext/CMSIS/include/core_cmInstr.h" 1
 877 0056 00BF     		nop
 878              	@ 0 "" 2
 879              	.LVL48:
 880              		.thumb
 881              		.syntax unified
 882              	.LBE232:
 883              	.LBE231:
 884              	.LBE224:
 885              	.LBE234:
 886              		.loc 1 282 0
 887 0058 013E     		subs	r6, r6, #1
 888              	.LVL49:
 889 005a DCD1     		bne	.L40
 890              	.LVL50:
 891              	.LBE236:
 892              	.LBE238:
 893              	.LBE240:
 894              	.LBE244:
 895              		.loc 1 249 0
 896 005c C4F30D03 		ubfx	r3, r4, #0, #14
 897 0060 07EE903A 		vmov	s15, r3	@ int
 898 0064 DFED0B6A 		vldr.32	s13, .L47+8
 899 0068 9FED0B7A 		vldr.32	s14, .L47+12
 900              	.LBB245:
 901              	.LBB246:
 902              		.loc 1 317 0
 903 006c 074A     		ldr	r2, .L47
 904              	.LBE246:
 905              	.LBE245:
 906              		.loc 1 249 0
 907 006e 0B4B     		ldr	r3, .L47+16
 908 0070 F8EE677A 		vcvt.f32.u32	s15, s15
 909              	.LBB249:
 910              	.LBB247:
 911              		.loc 1 317 0
 912 0074 4FF40061 		mov	r1, #2048
ARM GAS  /var/tmp//ccSbO5co.s 			page 17


 913              	.LBE247:
 914              	.LBE249:
 915              		.loc 1 249 0
 916 0078 67EEA67A 		vmul.f32	s15, s15, s13
 917              	.LBB250:
 918              	.LBB248:
 919              		.loc 1 317 0
 920 007c 1183     		strh	r1, [r2, #24]	@ movhi
 921              	.LBE248:
 922              	.LBE250:
 923              		.loc 1 249 0
 924 007e 67EE877A 		vmul.f32	s15, s15, s14
 925 0082 C3ED007A 		vstr.32	s15, [r3]
 926              	.LVL51:
 927 0086 BDE8F081 		pop	{r4, r5, r6, r7, r8, pc}
 928              	.L48:
 929 008a 00BF     		.align	2
 930              	.L47:
 931 008c 00080240 		.word	1073874944
 932 0090 00040240 		.word	1073873920
 933 0094 0000B443 		.word	1135869952
 934 0098 00008038 		.word	947912704
 935 009c 00000000 		.word	.LANCHOR2
 936              		.cfi_endproc
 937              	.LFE262:
 938              		.size	encoder_tim_isr, .-encoder_tim_isr
 939              		.section	.text.encoder_set_counts,"ax",%progbits
 940              		.align	1
 941              		.p2align 4,,15
 942              		.global	encoder_set_counts
 943              		.syntax unified
 944              		.thumb
 945              		.thumb_func
 946              		.fpu fpv4-sp-d16
 947              		.type	encoder_set_counts, %function
 948              	encoder_set_counts:
 949              	.LFB263:
 950              		.loc 1 258 0
 951              		.cfi_startproc
 952              		@ args = 0, pretend = 0, frame = 0
 953              		@ frame_needed = 0, uses_anonymous_args = 0
 954              	.LVL52:
 955              		.loc 1 259 0
 956 0000 074A     		ldr	r2, .L52
 957              		.loc 1 258 0
 958 0002 08B5     		push	{r3, lr}
 959              		.cfi_def_cfa_offset 8
 960              		.cfi_offset 3, -8
 961              		.cfi_offset 14, -4
 962              		.loc 1 259 0
 963 0004 1368     		ldr	r3, [r2]
 964 0006 8342     		cmp	r3, r0
 965 0008 08D0     		beq	.L49
 966 000a 0346     		mov	r3, r0
 967              		.loc 1 261 0
 968 000c 411E     		subs	r1, r0, #1
 969 000e 0548     		ldr	r0, .L52+4
ARM GAS  /var/tmp//ccSbO5co.s 			page 18


 970              	.LVL53:
 971              		.loc 1 260 0
 972 0010 1360     		str	r3, [r2]
 973              		.loc 1 261 0
 974 0012 FFF7FEFF 		bl	TIM_SetAutoreload
 975              	.LVL54:
 976              		.loc 1 262 0
 977 0016 044B     		ldr	r3, .L52+8
 978 0018 0022     		movs	r2, #0
 979 001a 1A70     		strb	r2, [r3]
 980              	.L49:
 981 001c 08BD     		pop	{r3, pc}
 982              	.L53:
 983 001e 00BF     		.align	2
 984              	.L52:
 985 0020 00000000 		.word	.LANCHOR3
 986 0024 00080040 		.word	1073743872
 987 0028 00000000 		.word	.LANCHOR0
 988              		.cfi_endproc
 989              	.LFE263:
 990              		.size	encoder_set_counts, .-encoder_set_counts
 991              		.section	.text.encoder_index_found,"ax",%progbits
 992              		.align	1
 993              		.p2align 4,,15
 994              		.global	encoder_index_found
 995              		.syntax unified
 996              		.thumb
 997              		.thumb_func
 998              		.fpu fpv4-sp-d16
 999              		.type	encoder_index_found, %function
 1000              	encoder_index_found:
 1001              	.LFB264:
 1002              		.loc 1 272 0
 1003              		.cfi_startproc
 1004              		@ args = 0, pretend = 0, frame = 0
 1005              		@ frame_needed = 0, uses_anonymous_args = 0
 1006              		@ link register save eliminated.
 1007              		.loc 1 273 0
 1008 0000 014B     		ldr	r3, .L55
 1009              		.loc 1 274 0
 1010 0002 1878     		ldrb	r0, [r3]	@ zero_extendqisi2
 1011 0004 7047     		bx	lr
 1012              	.L56:
 1013 0006 00BF     		.align	2
 1014              	.L55:
 1015 0008 00000000 		.word	.LANCHOR0
 1016              		.cfi_endproc
 1017              	.LFE264:
 1018              		.size	encoder_index_found, .-encoder_index_found
 1019              		.section	.bss.angle.10427,"aw",%nobits
 1020              		.align	2
 1021              		.set	.LANCHOR4,. + 0
 1022              		.type	angle.10427, %object
 1023              		.size	angle.10427, 4
 1024              	angle.10427:
 1025 0000 00000000 		.space	4
 1026              		.section	.bss.bad_pulses.10436,"aw",%nobits
ARM GAS  /var/tmp//ccSbO5co.s 			page 19


 1027              		.align	2
 1028              		.set	.LANCHOR5,. + 0
 1029              		.type	bad_pulses.10436, %object
 1030              		.size	bad_pulses.10436, 4
 1031              	bad_pulses.10436:
 1032 0000 00000000 		.space	4
 1033              		.section	.bss.index_found,"aw",%nobits
 1034              		.set	.LANCHOR0,. + 0
 1035              		.type	index_found, %object
 1036              		.size	index_found, 1
 1037              	index_found:
 1038 0000 00       		.space	1
 1039              		.section	.bss.last_enc_angle,"aw",%nobits
 1040              		.align	2
 1041              		.set	.LANCHOR2,. + 0
 1042              		.type	last_enc_angle, %object
 1043              		.size	last_enc_angle, 4
 1044              	last_enc_angle:
 1045 0000 00000000 		.space	4
 1046              		.section	.bss.mode,"aw",%nobits
 1047              		.set	.LANCHOR1,. + 0
 1048              		.type	mode, %object
 1049              		.size	mode, 1
 1050              	mode:
 1051 0000 00       		.space	1
 1052              		.section	.data.enc_counts,"aw",%progbits
 1053              		.align	2
 1054              		.set	.LANCHOR3,. + 0
 1055              		.type	enc_counts, %object
 1056              		.size	enc_counts, 4
 1057              	enc_counts:
 1058 0000 10270000 		.word	10000
 1059              		.text
 1060              	.Letext0:
 1061              		.file 3 "/usr/local/gcc_arm/gcc-arm-none-eabi-6-2017-q2-update/arm-none-eabi/include/machine/_defa
 1062              		.file 4 "/usr/local/gcc_arm/gcc-arm-none-eabi-6-2017-q2-update/arm-none-eabi/include/sys/_stdint.h
 1063              		.file 5 "/usr/local/gcc_arm/gcc-arm-none-eabi-6-2017-q2-update/lib/gcc/arm-none-eabi/6.3.1/include
 1064              		.file 6 "ChibiOS_3.0.2/os/rt/ports/ARMCMx/compilers/GCC/chtypes.h"
 1065              		.file 7 "ChibiOS_3.0.2/os/rt/include/chsystypes.h"
 1066              		.file 8 "ChibiOS_3.0.2/os/rt/include/chschd.h"
 1067              		.file 9 "ChibiOS_3.0.2/os/ext/CMSIS/include/core_cm4.h"
 1068              		.file 10 "ChibiOS_3.0.2/os/ext/CMSIS/ST/system_stm32f4xx.h"
 1069              		.file 11 "ChibiOS_3.0.2/os/ext/CMSIS/ST/stm32f407xx.h"
 1070              		.file 12 "ChibiOS_3.0.2/os/ext/CMSIS/ST/stm32f4xx.h"
 1071              		.file 13 "ChibiOS_3.0.2/os/rt/ports/ARMCMx/chcore.h"
 1072              		.file 14 "ChibiOS_3.0.2/os/rt/ports/ARMCMx/chcore_v7m.h"
 1073              		.file 15 "ChibiOS_3.0.2/os/rt/include/chtm.h"
 1074              		.file 16 "ChibiOS_3.0.2/os/rt/include/chsem.h"
 1075              		.file 17 "ChibiOS_3.0.2/os/rt/include/chmtx.h"
 1076              		.file 18 "ChibiOS_3.0.2/os/rt/include/chregistry.h"
 1077              		.file 19 "ChibiOS_3.0.2/os/rt/include/chevents.h"
 1078              		.file 20 "ChibiOS_3.0.2/os/rt/include/chqueues.h"
 1079              		.file 21 "conf_general.h"
 1080              		.file 22 "ChibiOS_3.0.2/os/hal/ports/STM32/STM32F4xx/stm32_dma.h"
 1081              		.file 23 "ChibiOS_3.0.2/os/hal/ports/STM32/LLD/GPIOv2/pal_lld.h"
 1082              		.file 24 "ChibiOS_3.0.2/os/hal/include/can.h"
 1083              		.file 25 "ChibiOS_3.0.2/os/hal/ports/STM32/LLD/can_lld.h"
ARM GAS  /var/tmp//ccSbO5co.s 			page 20


 1084              		.file 26 "ChibiOS_3.0.2/os/hal/include/i2c.h"
 1085              		.file 27 "ChibiOS_3.0.2/os/hal/ports/STM32/LLD/I2Cv1/i2c_lld.h"
 1086              		.file 28 "ChibiOS_3.0.2/os/hal/include/icu.h"
 1087              		.file 29 "ChibiOS_3.0.2/os/hal/ports/STM32/LLD/TIMv1/icu_lld.h"
 1088              		.file 30 "ChibiOS_3.0.2/os/hal/ports/STM32/LLD/TIMv1/stm32_tim.h"
 1089              		.file 31 "ChibiOS_3.0.2/os/hal/include/spi.h"
 1090              		.file 32 "ChibiOS_3.0.2/os/hal/ports/STM32/LLD/SPIv1/spi_lld.h"
 1091              		.file 33 "ChibiOS_3.0.2/os/hal/include/uart.h"
 1092              		.file 34 "ChibiOS_3.0.2/os/hal/ports/STM32/LLD/USARTv1/uart_lld.h"
 1093              		.file 35 "ChibiOS_3.0.2/os/hal/include/usb.h"
 1094              		.file 36 "ChibiOS_3.0.2/os/hal/ports/STM32/LLD/OTGv1/usb_lld.h"
 1095              		.file 37 "ChibiOS_3.0.2/os/hal/ports/STM32/LLD/OTGv1/stm32_otg.h"
 1096              		.file 38 "ChibiOS_3.0.2/ext/stdperiph_stm32f4/inc/stm32f4xx_exti.h"
 1097              		.file 39 "ChibiOS_3.0.2/ext/stdperiph_stm32f4/inc/stm32f4xx_tim.h"
 1098              		.file 40 "utils.h"
 1099              		.file 41 "ChibiOS_3.0.2/ext/stdperiph_stm32f4/inc/stm32f4xx_rcc.h"
 1100              		.file 42 "ChibiOS_3.0.2/os/hal/ports/common/ARMCMx/nvic.h"
 1101              		.file 43 "ChibiOS_3.0.2/ext/stdperiph_stm32f4/inc/stm32f4xx_syscfg.h"