ARM GAS  C:\Users\Grillmo\AppData\Local\Temp\ccn8gyob.s 			page 1


   1              		.cpu cortex-m4
   2              		.eabi_attribute 27, 1
   3              		.eabi_attribute 28, 1
   4              		.eabi_attribute 20, 1
   5              		.eabi_attribute 21, 1
   6              		.eabi_attribute 23, 3
   7              		.eabi_attribute 24, 1
   8              		.eabi_attribute 25, 1
   9              		.eabi_attribute 26, 1
  10              		.eabi_attribute 30, 2
  11              		.eabi_attribute 34, 1
  12              		.eabi_attribute 18, 4
  13              		.file	"flash_helper.c"
  14              		.text
  15              	.Ltext0:
  16              		.cfi_sections	.debug_frame
  17              		.section	.text.flash_helper_erase_new_app,"ax",%progbits
  18              		.align	1
  19              		.p2align 4,,15
  20              		.global	flash_helper_erase_new_app
  21              		.syntax unified
  22              		.thumb
  23              		.thumb_func
  24              		.fpu fpv4-sp-d16
  25              		.type	flash_helper_erase_new_app, %function
  26              	flash_helper_erase_new_app:
  27              	.LFB256:
  28              		.file 1 "flash_helper.c"
  29              		.loc 1 82 0
  30              		.cfi_startproc
  31              		@ args = 0, pretend = 0, frame = 0
  32              		@ frame_needed = 0, uses_anonymous_args = 0
  33              	.LVL0:
  34 0000 10B5     		push	{r4, lr}
  35              		.cfi_def_cfa_offset 8
  36              		.cfi_offset 4, -8
  37              		.cfi_offset 14, -4
  38              		.loc 1 82 0
  39 0002 0446     		mov	r4, r0
  40              		.loc 1 83 0
  41 0004 FFF7FEFF 		bl	FLASH_Unlock
  42              	.LVL1:
  43              		.loc 1 84 0
  44 0008 F220     		movs	r0, #242
  45 000a FFF7FEFF 		bl	FLASH_ClearFlag
  46              	.LVL2:
  47              		.loc 1 89 0
  48 000e FFF7FEFF 		bl	mc_interface_unlock
  49              	.LVL3:
  50              		.loc 1 90 0
  51 0012 FFF7FEFF 		bl	mc_interface_release_motor
  52              	.LVL4:
  53              		.loc 1 91 0
  54 0016 FFF7FEFF 		bl	utils_sys_lock_cnt
  55              	.LVL5:
  56              		.loc 1 92 0
  57 001a 0021     		movs	r1, #0
ARM GAS  C:\Users\Grillmo\AppData\Local\Temp\ccn8gyob.s 			page 2


  58 001c 4FF40060 		mov	r0, #2048
  59 0020 FFF7FEFF 		bl	RCC_APB1PeriphClockCmd
  60              	.LVL6:
  61              		.loc 1 87 0
  62 0024 04F10064 		add	r4, r4, #134217728
  63              	.LVL7:
  64              	.LBB19:
  65              		.loc 1 95 0
  66 0028 144B     		ldr	r3, .L11
  67              	.LBE19:
  68              		.loc 1 87 0
  69 002a 04F50024 		add	r4, r4, #524288
  70              	.LVL8:
  71              	.LBB23:
  72              		.loc 1 95 0
  73 002e 9C42     		cmp	r4, r3
  74 0030 1AD9     		bls	.L2
  75              	.LBB20:
  76              		.loc 1 96 0
  77 0032 0221     		movs	r1, #2
  78 0034 4020     		movs	r0, #64
  79 0036 FFF7FEFF 		bl	FLASH_EraseSector
  80              	.LVL9:
  81 003a 80B2     		uxth	r0, r0
  82              	.LVL10:
  83              		.loc 1 97 0
  84 003c 0928     		cmp	r0, #9
  85 003e 1CD1     		bne	.L5
  86              	.LVL11:
  87              	.LBE20:
  88              		.loc 1 95 0
  89 0040 0F4B     		ldr	r3, .L11+4
  90 0042 9C42     		cmp	r4, r3
  91 0044 10D9     		bls	.L2
  92              	.LBB21:
  93              		.loc 1 96 0
  94 0046 0221     		movs	r1, #2
  95 0048 4820     		movs	r0, #72
  96              	.LVL12:
  97 004a FFF7FEFF 		bl	FLASH_EraseSector
  98              	.LVL13:
  99 004e 80B2     		uxth	r0, r0
 100              	.LVL14:
 101              		.loc 1 97 0
 102 0050 0928     		cmp	r0, #9
 103 0052 12D1     		bne	.L5
 104              	.LVL15:
 105              	.LBE21:
 106              		.loc 1 95 0
 107 0054 0B4B     		ldr	r3, .L11+8
 108 0056 9C42     		cmp	r4, r3
 109 0058 06D9     		bls	.L2
 110              	.LBB22:
 111              		.loc 1 96 0
 112 005a 0221     		movs	r1, #2
 113 005c 5020     		movs	r0, #80
 114              	.LVL16:
ARM GAS  C:\Users\Grillmo\AppData\Local\Temp\ccn8gyob.s 			page 3


 115 005e FFF7FEFF 		bl	FLASH_EraseSector
 116              	.LVL17:
 117 0062 80B2     		uxth	r0, r0
 118              	.LVL18:
 119              		.loc 1 97 0
 120 0064 0928     		cmp	r0, #9
 121 0066 08D1     		bne	.L5
 122              	.LVL19:
 123              	.L2:
 124              	.LBE22:
 125              	.LBE23:
 126              		.loc 1 105 0
 127 0068 0121     		movs	r1, #1
 128 006a 4FF40060 		mov	r0, #2048
 129 006e FFF7FEFF 		bl	RCC_APB1PeriphClockCmd
 130              	.LVL20:
 131              		.loc 1 106 0
 132 0072 FFF7FEFF 		bl	utils_sys_unlock_cnt
 133              	.LVL21:
 134              		.loc 1 108 0
 135 0076 0920     		movs	r0, #9
 136 0078 10BD     		pop	{r4, pc}
 137              	.LVL22:
 138              	.L5:
 139              		.loc 1 109 0
 140 007a 10BD     		pop	{r4, pc}
 141              	.LVL23:
 142              	.L12:
 143              		.align	2
 144              	.L11:
 145 007c 00000808 		.word	134742016
 146 0080 00000A08 		.word	134873088
 147 0084 00000C08 		.word	135004160
 148              		.cfi_endproc
 149              	.LFE256:
 150              		.size	flash_helper_erase_new_app, .-flash_helper_erase_new_app
 151              		.section	.text.flash_helper_write_new_app_data,"ax",%progbits
 152              		.align	1
 153              		.p2align 4,,15
 154              		.global	flash_helper_write_new_app_data
 155              		.syntax unified
 156              		.thumb
 157              		.thumb_func
 158              		.fpu fpv4-sp-d16
 159              		.type	flash_helper_write_new_app_data, %function
 160              	flash_helper_write_new_app_data:
 161              	.LFB257:
 162              		.loc 1 111 0
 163              		.cfi_startproc
 164              		@ args = 0, pretend = 0, frame = 0
 165              		@ frame_needed = 0, uses_anonymous_args = 0
 166              	.LVL24:
 167 0000 F8B5     		push	{r3, r4, r5, r6, r7, lr}
 168              		.cfi_def_cfa_offset 24
 169              		.cfi_offset 3, -24
 170              		.cfi_offset 4, -20
 171              		.cfi_offset 5, -16
ARM GAS  C:\Users\Grillmo\AppData\Local\Temp\ccn8gyob.s 			page 4


 172              		.cfi_offset 6, -12
 173              		.cfi_offset 7, -8
 174              		.cfi_offset 14, -4
 175              		.loc 1 111 0
 176 0002 0546     		mov	r5, r0
 177              		.loc 1 112 0
 178 0004 F220     		movs	r0, #242
 179              	.LVL25:
 180              		.loc 1 111 0
 181 0006 0E46     		mov	r6, r1
 182 0008 1746     		mov	r7, r2
 183              		.loc 1 112 0
 184 000a FFF7FEFF 		bl	FLASH_ClearFlag
 185              	.LVL26:
 186              		.loc 1 115 0
 187 000e FFF7FEFF 		bl	mc_interface_unlock
 188              	.LVL27:
 189              		.loc 1 116 0
 190 0012 FFF7FEFF 		bl	mc_interface_release_motor
 191              	.LVL28:
 192              		.loc 1 117 0
 193 0016 FFF7FEFF 		bl	utils_sys_lock_cnt
 194              	.LVL29:
 195              		.loc 1 118 0
 196 001a 0021     		movs	r1, #0
 197 001c 4FF40060 		mov	r0, #2048
 198 0020 FFF7FEFF 		bl	RCC_APB1PeriphClockCmd
 199              	.LVL30:
 200              	.LBB24:
 201              		.loc 1 120 0
 202 0024 97B1     		cbz	r7, .L17
 203 0026 05F10065 		add	r5, r5, #134217728
 204              	.LVL31:
 205 002a 3446     		mov	r4, r6
 206 002c 05F50025 		add	r5, r5, #524288
 207              	.LVL32:
 208 0030 3E44     		add	r6, r6, r7
 209              	.LVL33:
 210 0032 2D1B     		subs	r5, r5, r4
 211              	.LVL34:
 212 0034 01E0     		b	.L16
 213              	.LVL35:
 214              	.L20:
 215              		.loc 1 120 0 is_stmt 0 discriminator 2
 216 0036 B442     		cmp	r4, r6
 217 0038 08D0     		beq	.L17
 218              	.LVL36:
 219              	.L16:
 220 003a 2819     		adds	r0, r5, r4
 221              	.LBB25:
 222              		.loc 1 121 0 is_stmt 1
 223 003c 14F8011B 		ldrb	r1, [r4], #1	@ zero_extendqisi2
 224              	.LVL37:
 225 0040 FFF7FEFF 		bl	FLASH_ProgramByte
 226              	.LVL38:
 227 0044 80B2     		uxth	r0, r0
 228              	.LVL39:
ARM GAS  C:\Users\Grillmo\AppData\Local\Temp\ccn8gyob.s 			page 5


 229              		.loc 1 122 0
 230 0046 0928     		cmp	r0, #9
 231 0048 F5D0     		beq	.L20
 232              	.LBE25:
 233              	.LBE24:
 234              		.loc 1 131 0
 235 004a F8BD     		pop	{r3, r4, r5, r6, r7, pc}
 236              	.LVL40:
 237              	.L17:
 238              		.loc 1 127 0
 239 004c 0121     		movs	r1, #1
 240 004e 4FF40060 		mov	r0, #2048
 241 0052 FFF7FEFF 		bl	RCC_APB1PeriphClockCmd
 242              	.LVL41:
 243              		.loc 1 128 0
 244 0056 FFF7FEFF 		bl	utils_sys_unlock_cnt
 245              	.LVL42:
 246              		.loc 1 130 0
 247 005a 0920     		movs	r0, #9
 248 005c F8BD     		pop	{r3, r4, r5, r6, r7, pc}
 249              		.cfi_endproc
 250              	.LFE257:
 251              		.size	flash_helper_write_new_app_data, .-flash_helper_write_new_app_data
 252 005e 00BF     		.section	.text.flash_helper_jump_to_bootloader,"ax",%progbits
 253              		.align	1
 254              		.p2align 4,,15
 255              		.global	flash_helper_jump_to_bootloader
 256              		.syntax unified
 257              		.thumb
 258              		.thumb_func
 259              		.fpu fpv4-sp-d16
 260              		.type	flash_helper_jump_to_bootloader, %function
 261              	flash_helper_jump_to_bootloader:
 262              	.LFB258:
 263              		.loc 1 136 0
 264              		.cfi_startproc
 265              		@ args = 0, pretend = 0, frame = 0
 266              		@ frame_needed = 1, uses_anonymous_args = 0
 267 0000 80B5     		push	{r7, lr}
 268              		.cfi_def_cfa_offset 8
 269              		.cfi_offset 7, -8
 270              		.cfi_offset 14, -4
 271 0002 00AF     		add	r7, sp, #0
 272              		.cfi_def_cfa_register 7
 273              		.loc 1 139 0
 274 0004 FFF7FEFF 		bl	mc_interface_unlock
 275              	.LVL43:
 276              		.loc 1 140 0
 277 0008 FFF7FEFF 		bl	mc_interface_release_motor
 278              	.LVL44:
 279              		.loc 1 141 0
 280 000c 1A48     		ldr	r0, .L25
 281 000e 026D     		ldr	r2, [r0, #80]
 282 0010 936B     		ldr	r3, [r2, #56]
 283 0012 23F40023 		bic	r3, r3, #524288
 284 0016 9363     		str	r3, [r2, #56]
 285              		.loc 1 142 0
ARM GAS  C:\Users\Grillmo\AppData\Local\Temp\ccn8gyob.s 			page 6


 286 0018 FFF7FEFF 		bl	usbStop
 287              	.LVL45:
 288              		.loc 1 144 0
 289 001c 1748     		ldr	r0, .L25+4
 290 001e FFF7FEFF 		bl	uartStop
 291              	.LVL46:
 292              		.loc 1 145 0
 293 0022 0022     		movs	r2, #0
 294 0024 4021     		movs	r1, #64
 295 0026 1648     		ldr	r0, .L25+8
 296 0028 FFF7FEFF 		bl	_pal_lld_setgroupmode
 297              	.LVL47:
 298              		.loc 1 146 0
 299 002c 0022     		movs	r2, #0
 300 002e 8021     		movs	r1, #128
 301 0030 1348     		ldr	r0, .L25+8
 302 0032 FFF7FEFF 		bl	_pal_lld_setgroupmode
 303              	.LVL48:
 304              		.loc 1 149 0
 305 0036 0021     		movs	r1, #0
 306 0038 4FF40060 		mov	r0, #2048
 307 003c FFF7FEFF 		bl	RCC_APB1PeriphClockCmd
 308              	.LVL49:
 309              	.LBB26:
 310              	.LBB27:
 311              	.LBB28:
 312              	.LBB29:
 313              		.file 2 "ChibiOS_3.0.2/os/ext/CMSIS/include/core_cmFunc.h"
 314              		.loc 2 342 0
 315              		.syntax unified
 316              	@ 342 "ChibiOS_3.0.2/os/ext/CMSIS/include/core_cmFunc.h" 1
 317 0040 72B6     		cpsid i
 318              	@ 0 "" 2
 319              	.LVL50:
 320              		.thumb
 321              		.syntax unified
 322              	.LBE29:
 323              	.LBE28:
 324              	.LBE27:
 325              	.LBE26:
 326              		.loc 1 160 0
 327 0042 104A     		ldr	r2, .L25+12
 328              		.loc 1 166 0
 329 0044 104B     		ldr	r3, .L25+16
 330              		.loc 1 160 0
 331 0046 1068     		ldr	r0, [r2]
 332              	.LVL51:
 333              		.loc 1 166 0
 334 0048 4FF00062 		mov	r2, #134217728
 335 004c 5A60     		str	r2, [r3, #4]
 336              	.LVL52:
 337              	.LBB30:
 338              		.loc 1 169 0
 339 004e 0022     		movs	r2, #0
 340              	.LVL53:
 341              	.L22:
 342 0050 9300     		lsls	r3, r2, #2
ARM GAS  C:\Users\Grillmo\AppData\Local\Temp\ccn8gyob.s 			page 7


 343 0052 03F16043 		add	r3, r3, #-536870912
 344 0056 03F56143 		add	r3, r3, #57600
 345              		.loc 1 169 0 is_stmt 0 discriminator 3
 346 005a 0132     		adds	r2, r2, #1
 347              	.LVL54:
 348              		.loc 1 170 0 is_stmt 1 discriminator 3
 349 005c D3F80012 		ldr	r1, [r3, #512]
 350 0060 C3F88010 		str	r1, [r3, #128]
 351              		.loc 1 169 0 discriminator 3
 352 0064 082A     		cmp	r2, #8
 353 0066 F3D1     		bne	.L22
 354              	.LBE30:
 355              		.loc 1 174 0
 356 0068 084B     		ldr	r3, .L25+20
 357 006a 1B68     		ldr	r3, [r3]
 358              	.LVL55:
 359              	.LBB31:
 360              	.LBB32:
 361              		.loc 2 468 0
 362              		.syntax unified
 363              	@ 468 "ChibiOS_3.0.2/os/ext/CMSIS/include/core_cmFunc.h" 1
 364 006c 83F30888 		MSR msp, r3
 365              	
 366              	@ 0 "" 2
 367              	.LVL56:
 368              		.thumb
 369              		.syntax unified
 370              	.LBE32:
 371              	.LBE31:
 372              		.loc 1 178 0
 373 0070 BD46     		mov	sp, r7
 374              		.cfi_def_cfa_register 13
 375              		@ sp needed
 376 0072 BDE88040 		pop	{r7, lr}
 377              		.cfi_restore 14
 378              		.cfi_restore 7
 379              		.cfi_def_cfa_offset 0
 380              		.loc 1 177 0
 381 0076 0047     		bx	r0	@ indirect register sibling call
 382              	.LVL57:
 383              	.L26:
 384              		.align	2
 385              	.L25:
 386 0078 00000000 		.word	USBD1
 387 007c 00000000 		.word	UARTD6
 388 0080 00080240 		.word	1073874944
 389 0084 04000E08 		.word	135135236
 390 0088 00ED00E0 		.word	-536810240
 391 008c 00000E08 		.word	135135232
 392              		.cfi_endproc
 393              	.LFE258:
 394              		.size	flash_helper_jump_to_bootloader, .-flash_helper_jump_to_bootloader
 395              		.section	.text.flash_helper_get_sector_address,"ax",%progbits
 396              		.align	1
 397              		.p2align 4,,15
 398              		.global	flash_helper_get_sector_address
 399              		.syntax unified
ARM GAS  C:\Users\Grillmo\AppData\Local\Temp\ccn8gyob.s 			page 8


 400              		.thumb
 401              		.thumb_func
 402              		.fpu fpv4-sp-d16
 403              		.type	flash_helper_get_sector_address, %function
 404              	flash_helper_get_sector_address:
 405              	.LFB259:
 406              		.loc 1 180 0
 407              		.cfi_startproc
 408              		@ args = 0, pretend = 0, frame = 0
 409              		@ frame_needed = 0, uses_anonymous_args = 0
 410              		@ link register save eliminated.
 411              	.LVL58:
 412              		.loc 1 180 0
 413 0000 0022     		movs	r2, #0
 414 0002 0849     		ldr	r1, .L35
 415              	.LBB33:
 416              		.loc 1 183 0
 417 0004 1346     		mov	r3, r2
 418 0006 01E0     		b	.L30
 419              	.LVL59:
 420              	.L34:
 421 0008 31F8022F 		ldrh	r2, [r1, #2]!
 422              	.LVL60:
 423              	.L30:
 424              		.loc 1 184 0
 425 000c 8242     		cmp	r2, r0
 426 000e 04D0     		beq	.L33
 427              		.loc 1 183 0 discriminator 2
 428 0010 0133     		adds	r3, r3, #1
 429              	.LVL61:
 430 0012 0C2B     		cmp	r3, #12
 431 0014 F8D1     		bne	.L34
 432              	.LBE33:
 433              		.loc 1 181 0
 434 0016 0020     		movs	r0, #0
 435              	.LVL62:
 436              		.loc 1 191 0
 437 0018 7047     		bx	lr
 438              	.LVL63:
 439              	.L33:
 440              	.LBB34:
 441              		.loc 1 185 0
 442 001a 034A     		ldr	r2, .L35+4
 443 001c 52F82300 		ldr	r0, [r2, r3, lsl #2]
 444              	.LVL64:
 445              		.loc 1 186 0
 446 0020 7047     		bx	lr
 447              	.L36:
 448 0022 00BF     		.align	2
 449              	.L35:
 450 0024 00000000 		.word	.LANCHOR0
 451 0028 00000000 		.word	.LANCHOR1
 452              	.LBE34:
 453              		.cfi_endproc
 454              	.LFE259:
 455              		.size	flash_helper_get_sector_address, .-flash_helper_get_sector_address
 456              		.section	.rodata.flash_addr,"a",%progbits
ARM GAS  C:\Users\Grillmo\AppData\Local\Temp\ccn8gyob.s 			page 9


 457              		.align	2
 458              		.set	.LANCHOR1,. + 0
 459              		.type	flash_addr, %object
 460              		.size	flash_addr, 48
 461              	flash_addr:
 462 0000 00000008 		.word	134217728
 463 0004 00400008 		.word	134234112
 464 0008 00800008 		.word	134250496
 465 000c 00C00008 		.word	134266880
 466 0010 00000108 		.word	134283264
 467 0014 00000208 		.word	134348800
 468 0018 00000408 		.word	134479872
 469 001c 00000608 		.word	134610944
 470 0020 00000808 		.word	134742016
 471 0024 00000A08 		.word	134873088
 472 0028 00000C08 		.word	135004160
 473 002c 00000E08 		.word	135135232
 474              		.section	.rodata.flash_sector,"a",%progbits
 475              		.align	2
 476              		.set	.LANCHOR0,. + 0
 477              		.type	flash_sector, %object
 478              		.size	flash_sector, 24
 479              	flash_sector:
 480 0000 0000     		.short	0
 481 0002 0800     		.short	8
 482 0004 1000     		.short	16
 483 0006 1800     		.short	24
 484 0008 2000     		.short	32
 485 000a 2800     		.short	40
 486 000c 3000     		.short	48
 487 000e 3800     		.short	56
 488 0010 4000     		.short	64
 489 0012 4800     		.short	72
 490 0014 5000     		.short	80
 491 0016 5800     		.short	88
 492              		.text
 493              	.Letext0:
 494              		.file 3 "c:\\chibistudio\\tools\\gnu tools arm embedded\\6.3 2017q1\\arm-none-eabi\\include\\machi
 495              		.file 4 "c:\\chibistudio\\tools\\gnu tools arm embedded\\6.3 2017q1\\arm-none-eabi\\include\\sys\\
 496              		.file 5 "c:\\chibistudio\\tools\\gnu tools arm embedded\\6.3 2017q1\\lib\\gcc\\arm-none-eabi\\6.3.
 497              		.file 6 "ChibiOS_3.0.2/os/rt/ports/ARMCMx/compilers/GCC/chtypes.h"
 498              		.file 7 "ChibiOS_3.0.2/os/rt/include/chsystypes.h"
 499              		.file 8 "ChibiOS_3.0.2/os/rt/include/chschd.h"
 500              		.file 9 "ChibiOS_3.0.2/os/ext/CMSIS/include/core_cm4.h"
 501              		.file 10 "ChibiOS_3.0.2/os/ext/CMSIS/ST/system_stm32f4xx.h"
 502              		.file 11 "ChibiOS_3.0.2/os/ext/CMSIS/ST/stm32f407xx.h"
 503              		.file 12 "ChibiOS_3.0.2/os/rt/ports/ARMCMx/chcore.h"
 504              		.file 13 "ChibiOS_3.0.2/os/rt/ports/ARMCMx/chcore_v7m.h"
 505              		.file 14 "ChibiOS_3.0.2/os/rt/include/chtm.h"
 506              		.file 15 "ChibiOS_3.0.2/os/rt/include/chsem.h"
 507              		.file 16 "ChibiOS_3.0.2/os/rt/include/chmtx.h"
 508              		.file 17 "ChibiOS_3.0.2/os/rt/include/chregistry.h"
 509              		.file 18 "ChibiOS_3.0.2/os/rt/include/chevents.h"
 510              		.file 19 "ChibiOS_3.0.2/os/rt/include/chqueues.h"
 511              		.file 20 "conf_general.h"
 512              		.file 21 "ChibiOS_3.0.2/os/hal/ports/STM32/STM32F4xx/stm32_dma.h"
 513              		.file 22 "ChibiOS_3.0.2/os/hal/ports/STM32/LLD/GPIOv2/pal_lld.h"
ARM GAS  C:\Users\Grillmo\AppData\Local\Temp\ccn8gyob.s 			page 10


 514              		.file 23 "ChibiOS_3.0.2/os/ext/CMSIS/ST/stm32f4xx.h"
 515              		.file 24 "ChibiOS_3.0.2/os/hal/include/can.h"
 516              		.file 25 "ChibiOS_3.0.2/os/hal/ports/STM32/LLD/can_lld.h"
 517              		.file 26 "ChibiOS_3.0.2/os/hal/include/i2c.h"
 518              		.file 27 "ChibiOS_3.0.2/os/hal/ports/STM32/LLD/I2Cv1/i2c_lld.h"
 519              		.file 28 "ChibiOS_3.0.2/os/hal/include/icu.h"
 520              		.file 29 "ChibiOS_3.0.2/os/hal/ports/STM32/LLD/TIMv1/icu_lld.h"
 521              		.file 30 "ChibiOS_3.0.2/os/hal/ports/STM32/LLD/TIMv1/stm32_tim.h"
 522              		.file 31 "ChibiOS_3.0.2/os/hal/include/spi.h"
 523              		.file 32 "ChibiOS_3.0.2/os/hal/ports/STM32/LLD/SPIv1/spi_lld.h"
 524              		.file 33 "ChibiOS_3.0.2/os/hal/include/uart.h"
 525              		.file 34 "ChibiOS_3.0.2/os/hal/ports/STM32/LLD/USARTv1/uart_lld.h"
 526              		.file 35 "ChibiOS_3.0.2/os/hal/include/usb.h"
 527              		.file 36 "ChibiOS_3.0.2/os/hal/ports/STM32/LLD/OTGv1/usb_lld.h"
 528              		.file 37 "ChibiOS_3.0.2/os/hal/ports/STM32/LLD/OTGv1/stm32_otg.h"
 529              		.file 38 "ChibiOS_3.0.2/ext/stdperiph_stm32f4/inc/stm32f4xx_flash.h"
 530              		.file 39 "mc_interface.h"
 531              		.file 40 "c:\\chibistudio\\tools\\gnu tools arm embedded\\6.3 2017q1\\arm-none-eabi\\include\\sys\
 532              		.file 41 "c:\\chibistudio\\tools\\gnu tools arm embedded\\6.3 2017q1\\arm-none-eabi\\include\\sys\
 533              		.file 42 "c:\\chibistudio\\tools\\gnu tools arm embedded\\6.3 2017q1\\arm-none-eabi\\include\\sys\
 534              		.file 43 "ChibiOS_3.0.2/os/rt/include/chsys.h"
 535              		.file 44 "ChibiOS_3.0.2/ext/stdperiph_stm32f4/inc/stm32f4xx_rcc.h"
 536              		.file 45 "utils.h"