ARM GAS  C:\Users\Grillmo\AppData\Local\Temp\ccz1HKIs.s 			page 1


   1              		.cpu cortex-m4
   2              		.eabi_attribute 27, 1
   3              		.eabi_attribute 28, 1
   4              		.eabi_attribute 20, 1
   5              		.eabi_attribute 21, 1
   6              		.eabi_attribute 23, 3
   7              		.eabi_attribute 24, 1
   8              		.eabi_attribute 25, 1
   9              		.eabi_attribute 26, 1
  10              		.eabi_attribute 30, 2
  11              		.eabi_attribute 34, 1
  12              		.eabi_attribute 18, 4
  13              		.file	"hal.c"
  14              		.text
  15              	.Ltext0:
  16              		.cfi_sections	.debug_frame
  17              		.section	.text.halInit,"ax",%progbits
  18              		.align	1
  19              		.p2align 4,,15
  20              		.global	halInit
  21              		.syntax unified
  22              		.thumb
  23              		.thumb_func
  24              		.fpu fpv4-sp-d16
  25              		.type	halInit, %function
  26              	halInit:
  27              	.LFB256:
  28              		.file 1 "ChibiOS_3.0.2/os/hal/src/hal.c"
  29              		.loc 1 56 0
  30              		.cfi_startproc
  31              		@ args = 0, pretend = 0, frame = 0
  32              		@ frame_needed = 0, uses_anonymous_args = 0
  33 0000 08B5     		push	{r3, lr}
  34              		.cfi_def_cfa_offset 8
  35              		.cfi_offset 3, -8
  36              		.cfi_offset 14, -4
  37              		.loc 1 62 0
  38 0002 FFF7FEFF 		bl	hal_lld_init
  39              	.LVL0:
  40              		.loc 1 65 0
  41 0006 0B48     		ldr	r0, .L3
  42 0008 FFF7FEFF 		bl	_pal_lld_init
  43              	.LVL1:
  44              		.loc 1 71 0
  45 000c FFF7FEFF 		bl	canInit
  46              	.LVL2:
  47              		.loc 1 83 0
  48 0010 FFF7FEFF 		bl	i2cInit
  49              	.LVL3:
  50              		.loc 1 89 0
  51 0014 FFF7FEFF 		bl	icuInit
  52              	.LVL4:
  53              		.loc 1 104 0
  54 0018 FFF7FEFF 		bl	spiInit
  55              	.LVL5:
  56              		.loc 1 107 0
  57 001c FFF7FEFF 		bl	uartInit
ARM GAS  C:\Users\Grillmo\AppData\Local\Temp\ccz1HKIs.s 			page 2


  58              	.LVL6:
  59              		.loc 1 110 0
  60 0020 FFF7FEFF 		bl	usbInit
  61              	.LVL7:
  62              		.loc 1 116 0
  63 0024 FFF7FEFF 		bl	sduInit
  64              	.LVL8:
  65              		.loc 1 130 0
  66 0028 FFF7FEFF 		bl	boardInit
  67              	.LVL9:
  68              		.loc 1 139 0
  69 002c BDE80840 		pop	{r3, lr}
  70              		.cfi_restore 14
  71              		.cfi_restore 3
  72              		.cfi_def_cfa_offset 0
  73              		.loc 1 137 0
  74 0030 FFF7FEBF 		b	stInit
  75              	.LVL10:
  76              	.L4:
  77              		.align	2
  78              	.L3:
  79 0034 00000000 		.word	pal_default_config
  80              		.cfi_endproc
  81              	.LFE256:
  82              		.size	halInit, .-halInit
  83              		.text
  84              	.Letext0:
  85              		.file 2 "c:\\chibistudio\\tools\\gnu tools arm embedded\\6.3 2017q1\\lib\\gcc\\arm-none-eabi\\6.3.
  86              		.file 3 "c:\\chibistudio\\tools\\gnu tools arm embedded\\6.3 2017q1\\arm-none-eabi\\include\\machi
  87              		.file 4 "c:\\chibistudio\\tools\\gnu tools arm embedded\\6.3 2017q1\\arm-none-eabi\\include\\sys\\
  88              		.file 5 "ChibiOS_3.0.2/os/rt/ports/ARMCMx/compilers/GCC/chtypes.h"
  89              		.file 6 "ChibiOS_3.0.2/os/rt/include/chsystypes.h"
  90              		.file 7 "ChibiOS_3.0.2/os/rt/include/chschd.h"
  91              		.file 8 "ChibiOS_3.0.2/os/ext/CMSIS/include/core_cm4.h"
  92              		.file 9 "ChibiOS_3.0.2/os/ext/CMSIS/ST/system_stm32f4xx.h"
  93              		.file 10 "ChibiOS_3.0.2/os/ext/CMSIS/ST/stm32f407xx.h"
  94              		.file 11 "ChibiOS_3.0.2/os/rt/ports/ARMCMx/chcore.h"
  95              		.file 12 "ChibiOS_3.0.2/os/rt/ports/ARMCMx/chcore_v7m.h"
  96              		.file 13 "ChibiOS_3.0.2/os/rt/include/chtm.h"
  97              		.file 14 "ChibiOS_3.0.2/os/rt/include/chsem.h"
  98              		.file 15 "ChibiOS_3.0.2/os/rt/include/chmtx.h"
  99              		.file 16 "ChibiOS_3.0.2/os/rt/include/chregistry.h"
 100              		.file 17 "ChibiOS_3.0.2/os/rt/include/chevents.h"
 101              		.file 18 "ChibiOS_3.0.2/os/rt/include/chqueues.h"
 102              		.file 19 "./conf_general.h"
 103              		.file 20 "ChibiOS_3.0.2/os/hal/ports/STM32/STM32F4xx/stm32_dma.h"
 104              		.file 21 "ChibiOS_3.0.2/os/hal/ports/STM32/LLD/GPIOv2/pal_lld.h"
 105              		.file 22 "ChibiOS_3.0.2/os/hal/include/can.h"
 106              		.file 23 "ChibiOS_3.0.2/os/hal/ports/STM32/LLD/can_lld.h"
 107              		.file 24 "ChibiOS_3.0.2/os/hal/include/i2c.h"
 108              		.file 25 "ChibiOS_3.0.2/os/hal/ports/STM32/LLD/I2Cv1/i2c_lld.h"
 109              		.file 26 "ChibiOS_3.0.2/os/hal/include/icu.h"
 110              		.file 27 "ChibiOS_3.0.2/os/hal/ports/STM32/LLD/TIMv1/icu_lld.h"
 111              		.file 28 "ChibiOS_3.0.2/os/hal/ports/STM32/LLD/TIMv1/stm32_tim.h"
 112              		.file 29 "ChibiOS_3.0.2/os/hal/include/spi.h"
 113              		.file 30 "ChibiOS_3.0.2/os/hal/ports/STM32/LLD/SPIv1/spi_lld.h"
 114              		.file 31 "ChibiOS_3.0.2/os/hal/include/uart.h"
ARM GAS  C:\Users\Grillmo\AppData\Local\Temp\ccz1HKIs.s 			page 3


 115              		.file 32 "ChibiOS_3.0.2/os/hal/ports/STM32/LLD/USARTv1/uart_lld.h"
 116              		.file 33 "ChibiOS_3.0.2/os/hal/include/usb.h"
 117              		.file 34 "ChibiOS_3.0.2/os/hal/ports/STM32/LLD/OTGv1/usb_lld.h"
 118              		.file 35 "ChibiOS_3.0.2/os/hal/ports/STM32/LLD/OTGv1/stm32_otg.h"
 119              		.file 36 "ChibiOS_3.0.2/os/hal/ports/STM32/STM32F4xx/hal_lld.h"
 120              		.file 37 "ChibiOS_3.0.2/os/hal/include/serial_usb.h"
 121              		.file 38 "./board.h"
 122              		.file 39 "ChibiOS_3.0.2/os/hal/include/st.h"
 123              		.file 40 "ChibiOS_3.0.2/os/hal/osal/rt/osal.h"