ARM GAS  /var/tmp//ccE12j3j.s 			page 1


   1              		.cpu cortex-m4
   2              		.eabi_attribute 27, 1
   3              		.eabi_attribute 28, 1
   4              		.eabi_attribute 20, 1
   5              		.eabi_attribute 21, 1
   6              		.eabi_attribute 23, 3
   7              		.eabi_attribute 24, 1
   8              		.eabi_attribute 25, 1
   9              		.eabi_attribute 26, 1
  10              		.eabi_attribute 30, 2
  11              		.eabi_attribute 34, 1
  12              		.eabi_attribute 18, 4
  13              		.file	"i2c.c"
  14              		.text
  15              	.Ltext0:
  16              		.cfi_sections	.debug_frame
  17              		.section	.text.i2cInit,"ax",%progbits
  18              		.align	1
  19              		.p2align 4,,15
  20              		.global	i2cInit
  21              		.syntax unified
  22              		.thumb
  23              		.thumb_func
  24              		.fpu fpv4-sp-d16
  25              		.type	i2cInit, %function
  26              	i2cInit:
  27              	.LFB256:
  28              		.file 1 "ChibiOS_3.0.2/os/hal/src/i2c.c"
  29              		.loc 1 59 0
  30              		.cfi_startproc
  31              		@ args = 0, pretend = 0, frame = 0
  32              		@ frame_needed = 0, uses_anonymous_args = 0
  33              		@ link register save eliminated.
  34              		.loc 1 61 0
  35 0000 FFF7FEBF 		b	i2c_lld_init
  36              	.LVL0:
  37              		.cfi_endproc
  38              	.LFE256:
  39              		.size	i2cInit, .-i2cInit
  40              		.section	.text.i2cObjectInit,"ax",%progbits
  41              		.align	1
  42              		.p2align 4,,15
  43              		.global	i2cObjectInit
  44              		.syntax unified
  45              		.thumb
  46              		.thumb_func
  47              		.fpu fpv4-sp-d16
  48              		.type	i2cObjectInit, %function
  49              	i2cObjectInit:
  50              	.LFB257:
  51              		.loc 1 71 0
  52              		.cfi_startproc
  53              		@ args = 0, pretend = 0, frame = 0
  54              		@ frame_needed = 0, uses_anonymous_args = 0
  55              		@ link register save eliminated.
  56              	.LVL1:
  57              		.loc 1 73 0
ARM GAS  /var/tmp//ccE12j3j.s 			page 2


  58 0000 0122     		movs	r2, #1
  59              		.loc 1 74 0
  60 0002 0023     		movs	r3, #0
  61              		.loc 1 73 0
  62 0004 0270     		strb	r2, [r0]
  63              		.loc 1 74 0
  64 0006 4360     		str	r3, [r0, #4]
  65              	.LVL2:
  66              	.LBB82:
  67              	.LBB83:
  68              		.file 2 "ChibiOS_3.0.2/os/hal/osal/rt/osal.h"
  69              		.loc 2 887 0
  70 0008 0C30     		adds	r0, r0, #12
  71              	.LVL3:
  72 000a FFF7FEBF 		b	chMtxObjectInit
  73              	.LVL4:
  74              	.LBE83:
  75              	.LBE82:
  76              		.cfi_endproc
  77              	.LFE257:
  78              		.size	i2cObjectInit, .-i2cObjectInit
  79 000e 00BF     		.section	.text.i2cStart,"ax",%progbits
  80              		.align	1
  81              		.p2align 4,,15
  82              		.global	i2cStart
  83              		.syntax unified
  84              		.thumb
  85              		.thumb_func
  86              		.fpu fpv4-sp-d16
  87              		.type	i2cStart, %function
  88              	i2cStart:
  89              	.LFB258:
  90              		.loc 1 93 0
  91              		.cfi_startproc
  92              		@ args = 0, pretend = 0, frame = 0
  93              		@ frame_needed = 0, uses_anonymous_args = 0
  94              	.LVL5:
  95 0000 10B5     		push	{r4, lr}
  96              		.cfi_def_cfa_offset 8
  97              		.cfi_offset 4, -8
  98              		.cfi_offset 14, -4
  99              	.LBB84:
 100              	.LBB85:
 101              	.LBB86:
 102              	.LBB87:
 103              	.LBB88:
 104              		.file 3 "ChibiOS_3.0.2/os/ext/CMSIS/include/core_cmFunc.h"
 105              		.loc 3 546 0
 106 0002 2023     		movs	r3, #32
 107              	.LBE88:
 108              	.LBE87:
 109              	.LBE86:
 110              	.LBE85:
 111              	.LBE84:
 112              		.loc 1 93 0
 113 0004 0446     		mov	r4, r0
 114              	.LBB93:
ARM GAS  /var/tmp//ccE12j3j.s 			page 3


 115              	.LBB92:
 116              	.LBB91:
 117              	.LBB90:
 118              	.LBB89:
 119              		.loc 3 546 0
 120              		.syntax unified
 121              	@ 546 "ChibiOS_3.0.2/os/ext/CMSIS/include/core_cmFunc.h" 1
 122 0006 83F31188 		MSR basepri, r3
 123              	@ 0 "" 2
 124              	.LVL6:
 125              		.thumb
 126              		.syntax unified
 127              	.LBE89:
 128              	.LBE90:
 129              	.LBE91:
 130              	.LBE92:
 131              	.LBE93:
 132              		.loc 1 100 0
 133 000a 4160     		str	r1, [r0, #4]
 134              		.loc 1 101 0
 135 000c FFF7FEFF 		bl	i2c_lld_start
 136              	.LVL7:
 137              		.loc 1 102 0
 138 0010 0223     		movs	r3, #2
 139 0012 2370     		strb	r3, [r4]
 140              	.LVL8:
 141              	.LBB94:
 142              	.LBB95:
 143              	.LBB96:
 144              	.LBB97:
 145              	.LBB98:
 146              	.LBB99:
 147              		.loc 3 546 0
 148 0014 0023     		movs	r3, #0
 149              		.syntax unified
 150              	@ 546 "ChibiOS_3.0.2/os/ext/CMSIS/include/core_cmFunc.h" 1
 151 0016 83F31188 		MSR basepri, r3
 152              	@ 0 "" 2
 153              	.LVL9:
 154              		.thumb
 155              		.syntax unified
 156 001a 10BD     		pop	{r4, pc}
 157              	.LBE99:
 158              	.LBE98:
 159              	.LBE97:
 160              	.LBE96:
 161              	.LBE95:
 162              	.LBE94:
 163              		.cfi_endproc
 164              	.LFE258:
 165              		.size	i2cStart, .-i2cStart
 166              		.section	.text.i2cStop,"ax",%progbits
 167              		.align	1
 168              		.p2align 4,,15
 169              		.global	i2cStop
 170              		.syntax unified
 171              		.thumb
ARM GAS  /var/tmp//ccE12j3j.s 			page 4


 172              		.thumb_func
 173              		.fpu fpv4-sp-d16
 174              		.type	i2cStop, %function
 175              	i2cStop:
 176              	.LFB259:
 177              		.loc 1 113 0
 178              		.cfi_startproc
 179              		@ args = 0, pretend = 0, frame = 0
 180              		@ frame_needed = 0, uses_anonymous_args = 0
 181              	.LVL10:
 182 0000 10B5     		push	{r4, lr}
 183              		.cfi_def_cfa_offset 8
 184              		.cfi_offset 4, -8
 185              		.cfi_offset 14, -4
 186              	.LBB100:
 187              	.LBB101:
 188              	.LBB102:
 189              	.LBB103:
 190              	.LBB104:
 191              		.loc 3 546 0
 192 0002 2023     		movs	r3, #32
 193              	.LBE104:
 194              	.LBE103:
 195              	.LBE102:
 196              	.LBE101:
 197              	.LBE100:
 198              		.loc 1 113 0
 199 0004 0446     		mov	r4, r0
 200              	.LBB109:
 201              	.LBB108:
 202              	.LBB107:
 203              	.LBB106:
 204              	.LBB105:
 205              		.loc 3 546 0
 206              		.syntax unified
 207              	@ 546 "ChibiOS_3.0.2/os/ext/CMSIS/include/core_cmFunc.h" 1
 208 0006 83F31188 		MSR basepri, r3
 209              	@ 0 "" 2
 210              	.LVL11:
 211              		.thumb
 212              		.syntax unified
 213              	.LBE105:
 214              	.LBE106:
 215              	.LBE107:
 216              	.LBE108:
 217              	.LBE109:
 218              		.loc 1 120 0
 219 000a FFF7FEFF 		bl	i2c_lld_stop
 220              	.LVL12:
 221              		.loc 1 121 0
 222 000e 0123     		movs	r3, #1
 223 0010 2370     		strb	r3, [r4]
 224              	.LVL13:
 225              	.LBB110:
 226              	.LBB111:
 227              	.LBB112:
 228              	.LBB113:
ARM GAS  /var/tmp//ccE12j3j.s 			page 5


 229              	.LBB114:
 230              	.LBB115:
 231              		.loc 3 546 0
 232 0012 0023     		movs	r3, #0
 233              		.syntax unified
 234              	@ 546 "ChibiOS_3.0.2/os/ext/CMSIS/include/core_cmFunc.h" 1
 235 0014 83F31188 		MSR basepri, r3
 236              	@ 0 "" 2
 237              	.LVL14:
 238              		.thumb
 239              		.syntax unified
 240 0018 10BD     		pop	{r4, pc}
 241              	.LBE115:
 242              	.LBE114:
 243              	.LBE113:
 244              	.LBE112:
 245              	.LBE111:
 246              	.LBE110:
 247              		.cfi_endproc
 248              	.LFE259:
 249              		.size	i2cStop, .-i2cStop
 250 001a 00BF     		.section	.text.i2cGetErrors,"ax",%progbits
 251              		.align	1
 252              		.p2align 4,,15
 253              		.global	i2cGetErrors
 254              		.syntax unified
 255              		.thumb
 256              		.thumb_func
 257              		.fpu fpv4-sp-d16
 258              		.type	i2cGetErrors, %function
 259              	i2cGetErrors:
 260              	.LFB260:
 261              		.loc 1 133 0
 262              		.cfi_startproc
 263              		@ args = 0, pretend = 0, frame = 0
 264              		@ frame_needed = 0, uses_anonymous_args = 0
 265              		@ link register save eliminated.
 266              	.LVL15:
 267              		.loc 1 138 0
 268 0000 8068     		ldr	r0, [r0, #8]
 269              	.LVL16:
 270 0002 7047     		bx	lr
 271              		.cfi_endproc
 272              	.LFE260:
 273              		.size	i2cGetErrors, .-i2cGetErrors
 274              		.section	.text.i2cMasterTransmitTimeout,"ax",%progbits
 275              		.align	1
 276              		.p2align 4,,15
 277              		.global	i2cMasterTransmitTimeout
 278              		.syntax unified
 279              		.thumb
 280              		.thumb_func
 281              		.fpu fpv4-sp-d16
 282              		.type	i2cMasterTransmitTimeout, %function
 283              	i2cMasterTransmitTimeout:
 284              	.LFB261:
 285              		.loc 1 172 0
ARM GAS  /var/tmp//ccE12j3j.s 			page 6


 286              		.cfi_startproc
 287              		@ args = 12, pretend = 0, frame = 0
 288              		@ frame_needed = 0, uses_anonymous_args = 0
 289              	.LVL17:
 290 0000 F0B5     		push	{r4, r5, r6, r7, lr}
 291              		.cfi_def_cfa_offset 20
 292              		.cfi_offset 4, -20
 293              		.cfi_offset 5, -16
 294              		.cfi_offset 6, -12
 295              		.cfi_offset 7, -8
 296              		.cfi_offset 14, -4
 297 0002 85B0     		sub	sp, sp, #20
 298              		.cfi_def_cfa_offset 40
 299              		.loc 1 172 0
 300 0004 0446     		mov	r4, r0
 301 0006 0B9E     		ldr	r6, [sp, #44]
 302 0008 0C9F     		ldr	r7, [sp, #48]
 303              	.LBB116:
 304              	.LBB117:
 305              	.LBB118:
 306              	.LBB119:
 307              	.LBB120:
 308              		.loc 3 546 0
 309 000a 4FF0200E 		mov	lr, #32
 310              		.syntax unified
 311              	@ 546 "ChibiOS_3.0.2/os/ext/CMSIS/include/core_cmFunc.h" 1
 312 000e 8EF31188 		MSR basepri, lr
 313              	@ 0 "" 2
 314              	.LVL18:
 315              		.thumb
 316              		.syntax unified
 317              	.LBE120:
 318              	.LBE119:
 319              	.LBE118:
 320              	.LBE117:
 321              	.LBE116:
 322              		.loc 1 184 0
 323 0012 4FF0030E 		mov	lr, #3
 324              		.loc 1 185 0
 325 0016 0196     		str	r6, [sp, #4]
 326              		.loc 1 183 0
 327 0018 0025     		movs	r5, #0
 328              		.loc 1 185 0
 329 001a 0A9E     		ldr	r6, [sp, #40]
 330 001c 0297     		str	r7, [sp, #8]
 331 001e 0096     		str	r6, [sp]
 332              		.loc 1 183 0
 333 0020 8560     		str	r5, [r0, #8]
 334              		.loc 1 184 0
 335 0022 80F800E0 		strb	lr, [r0]
 336              		.loc 1 185 0
 337 0026 FFF7FEFF 		bl	i2c_lld_master_transmit_timeout
 338              	.LVL19:
 339              		.loc 1 187 0
 340 002a 431C     		adds	r3, r0, #1
 341              		.loc 1 188 0
 342 002c 0CBF     		ite	eq
ARM GAS  /var/tmp//ccE12j3j.s 			page 7


 343 002e 0523     		moveq	r3, #5
 344              		.loc 1 191 0
 345 0030 0223     		movne	r3, #2
 346 0032 2370     		strb	r3, [r4]
 347              	.LVL20:
 348              	.LBB121:
 349              	.LBB122:
 350              	.LBB123:
 351              	.LBB124:
 352              	.LBB125:
 353              	.LBB126:
 354              		.loc 3 546 0
 355 0034 0023     		movs	r3, #0
 356              		.syntax unified
 357              	@ 546 "ChibiOS_3.0.2/os/ext/CMSIS/include/core_cmFunc.h" 1
 358 0036 83F31188 		MSR basepri, r3
 359              	@ 0 "" 2
 360              	.LVL21:
 361              		.thumb
 362              		.syntax unified
 363              	.LBE126:
 364              	.LBE125:
 365              	.LBE124:
 366              	.LBE123:
 367              	.LBE122:
 368              	.LBE121:
 369              		.loc 1 195 0
 370 003a 05B0     		add	sp, sp, #20
 371              		.cfi_def_cfa_offset 20
 372              		@ sp needed
 373 003c F0BD     		pop	{r4, r5, r6, r7, pc}
 374              		.cfi_endproc
 375              	.LFE261:
 376              		.size	i2cMasterTransmitTimeout, .-i2cMasterTransmitTimeout
 377 003e 00BF     		.section	.text.i2cMasterReceiveTimeout,"ax",%progbits
 378              		.align	1
 379              		.p2align 4,,15
 380              		.global	i2cMasterReceiveTimeout
 381              		.syntax unified
 382              		.thumb
 383              		.thumb_func
 384              		.fpu fpv4-sp-d16
 385              		.type	i2cMasterReceiveTimeout, %function
 386              	i2cMasterReceiveTimeout:
 387              	.LFB262:
 388              		.loc 1 221 0
 389              		.cfi_startproc
 390              		@ args = 4, pretend = 0, frame = 0
 391              		@ frame_needed = 0, uses_anonymous_args = 0
 392              	.LVL22:
 393 0000 F0B5     		push	{r4, r5, r6, r7, lr}
 394              		.cfi_def_cfa_offset 20
 395              		.cfi_offset 4, -20
 396              		.cfi_offset 5, -16
 397              		.cfi_offset 6, -12
 398              		.cfi_offset 7, -8
 399              		.cfi_offset 14, -4
ARM GAS  /var/tmp//ccE12j3j.s 			page 8


 400 0002 83B0     		sub	sp, sp, #12
 401              		.cfi_def_cfa_offset 32
 402              		.loc 1 221 0
 403 0004 0446     		mov	r4, r0
 404 0006 089F     		ldr	r7, [sp, #32]
 405              	.LBB127:
 406              	.LBB128:
 407              	.LBB129:
 408              	.LBB130:
 409              	.LBB131:
 410              		.loc 3 546 0
 411 0008 2025     		movs	r5, #32
 412              		.syntax unified
 413              	@ 546 "ChibiOS_3.0.2/os/ext/CMSIS/include/core_cmFunc.h" 1
 414 000a 85F31188 		MSR basepri, r5
 415              	@ 0 "" 2
 416              	.LVL23:
 417              		.thumb
 418              		.syntax unified
 419              	.LBE131:
 420              	.LBE130:
 421              	.LBE129:
 422              	.LBE128:
 423              	.LBE127:
 424              		.loc 1 232 0
 425 000e 0026     		movs	r6, #0
 426              		.loc 1 233 0
 427 0010 0425     		movs	r5, #4
 428              		.loc 1 234 0
 429 0012 0097     		str	r7, [sp]
 430              		.loc 1 232 0
 431 0014 8660     		str	r6, [r0, #8]
 432              		.loc 1 233 0
 433 0016 0570     		strb	r5, [r0]
 434              		.loc 1 234 0
 435 0018 FFF7FEFF 		bl	i2c_lld_master_receive_timeout
 436              	.LVL24:
 437              		.loc 1 235 0
 438 001c 431C     		adds	r3, r0, #1
 439              		.loc 1 236 0
 440 001e 0CBF     		ite	eq
 441 0020 0523     		moveq	r3, #5
 442              		.loc 1 239 0
 443 0022 0223     		movne	r3, #2
 444 0024 2370     		strb	r3, [r4]
 445              	.LVL25:
 446              	.LBB132:
 447              	.LBB133:
 448              	.LBB134:
 449              	.LBB135:
 450              	.LBB136:
 451              	.LBB137:
 452              		.loc 3 546 0
 453 0026 0023     		movs	r3, #0
 454              		.syntax unified
 455              	@ 546 "ChibiOS_3.0.2/os/ext/CMSIS/include/core_cmFunc.h" 1
 456 0028 83F31188 		MSR basepri, r3
ARM GAS  /var/tmp//ccE12j3j.s 			page 9


 457              	@ 0 "" 2
 458              	.LVL26:
 459              		.thumb
 460              		.syntax unified
 461              	.LBE137:
 462              	.LBE136:
 463              	.LBE135:
 464              	.LBE134:
 465              	.LBE133:
 466              	.LBE132:
 467              		.loc 1 243 0
 468 002c 03B0     		add	sp, sp, #12
 469              		.cfi_def_cfa_offset 20
 470              		@ sp needed
 471 002e F0BD     		pop	{r4, r5, r6, r7, pc}
 472              		.cfi_endproc
 473              	.LFE262:
 474              		.size	i2cMasterReceiveTimeout, .-i2cMasterReceiveTimeout
 475              		.section	.text.i2cAcquireBus,"ax",%progbits
 476              		.align	1
 477              		.p2align 4,,15
 478              		.global	i2cAcquireBus
 479              		.syntax unified
 480              		.thumb
 481              		.thumb_func
 482              		.fpu fpv4-sp-d16
 483              		.type	i2cAcquireBus, %function
 484              	i2cAcquireBus:
 485              	.LFB263:
 486              		.loc 1 257 0
 487              		.cfi_startproc
 488              		@ args = 0, pretend = 0, frame = 0
 489              		@ frame_needed = 0, uses_anonymous_args = 0
 490              		@ link register save eliminated.
 491              	.LVL27:
 492              	.LBB138:
 493              	.LBB139:
 494              		.loc 2 907 0
 495 0000 0C30     		adds	r0, r0, #12
 496              	.LVL28:
 497 0002 FFF7FEBF 		b	chMtxLock
 498              	.LVL29:
 499              	.LBE139:
 500              	.LBE138:
 501              		.cfi_endproc
 502              	.LFE263:
 503              		.size	i2cAcquireBus, .-i2cAcquireBus
 504 0006 00BF     		.section	.text.i2cReleaseBus,"ax",%progbits
 505              		.align	1
 506              		.p2align 4,,15
 507              		.global	i2cReleaseBus
 508              		.syntax unified
 509              		.thumb
 510              		.thumb_func
 511              		.fpu fpv4-sp-d16
 512              		.type	i2cReleaseBus, %function
 513              	i2cReleaseBus:
ARM GAS  /var/tmp//ccE12j3j.s 			page 10


 514              	.LFB264:
 515              		.loc 1 273 0
 516              		.cfi_startproc
 517              		@ args = 0, pretend = 0, frame = 0
 518              		@ frame_needed = 0, uses_anonymous_args = 0
 519              		@ link register save eliminated.
 520              	.LVL30:
 521              	.LBB140:
 522              	.LBB141:
 523              		.loc 2 931 0
 524 0000 0C30     		adds	r0, r0, #12
 525              	.LVL31:
 526 0002 FFF7FEBF 		b	chMtxUnlock
 527              	.LVL32:
 528              	.LBE141:
 529              	.LBE140:
 530              		.cfi_endproc
 531              	.LFE264:
 532              		.size	i2cReleaseBus, .-i2cReleaseBus
 533 0006 00BF     		.text
 534              	.Letext0:
 535              		.file 4 "/usr/local/gcc_arm/gcc-arm-none-eabi-6-2017-q2-update/lib/gcc/arm-none-eabi/6.3.1/include
 536              		.file 5 "/usr/local/gcc_arm/gcc-arm-none-eabi-6-2017-q2-update/arm-none-eabi/include/machine/_defa
 537              		.file 6 "/usr/local/gcc_arm/gcc-arm-none-eabi-6-2017-q2-update/arm-none-eabi/include/sys/_stdint.h
 538              		.file 7 "ChibiOS_3.0.2/os/rt/ports/ARMCMx/compilers/GCC/chtypes.h"
 539              		.file 8 "ChibiOS_3.0.2/os/rt/include/chsystypes.h"
 540              		.file 9 "ChibiOS_3.0.2/os/rt/include/chschd.h"
 541              		.file 10 "ChibiOS_3.0.2/os/ext/CMSIS/include/core_cm4.h"
 542              		.file 11 "ChibiOS_3.0.2/os/ext/CMSIS/ST/system_stm32f4xx.h"
 543              		.file 12 "ChibiOS_3.0.2/os/ext/CMSIS/ST/stm32f407xx.h"
 544              		.file 13 "ChibiOS_3.0.2/os/rt/ports/ARMCMx/chcore.h"
 545              		.file 14 "ChibiOS_3.0.2/os/rt/ports/ARMCMx/chcore_v7m.h"
 546              		.file 15 "ChibiOS_3.0.2/os/rt/include/chtm.h"
 547              		.file 16 "ChibiOS_3.0.2/os/rt/include/chsem.h"
 548              		.file 17 "ChibiOS_3.0.2/os/rt/include/chmtx.h"
 549              		.file 18 "ChibiOS_3.0.2/os/rt/include/chregistry.h"
 550              		.file 19 "ChibiOS_3.0.2/os/rt/include/chevents.h"
 551              		.file 20 "ChibiOS_3.0.2/os/rt/include/chqueues.h"
 552              		.file 21 "./conf_general.h"
 553              		.file 22 "ChibiOS_3.0.2/os/hal/ports/STM32/STM32F4xx/stm32_dma.h"
 554              		.file 23 "ChibiOS_3.0.2/os/hal/ports/STM32/LLD/GPIOv2/pal_lld.h"
 555              		.file 24 "ChibiOS_3.0.2/os/hal/include/can.h"
 556              		.file 25 "ChibiOS_3.0.2/os/hal/ports/STM32/LLD/can_lld.h"
 557              		.file 26 "ChibiOS_3.0.2/os/hal/include/i2c.h"
 558              		.file 27 "ChibiOS_3.0.2/os/hal/ports/STM32/LLD/I2Cv1/i2c_lld.h"
 559              		.file 28 "ChibiOS_3.0.2/os/hal/include/icu.h"
 560              		.file 29 "ChibiOS_3.0.2/os/hal/ports/STM32/LLD/TIMv1/icu_lld.h"
 561              		.file 30 "ChibiOS_3.0.2/os/hal/ports/STM32/LLD/TIMv1/stm32_tim.h"
 562              		.file 31 "ChibiOS_3.0.2/os/hal/include/spi.h"
 563              		.file 32 "ChibiOS_3.0.2/os/hal/ports/STM32/LLD/SPIv1/spi_lld.h"
 564              		.file 33 "ChibiOS_3.0.2/os/hal/include/uart.h"
 565              		.file 34 "ChibiOS_3.0.2/os/hal/ports/STM32/LLD/USARTv1/uart_lld.h"
 566              		.file 35 "ChibiOS_3.0.2/os/hal/include/usb.h"
 567              		.file 36 "ChibiOS_3.0.2/os/hal/ports/STM32/LLD/OTGv1/usb_lld.h"
 568              		.file 37 "ChibiOS_3.0.2/os/hal/ports/STM32/LLD/OTGv1/stm32_otg.h"
 569              		.file 38 "ChibiOS_3.0.2/os/rt/include/chsys.h"