ARM GAS  /var/tmp//ccVUyrSv.s 			page 1


   1              		.cpu cortex-m4
   2              		.eabi_attribute 27, 1
   3              		.eabi_attribute 28, 1
   4              		.eabi_attribute 20, 1
   5              		.eabi_attribute 21, 1
   6              		.eabi_attribute 23, 3
   7              		.eabi_attribute 24, 1
   8              		.eabi_attribute 25, 1
   9              		.eabi_attribute 26, 1
  10              		.eabi_attribute 30, 2
  11              		.eabi_attribute 34, 1
  12              		.eabi_attribute 18, 4
  13              		.file	"icu.c"
  14              		.text
  15              	.Ltext0:
  16              		.cfi_sections	.debug_frame
  17              		.section	.text.icuInit,"ax",%progbits
  18              		.align	1
  19              		.p2align 4,,15
  20              		.global	icuInit
  21              		.syntax unified
  22              		.thumb
  23              		.thumb_func
  24              		.fpu fpv4-sp-d16
  25              		.type	icuInit, %function
  26              	icuInit:
  27              	.LFB256:
  28              		.file 1 "ChibiOS_3.0.2/os/hal/src/icu.c"
  29              		.loc 1 56 0
  30              		.cfi_startproc
  31              		@ args = 0, pretend = 0, frame = 0
  32              		@ frame_needed = 0, uses_anonymous_args = 0
  33              		@ link register save eliminated.
  34              		.loc 1 58 0
  35 0000 FFF7FEBF 		b	icu_lld_init
  36              	.LVL0:
  37              		.cfi_endproc
  38              	.LFE256:
  39              		.size	icuInit, .-icuInit
  40              		.section	.text.icuObjectInit,"ax",%progbits
  41              		.align	1
  42              		.p2align 4,,15
  43              		.global	icuObjectInit
  44              		.syntax unified
  45              		.thumb
  46              		.thumb_func
  47              		.fpu fpv4-sp-d16
  48              		.type	icuObjectInit, %function
  49              	icuObjectInit:
  50              	.LFB257:
  51              		.loc 1 68 0
  52              		.cfi_startproc
  53              		@ args = 0, pretend = 0, frame = 0
  54              		@ frame_needed = 0, uses_anonymous_args = 0
  55              		@ link register save eliminated.
  56              	.LVL1:
  57              		.loc 1 70 0
ARM GAS  /var/tmp//ccVUyrSv.s 			page 2


  58 0000 0122     		movs	r2, #1
  59              		.loc 1 71 0
  60 0002 0023     		movs	r3, #0
  61              		.loc 1 70 0
  62 0004 0270     		strb	r2, [r0]
  63              		.loc 1 71 0
  64 0006 4360     		str	r3, [r0, #4]
  65 0008 7047     		bx	lr
  66              		.cfi_endproc
  67              	.LFE257:
  68              		.size	icuObjectInit, .-icuObjectInit
  69 000a 00BF     		.section	.text.icuStart,"ax",%progbits
  70              		.align	1
  71              		.p2align 4,,15
  72              		.global	icuStart
  73              		.syntax unified
  74              		.thumb
  75              		.thumb_func
  76              		.fpu fpv4-sp-d16
  77              		.type	icuStart, %function
  78              	icuStart:
  79              	.LFB258:
  80              		.loc 1 82 0
  81              		.cfi_startproc
  82              		@ args = 0, pretend = 0, frame = 0
  83              		@ frame_needed = 0, uses_anonymous_args = 0
  84              	.LVL2:
  85 0000 10B5     		push	{r4, lr}
  86              		.cfi_def_cfa_offset 8
  87              		.cfi_offset 4, -8
  88              		.cfi_offset 14, -4
  89              	.LBB115:
  90              	.LBB116:
  91              	.LBB117:
  92              	.LBB118:
  93              	.LBB119:
  94              		.file 2 "ChibiOS_3.0.2/os/ext/CMSIS/include/core_cmFunc.h"
  95              		.loc 2 546 0
  96 0002 2023     		movs	r3, #32
  97              	.LBE119:
  98              	.LBE118:
  99              	.LBE117:
 100              	.LBE116:
 101              	.LBE115:
 102              		.loc 1 82 0
 103 0004 0446     		mov	r4, r0
 104              	.LBB124:
 105              	.LBB123:
 106              	.LBB122:
 107              	.LBB121:
 108              	.LBB120:
 109              		.loc 2 546 0
 110              		.syntax unified
 111              	@ 546 "ChibiOS_3.0.2/os/ext/CMSIS/include/core_cmFunc.h" 1
 112 0006 83F31188 		MSR basepri, r3
 113              	@ 0 "" 2
 114              	.LVL3:
ARM GAS  /var/tmp//ccVUyrSv.s 			page 3


 115              		.thumb
 116              		.syntax unified
 117              	.LBE120:
 118              	.LBE121:
 119              	.LBE122:
 120              	.LBE123:
 121              	.LBE124:
 122              		.loc 1 89 0
 123 000a 4160     		str	r1, [r0, #4]
 124              		.loc 1 90 0
 125 000c FFF7FEFF 		bl	icu_lld_start
 126              	.LVL4:
 127              		.loc 1 91 0
 128 0010 0223     		movs	r3, #2
 129 0012 2370     		strb	r3, [r4]
 130              	.LVL5:
 131              	.LBB125:
 132              	.LBB126:
 133              	.LBB127:
 134              	.LBB128:
 135              	.LBB129:
 136              	.LBB130:
 137              		.loc 2 546 0
 138 0014 0023     		movs	r3, #0
 139              		.syntax unified
 140              	@ 546 "ChibiOS_3.0.2/os/ext/CMSIS/include/core_cmFunc.h" 1
 141 0016 83F31188 		MSR basepri, r3
 142              	@ 0 "" 2
 143              	.LVL6:
 144              		.thumb
 145              		.syntax unified
 146 001a 10BD     		pop	{r4, pc}
 147              	.LBE130:
 148              	.LBE129:
 149              	.LBE128:
 150              	.LBE127:
 151              	.LBE126:
 152              	.LBE125:
 153              		.cfi_endproc
 154              	.LFE258:
 155              		.size	icuStart, .-icuStart
 156              		.section	.text.icuStop,"ax",%progbits
 157              		.align	1
 158              		.p2align 4,,15
 159              		.global	icuStop
 160              		.syntax unified
 161              		.thumb
 162              		.thumb_func
 163              		.fpu fpv4-sp-d16
 164              		.type	icuStop, %function
 165              	icuStop:
 166              	.LFB259:
 167              		.loc 1 102 0
 168              		.cfi_startproc
 169              		@ args = 0, pretend = 0, frame = 0
 170              		@ frame_needed = 0, uses_anonymous_args = 0
 171              	.LVL7:
ARM GAS  /var/tmp//ccVUyrSv.s 			page 4


 172 0000 10B5     		push	{r4, lr}
 173              		.cfi_def_cfa_offset 8
 174              		.cfi_offset 4, -8
 175              		.cfi_offset 14, -4
 176              	.LBB131:
 177              	.LBB132:
 178              	.LBB133:
 179              	.LBB134:
 180              	.LBB135:
 181              		.loc 2 546 0
 182 0002 2023     		movs	r3, #32
 183              	.LBE135:
 184              	.LBE134:
 185              	.LBE133:
 186              	.LBE132:
 187              	.LBE131:
 188              		.loc 1 102 0
 189 0004 0446     		mov	r4, r0
 190              	.LBB140:
 191              	.LBB139:
 192              	.LBB138:
 193              	.LBB137:
 194              	.LBB136:
 195              		.loc 2 546 0
 196              		.syntax unified
 197              	@ 546 "ChibiOS_3.0.2/os/ext/CMSIS/include/core_cmFunc.h" 1
 198 0006 83F31188 		MSR basepri, r3
 199              	@ 0 "" 2
 200              	.LVL8:
 201              		.thumb
 202              		.syntax unified
 203              	.LBE136:
 204              	.LBE137:
 205              	.LBE138:
 206              	.LBE139:
 207              	.LBE140:
 208              		.loc 1 109 0
 209 000a FFF7FEFF 		bl	icu_lld_stop
 210              	.LVL9:
 211              		.loc 1 110 0
 212 000e 0123     		movs	r3, #1
 213 0010 2370     		strb	r3, [r4]
 214              	.LVL10:
 215              	.LBB141:
 216              	.LBB142:
 217              	.LBB143:
 218              	.LBB144:
 219              	.LBB145:
 220              	.LBB146:
 221              		.loc 2 546 0
 222 0012 0023     		movs	r3, #0
 223              		.syntax unified
 224              	@ 546 "ChibiOS_3.0.2/os/ext/CMSIS/include/core_cmFunc.h" 1
 225 0014 83F31188 		MSR basepri, r3
 226              	@ 0 "" 2
 227              	.LVL11:
 228              		.thumb
ARM GAS  /var/tmp//ccVUyrSv.s 			page 5


 229              		.syntax unified
 230 0018 10BD     		pop	{r4, pc}
 231              	.LBE146:
 232              	.LBE145:
 233              	.LBE144:
 234              	.LBE143:
 235              	.LBE142:
 236              	.LBE141:
 237              		.cfi_endproc
 238              	.LFE259:
 239              		.size	icuStop, .-icuStop
 240 001a 00BF     		.section	.text.icuStartCapture,"ax",%progbits
 241              		.align	1
 242              		.p2align 4,,15
 243              		.global	icuStartCapture
 244              		.syntax unified
 245              		.thumb
 246              		.thumb_func
 247              		.fpu fpv4-sp-d16
 248              		.type	icuStartCapture, %function
 249              	icuStartCapture:
 250              	.LFB260:
 251              		.loc 1 121 0
 252              		.cfi_startproc
 253              		@ args = 0, pretend = 0, frame = 0
 254              		@ frame_needed = 0, uses_anonymous_args = 0
 255              	.LVL12:
 256 0000 10B5     		push	{r4, lr}
 257              		.cfi_def_cfa_offset 8
 258              		.cfi_offset 4, -8
 259              		.cfi_offset 14, -4
 260              	.LBB147:
 261              	.LBB148:
 262              	.LBB149:
 263              	.LBB150:
 264              	.LBB151:
 265              		.loc 2 546 0
 266 0002 2023     		movs	r3, #32
 267              	.LBE151:
 268              	.LBE150:
 269              	.LBE149:
 270              	.LBE148:
 271              	.LBE147:
 272              		.loc 1 121 0
 273 0004 0446     		mov	r4, r0
 274              	.LBB156:
 275              	.LBB155:
 276              	.LBB154:
 277              	.LBB153:
 278              	.LBB152:
 279              		.loc 2 546 0
 280              		.syntax unified
 281              	@ 546 "ChibiOS_3.0.2/os/ext/CMSIS/include/core_cmFunc.h" 1
 282 0006 83F31188 		MSR basepri, r3
 283              	@ 0 "" 2
 284              	.LVL13:
 285              		.thumb
ARM GAS  /var/tmp//ccVUyrSv.s 			page 6


 286              		.syntax unified
 287              	.LBE152:
 288              	.LBE153:
 289              	.LBE154:
 290              	.LBE155:
 291              	.LBE156:
 292              		.loc 1 127 0
 293 000a FFF7FEFF 		bl	icu_lld_start_capture
 294              	.LVL14:
 295 000e 0323     		movs	r3, #3
 296 0010 2370     		strb	r3, [r4]
 297              	.LVL15:
 298              	.LBB157:
 299              	.LBB158:
 300              	.LBB159:
 301              	.LBB160:
 302              	.LBB161:
 303              	.LBB162:
 304              		.loc 2 546 0
 305 0012 0023     		movs	r3, #0
 306              		.syntax unified
 307              	@ 546 "ChibiOS_3.0.2/os/ext/CMSIS/include/core_cmFunc.h" 1
 308 0014 83F31188 		MSR basepri, r3
 309              	@ 0 "" 2
 310              	.LVL16:
 311              		.thumb
 312              		.syntax unified
 313 0018 10BD     		pop	{r4, pc}
 314              	.LBE162:
 315              	.LBE161:
 316              	.LBE160:
 317              	.LBE159:
 318              	.LBE158:
 319              	.LBE157:
 320              		.cfi_endproc
 321              	.LFE260:
 322              		.size	icuStartCapture, .-icuStartCapture
 323 001a 00BF     		.section	.text.icuWaitCapture,"ax",%progbits
 324              		.align	1
 325              		.p2align 4,,15
 326              		.global	icuWaitCapture
 327              		.syntax unified
 328              		.thumb
 329              		.thumb_func
 330              		.fpu fpv4-sp-d16
 331              		.type	icuWaitCapture, %function
 332              	icuWaitCapture:
 333              	.LFB261:
 334              		.loc 1 147 0
 335              		.cfi_startproc
 336              		@ args = 0, pretend = 0, frame = 0
 337              		@ frame_needed = 0, uses_anonymous_args = 0
 338              	.LVL17:
 339 0000 10B5     		push	{r4, lr}
 340              		.cfi_def_cfa_offset 8
 341              		.cfi_offset 4, -8
 342              		.cfi_offset 14, -4
ARM GAS  /var/tmp//ccVUyrSv.s 			page 7


 343              	.LBB163:
 344              	.LBB164:
 345              	.LBB165:
 346              	.LBB166:
 347              	.LBB167:
 348              		.loc 2 546 0
 349 0002 2023     		movs	r3, #32
 350              	.LBE167:
 351              	.LBE166:
 352              	.LBE165:
 353              	.LBE164:
 354              	.LBE163:
 355              		.loc 1 147 0
 356 0004 0446     		mov	r4, r0
 357              	.LBB172:
 358              	.LBB171:
 359              	.LBB170:
 360              	.LBB169:
 361              	.LBB168:
 362              		.loc 2 546 0
 363              		.syntax unified
 364              	@ 546 "ChibiOS_3.0.2/os/ext/CMSIS/include/core_cmFunc.h" 1
 365 0006 83F31188 		MSR basepri, r3
 366              	@ 0 "" 2
 367              	.LVL18:
 368              		.thumb
 369              		.syntax unified
 370              	.LBE168:
 371              	.LBE169:
 372              	.LBE170:
 373              	.LBE171:
 374              	.LBE172:
 375              		.loc 1 157 0
 376 000a FFF7FEFF 		bl	icu_lld_wait_capture
 377              	.LVL19:
 378              		.loc 1 158 0
 379 000e 0028     		cmp	r0, #0
 380 0010 14BF     		ite	ne
 381 0012 0323     		movne	r3, #3
 382 0014 0423     		moveq	r3, #4
 383 0016 2370     		strb	r3, [r4]
 384              	.LVL20:
 385              	.LBB173:
 386              	.LBB174:
 387              	.LBB175:
 388              	.LBB176:
 389              	.LBB177:
 390              	.LBB178:
 391              		.loc 2 546 0
 392 0018 0023     		movs	r3, #0
 393              		.syntax unified
 394              	@ 546 "ChibiOS_3.0.2/os/ext/CMSIS/include/core_cmFunc.h" 1
 395 001a 83F31188 		MSR basepri, r3
 396              	@ 0 "" 2
 397              	.LVL21:
 398              		.thumb
 399              		.syntax unified
ARM GAS  /var/tmp//ccVUyrSv.s 			page 8


 400              	.LBE178:
 401              	.LBE177:
 402              	.LBE176:
 403              	.LBE175:
 404              	.LBE174:
 405              	.LBE173:
 406              		.loc 1 162 0
 407 001e 10BD     		pop	{r4, pc}
 408              		.cfi_endproc
 409              	.LFE261:
 410              		.size	icuWaitCapture, .-icuWaitCapture
 411              		.section	.text.icuStopCapture,"ax",%progbits
 412              		.align	1
 413              		.p2align 4,,15
 414              		.global	icuStopCapture
 415              		.syntax unified
 416              		.thumb
 417              		.thumb_func
 418              		.fpu fpv4-sp-d16
 419              		.type	icuStopCapture, %function
 420              	icuStopCapture:
 421              	.LFB262:
 422              		.loc 1 171 0
 423              		.cfi_startproc
 424              		@ args = 0, pretend = 0, frame = 0
 425              		@ frame_needed = 0, uses_anonymous_args = 0
 426              	.LVL22:
 427 0000 10B5     		push	{r4, lr}
 428              		.cfi_def_cfa_offset 8
 429              		.cfi_offset 4, -8
 430              		.cfi_offset 14, -4
 431              	.LBB179:
 432              	.LBB180:
 433              	.LBB181:
 434              	.LBB182:
 435              	.LBB183:
 436              		.loc 2 546 0
 437 0002 2023     		movs	r3, #32
 438              	.LBE183:
 439              	.LBE182:
 440              	.LBE181:
 441              	.LBE180:
 442              	.LBE179:
 443              		.loc 1 171 0
 444 0004 0446     		mov	r4, r0
 445              	.LBB188:
 446              	.LBB187:
 447              	.LBB186:
 448              	.LBB185:
 449              	.LBB184:
 450              		.loc 2 546 0
 451              		.syntax unified
 452              	@ 546 "ChibiOS_3.0.2/os/ext/CMSIS/include/core_cmFunc.h" 1
 453 0006 83F31188 		MSR basepri, r3
 454              	@ 0 "" 2
 455              	.LVL23:
 456              		.thumb
ARM GAS  /var/tmp//ccVUyrSv.s 			page 9


 457              		.syntax unified
 458              	.LBE184:
 459              	.LBE185:
 460              	.LBE186:
 461              	.LBE187:
 462              	.LBE188:
 463              		.loc 1 179 0
 464 000a FFF7FEFF 		bl	icu_lld_stop_capture
 465              	.LVL24:
 466 000e 0223     		movs	r3, #2
 467 0010 2370     		strb	r3, [r4]
 468              	.LVL25:
 469              	.LBB189:
 470              	.LBB190:
 471              	.LBB191:
 472              	.LBB192:
 473              	.LBB193:
 474              	.LBB194:
 475              		.loc 2 546 0
 476 0012 0023     		movs	r3, #0
 477              		.syntax unified
 478              	@ 546 "ChibiOS_3.0.2/os/ext/CMSIS/include/core_cmFunc.h" 1
 479 0014 83F31188 		MSR basepri, r3
 480              	@ 0 "" 2
 481              	.LVL26:
 482              		.thumb
 483              		.syntax unified
 484 0018 10BD     		pop	{r4, pc}
 485              	.LBE194:
 486              	.LBE193:
 487              	.LBE192:
 488              	.LBE191:
 489              	.LBE190:
 490              	.LBE189:
 491              		.cfi_endproc
 492              	.LFE262:
 493              		.size	icuStopCapture, .-icuStopCapture
 494 001a 00BF     		.section	.text.icuEnableNotifications,"ax",%progbits
 495              		.align	1
 496              		.p2align 4,,15
 497              		.global	icuEnableNotifications
 498              		.syntax unified
 499              		.thumb
 500              		.thumb_func
 501              		.fpu fpv4-sp-d16
 502              		.type	icuEnableNotifications, %function
 503              	icuEnableNotifications:
 504              	.LFB263:
 505              		.loc 1 192 0
 506              		.cfi_startproc
 507              		@ args = 0, pretend = 0, frame = 0
 508              		@ frame_needed = 0, uses_anonymous_args = 0
 509              	.LVL27:
 510 0000 08B5     		push	{r3, lr}
 511              		.cfi_def_cfa_offset 8
 512              		.cfi_offset 3, -8
 513              		.cfi_offset 14, -4
ARM GAS  /var/tmp//ccVUyrSv.s 			page 10


 514              	.LBB195:
 515              	.LBB196:
 516              	.LBB197:
 517              	.LBB198:
 518              	.LBB199:
 519              		.loc 2 546 0
 520 0002 2023     		movs	r3, #32
 521              		.syntax unified
 522              	@ 546 "ChibiOS_3.0.2/os/ext/CMSIS/include/core_cmFunc.h" 1
 523 0004 83F31188 		MSR basepri, r3
 524              	@ 0 "" 2
 525              	.LVL28:
 526              		.thumb
 527              		.syntax unified
 528              	.LBE199:
 529              	.LBE198:
 530              	.LBE197:
 531              	.LBE196:
 532              	.LBE195:
 533              		.loc 1 199 0
 534 0008 FFF7FEFF 		bl	icu_lld_enable_notifications
 535              	.LVL29:
 536              	.LBB200:
 537              	.LBB201:
 538              	.LBB202:
 539              	.LBB203:
 540              	.LBB204:
 541              	.LBB205:
 542              		.loc 2 546 0
 543 000c 0023     		movs	r3, #0
 544              		.syntax unified
 545              	@ 546 "ChibiOS_3.0.2/os/ext/CMSIS/include/core_cmFunc.h" 1
 546 000e 83F31188 		MSR basepri, r3
 547              	@ 0 "" 2
 548              	.LVL30:
 549              		.thumb
 550              		.syntax unified
 551 0012 08BD     		pop	{r3, pc}
 552              	.LBE205:
 553              	.LBE204:
 554              	.LBE203:
 555              	.LBE202:
 556              	.LBE201:
 557              	.LBE200:
 558              		.cfi_endproc
 559              	.LFE263:
 560              		.size	icuEnableNotifications, .-icuEnableNotifications
 561              		.section	.text.icuDisableNotifications,"ax",%progbits
 562              		.align	1
 563              		.p2align 4,,15
 564              		.global	icuDisableNotifications
 565              		.syntax unified
 566              		.thumb
 567              		.thumb_func
 568              		.fpu fpv4-sp-d16
 569              		.type	icuDisableNotifications, %function
 570              	icuDisableNotifications:
ARM GAS  /var/tmp//ccVUyrSv.s 			page 11


 571              	.LFB264:
 572              		.loc 1 212 0
 573              		.cfi_startproc
 574              		@ args = 0, pretend = 0, frame = 0
 575              		@ frame_needed = 0, uses_anonymous_args = 0
 576              	.LVL31:
 577 0000 08B5     		push	{r3, lr}
 578              		.cfi_def_cfa_offset 8
 579              		.cfi_offset 3, -8
 580              		.cfi_offset 14, -4
 581              	.LBB206:
 582              	.LBB207:
 583              	.LBB208:
 584              	.LBB209:
 585              	.LBB210:
 586              		.loc 2 546 0
 587 0002 2023     		movs	r3, #32
 588              		.syntax unified
 589              	@ 546 "ChibiOS_3.0.2/os/ext/CMSIS/include/core_cmFunc.h" 1
 590 0004 83F31188 		MSR basepri, r3
 591              	@ 0 "" 2
 592              	.LVL32:
 593              		.thumb
 594              		.syntax unified
 595              	.LBE210:
 596              	.LBE209:
 597              	.LBE208:
 598              	.LBE207:
 599              	.LBE206:
 600              		.loc 1 219 0
 601 0008 FFF7FEFF 		bl	icu_lld_disable_notifications
 602              	.LVL33:
 603              	.LBB211:
 604              	.LBB212:
 605              	.LBB213:
 606              	.LBB214:
 607              	.LBB215:
 608              	.LBB216:
 609              		.loc 2 546 0
 610 000c 0023     		movs	r3, #0
 611              		.syntax unified
 612              	@ 546 "ChibiOS_3.0.2/os/ext/CMSIS/include/core_cmFunc.h" 1
 613 000e 83F31188 		MSR basepri, r3
 614              	@ 0 "" 2
 615              	.LVL34:
 616              		.thumb
 617              		.syntax unified
 618 0012 08BD     		pop	{r3, pc}
 619              	.LBE216:
 620              	.LBE215:
 621              	.LBE214:
 622              	.LBE213:
 623              	.LBE212:
 624              	.LBE211:
 625              		.cfi_endproc
 626              	.LFE264:
 627              		.size	icuDisableNotifications, .-icuDisableNotifications
ARM GAS  /var/tmp//ccVUyrSv.s 			page 12


 628              		.text
 629              	.Letext0:
 630              		.file 3 "/usr/local/gcc_arm/gcc-arm-none-eabi-6-2017-q2-update/lib/gcc/arm-none-eabi/6.3.1/include
 631              		.file 4 "/usr/local/gcc_arm/gcc-arm-none-eabi-6-2017-q2-update/arm-none-eabi/include/machine/_defa
 632              		.file 5 "/usr/local/gcc_arm/gcc-arm-none-eabi-6-2017-q2-update/arm-none-eabi/include/sys/_stdint.h
 633              		.file 6 "ChibiOS_3.0.2/os/rt/ports/ARMCMx/compilers/GCC/chtypes.h"
 634              		.file 7 "ChibiOS_3.0.2/os/rt/include/chsystypes.h"
 635              		.file 8 "ChibiOS_3.0.2/os/rt/include/chschd.h"
 636              		.file 9 "ChibiOS_3.0.2/os/ext/CMSIS/include/core_cm4.h"
 637              		.file 10 "ChibiOS_3.0.2/os/ext/CMSIS/ST/system_stm32f4xx.h"
 638              		.file 11 "ChibiOS_3.0.2/os/ext/CMSIS/ST/stm32f407xx.h"
 639              		.file 12 "ChibiOS_3.0.2/os/rt/ports/ARMCMx/chcore.h"
 640              		.file 13 "ChibiOS_3.0.2/os/rt/ports/ARMCMx/chcore_v7m.h"
 641              		.file 14 "ChibiOS_3.0.2/os/rt/include/chtm.h"
 642              		.file 15 "ChibiOS_3.0.2/os/rt/include/chsem.h"
 643              		.file 16 "ChibiOS_3.0.2/os/rt/include/chmtx.h"
 644              		.file 17 "ChibiOS_3.0.2/os/rt/include/chregistry.h"
 645              		.file 18 "ChibiOS_3.0.2/os/rt/include/chevents.h"
 646              		.file 19 "ChibiOS_3.0.2/os/rt/include/chqueues.h"
 647              		.file 20 "./conf_general.h"
 648              		.file 21 "ChibiOS_3.0.2/os/hal/ports/STM32/STM32F4xx/stm32_dma.h"
 649              		.file 22 "ChibiOS_3.0.2/os/hal/ports/STM32/LLD/GPIOv2/pal_lld.h"
 650              		.file 23 "ChibiOS_3.0.2/os/hal/include/can.h"
 651              		.file 24 "ChibiOS_3.0.2/os/hal/ports/STM32/LLD/can_lld.h"
 652              		.file 25 "ChibiOS_3.0.2/os/hal/include/i2c.h"
 653              		.file 26 "ChibiOS_3.0.2/os/hal/ports/STM32/LLD/I2Cv1/i2c_lld.h"
 654              		.file 27 "ChibiOS_3.0.2/os/hal/include/icu.h"
 655              		.file 28 "ChibiOS_3.0.2/os/hal/ports/STM32/LLD/TIMv1/icu_lld.h"
 656              		.file 29 "ChibiOS_3.0.2/os/hal/ports/STM32/LLD/TIMv1/stm32_tim.h"
 657              		.file 30 "ChibiOS_3.0.2/os/hal/include/spi.h"
 658              		.file 31 "ChibiOS_3.0.2/os/hal/ports/STM32/LLD/SPIv1/spi_lld.h"
 659              		.file 32 "ChibiOS_3.0.2/os/hal/include/uart.h"
 660              		.file 33 "ChibiOS_3.0.2/os/hal/ports/STM32/LLD/USARTv1/uart_lld.h"
 661              		.file 34 "ChibiOS_3.0.2/os/hal/include/usb.h"
 662              		.file 35 "ChibiOS_3.0.2/os/hal/ports/STM32/LLD/OTGv1/usb_lld.h"
 663              		.file 36 "ChibiOS_3.0.2/os/hal/ports/STM32/LLD/OTGv1/stm32_otg.h"
 664              		.file 37 "ChibiOS_3.0.2/os/hal/osal/rt/osal.h"
 665              		.file 38 "ChibiOS_3.0.2/os/rt/include/chsys.h"