ARM GAS  C:\Users\Grillmo\AppData\Local\Temp\cc0u2Dxk.s 			page 1


   1              		.cpu cortex-m4
   2              		.eabi_attribute 27, 1
   3              		.eabi_attribute 28, 1
   4              		.eabi_attribute 20, 1
   5              		.eabi_attribute 21, 1
   6              		.eabi_attribute 23, 3
   7              		.eabi_attribute 24, 1
   8              		.eabi_attribute 25, 1
   9              		.eabi_attribute 26, 1
  10              		.eabi_attribute 30, 2
  11              		.eabi_attribute 34, 1
  12              		.eabi_attribute 18, 4
  13              		.file	"icu_lld.c"
  14              		.text
  15              	.Ltext0:
  16              		.cfi_sections	.debug_frame
  17              		.section	.text.icu_lld_wait_edge.isra.0,"ax",%progbits
  18              		.align	1
  19              		.p2align 4,,15
  20              		.syntax unified
  21              		.thumb
  22              		.thumb_func
  23              		.fpu fpv4-sp-d16
  24              		.type	icu_lld_wait_edge.isra.0, %function
  25              	icu_lld_wait_edge.isra.0:
  26              	.LFB267:
  27              		.file 1 "ChibiOS_3.0.2/os/hal/ports/STM32/LLD/TIMv1/icu_lld.c"
  28              		.loc 1 105 0
  29              		.cfi_startproc
  30              		@ args = 0, pretend = 0, frame = 0
  31              		@ frame_needed = 0, uses_anonymous_args = 0
  32              		@ link register save eliminated.
  33              	.LVL0:
  34              	.LBB33:
  35              	.LBB34:
  36              	.LBB35:
  37              	.LBB36:
  38              	.LBB37:
  39              		.file 2 "ChibiOS_3.0.2/os/ext/CMSIS/include/core_cmFunc.h"
  40              		.loc 2 546 0
  41 0000 0023     		movs	r3, #0
  42              		.syntax unified
  43              	@ 546 "ChibiOS_3.0.2/os/ext/CMSIS/include/core_cmFunc.h" 1
  44 0002 83F31188 		MSR basepri, r3
  45              	@ 0 "" 2
  46              	.LVL1:
  47              		.thumb
  48              		.syntax unified
  49              	.LBE37:
  50              	.LBE36:
  51              	.LBE35:
  52              	.LBE34:
  53              	.LBE33:
  54              		.loc 1 114 0
  55 0006 0368     		ldr	r3, [r0]
  56 0008 1B7D     		ldrb	r3, [r3, #20]	@ zero_extendqisi2
  57 000a 73B9     		cbnz	r3, .L2
ARM GAS  C:\Users\Grillmo\AppData\Local\Temp\cc0u2Dxk.s 			page 2


  58 000c 0B68     		ldr	r3, [r1]
  59              	.L3:
  60              		.loc 1 116 0
  61 000e 1869     		ldr	r0, [r3, #16]
  62              	.LVL2:
  63 0010 8207     		lsls	r2, r0, #30
  64 0012 FCD0     		beq	.L3
  65              	.L4:
  66              	.LVL3:
  67              	.LBB38:
  68              	.LBB39:
  69              	.LBB40:
  70              	.LBB41:
  71              		.loc 2 546 0
  72 0014 2023     		movs	r3, #32
  73              		.syntax unified
  74              	@ 546 "ChibiOS_3.0.2/os/ext/CMSIS/include/core_cmFunc.h" 1
  75 0016 83F31188 		MSR basepri, r3
  76              	@ 0 "" 2
  77              	.LVL4:
  78              		.thumb
  79              		.syntax unified
  80              	.LBE41:
  81              	.LBE40:
  82              	.LBE39:
  83              	.LBE38:
  84              		.loc 1 134 0
  85 001a 0A68     		ldr	r2, [r1]
  86 001c 1369     		ldr	r3, [r2, #16]
  87 001e 23F00703 		bic	r3, r3, #7
  88              		.loc 1 139 0
  89 0022 00F00100 		and	r0, r0, #1
  90              	.LVL5:
  91              		.loc 1 134 0
  92 0026 1361     		str	r3, [r2, #16]
  93              		.loc 1 139 0
  94 0028 7047     		bx	lr
  95              	.L2:
  96 002a 0B68     		ldr	r3, [r1]
  97              	.L5:
  98              		.loc 1 122 0
  99 002c 1869     		ldr	r0, [r3, #16]
 100              	.LVL6:
 101 002e 10F0050F 		tst	r0, #5
 102 0032 FBD0     		beq	.L5
 103 0034 EEE7     		b	.L4
 104              		.cfi_endproc
 105              	.LFE267:
 106              		.size	icu_lld_wait_edge.isra.0, .-icu_lld_wait_edge.isra.0
 107 0036 00BF     		.section	.text.VectorB4,"ax",%progbits
 108              		.align	1
 109              		.p2align 4,,15
 110              		.global	VectorB4
 111              		.syntax unified
 112              		.thumb
 113              		.thumb_func
 114              		.fpu fpv4-sp-d16
ARM GAS  C:\Users\Grillmo\AppData\Local\Temp\cc0u2Dxk.s 			page 3


 115              		.type	VectorB4, %function
 116              	VectorB4:
 117              	.LFB258:
 118              		.loc 1 248 0
 119              		.cfi_startproc
 120              		@ args = 0, pretend = 0, frame = 0
 121              		@ frame_needed = 0, uses_anonymous_args = 0
 122              	.LVL7:
 123 0000 38B5     		push	{r3, r4, r5, lr}
 124              		.cfi_def_cfa_offset 16
 125              		.cfi_offset 3, -16
 126              		.cfi_offset 4, -12
 127              		.cfi_offset 5, -8
 128              		.cfi_offset 14, -4
 129              	.LBB44:
 130              	.LBB45:
 131              		.loc 1 149 0
 132 0002 244D     		ldr	r5, .L55
 133 0004 EB68     		ldr	r3, [r5, #12]
 134              		.loc 1 152 0
 135 0006 6968     		ldr	r1, [r5, #4]
 136              		.loc 1 149 0
 137 0008 1C69     		ldr	r4, [r3, #16]
 138              	.LVL8:
 139              		.loc 1 150 0
 140 000a DA68     		ldr	r2, [r3, #12]
 141              		.loc 1 152 0
 142 000c 087D     		ldrb	r0, [r1, #20]	@ zero_extendqisi2
 143 000e 1440     		ands	r4, r4, r2
 144              	.LVL9:
 145              		.loc 1 150 0
 146 0010 E2B2     		uxtb	r2, r4
 147              		.loc 1 151 0
 148 0012 D243     		mvns	r2, r2
 149 0014 1A61     		str	r2, [r3, #16]
 150              		.loc 1 152 0
 151 0016 90B9     		cbnz	r0, .L12
 152              		.loc 1 153 0
 153 0018 6007     		lsls	r0, r4, #29
 154 001a 2ED5     		bpl	.L13
 155              		.loc 1 154 0
 156 001c 2B78     		ldrb	r3, [r5]	@ zero_extendqisi2
 157 001e 042B     		cmp	r3, #4
 158 0020 27D0     		beq	.L52
 159              		.loc 1 155 0
 160 0022 A107     		lsls	r1, r4, #30
 161 0024 12D4     		bmi	.L19
 162              	.L17:
 163              		.loc 1 164 0
 164 0026 E407     		lsls	r4, r4, #31
 165              	.LVL10:
 166 0028 05D5     		bpl	.L25
 167              		.loc 1 165 0
 168 002a 6B68     		ldr	r3, [r5, #4]
 169 002c 1948     		ldr	r0, .L55
 170 002e 1B69     		ldr	r3, [r3, #16]
 171 0030 9847     		blx	r3
ARM GAS  C:\Users\Grillmo\AppData\Local\Temp\cc0u2Dxk.s 			page 4


 172              	.LVL11:
 173 0032 0323     		movs	r3, #3
 174 0034 2B70     		strb	r3, [r5]
 175              	.L25:
 176              	.LVL12:
 177              	.LBE45:
 178              	.LBE44:
 179              		.loc 1 255 0
 180 0036 BDE83840 		pop	{r3, r4, r5, lr}
 181              		.cfi_remember_state
 182              		.cfi_restore 14
 183              		.cfi_restore 5
 184              		.cfi_restore 4
 185              		.cfi_restore 3
 186              		.cfi_def_cfa_offset 0
 187              		.loc 1 254 0
 188 003a FFF7FEBF 		b	_port_irq_epilogue
 189              	.LVL13:
 190              	.L12:
 191              		.cfi_restore_state
 192              	.LBB47:
 193              	.LBB46:
 194              		.loc 1 159 0
 195 003e A207     		lsls	r2, r4, #30
 196 0040 0BD5     		bpl	.L21
 197              		.loc 1 160 0
 198 0042 2B78     		ldrb	r3, [r5]	@ zero_extendqisi2
 199 0044 042B     		cmp	r3, #4
 200 0046 04D0     		beq	.L53
 201              		.loc 1 161 0
 202 0048 6307     		lsls	r3, r4, #29
 203 004a ECD5     		bpl	.L17
 204              	.L19:
 205              		.loc 1 156 0
 206 004c 0423     		movs	r3, #4
 207 004e 2B70     		strb	r3, [r5]
 208 0050 E9E7     		b	.L17
 209              	.L53:
 210              		.loc 1 160 0
 211 0052 8B68     		ldr	r3, [r1, #8]
 212 0054 D3B1     		cbz	r3, .L23
 213 0056 2846     		mov	r0, r5
 214 0058 9847     		blx	r3
 215              	.LVL14:
 216              	.L21:
 217              		.loc 1 161 0
 218 005a 6307     		lsls	r3, r4, #29
 219 005c E3D5     		bpl	.L17
 220              		.loc 1 156 0
 221 005e 2B78     		ldrb	r3, [r5]	@ zero_extendqisi2
 222 0060 042B     		cmp	r3, #4
 223 0062 F3D1     		bne	.L19
 224              	.L54:
 225 0064 6968     		ldr	r1, [r5, #4]
 226              	.L26:
 227 0066 CB68     		ldr	r3, [r1, #12]
 228 0068 002B     		cmp	r3, #0
ARM GAS  C:\Users\Grillmo\AppData\Local\Temp\cc0u2Dxk.s 			page 5


 229 006a EFD0     		beq	.L19
 230 006c 0948     		ldr	r0, .L55
 231 006e 9847     		blx	r3
 232              	.LVL15:
 233 0070 ECE7     		b	.L19
 234              	.L52:
 235              		.loc 1 154 0
 236 0072 8B68     		ldr	r3, [r1, #8]
 237 0074 3BB1     		cbz	r3, .L15
 238 0076 2846     		mov	r0, r5
 239 0078 9847     		blx	r3
 240              	.LVL16:
 241              	.L13:
 242              		.loc 1 155 0
 243 007a A107     		lsls	r1, r4, #30
 244 007c D3D5     		bpl	.L17
 245              		.loc 1 156 0
 246 007e 2B78     		ldrb	r3, [r5]	@ zero_extendqisi2
 247 0080 042B     		cmp	r3, #4
 248 0082 E3D1     		bne	.L19
 249 0084 EEE7     		b	.L54
 250              	.L15:
 251              		.loc 1 155 0
 252 0086 A007     		lsls	r0, r4, #30
 253 0088 EDD4     		bmi	.L26
 254 008a CCE7     		b	.L17
 255              	.L23:
 256              		.loc 1 161 0
 257 008c 6207     		lsls	r2, r4, #29
 258 008e EAD4     		bmi	.L26
 259 0090 C9E7     		b	.L17
 260              	.L56:
 261 0092 00BF     		.align	2
 262              	.L55:
 263 0094 00000000 		.word	.LANCHOR0
 264              	.LBE46:
 265              	.LBE47:
 266              		.cfi_endproc
 267              	.LFE258:
 268              		.size	VectorB4, .-VectorB4
 269              		.section	.text.icu_lld_init,"ax",%progbits
 270              		.align	1
 271              		.p2align 4,,15
 272              		.global	icu_lld_init
 273              		.syntax unified
 274              		.thumb
 275              		.thumb_func
 276              		.fpu fpv4-sp-d16
 277              		.type	icu_lld_init, %function
 278              	icu_lld_init:
 279              	.LFB259:
 280              		.loc 1 375 0
 281              		.cfi_startproc
 282              		@ args = 0, pretend = 0, frame = 0
 283              		@ frame_needed = 0, uses_anonymous_args = 0
 284 0000 10B5     		push	{r4, lr}
 285              		.cfi_def_cfa_offset 8
ARM GAS  C:\Users\Grillmo\AppData\Local\Temp\cc0u2Dxk.s 			page 6


 286              		.cfi_offset 4, -8
 287              		.cfi_offset 14, -4
 288              		.loc 1 391 0
 289 0002 034C     		ldr	r4, .L59
 290 0004 2046     		mov	r0, r4
 291 0006 FFF7FEFF 		bl	icuObjectInit
 292              	.LVL17:
 293              		.loc 1 392 0
 294 000a 024B     		ldr	r3, .L59+4
 295 000c E360     		str	r3, [r4, #12]
 296 000e 10BD     		pop	{r4, pc}
 297              	.L60:
 298              		.align	2
 299              	.L59:
 300 0010 00000000 		.word	.LANCHOR0
 301 0014 00040040 		.word	1073742848
 302              		.cfi_endproc
 303              	.LFE259:
 304              		.size	icu_lld_init, .-icu_lld_init
 305              		.section	.text.icu_lld_start,"ax",%progbits
 306              		.align	1
 307              		.p2align 4,,15
 308              		.global	icu_lld_start
 309              		.syntax unified
 310              		.thumb
 311              		.thumb_func
 312              		.fpu fpv4-sp-d16
 313              		.type	icu_lld_start, %function
 314              	icu_lld_start:
 315              	.LFB260:
 316              		.loc 1 427 0
 317              		.cfi_startproc
 318              		@ args = 0, pretend = 0, frame = 0
 319              		@ frame_needed = 0, uses_anonymous_args = 0
 320              	.LVL18:
 321 0000 F8B5     		push	{r3, r4, r5, r6, r7, lr}
 322              		.cfi_def_cfa_offset 24
 323              		.cfi_offset 3, -24
 324              		.cfi_offset 4, -20
 325              		.cfi_offset 5, -16
 326              		.cfi_offset 6, -12
 327              		.cfi_offset 7, -8
 328              		.cfi_offset 14, -4
 329              		.loc 1 434 0
 330 0002 0378     		ldrb	r3, [r0]	@ zero_extendqisi2
 331 0004 012B     		cmp	r3, #1
 332              		.loc 1 427 0
 333 0006 0446     		mov	r4, r0
 334              		.loc 1 434 0
 335 0008 3AD0     		beq	.L73
 336              		.loc 1 505 0
 337 000a C368     		ldr	r3, [r0, #12]
 338 000c 0022     		movs	r2, #0
 339 000e 1A60     		str	r2, [r3]
 340              		.loc 1 506 0
 341 0010 5A63     		str	r2, [r3, #52]
 342              		.loc 1 507 0
ARM GAS  C:\Users\Grillmo\AppData\Local\Temp\cc0u2Dxk.s 			page 7


 343 0012 9A63     		str	r2, [r3, #56]
 344              		.loc 1 508 0
 345 0014 5A62     		str	r2, [r3, #36]
 346              	.LVL19:
 347              	.L64:
 348              		.loc 1 513 0
 349 0016 6168     		ldr	r1, [r4, #4]
 350              		.loc 1 515 0
 351 0018 A268     		ldr	r2, [r4, #8]
 352              		.loc 1 513 0
 353 001a 8869     		ldr	r0, [r1, #24]
 354              		.loc 1 522 0
 355 001c 0D7D     		ldrb	r5, [r1, #20]	@ zero_extendqisi2
 356              		.loc 1 515 0
 357 001e 4E68     		ldr	r6, [r1, #4]
 358 0020 B2FBF6F2 		udiv	r2, r2, r6
 359              		.loc 1 513 0
 360 0024 20F0FF00 		bic	r0, r0, #255
 361              		.loc 1 515 0
 362 0028 013A     		subs	r2, r2, #1
 363              	.LVL20:
 364              		.loc 1 512 0
 365 002a 0027     		movs	r7, #0
 366              		.loc 1 520 0
 367 002c 4FF6FF76 		movw	r6, #65535
 368              		.loc 1 512 0
 369 0030 1F61     		str	r7, [r3, #16]
 370              		.loc 1 513 0
 371 0032 D860     		str	r0, [r3, #12]
 372              		.loc 1 519 0
 373 0034 9A62     		str	r2, [r3, #40]
 374              		.loc 1 520 0
 375 0036 DE62     		str	r6, [r3, #44]
 376              		.loc 1 535 0
 377 0038 0A78     		ldrb	r2, [r1]	@ zero_extendqisi2
 378              	.LVL21:
 379              		.loc 1 522 0
 380 003a 6DB9     		cbnz	r5, .L65
 381              		.loc 1 526 0
 382 003c 40F20120 		movw	r0, #513
 383              		.loc 1 530 0
 384 0040 5421     		movs	r1, #84
 385              	.LVL22:
 386              		.loc 1 526 0
 387 0042 9861     		str	r0, [r3, #24]
 388              		.loc 1 530 0
 389 0044 9960     		str	r1, [r3, #8]
 390              		.loc 1 535 0
 391 0046 C2B1     		cbz	r2, .L74
 392              		.loc 1 539 0
 393 0048 1322     		movs	r2, #19
 394 004a 1A62     		str	r2, [r3, #32]
 395              	.LVL23:
 396              	.L67:
 397              		.loc 1 544 0
 398 004c 03F13802 		add	r2, r3, #56
 399              		.loc 1 545 0
ARM GAS  C:\Users\Grillmo\AppData\Local\Temp\cc0u2Dxk.s 			page 8


 400 0050 3433     		adds	r3, r3, #52
 401              		.loc 1 544 0
 402 0052 2261     		str	r2, [r4, #16]
 403              		.loc 1 545 0
 404 0054 6361     		str	r3, [r4, #20]
 405 0056 F8BD     		pop	{r3, r4, r5, r6, r7, pc}
 406              	.LVL24:
 407              	.L65:
 408              		.loc 1 551 0
 409 0058 4FF48170 		mov	r0, #258
 410              		.loc 1 555 0
 411 005c 6421     		movs	r1, #100
 412              	.LVL25:
 413              		.loc 1 551 0
 414 005e 9861     		str	r0, [r3, #24]
 415              		.loc 1 555 0
 416 0060 9960     		str	r1, [r3, #8]
 417              		.loc 1 560 0
 418 0062 3AB1     		cbz	r2, .L75
 419              		.loc 1 564 0
 420 0064 3122     		movs	r2, #49
 421 0066 1A62     		str	r2, [r3, #32]
 422              	.LVL26:
 423              	.L70:
 424              		.loc 1 569 0
 425 0068 03F13402 		add	r2, r3, #52
 426              		.loc 1 570 0
 427 006c 3833     		adds	r3, r3, #56
 428              		.loc 1 569 0
 429 006e 2261     		str	r2, [r4, #16]
 430              		.loc 1 570 0
 431 0070 6361     		str	r3, [r4, #20]
 432 0072 F8BD     		pop	{r3, r4, r5, r6, r7, pc}
 433              	.LVL27:
 434              	.L75:
 435              		.loc 1 561 0
 436 0074 1322     		movs	r2, #19
 437 0076 1A62     		str	r2, [r3, #32]
 438              	.LVL28:
 439 0078 F6E7     		b	.L70
 440              	.LVL29:
 441              	.L74:
 442              		.loc 1 536 0
 443 007a 3122     		movs	r2, #49
 444 007c 1A62     		str	r2, [r3, #32]
 445              	.LVL30:
 446 007e E5E7     		b	.L67
 447              	.LVL31:
 448              	.L73:
 449              		.loc 1 458 0
 450 0080 0B4B     		ldr	r3, .L77
 451 0082 9842     		cmp	r0, r3
 452 0084 01D0     		beq	.L76
 453              	.LVL32:
 454              	.L72:
 455 0086 E368     		ldr	r3, [r4, #12]
 456 0088 C5E7     		b	.L64
ARM GAS  C:\Users\Grillmo\AppData\Local\Temp\cc0u2Dxk.s 			page 9


 457              	.LVL33:
 458              	.L76:
 459              		.loc 1 459 0
 460 008a 0A4B     		ldr	r3, .L77+4
 461 008c 1A6C     		ldr	r2, [r3, #64]
 462 008e 42F00202 		orr	r2, r2, #2
 463 0092 1A64     		str	r2, [r3, #64]
 464              		.loc 1 460 0
 465 0094 1A6A     		ldr	r2, [r3, #32]
 466 0096 0020     		movs	r0, #0
 467              	.LVL34:
 468 0098 42F00202 		orr	r2, r2, #2
 469 009c 1A62     		str	r2, [r3, #32]
 470              		.loc 1 461 0
 471 009e 0721     		movs	r1, #7
 472              		.loc 1 460 0
 473 00a0 1862     		str	r0, [r3, #32]
 474              		.loc 1 461 0
 475 00a2 1D20     		movs	r0, #29
 476 00a4 FFF7FEFF 		bl	nvicEnableVector
 477              	.LVL35:
 478              		.loc 1 462 0
 479 00a8 034B     		ldr	r3, .L77+8
 480 00aa A360     		str	r3, [r4, #8]
 481 00ac EBE7     		b	.L72
 482              	.L78:
 483 00ae 00BF     		.align	2
 484              	.L77:
 485 00b0 00000000 		.word	.LANCHOR0
 486 00b4 00380240 		.word	1073887232
 487 00b8 00BD0105 		.word	84000000
 488              		.cfi_endproc
 489              	.LFE260:
 490              		.size	icu_lld_start, .-icu_lld_start
 491              		.section	.text.icu_lld_stop,"ax",%progbits
 492              		.align	1
 493              		.p2align 4,,15
 494              		.global	icu_lld_stop
 495              		.syntax unified
 496              		.thumb
 497              		.thumb_func
 498              		.fpu fpv4-sp-d16
 499              		.type	icu_lld_stop, %function
 500              	icu_lld_stop:
 501              	.LFB261:
 502              		.loc 1 581 0
 503              		.cfi_startproc
 504              		@ args = 0, pretend = 0, frame = 0
 505              		@ frame_needed = 0, uses_anonymous_args = 0
 506              	.LVL36:
 507 0000 08B5     		push	{r3, lr}
 508              		.cfi_def_cfa_offset 8
 509              		.cfi_offset 3, -8
 510              		.cfi_offset 14, -4
 511              		.loc 1 583 0
 512 0002 0378     		ldrb	r3, [r0]	@ zero_extendqisi2
 513 0004 022B     		cmp	r3, #2
ARM GAS  C:\Users\Grillmo\AppData\Local\Temp\cc0u2Dxk.s 			page 10


 514 0006 00D0     		beq	.L84
 515              	.LVL37:
 516              	.L79:
 517 0008 08BD     		pop	{r3, pc}
 518              	.LVL38:
 519              	.L84:
 520              		.loc 1 603 0
 521 000a 0849     		ldr	r1, .L85
 522              		.loc 1 585 0
 523 000c C368     		ldr	r3, [r0, #12]
 524 000e 0022     		movs	r2, #0
 525              		.loc 1 603 0
 526 0010 8842     		cmp	r0, r1
 527              		.loc 1 585 0
 528 0012 1A60     		str	r2, [r3]
 529              		.loc 1 586 0
 530 0014 DA60     		str	r2, [r3, #12]
 531              		.loc 1 587 0
 532 0016 1A61     		str	r2, [r3, #16]
 533              		.loc 1 603 0
 534 0018 F6D1     		bne	.L79
 535              		.loc 1 604 0
 536 001a 1D20     		movs	r0, #29
 537              	.LVL39:
 538 001c FFF7FEFF 		bl	nvicDisableVector
 539              	.LVL40:
 540              		.loc 1 605 0
 541 0020 034A     		ldr	r2, .L85+4
 542 0022 136C     		ldr	r3, [r2, #64]
 543 0024 23F00203 		bic	r3, r3, #2
 544 0028 1364     		str	r3, [r2, #64]
 545              		.loc 1 634 0
 546 002a EDE7     		b	.L79
 547              	.L86:
 548              		.align	2
 549              	.L85:
 550 002c 00000000 		.word	.LANCHOR0
 551 0030 00380240 		.word	1073887232
 552              		.cfi_endproc
 553              	.LFE261:
 554              		.size	icu_lld_stop, .-icu_lld_stop
 555              		.section	.text.icu_lld_start_capture,"ax",%progbits
 556              		.align	1
 557              		.p2align 4,,15
 558              		.global	icu_lld_start_capture
 559              		.syntax unified
 560              		.thumb
 561              		.thumb_func
 562              		.fpu fpv4-sp-d16
 563              		.type	icu_lld_start_capture, %function
 564              	icu_lld_start_capture:
 565              	.LFB262:
 566              		.loc 1 643 0
 567              		.cfi_startproc
 568              		@ args = 0, pretend = 0, frame = 0
 569              		@ frame_needed = 0, uses_anonymous_args = 0
 570              		@ link register save eliminated.
ARM GAS  C:\Users\Grillmo\AppData\Local\Temp\cc0u2Dxk.s 			page 11


 571              	.LVL41:
 572              		.loc 1 646 0
 573 0000 C368     		ldr	r3, [r0, #12]
 574 0002 5A69     		ldr	r2, [r3, #20]
 575              		.loc 1 647 0
 576 0004 0020     		movs	r0, #0
 577              	.LVL42:
 578              		.loc 1 646 0
 579 0006 42F00102 		orr	r2, r2, #1
 580              		.loc 1 650 0
 581 000a 0521     		movs	r1, #5
 582              		.loc 1 646 0
 583 000c 5A61     		str	r2, [r3, #20]
 584              		.loc 1 647 0
 585 000e 1861     		str	r0, [r3, #16]
 586              		.loc 1 650 0
 587 0010 1960     		str	r1, [r3]
 588 0012 7047     		bx	lr
 589              		.cfi_endproc
 590              	.LFE262:
 591              		.size	icu_lld_start_capture, .-icu_lld_start_capture
 592              		.section	.text.icu_lld_wait_capture,"ax",%progbits
 593              		.align	1
 594              		.p2align 4,,15
 595              		.global	icu_lld_wait_capture
 596              		.syntax unified
 597              		.thumb
 598              		.thumb_func
 599              		.fpu fpv4-sp-d16
 600              		.type	icu_lld_wait_capture, %function
 601              	icu_lld_wait_capture:
 602              	.LFB263:
 603              		.loc 1 665 0
 604              		.cfi_startproc
 605              		@ args = 0, pretend = 0, frame = 0
 606              		@ frame_needed = 0, uses_anonymous_args = 0
 607              	.LVL43:
 608 0000 38B5     		push	{r3, r4, r5, lr}
 609              		.cfi_def_cfa_offset 16
 610              		.cfi_offset 3, -16
 611              		.cfi_offset 4, -12
 612              		.cfi_offset 5, -8
 613              		.cfi_offset 14, -4
 614              		.loc 1 669 0
 615 0002 0378     		ldrb	r3, [r0]	@ zero_extendqisi2
 616 0004 032B     		cmp	r3, #3
 617              		.loc 1 670 0
 618 0006 00F10C05 		add	r5, r0, #12
 619 000a 00F10404 		add	r4, r0, #4
 620              		.loc 1 669 0
 621 000e 05D0     		beq	.L89
 622              	.LVL44:
 623              	.L90:
 624              		.loc 1 674 0
 625 0010 2946     		mov	r1, r5
 626 0012 2046     		mov	r0, r4
 627              		.loc 1 675 0
ARM GAS  C:\Users\Grillmo\AppData\Local\Temp\cc0u2Dxk.s 			page 12


 628 0014 BDE83840 		pop	{r3, r4, r5, lr}
 629              		.cfi_remember_state
 630              		.cfi_restore 14
 631              		.cfi_restore 5
 632              		.cfi_restore 4
 633              		.cfi_restore 3
 634              		.cfi_def_cfa_offset 0
 635              	.LVL45:
 636              		.loc 1 674 0
 637 0018 FFF7FEBF 		b	icu_lld_wait_edge.isra.0
 638              	.LVL46:
 639              	.L89:
 640              		.cfi_restore_state
 641              		.loc 1 670 0
 642 001c 2946     		mov	r1, r5
 643 001e 2046     		mov	r0, r4
 644              	.LVL47:
 645 0020 FFF7FEFF 		bl	icu_lld_wait_edge.isra.0
 646              	.LVL48:
 647 0024 0028     		cmp	r0, #0
 648 0026 F3D0     		beq	.L90
 649              		.loc 1 675 0
 650 0028 38BD     		pop	{r3, r4, r5, pc}
 651              		.cfi_endproc
 652              	.LFE263:
 653              		.size	icu_lld_wait_capture, .-icu_lld_wait_capture
 654 002a 00BF     		.section	.text.icu_lld_stop_capture,"ax",%progbits
 655              		.align	1
 656              		.p2align 4,,15
 657              		.global	icu_lld_stop_capture
 658              		.syntax unified
 659              		.thumb
 660              		.thumb_func
 661              		.fpu fpv4-sp-d16
 662              		.type	icu_lld_stop_capture, %function
 663              	icu_lld_stop_capture:
 664              	.LFB264:
 665              		.loc 1 684 0
 666              		.cfi_startproc
 667              		@ args = 0, pretend = 0, frame = 0
 668              		@ frame_needed = 0, uses_anonymous_args = 0
 669              		@ link register save eliminated.
 670              	.LVL49:
 671              		.loc 1 687 0
 672 0000 C368     		ldr	r3, [r0, #12]
 673 0002 0022     		movs	r2, #0
 674 0004 1A60     		str	r2, [r3]
 675              		.loc 1 690 0
 676 0006 DA68     		ldr	r2, [r3, #12]
 677 0008 22F0FF02 		bic	r2, r2, #255
 678 000c DA60     		str	r2, [r3, #12]
 679 000e 7047     		bx	lr
 680              		.cfi_endproc
 681              	.LFE264:
 682              		.size	icu_lld_stop_capture, .-icu_lld_stop_capture
 683              		.section	.text.icu_lld_enable_notifications,"ax",%progbits
 684              		.align	1
ARM GAS  C:\Users\Grillmo\AppData\Local\Temp\cc0u2Dxk.s 			page 13


 685              		.p2align 4,,15
 686              		.global	icu_lld_enable_notifications
 687              		.syntax unified
 688              		.thumb
 689              		.thumb_func
 690              		.fpu fpv4-sp-d16
 691              		.type	icu_lld_enable_notifications, %function
 692              	icu_lld_enable_notifications:
 693              	.LFB265:
 694              		.loc 1 702 0
 695              		.cfi_startproc
 696              		@ args = 0, pretend = 0, frame = 0
 697              		@ frame_needed = 0, uses_anonymous_args = 0
 698              		@ link register save eliminated.
 699              	.LVL50:
 700              		.loc 1 703 0
 701 0000 C268     		ldr	r2, [r0, #12]
 702 0002 D368     		ldr	r3, [r2, #12]
 703              	.LVL51:
 704              		.loc 1 702 0
 705 0004 10B4     		push	{r4}
 706              		.cfi_def_cfa_offset 4
 707              		.cfi_offset 4, -4
 708              		.loc 1 708 0
 709 0006 13F0FF04 		ands	r4, r3, #255
 710 000a 0CD1     		bne	.L96
 711              		.loc 1 712 0
 712 000c 4168     		ldr	r1, [r0, #4]
 713              		.loc 1 710 0
 714 000e 1461     		str	r4, [r2, #16]
 715              		.loc 1 712 0
 716 0010 087D     		ldrb	r0, [r1, #20]	@ zero_extendqisi2
 717              	.LVL52:
 718 0012 58B1     		cbz	r0, .L107
 719              	.LVL53:
 720              		.loc 1 725 0
 721 0014 8868     		ldr	r0, [r1, #8]
 722 0016 78B1     		cbz	r0, .L108
 723              	.LVL54:
 724              	.L101:
 725              		.loc 1 726 0
 726 0018 43F00603 		orr	r3, r3, #6
 727              	.LVL55:
 728              	.L100:
 729              		.loc 1 731 0
 730 001c 0969     		ldr	r1, [r1, #16]
 731 001e 09B1     		cbz	r1, .L102
 732              		.loc 1 732 0
 733 0020 43F00103 		orr	r3, r3, #1
 734              	.LVL56:
 735              	.L102:
 736              		.loc 1 735 0
 737 0024 D360     		str	r3, [r2, #12]
 738              	.L96:
 739              		.loc 1 737 0
 740 0026 5DF8044B 		ldr	r4, [sp], #4
 741              		.cfi_remember_state
ARM GAS  C:\Users\Grillmo\AppData\Local\Temp\cc0u2Dxk.s 			page 14


 742              		.cfi_restore 4
 743              		.cfi_def_cfa_offset 0
 744 002a 7047     		bx	lr
 745              	.L107:
 746              		.cfi_restore_state
 747              	.LVL57:
 748              		.loc 1 717 0
 749 002c 8868     		ldr	r0, [r1, #8]
 750 002e 0028     		cmp	r0, #0
 751 0030 F2D1     		bne	.L101
 752              		.loc 1 714 0
 753 0032 43F00203 		orr	r3, r3, #2
 754              	.LVL58:
 755 0036 F1E7     		b	.L100
 756              	.LVL59:
 757              	.L108:
 758              		.loc 1 722 0
 759 0038 43F00403 		orr	r3, r3, #4
 760              	.LVL60:
 761 003c EEE7     		b	.L100
 762              		.cfi_endproc
 763              	.LFE265:
 764              		.size	icu_lld_enable_notifications, .-icu_lld_enable_notifications
 765 003e 00BF     		.section	.text.icu_lld_disable_notifications,"ax",%progbits
 766              		.align	1
 767              		.p2align 4,,15
 768              		.global	icu_lld_disable_notifications
 769              		.syntax unified
 770              		.thumb
 771              		.thumb_func
 772              		.fpu fpv4-sp-d16
 773              		.type	icu_lld_disable_notifications, %function
 774              	icu_lld_disable_notifications:
 775              	.LFB266:
 776              		.loc 1 748 0
 777              		.cfi_startproc
 778              		@ args = 0, pretend = 0, frame = 0
 779              		@ frame_needed = 0, uses_anonymous_args = 0
 780              		@ link register save eliminated.
 781              	.LVL61:
 782              		.loc 1 751 0
 783 0000 C268     		ldr	r2, [r0, #12]
 784 0002 D368     		ldr	r3, [r2, #12]
 785 0004 23F0FF03 		bic	r3, r3, #255
 786 0008 D360     		str	r3, [r2, #12]
 787 000a 7047     		bx	lr
 788              		.cfi_endproc
 789              	.LFE266:
 790              		.size	icu_lld_disable_notifications, .-icu_lld_disable_notifications
 791              		.global	ICUD3
 792              		.section	.bss.ICUD3,"aw",%nobits
 793              		.align	2
 794              		.set	.LANCHOR0,. + 0
 795              		.type	ICUD3, %object
 796              		.size	ICUD3, 24
 797              	ICUD3:
 798 0000 00000000 		.space	24
ARM GAS  C:\Users\Grillmo\AppData\Local\Temp\cc0u2Dxk.s 			page 15


 798      00000000 
 798      00000000 
 798      00000000 
 798      00000000 
 799              		.text
 800              	.Letext0:
 801              		.file 3 "c:\\chibistudio\\tools\\gnu tools arm embedded\\6.3 2017q1\\lib\\gcc\\arm-none-eabi\\6.3.
 802              		.file 4 "c:\\chibistudio\\tools\\gnu tools arm embedded\\6.3 2017q1\\arm-none-eabi\\include\\machi
 803              		.file 5 "c:\\chibistudio\\tools\\gnu tools arm embedded\\6.3 2017q1\\arm-none-eabi\\include\\sys\\
 804              		.file 6 "ChibiOS_3.0.2/os/rt/ports/ARMCMx/compilers/GCC/chtypes.h"
 805              		.file 7 "ChibiOS_3.0.2/os/rt/include/chsystypes.h"
 806              		.file 8 "ChibiOS_3.0.2/os/rt/include/chschd.h"
 807              		.file 9 "ChibiOS_3.0.2/os/ext/CMSIS/include/core_cm4.h"
 808              		.file 10 "ChibiOS_3.0.2/os/ext/CMSIS/ST/system_stm32f4xx.h"
 809              		.file 11 "ChibiOS_3.0.2/os/ext/CMSIS/ST/stm32f407xx.h"
 810              		.file 12 "ChibiOS_3.0.2/os/rt/ports/ARMCMx/chcore.h"
 811              		.file 13 "ChibiOS_3.0.2/os/rt/ports/ARMCMx/chcore_v7m.h"
 812              		.file 14 "ChibiOS_3.0.2/os/rt/include/chtm.h"
 813              		.file 15 "ChibiOS_3.0.2/os/rt/include/chsem.h"
 814              		.file 16 "ChibiOS_3.0.2/os/rt/include/chmtx.h"
 815              		.file 17 "ChibiOS_3.0.2/os/rt/include/chregistry.h"
 816              		.file 18 "ChibiOS_3.0.2/os/rt/include/chevents.h"
 817              		.file 19 "ChibiOS_3.0.2/os/rt/include/chqueues.h"
 818              		.file 20 "./conf_general.h"
 819              		.file 21 "ChibiOS_3.0.2/os/hal/ports/STM32/STM32F4xx/stm32_dma.h"
 820              		.file 22 "ChibiOS_3.0.2/os/hal/ports/STM32/LLD/GPIOv2/pal_lld.h"
 821              		.file 23 "ChibiOS_3.0.2/os/hal/include/can.h"
 822              		.file 24 "ChibiOS_3.0.2/os/hal/ports/STM32/LLD/can_lld.h"
 823              		.file 25 "ChibiOS_3.0.2/os/hal/include/i2c.h"
 824              		.file 26 "ChibiOS_3.0.2/os/hal/ports/STM32/LLD/I2Cv1/i2c_lld.h"
 825              		.file 27 "ChibiOS_3.0.2/os/hal/include/icu.h"
 826              		.file 28 "ChibiOS_3.0.2/os/hal/ports/STM32/LLD/TIMv1/icu_lld.h"
 827              		.file 29 "ChibiOS_3.0.2/os/hal/ports/STM32/LLD/TIMv1/stm32_tim.h"
 828              		.file 30 "ChibiOS_3.0.2/os/hal/include/spi.h"
 829              		.file 31 "ChibiOS_3.0.2/os/hal/ports/STM32/LLD/SPIv1/spi_lld.h"
 830              		.file 32 "ChibiOS_3.0.2/os/hal/include/uart.h"
 831              		.file 33 "ChibiOS_3.0.2/os/hal/ports/STM32/LLD/USARTv1/uart_lld.h"
 832              		.file 34 "ChibiOS_3.0.2/os/hal/include/usb.h"
 833              		.file 35 "ChibiOS_3.0.2/os/hal/ports/STM32/LLD/OTGv1/usb_lld.h"
 834              		.file 36 "ChibiOS_3.0.2/os/hal/ports/STM32/LLD/OTGv1/stm32_otg.h"
 835              		.file 37 "ChibiOS_3.0.2/os/rt/include/chsys.h"
 836              		.file 38 "ChibiOS_3.0.2/os/hal/ports/common/ARMCMx/nvic.h"