ARM GAS  /var/tmp//ccvaCwy5.s 			page 1


   1              		.cpu cortex-m4
   2              		.eabi_attribute 27, 1
   3              		.eabi_attribute 28, 1
   4              		.eabi_attribute 20, 1
   5              		.eabi_attribute 21, 1
   6              		.eabi_attribute 23, 3
   7              		.eabi_attribute 24, 1
   8              		.eabi_attribute 25, 1
   9              		.eabi_attribute 26, 1
  10              		.eabi_attribute 30, 2
  11              		.eabi_attribute 34, 1
  12              		.eabi_attribute 18, 4
  13              		.file	"irq_handlers.c"
  14              		.text
  15              	.Ltext0:
  16              		.cfi_sections	.debug_frame
  17              		.section	.text.Vector88,"ax",%progbits
  18              		.align	1
  19              		.p2align 4,,15
  20              		.global	Vector88
  21              		.syntax unified
  22              		.thumb
  23              		.thumb_func
  24              		.fpu fpv4-sp-d16
  25              		.type	Vector88, %function
  26              	Vector88:
  27              	.LFB256:
  28              		.file 1 "irq_handlers.c"
  29              		.loc 1 39 0
  30              		.cfi_startproc
  31              		@ args = 0, pretend = 0, frame = 0
  32              		@ frame_needed = 0, uses_anonymous_args = 0
  33 0000 08B5     		push	{r3, lr}
  34              		.cfi_def_cfa_offset 8
  35              		.cfi_offset 3, -8
  36              		.cfi_offset 14, -4
  37              		.loc 1 41 0
  38 0002 40F20741 		movw	r1, #1031
  39 0006 0448     		ldr	r0, .L3
  40 0008 FFF7FEFF 		bl	ADC_ClearITPendingBit
  41              	.LVL0:
  42              		.loc 1 42 0
  43 000c FFF7FEFF 		bl	mc_interface_adc_inj_int_handler
  44              	.LVL1:
  45              		.loc 1 44 0
  46 0010 BDE80840 		pop	{r3, lr}
  47              		.cfi_restore 14
  48              		.cfi_restore 3
  49              		.cfi_def_cfa_offset 0
  50              		.loc 1 43 0
  51 0014 FFF7FEBF 		b	_port_irq_epilogue
  52              	.LVL2:
  53              	.L4:
  54              		.align	2
  55              	.L3:
  56 0018 00200140 		.word	1073815552
  57              		.cfi_endproc
ARM GAS  /var/tmp//ccvaCwy5.s 			page 2


  58              	.LFE256:
  59              		.size	Vector88, .-Vector88
  60              		.section	.text.VectorE0,"ax",%progbits
  61              		.align	1
  62              		.p2align 4,,15
  63              		.global	VectorE0
  64              		.syntax unified
  65              		.thumb
  66              		.thumb_func
  67              		.fpu fpv4-sp-d16
  68              		.type	VectorE0, %function
  69              	VectorE0:
  70              	.LFB257:
  71              		.loc 1 46 0
  72              		.cfi_startproc
  73              		@ args = 0, pretend = 0, frame = 0
  74              		@ frame_needed = 0, uses_anonymous_args = 0
  75 0000 08B5     		push	{r3, lr}
  76              		.cfi_def_cfa_offset 8
  77              		.cfi_offset 3, -8
  78              		.cfi_offset 14, -4
  79              		.loc 1 47 0
  80 0002 4FF40060 		mov	r0, #2048
  81 0006 FFF7FEFF 		bl	EXTI_GetITStatus
  82              	.LVL3:
  83 000a 00B9     		cbnz	r0, .L9
  84 000c 08BD     		pop	{r3, pc}
  85              	.L9:
  86              		.loc 1 48 0
  87 000e FFF7FEFF 		bl	encoder_reset
  88              	.LVL4:
  89              		.loc 1 51 0
  90 0012 4FF40060 		mov	r0, #2048
  91              		.loc 1 53 0
  92 0016 BDE80840 		pop	{r3, lr}
  93              		.cfi_restore 14
  94              		.cfi_restore 3
  95              		.cfi_def_cfa_offset 0
  96              		.loc 1 51 0
  97 001a FFF7FEBF 		b	EXTI_ClearITPendingBit
  98              	.LVL5:
  99              		.cfi_endproc
 100              	.LFE257:
 101              		.size	VectorE0, .-VectorE0
 102 001e 00BF     		.section	.text.VectorB8,"ax",%progbits
 103              		.align	1
 104              		.p2align 4,,15
 105              		.global	VectorB8
 106              		.syntax unified
 107              		.thumb
 108              		.thumb_func
 109              		.fpu fpv4-sp-d16
 110              		.type	VectorB8, %function
 111              	VectorB8:
 112              	.LFB258:
 113              		.loc 1 55 0
 114              		.cfi_startproc
ARM GAS  /var/tmp//ccvaCwy5.s 			page 3


 115              		@ args = 0, pretend = 0, frame = 0
 116              		@ frame_needed = 0, uses_anonymous_args = 0
 117 0000 08B5     		push	{r3, lr}
 118              		.cfi_def_cfa_offset 8
 119              		.cfi_offset 3, -8
 120              		.cfi_offset 14, -4
 121              		.loc 1 56 0
 122 0002 0121     		movs	r1, #1
 123 0004 0648     		ldr	r0, .L14
 124 0006 FFF7FEFF 		bl	TIM_GetITStatus
 125              	.LVL6:
 126 000a 00B9     		cbnz	r0, .L13
 127 000c 08BD     		pop	{r3, pc}
 128              	.L13:
 129              		.loc 1 57 0
 130 000e FFF7FEFF 		bl	encoder_tim_isr
 131              	.LVL7:
 132              		.loc 1 60 0
 133 0012 0121     		movs	r1, #1
 134 0014 0248     		ldr	r0, .L14
 135              		.loc 1 62 0
 136 0016 BDE80840 		pop	{r3, lr}
 137              		.cfi_restore 14
 138              		.cfi_restore 3
 139              		.cfi_def_cfa_offset 0
 140              		.loc 1 60 0
 141 001a FFF7FEBF 		b	TIM_ClearITPendingBit
 142              	.LVL8:
 143              	.L15:
 144 001e 00BF     		.align	2
 145              	.L14:
 146 0020 00080040 		.word	1073743872
 147              		.cfi_endproc
 148              	.LFE258:
 149              		.size	VectorB8, .-VectorB8
 150              		.section	.text.VectorF8,"ax",%progbits
 151              		.align	1
 152              		.p2align 4,,15
 153              		.global	VectorF8
 154              		.syntax unified
 155              		.thumb
 156              		.thumb_func
 157              		.fpu fpv4-sp-d16
 158              		.type	VectorF8, %function
 159              	VectorF8:
 160              	.LFB259:
 161              		.loc 1 64 0
 162              		.cfi_startproc
 163              		@ args = 0, pretend = 0, frame = 0
 164              		@ frame_needed = 0, uses_anonymous_args = 0
 165 0000 08B5     		push	{r3, lr}
 166              		.cfi_def_cfa_offset 8
 167              		.cfi_offset 3, -8
 168              		.cfi_offset 14, -4
 169              		.loc 1 65 0
 170 0002 0221     		movs	r1, #2
 171 0004 0648     		ldr	r0, .L20
ARM GAS  /var/tmp//ccvaCwy5.s 			page 4


 172 0006 FFF7FEFF 		bl	TIM_GetITStatus
 173              	.LVL9:
 174 000a 00B9     		cbnz	r0, .L19
 175 000c 08BD     		pop	{r3, pc}
 176              	.L19:
 177              		.loc 1 66 0
 178 000e FFF7FEFF 		bl	mcpwm_foc_tim_sample_int_handler
 179              	.LVL10:
 180              		.loc 1 69 0
 181 0012 0221     		movs	r1, #2
 182 0014 0248     		ldr	r0, .L20
 183              		.loc 1 71 0
 184 0016 BDE80840 		pop	{r3, lr}
 185              		.cfi_restore 14
 186              		.cfi_restore 3
 187              		.cfi_def_cfa_offset 0
 188              		.loc 1 69 0
 189 001a FFF7FEBF 		b	TIM_ClearITPendingBit
 190              	.LVL11:
 191              	.L21:
 192 001e 00BF     		.align	2
 193              	.L20:
 194 0020 00040140 		.word	1073808384
 195              		.cfi_endproc
 196              	.LFE259:
 197              		.size	VectorF8, .-VectorF8
 198              		.text
 199              	.Letext0:
 200              		.file 2 "/usr/local/gcc_arm/gcc-arm-none-eabi-6-2017-q2-update/lib/gcc/arm-none-eabi/6.3.1/include
 201              		.file 3 "/usr/local/gcc_arm/gcc-arm-none-eabi-6-2017-q2-update/arm-none-eabi/include/machine/_defa
 202              		.file 4 "/usr/local/gcc_arm/gcc-arm-none-eabi-6-2017-q2-update/arm-none-eabi/include/sys/_stdint.h
 203              		.file 5 "ChibiOS_3.0.2/os/rt/ports/ARMCMx/compilers/GCC/chtypes.h"
 204              		.file 6 "ChibiOS_3.0.2/os/rt/include/chsystypes.h"
 205              		.file 7 "ChibiOS_3.0.2/os/rt/include/chschd.h"
 206              		.file 8 "ChibiOS_3.0.2/os/ext/CMSIS/include/core_cm4.h"
 207              		.file 9 "ChibiOS_3.0.2/os/ext/CMSIS/ST/system_stm32f4xx.h"
 208              		.file 10 "ChibiOS_3.0.2/os/ext/CMSIS/ST/stm32f407xx.h"
 209              		.file 11 "ChibiOS_3.0.2/os/rt/ports/ARMCMx/chcore.h"
 210              		.file 12 "ChibiOS_3.0.2/os/rt/ports/ARMCMx/chcore_v7m.h"
 211              		.file 13 "ChibiOS_3.0.2/os/rt/include/chtm.h"
 212              		.file 14 "ChibiOS_3.0.2/os/rt/include/chsem.h"
 213              		.file 15 "ChibiOS_3.0.2/os/rt/include/chmtx.h"
 214              		.file 16 "ChibiOS_3.0.2/os/rt/include/chregistry.h"
 215              		.file 17 "ChibiOS_3.0.2/os/rt/include/chevents.h"
 216              		.file 18 "ChibiOS_3.0.2/os/rt/include/chqueues.h"
 217              		.file 19 "./conf_general.h"
 218              		.file 20 "ChibiOS_3.0.2/os/hal/ports/STM32/STM32F4xx/stm32_dma.h"
 219              		.file 21 "ChibiOS_3.0.2/os/hal/ports/STM32/LLD/GPIOv2/pal_lld.h"
 220              		.file 22 "ChibiOS_3.0.2/os/ext/CMSIS/ST/stm32f4xx.h"
 221              		.file 23 "ChibiOS_3.0.2/os/hal/include/can.h"
 222              		.file 24 "ChibiOS_3.0.2/os/hal/ports/STM32/LLD/can_lld.h"
 223              		.file 25 "ChibiOS_3.0.2/os/hal/include/i2c.h"
 224              		.file 26 "ChibiOS_3.0.2/os/hal/ports/STM32/LLD/I2Cv1/i2c_lld.h"
 225              		.file 27 "ChibiOS_3.0.2/os/hal/include/icu.h"
 226              		.file 28 "ChibiOS_3.0.2/os/hal/ports/STM32/LLD/TIMv1/icu_lld.h"
 227              		.file 29 "ChibiOS_3.0.2/os/hal/ports/STM32/LLD/TIMv1/stm32_tim.h"
 228              		.file 30 "ChibiOS_3.0.2/os/hal/include/spi.h"
ARM GAS  /var/tmp//ccvaCwy5.s 			page 5


 229              		.file 31 "ChibiOS_3.0.2/os/hal/ports/STM32/LLD/SPIv1/spi_lld.h"
 230              		.file 32 "ChibiOS_3.0.2/os/hal/include/uart.h"
 231              		.file 33 "ChibiOS_3.0.2/os/hal/ports/STM32/LLD/USARTv1/uart_lld.h"
 232              		.file 34 "ChibiOS_3.0.2/os/hal/include/usb.h"
 233              		.file 35 "ChibiOS_3.0.2/os/hal/ports/STM32/LLD/OTGv1/usb_lld.h"
 234              		.file 36 "ChibiOS_3.0.2/os/hal/ports/STM32/LLD/OTGv1/stm32_otg.h"
 235              		.file 37 "mc_interface.h"
 236              		.file 38 "servo.h"
 237              		.file 39 "ChibiOS_3.0.2/ext/stdperiph_stm32f4/inc/stm32f4xx_tim.h"
 238              		.file 40 "mcpwm_foc.h"
 239              		.file 41 "encoder.h"
 240              		.file 42 "ChibiOS_3.0.2/ext/stdperiph_stm32f4/inc/stm32f4xx_exti.h"
 241              		.file 43 "ChibiOS_3.0.2/ext/stdperiph_stm32f4/inc/stm32f4xx_adc.h"