ARM GAS  /var/tmp//ccSXCw8b.s 			page 1


   1              		.cpu cortex-m4
   2              		.eabi_attribute 27, 1
   3              		.eabi_attribute 28, 1
   4              		.eabi_attribute 20, 1
   5              		.eabi_attribute 21, 1
   6              		.eabi_attribute 23, 3
   7              		.eabi_attribute 24, 1
   8              		.eabi_attribute 25, 1
   9              		.eabi_attribute 26, 1
  10              		.eabi_attribute 30, 2
  11              		.eabi_attribute 34, 1
  12              		.eabi_attribute 18, 4
  13              		.file	"led_external.c"
  14              		.text
  15              	.Ltext0:
  16              		.cfi_sections	.debug_frame
  17              		.section	.text.wait_for_state_change,"ax",%progbits
  18              		.align	1
  19              		.p2align 4,,15
  20              		.syntax unified
  21              		.thumb
  22              		.thumb_func
  23              		.fpu fpv4-sp-d16
  24              		.type	wait_for_state_change, %function
  25              	wait_for_state_change:
  26              	.LFB261:
  27              		.file 1 "led_external.c"
  28              		.loc 1 201 0
  29              		.cfi_startproc
  30              		@ args = 0, pretend = 0, frame = 0
  31              		@ frame_needed = 0, uses_anonymous_args = 0
  32 0000 F8B5     		push	{r3, r4, r5, r6, r7, lr}
  33              		.cfi_def_cfa_offset 24
  34              		.cfi_offset 3, -24
  35              		.cfi_offset 4, -20
  36              		.cfi_offset 5, -16
  37              		.cfi_offset 6, -12
  38              		.cfi_offset 7, -8
  39              		.cfi_offset 14, -4
  40              		.loc 1 202 0
  41 0002 0E4E     		ldr	r6, .L10
  42              		.loc 1 203 0
  43 0004 0E4F     		ldr	r7, .L10+4
  44              		.loc 1 202 0
  45 0006 3478     		ldrb	r4, [r6]	@ zero_extendqisi2
  46              		.loc 1 203 0
  47 0008 3D78     		ldrb	r5, [r7]	@ zero_extendqisi2
  48              		.loc 1 204 0
  49 000a 3378     		ldrb	r3, [r6]	@ zero_extendqisi2
  50              		.loc 1 202 0
  51 000c E4B2     		uxtb	r4, r4
  52              	.LVL0:
  53              		.loc 1 204 0
  54 000e 9C42     		cmp	r4, r3
  55 0010 11D1     		bne	.L1
  56 0012 3B78     		ldrb	r3, [r7]	@ zero_extendqisi2
  57 0014 EDB2     		uxtb	r5, r5
ARM GAS  /var/tmp//ccSXCw8b.s 			page 2


  58 0016 9D42     		cmp	r5, r3
  59 0018 09D0     		beq	.L6
  60 001a 0DE0     		b	.L9
  61              	.L5:
  62              		.loc 1 205 0
  63 001c 6420     		movs	r0, #100
  64 001e FFF7FEFF 		bl	chThdSleep
  65              	.LVL1:
  66              		.loc 1 204 0
  67 0022 3378     		ldrb	r3, [r6]	@ zero_extendqisi2
  68 0024 9C42     		cmp	r4, r3
  69 0026 06D1     		bne	.L1
  70              		.loc 1 204 0 is_stmt 0 discriminator 1
  71 0028 3B78     		ldrb	r3, [r7]	@ zero_extendqisi2
  72 002a 9D42     		cmp	r5, r3
  73 002c 03D1     		bne	.L1
  74              	.L6:
  75              		.loc 1 204 0 discriminator 2
  76 002e FFF7FEFF 		bl	mc_interface_get_fault
  77              	.LVL2:
  78 0032 0028     		cmp	r0, #0
  79 0034 F2D0     		beq	.L5
  80              	.LVL3:
  81              	.L1:
  82 0036 F8BD     		pop	{r3, r4, r5, r6, r7, pc}
  83              	.LVL4:
  84              	.L9:
  85 0038 F8BD     		pop	{r3, r4, r5, r6, r7, pc}
  86              	.LVL5:
  87              	.L11:
  88 003a 00BF     		.align	2
  89              	.L10:
  90 003c 00000000 		.word	.LANCHOR0
  91 0040 00000000 		.word	.LANCHOR1
  92              		.cfi_endproc
  93              	.LFE261:
  94              		.size	wait_for_state_change, .-wait_for_state_change
  95              		.section	.text.set_led_wrapper,"ax",%progbits
  96              		.align	1
  97              		.p2align 4,,15
  98              		.syntax unified
  99              		.thumb
 100              		.thumb_func
 101              		.fpu fpv4-sp-d16
 102              		.type	set_led_wrapper, %function
 103              	set_led_wrapper:
 104              	.LFB262:
 105              		.loc 1 209 0 is_stmt 1
 106              		.cfi_startproc
 107              		@ args = 0, pretend = 0, frame = 0
 108              		@ frame_needed = 0, uses_anonymous_args = 0
 109              		@ link register save eliminated.
 110              	.LVL6:
 111              		.loc 1 210 0
 112 0000 064B     		ldr	r3, .L15
 113 0002 1A78     		ldrb	r2, [r3]	@ zero_extendqisi2
 114 0004 3AB1     		cbz	r2, .L13
ARM GAS  /var/tmp//ccSXCw8b.s 			page 3


 115              		.loc 1 211 0
 116 0006 0D28     		cmp	r0, #13
 117 0008 02DC     		bgt	.L14
 118              		.loc 1 212 0
 119 000a 0E30     		adds	r0, r0, #14
 120              	.LVL7:
 121 000c FFF7FEBF 		b	ws2811_set_led_color
 122              	.LVL8:
 123              	.L14:
 124              		.loc 1 214 0
 125 0010 0E38     		subs	r0, r0, #14
 126              	.LVL9:
 127 0012 FFF7FEBF 		b	ws2811_set_led_color
 128              	.LVL10:
 129              	.L13:
 130              		.loc 1 217 0
 131 0016 FFF7FEBF 		b	ws2811_set_led_color
 132              	.LVL11:
 133              	.L16:
 134 001a 00BF     		.align	2
 135              	.L15:
 136 001c 00000000 		.word	.LANCHOR1
 137              		.cfi_endproc
 138              	.LFE262:
 139              		.size	set_led_wrapper, .-set_led_wrapper
 140              		.section	.text.led_thread,"ax",%progbits
 141              		.align	1
 142              		.p2align 4,,15
 143              		.syntax unified
 144              		.thumb
 145              		.thumb_func
 146              		.fpu fpv4-sp-d16
 147              		.type	led_thread, %function
 148              	led_thread:
 149              	.LFB259:
 150              		.loc 1 56 0
 151              		.cfi_startproc
 152              		@ args = 0, pretend = 0, frame = 0
 153              		@ frame_needed = 0, uses_anonymous_args = 0
 154              	.LVL12:
 155 0000 2DE9F84F 		push	{r3, r4, r5, r6, r7, r8, r9, r10, fp, lr}
 156              		.cfi_def_cfa_offset 40
 157              		.cfi_offset 3, -40
 158              		.cfi_offset 4, -36
 159              		.cfi_offset 5, -32
 160              		.cfi_offset 6, -28
 161              		.cfi_offset 7, -24
 162              		.cfi_offset 8, -20
 163              		.cfi_offset 9, -16
 164              		.cfi_offset 10, -12
 165              		.cfi_offset 11, -8
 166              		.cfi_offset 14, -4
 167              	.LBB70:
 168              	.LBB71:
 169              		.file 2 "ChibiOS_3.0.2/os/rt/include/chregistry.h"
 170              		.loc 2 135 0
 171 0004 DFF884A3 		ldr	r10, .L80+48
ARM GAS  /var/tmp//ccSXCw8b.s 			page 4


 172 0008 D44A     		ldr	r2, .L80
 173 000a DAF81830 		ldr	r3, [r10, #24]
 174 000e D44E     		ldr	r6, .L80+4
 175 0010 DFF87C93 		ldr	r9, .L80+52
 176              	.LBE71:
 177              	.LBE70:
 178              		.loc 1 56 0
 179 0014 2DED068B 		vpush.64	{d8, d9, d10}
 180              		.cfi_def_cfa_offset 64
 181              		.cfi_offset 80, -64
 182              		.cfi_offset 81, -60
 183              		.cfi_offset 82, -56
 184              		.cfi_offset 83, -52
 185              		.cfi_offset 84, -48
 186              		.cfi_offset 85, -44
 187              	.LBB73:
 188              	.LBB72:
 189              		.loc 2 135 0
 190 0018 9A61     		str	r2, [r3, #24]
 191              	.LVL13:
 192              	.LBE72:
 193              	.LBE73:
 194              	.LBB74:
 195              		.loc 1 63 0
 196 001a FFF7FEFF 		bl	mc_interface_get_fault
 197              	.LVL14:
 198              	.LBB75:
 199              		.loc 1 157 0
 200 001e DFEDD1AA 		vldr.32	s21, .L80+8
 201 0022 9FEDD1AA 		vldr.32	s20, .L80+12
 202 0026 DFEDD18A 		vldr.32	s17, .L80+16
 203              	.LBE75:
 204              		.loc 1 64 0
 205 002a 0546     		mov	r5, r0
 206 002c 0028     		cmp	r0, #0
 207 002e 43D0     		beq	.L18
 208              	.LVL15:
 209              	.L72:
 210              	.LBB122:
 211              		.loc 1 65 0
 212 0030 0020     		movs	r0, #0
 213              	.LVL16:
 214 0032 FFF7FEFF 		bl	ws2811_set_all
 215              	.LVL17:
 216              	.LBB123:
 217              		.loc 1 66 0
 218 0036 0024     		movs	r4, #0
 219              	.LVL18:
 220              	.L19:
 221              		.loc 1 67 0 discriminator 3
 222 0038 2046     		mov	r0, r4
 223 003a 4FF47F01 		mov	r1, #16711680
 224 003e FFF7FEFF 		bl	set_led_wrapper
 225              	.LVL19:
 226              		.loc 1 66 0 discriminator 3
 227 0042 0134     		adds	r4, r4, #1
 228              	.LVL20:
ARM GAS  /var/tmp//ccSXCw8b.s 			page 5


 229              		.loc 1 68 0 discriminator 3
 230 0044 4FF4FA60 		mov	r0, #2000
 231 0048 FFF7FEFF 		bl	chThdSleep
 232              	.LVL21:
 233              		.loc 1 66 0 discriminator 3
 234 004c A542     		cmp	r5, r4
 235 004e F3D1     		bne	.L19
 236              	.LBE123:
 237              		.loc 1 71 0
 238 0050 42F21070 		movw	r0, #10000
 239 0054 FFF7FEFF 		bl	chThdSleep
 240              	.LVL22:
 241              	.LBB124:
 242              	.LBB125:
 243              		.loc 1 75 0
 244 0058 DFEDC59A 		vldr.32	s19, .L80+20
 245              	.LBB126:
 246              	.LBB127:
 247              		.loc 1 194 0
 248 005c 9FEDC59A 		vldr.32	s18, .L80+24
 249              	.LBE127:
 250              	.LBE126:
 251              	.LBE125:
 252              	.LBE124:
 253              		.loc 1 71 0
 254 0060 3227     		movs	r7, #50
 255              		.loc 1 73 0
 256 0062 B7EE008A 		vmov.f32	s16, #1.0e+0
 257              	.LVL23:
 258              	.L21:
 259              	.LBB133:
 260              	.LBB132:
 261              		.loc 1 75 0
 262 0066 38EE698A 		vsub.f32	s16, s16, s19
 263              	.LVL24:
 264              	.LBB129:
 265              		.loc 1 77 0
 266 006a 4FF00008 		mov	r8, #0
 267              	.LBE129:
 268              	.LBB130:
 269              	.LBB128:
 270              		.loc 1 195 0
 271 006e 68EE287A 		vmul.f32	s15, s16, s17
 272              		.loc 1 194 0
 273 0072 28EE097A 		vmul.f32	s14, s16, s18
 274              		.loc 1 195 0
 275 0076 FCEEE77A 		vcvt.u32.f32	s15, s15
 276 007a 17EE904A 		vmov	r4, s15	@ int
 277              	.LVL25:
 278              		.loc 1 194 0
 279 007e FCEEC77A 		vcvt.u32.f32	s15, s14
 280              		.loc 1 198 0
 281 0082 2202     		lsls	r2, r4, #8
 282              		.loc 1 194 0
 283 0084 17EE903A 		vmov	r3, s15	@ int
 284              		.loc 1 198 0
 285 0088 42EA0343 		orr	r3, r2, r3, lsl #16
ARM GAS  /var/tmp//ccSXCw8b.s 			page 6


 286 008c 1C43     		orrs	r4, r4, r3
 287              	.LVL26:
 288              	.L20:
 289              	.LBE128:
 290              	.LBE130:
 291              	.LBB131:
 292              		.loc 1 78 0 discriminator 3
 293 008e 4046     		mov	r0, r8
 294 0090 2146     		mov	r1, r4
 295              		.loc 1 77 0 discriminator 3
 296 0092 08F10108 		add	r8, r8, #1
 297              	.LVL27:
 298              		.loc 1 78 0 discriminator 3
 299 0096 FFF7FEFF 		bl	set_led_wrapper
 300              	.LVL28:
 301              		.loc 1 77 0 discriminator 3
 302 009a 4545     		cmp	r5, r8
 303 009c F7D1     		bne	.L20
 304              	.LBE131:
 305              		.loc 1 80 0 discriminator 2
 306 009e 6420     		movs	r0, #100
 307 00a0 FFF7FEFF 		bl	chThdSleep
 308              	.LVL29:
 309              	.LBE132:
 310              		.loc 1 74 0 discriminator 2
 311 00a4 013F     		subs	r7, r7, #1
 312              	.LVL30:
 313 00a6 DED1     		bne	.L21
 314              	.LVL31:
 315              	.L22:
 316              	.LBE133:
 317              	.LBE122:
 318              		.loc 1 185 0
 319 00a8 0A20     		movs	r0, #10
 320 00aa FFF7FEFF 		bl	chThdSleep
 321              	.LVL32:
 322              	.L76:
 323              		.loc 1 63 0
 324 00ae FFF7FEFF 		bl	mc_interface_get_fault
 325              	.LVL33:
 326              		.loc 1 64 0
 327 00b2 0546     		mov	r5, r0
 328 00b4 0028     		cmp	r0, #0
 329 00b6 BBD1     		bne	.L72
 330              	.L18:
 331              	.LBB134:
 332              		.loc 1 84 0
 333 00b8 3778     		ldrb	r7, [r6]	@ zero_extendqisi2
 334              		.loc 1 85 0
 335 00ba 99F80080 		ldrb	r8, [r9]	@ zero_extendqisi2
 336              		.loc 1 87 0
 337 00be 3378     		ldrb	r3, [r6]	@ zero_extendqisi2
 338              		.loc 1 84 0
 339 00c0 FFB2     		uxtb	r7, r7
 340              	.LVL34:
 341              		.loc 1 85 0
 342 00c2 5FFA88F8 		uxtb	r8, r8
ARM GAS  /var/tmp//ccSXCw8b.s 			page 7


 343              	.LVL35:
 344              		.loc 1 87 0
 345 00c6 072B     		cmp	r3, #7
 346 00c8 00F26E81 		bhi	.L23
 347 00cc DFE803F0 		tbb	[pc, r3]
 348              	.L25:
 349 00d0 93       		.byte	(.L24-.L25)/2
 350 00d1 81       		.byte	(.L26-.L25)/2
 351 00d2 6C       		.byte	(.L27-.L25)/2
 352 00d3 EB       		.byte	(.L28-.L25)/2
 353 00d4 9C       		.byte	(.L29-.L25)/2
 354 00d5 EB       		.byte	(.L28-.L25)/2
 355 00d6 9C       		.byte	(.L29-.L25)/2
 356 00d7 04       		.byte	(.L30-.L25)/2
 357              		.p2align 1
 358              	.L30:
 359              		.loc 1 156 0
 360 00d8 3378     		ldrb	r3, [r6]	@ zero_extendqisi2
 361 00da 9F42     		cmp	r7, r3
 362 00dc E4D1     		bne	.L22
 363 00de 99F80030 		ldrb	r3, [r9]	@ zero_extendqisi2
 364 00e2 9845     		cmp	r8, r3
 365 00e4 E0D1     		bne	.L22
 366              		.loc 1 157 0 discriminator 2
 367 00e6 9FEDA49A 		vldr.32	s18, .L80+28
 368              	.LBB76:
 369              		.loc 1 164 0 discriminator 2
 370 00ea A44D     		ldr	r5, .L80+32
 371              	.LVL36:
 372              	.L70:
 373              	.LBE76:
 374              		.loc 1 156 0 discriminator 2
 375 00ec FFF7FEFF 		bl	mc_interface_get_fault
 376              	.LVL37:
 377 00f0 0446     		mov	r4, r0
 378 00f2 0028     		cmp	r0, #0
 379 00f4 D8D1     		bne	.L22
 380              		.loc 1 157 0
 381 00f6 A24B     		ldr	r3, .L80+36
 382 00f8 1B8A     		ldrh	r3, [r3, #16]
 383 00fa 9BB2     		uxth	r3, r3
 384 00fc 07EE903A 		vmov	s15, r3	@ int
 385 0100 B8EE670A 		vcvt.f32.u32	s0, s15
 386 0104 B7EE002A 		vmov.f32	s4, #1.0e+0
 387 0108 20EE2A0A 		vmul.f32	s0, s0, s21
 388 010c F0EE681A 		vmov.f32	s3, s17
 389 0110 20EE0A0A 		vmul.f32	s0, s0, s20
 390 0114 B0EE491A 		vmov.f32	s2, s18
 391 0118 F3EE0C0A 		vmov.f32	s1, #2.8e+1
 392 011c FFF7FEFF 		bl	utils_map
 393              	.LVL38:
 394 0120 B2EE0C8A 		vmov.f32	s16, #1.4e+1
 395              	.LBB77:
 396              		.loc 1 158 0
 397 0124 A346     		mov	fp, r4
 398 0126 20EE088A 		vmul.f32	s16, s0, s16
 399              	.LBE77:
ARM GAS  /var/tmp//ccSXCw8b.s 			page 8


 400              		.loc 1 157 0
 401 012a 1B24     		movs	r4, #27
 402 012c 16E0     		b	.L55
 403              	.LVL39:
 404              	.L75:
 405              	.LBB78:
 406              		.loc 1 160 0
 407 012e BBF1030F 		cmp	fp, #3
 408              		.loc 1 164 0
 409 0132 2946     		mov	r1, r5
 410 0134 5846     		mov	r0, fp
 411              		.loc 1 160 0
 412 0136 40F32D81 		ble	.L73
 413              	.LVL40:
 414              		.loc 1 163 0
 415 013a BBF1080F 		cmp	fp, #8
 416 013e 00F30281 		bgt	.L54
 417              		.loc 1 164 0
 418 0142 FFF7FEFF 		bl	set_led_wrapper
 419              	.LVL41:
 420              		.loc 1 165 0
 421 0146 2946     		mov	r1, r5
 422 0148 2046     		mov	r0, r4
 423 014a FFF7FEFF 		bl	set_led_wrapper
 424              	.LVL42:
 425              	.L53:
 426              		.loc 1 158 0 discriminator 2
 427 014e 0BF1010B 		add	fp, fp, #1
 428              	.LVL43:
 429 0152 BBF10E0F 		cmp	fp, #14
 430 0156 04F1FF34 		add	r4, r4, #-1
 431 015a 17D0     		beq	.L74
 432              	.LVL44:
 433              	.L55:
 434              		.loc 1 159 0
 435 015c 07EE90BA 		vmov	s15, fp	@ int
 436 0160 F8EEE77A 		vcvt.f32.s32	s15, s15
 437 0164 B4EEE78A 		vcmpe.f32	s16, s15
 438 0168 F1EE10FA 		vmrs	APSR_nzcv, FPSCR
 439 016c DFDC     		bgt	.L75
 440              		.loc 1 171 0
 441 016e 5846     		mov	r0, fp
 442 0170 0021     		movs	r1, #0
 443 0172 FFF7FEFF 		bl	set_led_wrapper
 444              	.LVL45:
 445              		.loc 1 158 0
 446 0176 0BF1010B 		add	fp, fp, #1
 447              	.LVL46:
 448              		.loc 1 172 0
 449 017a 2046     		mov	r0, r4
 450 017c 0021     		movs	r1, #0
 451 017e FFF7FEFF 		bl	set_led_wrapper
 452              	.LVL47:
 453              		.loc 1 158 0
 454 0182 BBF10E0F 		cmp	fp, #14
 455 0186 04F1FF34 		add	r4, r4, #-1
 456 018a E7D1     		bne	.L55
ARM GAS  /var/tmp//ccSXCw8b.s 			page 9


 457              	.L74:
 458              	.LBE78:
 459              		.loc 1 175 0
 460 018c 6420     		movs	r0, #100
 461 018e FFF7FEFF 		bl	chThdSleep
 462              	.LVL48:
 463              		.loc 1 156 0
 464 0192 3378     		ldrb	r3, [r6]	@ zero_extendqisi2
 465 0194 9F42     		cmp	r7, r3
 466 0196 87D1     		bne	.L22
 467              		.loc 1 156 0 is_stmt 0 discriminator 1
 468 0198 99F80030 		ldrb	r3, [r9]	@ zero_extendqisi2
 469 019c 9845     		cmp	r8, r3
 470 019e A5D0     		beq	.L70
 471              	.LBE134:
 472              		.loc 1 185 0 is_stmt 1
 473 01a0 0A20     		movs	r0, #10
 474 01a2 FFF7FEFF 		bl	chThdSleep
 475              	.LVL49:
 476 01a6 82E7     		b	.L76
 477              	.LVL50:
 478              	.L27:
 479              	.LBB135:
 480              		.loc 1 87 0 discriminator 3
 481 01a8 0024     		movs	r4, #0
 482              	.LVL51:
 483              	.L34:
 484              	.LBB79:
 485              		.loc 1 103 0 discriminator 3
 486 01aa 2046     		mov	r0, r4
 487 01ac 4FF47F01 		mov	r1, #16711680
 488 01b0 FFF7FEFF 		bl	set_led_wrapper
 489              	.LVL52:
 490              		.loc 1 104 0 discriminator 3
 491 01b4 04F10E00 		add	r0, r4, #14
 492 01b8 6FF07F41 		mvn	r1, #-16777216
 493              		.loc 1 102 0 discriminator 3
 494 01bc 0134     		adds	r4, r4, #1
 495              	.LVL53:
 496              		.loc 1 104 0 discriminator 3
 497 01be FFF7FEFF 		bl	set_led_wrapper
 498              	.LVL54:
 499              		.loc 1 102 0 discriminator 3
 500 01c2 0E2C     		cmp	r4, #14
 501 01c4 F1D1     		bne	.L34
 502              	.LBE79:
 503              		.loc 1 98 0
 504 01c6 FFF7FEFF 		bl	wait_for_state_change
 505              	.LVL55:
 506              	.L77:
 507              	.LBE135:
 508              		.loc 1 185 0
 509 01ca 0A20     		movs	r0, #10
 510 01cc FFF7FEFF 		bl	chThdSleep
 511              	.LVL56:
 512 01d0 6DE7     		b	.L76
 513              	.LVL57:
ARM GAS  /var/tmp//ccSXCw8b.s 			page 10


 514              	.L26:
 515              	.LBB136:
 516              		.loc 1 87 0 discriminator 3
 517 01d2 0024     		movs	r4, #0
 518              	.LVL58:
 519              	.L33:
 520              	.LBB80:
 521              		.loc 1 95 0 discriminator 3
 522 01d4 2046     		mov	r0, r4
 523 01d6 4FF4FE01 		mov	r1, #8323072
 524 01da FFF7FEFF 		bl	set_led_wrapper
 525              	.LVL59:
 526              		.loc 1 96 0 discriminator 3
 527 01de 04F10E00 		add	r0, r4, #14
 528 01e2 6FF07F41 		mvn	r1, #-16777216
 529              		.loc 1 94 0 discriminator 3
 530 01e6 0134     		adds	r4, r4, #1
 531              	.LVL60:
 532              		.loc 1 96 0 discriminator 3
 533 01e8 FFF7FEFF 		bl	set_led_wrapper
 534              	.LVL61:
 535              		.loc 1 94 0 discriminator 3
 536 01ec 0E2C     		cmp	r4, #14
 537 01ee F1D1     		bne	.L33
 538              	.LBE80:
 539              		.loc 1 98 0
 540 01f0 FFF7FEFF 		bl	wait_for_state_change
 541              	.LVL62:
 542 01f4 E9E7     		b	.L77
 543              	.LVL63:
 544              	.L24:
 545              		.loc 1 89 0
 546 01f6 0020     		movs	r0, #0
 547              	.LVL64:
 548 01f8 FFF7FEFF 		bl	ws2811_set_all
 549              	.LVL65:
 550              		.loc 1 90 0
 551 01fc FFF7FEFF 		bl	wait_for_state_change
 552              	.LVL66:
 553              	.LBE136:
 554              		.loc 1 185 0
 555 0200 0A20     		movs	r0, #10
 556 0202 FFF7FEFF 		bl	chThdSleep
 557              	.LVL67:
 558 0206 52E7     		b	.L76
 559              	.LVL68:
 560              	.L29:
 561              	.LBB137:
 562              		.loc 1 87 0
 563 0208 0024     		movs	r4, #0
 564              	.LVL69:
 565              	.L45:
 566              	.LBB81:
 567              		.loc 1 135 0
 568 020a 3378     		ldrb	r3, [r6]	@ zero_extendqisi2
 569 020c 042B     		cmp	r3, #4
 570              		.loc 1 138 0
ARM GAS  /var/tmp//ccSXCw8b.s 			page 11


 571 020e 2046     		mov	r0, r4
 572 0210 4FF47F01 		mov	r1, #16711680
 573              		.loc 1 136 0
 574 0214 08BF     		it	eq
 575 0216 4FF4FE01 		moveq	r1, #8323072
 576              		.loc 1 138 0
 577 021a FFF7FEFF 		bl	set_led_wrapper
 578              	.LVL70:
 579              		.loc 1 140 0
 580 021e 04F10E00 		add	r0, r4, #14
 581 0222 6FF07F41 		mvn	r1, #-16777216
 582              		.loc 1 134 0
 583 0226 0134     		adds	r4, r4, #1
 584              	.LVL71:
 585              		.loc 1 140 0
 586 0228 FFF7FEFF 		bl	set_led_wrapper
 587              	.LVL72:
 588              		.loc 1 134 0
 589 022c 0E2C     		cmp	r4, #14
 590 022e ECD1     		bne	.L45
 591              	.LBE81:
 592              		.loc 1 143 0
 593 0230 3378     		ldrb	r3, [r6]	@ zero_extendqisi2
 594 0232 9F42     		cmp	r7, r3
 595 0234 7FF438AF 		bne	.L22
 596 0238 99F80030 		ldrb	r3, [r9]	@ zero_extendqisi2
 597 023c 9845     		cmp	r8, r3
 598 023e 7FF433AF 		bne	.L22
 599              		.loc 1 145 0 discriminator 2
 600 0242 504C     		ldr	r4, .L80+40
 601              	.LVL73:
 602              	.LBB82:
 603              	.LBB83:
 604              	.LBB84:
 605              	.LBB85:
 606              	.LBB86:
 607              	.LBB87:
 608              		.file 3 "ChibiOS_3.0.2/os/ext/CMSIS/include/core_cmFunc.h"
 609              		.loc 3 546 0 discriminator 2
 610 0244 2025     		movs	r5, #32
 611 0246 11E0     		b	.L68
 612              	.L78:
 613              	.LBE87:
 614              	.LBE86:
 615              	.LBE85:
 616              	.LBE84:
 617              	.LBE83:
 618              	.LBE82:
 619              		.loc 1 145 0
 620 0248 FFF7FEFF 		bl	set_led_wrapper
 621              	.LVL74:
 622              		.loc 1 146 0
 623 024c 2146     		mov	r1, r4
 624 024e 1B20     		movs	r0, #27
 625 0250 FFF7FEFF 		bl	set_led_wrapper
 626              	.LVL75:
 627              	.L48:
ARM GAS  /var/tmp//ccSXCw8b.s 			page 12


 628              		.loc 1 151 0
 629 0254 6420     		movs	r0, #100
 630 0256 FFF7FEFF 		bl	chThdSleep
 631              	.LVL76:
 632              		.loc 1 143 0
 633 025a 3378     		ldrb	r3, [r6]	@ zero_extendqisi2
 634 025c 9F42     		cmp	r7, r3
 635 025e 7FF423AF 		bne	.L22
 636              		.loc 1 143 0 is_stmt 0 discriminator 1
 637 0262 99F80030 		ldrb	r3, [r9]	@ zero_extendqisi2
 638 0266 9845     		cmp	r8, r3
 639 0268 7FF41EAF 		bne	.L22
 640              	.L68:
 641              		.loc 1 143 0 discriminator 2
 642 026c FFF7FEFF 		bl	mc_interface_get_fault
 643              	.LVL77:
 644 0270 0246     		mov	r2, r0
 645 0272 0028     		cmp	r0, #0
 646 0274 7FF418AF 		bne	.L22
 647              	.LBB100:
 648              	.LBB99:
 649              	.LBB91:
 650              	.LBB90:
 651              	.LBB89:
 652              	.LBB88:
 653              		.loc 3 546 0 is_stmt 1
 654              		.syntax unified
 655              	@ 546 "ChibiOS_3.0.2/os/ext/CMSIS/include/core_cmFunc.h" 1
 656 0278 85F31188 		MSR basepri, r5
 657              	@ 0 "" 2
 658              	.LVL78:
 659              		.thumb
 660              		.syntax unified
 661              	.LBE88:
 662              	.LBE89:
 663              	.LBE90:
 664              	.LBE91:
 665              	.LBB92:
 666              	.LBB93:
 667              		.file 4 "ChibiOS_3.0.2/os/rt/include/chvt.h"
 668              		.loc 4 231 0
 669 027c DAF82830 		ldr	r3, [r10, #40]
 670              	.LVL79:
 671              	.LBE93:
 672              	.LBE92:
 673              	.LBB94:
 674              	.LBB95:
 675              	.LBB96:
 676              	.LBB97:
 677              	.LBB98:
 678              		.loc 3 546 0
 679              		.syntax unified
 680              	@ 546 "ChibiOS_3.0.2/os/ext/CMSIS/include/core_cmFunc.h" 1
 681 0280 82F31188 		MSR basepri, r2
 682              	@ 0 "" 2
 683              	.LVL80:
 684              		.thumb
ARM GAS  /var/tmp//ccSXCw8b.s 			page 13


 685              		.syntax unified
 686              	.LBE98:
 687              	.LBE97:
 688              	.LBE96:
 689              	.LBE95:
 690              	.LBE94:
 691              	.LBE99:
 692              	.LBE100:
 693              		.loc 1 144 0
 694 0284 404A     		ldr	r2, .L80+44
 695 0286 A2FB0323 		umull	r2, r3, r2, r3
 696 028a C3F3003B 		ubfx	fp, r3, #12, #1
 697              		.loc 1 145 0
 698 028e 2146     		mov	r1, r4
 699              		.loc 1 144 0
 700 0290 BBF1000F 		cmp	fp, #0
 701 0294 D8D1     		bne	.L78
 702              		.loc 1 148 0
 703 0296 5946     		mov	r1, fp
 704 0298 FFF7FEFF 		bl	set_led_wrapper
 705              	.LVL81:
 706              		.loc 1 149 0
 707 029c 5946     		mov	r1, fp
 708 029e 1B20     		movs	r0, #27
 709 02a0 FFF7FEFF 		bl	set_led_wrapper
 710              	.LVL82:
 711 02a4 D6E7     		b	.L48
 712              	.LVL83:
 713              	.L28:
 714              		.loc 1 87 0
 715 02a6 0024     		movs	r4, #0
 716              	.LVL84:
 717              	.L38:
 718              	.LBB101:
 719              		.loc 1 112 0
 720 02a8 3378     		ldrb	r3, [r6]	@ zero_extendqisi2
 721 02aa 032B     		cmp	r3, #3
 722              		.loc 1 115 0
 723 02ac 2046     		mov	r0, r4
 724 02ae 4FF47F01 		mov	r1, #16711680
 725              		.loc 1 113 0
 726 02b2 08BF     		it	eq
 727 02b4 4FF4FE01 		moveq	r1, #8323072
 728              		.loc 1 115 0
 729 02b8 FFF7FEFF 		bl	set_led_wrapper
 730              	.LVL85:
 731              		.loc 1 117 0
 732 02bc 04F10E00 		add	r0, r4, #14
 733 02c0 6FF07F41 		mvn	r1, #-16777216
 734              		.loc 1 111 0
 735 02c4 0134     		adds	r4, r4, #1
 736              	.LVL86:
 737              		.loc 1 117 0
 738 02c6 FFF7FEFF 		bl	set_led_wrapper
 739              	.LVL87:
 740              		.loc 1 111 0
 741 02ca 0E2C     		cmp	r4, #14
ARM GAS  /var/tmp//ccSXCw8b.s 			page 14


 742 02cc ECD1     		bne	.L38
 743              	.LBE101:
 744              		.loc 1 120 0
 745 02ce 3378     		ldrb	r3, [r6]	@ zero_extendqisi2
 746 02d0 9F42     		cmp	r7, r3
 747 02d2 7FF4E9AE 		bne	.L22
 748 02d6 99F80030 		ldrb	r3, [r9]	@ zero_extendqisi2
 749 02da 9845     		cmp	r8, r3
 750 02dc 7FF4E4AE 		bne	.L22
 751              		.loc 1 122 0 discriminator 2
 752 02e0 284C     		ldr	r4, .L80+40
 753              	.LVL88:
 754              	.LBB102:
 755              	.LBB103:
 756              	.LBB104:
 757              	.LBB105:
 758              	.LBB106:
 759              	.LBB107:
 760              		.loc 3 546 0 discriminator 2
 761 02e2 2025     		movs	r5, #32
 762 02e4 11E0     		b	.L67
 763              	.L79:
 764              	.LBE107:
 765              	.LBE106:
 766              	.LBE105:
 767              	.LBE104:
 768              	.LBE103:
 769              	.LBE102:
 770              		.loc 1 122 0
 771 02e6 FFF7FEFF 		bl	set_led_wrapper
 772              	.LVL89:
 773              		.loc 1 123 0
 774 02ea 2146     		mov	r1, r4
 775 02ec 0E20     		movs	r0, #14
 776 02ee FFF7FEFF 		bl	set_led_wrapper
 777              	.LVL90:
 778              	.L41:
 779              		.loc 1 128 0
 780 02f2 6420     		movs	r0, #100
 781 02f4 FFF7FEFF 		bl	chThdSleep
 782              	.LVL91:
 783              		.loc 1 120 0
 784 02f8 3378     		ldrb	r3, [r6]	@ zero_extendqisi2
 785 02fa 9F42     		cmp	r7, r3
 786 02fc 7FF4D4AE 		bne	.L22
 787              		.loc 1 120 0 is_stmt 0 discriminator 1
 788 0300 99F80030 		ldrb	r3, [r9]	@ zero_extendqisi2
 789 0304 9845     		cmp	r8, r3
 790 0306 7FF4CFAE 		bne	.L22
 791              	.L67:
 792              		.loc 1 120 0 discriminator 2
 793 030a FFF7FEFF 		bl	mc_interface_get_fault
 794              	.LVL92:
 795 030e 0028     		cmp	r0, #0
 796 0310 7FF4CAAE 		bne	.L22
 797              	.LBB120:
 798              	.LBB119:
ARM GAS  /var/tmp//ccSXCw8b.s 			page 15


 799              	.LBB111:
 800              	.LBB110:
 801              	.LBB109:
 802              	.LBB108:
 803              		.loc 3 546 0 is_stmt 1
 804              		.syntax unified
 805              	@ 546 "ChibiOS_3.0.2/os/ext/CMSIS/include/core_cmFunc.h" 1
 806 0314 85F31188 		MSR basepri, r5
 807              	@ 0 "" 2
 808              	.LVL93:
 809              		.thumb
 810              		.syntax unified
 811              	.LBE108:
 812              	.LBE109:
 813              	.LBE110:
 814              	.LBE111:
 815              	.LBB112:
 816              	.LBB113:
 817              		.loc 4 231 0
 818 0318 DAF82830 		ldr	r3, [r10, #40]
 819              	.LVL94:
 820              	.LBE113:
 821              	.LBE112:
 822              	.LBB114:
 823              	.LBB115:
 824              	.LBB116:
 825              	.LBB117:
 826              	.LBB118:
 827              		.loc 3 546 0
 828              		.syntax unified
 829              	@ 546 "ChibiOS_3.0.2/os/ext/CMSIS/include/core_cmFunc.h" 1
 830 031c 80F31188 		MSR basepri, r0
 831              	@ 0 "" 2
 832              	.LVL95:
 833              		.thumb
 834              		.syntax unified
 835              	.LBE118:
 836              	.LBE117:
 837              	.LBE116:
 838              	.LBE115:
 839              	.LBE114:
 840              	.LBE119:
 841              	.LBE120:
 842              		.loc 1 121 0
 843 0320 194A     		ldr	r2, .L80+44
 844 0322 A2FB0323 		umull	r2, r3, r2, r3
 845 0326 C3F3003B 		ubfx	fp, r3, #12, #1
 846              		.loc 1 122 0
 847 032a 2146     		mov	r1, r4
 848 032c 0D20     		movs	r0, #13
 849              		.loc 1 121 0
 850 032e BBF1000F 		cmp	fp, #0
 851 0332 D8D1     		bne	.L79
 852              		.loc 1 125 0
 853 0334 5946     		mov	r1, fp
 854 0336 0D20     		movs	r0, #13
 855 0338 FFF7FEFF 		bl	set_led_wrapper
ARM GAS  /var/tmp//ccSXCw8b.s 			page 16


 856              	.LVL96:
 857              		.loc 1 126 0
 858 033c 5946     		mov	r1, fp
 859 033e 0E20     		movs	r0, #14
 860 0340 FFF7FEFF 		bl	set_led_wrapper
 861              	.LVL97:
 862 0344 D5E7     		b	.L41
 863              	.LVL98:
 864              	.L54:
 865              	.LBB121:
 866              		.loc 1 167 0
 867 0346 5846     		mov	r0, fp
 868              	.LVL99:
 869 0348 4FF47F41 		mov	r1, #65280
 870 034c FFF7FEFF 		bl	set_led_wrapper
 871              	.LVL100:
 872              		.loc 1 168 0
 873 0350 4FF47F41 		mov	r1, #65280
 874 0354 2046     		mov	r0, r4
 875 0356 FFF7FEFF 		bl	set_led_wrapper
 876              	.LVL101:
 877 035a F8E6     		b	.L53
 878              	.L81:
 879              		.align	2
 880              	.L80:
 881 035c 00000000 		.word	.LC0
 882 0360 00000000 		.word	.LANCHOR0
 883 0364 6740533A 		.word	978534503
 884 0368 74D19541 		.word	1100337524
 885 036c 00000000 		.word	0
 886 0370 0AD7A33C 		.word	1017370378
 887 0374 00007F43 		.word	1132396544
 888 0378 00000442 		.word	1107558400
 889 037c 00FFFF00 		.word	16776960
 890 0380 00000000 		.word	ADC_Value
 891 0384 00A5FF00 		.word	16753920
 892 0388 5917B7D1 		.word	-776530087
 893 038c 00000000 		.word	ch
 894 0390 00000000 		.word	.LANCHOR1
 895              	.LVL102:
 896              	.L73:
 897              		.loc 1 161 0
 898 0394 4FF47F01 		mov	r1, #16711680
 899 0398 FFF7FEFF 		bl	set_led_wrapper
 900              	.LVL103:
 901              		.loc 1 162 0
 902 039c 4FF47F01 		mov	r1, #16711680
 903 03a0 2046     		mov	r0, r4
 904 03a2 FFF7FEFF 		bl	set_led_wrapper
 905              	.LVL104:
 906 03a6 D2E6     		b	.L53
 907              	.LVL105:
 908              	.L23:
 909              	.LBE121:
 910              		.loc 1 180 0
 911 03a8 6420     		movs	r0, #100
 912              	.LVL106:
ARM GAS  /var/tmp//ccSXCw8b.s 			page 17


 913 03aa FFF7FEFF 		bl	chThdSleep
 914              	.LVL107:
 915              	.LBE137:
 916              		.loc 1 185 0
 917 03ae 0A20     		movs	r0, #10
 918 03b0 FFF7FEFF 		bl	chThdSleep
 919              	.LVL108:
 920 03b4 7BE6     		b	.L76
 921              	.LBE74:
 922              		.cfi_endproc
 923              	.LFE259:
 924              		.size	led_thread, .-led_thread
 925 03b6 00BF     		.section	.text.led_external_init,"ax",%progbits
 926              		.align	1
 927              		.p2align 4,,15
 928              		.global	led_external_init
 929              		.syntax unified
 930              		.thumb
 931              		.thumb_func
 932              		.fpu fpv4-sp-d16
 933              		.type	led_external_init, %function
 934              	led_external_init:
 935              	.LFB256:
 936              		.loc 1 42 0
 937              		.cfi_startproc
 938              		@ args = 0, pretend = 0, frame = 0
 939              		@ frame_needed = 0, uses_anonymous_args = 0
 940 0000 70B5     		push	{r4, r5, r6, lr}
 941              		.cfi_def_cfa_offset 16
 942              		.cfi_offset 4, -16
 943              		.cfi_offset 5, -12
 944              		.cfi_offset 6, -8
 945              		.cfi_offset 14, -4
 946 0002 82B0     		sub	sp, sp, #8
 947              		.cfi_def_cfa_offset 24
 948              		.loc 1 43 0
 949 0004 0024     		movs	r4, #0
 950 0006 074E     		ldr	r6, .L84
 951              		.loc 1 44 0
 952 0008 074D     		ldr	r5, .L84+4
 953              		.loc 1 45 0
 954 000a 084B     		ldr	r3, .L84+8
 955 000c 0094     		str	r4, [sp]
 956 000e 0222     		movs	r2, #2
 957 0010 4FF4B361 		mov	r1, #1432
 958 0014 0648     		ldr	r0, .L84+12
 959              		.loc 1 43 0
 960 0016 3470     		strb	r4, [r6]
 961              		.loc 1 44 0
 962 0018 2C70     		strb	r4, [r5]
 963              		.loc 1 45 0
 964 001a FFF7FEFF 		bl	chThdCreateStatic
 965              	.LVL109:
 966              		.loc 1 46 0
 967 001e 02B0     		add	sp, sp, #8
 968              		.cfi_def_cfa_offset 16
 969              		@ sp needed
ARM GAS  /var/tmp//ccSXCw8b.s 			page 18


 970 0020 70BD     		pop	{r4, r5, r6, pc}
 971              	.L85:
 972 0022 00BF     		.align	2
 973              	.L84:
 974 0024 00000000 		.word	.LANCHOR1
 975 0028 00000000 		.word	.LANCHOR0
 976 002c 00000000 		.word	led_thread
 977 0030 00000000 		.word	.LANCHOR2
 978              		.cfi_endproc
 979              	.LFE256:
 980              		.size	led_external_init, .-led_external_init
 981              		.section	.text.led_external_set_state,"ax",%progbits
 982              		.align	1
 983              		.p2align 4,,15
 984              		.global	led_external_set_state
 985              		.syntax unified
 986              		.thumb
 987              		.thumb_func
 988              		.fpu fpv4-sp-d16
 989              		.type	led_external_set_state, %function
 990              	led_external_set_state:
 991              	.LFB257:
 992              		.loc 1 48 0
 993              		.cfi_startproc
 994              		@ args = 0, pretend = 0, frame = 0
 995              		@ frame_needed = 0, uses_anonymous_args = 0
 996              		@ link register save eliminated.
 997              	.LVL110:
 998              		.loc 1 49 0
 999 0000 014B     		ldr	r3, .L87
 1000 0002 1870     		strb	r0, [r3]
 1001 0004 7047     		bx	lr
 1002              	.L88:
 1003 0006 00BF     		.align	2
 1004              	.L87:
 1005 0008 00000000 		.word	.LANCHOR0
 1006              		.cfi_endproc
 1007              	.LFE257:
 1008              		.size	led_external_set_state, .-led_external_set_state
 1009              		.section	.text.led_external_set_reversed,"ax",%progbits
 1010              		.align	1
 1011              		.p2align 4,,15
 1012              		.global	led_external_set_reversed
 1013              		.syntax unified
 1014              		.thumb
 1015              		.thumb_func
 1016              		.fpu fpv4-sp-d16
 1017              		.type	led_external_set_reversed, %function
 1018              	led_external_set_reversed:
 1019              	.LFB258:
 1020              		.loc 1 52 0
 1021              		.cfi_startproc
 1022              		@ args = 0, pretend = 0, frame = 0
 1023              		@ frame_needed = 0, uses_anonymous_args = 0
 1024              		@ link register save eliminated.
 1025              	.LVL111:
 1026              		.loc 1 53 0
ARM GAS  /var/tmp//ccSXCw8b.s 			page 19


 1027 0000 014B     		ldr	r3, .L90
 1028 0002 1870     		strb	r0, [r3]
 1029 0004 7047     		bx	lr
 1030              	.L91:
 1031 0006 00BF     		.align	2
 1032              	.L90:
 1033 0008 00000000 		.word	.LANCHOR1
 1034              		.cfi_endproc
 1035              	.LFE258:
 1036              		.size	led_external_set_reversed, .-led_external_set_reversed
 1037              		.section	.bss.led_thread_wa,"aw",%nobits
 1038              		.align	3
 1039              		.set	.LANCHOR2,. + 0
 1040              		.type	led_thread_wa, %object
 1041              		.size	led_thread_wa, 1432
 1042              	led_thread_wa:
 1043 0000 00000000 		.space	1432
 1043      00000000 
 1043      00000000 
 1043      00000000 
 1043      00000000 
 1044              		.section	.bss.reverse_leds,"aw",%nobits
 1045              		.set	.LANCHOR1,. + 0
 1046              		.type	reverse_leds, %object
 1047              		.size	reverse_leds, 1
 1048              	reverse_leds:
 1049 0000 00       		.space	1
 1050              		.section	.bss.state,"aw",%nobits
 1051              		.set	.LANCHOR0,. + 0
 1052              		.type	state, %object
 1053              		.size	state, 1
 1054              	state:
 1055 0000 00       		.space	1
 1056              		.section	.rodata.led_thread.str1.4,"aMS",%progbits,1
 1057              		.align	2
 1058              	.LC0:
 1059 0000 4C454473 		.ascii	"LEDs External\000"
 1059      20457874 
 1059      65726E61 
 1059      6C00
 1060              		.text
 1061              	.Letext0:
 1062              		.file 5 "/usr/local/gcc_arm/gcc-arm-none-eabi-6-2017-q2-update/arm-none-eabi/include/machine/_defa
 1063              		.file 6 "/usr/local/gcc_arm/gcc-arm-none-eabi-6-2017-q2-update/arm-none-eabi/include/sys/_stdint.h
 1064              		.file 7 "/usr/local/gcc_arm/gcc-arm-none-eabi-6-2017-q2-update/lib/gcc/arm-none-eabi/6.3.1/include
 1065              		.file 8 "ChibiOS_3.0.2/os/rt/ports/ARMCMx/compilers/GCC/chtypes.h"
 1066              		.file 9 "ChibiOS_3.0.2/os/rt/include/chsystypes.h"
 1067              		.file 10 "ChibiOS_3.0.2/os/rt/include/chschd.h"
 1068              		.file 11 "ChibiOS_3.0.2/os/ext/CMSIS/include/core_cm4.h"
 1069              		.file 12 "ChibiOS_3.0.2/os/ext/CMSIS/ST/system_stm32f4xx.h"
 1070              		.file 13 "ChibiOS_3.0.2/os/ext/CMSIS/ST/stm32f407xx.h"
 1071              		.file 14 "ChibiOS_3.0.2/os/rt/ports/ARMCMx/chcore.h"
 1072              		.file 15 "ChibiOS_3.0.2/os/rt/ports/ARMCMx/chcore_v7m.h"
 1073              		.file 16 "ChibiOS_3.0.2/os/rt/include/chtm.h"
 1074              		.file 17 "ChibiOS_3.0.2/os/rt/include/chsem.h"
 1075              		.file 18 "ChibiOS_3.0.2/os/rt/include/chmtx.h"
 1076              		.file 19 "ChibiOS_3.0.2/os/rt/include/chevents.h"
ARM GAS  /var/tmp//ccSXCw8b.s 			page 20


 1077              		.file 20 "ChibiOS_3.0.2/os/rt/include/chqueues.h"
 1078              		.file 21 "datatypes.h"
 1079              		.file 22 "./conf_general.h"
 1080              		.file 23 "ChibiOS_3.0.2/os/hal/ports/STM32/STM32F4xx/stm32_dma.h"
 1081              		.file 24 "ChibiOS_3.0.2/os/hal/ports/STM32/LLD/GPIOv2/pal_lld.h"
 1082              		.file 25 "ChibiOS_3.0.2/os/hal/include/can.h"
 1083              		.file 26 "ChibiOS_3.0.2/os/hal/ports/STM32/LLD/can_lld.h"
 1084              		.file 27 "ChibiOS_3.0.2/os/hal/include/i2c.h"
 1085              		.file 28 "ChibiOS_3.0.2/os/hal/ports/STM32/LLD/I2Cv1/i2c_lld.h"
 1086              		.file 29 "ChibiOS_3.0.2/os/hal/include/icu.h"
 1087              		.file 30 "ChibiOS_3.0.2/os/hal/ports/STM32/LLD/TIMv1/icu_lld.h"
 1088              		.file 31 "ChibiOS_3.0.2/os/hal/ports/STM32/LLD/TIMv1/stm32_tim.h"
 1089              		.file 32 "ChibiOS_3.0.2/os/hal/include/spi.h"
 1090              		.file 33 "ChibiOS_3.0.2/os/hal/ports/STM32/LLD/SPIv1/spi_lld.h"
 1091              		.file 34 "ChibiOS_3.0.2/os/hal/include/uart.h"
 1092              		.file 35 "ChibiOS_3.0.2/os/hal/ports/STM32/LLD/USARTv1/uart_lld.h"
 1093              		.file 36 "ChibiOS_3.0.2/os/hal/include/usb.h"
 1094              		.file 37 "ChibiOS_3.0.2/os/hal/ports/STM32/LLD/OTGv1/usb_lld.h"
 1095              		.file 38 "ChibiOS_3.0.2/os/hal/ports/STM32/LLD/OTGv1/stm32_otg.h"
 1096              		.file 39 "mc_interface.h"
 1097              		.file 40 "ChibiOS_3.0.2/os/rt/include/chsys.h"
 1098              		.file 41 "ws2811.h"
 1099              		.file 42 "ChibiOS_3.0.2/os/rt/include/chthreads.h"
 1100              		.file 43 "utils.h"