ARM GAS  C:\Users\Grillmo\AppData\Local\Temp\ccnDcoCc.s 			page 1


   1              		.cpu cortex-m4
   2              		.eabi_attribute 27, 1
   3              		.eabi_attribute 28, 1
   4              		.eabi_attribute 20, 1
   5              		.eabi_attribute 21, 1
   6              		.eabi_attribute 23, 3
   7              		.eabi_attribute 24, 1
   8              		.eabi_attribute 25, 1
   9              		.eabi_attribute 26, 1
  10              		.eabi_attribute 30, 2
  11              		.eabi_attribute 34, 1
  12              		.eabi_attribute 18, 4
  13              		.file	"mcpwm.c"
  14              		.text
  15              	.Ltext0:
  16              		.cfi_sections	.debug_frame
  17              		.section	.text.update_adc_sample_pos,"ax",%progbits
  18              		.align	1
  19              		.p2align 4,,15
  20              		.syntax unified
  21              		.thumb
  22              		.thumb_func
  23              		.fpu fpv4-sp-d16
  24              		.type	update_adc_sample_pos, %function
  25              	update_adc_sample_pos:
  26              	.LFB313:
  27              		.file 1 "mcpwm.c"
  28              		.loc 1 2272 0
  29              		.cfi_startproc
  30              		@ args = 0, pretend = 0, frame = 24
  31              		@ frame_needed = 0, uses_anonymous_args = 0
  32              	.LVL0:
  33 0000 F0B5     		push	{r4, r5, r6, r7, lr}
  34              		.cfi_def_cfa_offset 20
  35              		.cfi_offset 4, -20
  36              		.cfi_offset 5, -16
  37              		.cfi_offset 6, -12
  38              		.cfi_offset 7, -8
  39              		.cfi_offset 14, -4
  40 0002 87B0     		sub	sp, sp, #28
  41              		.cfi_def_cfa_offset 48
  42              		.loc 1 2273 0
  43 0004 8268     		ldr	r2, [r0, #8]
  44 0006 0192     		str	r2, [sp, #4]
  45              		.loc 1 2274 0
  46 0008 4268     		ldr	r2, [r0, #4]
  47 000a 0292     		str	r2, [sp, #8]
  48              		.loc 1 2275 0
  49 000c C268     		ldr	r2, [r0, #12]
  50 000e 0392     		str	r2, [sp, #12]
  51              		.loc 1 2276 0
  52 0010 0269     		ldr	r2, [r0, #16]
  53 0012 0492     		str	r2, [sp, #16]
  54              		.loc 1 2277 0
  55 0014 4269     		ldr	r2, [r0, #20]
  56              		.loc 1 2283 0
  57 0016 6B4B     		ldr	r3, .L45
ARM GAS  C:\Users\Grillmo\AppData\Local\Temp\ccnDcoCc.s 			page 2


  58              		.loc 1 2277 0
  59 0018 0592     		str	r2, [sp, #20]
  60              		.loc 1 2283 0
  61 001a DDED027A 		vldr.32	s15, [sp, #8]	@ int
  62 001e 1A68     		ldr	r2, [r3]
  63 0020 F8EE677A 		vcvt.f32.u32	s15, s15
  64 0024 92ED167A 		vldr.32	s14, [r2, #88]
  65 0028 019B     		ldr	r3, [sp, #4]
  66 002a 67EE877A 		vmul.f32	s15, s15, s14
  67 002e FCEEE77A 		vcvt.u32.f32	s15, s15
  68 0032 17EE901A 		vmov	r1, s15	@ int
  69 0036 9942     		cmp	r1, r3
  70 0038 0BD2     		bcs	.L2
  71              		.loc 1 2284 0
  72 003a DDED027A 		vldr.32	s15, [sp, #8]	@ int
  73 003e 92ED167A 		vldr.32	s14, [r2, #88]
  74 0042 F8EE677A 		vcvt.f32.u32	s15, s15
  75 0046 67EE877A 		vmul.f32	s15, s15, s14
  76 004a FCEEE77A 		vcvt.u32.f32	s15, s15
  77 004e CDED017A 		vstr.32	s15, [sp, #4]	@ int
  78              	.L2:
  79              		.loc 1 2287 0
  80 0052 5D49     		ldr	r1, .L45+4
  81 0054 0023     		movs	r3, #0
  82 0056 0B60     		str	r3, [r1]
  83              		.loc 1 2289 0
  84 0058 9378     		ldrb	r3, [r2, #2]	@ zero_extendqisi2
  85 005a DBB2     		uxtb	r3, r3
  86 005c 012B     		cmp	r3, #1
  87 005e 39D0     		beq	.L42
  88              		.loc 1 2310 0
  89 0060 5A4B     		ldr	r3, .L45+8
  90 0062 1B78     		ldrb	r3, [r3]	@ zero_extendqisi2
  91 0064 012B     		cmp	r3, #1
  92 0066 72D0     		beq	.L43
  93              		.loc 1 2321 0
  94 0068 1378     		ldrb	r3, [r2]	@ zero_extendqisi2
  95 006a 022B     		cmp	r3, #2
  96 006c 43D0     		beq	.L44
  97              		.loc 1 2406 0
  98 006e 019B     		ldr	r3, [sp, #4]
  99 0070 5B08     		lsrs	r3, r3, #1
 100 0072 0393     		str	r3, [sp, #12]
 101              		.loc 1 2409 0
 102 0074 029A     		ldr	r2, [sp, #8]
 103 0076 019C     		ldr	r4, [sp, #4]
 104 0078 019B     		ldr	r3, [sp, #4]
 105 007a 121B     		subs	r2, r2, r4
 106 007c 03EB5203 		add	r3, r3, r2, lsr #1
 107 0080 0493     		str	r3, [sp, #16]
 108              		.loc 1 2410 0
 109 0082 029B     		ldr	r3, [sp, #8]
 110 0084 049A     		ldr	r2, [sp, #16]
 111 0086 463B     		subs	r3, r3, #70
 112 0088 9342     		cmp	r3, r2
 113 008a 02D2     		bcs	.L21
 114              		.loc 1 2411 0
ARM GAS  C:\Users\Grillmo\AppData\Local\Temp\ccnDcoCc.s 			page 3


 115 008c 029B     		ldr	r3, [sp, #8]
 116 008e 463B     		subs	r3, r3, #70
 117 0090 0493     		str	r3, [sp, #16]
 118              	.L21:
 119              		.loc 1 2414 0
 120 0092 049B     		ldr	r3, [sp, #16]
 121 0094 0593     		str	r3, [sp, #20]
 122              		.loc 1 2421 0
 123 0096 029A     		ldr	r2, [sp, #8]
 124 0098 019B     		ldr	r3, [sp, #4]
 125 009a B3EB520F 		cmp	r3, r2, lsr #1
 126 009e 11D9     		bls	.L5
 127              		.loc 1 2466 0
 128 00a0 4B4B     		ldr	r3, .L45+12
 129 00a2 1B68     		ldr	r3, [r3]
 130              		.loc 1 2477 0
 131 00a4 4B4B     		ldr	r3, .L45+16
 132 00a6 1B68     		ldr	r3, [r3]
 133 00a8 013B     		subs	r3, r3, #1
 134 00aa 052B     		cmp	r3, #5
 135 00ac 0AD8     		bhi	.L5
 136 00ae DFE803F0 		tbb	[pc, r3]
 137              	.L31:
 138 00b2 1F       		.byte	(.L36-.L31)/2
 139 00b3 4B       		.byte	(.L33-.L31)/2
 140 00b4 4B       		.byte	(.L33-.L31)/2
 141 00b5 1F       		.byte	(.L36-.L31)/2
 142 00b6 1F       		.byte	(.L36-.L31)/2
 143 00b7 1F       		.byte	(.L36-.L31)/2
 144              	.LVL1:
 145              		.p2align 1
 146              	.L12:
 147              	.LBB72:
 148              		.loc 1 2370 0
 149 00b8 454B     		ldr	r3, .L45+12
 150 00ba 1B68     		ldr	r3, [r3]
 151 00bc 002B     		cmp	r3, #0
 152 00be 7CD0     		beq	.L18
 153              	.L38:
 154              		.loc 1 2371 0
 155 00c0 0496     		str	r6, [sp, #16]
 156              		.loc 1 2372 0
 157 00c2 0592     		str	r2, [sp, #20]
 158              	.LVL2:
 159              	.L5:
 160              	.LBE72:
 161              		.loc 1 2493 0
 162 00c4 039B     		ldr	r3, [sp, #12]
 163 00c6 C360     		str	r3, [r0, #12]
 164              		.loc 1 2494 0
 165 00c8 049B     		ldr	r3, [sp, #16]
 166 00ca 0361     		str	r3, [r0, #16]
 167              		.loc 1 2495 0
 168 00cc 059B     		ldr	r3, [sp, #20]
 169 00ce 4361     		str	r3, [r0, #20]
 170              		.loc 1 2499 0
 171 00d0 07B0     		add	sp, sp, #28
ARM GAS  C:\Users\Grillmo\AppData\Local\Temp\ccnDcoCc.s 			page 4


 172              		.cfi_remember_state
 173              		.cfi_def_cfa_offset 20
 174              		@ sp needed
 175 00d2 F0BD     		pop	{r4, r5, r6, r7, pc}
 176              	.L42:
 177              		.cfi_restore_state
 178              		.loc 1 2290 0
 179 00d4 029A     		ldr	r2, [sp, #8]
 180 00d6 0A3A     		subs	r2, r2, #10
 181 00d8 0492     		str	r2, [sp, #16]
 182              		.loc 1 2291 0
 183 00da 029A     		ldr	r2, [sp, #8]
 184 00dc 0A3A     		subs	r2, r2, #10
 185 00de 0592     		str	r2, [sp, #20]
 186              		.loc 1 2296 0
 187 00e0 019A     		ldr	r2, [sp, #4]
 188 00e2 B2F57A7F 		cmp	r2, #1000
 189 00e6 29D9     		bls	.L4
 190              		.loc 1 2297 0
 191 00e8 019B     		ldr	r3, [sp, #4]
 192 00ea 5B08     		lsrs	r3, r3, #1
 193 00ec 0393     		str	r3, [sp, #12]
 194 00ee E9E7     		b	.L5
 195              	.L36:
 196              		.loc 1 2483 0
 197 00f0 0123     		movs	r3, #1
 198 00f2 0B60     		str	r3, [r1]
 199 00f4 E6E7     		b	.L5
 200              	.L44:
 201              	.LBB73:
 202              		.loc 1 2322 0
 203 00f6 029D     		ldr	r5, [sp, #8]
 204              		.loc 1 2323 0
 205 00f8 029A     		ldr	r2, [sp, #8]
 206 00fa 019F     		ldr	r7, [sp, #4]
 207 00fc 019C     		ldr	r4, [sp, #4]
 208              		.loc 1 2324 0
 209 00fe 029E     		ldr	r6, [sp, #8]
 210              		.loc 1 2327 0
 211 0100 029B     		ldr	r3, [sp, #8]
 212              		.loc 1 2335 0
 213 0102 DFF8D0E0 		ldr	lr, .L45+16
 214              		.loc 1 2327 0
 215 0106 9B08     		lsrs	r3, r3, #2
 216 0108 0393     		str	r3, [sp, #12]
 217              		.loc 1 2335 0
 218 010a DEF80030 		ldr	r3, [lr]
 219              		.loc 1 2323 0
 220 010e D21B     		subs	r2, r2, r7
 221              		.loc 1 2335 0
 222 0110 013B     		subs	r3, r3, #1
 223              		.loc 1 2322 0
 224 0112 023D     		subs	r5, r5, #2
 225              	.LVL3:
 226              		.loc 1 2323 0
 227 0114 04EB5202 		add	r2, r4, r2, lsr #1
 228              	.LVL4:
ARM GAS  C:\Users\Grillmo\AppData\Local\Temp\ccnDcoCc.s 			page 5


 229              		.loc 1 2324 0
 230 0118 023E     		subs	r6, r6, #2
 231              	.LVL5:
 232              		.loc 1 2335 0
 233 011a 052B     		cmp	r3, #5
 234 011c D2D8     		bhi	.L5
 235 011e 01A4     		adr	r4, .L9
 236 0120 54F823F0 		ldr	pc, [r4, r3, lsl #2]
 237              		.p2align 2
 238              	.L9:
 239 0124 B3010000 		.word	.L8+1
 240 0128 A1010000 		.word	.L10+1
 241 012c 95010000 		.word	.L11+1
 242 0130 B9000000 		.word	.L12+1
 243 0134 83010000 		.word	.L13+1
 244 0138 73010000 		.word	.L14+1
 245              	.LVL6:
 246              		.p2align 1
 247              	.L4:
 248              	.LBE73:
 249              		.loc 1 2299 0
 250 013c 019A     		ldr	r2, [sp, #4]
 251 013e 02F54872 		add	r2, r2, #800
 252 0142 0392     		str	r2, [sp, #12]
 253              		.loc 1 2300 0
 254 0144 0B60     		str	r3, [r1]
 255 0146 BDE7     		b	.L5
 256              	.L33:
 257              		.loc 1 2480 0
 258 0148 0223     		movs	r3, #2
 259 014a 0B60     		str	r3, [r1]
 260 014c BAE7     		b	.L5
 261              	.L43:
 262              		.loc 1 2312 0
 263 014e 019B     		ldr	r3, [sp, #4]
 264 0150 5B08     		lsrs	r3, r3, #1
 265 0152 0393     		str	r3, [sp, #12]
 266              		.loc 1 2315 0
 267 0154 029A     		ldr	r2, [sp, #8]
 268 0156 0199     		ldr	r1, [sp, #4]
 269 0158 019B     		ldr	r3, [sp, #4]
 270 015a 521A     		subs	r2, r2, r1
 271 015c 03EB5203 		add	r3, r3, r2, lsr #1
 272 0160 0493     		str	r3, [sp, #16]
 273              		.loc 1 2316 0
 274 0162 029A     		ldr	r2, [sp, #8]
 275 0164 0199     		ldr	r1, [sp, #4]
 276 0166 019B     		ldr	r3, [sp, #4]
 277 0168 521A     		subs	r2, r2, r1
 278 016a 03EB5203 		add	r3, r3, r2, lsr #1
 279 016e 0593     		str	r3, [sp, #20]
 280 0170 A8E7     		b	.L5
 281              	.LVL7:
 282              	.L14:
 283              	.LBB74:
 284              		.loc 1 2393 0
 285 0172 174B     		ldr	r3, .L45+12
ARM GAS  C:\Users\Grillmo\AppData\Local\Temp\ccnDcoCc.s 			page 6


 286 0174 1B68     		ldr	r3, [r3]
 287 0176 43B1     		cbz	r3, .L20
 288              	.L40:
 289              		.loc 1 2396 0
 290 0178 0123     		movs	r3, #1
 291              		.loc 1 2394 0
 292 017a 0495     		str	r5, [sp, #16]
 293              		.loc 1 2395 0
 294 017c 0596     		str	r6, [sp, #20]
 295              		.loc 1 2396 0
 296 017e 0B60     		str	r3, [r1]
 297 0180 A0E7     		b	.L5
 298              	.L13:
 299              		.loc 1 2381 0
 300 0182 134B     		ldr	r3, .L45+12
 301 0184 1B68     		ldr	r3, [r3]
 302 0186 002B     		cmp	r3, #0
 303 0188 F6D0     		beq	.L40
 304              	.L20:
 305              		.loc 1 2400 0
 306 018a 0123     		movs	r3, #1
 307              		.loc 1 2398 0
 308 018c 0495     		str	r5, [sp, #16]
 309              		.loc 1 2399 0
 310 018e 0592     		str	r2, [sp, #20]
 311              		.loc 1 2400 0
 312 0190 0B60     		str	r3, [r1]
 313 0192 97E7     		b	.L5
 314              	.L11:
 315              		.loc 1 2359 0
 316 0194 0E4B     		ldr	r3, .L45+12
 317 0196 1B68     		ldr	r3, [r3]
 318 0198 33B1     		cbz	r3, .L17
 319              	.L39:
 320              		.loc 1 2360 0
 321 019a 0492     		str	r2, [sp, #16]
 322              		.loc 1 2361 0
 323 019c 0596     		str	r6, [sp, #20]
 324 019e 91E7     		b	.L5
 325              	.L10:
 326              		.loc 1 2348 0
 327 01a0 0B4B     		ldr	r3, .L45+12
 328 01a2 1B68     		ldr	r3, [r3]
 329 01a4 002B     		cmp	r3, #0
 330 01a6 F8D0     		beq	.L39
 331              	.L17:
 332              		.loc 1 2365 0
 333 01a8 0223     		movs	r3, #2
 334              		.loc 1 2363 0
 335 01aa 0492     		str	r2, [sp, #16]
 336              		.loc 1 2364 0
 337 01ac 0595     		str	r5, [sp, #20]
 338              		.loc 1 2365 0
 339 01ae 0B60     		str	r3, [r1]
 340 01b0 88E7     		b	.L5
 341              	.L8:
 342              		.loc 1 2337 0
ARM GAS  C:\Users\Grillmo\AppData\Local\Temp\ccnDcoCc.s 			page 7


 343 01b2 074B     		ldr	r3, .L45+12
 344 01b4 1B68     		ldr	r3, [r3]
 345 01b6 002B     		cmp	r3, #0
 346 01b8 82D0     		beq	.L38
 347              	.L18:
 348              		.loc 1 2376 0
 349 01ba 0223     		movs	r3, #2
 350              		.loc 1 2374 0
 351 01bc 0496     		str	r6, [sp, #16]
 352              		.loc 1 2375 0
 353 01be 0595     		str	r5, [sp, #20]
 354              		.loc 1 2376 0
 355 01c0 0B60     		str	r3, [r1]
 356 01c2 7FE7     		b	.L5
 357              	.L46:
 358              		.align	2
 359              	.L45:
 360 01c4 00000000 		.word	.LANCHOR0
 361 01c8 00000000 		.word	.LANCHOR1
 362 01cc 00000000 		.word	.LANCHOR2
 363 01d0 00000000 		.word	.LANCHOR4
 364 01d4 00000000 		.word	.LANCHOR3
 365              	.LBE74:
 366              		.cfi_endproc
 367              	.LFE313:
 368              		.size	update_adc_sample_pos, .-update_adc_sample_pos
 369              		.section	.text.update_rpm_tacho,"ax",%progbits
 370              		.align	1
 371              		.p2align 4,,15
 372              		.syntax unified
 373              		.thumb
 374              		.thumb_func
 375              		.fpu fpv4-sp-d16
 376              		.type	update_rpm_tacho, %function
 377              	update_rpm_tacho:
 378              	.LFB314:
 379              		.loc 1 2501 0
 380              		.cfi_startproc
 381              		@ args = 0, pretend = 0, frame = 0
 382              		@ frame_needed = 0, uses_anonymous_args = 0
 383              		@ link register save eliminated.
 384              		.loc 1 2502 0
 385 0000 1E4B     		ldr	r3, .L59
 386              		.loc 1 2504 0
 387 0002 1F48     		ldr	r0, .L59+4
 388              		.loc 1 2502 0
 389 0004 1968     		ldr	r1, [r3]
 390              		.loc 1 2504 0
 391 0006 0268     		ldr	r2, [r0]
 392 0008 1E4B     		ldr	r3, .L59+8
 393              		.loc 1 2502 0
 394 000a 0139     		subs	r1, r1, #1
 395              	.LVL8:
 396              		.loc 1 2504 0
 397 000c 8A1A     		subs	r2, r1, r2
 398              		.loc 1 2501 0
 399 000e 30B4     		push	{r4, r5}
ARM GAS  C:\Users\Grillmo\AppData\Local\Temp\ccnDcoCc.s 			page 8


 400              		.cfi_def_cfa_offset 8
 401              		.cfi_offset 4, -8
 402              		.cfi_offset 5, -4
 403              		.loc 1 2504 0
 404 0010 83FB0243 		smull	r4, r3, r3, r2
 405 0014 A3EBE273 		sub	r3, r3, r2, asr #31
 406 0018 03EB4303 		add	r3, r3, r3, lsl #1
 407 001c A2EB4303 		sub	r3, r2, r3, lsl #1
 408              	.LVL9:
 409              		.loc 1 2507 0
 410 0020 032B     		cmp	r3, #3
 411              		.loc 1 2505 0
 412 0022 0160     		str	r1, [r0]
 413              		.loc 1 2507 0
 414 0024 1DDD     		ble	.L48
 415              		.loc 1 2508 0
 416 0026 063B     		subs	r3, r3, #6
 417              	.LVL10:
 418              	.L49:
 419              		.loc 1 2514 0
 420 0028 174A     		ldr	r2, .L59+12
 421 002a 5169     		ldr	r1, [r2, #20]
 422              	.LVL11:
 423              		.loc 1 2515 0
 424 002c 4FF08040 		mov	r0, #1073741824
 425              		.loc 1 2514 0
 426 0030 1944     		add	r1, r1, r3
 427 0032 5161     		str	r1, [r2, #20]
 428              		.loc 1 2515 0
 429 0034 416A     		ldr	r1, [r0, #36]
 430 0036 9569     		ldr	r5, [r2, #24]
 431              		.loc 1 2516 0
 432 0038 0024     		movs	r4, #0
 433              		.loc 1 2515 0
 434 003a 2944     		add	r1, r1, r5
 435 003c 9161     		str	r1, [r2, #24]
 436              		.loc 1 2516 0
 437 003e 4462     		str	r4, [r0, #36]
 438              	.LVL12:
 439              	.L51:
 440              		.loc 1 2520 0
 441 0040 1248     		ldr	r0, .L59+16
 442              		.loc 1 2521 0
 443 0042 1349     		ldr	r1, .L59+20
 444              		.loc 1 2520 0
 445 0044 0268     		ldr	r2, [r0]
 446              		.loc 1 2523 0
 447 0046 134C     		ldr	r4, .L59+24
 448              		.loc 1 2520 0
 449 0048 1A44     		add	r2, r2, r3
 450 004a 0260     		str	r2, [r0]
 451              		.loc 1 2521 0
 452 004c 0A68     		ldr	r2, [r1]
 453 004e 1A44     		add	r2, r2, r3
 454 0050 0A60     		str	r2, [r1]
 455              		.loc 1 2523 0
 456 0052 2268     		ldr	r2, [r4]
ARM GAS  C:\Users\Grillmo\AppData\Local\Temp\ccnDcoCc.s 			page 9


 457              		.loc 1 2524 0
 458 0054 1049     		ldr	r1, .L59+28
 459              		.loc 1 2523 0
 460 0056 5AB9     		cbnz	r2, .L58
 461              		.loc 1 2526 0
 462 0058 0A68     		ldr	r2, [r1]
 463 005a D31A     		subs	r3, r2, r3
 464              	.LVL13:
 465 005c 0B60     		str	r3, [r1]
 466              		.loc 1 2528 0
 467 005e 30BC     		pop	{r4, r5}
 468              		.cfi_remember_state
 469              		.cfi_restore 5
 470              		.cfi_restore 4
 471              		.cfi_def_cfa_offset 0
 472 0060 7047     		bx	lr
 473              	.LVL14:
 474              	.L48:
 475              		.cfi_restore_state
 476              		.loc 1 2509 0
 477 0062 9A1C     		adds	r2, r3, #2
 478 0064 01DA     		bge	.L50
 479              		.loc 1 2510 0
 480 0066 0633     		adds	r3, r3, #6
 481              	.LVL15:
 482 0068 DEE7     		b	.L49
 483              	.L50:
 484              		.loc 1 2513 0
 485 006a 002B     		cmp	r3, #0
 486 006c E8D0     		beq	.L51
 487 006e DBE7     		b	.L49
 488              	.LVL16:
 489              	.L58:
 490              		.loc 1 2524 0
 491 0070 0A68     		ldr	r2, [r1]
 492 0072 1344     		add	r3, r3, r2
 493              	.LVL17:
 494 0074 0B60     		str	r3, [r1]
 495              		.loc 1 2528 0
 496 0076 30BC     		pop	{r4, r5}
 497              		.cfi_restore 4
 498              		.cfi_restore 5
 499              		.cfi_def_cfa_offset 0
 500 0078 7047     		bx	lr
 501              	.L60:
 502 007a 00BF     		.align	2
 503              	.L59:
 504 007c 00000000 		.word	.LANCHOR3
 505 0080 00000000 		.word	.LANCHOR5
 506 0084 ABAAAA2A 		.word	715827883
 507 0088 00000000 		.word	.LANCHOR6
 508 008c 00000000 		.word	.LANCHOR7
 509 0090 00000000 		.word	.LANCHOR8
 510 0094 00000000 		.word	.LANCHOR4
 511 0098 00000000 		.word	.LANCHOR9
 512              		.cfi_endproc
 513              	.LFE314:
ARM GAS  C:\Users\Grillmo\AppData\Local\Temp\ccnDcoCc.s 			page 10


 514              		.size	update_rpm_tacho, .-update_rpm_tacho
 515              		.section	.text.update_sensor_mode,"ax",%progbits
 516              		.align	1
 517              		.p2align 4,,15
 518              		.syntax unified
 519              		.thumb
 520              		.thumb_func
 521              		.fpu fpv4-sp-d16
 522              		.type	update_sensor_mode, %function
 523              	update_sensor_mode:
 524              	.LFB315:
 525              		.loc 1 2530 0
 526              		.cfi_startproc
 527              		@ args = 0, pretend = 0, frame = 0
 528              		@ frame_needed = 0, uses_anonymous_args = 0
 529              		@ link register save eliminated.
 530              		.loc 1 2531 0
 531 0000 0E4B     		ldr	r3, .L72
 532 0002 1B68     		ldr	r3, [r3]
 533 0004 DA78     		ldrb	r2, [r3, #3]	@ zero_extendqisi2
 534 0006 A2B1     		cbz	r2, .L62
 535              		.loc 1 2532 0 discriminator 1
 536 0008 DA78     		ldrb	r2, [r3, #3]	@ zero_extendqisi2
 537              		.loc 1 2531 0 discriminator 1
 538 000a 022A     		cmp	r2, #2
 539 000c 03D0     		beq	.L71
 540              	.L63:
 541              		.loc 1 2536 0
 542 000e 0C4B     		ldr	r3, .L72+4
 543 0010 0022     		movs	r2, #0
 544 0012 1A70     		strb	r2, [r3]
 545 0014 7047     		bx	lr
 546              	.L71:
 547              	.LBB75:
 548              	.LBB76:
 549              		.loc 1 733 0
 550 0016 0B4A     		ldr	r2, .L72+8
 551 0018 1268     		ldr	r2, [r2]
 552 001a 0B4A     		ldr	r2, .L72+12
 553 001c D2ED007A 		vldr.32	s15, [r2]
 554              	.LBE76:
 555              	.LBE75:
 556              		.loc 1 2533 0
 557 0020 93ED287A 		vldr.32	s14, [r3, #160]
 558 0024 F0EEE77A 		vabs.f32	s15, s15
 559              		.loc 1 2532 0
 560 0028 F4EEC77A 		vcmpe.f32	s15, s14
 561 002c F1EE10FA 		vmrs	APSR_nzcv, FPSCR
 562 0030 EDDD     		ble	.L63
 563              	.L62:
 564              		.loc 1 2534 0
 565 0032 034B     		ldr	r3, .L72+4
 566 0034 0122     		movs	r2, #1
 567 0036 1A70     		strb	r2, [r3]
 568 0038 7047     		bx	lr
 569              	.L73:
 570 003a 00BF     		.align	2
ARM GAS  C:\Users\Grillmo\AppData\Local\Temp\ccnDcoCc.s 			page 11


 571              	.L72:
 572 003c 00000000 		.word	.LANCHOR0
 573 0040 00000000 		.word	.LANCHOR11
 574 0044 00000000 		.word	.LANCHOR4
 575 0048 00000000 		.word	.LANCHOR10
 576              		.cfi_endproc
 577              	.LFE315:
 578              		.size	update_sensor_mode, .-update_sensor_mode
 579              		.section	.text.update_timer_attempt,"ax",%progbits
 580              		.align	1
 581              		.p2align 4,,15
 582              		.syntax unified
 583              		.thumb
 584              		.thumb_func
 585              		.fpu fpv4-sp-d16
 586              		.type	update_timer_attempt, %function
 587              	update_timer_attempt:
 588              	.LFB318:
 589              		.loc 1 2593 0
 590              		.cfi_startproc
 591              		@ args = 0, pretend = 0, frame = 0
 592              		@ frame_needed = 0, uses_anonymous_args = 0
 593 0000 08B5     		push	{r3, lr}
 594              		.cfi_def_cfa_offset 8
 595              		.cfi_offset 3, -8
 596              		.cfi_offset 14, -4
 597              		.loc 1 2594 0
 598 0002 FFF7FEFF 		bl	utils_sys_lock_cnt
 599              	.LVL18:
 600              		.loc 1 2597 0
 601 0006 194A     		ldr	r2, .L77
 602 0008 1378     		ldrb	r3, [r2]	@ zero_extendqisi2
 603 000a 002B     		cmp	r3, #0
 604 000c 2AD1     		bne	.L75
 605              		.loc 1 2597 0 is_stmt 0 discriminator 1
 606 000e 184B     		ldr	r3, .L77+4
 607 0010 596A     		ldr	r1, [r3, #36]
 608 0012 0A29     		cmp	r1, #10
 609 0014 26D9     		bls	.L75
 610              		.loc 1 2597 0 discriminator 2
 611 0016 586A     		ldr	r0, [r3, #36]
 612 0018 D96A     		ldr	r1, [r3, #44]
 613 001a A1F5FA71 		sub	r1, r1, #500
 614 001e 8842     		cmp	r0, r1
 615 0020 20D2     		bcs	.L75
 616              		.loc 1 2599 0 is_stmt 1
 617 0022 1868     		ldr	r0, [r3]
 618              		.loc 1 2600 0
 619 0024 1349     		ldr	r1, .L77+8
 620              		.loc 1 2599 0
 621 0026 40F00200 		orr	r0, r0, #2
 622 002a 1860     		str	r0, [r3]
 623              		.loc 1 2600 0
 624 002c 0868     		ldr	r0, [r1]
 625 002e 40F00200 		orr	r0, r0, #2
 626 0032 0860     		str	r0, [r1]
 627              		.loc 1 2603 0
ARM GAS  C:\Users\Grillmo\AppData\Local\Temp\ccnDcoCc.s 			page 12


 628 0034 5068     		ldr	r0, [r2, #4]
 629 0036 D862     		str	r0, [r3, #44]
 630              		.loc 1 2604 0
 631 0038 9068     		ldr	r0, [r2, #8]
 632 003a 5863     		str	r0, [r3, #52]
 633              		.loc 1 2605 0
 634 003c 9068     		ldr	r0, [r2, #8]
 635 003e 9863     		str	r0, [r3, #56]
 636              		.loc 1 2606 0
 637 0040 9068     		ldr	r0, [r2, #8]
 638 0042 D863     		str	r0, [r3, #60]
 639              		.loc 1 2607 0
 640 0044 D068     		ldr	r0, [r2, #12]
 641 0046 4863     		str	r0, [r1, #52]
 642              		.loc 1 2608 0
 643 0048 1069     		ldr	r0, [r2, #16]
 644 004a 1864     		str	r0, [r3, #64]
 645              		.loc 1 2609 0
 646 004c 5069     		ldr	r0, [r2, #20]
 647 004e 8863     		str	r0, [r1, #56]
 648              		.loc 1 2615 0
 649 0050 1868     		ldr	r0, [r3]
 650 0052 20F00200 		bic	r0, r0, #2
 651 0056 1860     		str	r0, [r3]
 652              		.loc 1 2616 0
 653 0058 0B68     		ldr	r3, [r1]
 654              		.loc 1 2617 0
 655 005a 0120     		movs	r0, #1
 656              		.loc 1 2616 0
 657 005c 23F00203 		bic	r3, r3, #2
 658 0060 0B60     		str	r3, [r1]
 659              		.loc 1 2617 0
 660 0062 1070     		strb	r0, [r2]
 661              	.L75:
 662              		.loc 1 2621 0
 663 0064 BDE80840 		pop	{r3, lr}
 664              		.cfi_restore 14
 665              		.cfi_restore 3
 666              		.cfi_def_cfa_offset 0
 667              		.loc 1 2620 0
 668 0068 FFF7FEBF 		b	utils_sys_unlock_cnt
 669              	.LVL19:
 670              	.L78:
 671              		.align	2
 672              	.L77:
 673 006c 00000000 		.word	.LANCHOR12
 674 0070 00000140 		.word	1073807360
 675 0074 00040140 		.word	1073808384
 676              		.cfi_endproc
 677              	.LFE318:
 678              		.size	update_timer_attempt, .-update_timer_attempt
 679              		.section	.text.set_next_timer_settings,"ax",%progbits
 680              		.align	1
 681              		.p2align 4,,15
 682              		.syntax unified
 683              		.thumb
 684              		.thumb_func
ARM GAS  C:\Users\Grillmo\AppData\Local\Temp\ccnDcoCc.s 			page 13


 685              		.fpu fpv4-sp-d16
 686              		.type	set_next_timer_settings, %function
 687              	set_next_timer_settings:
 688              	.LFB317:
 689              		.loc 1 2580 0
 690              		.cfi_startproc
 691              		@ args = 0, pretend = 0, frame = 0
 692              		@ frame_needed = 0, uses_anonymous_args = 0
 693              	.LVL20:
 694 0000 70B5     		push	{r4, r5, r6, lr}
 695              		.cfi_def_cfa_offset 16
 696              		.cfi_offset 4, -16
 697              		.cfi_offset 5, -12
 698              		.cfi_offset 6, -8
 699              		.cfi_offset 14, -4
 700              		.loc 1 2580 0
 701 0002 0446     		mov	r4, r0
 702              		.loc 1 2581 0
 703 0004 FFF7FEFF 		bl	utils_sys_lock_cnt
 704              	.LVL21:
 705              		.loc 1 2582 0
 706 0008 0FCC     		ldmia	r4!, {r0, r1, r2, r3}
 707              	.LVL22:
 708 000a 074E     		ldr	r6, .L81
 709 000c 3546     		mov	r5, r6
 710 000e 0FC5     		stmia	r5!, {r0, r1, r2, r3}
 711 0010 94E80300 		ldm	r4, {r0, r1}
 712              		.loc 1 2583 0
 713 0014 0023     		movs	r3, #0
 714              		.loc 1 2582 0
 715 0016 85E80300 		stm	r5, {r0, r1}
 716              		.loc 1 2583 0
 717 001a 3370     		strb	r3, [r6]
 718              		.loc 1 2584 0
 719 001c FFF7FEFF 		bl	utils_sys_unlock_cnt
 720              	.LVL23:
 721              		.loc 1 2587 0
 722 0020 BDE87040 		pop	{r4, r5, r6, lr}
 723              		.cfi_restore 14
 724              		.cfi_restore 6
 725              		.cfi_restore 5
 726              		.cfi_restore 4
 727              		.cfi_def_cfa_offset 0
 728              	.LVL24:
 729              		.loc 1 2586 0
 730 0024 FFF7FEBF 		b	update_timer_attempt
 731              	.LVL25:
 732              	.L82:
 733              		.align	2
 734              	.L81:
 735 0028 00000000 		.word	.LANCHOR12
 736              		.cfi_endproc
 737              	.LFE317:
 738              		.size	set_next_timer_settings, .-set_next_timer_settings
 739              		.section	.text.set_switching_frequency,"ax",%progbits
 740              		.align	1
 741              		.p2align 4,,15
ARM GAS  C:\Users\Grillmo\AppData\Local\Temp\ccnDcoCc.s 			page 14


 742              		.syntax unified
 743              		.thumb
 744              		.thumb_func
 745              		.fpu fpv4-sp-d16
 746              		.type	set_switching_frequency, %function
 747              	set_switching_frequency:
 748              	.LFB319:
 749              		.loc 1 2623 0
 750              		.cfi_startproc
 751              		@ args = 0, pretend = 0, frame = 24
 752              		@ frame_needed = 0, uses_anonymous_args = 0
 753              	.LVL26:
 754 0000 70B5     		push	{r4, r5, r6, lr}
 755              		.cfi_def_cfa_offset 16
 756              		.cfi_offset 4, -16
 757              		.cfi_offset 5, -12
 758              		.cfi_offset 6, -8
 759              		.cfi_offset 14, -4
 760              		.loc 1 2624 0
 761 0002 114E     		ldr	r6, .L85
 762              		.loc 1 2628 0
 763 0004 114D     		ldr	r5, .L85+4
 764              		.loc 1 2624 0
 765 0006 86ED000A 		vstr.32	s0, [r6]
 766              		.loc 1 2623 0
 767 000a 86B0     		sub	sp, sp, #24
 768              		.cfi_def_cfa_offset 40
 769              		.loc 1 2627 0
 770 000c FFF7FEFF 		bl	utils_sys_lock_cnt
 771              	.LVL27:
 772              		.loc 1 2628 0
 773 0010 0FCD     		ldmia	r5!, {r0, r1, r2, r3}
 774 0012 6C46     		mov	r4, sp
 775 0014 0FC4     		stmia	r4!, {r0, r1, r2, r3}
 776 0016 95E80300 		ldm	r5, {r0, r1}
 777 001a 84E80300 		stm	r4, {r0, r1}
 778              		.loc 1 2629 0
 779 001e FFF7FEFF 		bl	utils_sys_unlock_cnt
 780              	.LVL28:
 781              		.loc 1 2631 0
 782 0022 D6ED007A 		vldr.32	s15, [r6]
 783 0026 0A4A     		ldr	r2, .L85+8
 784 0028 FDEEE77A 		vcvt.s32.f32	s15, s15
 785              		.loc 1 2632 0
 786 002c 6846     		mov	r0, sp
 787              		.loc 1 2631 0
 788 002e 17EE903A 		vmov	r3, s15	@ int
 789 0032 92FBF3F3 		sdiv	r3, r2, r3
 790 0036 0193     		str	r3, [sp, #4]
 791              		.loc 1 2632 0
 792 0038 FFF7FEFF 		bl	update_adc_sample_pos
 793              	.LVL29:
 794              		.loc 1 2633 0
 795 003c 6846     		mov	r0, sp
 796 003e FFF7FEFF 		bl	set_next_timer_settings
 797              	.LVL30:
 798              		.loc 1 2634 0
ARM GAS  C:\Users\Grillmo\AppData\Local\Temp\ccnDcoCc.s 			page 15


 799 0042 06B0     		add	sp, sp, #24
 800              		.cfi_def_cfa_offset 16
 801              		@ sp needed
 802 0044 70BD     		pop	{r4, r5, r6, pc}
 803              	.L86:
 804 0046 00BF     		.align	2
 805              	.L85:
 806 0048 00000000 		.word	.LANCHOR13
 807 004c 00000000 		.word	.LANCHOR12
 808 0050 007A030A 		.word	168000000
 809              		.cfi_endproc
 810              	.LFE319:
 811              		.size	set_switching_frequency, .-set_switching_frequency
 812              		.section	.text.set_duty_cycle_hw,"ax",%progbits
 813              		.align	1
 814              		.p2align 4,,15
 815              		.syntax unified
 816              		.thumb
 817              		.thumb_func
 818              		.fpu fpv4-sp-d16
 819              		.type	set_duty_cycle_hw, %function
 820              	set_duty_cycle_hw:
 821              	.LFB292:
 822              		.loc 1 1087 0
 823              		.cfi_startproc
 824              		@ args = 0, pretend = 0, frame = 32
 825              		@ frame_needed = 0, uses_anonymous_args = 0
 826              	.LVL31:
 827 0000 70B5     		push	{r4, r5, r6, lr}
 828              		.cfi_def_cfa_offset 16
 829              		.cfi_offset 4, -16
 830              		.cfi_offset 5, -12
 831              		.cfi_offset 6, -8
 832              		.cfi_offset 14, -4
 833              		.loc 1 1091 0
 834 0002 424D     		ldr	r5, .L103
 835              		.loc 1 1094 0
 836 0004 424E     		ldr	r6, .L103+4
 837              		.loc 1 1087 0
 838 0006 88B0     		sub	sp, sp, #32
 839              		.cfi_def_cfa_offset 48
 840              		.loc 1 1087 0
 841 0008 8DED010A 		vstr.32	s0, [sp, #4]
 842              		.loc 1 1090 0
 843 000c FFF7FEFF 		bl	utils_sys_lock_cnt
 844              	.LVL32:
 845              		.loc 1 1091 0
 846 0010 0FCD     		ldmia	r5!, {r0, r1, r2, r3}
 847 0012 02AC     		add	r4, sp, #8
 848 0014 0FC4     		stmia	r4!, {r0, r1, r2, r3}
 849 0016 95E80300 		ldm	r5, {r0, r1}
 850 001a 84E80300 		stm	r4, {r0, r1}
 851              		.loc 1 1092 0
 852 001e FFF7FEFF 		bl	utils_sys_unlock_cnt
 853              	.LVL33:
 854              		.loc 1 1094 0
 855 0022 3368     		ldr	r3, [r6]
ARM GAS  C:\Users\Grillmo\AppData\Local\Temp\ccnDcoCc.s 			page 16


 856 0024 01A8     		add	r0, sp, #4
 857 0026 93ED150A 		vldr.32	s0, [r3, #84]
 858 002a D3ED160A 		vldr.32	s1, [r3, #88]
 859 002e FFF7FEFF 		bl	utils_truncate_number
 860              	.LVL34:
 861              		.loc 1 1096 0
 862 0032 3368     		ldr	r3, [r6]
 863 0034 9A78     		ldrb	r2, [r3, #2]	@ zero_extendqisi2
 864 0036 012A     		cmp	r2, #1
 865 0038 44D0     		beq	.L101
 866              		.loc 1 1099 0
 867 003a 364A     		ldr	r2, .L103+8
 868 003c 1278     		ldrb	r2, [r2]	@ zero_extendqisi2
 869 003e 012A     		cmp	r2, #1
 870 0040 39D0     		beq	.L90
 871              		.loc 1 1099 0 is_stmt 0 discriminator 1
 872 0042 1A78     		ldrb	r2, [r3]	@ zero_extendqisi2
 873 0044 022A     		cmp	r2, #2
 874 0046 36D0     		beq	.L90
 875              		.loc 1 1102 0 is_stmt 1
 876 0048 DDED016A 		vldr.32	s13, [sp, #4]
 877 004c D3ED595A 		vldr.32	s11, [r3, #356]
 878              		.loc 1 1103 0
 879 0050 D3ED5A7A 		vldr.32	s15, [r3, #360]
 880              		.loc 1 1102 0
 881 0054 304A     		ldr	r2, .L103+12
 882 0056 B0EEE66A 		vabs.f32	s12, s13
 883 005a B7EE007A 		vmov.f32	s14, #1.0e+0
 884              		.loc 1 1103 0
 885 005e 66EE277A 		vmul.f32	s15, s12, s15
 886              		.loc 1 1102 0
 887 0062 37EE467A 		vsub.f32	s14, s14, s12
 888 0066 E5EE877A 		vfma.f32	s15, s11, s14
 889 006a C2ED007A 		vstr.32	s15, [r2]
 890              	.L89:
 891              		.loc 1 1107 0
 892 006e 92ED007A 		vldr.32	s14, [r2]
 893 0072 2A49     		ldr	r1, .L103+16
 894 0074 FDEEC77A 		vcvt.s32.f32	s15, s14
 895 0078 17EE902A 		vmov	r2, s15	@ int
 896 007c 91FBF2F2 		sdiv	r2, r1, r2
 897 0080 0392     		str	r2, [sp, #12]
 898              		.loc 1 1109 0
 899 0082 9A78     		ldrb	r2, [r3, #2]	@ zero_extendqisi2
 900 0084 12B9     		cbnz	r2, .L92
 901              		.loc 1 1109 0 is_stmt 0 discriminator 1
 902 0086 1B78     		ldrb	r3, [r3]	@ zero_extendqisi2
 903 0088 022B     		cmp	r3, #2
 904 008a 22D0     		beq	.L102
 905              	.L92:
 906              		.loc 1 1113 0 is_stmt 1
 907 008c DDED037A 		vldr.32	s15, [sp, #12]	@ int
 908 0090 F8EE677A 		vcvt.f32.u32	s15, s15
 909 0094 67EEA67A 		vmul.f32	s15, s15, s13
 910 0098 FCEEE77A 		vcvt.u32.f32	s15, s15
 911 009c CDED007A 		vstr.32	s15, [sp]	@ int
 912 00a0 BDF80030 		ldrh	r3, [sp]
ARM GAS  C:\Users\Grillmo\AppData\Local\Temp\ccnDcoCc.s 			page 17


 913 00a4 0493     		str	r3, [sp, #16]
 914              	.L93:
 915              		.loc 1 1116 0
 916 00a6 02A8     		add	r0, sp, #8
 917 00a8 FFF7FEFF 		bl	update_adc_sample_pos
 918              	.LVL35:
 919              		.loc 1 1117 0
 920 00ac 02A8     		add	r0, sp, #8
 921 00ae FFF7FEFF 		bl	set_next_timer_settings
 922              	.LVL36:
 923              		.loc 1 1118 0
 924 00b2 08B0     		add	sp, sp, #32
 925              		.cfi_remember_state
 926              		.cfi_def_cfa_offset 16
 927              		@ sp needed
 928 00b4 70BD     		pop	{r4, r5, r6, pc}
 929              	.L90:
 930              		.cfi_restore_state
 931              		.loc 1 1100 0
 932 00b6 184A     		ldr	r2, .L103+12
 933 00b8 D3F86811 		ldr	r1, [r3, #360]	@ float
 934 00bc DDED016A 		vldr.32	s13, [sp, #4]
 935 00c0 1160     		str	r1, [r2]	@ float
 936 00c2 D4E7     		b	.L89
 937              	.L101:
 938              		.loc 1 1097 0
 939 00c4 144A     		ldr	r2, .L103+12
 940 00c6 D3F86C11 		ldr	r1, [r3, #364]	@ float
 941 00ca DDED016A 		vldr.32	s13, [sp, #4]
 942 00ce 1160     		str	r1, [r2]	@ float
 943 00d0 CDE7     		b	.L89
 944              	.L102:
 945              		.loc 1 1109 0 discriminator 2
 946 00d2 104B     		ldr	r3, .L103+8
 947 00d4 1B78     		ldrb	r3, [r3]	@ zero_extendqisi2
 948 00d6 012B     		cmp	r3, #1
 949 00d8 D8D0     		beq	.L92
 950              		.loc 1 1110 0
 951 00da 9DED037A 		vldr.32	s14, [sp, #12]	@ int
 952              		.loc 1 1111 0
 953 00de DDED037A 		vldr.32	s15, [sp, #12]	@ int
 954              		.loc 1 1110 0
 955 00e2 B8EE477A 		vcvt.f32.u32	s14, s14
 956              		.loc 1 1111 0
 957 00e6 F8EE677A 		vcvt.f32.u32	s15, s15
 958              		.loc 1 1110 0
 959 00ea B6EE006A 		vmov.f32	s12, #5.0e-1
 960 00ee 27EE067A 		vmul.f32	s14, s14, s12
 961              		.loc 1 1111 0
 962 00f2 67EE867A 		vmul.f32	s15, s15, s12
 963 00f6 E7EE267A 		vfma.f32	s15, s14, s13
 964              		.loc 1 1110 0
 965 00fa FCEEE77A 		vcvt.u32.f32	s15, s15
 966 00fe CDED007A 		vstr.32	s15, [sp]	@ int
 967 0102 BDF80030 		ldrh	r3, [sp]
 968 0106 0493     		str	r3, [sp, #16]
 969 0108 CDE7     		b	.L93
ARM GAS  C:\Users\Grillmo\AppData\Local\Temp\ccnDcoCc.s 			page 18


 970              	.L104:
 971 010a 00BF     		.align	2
 972              	.L103:
 973 010c 00000000 		.word	.LANCHOR12
 974 0110 00000000 		.word	.LANCHOR0
 975 0114 00000000 		.word	.LANCHOR2
 976 0118 00000000 		.word	.LANCHOR13
 977 011c 007A030A 		.word	168000000
 978              		.cfi_endproc
 979              	.LFE292:
 980              		.size	set_duty_cycle_hw, .-set_duty_cycle_hw
 981              		.section	.text.set_next_comm_step,"ax",%progbits
 982              		.align	1
 983              		.p2align 4,,15
 984              		.syntax unified
 985              		.thumb
 986              		.thumb_func
 987              		.fpu fpv4-sp-d16
 988              		.type	set_next_comm_step, %function
 989              	set_next_comm_step:
 990              	.LFB320:
 991              		.loc 1 2636 0
 992              		.cfi_startproc
 993              		@ args = 0, pretend = 0, frame = 0
 994              		@ frame_needed = 0, uses_anonymous_args = 0
 995              	.LVL37:
 996 0000 F8B5     		push	{r3, r4, r5, r6, r7, lr}
 997              		.cfi_def_cfa_offset 24
 998              		.cfi_offset 3, -24
 999              		.cfi_offset 4, -20
 1000              		.cfi_offset 5, -16
 1001              		.cfi_offset 6, -12
 1002              		.cfi_offset 7, -8
 1003              		.cfi_offset 14, -4
 1004              		.loc 1 2637 0
 1005 0002 BB4B     		ldr	r3, .L141
 1006 0004 1B68     		ldr	r3, [r3]
 1007 0006 9D78     		ldrb	r5, [r3, #2]	@ zero_extendqisi2
 1008 0008 EDB2     		uxtb	r5, r5
 1009 000a 012D     		cmp	r5, #1
 1010 000c 00F00981 		beq	.L135
 1011              	.LVL38:
 1012              		.loc 1 2677 0
 1013 0010 B84A     		ldr	r2, .L141+4
 1014 0012 1278     		ldrb	r2, [r2]	@ zero_extendqisi2
 1015 0014 012A     		cmp	r2, #1
 1016 0016 0446     		mov	r4, r0
 1017 0018 4ED0     		beq	.L123
 1018              		.loc 1 2678 0
 1019 001a 1B78     		ldrb	r3, [r3]	@ zero_extendqisi2
 1020 001c 03F0FF05 		and	r5, r3, #255
 1021 0020 002B     		cmp	r3, #0
 1022 0022 4AD0     		beq	.L126
 1023              		.loc 1 2672 0
 1024 0024 022D     		cmp	r5, #2
 1025 0026 0CBF     		ite	eq
 1026 0028 7026     		moveq	r6, #112
ARM GAS  C:\Users\Grillmo\AppData\Local\Temp\ccnDcoCc.s 			page 19


 1027 002a 2026     		movne	r6, #32
 1028              		.loc 1 2692 0
 1029 002c 012C     		cmp	r4, #1
 1030              		.loc 1 2672 0
 1031 002e 4FF00405 		mov	r5, #4
 1032              	.LVL39:
 1033              		.loc 1 2692 0
 1034 0032 46D0     		beq	.L136
 1035              	.L111:
 1036              		.loc 1 2734 0
 1037 0034 022C     		cmp	r4, #2
 1038 0036 00F0CB80 		beq	.L137
 1039              		.loc 1 2776 0
 1040 003a 032C     		cmp	r4, #3
 1041 003c 00F01B81 		beq	.L138
 1042              		.loc 1 2818 0
 1043 0040 042C     		cmp	r4, #4
 1044 0042 70D0     		beq	.L139
 1045              		.loc 1 2860 0
 1046 0044 052C     		cmp	r4, #5
 1047 0046 00F0A280 		beq	.L140
 1048              		.loc 1 2902 0
 1049 004a 062C     		cmp	r4, #6
 1050 004c 40F05881 		bne	.L121
 1051              		.loc 1 2903 0
 1052 0050 A94B     		ldr	r3, .L141+8
 1053 0052 1C68     		ldr	r4, [r3]
 1054              		.loc 1 2910 0
 1055 0054 2022     		movs	r2, #32
 1056              		.loc 1 2903 0
 1057 0056 002C     		cmp	r4, #0
 1058 0058 00F0C781 		beq	.L122
 1059              		.loc 1 2910 0
 1060 005c 0821     		movs	r1, #8
 1061 005e A748     		ldr	r0, .L141+12
 1062              	.LVL40:
 1063 0060 FFF7FEFF 		bl	TIM_SelectOCxM
 1064              	.LVL41:
 1065              		.loc 1 2911 0
 1066 0064 0122     		movs	r2, #1
 1067 0066 0821     		movs	r1, #8
 1068 0068 A448     		ldr	r0, .L141+12
 1069 006a FFF7FEFF 		bl	TIM_CCxCmd
 1070              	.LVL42:
 1071              		.loc 1 2912 0
 1072 006e 0022     		movs	r2, #0
 1073 0070 0821     		movs	r1, #8
 1074 0072 A248     		ldr	r0, .L141+12
 1075 0074 FFF7FEFF 		bl	TIM_CCxNCmd
 1076              	.LVL43:
 1077              		.loc 1 2915 0
 1078 0078 6022     		movs	r2, #96
 1079 007a 0421     		movs	r1, #4
 1080 007c 9F48     		ldr	r0, .L141+12
 1081 007e FFF7FEFF 		bl	TIM_SelectOCxM
 1082              	.LVL44:
 1083              		.loc 1 2916 0
ARM GAS  C:\Users\Grillmo\AppData\Local\Temp\ccnDcoCc.s 			page 20


 1084 0082 0122     		movs	r2, #1
 1085 0084 0421     		movs	r1, #4
 1086 0086 9D48     		ldr	r0, .L141+12
 1087 0088 FFF7FEFF 		bl	TIM_CCxCmd
 1088              	.LVL45:
 1089              		.loc 1 2917 0
 1090 008c 2A46     		mov	r2, r5
 1091 008e 0421     		movs	r1, #4
 1092              	.L131:
 1093 0090 9A48     		ldr	r0, .L141+12
 1094 0092 FFF7FEFF 		bl	TIM_CCxNCmd
 1095              	.LVL46:
 1096              		.loc 1 2920 0
 1097 0096 3246     		mov	r2, r6
 1098 0098 0021     		movs	r1, #0
 1099 009a 9848     		ldr	r0, .L141+12
 1100 009c FFF7FEFF 		bl	TIM_SelectOCxM
 1101              	.LVL47:
 1102              		.loc 1 2921 0
 1103 00a0 0122     		movs	r2, #1
 1104 00a2 0021     		movs	r1, #0
 1105 00a4 9548     		ldr	r0, .L141+12
 1106 00a6 FFF7FEFF 		bl	TIM_CCxCmd
 1107              	.LVL48:
 1108              		.loc 1 2922 0
 1109 00aa 0422     		movs	r2, #4
 1110 00ac 0021     		movs	r1, #0
 1111 00ae 9348     		ldr	r0, .L141+12
 1112              		.loc 1 2963 0
 1113 00b0 BDE8F840 		pop	{r3, r4, r5, r6, r7, lr}
 1114              		.cfi_remember_state
 1115              		.cfi_restore 14
 1116              		.cfi_restore 7
 1117              		.cfi_restore 6
 1118              		.cfi_restore 5
 1119              		.cfi_restore 4
 1120              		.cfi_restore 3
 1121              		.cfi_def_cfa_offset 0
 1122              	.LVL49:
 1123              		.loc 1 2922 0
 1124 00b4 FFF7FEBF 		b	TIM_CCxNCmd
 1125              	.LVL50:
 1126              	.L123:
 1127              		.cfi_restore_state
 1128              		.loc 1 2672 0
 1129 00b8 0425     		movs	r5, #4
 1130              	.L126:
 1131              		.loc 1 2692 0
 1132 00ba 012C     		cmp	r4, #1
 1133              		.loc 1 2669 0
 1134 00bc 4FF02006 		mov	r6, #32
 1135              	.LVL51:
 1136              		.loc 1 2692 0
 1137 00c0 B8D1     		bne	.L111
 1138              	.L136:
 1139              		.loc 1 2693 0
 1140 00c2 8D4B     		ldr	r3, .L141+8
ARM GAS  C:\Users\Grillmo\AppData\Local\Temp\ccnDcoCc.s 			page 21


 1141 00c4 1F68     		ldr	r7, [r3]
 1142              		.loc 1 2700 0
 1143 00c6 2022     		movs	r2, #32
 1144              		.loc 1 2693 0
 1145 00c8 9FB3     		cbz	r7, .L134
 1146              		.loc 1 2700 0
 1147 00ca 0021     		movs	r1, #0
 1148 00cc 8B48     		ldr	r0, .L141+12
 1149              	.LVL52:
 1150 00ce FFF7FEFF 		bl	TIM_SelectOCxM
 1151              	.LVL53:
 1152              		.loc 1 2701 0
 1153 00d2 2246     		mov	r2, r4
 1154 00d4 0021     		movs	r1, #0
 1155 00d6 8948     		ldr	r0, .L141+12
 1156 00d8 FFF7FEFF 		bl	TIM_CCxCmd
 1157              	.LVL54:
 1158              		.loc 1 2702 0
 1159 00dc 0022     		movs	r2, #0
 1160 00de 1146     		mov	r1, r2
 1161 00e0 8648     		ldr	r0, .L141+12
 1162 00e2 FFF7FEFF 		bl	TIM_CCxNCmd
 1163              	.LVL55:
 1164              		.loc 1 2705 0
 1165 00e6 6022     		movs	r2, #96
 1166 00e8 0421     		movs	r1, #4
 1167 00ea 8448     		ldr	r0, .L141+12
 1168 00ec FFF7FEFF 		bl	TIM_SelectOCxM
 1169              	.LVL56:
 1170              		.loc 1 2706 0
 1171 00f0 2246     		mov	r2, r4
 1172 00f2 0421     		movs	r1, #4
 1173 00f4 8148     		ldr	r0, .L141+12
 1174 00f6 FFF7FEFF 		bl	TIM_CCxCmd
 1175              	.LVL57:
 1176              		.loc 1 2707 0
 1177 00fa 2A46     		mov	r2, r5
 1178 00fc 0421     		movs	r1, #4
 1179 00fe 7F48     		ldr	r0, .L141+12
 1180 0100 FFF7FEFF 		bl	TIM_CCxNCmd
 1181              	.LVL58:
 1182              		.loc 1 2710 0
 1183 0104 3246     		mov	r2, r6
 1184 0106 0821     		movs	r1, #8
 1185 0108 7C48     		ldr	r0, .L141+12
 1186 010a FFF7FEFF 		bl	TIM_SelectOCxM
 1187              	.LVL59:
 1188              		.loc 1 2711 0
 1189 010e 2246     		mov	r2, r4
 1190              	.LVL60:
 1191              	.L127:
 1192 0110 0821     		movs	r1, #8
 1193 0112 7A48     		ldr	r0, .L141+12
 1194 0114 FFF7FEFF 		bl	TIM_CCxCmd
 1195              	.LVL61:
 1196              		.loc 1 2712 0
 1197 0118 0422     		movs	r2, #4
ARM GAS  C:\Users\Grillmo\AppData\Local\Temp\ccnDcoCc.s 			page 22


 1198 011a 0821     		movs	r1, #8
 1199 011c 7748     		ldr	r0, .L141+12
 1200              		.loc 1 2963 0
 1201 011e BDE8F840 		pop	{r3, r4, r5, r6, r7, lr}
 1202              		.cfi_remember_state
 1203              		.cfi_restore 14
 1204              		.cfi_restore 7
 1205              		.cfi_restore 6
 1206              		.cfi_restore 5
 1207              		.cfi_restore 4
 1208              		.cfi_restore 3
 1209              		.cfi_def_cfa_offset 0
 1210              		.loc 1 2712 0
 1211 0122 FFF7FEBF 		b	TIM_CCxNCmd
 1212              	.LVL62:
 1213              	.L139:
 1214              		.cfi_restore_state
 1215              		.loc 1 2819 0
 1216 0126 744B     		ldr	r3, .L141+8
 1217 0128 1F68     		ldr	r7, [r3]
 1218              		.loc 1 2826 0
 1219 012a 2022     		movs	r2, #32
 1220              		.loc 1 2819 0
 1221 012c 002F     		cmp	r7, #0
 1222 012e 00F05081 		beq	.L118
 1223              	.L134:
 1224              		.loc 1 2826 0
 1225 0132 0021     		movs	r1, #0
 1226 0134 7148     		ldr	r0, .L141+12
 1227              	.LVL63:
 1228 0136 FFF7FEFF 		bl	TIM_SelectOCxM
 1229              	.LVL64:
 1230              		.loc 1 2827 0
 1231 013a 0122     		movs	r2, #1
 1232 013c 0021     		movs	r1, #0
 1233 013e 6F48     		ldr	r0, .L141+12
 1234 0140 FFF7FEFF 		bl	TIM_CCxCmd
 1235              	.LVL65:
 1236              		.loc 1 2828 0
 1237 0144 0022     		movs	r2, #0
 1238 0146 1146     		mov	r1, r2
 1239 0148 6C48     		ldr	r0, .L141+12
 1240 014a FFF7FEFF 		bl	TIM_CCxNCmd
 1241              	.LVL66:
 1242              		.loc 1 2831 0
 1243 014e 6022     		movs	r2, #96
 1244 0150 0821     		movs	r1, #8
 1245 0152 6A48     		ldr	r0, .L141+12
 1246 0154 FFF7FEFF 		bl	TIM_SelectOCxM
 1247              	.LVL67:
 1248              		.loc 1 2832 0
 1249 0158 0122     		movs	r2, #1
 1250 015a 0821     		movs	r1, #8
 1251 015c 6748     		ldr	r0, .L141+12
 1252 015e FFF7FEFF 		bl	TIM_CCxCmd
 1253              	.LVL68:
 1254              		.loc 1 2833 0
ARM GAS  C:\Users\Grillmo\AppData\Local\Temp\ccnDcoCc.s 			page 23


 1255 0162 2A46     		mov	r2, r5
 1256 0164 0821     		movs	r1, #8
 1257              	.LVL69:
 1258              	.L129:
 1259              		.loc 1 2769 0
 1260 0166 6548     		ldr	r0, .L141+12
 1261 0168 FFF7FEFF 		bl	TIM_CCxNCmd
 1262              	.LVL70:
 1263              		.loc 1 2772 0
 1264 016c 3246     		mov	r2, r6
 1265 016e 0421     		movs	r1, #4
 1266 0170 6248     		ldr	r0, .L141+12
 1267 0172 FFF7FEFF 		bl	TIM_SelectOCxM
 1268              	.LVL71:
 1269              		.loc 1 2773 0
 1270 0176 0122     		movs	r2, #1
 1271 0178 0421     		movs	r1, #4
 1272 017a 6048     		ldr	r0, .L141+12
 1273 017c FFF7FEFF 		bl	TIM_CCxCmd
 1274              	.LVL72:
 1275              		.loc 1 2774 0
 1276 0180 0422     		movs	r2, #4
 1277 0182 1146     		mov	r1, r2
 1278 0184 5D48     		ldr	r0, .L141+12
 1279              		.loc 1 2963 0
 1280 0186 BDE8F840 		pop	{r3, r4, r5, r6, r7, lr}
 1281              		.cfi_remember_state
 1282              		.cfi_restore 14
 1283              		.cfi_restore 7
 1284              		.cfi_restore 6
 1285              		.cfi_restore 5
 1286              		.cfi_restore 4
 1287              		.cfi_restore 3
 1288              		.cfi_def_cfa_offset 0
 1289              	.LVL73:
 1290              		.loc 1 2774 0
 1291 018a FFF7FEBF 		b	TIM_CCxNCmd
 1292              	.LVL74:
 1293              	.L140:
 1294              		.cfi_restore_state
 1295              		.loc 1 2861 0
 1296 018e 5A4B     		ldr	r3, .L141+8
 1297 0190 1C68     		ldr	r4, [r3]
 1298              		.loc 1 2868 0
 1299 0192 2022     		movs	r2, #32
 1300              		.loc 1 2861 0
 1301 0194 002C     		cmp	r4, #0
 1302 0196 00F04781 		beq	.L120
 1303              		.loc 1 2868 0
 1304 019a 0421     		movs	r1, #4
 1305 019c 5748     		ldr	r0, .L141+12
 1306              	.LVL75:
 1307 019e FFF7FEFF 		bl	TIM_SelectOCxM
 1308              	.LVL76:
 1309              		.loc 1 2869 0
 1310 01a2 0122     		movs	r2, #1
 1311 01a4 0421     		movs	r1, #4
ARM GAS  C:\Users\Grillmo\AppData\Local\Temp\ccnDcoCc.s 			page 24


 1312 01a6 5548     		ldr	r0, .L141+12
 1313 01a8 FFF7FEFF 		bl	TIM_CCxCmd
 1314              	.LVL77:
 1315              		.loc 1 2870 0
 1316 01ac 0022     		movs	r2, #0
 1317 01ae 0421     		movs	r1, #4
 1318 01b0 5248     		ldr	r0, .L141+12
 1319 01b2 FFF7FEFF 		bl	TIM_CCxNCmd
 1320              	.LVL78:
 1321              		.loc 1 2873 0
 1322 01b6 6022     		movs	r2, #96
 1323 01b8 0821     		movs	r1, #8
 1324 01ba 5048     		ldr	r0, .L141+12
 1325 01bc FFF7FEFF 		bl	TIM_SelectOCxM
 1326              	.LVL79:
 1327              		.loc 1 2874 0
 1328 01c0 0122     		movs	r2, #1
 1329 01c2 0821     		movs	r1, #8
 1330 01c4 4D48     		ldr	r0, .L141+12
 1331 01c6 FFF7FEFF 		bl	TIM_CCxCmd
 1332              	.LVL80:
 1333              		.loc 1 2875 0
 1334 01ca 2A46     		mov	r2, r5
 1335 01cc 0821     		movs	r1, #8
 1336 01ce 5FE7     		b	.L131
 1337              	.LVL81:
 1338              	.L137:
 1339              		.loc 1 2735 0
 1340 01d0 494B     		ldr	r3, .L141+8
 1341 01d2 1C68     		ldr	r4, [r3]
 1342              		.loc 1 2742 0
 1343 01d4 2022     		movs	r2, #32
 1344              		.loc 1 2735 0
 1345 01d6 002C     		cmp	r4, #0
 1346 01d8 6ED0     		beq	.L114
 1347              		.loc 1 2742 0
 1348 01da 0421     		movs	r1, #4
 1349 01dc 4748     		ldr	r0, .L141+12
 1350              	.LVL82:
 1351 01de FFF7FEFF 		bl	TIM_SelectOCxM
 1352              	.LVL83:
 1353              		.loc 1 2743 0
 1354 01e2 0122     		movs	r2, #1
 1355 01e4 0421     		movs	r1, #4
 1356 01e6 4548     		ldr	r0, .L141+12
 1357 01e8 FFF7FEFF 		bl	TIM_CCxCmd
 1358              	.LVL84:
 1359              		.loc 1 2744 0
 1360 01ec 0022     		movs	r2, #0
 1361 01ee 0421     		movs	r1, #4
 1362 01f0 4248     		ldr	r0, .L141+12
 1363 01f2 FFF7FEFF 		bl	TIM_CCxNCmd
 1364              	.LVL85:
 1365              		.loc 1 2747 0
 1366 01f6 6022     		movs	r2, #96
 1367 01f8 0021     		movs	r1, #0
 1368 01fa 4048     		ldr	r0, .L141+12
ARM GAS  C:\Users\Grillmo\AppData\Local\Temp\ccnDcoCc.s 			page 25


 1369 01fc FFF7FEFF 		bl	TIM_SelectOCxM
 1370              	.LVL86:
 1371              		.loc 1 2748 0
 1372 0200 0122     		movs	r2, #1
 1373 0202 0021     		movs	r1, #0
 1374 0204 3D48     		ldr	r0, .L141+12
 1375 0206 FFF7FEFF 		bl	TIM_CCxCmd
 1376              	.LVL87:
 1377              		.loc 1 2749 0
 1378 020a 2A46     		mov	r2, r5
 1379 020c 0021     		movs	r1, #0
 1380              	.L133:
 1381              		.loc 1 2853 0
 1382 020e 3B48     		ldr	r0, .L141+12
 1383 0210 FFF7FEFF 		bl	TIM_CCxNCmd
 1384              	.LVL88:
 1385              		.loc 1 2856 0
 1386 0214 3246     		mov	r2, r6
 1387 0216 0821     		movs	r1, #8
 1388 0218 3848     		ldr	r0, .L141+12
 1389 021a FFF7FEFF 		bl	TIM_SelectOCxM
 1390              	.LVL89:
 1391              		.loc 1 2857 0
 1392 021e 0122     		movs	r2, #1
 1393 0220 76E7     		b	.L127
 1394              	.LVL90:
 1395              	.L135:
 1396              		.loc 1 2639 0
 1397 0222 2022     		movs	r2, #32
 1398 0224 0421     		movs	r1, #4
 1399 0226 3548     		ldr	r0, .L141+12
 1400              	.LVL91:
 1401 0228 FFF7FEFF 		bl	TIM_SelectOCxM
 1402              	.LVL92:
 1403              		.loc 1 2640 0
 1404 022c 2A46     		mov	r2, r5
 1405 022e 0421     		movs	r1, #4
 1406 0230 3248     		ldr	r0, .L141+12
 1407 0232 FFF7FEFF 		bl	TIM_CCxCmd
 1408              	.LVL93:
 1409              		.loc 1 2641 0
 1410 0236 0022     		movs	r2, #0
 1411 0238 0421     		movs	r1, #4
 1412 023a 3048     		ldr	r0, .L141+12
 1413 023c FFF7FEFF 		bl	TIM_CCxNCmd
 1414              	.LVL94:
 1415              		.loc 1 2643 0
 1416 0240 2D4B     		ldr	r3, .L141+8
 1417 0242 1C68     		ldr	r4, [r3]
 1418              		.loc 1 2645 0
 1419 0244 6022     		movs	r2, #96
 1420              		.loc 1 2643 0
 1421 0246 002C     		cmp	r4, #0
 1422 0248 00F08980 		beq	.L107
 1423              		.loc 1 2645 0
 1424 024c 0021     		movs	r1, #0
 1425 024e 2B48     		ldr	r0, .L141+12
ARM GAS  C:\Users\Grillmo\AppData\Local\Temp\ccnDcoCc.s 			page 26


 1426 0250 FFF7FEFF 		bl	TIM_SelectOCxM
 1427              	.LVL95:
 1428              		.loc 1 2646 0
 1429 0254 2A46     		mov	r2, r5
 1430 0256 0021     		movs	r1, #0
 1431 0258 2848     		ldr	r0, .L141+12
 1432 025a FFF7FEFF 		bl	TIM_CCxCmd
 1433              	.LVL96:
 1434              		.loc 1 2647 0
 1435 025e 0422     		movs	r2, #4
 1436 0260 0021     		movs	r1, #0
 1437 0262 2648     		ldr	r0, .L141+12
 1438 0264 FFF7FEFF 		bl	TIM_CCxNCmd
 1439              	.LVL97:
 1440              		.loc 1 2650 0
 1441 0268 2022     		movs	r2, #32
 1442 026a 0821     		movs	r1, #8
 1443 026c 2348     		ldr	r0, .L141+12
 1444 026e FFF7FEFF 		bl	TIM_SelectOCxM
 1445              	.LVL98:
 1446              		.loc 1 2651 0
 1447 0272 2A46     		mov	r2, r5
 1448 0274 4CE7     		b	.L127
 1449              	.LVL99:
 1450              	.L138:
 1451              		.loc 1 2777 0
 1452 0276 204B     		ldr	r3, .L141+8
 1453 0278 1C68     		ldr	r4, [r3]
 1454              		.loc 1 2784 0
 1455 027a 2022     		movs	r2, #32
 1456              		.loc 1 2777 0
 1457 027c 002C     		cmp	r4, #0
 1458 027e 00F08D80 		beq	.L116
 1459              		.loc 1 2784 0
 1460 0282 0821     		movs	r1, #8
 1461 0284 1D48     		ldr	r0, .L141+12
 1462              	.LVL100:
 1463 0286 FFF7FEFF 		bl	TIM_SelectOCxM
 1464              	.LVL101:
 1465              		.loc 1 2785 0
 1466 028a 0122     		movs	r2, #1
 1467 028c 0821     		movs	r1, #8
 1468 028e 1B48     		ldr	r0, .L141+12
 1469 0290 FFF7FEFF 		bl	TIM_CCxCmd
 1470              	.LVL102:
 1471              		.loc 1 2786 0
 1472 0294 0022     		movs	r2, #0
 1473 0296 0821     		movs	r1, #8
 1474 0298 1848     		ldr	r0, .L141+12
 1475 029a FFF7FEFF 		bl	TIM_CCxNCmd
 1476              	.LVL103:
 1477              		.loc 1 2789 0
 1478 029e 6022     		movs	r2, #96
 1479 02a0 0021     		movs	r1, #0
 1480 02a2 1648     		ldr	r0, .L141+12
 1481 02a4 FFF7FEFF 		bl	TIM_SelectOCxM
 1482              	.LVL104:
ARM GAS  C:\Users\Grillmo\AppData\Local\Temp\ccnDcoCc.s 			page 27


 1483              		.loc 1 2790 0
 1484 02a8 0122     		movs	r2, #1
 1485 02aa 0021     		movs	r1, #0
 1486 02ac 1348     		ldr	r0, .L141+12
 1487 02ae FFF7FEFF 		bl	TIM_CCxCmd
 1488              	.LVL105:
 1489              		.loc 1 2791 0
 1490 02b2 2A46     		mov	r2, r5
 1491 02b4 0021     		movs	r1, #0
 1492 02b6 56E7     		b	.L129
 1493              	.LVL106:
 1494              	.L114:
 1495              		.loc 1 2762 0
 1496 02b8 0821     		movs	r1, #8
 1497 02ba 1048     		ldr	r0, .L141+12
 1498              	.LVL107:
 1499 02bc FFF7FEFF 		bl	TIM_SelectOCxM
 1500              	.LVL108:
 1501              		.loc 1 2763 0
 1502 02c0 0122     		movs	r2, #1
 1503 02c2 0821     		movs	r1, #8
 1504 02c4 0D48     		ldr	r0, .L141+12
 1505 02c6 FFF7FEFF 		bl	TIM_CCxCmd
 1506              	.LVL109:
 1507              		.loc 1 2764 0
 1508 02ca 2246     		mov	r2, r4
 1509 02cc 0821     		movs	r1, #8
 1510 02ce 0B48     		ldr	r0, .L141+12
 1511 02d0 FFF7FEFF 		bl	TIM_CCxNCmd
 1512              	.LVL110:
 1513              		.loc 1 2767 0
 1514 02d4 6022     		movs	r2, #96
 1515 02d6 2146     		mov	r1, r4
 1516 02d8 0848     		ldr	r0, .L141+12
 1517 02da FFF7FEFF 		bl	TIM_SelectOCxM
 1518              	.LVL111:
 1519              		.loc 1 2768 0
 1520 02de 0122     		movs	r2, #1
 1521 02e0 2146     		mov	r1, r4
 1522 02e2 0648     		ldr	r0, .L141+12
 1523 02e4 FFF7FEFF 		bl	TIM_CCxCmd
 1524              	.LVL112:
 1525              		.loc 1 2769 0
 1526 02e8 2A46     		mov	r2, r5
 1527 02ea 2146     		mov	r1, r4
 1528 02ec 3BE7     		b	.L129
 1529              	.L142:
 1530 02ee 00BF     		.align	2
 1531              	.L141:
 1532 02f0 00000000 		.word	.LANCHOR0
 1533 02f4 00000000 		.word	.LANCHOR2
 1534 02f8 00000000 		.word	.LANCHOR4
 1535 02fc 00000140 		.word	1073807360
 1536              	.LVL113:
 1537              	.L121:
 1538              		.loc 1 2951 0
 1539 0300 4022     		movs	r2, #64
ARM GAS  C:\Users\Grillmo\AppData\Local\Temp\ccnDcoCc.s 			page 28


 1540 0302 0021     		movs	r1, #0
 1541 0304 5648     		ldr	r0, .L143
 1542              	.LVL114:
 1543 0306 FFF7FEFF 		bl	TIM_SelectOCxM
 1544              	.LVL115:
 1545              		.loc 1 2952 0
 1546 030a 0122     		movs	r2, #1
 1547 030c 0021     		movs	r1, #0
 1548 030e 5448     		ldr	r0, .L143
 1549 0310 FFF7FEFF 		bl	TIM_CCxCmd
 1550              	.LVL116:
 1551              		.loc 1 2953 0
 1552 0314 0022     		movs	r2, #0
 1553 0316 1146     		mov	r1, r2
 1554 0318 5148     		ldr	r0, .L143
 1555 031a FFF7FEFF 		bl	TIM_CCxNCmd
 1556              	.LVL117:
 1557              		.loc 1 2955 0
 1558 031e 4022     		movs	r2, #64
 1559 0320 0421     		movs	r1, #4
 1560 0322 4F48     		ldr	r0, .L143
 1561 0324 FFF7FEFF 		bl	TIM_SelectOCxM
 1562              	.LVL118:
 1563              		.loc 1 2956 0
 1564 0328 0122     		movs	r2, #1
 1565 032a 0421     		movs	r1, #4
 1566 032c 4C48     		ldr	r0, .L143
 1567 032e FFF7FEFF 		bl	TIM_CCxCmd
 1568              	.LVL119:
 1569              		.loc 1 2957 0
 1570 0332 0022     		movs	r2, #0
 1571 0334 0421     		movs	r1, #4
 1572 0336 4A48     		ldr	r0, .L143
 1573 0338 FFF7FEFF 		bl	TIM_CCxNCmd
 1574              	.LVL120:
 1575              		.loc 1 2959 0
 1576 033c 4022     		movs	r2, #64
 1577 033e 0821     		movs	r1, #8
 1578 0340 4748     		ldr	r0, .L143
 1579 0342 FFF7FEFF 		bl	TIM_SelectOCxM
 1580              	.LVL121:
 1581              		.loc 1 2960 0
 1582 0346 0122     		movs	r2, #1
 1583 0348 0821     		movs	r1, #8
 1584 034a 4548     		ldr	r0, .L143
 1585 034c FFF7FEFF 		bl	TIM_CCxCmd
 1586              	.LVL122:
 1587              		.loc 1 2961 0
 1588 0350 0022     		movs	r2, #0
 1589 0352 0821     		movs	r1, #8
 1590 0354 4248     		ldr	r0, .L143
 1591              		.loc 1 2963 0
 1592 0356 BDE8F840 		pop	{r3, r4, r5, r6, r7, lr}
 1593              		.cfi_remember_state
 1594              		.cfi_restore 14
 1595              		.cfi_restore 7
 1596              		.cfi_restore 6
ARM GAS  C:\Users\Grillmo\AppData\Local\Temp\ccnDcoCc.s 			page 29


 1597              		.cfi_restore 5
 1598              		.cfi_restore 4
 1599              		.cfi_restore 3
 1600              		.cfi_def_cfa_offset 0
 1601              	.LVL123:
 1602              		.loc 1 2961 0
 1603 035a FFF7FEBF 		b	TIM_CCxNCmd
 1604              	.LVL124:
 1605              	.L107:
 1606              		.cfi_restore_state
 1607              		.loc 1 2655 0
 1608 035e 0821     		movs	r1, #8
 1609 0360 3F48     		ldr	r0, .L143
 1610 0362 FFF7FEFF 		bl	TIM_SelectOCxM
 1611              	.LVL125:
 1612              		.loc 1 2656 0
 1613 0366 2A46     		mov	r2, r5
 1614 0368 0821     		movs	r1, #8
 1615 036a 3D48     		ldr	r0, .L143
 1616 036c FFF7FEFF 		bl	TIM_CCxCmd
 1617              	.LVL126:
 1618              		.loc 1 2657 0
 1619 0370 0422     		movs	r2, #4
 1620 0372 0821     		movs	r1, #8
 1621 0374 3A48     		ldr	r0, .L143
 1622 0376 FFF7FEFF 		bl	TIM_CCxNCmd
 1623              	.LVL127:
 1624              		.loc 1 2660 0
 1625 037a 2022     		movs	r2, #32
 1626              	.L128:
 1627              		.loc 1 2940 0
 1628 037c 2146     		mov	r1, r4
 1629 037e 3848     		ldr	r0, .L143
 1630 0380 FFF7FEFF 		bl	TIM_SelectOCxM
 1631              	.LVL128:
 1632              		.loc 1 2941 0
 1633 0384 2146     		mov	r1, r4
 1634 0386 0122     		movs	r2, #1
 1635 0388 3548     		ldr	r0, .L143
 1636 038a FFF7FEFF 		bl	TIM_CCxCmd
 1637              	.LVL129:
 1638              		.loc 1 2942 0
 1639 038e 2146     		mov	r1, r4
 1640 0390 0422     		movs	r2, #4
 1641 0392 3348     		ldr	r0, .L143
 1642              		.loc 1 2963 0
 1643 0394 BDE8F840 		pop	{r3, r4, r5, r6, r7, lr}
 1644              		.cfi_remember_state
 1645              		.cfi_restore 14
 1646              		.cfi_restore 7
 1647              		.cfi_restore 6
 1648              		.cfi_restore 5
 1649              		.cfi_restore 4
 1650              		.cfi_restore 3
 1651              		.cfi_def_cfa_offset 0
 1652              		.loc 1 2942 0
 1653 0398 FFF7FEBF 		b	TIM_CCxNCmd
ARM GAS  C:\Users\Grillmo\AppData\Local\Temp\ccnDcoCc.s 			page 30


 1654              	.LVL130:
 1655              	.L116:
 1656              		.cfi_restore_state
 1657              		.loc 1 2804 0
 1658 039c 0421     		movs	r1, #4
 1659 039e 3048     		ldr	r0, .L143
 1660              	.LVL131:
 1661 03a0 FFF7FEFF 		bl	TIM_SelectOCxM
 1662              	.LVL132:
 1663              		.loc 1 2805 0
 1664 03a4 0122     		movs	r2, #1
 1665 03a6 0421     		movs	r1, #4
 1666 03a8 2D48     		ldr	r0, .L143
 1667 03aa FFF7FEFF 		bl	TIM_CCxCmd
 1668              	.LVL133:
 1669              		.loc 1 2806 0
 1670 03ae 2246     		mov	r2, r4
 1671 03b0 0421     		movs	r1, #4
 1672              	.L132:
 1673              		.loc 1 2848 0
 1674 03b2 2B48     		ldr	r0, .L143
 1675 03b4 FFF7FEFF 		bl	TIM_CCxNCmd
 1676              	.LVL134:
 1677              		.loc 1 2851 0
 1678 03b8 6022     		movs	r2, #96
 1679 03ba 2146     		mov	r1, r4
 1680 03bc 2848     		ldr	r0, .L143
 1681 03be FFF7FEFF 		bl	TIM_SelectOCxM
 1682              	.LVL135:
 1683              		.loc 1 2852 0
 1684 03c2 0122     		movs	r2, #1
 1685 03c4 2146     		mov	r1, r4
 1686 03c6 2648     		ldr	r0, .L143
 1687 03c8 FFF7FEFF 		bl	TIM_CCxCmd
 1688              	.LVL136:
 1689              		.loc 1 2853 0
 1690 03cc 2A46     		mov	r2, r5
 1691 03ce 2146     		mov	r1, r4
 1692 03d0 1DE7     		b	.L133
 1693              	.LVL137:
 1694              	.L118:
 1695              		.loc 1 2846 0
 1696 03d2 3946     		mov	r1, r7
 1697 03d4 2248     		ldr	r0, .L143
 1698              	.LVL138:
 1699 03d6 FFF7FEFF 		bl	TIM_SelectOCxM
 1700              	.LVL139:
 1701              		.loc 1 2847 0
 1702 03da 0122     		movs	r2, #1
 1703 03dc 3946     		mov	r1, r7
 1704 03de 2048     		ldr	r0, .L143
 1705 03e0 FFF7FEFF 		bl	TIM_CCxCmd
 1706              	.LVL140:
 1707              		.loc 1 2848 0
 1708 03e4 3A46     		mov	r2, r7
 1709 03e6 3946     		mov	r1, r7
 1710 03e8 E3E7     		b	.L132
ARM GAS  C:\Users\Grillmo\AppData\Local\Temp\ccnDcoCc.s 			page 31


 1711              	.LVL141:
 1712              	.L122:
 1713              		.loc 1 2930 0
 1714 03ea 0421     		movs	r1, #4
 1715 03ec 1C48     		ldr	r0, .L143
 1716              	.LVL142:
 1717 03ee FFF7FEFF 		bl	TIM_SelectOCxM
 1718              	.LVL143:
 1719              		.loc 1 2931 0
 1720 03f2 0122     		movs	r2, #1
 1721 03f4 0421     		movs	r1, #4
 1722 03f6 1A48     		ldr	r0, .L143
 1723 03f8 FFF7FEFF 		bl	TIM_CCxCmd
 1724              	.LVL144:
 1725              		.loc 1 2932 0
 1726 03fc 2246     		mov	r2, r4
 1727 03fe 0421     		movs	r1, #4
 1728 0400 1748     		ldr	r0, .L143
 1729 0402 FFF7FEFF 		bl	TIM_CCxNCmd
 1730              	.LVL145:
 1731              		.loc 1 2935 0
 1732 0406 6022     		movs	r2, #96
 1733 0408 0821     		movs	r1, #8
 1734 040a 1548     		ldr	r0, .L143
 1735 040c FFF7FEFF 		bl	TIM_SelectOCxM
 1736              	.LVL146:
 1737              		.loc 1 2936 0
 1738 0410 0122     		movs	r2, #1
 1739 0412 0821     		movs	r1, #8
 1740 0414 1248     		ldr	r0, .L143
 1741 0416 FFF7FEFF 		bl	TIM_CCxCmd
 1742              	.LVL147:
 1743              		.loc 1 2937 0
 1744 041a 2A46     		mov	r2, r5
 1745 041c 0821     		movs	r1, #8
 1746              	.L130:
 1747 041e 1048     		ldr	r0, .L143
 1748 0420 FFF7FEFF 		bl	TIM_CCxNCmd
 1749              	.LVL148:
 1750              		.loc 1 2940 0
 1751 0424 3246     		mov	r2, r6
 1752 0426 A9E7     		b	.L128
 1753              	.LVL149:
 1754              	.L120:
 1755              		.loc 1 2888 0
 1756 0428 0821     		movs	r1, #8
 1757 042a 0D48     		ldr	r0, .L143
 1758              	.LVL150:
 1759 042c FFF7FEFF 		bl	TIM_SelectOCxM
 1760              	.LVL151:
 1761              		.loc 1 2889 0
 1762 0430 0122     		movs	r2, #1
 1763 0432 0821     		movs	r1, #8
 1764 0434 0A48     		ldr	r0, .L143
 1765 0436 FFF7FEFF 		bl	TIM_CCxCmd
 1766              	.LVL152:
 1767              		.loc 1 2890 0
ARM GAS  C:\Users\Grillmo\AppData\Local\Temp\ccnDcoCc.s 			page 32


 1768 043a 2246     		mov	r2, r4
 1769 043c 0821     		movs	r1, #8
 1770 043e 0848     		ldr	r0, .L143
 1771 0440 FFF7FEFF 		bl	TIM_CCxNCmd
 1772              	.LVL153:
 1773              		.loc 1 2893 0
 1774 0444 6022     		movs	r2, #96
 1775 0446 0421     		movs	r1, #4
 1776 0448 0548     		ldr	r0, .L143
 1777 044a FFF7FEFF 		bl	TIM_SelectOCxM
 1778              	.LVL154:
 1779              		.loc 1 2894 0
 1780 044e 0122     		movs	r2, #1
 1781 0450 0421     		movs	r1, #4
 1782 0452 0348     		ldr	r0, .L143
 1783 0454 FFF7FEFF 		bl	TIM_CCxCmd
 1784              	.LVL155:
 1785              		.loc 1 2895 0
 1786 0458 2A46     		mov	r2, r5
 1787 045a 0421     		movs	r1, #4
 1788 045c DFE7     		b	.L130
 1789              	.L144:
 1790 045e 00BF     		.align	2
 1791              	.L143:
 1792 0460 00000140 		.word	1073807360
 1793              		.cfi_endproc
 1794              	.LFE320:
 1795              		.size	set_next_comm_step, .-set_next_comm_step
 1796              		.section	.text.full_brake_hw,"ax",%progbits
 1797              		.align	1
 1798              		.p2align 4,,15
 1799              		.syntax unified
 1800              		.thumb
 1801              		.thumb_func
 1802              		.fpu fpv4-sp-d16
 1803              		.type	full_brake_hw, %function
 1804              	full_brake_hw:
 1805              	.LFB289:
 1806              		.loc 1 918 0
 1807              		.cfi_startproc
 1808              		@ args = 0, pretend = 0, frame = 0
 1809              		@ frame_needed = 0, uses_anonymous_args = 0
 1810 0000 10B5     		push	{r4, lr}
 1811              		.cfi_def_cfa_offset 8
 1812              		.cfi_offset 4, -8
 1813              		.cfi_offset 14, -4
 1814              		.loc 1 923 0
 1815 0002 1D4C     		ldr	r4, .L147
 1816 0004 4022     		movs	r2, #64
 1817 0006 2046     		mov	r0, r4
 1818 0008 0021     		movs	r1, #0
 1819 000a FFF7FEFF 		bl	TIM_SelectOCxM
 1820              	.LVL156:
 1821              		.loc 1 924 0
 1822 000e 2046     		mov	r0, r4
 1823 0010 0122     		movs	r2, #1
 1824 0012 0021     		movs	r1, #0
ARM GAS  C:\Users\Grillmo\AppData\Local\Temp\ccnDcoCc.s 			page 33


 1825 0014 FFF7FEFF 		bl	TIM_CCxCmd
 1826              	.LVL157:
 1827              		.loc 1 925 0
 1828 0018 2046     		mov	r0, r4
 1829 001a 0422     		movs	r2, #4
 1830 001c 0021     		movs	r1, #0
 1831 001e FFF7FEFF 		bl	TIM_CCxNCmd
 1832              	.LVL158:
 1833              		.loc 1 927 0
 1834 0022 2046     		mov	r0, r4
 1835 0024 4022     		movs	r2, #64
 1836 0026 0421     		movs	r1, #4
 1837 0028 FFF7FEFF 		bl	TIM_SelectOCxM
 1838              	.LVL159:
 1839              		.loc 1 928 0
 1840 002c 2046     		mov	r0, r4
 1841 002e 0122     		movs	r2, #1
 1842 0030 0421     		movs	r1, #4
 1843 0032 FFF7FEFF 		bl	TIM_CCxCmd
 1844              	.LVL160:
 1845              		.loc 1 929 0
 1846 0036 0422     		movs	r2, #4
 1847 0038 2046     		mov	r0, r4
 1848 003a 1146     		mov	r1, r2
 1849 003c FFF7FEFF 		bl	TIM_CCxNCmd
 1850              	.LVL161:
 1851              		.loc 1 931 0
 1852 0040 2046     		mov	r0, r4
 1853 0042 4022     		movs	r2, #64
 1854 0044 0821     		movs	r1, #8
 1855 0046 FFF7FEFF 		bl	TIM_SelectOCxM
 1856              	.LVL162:
 1857              		.loc 1 932 0
 1858 004a 2046     		mov	r0, r4
 1859 004c 0122     		movs	r2, #1
 1860 004e 0821     		movs	r1, #8
 1861 0050 FFF7FEFF 		bl	TIM_CCxCmd
 1862              	.LVL163:
 1863              		.loc 1 933 0
 1864 0054 2046     		mov	r0, r4
 1865 0056 0422     		movs	r2, #4
 1866 0058 0821     		movs	r1, #8
 1867 005a FFF7FEFF 		bl	TIM_CCxNCmd
 1868              	.LVL164:
 1869              		.loc 1 935 0
 1870 005e 2046     		mov	r0, r4
 1871 0060 2021     		movs	r1, #32
 1872 0062 FFF7FEFF 		bl	TIM_GenerateEvent
 1873              	.LVL165:
 1874              		.loc 1 937 0
 1875 0066 054B     		ldr	r3, .L147+4
 1876 0068 1B68     		ldr	r3, [r3]
 1877              		.loc 1 938 0
 1878 006a BDE81040 		pop	{r4, lr}
 1879              		.cfi_restore 14
 1880              		.cfi_restore 4
 1881              		.cfi_def_cfa_offset 0
ARM GAS  C:\Users\Grillmo\AppData\Local\Temp\ccnDcoCc.s 			page 34


 1882              		.loc 1 937 0
 1883 006e 93ED5A0A 		vldr.32	s0, [r3, #360]
 1884 0072 FFF7FEBF 		b	set_switching_frequency
 1885              	.LVL166:
 1886              	.L148:
 1887 0076 00BF     		.align	2
 1888              	.L147:
 1889 0078 00000140 		.word	1073807360
 1890 007c 00000000 		.word	.LANCHOR0
 1891              		.cfi_endproc
 1892              	.LFE289:
 1893              		.size	full_brake_hw, .-full_brake_hw
 1894              		.section	.text.stop_pwm_hw,"ax",%progbits
 1895              		.align	1
 1896              		.p2align 4,,15
 1897              		.syntax unified
 1898              		.thumb
 1899              		.thumb_func
 1900              		.fpu fpv4-sp-d16
 1901              		.type	stop_pwm_hw, %function
 1902              	stop_pwm_hw:
 1903              	.LFB287:
 1904              		.loc 1 890 0
 1905              		.cfi_startproc
 1906              		@ args = 0, pretend = 0, frame = 0
 1907              		@ frame_needed = 0, uses_anonymous_args = 0
 1908 0000 10B5     		push	{r4, lr}
 1909              		.cfi_def_cfa_offset 8
 1910              		.cfi_offset 4, -8
 1911              		.cfi_offset 14, -4
 1912              		.loc 1 895 0
 1913 0002 1D4C     		ldr	r4, .L151
 1914 0004 4022     		movs	r2, #64
 1915 0006 2046     		mov	r0, r4
 1916 0008 0021     		movs	r1, #0
 1917 000a FFF7FEFF 		bl	TIM_SelectOCxM
 1918              	.LVL167:
 1919              		.loc 1 896 0
 1920 000e 2046     		mov	r0, r4
 1921 0010 0122     		movs	r2, #1
 1922 0012 0021     		movs	r1, #0
 1923 0014 FFF7FEFF 		bl	TIM_CCxCmd
 1924              	.LVL168:
 1925              		.loc 1 897 0
 1926 0018 0022     		movs	r2, #0
 1927 001a 2046     		mov	r0, r4
 1928 001c 1146     		mov	r1, r2
 1929 001e FFF7FEFF 		bl	TIM_CCxNCmd
 1930              	.LVL169:
 1931              		.loc 1 899 0
 1932 0022 2046     		mov	r0, r4
 1933 0024 4022     		movs	r2, #64
 1934 0026 0421     		movs	r1, #4
 1935 0028 FFF7FEFF 		bl	TIM_SelectOCxM
 1936              	.LVL170:
 1937              		.loc 1 900 0
 1938 002c 2046     		mov	r0, r4
ARM GAS  C:\Users\Grillmo\AppData\Local\Temp\ccnDcoCc.s 			page 35


 1939 002e 0122     		movs	r2, #1
 1940 0030 0421     		movs	r1, #4
 1941 0032 FFF7FEFF 		bl	TIM_CCxCmd
 1942              	.LVL171:
 1943              		.loc 1 901 0
 1944 0036 2046     		mov	r0, r4
 1945 0038 0022     		movs	r2, #0
 1946 003a 0421     		movs	r1, #4
 1947 003c FFF7FEFF 		bl	TIM_CCxNCmd
 1948              	.LVL172:
 1949              		.loc 1 903 0
 1950 0040 2046     		mov	r0, r4
 1951 0042 4022     		movs	r2, #64
 1952 0044 0821     		movs	r1, #8
 1953 0046 FFF7FEFF 		bl	TIM_SelectOCxM
 1954              	.LVL173:
 1955              		.loc 1 904 0
 1956 004a 2046     		mov	r0, r4
 1957 004c 0122     		movs	r2, #1
 1958 004e 0821     		movs	r1, #8
 1959 0050 FFF7FEFF 		bl	TIM_CCxCmd
 1960              	.LVL174:
 1961              		.loc 1 905 0
 1962 0054 2046     		mov	r0, r4
 1963 0056 0022     		movs	r2, #0
 1964 0058 0821     		movs	r1, #8
 1965 005a FFF7FEFF 		bl	TIM_CCxNCmd
 1966              	.LVL175:
 1967              		.loc 1 907 0
 1968 005e 2046     		mov	r0, r4
 1969 0060 2021     		movs	r1, #32
 1970 0062 FFF7FEFF 		bl	TIM_GenerateEvent
 1971              	.LVL176:
 1972              		.loc 1 909 0
 1973 0066 054B     		ldr	r3, .L151+4
 1974 0068 1B68     		ldr	r3, [r3]
 1975              		.loc 1 910 0
 1976 006a BDE81040 		pop	{r4, lr}
 1977              		.cfi_restore 14
 1978              		.cfi_restore 4
 1979              		.cfi_def_cfa_offset 0
 1980              		.loc 1 909 0
 1981 006e 93ED5A0A 		vldr.32	s0, [r3, #360]
 1982 0072 FFF7FEBF 		b	set_switching_frequency
 1983              	.LVL177:
 1984              	.L152:
 1985 0076 00BF     		.align	2
 1986              	.L151:
 1987 0078 00000140 		.word	1073807360
 1988 007c 00000000 		.word	.LANCHOR0
 1989              		.cfi_endproc
 1990              	.LFE287:
 1991              		.size	stop_pwm_hw, .-stop_pwm_hw
 1992              		.section	.text.commutate,"ax",%progbits
 1993              		.align	1
 1994              		.p2align 4,,15
 1995              		.syntax unified
ARM GAS  C:\Users\Grillmo\AppData\Local\Temp\ccnDcoCc.s 			page 36


 1996              		.thumb
 1997              		.thumb_func
 1998              		.fpu fpv4-sp-d16
 1999              		.type	commutate, %function
 2000              	commutate:
 2001              	.LFB316:
 2002              		.loc 1 2540 0
 2003              		.cfi_startproc
 2004              		@ args = 0, pretend = 0, frame = 24
 2005              		@ frame_needed = 0, uses_anonymous_args = 0
 2006              	.LVL178:
 2007              		.loc 1 2541 0
 2008 0000 2F4B     		ldr	r3, .L177
 2009 0002 304A     		ldr	r2, .L177+4
 2010 0004 1968     		ldr	r1, [r3]	@ float
 2011              		.loc 1 2540 0
 2012 0006 F0B5     		push	{r4, r5, r6, r7, lr}
 2013              		.cfi_def_cfa_offset 20
 2014              		.cfi_offset 4, -20
 2015              		.cfi_offset 5, -16
 2016              		.cfi_offset 6, -12
 2017              		.cfi_offset 7, -8
 2018              		.cfi_offset 14, -4
 2019              		.loc 1 2542 0
 2020 0008 2F4C     		ldr	r4, .L177+8
 2021              		.loc 1 2541 0
 2022 000a 1160     		str	r1, [r2]	@ float
 2023              		.loc 1 2542 0
 2024 000c 2168     		ldr	r1, [r4]
 2025 000e 2F4A     		ldr	r2, .L177+12
 2026              		.loc 1 2546 0
 2027 0010 2F4D     		ldr	r5, .L177+16
 2028              		.loc 1 2542 0
 2029 0012 D3F800E0 		ldr	lr, [r3]	@ float
 2030              		.loc 1 2544 0
 2031 0016 2F4E     		ldr	r6, .L177+20
 2032              		.loc 1 2542 0
 2033 0018 0139     		subs	r1, r1, #1
 2034 001a 02EB8102 		add	r2, r2, r1, lsl #2
 2035              		.loc 1 2543 0
 2036 001e 0027     		movs	r7, #0
 2037              		.loc 1 2542 0
 2038 0020 C2F800E0 		str	lr, [r2]	@ float
 2039              		.loc 1 2543 0
 2040 0024 1F60     		str	r7, [r3]	@ float
 2041              		.loc 1 2546 0
 2042 0026 2A68     		ldr	r2, [r5]
 2043              		.loc 1 2544 0
 2044 0028 0023     		movs	r3, #0
 2045 002a 3360     		str	r3, [r6]
 2046              		.loc 1 2546 0
 2047 002c 9378     		ldrb	r3, [r2, #2]	@ zero_extendqisi2
 2048              		.loc 1 2540 0
 2049 002e 87B0     		sub	sp, sp, #28
 2050              		.cfi_def_cfa_offset 48
 2051              		.loc 1 2546 0
 2052 0030 23BB     		cbnz	r3, .L154
ARM GAS  C:\Users\Grillmo\AppData\Local\Temp\ccnDcoCc.s 			page 37


 2053              		.loc 1 2546 0 is_stmt 0 discriminator 1
 2054 0032 294B     		ldr	r3, .L177+24
 2055 0034 1B78     		ldrb	r3, [r3]	@ zero_extendqisi2
 2056 0036 0BB3     		cbz	r3, .L154
 2057              		.loc 1 2547 0 is_stmt 1
 2058 0038 2368     		ldr	r3, [r4]
 2059 003a 1844     		add	r0, r0, r3
 2060              	.LVL179:
 2061 003c 2060     		str	r0, [r4]
 2062              		.loc 1 2548 0
 2063 003e 2368     		ldr	r3, [r4]
 2064 0040 062B     		cmp	r3, #6
 2065 0042 0BDD     		ble	.L172
 2066              	.L165:
 2067              		.loc 1 2549 0
 2068 0044 2368     		ldr	r3, [r4]
 2069 0046 063B     		subs	r3, r3, #6
 2070 0048 2360     		str	r3, [r4]
 2071              		.loc 1 2548 0
 2072 004a 2368     		ldr	r3, [r4]
 2073 004c 062B     		cmp	r3, #6
 2074 004e F9DC     		bgt	.L165
 2075              		.loc 1 2551 0
 2076 0050 2368     		ldr	r3, [r4]
 2077 0052 002B     		cmp	r3, #0
 2078 0054 05DC     		bgt	.L175
 2079              	.L164:
 2080              		.loc 1 2552 0
 2081 0056 2368     		ldr	r3, [r4]
 2082 0058 0633     		adds	r3, r3, #6
 2083 005a 2360     		str	r3, [r4]
 2084              	.L172:
 2085              		.loc 1 2551 0
 2086 005c 2368     		ldr	r3, [r4]
 2087 005e 002B     		cmp	r3, #0
 2088 0060 F9DD     		ble	.L164
 2089              	.L175:
 2090              		.loc 1 2555 0
 2091 0062 FFF7FEFF 		bl	update_rpm_tacho
 2092              	.LVL180:
 2093              		.loc 1 2557 0
 2094 0066 1D4B     		ldr	r3, .L177+28
 2095 0068 1B78     		ldrb	r3, [r3]	@ zero_extendqisi2
 2096 006a 022B     		cmp	r3, #2
 2097 006c 03D0     		beq	.L176
 2098              		.loc 1 2558 0
 2099 006e FFF7FEFF 		bl	update_sensor_mode
 2100              	.LVL181:
 2101              		.loc 1 2578 0
 2102 0072 07B0     		add	sp, sp, #28
 2103              		.cfi_remember_state
 2104              		.cfi_def_cfa_offset 20
 2105              		@ sp needed
 2106 0074 F0BD     		pop	{r4, r5, r6, r7, pc}
 2107              	.L176:
 2108              		.cfi_restore_state
 2109              		.loc 1 2562 0
ARM GAS  C:\Users\Grillmo\AppData\Local\Temp\ccnDcoCc.s 			page 38


 2110 0076 2068     		ldr	r0, [r4]
 2111 0078 FFF7FEFF 		bl	set_next_comm_step
 2112              	.LVL182:
 2113              	.L154:
 2114              		.loc 1 2565 0
 2115 007c 2021     		movs	r1, #32
 2116 007e 1848     		ldr	r0, .L177+32
 2117              		.loc 1 2571 0
 2118 0080 184E     		ldr	r6, .L177+36
 2119              		.loc 1 2565 0
 2120 0082 FFF7FEFF 		bl	TIM_GenerateEvent
 2121              	.LVL183:
 2122              		.loc 1 2566 0
 2123 0086 184B     		ldr	r3, .L177+40
 2124 0088 0122     		movs	r2, #1
 2125 008a 1A60     		str	r2, [r3]
 2126              		.loc 1 2570 0
 2127 008c FFF7FEFF 		bl	utils_sys_lock_cnt
 2128              	.LVL184:
 2129              		.loc 1 2571 0
 2130 0090 0FCE     		ldmia	r6!, {r0, r1, r2, r3}
 2131 0092 6C46     		mov	r4, sp
 2132 0094 0FC4     		stmia	r4!, {r0, r1, r2, r3}
 2133 0096 96E80300 		ldm	r6, {r0, r1}
 2134 009a 84E80300 		stm	r4, {r0, r1}
 2135              		.loc 1 2572 0
 2136 009e FFF7FEFF 		bl	utils_sys_unlock_cnt
 2137              	.LVL185:
 2138              		.loc 1 2574 0
 2139 00a2 6846     		mov	r0, sp
 2140 00a4 FFF7FEFF 		bl	update_adc_sample_pos
 2141              	.LVL186:
 2142              		.loc 1 2575 0
 2143 00a8 6846     		mov	r0, sp
 2144 00aa FFF7FEFF 		bl	set_next_timer_settings
 2145              	.LVL187:
 2146              		.loc 1 2576 0
 2147 00ae FFF7FEFF 		bl	update_sensor_mode
 2148              	.LVL188:
 2149              		.loc 1 2577 0
 2150 00b2 0E4B     		ldr	r3, .L177+44
 2151 00b4 2A68     		ldr	r2, [r5]
 2152 00b6 1B78     		ldrb	r3, [r3]	@ zero_extendqisi2
 2153 00b8 DBB2     		uxtb	r3, r3
 2154 00ba 5370     		strb	r3, [r2, #1]
 2155              		.loc 1 2578 0
 2156 00bc 07B0     		add	sp, sp, #28
 2157              		.cfi_def_cfa_offset 20
 2158              		@ sp needed
 2159 00be F0BD     		pop	{r4, r5, r6, r7, pc}
 2160              	.L178:
 2161              		.align	2
 2162              	.L177:
 2163 00c0 00000000 		.word	.LANCHOR14
 2164 00c4 00000000 		.word	.LANCHOR15
 2165 00c8 00000000 		.word	.LANCHOR3
 2166 00cc 00000000 		.word	.LANCHOR16
ARM GAS  C:\Users\Grillmo\AppData\Local\Temp\ccnDcoCc.s 			page 39


 2167 00d0 00000000 		.word	.LANCHOR0
 2168 00d4 00000000 		.word	.LANCHOR17
 2169 00d8 00000000 		.word	.LANCHOR11
 2170 00dc 00000000 		.word	.LANCHOR2
 2171 00e0 00000140 		.word	1073807360
 2172 00e4 00000000 		.word	.LANCHOR12
 2173 00e8 00000000 		.word	.LANCHOR18
 2174 00ec 00000000 		.word	.LANCHOR19
 2175              		.cfi_endproc
 2176              	.LFE316:
 2177              		.size	commutate, .-commutate
 2178              		.section	.text.timer_thread,"ax",%progbits
 2179              		.align	1
 2180              		.p2align 4,,15
 2181              		.syntax unified
 2182              		.thumb
 2183              		.thumb_func
 2184              		.fpu fpv4-sp-d16
 2185              		.type	timer_thread, %function
 2186              	timer_thread:
 2187              	.LFB296:
 2188              		.loc 1 1317 0
 2189              		.cfi_startproc
 2190              		@ args = 0, pretend = 0, frame = 0
 2191              		@ frame_needed = 0, uses_anonymous_args = 0
 2192              	.LVL189:
 2193 0000 2DE9F041 		push	{r4, r5, r6, r7, r8, lr}
 2194              		.cfi_def_cfa_offset 24
 2195              		.cfi_offset 4, -24
 2196              		.cfi_offset 5, -20
 2197              		.cfi_offset 6, -16
 2198              		.cfi_offset 7, -12
 2199              		.cfi_offset 8, -8
 2200              		.cfi_offset 14, -4
 2201              	.LBB77:
 2202              	.LBB78:
 2203              		.file 2 "ChibiOS_3.0.2/os/rt/include/chregistry.h"
 2204              		.loc 2 135 0
 2205 0004 804B     		ldr	r3, .L230
 2206              	.LBE78:
 2207              	.LBE77:
 2208              	.LBB82:
 2209              		.loc 1 1327 0
 2210 0006 814F     		ldr	r7, .L230+4
 2211              	.LBE82:
 2212              	.LBB96:
 2213              	.LBB79:
 2214              		.loc 2 135 0
 2215 0008 9A69     		ldr	r2, [r3, #24]
 2216              	.LBE79:
 2217              	.LBE96:
 2218              	.LBB97:
 2219              		.loc 1 1327 0
 2220 000a 3B78     		ldrb	r3, [r7]	@ zero_extendqisi2
 2221              	.LBE97:
 2222              	.LBB98:
 2223              	.LBB80:
ARM GAS  C:\Users\Grillmo\AppData\Local\Temp\ccnDcoCc.s 			page 40


 2224              		.loc 2 135 0
 2225 000c 8049     		ldr	r1, .L230+8
 2226              	.LBE80:
 2227              	.LBE98:
 2228              		.loc 1 1317 0
 2229 000e 2DED068B 		vpush.64	{d8, d9, d10}
 2230              		.cfi_def_cfa_offset 48
 2231              		.cfi_offset 80, -48
 2232              		.cfi_offset 81, -44
 2233              		.cfi_offset 82, -40
 2234              		.cfi_offset 83, -36
 2235              		.cfi_offset 84, -32
 2236              		.cfi_offset 85, -28
 2237              	.LBB99:
 2238              	.LBB81:
 2239              		.loc 2 135 0
 2240 0012 9161     		str	r1, [r2, #24]
 2241              	.LBE81:
 2242              	.LBE99:
 2243              	.LBB100:
 2244              		.loc 1 1327 0
 2245 0014 002B     		cmp	r3, #0
 2246 0016 57D1     		bne	.L207
 2247 0018 7E4E     		ldr	r6, .L230+12
 2248 001a 7F4D     		ldr	r5, .L230+16
 2249              		.loc 1 1404 0
 2250 001c DFF84082 		ldr	r8, .L230+88
 2251 0020 9FED7EAA 		vldr.32	s20, .L230+20
 2252 0024 DFED7E9A 		vldr.32	s19, .L230+24
 2253              		.loc 1 1369 0
 2254 0028 9FED7E9A 		vldr.32	s18, .L230+28
 2255              	.LBB83:
 2256              	.LBB84:
 2257              		.loc 1 749 0
 2258 002c DFED7E8A 		vldr.32	s17, .L230+32
 2259 0030 9FED7E8A 		vldr.32	s16, .L230+36
 2260 0034 06E0     		b	.L180
 2261              	.LVL190:
 2262              	.L226:
 2263              	.LBE84:
 2264              	.LBE83:
 2265              		.loc 1 1409 0
 2266 0036 2B60     		str	r3, [r5]
 2267              	.L203:
 2268              		.loc 1 1423 0
 2269 0038 0A20     		movs	r0, #10
 2270 003a FFF7FEFF 		bl	chThdSleep
 2271              	.LVL191:
 2272              		.loc 1 1327 0
 2273 003e 3B78     		ldrb	r3, [r7]	@ zero_extendqisi2
 2274 0040 002B     		cmp	r3, #0
 2275 0042 41D1     		bne	.L207
 2276              	.L180:
 2277              		.loc 1 1332 0
 2278 0044 3378     		ldrb	r3, [r6]	@ zero_extendqisi2
 2279 0046 03F0FF04 		and	r4, r3, #255
 2280 004a 002B     		cmp	r3, #0
ARM GAS  C:\Users\Grillmo\AppData\Local\Temp\ccnDcoCc.s 			page 41


 2281 004c 42D0     		beq	.L225
 2282              		.loc 1 1404 0
 2283 004e 0023     		movs	r3, #0
 2284 0050 C8F80030 		str	r3, [r8]
 2285              	.L201:
 2286              		.loc 1 1409 0
 2287 0054 2B68     		ldr	r3, [r5]
 2288 0056 0133     		adds	r3, r3, #1
 2289              		.loc 1 1410 0
 2290 0058 092B     		cmp	r3, #9
 2291 005a ECDD     		ble	.L226
 2292              		.loc 1 1412 0
 2293 005c 3378     		ldrb	r3, [r6]	@ zero_extendqisi2
 2294              		.loc 1 1411 0
 2295 005e 0022     		movs	r2, #0
 2296              		.loc 1 1412 0
 2297 0060 022B     		cmp	r3, #2
 2298              		.loc 1 1411 0
 2299 0062 2A60     		str	r2, [r5]
 2300              		.loc 1 1412 0
 2301 0064 00F0B580 		beq	.L227
 2302              		.loc 1 1415 0
 2303 0068 3378     		ldrb	r3, [r6]	@ zero_extendqisi2
 2304 006a 002B     		cmp	r3, #0
 2305 006c E4D1     		bne	.L203
 2306              		.loc 1 1416 0
 2307 006e 704B     		ldr	r3, .L230+40
 2308 0070 704A     		ldr	r2, .L230+44
 2309 0072 1B68     		ldr	r3, [r3]
 2310 0074 93ED157A 		vldr.32	s14, [r3, #84]
 2311 0078 D2ED007A 		vldr.32	s15, [r2]
 2312 007c B4EEE77A 		vcmpe.f32	s14, s15
 2313 0080 F1EE10FA 		vmrs	APSR_nzcv, FPSCR
 2314 0084 D8D8     		bhi	.L203
 2315              	.LBB88:
 2316              	.LBB85:
 2317              		.loc 1 749 0
 2318 0086 6C49     		ldr	r1, .L230+48
 2319 0088 6C4B     		ldr	r3, .L230+52
 2320 008a 91ED000A 		vldr.32	s0, [r1]
 2321 008e 1B8A     		ldrh	r3, [r3, #16]
 2322 0090 92ED007A 		vldr.32	s14, [r2]
 2323              	.LBE85:
 2324              	.LBE88:
 2325              		.loc 1 1417 0
 2326 0094 6A4A     		ldr	r2, .L230+56
 2327              	.L224:
 2328 0096 6B48     		ldr	r0, .L230+60
 2329              	.LBB89:
 2330              	.LBB86:
 2331              		.loc 1 749 0
 2332 0098 9BB2     		uxth	r3, r3
 2333 009a 07EE903A 		vmov	s15, r3	@ int
 2334 009e F8EE677A 		vcvt.f32.u32	s15, s15
 2335 00a2 B0EEC77A 		vabs.f32	s14, s14
 2336 00a6 67EEA87A 		vmul.f32	s15, s15, s17
 2337              	.LBE86:
ARM GAS  C:\Users\Grillmo\AppData\Local\Temp\ccnDcoCc.s 			page 42


 2338              	.LBE89:
 2339              		.loc 1 1417 0
 2340 00aa 0721     		movs	r1, #7
 2341              	.LBB90:
 2342              	.LBB87:
 2343              		.loc 1 749 0
 2344 00ac 67EE887A 		vmul.f32	s15, s15, s16
 2345 00b0 67EE877A 		vmul.f32	s15, s15, s14
 2346              	.LBE87:
 2347              	.LBE90:
 2348              		.loc 1 1417 0
 2349 00b4 80EE270A 		vdiv.f32	s0, s0, s15
 2350 00b8 FFF7FEFF 		bl	filter_add_sample
 2351              	.LVL192:
 2352              		.loc 1 1423 0
 2353 00bc 0A20     		movs	r0, #10
 2354 00be FFF7FEFF 		bl	chThdSleep
 2355              	.LVL193:
 2356              		.loc 1 1327 0
 2357 00c2 3B78     		ldrb	r3, [r7]	@ zero_extendqisi2
 2358 00c4 002B     		cmp	r3, #0
 2359 00c6 BDD0     		beq	.L180
 2360              	.L207:
 2361              	.LBE100:
 2362              		.loc 1 1425 0
 2363 00c8 BDEC068B 		vldm	sp!, {d8-d10}
 2364              		.cfi_remember_state
 2365              		.cfi_restore 84
 2366              		.cfi_restore 85
 2367              		.cfi_restore 82
 2368              		.cfi_restore 83
 2369              		.cfi_restore 80
 2370              		.cfi_restore 81
 2371              		.cfi_def_cfa_offset 24
 2372              	.LBB101:
 2373              		.loc 1 1328 0
 2374 00cc 0023     		movs	r3, #0
 2375 00ce 3B70     		strb	r3, [r7]
 2376              	.LBE101:
 2377              		.loc 1 1425 0
 2378 00d0 BDE8F081 		pop	{r4, r5, r6, r7, r8, pc}
 2379              	.L225:
 2380              		.cfi_restore_state
 2381              	.LBB102:
 2382              		.loc 1 1335 0
 2383 00d4 5C4B     		ldr	r3, .L230+64
 2384 00d6 5D49     		ldr	r1, .L230+68
 2385 00d8 1B68     		ldr	r3, [r3]
 2386 00da 5D48     		ldr	r0, .L230+72
 2387 00dc 0722     		movs	r2, #7
 2388 00de FFF7FEFF 		bl	filter_run_fir_iteration
 2389              	.LVL194:
 2390              		.loc 1 1339 0
 2391 00e2 534B     		ldr	r3, .L230+40
 2392 00e4 D3F800E0 		ldr	lr, [r3]
 2393 00e8 9EF80230 		ldrb	r3, [lr, #2]	@ zero_extendqisi2
 2394 00ec DBB2     		uxtb	r3, r3
ARM GAS  C:\Users\Grillmo\AppData\Local\Temp\ccnDcoCc.s 			page 43


 2395 00ee 012B     		cmp	r3, #1
 2396 00f0 64D0     		beq	.L228
 2397              		.loc 1 1347 0
 2398 00f2 584B     		ldr	r3, .L230+76
 2399 00f4 1B78     		ldrb	r3, [r3]	@ zero_extendqisi2
 2400 00f6 03F0FF01 		and	r1, r3, #255
 2401 00fa 002B     		cmp	r3, #0
 2402 00fc 54D0     		beq	.L186
 2403 00fe 5648     		ldr	r0, .L230+80
 2404 0100 F0EE4A7A 		vmov.f32	s15, s20
 2405 0104 B0EE697A 		vmov.f32	s14, s19
 2406 0108 2346     		mov	r3, r4
 2407              	.L191:
 2408              	.LVL195:
 2409              	.LBB91:
 2410              		.loc 1 1352 0
 2411 010a 9A00     		lsls	r2, r3, #2
 2412 010c 8118     		adds	r1, r0, r2
 2413 010e D1ED006A 		vldr.32	s13, [r1]
 2414 0112 F4EEC76A 		vcmpe.f32	s13, s14
 2415 0116 F1EE10FA 		vmrs	APSR_nzcv, FPSCR
 2416              		.loc 1 1353 0
 2417 011a 48BF     		it	mi
 2418 011c 91ED007A 		vldrmi.32	s14, [r1]
 2419              	.LVL196:
 2420              		.loc 1 1356 0
 2421 0120 D1ED006A 		vldr.32	s13, [r1]
 2422 0124 F4EEE76A 		vcmpe.f32	s13, s15
 2423 0128 F1EE10FA 		vmrs	APSR_nzcv, FPSCR
 2424              		.loc 1 1351 0
 2425 012c 03F10103 		add	r3, r3, #1
 2426              	.LVL197:
 2427              		.loc 1 1357 0
 2428 0130 C8BF     		it	gt
 2429 0132 D1ED007A 		vldrgt.32	s15, [r1]
 2430              	.LVL198:
 2431              		.loc 1 1351 0
 2432 0136 062B     		cmp	r3, #6
 2433 0138 E7D1     		bne	.L191
 2434              	.LBE91:
 2435              		.loc 1 1369 0
 2436 013a 77EE276A 		vadd.f32	s13, s14, s15
 2437 013e B6EE006A 		vmov.f32	s12, #5.0e-1
 2438 0142 77EEC77A 		vsub.f32	s15, s15, s14
 2439              	.LVL199:
 2440 0146 26EE867A 		vmul.f32	s14, s13, s12
 2441              	.LVL200:
 2442 014a C7EE876A 		vdiv.f32	s13, s15, s14
 2443 014e F4EEC96A 		vcmpe.f32	s13, s18
 2444 0152 F1EE10FA 		vmrs	APSR_nzcv, FPSCR
 2445 0156 46DD     		ble	.L219
 2446              		.loc 1 1370 0
 2447 0158 D8F80030 		ldr	r3, [r8]
 2448              	.LVL201:
 2449              		.loc 1 1371 0
 2450 015c 3F4A     		ldr	r2, .L230+84
 2451              		.loc 1 1370 0
ARM GAS  C:\Users\Grillmo\AppData\Local\Temp\ccnDcoCc.s 			page 44


 2452 015e 0C2B     		cmp	r3, #12
 2453 0160 07DD     		ble	.L185
 2454              		.loc 1 1371 0
 2455 0162 1368     		ldr	r3, [r2]
 2456 0164 012B     		cmp	r3, #1
 2457 0166 4BD0     		beq	.L229
 2458              	.L197:
 2459              		.loc 1 1388 0
 2460 0168 0123     		movs	r3, #1
 2461 016a 1360     		str	r3, [r2]
 2462              	.L198:
 2463              		.loc 1 1390 0
 2464 016c 0023     		movs	r3, #0
 2465 016e C8F80030 		str	r3, [r8]
 2466              	.L185:
 2467              		.loc 1 1397 0
 2468 0172 1368     		ldr	r3, [r2]
 2469              		.loc 1 1398 0
 2470 0174 2F4A     		ldr	r2, .L230+44
 2471              		.loc 1 1402 0
 2472 0176 2F48     		ldr	r0, .L230+44
 2473              		.loc 1 1397 0
 2474 0178 012B     		cmp	r3, #1
 2475              		.loc 1 1398 0
 2476 017a 304B     		ldr	r3, .L230+52
 2477 017c 1B8A     		ldrh	r3, [r3, #16]
 2478 017e 9BB2     		uxth	r3, r3
 2479 0180 07EE903A 		vmov	s15, r3	@ int
 2480 0184 F8EE677A 		vcvt.f32.u32	s15, s15
 2481              		.loc 1 1400 0
 2482 0188 18BF     		it	ne
 2483 018a B1EE400A 		vnegne.f32	s0, s0
 2484              	.LVL202:
 2485 018e 80EE277A 		vdiv.f32	s14, s0, s15
 2486 0192 82ED007A 		vstr.32	s14, [r2]
 2487              		.loc 1 1402 0
 2488 0196 9EED160A 		vldr.32	s0, [lr, #88]
 2489 019a DEED160A 		vldr.32	s1, [lr, #88]
 2490 019e B1EE400A 		vneg.f32	s0, s0
 2491 01a2 FFF7FEFF 		bl	utils_truncate_number
 2492              	.LVL203:
 2493 01a6 55E7     		b	.L201
 2494              	.LVL204:
 2495              	.L186:
 2496              		.loc 1 1384 0
 2497 01a8 D8F80030 		ldr	r3, [r8]
 2498 01ac 0333     		adds	r3, r3, #3
 2499 01ae 1FDA     		bge	.L196
 2500              		.loc 1 1385 0
 2501 01b0 2A4A     		ldr	r2, .L230+84
 2502 01b2 1368     		ldr	r3, [r2]
 2503 01b4 012B     		cmp	r3, #1
 2504 01b6 D7D1     		bne	.L197
 2505              		.loc 1 1386 0
 2506 01b8 1160     		str	r1, [r2]
 2507 01ba D7E7     		b	.L198
 2508              	.L228:
ARM GAS  C:\Users\Grillmo\AppData\Local\Temp\ccnDcoCc.s 			page 45


 2509              		.loc 1 1340 0
 2510 01bc B5EEC00A 		vcmpe.f32	s0, #0
 2511              		.loc 1 1341 0
 2512 01c0 264A     		ldr	r2, .L230+84
 2513              		.loc 1 1340 0
 2514 01c2 F1EE10FA 		vmrs	APSR_nzcv, FPSCR
 2515              		.loc 1 1341 0
 2516 01c6 CEBF     		itee	gt
 2517 01c8 1460     		strgt	r4, [r2]
 2518              		.loc 1 1344 0
 2519 01ca B1EE400A 		vnegle.f32	s0, s0
 2520              	.LVL205:
 2521              		.loc 1 1343 0
 2522 01ce 1360     		strle	r3, [r2]
 2523 01d0 CFE7     		b	.L185
 2524              	.LVL206:
 2525              	.L227:
 2526              	.LBB92:
 2527              	.LBB93:
 2528              		.loc 1 749 0
 2529 01d2 194A     		ldr	r2, .L230+48
 2530 01d4 194B     		ldr	r3, .L230+52
 2531 01d6 1749     		ldr	r1, .L230+44
 2532 01d8 92ED000A 		vldr.32	s0, [r2]
 2533 01dc 1B8A     		ldrh	r3, [r3, #16]
 2534              	.LBE93:
 2535              	.LBE92:
 2536              		.loc 1 1413 0
 2537 01de 184A     		ldr	r2, .L230+56
 2538              	.LBB95:
 2539              	.LBB94:
 2540              		.loc 1 749 0
 2541 01e0 91ED007A 		vldr.32	s14, [r1]
 2542 01e4 57E7     		b	.L224
 2543              	.LVL207:
 2544              	.L219:
 2545              	.LBE94:
 2546              	.LBE95:
 2547              		.loc 1 1379 0
 2548 01e6 0023     		movs	r3, #0
 2549              	.LVL208:
 2550 01e8 C8F80030 		str	r3, [r8]
 2551 01ec 1B4A     		ldr	r2, .L230+84
 2552 01ee C0E7     		b	.L185
 2553              	.L196:
 2554              		.loc 1 1391 0
 2555 01f0 D8F80030 		ldr	r3, [r8]
 2556 01f4 194A     		ldr	r2, .L230+84
 2557 01f6 002B     		cmp	r3, #0
 2558              		.loc 1 1392 0
 2559 01f8 C8BF     		it	gt
 2560 01fa C8F80010 		strgt	r1, [r8]
 2561 01fe B8E7     		b	.L185
 2562              	.L229:
 2563              		.loc 1 1372 0
 2564 0200 0023     		movs	r3, #0
 2565 0202 1360     		str	r3, [r2]
ARM GAS  C:\Users\Grillmo\AppData\Local\Temp\ccnDcoCc.s 			page 46


 2566 0204 B2E7     		b	.L198
 2567              	.L231:
 2568 0206 00BF     		.align	2
 2569              	.L230:
 2570 0208 00000000 		.word	ch
 2571 020c 00000000 		.word	.LANCHOR20
 2572 0210 00000000 		.word	.LC1
 2573 0214 00000000 		.word	.LANCHOR2
 2574 0218 00000000 		.word	.LANCHOR25
 2575 021c 00000000 		.word	0
 2576 0220 E7841155 		.word	1427211495
 2577 0224 9A99993F 		.word	1067030938
 2578 0228 6740533A 		.word	978534503
 2579 022c 74D19541 		.word	1100337524
 2580 0230 00000000 		.word	.LANCHOR0
 2581 0234 00000000 		.word	.LANCHOR24
 2582 0238 00000000 		.word	.LANCHOR10
 2583 023c 00000000 		.word	ADC_Value
 2584 0240 00000000 		.word	.LANCHOR26
 2585 0244 00000000 		.word	.LANCHOR27
 2586 0248 00000000 		.word	.LANCHOR21
 2587 024c 00000000 		.word	.LANCHOR22
 2588 0250 00000000 		.word	.LANCHOR23
 2589 0254 00000000 		.word	.LANCHOR11
 2590 0258 00000000 		.word	.LANCHOR16
 2591 025c 00000000 		.word	.LANCHOR4
 2592 0260 00000000 		.word	.LANCHOR7
 2593              	.LBE102:
 2594              		.cfi_endproc
 2595              	.LFE296:
 2596              		.size	timer_thread, .-timer_thread
 2597              		.section	.text.mcpwm_deinit,"ax",%progbits
 2598              		.align	1
 2599              		.p2align 4,,15
 2600              		.global	mcpwm_deinit
 2601              		.syntax unified
 2602              		.thumb
 2603              		.thumb_func
 2604              		.fpu fpv4-sp-d16
 2605              		.type	mcpwm_deinit, %function
 2606              	mcpwm_deinit:
 2607              	.LFB258:
 2608              		.loc 1 476 0
 2609              		.cfi_startproc
 2610              		@ args = 0, pretend = 0, frame = 0
 2611              		@ frame_needed = 0, uses_anonymous_args = 0
 2612 0000 38B5     		push	{r3, r4, r5, lr}
 2613              		.cfi_def_cfa_offset 16
 2614              		.cfi_offset 3, -16
 2615              		.cfi_offset 4, -12
 2616              		.cfi_offset 5, -8
 2617              		.cfi_offset 14, -4
 2618              		.loc 1 477 0
 2619 0002 174B     		ldr	r3, .L236
 2620              		.loc 1 481 0
 2621 0004 174C     		ldr	r4, .L236+4
 2622              		.loc 1 482 0
ARM GAS  C:\Users\Grillmo\AppData\Local\Temp\ccnDcoCc.s 			page 47


 2623 0006 184D     		ldr	r5, .L236+8
 2624              		.loc 1 477 0
 2625 0008 0022     		movs	r2, #0
 2626 000a 1A70     		strb	r2, [r3]
 2627              		.loc 1 479 0
 2628 000c FFF7FEFF 		bl	WWDG_DeInit
 2629              	.LVL209:
 2630              		.loc 1 481 0
 2631 0010 0123     		movs	r3, #1
 2632 0012 2370     		strb	r3, [r4]
 2633              		.loc 1 482 0
 2634 0014 2B70     		strb	r3, [r5]
 2635              		.loc 1 484 0
 2636 0016 01E0     		b	.L233
 2637              	.L234:
 2638              		.loc 1 485 0
 2639 0018 FFF7FEFF 		bl	chThdSleep
 2640              	.LVL210:
 2641              	.L233:
 2642              		.loc 1 484 0
 2643 001c 2378     		ldrb	r3, [r4]	@ zero_extendqisi2
 2644              		.loc 1 485 0
 2645 001e 0A20     		movs	r0, #10
 2646              		.loc 1 484 0
 2647 0020 002B     		cmp	r3, #0
 2648 0022 F9D1     		bne	.L234
 2649              		.loc 1 484 0 is_stmt 0 discriminator 1
 2650 0024 2B78     		ldrb	r3, [r5]	@ zero_extendqisi2
 2651 0026 002B     		cmp	r3, #0
 2652 0028 F6D1     		bne	.L234
 2653              		.loc 1 488 0 is_stmt 1
 2654 002a 1048     		ldr	r0, .L236+12
 2655 002c FFF7FEFF 		bl	TIM_DeInit
 2656              	.LVL211:
 2657              		.loc 1 489 0
 2658 0030 4FF08040 		mov	r0, #1073741824
 2659 0034 FFF7FEFF 		bl	TIM_DeInit
 2660              	.LVL212:
 2661              		.loc 1 490 0
 2662 0038 0D48     		ldr	r0, .L236+16
 2663 003a FFF7FEFF 		bl	TIM_DeInit
 2664              	.LVL213:
 2665              		.loc 1 491 0
 2666 003e 0D48     		ldr	r0, .L236+20
 2667 0040 FFF7FEFF 		bl	TIM_DeInit
 2668              	.LVL214:
 2669              		.loc 1 492 0
 2670 0044 FFF7FEFF 		bl	ADC_DeInit
 2671              	.LVL215:
 2672              		.loc 1 493 0
 2673 0048 0B48     		ldr	r0, .L236+24
 2674 004a FFF7FEFF 		bl	DMA_DeInit
 2675              	.LVL216:
 2676              		.loc 1 494 0
 2677 004e 1220     		movs	r0, #18
 2678 0050 FFF7FEFF 		bl	nvicDisableVector
 2679              	.LVL217:
ARM GAS  C:\Users\Grillmo\AppData\Local\Temp\ccnDcoCc.s 			page 48


 2680              		.loc 1 495 0
 2681 0054 0948     		ldr	r0, .L236+28
 2682              		.loc 1 496 0
 2683 0056 BDE83840 		pop	{r3, r4, r5, lr}
 2684              		.cfi_restore 14
 2685              		.cfi_restore 5
 2686              		.cfi_restore 4
 2687              		.cfi_restore 3
 2688              		.cfi_def_cfa_offset 0
 2689              		.loc 1 495 0
 2690 005a FFF7FEBF 		b	dmaStreamRelease
 2691              	.LVL218:
 2692              	.L237:
 2693 005e 00BF     		.align	2
 2694              	.L236:
 2695 0060 00000000 		.word	.LANCHOR28
 2696 0064 00000000 		.word	.LANCHOR20
 2697 0068 00000000 		.word	.LANCHOR29
 2698 006c 00000140 		.word	1073807360
 2699 0070 00040140 		.word	1073808384
 2700 0074 00180040 		.word	1073747968
 2701 0078 70640240 		.word	1073898608
 2702 007c 90000000 		.word	_stm32_dma_streams+144
 2703              		.cfi_endproc
 2704              	.LFE258:
 2705              		.size	mcpwm_deinit, .-mcpwm_deinit
 2706              		.section	.text.mcpwm_init_done,"ax",%progbits
 2707              		.align	1
 2708              		.p2align 4,,15
 2709              		.global	mcpwm_init_done
 2710              		.syntax unified
 2711              		.thumb
 2712              		.thumb_func
 2713              		.fpu fpv4-sp-d16
 2714              		.type	mcpwm_init_done, %function
 2715              	mcpwm_init_done:
 2716              	.LFB259:
 2717              		.loc 1 498 0
 2718              		.cfi_startproc
 2719              		@ args = 0, pretend = 0, frame = 0
 2720              		@ frame_needed = 0, uses_anonymous_args = 0
 2721              		@ link register save eliminated.
 2722              		.loc 1 499 0
 2723 0000 014B     		ldr	r3, .L239
 2724 0002 1878     		ldrb	r0, [r3]	@ zero_extendqisi2
 2725              		.loc 1 500 0
 2726 0004 7047     		bx	lr
 2727              	.L240:
 2728 0006 00BF     		.align	2
 2729              	.L239:
 2730 0008 00000000 		.word	.LANCHOR28
 2731              		.cfi_endproc
 2732              	.LFE259:
 2733              		.size	mcpwm_init_done, .-mcpwm_init_done
 2734              		.section	.text.mcpwm_init_hall_table,"ax",%progbits
 2735              		.align	1
 2736              		.p2align 4,,15
ARM GAS  C:\Users\Grillmo\AppData\Local\Temp\ccnDcoCc.s 			page 49


 2737              		.global	mcpwm_init_hall_table
 2738              		.syntax unified
 2739              		.thumb
 2740              		.thumb_func
 2741              		.fpu fpv4-sp-d16
 2742              		.type	mcpwm_init_hall_table, %function
 2743              	mcpwm_init_hall_table:
 2744              	.LFB261:
 2745              		.loc 1 521 0
 2746              		.cfi_startproc
 2747              		@ args = 0, pretend = 0, frame = 32
 2748              		@ frame_needed = 0, uses_anonymous_args = 0
 2749              		@ link register save eliminated.
 2750              	.LVL219:
 2751 0000 F0B4     		push	{r4, r5, r6, r7}
 2752              		.cfi_def_cfa_offset 16
 2753              		.cfi_offset 4, -16
 2754              		.cfi_offset 5, -12
 2755              		.cfi_offset 6, -8
 2756              		.cfi_offset 7, -4
 2757              		.loc 1 522 0
 2758 0002 0F4F     		ldr	r7, .L248
 2759 0004 0F4C     		ldr	r4, .L248+4
 2760              		.loc 1 521 0
 2761 0006 0546     		mov	r5, r0
 2762              		.loc 1 522 0
 2763 0008 0FCF     		ldmia	r7!, {r0, r1, r2, r3}
 2764              	.LVL220:
 2765              		.loc 1 521 0
 2766 000a 88B0     		sub	sp, sp, #32
 2767              		.cfi_def_cfa_offset 48
 2768              		.loc 1 522 0
 2769 000c 01AE     		add	r6, sp, #4
 2770 000e 0FC6     		stmia	r6!, {r0, r1, r2, r3}
 2771 0010 97E80700 		ldm	r7, {r0, r1, r2}
 2772 0014 86E80700 		stm	r6, {r0, r1, r2}
 2773              	.LVL221:
 2774 0018 6A1E     		subs	r2, r5, #1
 2775 001a E81D     		adds	r0, r5, #7
 2776              	.LVL222:
 2777              	.L244:
 2778              	.LBB103:
 2779              	.LBB104:
 2780              		.loc 1 525 0
 2781 001c 12F9013F 		ldrsb	r3, [r2, #1]!
 2782              	.LVL223:
 2783 0020 44F8043B 		str	r3, [r4], #4
 2784              	.LVL224:
 2785              		.loc 1 533 0
 2786 0024 08A9     		add	r1, sp, #32
 2787 0026 01EB8301 		add	r1, r1, r3, lsl #2
 2788              		.loc 1 528 0
 2789 002a 002B     		cmp	r3, #0
 2790              		.loc 1 533 0
 2791 002c C8BF     		it	gt
 2792 002e 51F81C3C 		ldrgt	r3, [r1, #-28]
 2793              	.LVL225:
ARM GAS  C:\Users\Grillmo\AppData\Local\Temp\ccnDcoCc.s 			page 50


 2794 0032 44F8243C 		str	r3, [r4, #-36]
 2795              	.LVL226:
 2796              	.LBE104:
 2797              		.loc 1 524 0
 2798 0036 8242     		cmp	r2, r0
 2799 0038 F0D1     		bne	.L244
 2800              	.LBE103:
 2801              		.loc 1 535 0
 2802 003a 08B0     		add	sp, sp, #32
 2803              		.cfi_def_cfa_offset 16
 2804              		@ sp needed
 2805 003c F0BC     		pop	{r4, r5, r6, r7}
 2806              		.cfi_restore 7
 2807              		.cfi_restore 6
 2808              		.cfi_restore 5
 2809              		.cfi_restore 4
 2810              		.cfi_def_cfa_offset 0
 2811              	.LVL227:
 2812 003e 7047     		bx	lr
 2813              	.L249:
 2814              		.align	2
 2815              	.L248:
 2816 0040 00000000 		.word	.LANCHOR30
 2817 0044 20000000 		.word	.LANCHOR31+32
 2818              		.cfi_endproc
 2819              	.LFE261:
 2820              		.size	mcpwm_init_hall_table, .-mcpwm_init_hall_table
 2821              		.section	.text.mcpwm_init,"ax",%progbits
 2822              		.align	1
 2823              		.p2align 4,,15
 2824              		.global	mcpwm_init
 2825              		.syntax unified
 2826              		.thumb
 2827              		.thumb_func
 2828              		.fpu fpv4-sp-d16
 2829              		.type	mcpwm_init, %function
 2830              	mcpwm_init:
 2831              	.LFB257:
 2832              		.loc 1 163 0
 2833              		.cfi_startproc
 2834              		@ args = 0, pretend = 0, frame = 176
 2835              		@ frame_needed = 0, uses_anonymous_args = 0
 2836              	.LVL228:
 2837 0000 2DE9F04F 		push	{r4, r5, r6, r7, r8, r9, r10, fp, lr}
 2838              		.cfi_def_cfa_offset 36
 2839              		.cfi_offset 4, -36
 2840              		.cfi_offset 5, -32
 2841              		.cfi_offset 6, -28
 2842              		.cfi_offset 7, -24
 2843              		.cfi_offset 8, -20
 2844              		.cfi_offset 9, -16
 2845              		.cfi_offset 10, -12
 2846              		.cfi_offset 11, -8
 2847              		.cfi_offset 14, -4
 2848              		.loc 1 172 0
 2849 0004 CD4C     		ldr	r4, .L258
 2850              		.loc 1 175 0
ARM GAS  C:\Users\Grillmo\AppData\Local\Temp\ccnDcoCc.s 			page 51


 2851 0006 DFF8CCB3 		ldr	fp, .L258+152
 2852              		.loc 1 177 0
 2853 000a DFF8CC93 		ldr	r9, .L258+156
 2854              		.loc 1 178 0
 2855 000e DFF8CC83 		ldr	r8, .L258+160
 2856              		.loc 1 219 0
 2857 0012 CB4E     		ldr	r6, .L258+4
 2858              		.loc 1 220 0
 2859 0014 CB4F     		ldr	r7, .L258+8
 2860              		.loc 1 163 0
 2861 0016 AFB0     		sub	sp, sp, #188
 2862              		.cfi_def_cfa_offset 224
 2863              		.loc 1 163 0
 2864 0018 8246     		mov	r10, r0
 2865              		.loc 1 164 0
 2866 001a FFF7FEFF 		bl	utils_sys_lock_cnt
 2867              	.LVL229:
 2868              		.loc 1 166 0
 2869 001e CA4B     		ldr	r3, .L258+12
 2870              		.loc 1 172 0
 2871 0020 C4F800A0 		str	r10, [r4]
 2872              		.loc 1 166 0
 2873 0024 0024     		movs	r4, #0
 2874 0026 1C70     		strb	r4, [r3]
 2875              		.loc 1 176 0
 2876 0028 C84B     		ldr	r3, .L258+16
 2877              		.loc 1 178 0
 2878 002a DFEDC97A 		vldr.32	s15, .L258+20
 2879              		.loc 1 179 0
 2880 002e DFF8B0C3 		ldr	ip, .L258+164
 2881              		.loc 1 180 0
 2882 0032 DFF8B0E3 		ldr	lr, .L258+168
 2883              		.loc 1 181 0
 2884 0036 C748     		ldr	r0, .L258+24
 2885              		.loc 1 182 0
 2886 0038 C749     		ldr	r1, .L258+28
 2887              		.loc 1 183 0
 2888 003a C84A     		ldr	r2, .L258+32
 2889              		.loc 1 175 0
 2890 003c 0125     		movs	r5, #1
 2891 003e CBF80050 		str	r5, [fp]
 2892              		.loc 1 176 0
 2893 0042 1C60     		str	r4, [r3]
 2894              		.loc 1 184 0
 2895 0044 C64B     		ldr	r3, .L258+36
 2896              		.loc 1 177 0
 2897 0046 C9F80050 		str	r5, [r9]
 2898              		.loc 1 178 0
 2899 004a C8ED007A 		vstr.32	s15, [r8]
 2900              		.loc 1 179 0
 2901 004e CCED007A 		vstr.32	s15, [ip]
 2902              		.loc 1 180 0
 2903 0052 CEED007A 		vstr.32	s15, [lr]
 2904              		.loc 1 181 0
 2905 0056 C0ED007A 		vstr.32	s15, [r0]
 2906              		.loc 1 182 0
 2907 005a C1ED007A 		vstr.32	s15, [r1]
ARM GAS  C:\Users\Grillmo\AppData\Local\Temp\ccnDcoCc.s 			page 52


 2908              		.loc 1 183 0
 2909 005e C2ED007A 		vstr.32	s15, [r2]
 2910              		.loc 1 184 0
 2911 0062 1C60     		str	r4, [r3]
 2912              		.loc 1 185 0
 2913 0064 BF4B     		ldr	r3, .L258+40
 2914              		.loc 1 190 0
 2915 0066 DFF88093 		ldr	r9, .L258+172
 2916              		.loc 1 185 0
 2917 006a 1C60     		str	r4, [r3]
 2918              		.loc 1 186 0
 2919 006c BE4B     		ldr	r3, .L258+44
 2920              		.loc 1 191 0
 2921 006e BF4A     		ldr	r2, .L258+48
 2922              		.loc 1 186 0
 2923 0070 1C60     		str	r4, [r3]
 2924              		.loc 1 187 0
 2925 0072 BF4B     		ldr	r3, .L258+52
 2926              		.loc 1 192 0
 2927 0074 DFF874E3 		ldr	lr, .L258+176
 2928              		.loc 1 187 0
 2929 0078 1C70     		strb	r4, [r3]
 2930              		.loc 1 188 0
 2931 007a BE4B     		ldr	r3, .L258+56
 2932              		.loc 1 193 0
 2933 007c BE49     		ldr	r1, .L258+60
 2934              		.loc 1 195 0
 2935 007e BF48     		ldr	r0, .L258+64
 2936              		.loc 1 197 0
 2937 0080 DFF86CB3 		ldr	fp, .L258+180
 2938              		.loc 1 188 0
 2939 0084 4FF00708 		mov	r8, #7
 2940 0088 83F80080 		strb	r8, [r3]
 2941              		.loc 1 189 0
 2942 008c BC4B     		ldr	r3, .L258+68
 2943 008e C3ED007A 		vstr.32	s15, [r3]
 2944              		.loc 1 190 0
 2945 0092 C9ED007A 		vstr.32	s15, [r9]
 2946              		.loc 1 191 0
 2947 0096 DAF868C1 		ldr	ip, [r10, #360]	@ float
 2948 009a C2F800C0 		str	ip, [r2]	@ float
 2949              		.loc 1 196 0
 2950 009e B94B     		ldr	r3, .L258+72
 2951              		.loc 1 194 0
 2952 00a0 B94A     		ldr	r2, .L258+76
 2953              		.loc 1 192 0
 2954 00a2 CEF80040 		str	r4, [lr]
 2955              		.loc 1 193 0
 2956 00a6 0C60     		str	r4, [r1]
 2957              		.loc 1 194 0
 2958 00a8 1460     		str	r4, [r2]
 2959              		.loc 1 195 0
 2960 00aa 0460     		str	r4, [r0]
 2961              		.loc 1 196 0
 2962 00ac 1C60     		str	r4, [r3]
 2963 00ae 5C60     		str	r4, [r3, #4]
 2964 00b0 9C60     		str	r4, [r3, #8]
ARM GAS  C:\Users\Grillmo\AppData\Local\Temp\ccnDcoCc.s 			page 53


 2965 00b2 DC60     		str	r4, [r3, #12]
 2966 00b4 1C61     		str	r4, [r3, #16]
 2967 00b6 5C61     		str	r4, [r3, #20]
 2968 00b8 9C61     		str	r4, [r3, #24]
 2969              		.loc 1 198 0
 2970 00ba B44B     		ldr	r3, .L258+80
 2971              		.loc 1 197 0
 2972 00bc CBED007A 		vstr.32	s15, [fp]
 2973              		.loc 1 199 0
 2974 00c0 DFF83093 		ldr	r9, .L258+184
 2975              		.loc 1 198 0
 2976 00c4 C3ED007A 		vstr.32	s15, [r3]
 2977              		.loc 1 200 0
 2978 00c8 B14B     		ldr	r3, .L258+84
 2979              		.loc 1 202 0
 2980 00ca DFF82CE3 		ldr	lr, .L258+188
 2981              		.loc 1 201 0
 2982 00ce DFF82CC3 		ldr	ip, .L258+192
 2983              		.loc 1 199 0
 2984 00d2 C9ED007A 		vstr.32	s15, [r9]
 2985              		.loc 1 200 0
 2986 00d6 1C60     		str	r4, [r3]
 2987              		.loc 1 203 0
 2988 00d8 AE4B     		ldr	r3, .L258+88
 2989              		.loc 1 201 0
 2990 00da CCED007A 		vstr.32	s15, [ip]
 2991              		.loc 1 204 0
 2992 00de 2146     		mov	r1, r4
 2993              		.loc 1 202 0
 2994 00e0 CEF80040 		str	r4, [lr]
 2995              		.loc 1 204 0
 2996 00e4 E022     		movs	r2, #224
 2997              		.loc 1 202 0
 2998 00e6 CEF80440 		str	r4, [lr, #4]
 2999              		.loc 1 204 0
 3000 00ea AB48     		ldr	r0, .L258+92
 3001              		.loc 1 202 0
 3002 00ec CEF80840 		str	r4, [lr, #8]
 3003 00f0 CEF80C40 		str	r4, [lr, #12]
 3004 00f4 CEF81040 		str	r4, [lr, #16]
 3005 00f8 CEF81440 		str	r4, [lr, #20]
 3006              		.loc 1 203 0
 3007 00fc 1C70     		strb	r4, [r3]
 3008              		.loc 1 204 0
 3009 00fe FFF7FEFF 		bl	memset
 3010              	.LVL230:
 3011              		.loc 1 205 0
 3012 0102 FFF7FEFF 		bl	update_sensor_mode
 3013              	.LVL231:
 3014              		.loc 1 206 0
 3015 0106 9AF80130 		ldrb	r3, [r10, #1]	@ zero_extendqisi2
 3016 010a A44A     		ldr	r2, .L258+96
 3017 010c DBB2     		uxtb	r3, r3
 3018              		.loc 1 208 0
 3019 010e 0AF19800 		add	r0, r10, #152
 3020              		.loc 1 206 0
 3021 0112 1370     		strb	r3, [r2]
ARM GAS  C:\Users\Grillmo\AppData\Local\Temp\ccnDcoCc.s 			page 54


 3022              		.loc 1 208 0
 3023 0114 FFF7FEFF 		bl	mcpwm_init_hall_table
 3024              	.LVL232:
 3025              		.loc 1 211 0
 3026 0118 2A46     		mov	r2, r5
 3027 011a 4146     		mov	r1, r8
 3028 011c 9FEDA00A 		vldr.32	s0, .L258+100
 3029 0120 A048     		ldr	r0, .L258+104
 3030 0122 FFF7FEFF 		bl	filter_create_fir_lowpass
 3031              	.LVL233:
 3032              		.loc 1 214 0
 3033 0126 2A46     		mov	r2, r5
 3034 0128 4146     		mov	r1, r8
 3035 012a 9FED9D0A 		vldr.32	s0, .L258+100
 3036 012e 9E48     		ldr	r0, .L258+108
 3037 0130 FFF7FEFF 		bl	filter_create_fir_lowpass
 3038              	.LVL234:
 3039              		.loc 1 217 0
 3040 0134 9FED9D0A 		vldr.32	s0, .L258+112
 3041 0138 9D48     		ldr	r0, .L258+116
 3042 013a 2A46     		mov	r2, r5
 3043 013c 0421     		movs	r1, #4
 3044 013e FFF7FEFF 		bl	filter_create_fir_lowpass
 3045              	.LVL235:
 3046              		.loc 1 219 0
 3047 0142 3046     		mov	r0, r6
 3048 0144 FFF7FEFF 		bl	TIM_DeInit
 3049              	.LVL236:
 3050              		.loc 1 220 0
 3051 0148 3846     		mov	r0, r7
 3052 014a FFF7FEFF 		bl	TIM_DeInit
 3053              	.LVL237:
 3054              		.loc 1 221 0
 3055 014e 7462     		str	r4, [r6, #36]
 3056              		.loc 1 225 0
 3057 0150 2946     		mov	r1, r5
 3058 0152 2846     		mov	r0, r5
 3059              		.loc 1 222 0
 3060 0154 7C62     		str	r4, [r7, #36]
 3061              		.loc 1 225 0
 3062 0156 FFF7FEFF 		bl	RCC_APB2PeriphClockCmd
 3063              	.LVL238:
 3064              		.loc 1 230 0
 3065 015a 844B     		ldr	r3, .L258+48
 3066 015c 954A     		ldr	r2, .L258+120
 3067 015e D3ED007A 		vldr.32	s15, [r3]
 3068              		.loc 1 228 0
 3069 0162 ADF80C40 		strh	r4, [sp, #12]	@ movhi
 3070              		.loc 1 230 0
 3071 0166 FDEEE77A 		vcvt.s32.f32	s15, s15
 3072              		.loc 1 234 0
 3073 016a 3046     		mov	r0, r6
 3074              		.loc 1 230 0
 3075 016c 17EE903A 		vmov	r3, s15	@ int
 3076              		.loc 1 234 0
 3077 0170 03A9     		add	r1, sp, #12
 3078              		.loc 1 230 0
ARM GAS  C:\Users\Grillmo\AppData\Local\Temp\ccnDcoCc.s 			page 55


 3079 0172 92FBF3F3 		sdiv	r3, r2, r3
 3080              		.loc 1 229 0
 3081 0176 ADF80E40 		strh	r4, [sp, #14]	@ movhi
 3082              		.loc 1 231 0
 3083 017a ADF81440 		strh	r4, [sp, #20]	@ movhi
 3084              		.loc 1 232 0
 3085 017e 8DF81640 		strb	r4, [sp, #22]
 3086              		.loc 1 230 0
 3087 0182 0493     		str	r3, [sp, #16]
 3088              		.loc 1 234 0
 3089 0184 FFF7FEFF 		bl	TIM_TimeBaseInit
 3090              	.LVL239:
 3091              		.loc 1 240 0
 3092 0188 F36A     		ldr	r3, [r6, #44]
 3093              		.loc 1 238 0
 3094 018a ADF83A50 		strh	r5, [sp, #58]	@ movhi
 3095              		.loc 1 240 0
 3096 018e EB40     		lsrs	r3, r3, r5
 3097              		.loc 1 239 0
 3098 0190 4FF00408 		mov	r8, #4
 3099              		.loc 1 243 0
 3100 0194 4FF48079 		mov	r9, #256
 3101              		.loc 1 246 0
 3102 0198 3046     		mov	r0, r6
 3103 019a 0EA9     		add	r1, sp, #56
 3104              		.loc 1 244 0
 3105 019c 4FF4007B 		mov	fp, #512
 3106              		.loc 1 240 0
 3107 01a0 1093     		str	r3, [sp, #64]
 3108              		.loc 1 237 0
 3109 01a2 4FF06003 		mov	r3, #96	@ movhi
 3110 01a6 ADF83830 		strh	r3, [sp, #56]	@ movhi
 3111              		.loc 1 241 0
 3112 01aa ADF84440 		strh	r4, [sp, #68]	@ movhi
 3113              		.loc 1 242 0
 3114 01ae ADF84640 		strh	r4, [sp, #70]	@ movhi
 3115              		.loc 1 239 0
 3116 01b2 ADF83C80 		strh	r8, [sp, #60]	@ movhi
 3117              		.loc 1 243 0
 3118 01b6 ADF84890 		strh	r9, [sp, #72]	@ movhi
 3119              		.loc 1 244 0
 3120 01ba ADF84AB0 		strh	fp, [sp, #74]	@ movhi
 3121              		.loc 1 246 0
 3122 01be FFF7FEFF 		bl	TIM_OC1Init
 3123              	.LVL240:
 3124              		.loc 1 247 0
 3125 01c2 0EA9     		add	r1, sp, #56
 3126 01c4 3046     		mov	r0, r6
 3127 01c6 FFF7FEFF 		bl	TIM_OC2Init
 3128              	.LVL241:
 3129              		.loc 1 248 0
 3130 01ca 0EA9     		add	r1, sp, #56
 3131 01cc 3046     		mov	r0, r6
 3132 01ce FFF7FEFF 		bl	TIM_OC3Init
 3133              	.LVL242:
 3134              		.loc 1 249 0
 3135 01d2 0EA9     		add	r1, sp, #56
ARM GAS  C:\Users\Grillmo\AppData\Local\Temp\ccnDcoCc.s 			page 56


 3136 01d4 3046     		mov	r0, r6
 3137 01d6 FFF7FEFF 		bl	TIM_OC4Init
 3138              	.LVL243:
 3139              		.loc 1 251 0
 3140 01da 3046     		mov	r0, r6
 3141 01dc 0821     		movs	r1, #8
 3142 01de FFF7FEFF 		bl	TIM_OC1PreloadConfig
 3143              	.LVL244:
 3144              		.loc 1 252 0
 3145 01e2 3046     		mov	r0, r6
 3146 01e4 0821     		movs	r1, #8
 3147 01e6 FFF7FEFF 		bl	TIM_OC2PreloadConfig
 3148              	.LVL245:
 3149              		.loc 1 253 0
 3150 01ea 3046     		mov	r0, r6
 3151 01ec 0821     		movs	r1, #8
 3152 01ee FFF7FEFF 		bl	TIM_OC3PreloadConfig
 3153              	.LVL246:
 3154              		.loc 1 254 0
 3155 01f2 3046     		mov	r0, r6
 3156 01f4 0821     		movs	r1, #8
 3157 01f6 FFF7FEFF 		bl	TIM_OC4PreloadConfig
 3158              	.LVL247:
 3159              		.loc 1 260 0
 3160 01fa 3C23     		movs	r3, #60
 3161              		.loc 1 257 0
 3162 01fc 4FF40062 		mov	r2, #2048	@ movhi
 3163              		.loc 1 258 0
 3164 0200 4FF4806A 		mov	r10, #1024
 3165              	.LVL248:
 3166              		.loc 1 265 0
 3167 0204 3046     		mov	r0, r6
 3168 0206 06A9     		add	r1, sp, #24
 3169              		.loc 1 260 0
 3170 0208 ADF81E30 		strh	r3, [sp, #30]	@ movhi
 3171              		.loc 1 262 0
 3172 020c 4FF40053 		mov	r3, #8192	@ movhi
 3173              		.loc 1 257 0
 3174 0210 ADF81820 		strh	r2, [sp, #24]	@ movhi
 3175              		.loc 1 262 0
 3176 0214 ADF82230 		strh	r3, [sp, #34]	@ movhi
 3177              		.loc 1 259 0
 3178 0218 ADF81C40 		strh	r4, [sp, #28]	@ movhi
 3179              		.loc 1 261 0
 3180 021c ADF82040 		strh	r4, [sp, #32]	@ movhi
 3181              		.loc 1 263 0
 3182 0220 ADF82440 		strh	r4, [sp, #36]	@ movhi
 3183              		.loc 1 258 0
 3184 0224 ADF81AA0 		strh	r10, [sp, #26]	@ movhi
 3185              		.loc 1 265 0
 3186 0228 FFF7FEFF 		bl	TIM_BDTRConfig
 3187              	.LVL249:
 3188              		.loc 1 266 0
 3189 022c 2946     		mov	r1, r5
 3190 022e 3046     		mov	r0, r6
 3191 0230 FFF7FEFF 		bl	TIM_CCPreloadControl
 3192              	.LVL250:
ARM GAS  C:\Users\Grillmo\AppData\Local\Temp\ccnDcoCc.s 			page 57


 3193              		.loc 1 267 0
 3194 0234 2946     		mov	r1, r5
 3195 0236 3046     		mov	r0, r6
 3196 0238 FFF7FEFF 		bl	TIM_ARRPreloadConfig
 3197              	.LVL251:
 3198              		.loc 1 277 0
 3199 023c 2946     		mov	r1, r5
 3200 023e 5E48     		ldr	r0, .L258+124
 3201 0240 FFF7FEFF 		bl	RCC_AHB1PeriphClockCmd
 3202              	.LVL252:
 3203              		.loc 1 278 0
 3204 0244 2946     		mov	r1, r5
 3205 0246 4FF4E060 		mov	r0, #1792
 3206 024a FFF7FEFF 		bl	RCC_APB2PeriphClockCmd
 3207              	.LVL253:
 3208              		.loc 1 280 0
 3209 024e 2346     		mov	r3, r4
 3210 0250 5A4A     		ldr	r2, .L258+128
 3211 0252 5B48     		ldr	r0, .L258+132
 3212 0254 0321     		movs	r1, #3
 3213 0256 FFF7FEFF 		bl	dmaStreamAllocate
 3214              	.LVL254:
 3215              		.loc 1 293 0
 3216 025a 4FF40063 		mov	r3, #2048
 3217 025e 2693     		str	r3, [sp, #152]
 3218              		.loc 1 294 0
 3219 0260 4FF40053 		mov	r3, #8192
 3220              		.loc 1 287 0
 3221 0264 DFF898C1 		ldr	ip, .L258+196
 3222              		.loc 1 288 0
 3223 0268 DFF898E1 		ldr	lr, .L258+200
 3224              		.loc 1 301 0
 3225 026c 5548     		ldr	r0, .L258+136
 3226              		.loc 1 294 0
 3227 026e 2793     		str	r3, [sp, #156]
 3228              		.loc 1 290 0
 3229 0270 0C22     		movs	r2, #12
 3230              		.loc 1 296 0
 3231 0272 4FF40033 		mov	r3, #131072
 3232              		.loc 1 301 0
 3233 0276 1FA9     		add	r1, sp, #124
 3234              		.loc 1 287 0
 3235 0278 CDF884C0 		str	ip, [sp, #132]
 3236              		.loc 1 288 0
 3237 027c CDF880E0 		str	lr, [sp, #128]
 3238              		.loc 1 296 0
 3239 0280 2993     		str	r3, [sp, #164]
 3240              		.loc 1 290 0
 3241 0282 2392     		str	r2, [sp, #140]
 3242              		.loc 1 286 0
 3243 0284 1F94     		str	r4, [sp, #124]
 3244              		.loc 1 289 0
 3245 0286 2294     		str	r4, [sp, #136]
 3246              		.loc 1 291 0
 3247 0288 2494     		str	r4, [sp, #144]
 3248              		.loc 1 297 0
 3249 028a 2A94     		str	r4, [sp, #168]
ARM GAS  C:\Users\Grillmo\AppData\Local\Temp\ccnDcoCc.s 			page 58


 3250              		.loc 1 298 0
 3251 028c 2B94     		str	r4, [sp, #172]
 3252              		.loc 1 299 0
 3253 028e 2C94     		str	r4, [sp, #176]
 3254              		.loc 1 300 0
 3255 0290 2D94     		str	r4, [sp, #180]
 3256              		.loc 1 292 0
 3257 0292 CDF894A0 		str	r10, [sp, #148]
 3258              		.loc 1 295 0
 3259 0296 CDF8A090 		str	r9, [sp, #160]
 3260              		.loc 1 301 0
 3261 029a FFF7FEFF 		bl	DMA_Init
 3262              	.LVL255:
 3263              		.loc 1 304 0
 3264 029e 2946     		mov	r1, r5
 3265 02a0 4848     		ldr	r0, .L258+136
 3266 02a2 FFF7FEFF 		bl	DMA_Cmd
 3267              	.LVL256:
 3268              		.loc 1 307 0
 3269 02a6 2A46     		mov	r2, r5
 3270 02a8 1021     		movs	r1, #16
 3271 02aa 4648     		ldr	r0, .L258+136
 3272 02ac FFF7FEFF 		bl	DMA_ITConfig
 3273              	.LVL257:
 3274              		.loc 1 312 0
 3275 02b0 1622     		movs	r2, #22
 3276              		.loc 1 314 0
 3277 02b2 4FF48043 		mov	r3, #16384
 3278              		.loc 1 316 0
 3279 02b6 0AA8     		add	r0, sp, #40
 3280              		.loc 1 313 0
 3281 02b8 0B94     		str	r4, [sp, #44]
 3282              		.loc 1 315 0
 3283 02ba 0D94     		str	r4, [sp, #52]
 3284              		.loc 1 312 0
 3285 02bc 0A92     		str	r2, [sp, #40]
 3286              		.loc 1 314 0
 3287 02be 0C93     		str	r3, [sp, #48]
 3288              		.loc 1 316 0
 3289 02c0 FFF7FEFF 		bl	ADC_CommonInit
 3290              	.LVL258:
 3291              		.loc 1 323 0
 3292 02c4 4FF05063 		mov	r3, #218103808
 3293              		.loc 1 322 0
 3294 02c8 4FF00052 		mov	r2, #536870912
 3295              		.loc 1 327 0
 3296 02cc 13A9     		add	r1, sp, #76
 3297 02ce 3E48     		ldr	r0, .L258+140
 3298              		.loc 1 323 0
 3299 02d0 1693     		str	r3, [sp, #88]
 3300              		.loc 1 322 0
 3301 02d2 1592     		str	r2, [sp, #84]
 3302              		.loc 1 319 0
 3303 02d4 1394     		str	r4, [sp, #76]
 3304              		.loc 1 320 0
 3305 02d6 8DF85050 		strb	r5, [sp, #80]
 3306              		.loc 1 321 0
ARM GAS  C:\Users\Grillmo\AppData\Local\Temp\ccnDcoCc.s 			page 59


 3307 02da 8DF85140 		strb	r4, [sp, #81]
 3308              		.loc 1 324 0
 3309 02de 1794     		str	r4, [sp, #92]
 3310              		.loc 1 325 0
 3311 02e0 8DF86080 		strb	r8, [sp, #96]
 3312              		.loc 1 327 0
 3313 02e4 FFF7FEFF 		bl	ADC_Init
 3314              	.LVL259:
 3315              		.loc 1 330 0
 3316 02e8 13A9     		add	r1, sp, #76
 3317 02ea 3848     		ldr	r0, .L258+144
 3318              		.loc 1 328 0
 3319 02ec 1594     		str	r4, [sp, #84]
 3320              		.loc 1 329 0
 3321 02ee 1694     		str	r4, [sp, #88]
 3322              		.loc 1 330 0
 3323 02f0 FFF7FEFF 		bl	ADC_Init
 3324              	.LVL260:
 3325              		.loc 1 331 0
 3326 02f4 13A9     		add	r1, sp, #76
 3327 02f6 3648     		ldr	r0, .L258+148
 3328 02f8 FFF7FEFF 		bl	ADC_Init
 3329              	.LVL261:
 3330              		.loc 1 334 0
 3331 02fc 2846     		mov	r0, r5
 3332 02fe FFF7FEFF 		bl	ADC_TempSensorVrefintCmd
 3333              	.LVL262:
 3334              		.loc 1 337 0
 3335 0302 2846     		mov	r0, r5
 3336 0304 FFF7FEFF 		bl	ADC_MultiModeDMARequestAfterLastTransferCmd
 3337              	.LVL263:
 3338              		.loc 1 340 0
 3339 0308 2146     		mov	r1, r4
 3340 030a 2F48     		ldr	r0, .L258+140
 3341 030c FFF7FEFF 		bl	ADC_ExternalTrigInjectedConvConfig
 3342              	.LVL264:
 3343              		.loc 1 341 0
 3344 0310 4FF44021 		mov	r1, #786432
 3345 0314 2D48     		ldr	r0, .L258+144
 3346 0316 FFF7FEFF 		bl	ADC_ExternalTrigInjectedConvConfig
 3347              	.LVL265:
 3348              		.loc 1 345 0
 3349 031a 4FF40011 		mov	r1, #2097152
 3350 031e 2A48     		ldr	r0, .L258+140
 3351 0320 FFF7FEFF 		bl	ADC_ExternalTrigInjectedConvEdgeConfig
 3352              	.LVL266:
 3353              		.loc 1 346 0
 3354 0324 4FF40011 		mov	r1, #2097152
 3355 0328 2848     		ldr	r0, .L258+144
 3356 032a FFF7FEFF 		bl	ADC_ExternalTrigInjectedConvEdgeConfig
 3357              	.LVL267:
 3358              		.loc 1 350 0
 3359 032e 0221     		movs	r1, #2
 3360 0330 2548     		ldr	r0, .L258+140
 3361 0332 FFF7FEFF 		bl	ADC_InjectedSequencerLengthConfig
 3362              	.LVL268:
 3363              		.loc 1 351 0
ARM GAS  C:\Users\Grillmo\AppData\Local\Temp\ccnDcoCc.s 			page 60


 3364 0336 0221     		movs	r1, #2
 3365 0338 66E0     		b	.L259
 3366              	.L260:
 3367 033a 00BF     		.align	2
 3368              	.L258:
 3369 033c 00000000 		.word	.LANCHOR0
 3370 0340 00000140 		.word	1073807360
 3371 0344 00040140 		.word	1073808384
 3372 0348 00000000 		.word	.LANCHOR28
 3373 034c 00000000 		.word	.LANCHOR32
 3374 0350 00000000 		.word	0
 3375 0354 00000000 		.word	.LANCHOR34
 3376 0358 00000000 		.word	.LANCHOR35
 3377 035c 00000000 		.word	.LANCHOR36
 3378 0360 00000000 		.word	.LANCHOR9
 3379 0364 00000000 		.word	.LANCHOR8
 3380 0368 00000000 		.word	.LANCHOR7
 3381 036c 00000000 		.word	.LANCHOR13
 3382 0370 00000000 		.word	.LANCHOR2
 3383 0374 00000000 		.word	.LANCHOR37
 3384 0378 00000000 		.word	.LANCHOR1
 3385 037c 00000000 		.word	.LANCHOR18
 3386 0380 00000000 		.word	.LANCHOR38
 3387 0384 00000000 		.word	.LANCHOR6
 3388 0388 00000000 		.word	.LANCHOR41
 3389 038c 00000000 		.word	.LANCHOR43
 3390 0390 00000000 		.word	.LANCHOR17
 3391 0394 00000000 		.word	.LANCHOR44
 3392 0398 00000000 		.word	.LANCHOR45
 3393 039c 00000000 		.word	.LANCHOR19
 3394 03a0 0AD7A33C 		.word	1017370378
 3395 03a4 00000000 		.word	.LANCHOR46
 3396 03a8 00000000 		.word	.LANCHOR22
 3397 03ac 9A99193E 		.word	1041865114
 3398 03b0 00000000 		.word	.LANCHOR47
 3399 03b4 007A030A 		.word	168000000
 3400 03b8 05004000 		.word	4194309
 3401 03bc 00000000 		.word	mcpwm_adc_int_handler
 3402 03c0 90000000 		.word	_stm32_dma_streams+144
 3403 03c4 70640240 		.word	1073898608
 3404 03c8 00200140 		.word	1073815552
 3405 03cc 00210140 		.word	1073815808
 3406 03d0 00220140 		.word	1073816064
 3407 03d4 00000000 		.word	.LANCHOR3
 3408 03d8 00000000 		.word	.LANCHOR4
 3409 03dc 00000000 		.word	.LANCHOR10
 3410 03e0 00000000 		.word	.LANCHOR33
 3411 03e4 00000000 		.word	.LANCHOR24
 3412 03e8 00000000 		.word	.LANCHOR39
 3413 03ec 00000000 		.word	.LANCHOR40
 3414 03f0 00000000 		.word	.LANCHOR42
 3415 03f4 00000000 		.word	.LANCHOR14
 3416 03f8 00000000 		.word	.LANCHOR16
 3417 03fc 00000000 		.word	.LANCHOR15
 3418 0400 00000000 		.word	ADC_Value
 3419 0404 08230140 		.word	1073816328
 3420              	.L259:
ARM GAS  C:\Users\Grillmo\AppData\Local\Temp\ccnDcoCc.s 			page 61


 3421 0408 8E48     		ldr	r0, .L261
 3422 040a FFF7FEFF 		bl	ADC_InjectedSequencerLengthConfig
 3423              	.LVL269:
 3424              		.loc 1 356 0
 3425 040e FFF7FEFF 		bl	hw_setup_adc_channels
 3426              	.LVL270:
 3427              		.loc 1 359 0
 3428 0412 2A46     		mov	r2, r5
 3429 0414 40F20741 		movw	r1, #1031
 3430 0418 8B48     		ldr	r0, .L261+4
 3431 041a FFF7FEFF 		bl	ADC_ITConfig
 3432              	.LVL271:
 3433              		.loc 1 360 0
 3434 041e 0621     		movs	r1, #6
 3435 0420 1220     		movs	r0, #18
 3436 0422 FFF7FEFF 		bl	nvicEnableVector
 3437              	.LVL272:
 3438              		.loc 1 363 0
 3439 0426 2946     		mov	r1, r5
 3440 0428 8748     		ldr	r0, .L261+4
 3441 042a FFF7FEFF 		bl	ADC_Cmd
 3442              	.LVL273:
 3443              		.loc 1 366 0
 3444 042e 2946     		mov	r1, r5
 3445 0430 8448     		ldr	r0, .L261
 3446 0432 FFF7FEFF 		bl	ADC_Cmd
 3447              	.LVL274:
 3448              		.loc 1 369 0
 3449 0436 2946     		mov	r1, r5
 3450 0438 8448     		ldr	r0, .L261+8
 3451 043a FFF7FEFF 		bl	ADC_Cmd
 3452              	.LVL275:
 3453              		.loc 1 373 0
 3454 043e 2946     		mov	r1, r5
 3455 0440 0220     		movs	r0, #2
 3456 0442 FFF7FEFF 		bl	RCC_APB2PeriphClockCmd
 3457              	.LVL276:
 3458              		.loc 1 377 0
 3459 0446 4FF6FF73 		movw	r3, #65535
 3460              		.loc 1 380 0
 3461 044a 03A9     		add	r1, sp, #12
 3462 044c 3846     		mov	r0, r7
 3463              		.loc 1 375 0
 3464 044e ADF80C40 		strh	r4, [sp, #12]	@ movhi
 3465              		.loc 1 376 0
 3466 0452 ADF80E40 		strh	r4, [sp, #14]	@ movhi
 3467              		.loc 1 378 0
 3468 0456 ADF81440 		strh	r4, [sp, #20]	@ movhi
 3469              		.loc 1 379 0
 3470 045a 8DF81640 		strb	r4, [sp, #22]
 3471              		.loc 1 377 0
 3472 045e 0493     		str	r3, [sp, #16]
 3473              		.loc 1 380 0
 3474 0460 FFF7FEFF 		bl	TIM_TimeBaseInit
 3475              	.LVL277:
 3476              		.loc 1 384 0
 3477 0464 4FF4FA73 		mov	r3, #500
ARM GAS  C:\Users\Grillmo\AppData\Local\Temp\ccnDcoCc.s 			page 62


 3478              		.loc 1 382 0
 3479 0468 4FF06002 		mov	r2, #96	@ movhi
 3480              		.loc 1 389 0
 3481 046c 0EA9     		add	r1, sp, #56
 3482 046e 3846     		mov	r0, r7
 3483              		.loc 1 382 0
 3484 0470 ADF83820 		strh	r2, [sp, #56]	@ movhi
 3485              		.loc 1 384 0
 3486 0474 1093     		str	r3, [sp, #64]
 3487              		.loc 1 383 0
 3488 0476 ADF83A50 		strh	r5, [sp, #58]	@ movhi
 3489              		.loc 1 385 0
 3490 047a ADF84440 		strh	r4, [sp, #68]	@ movhi
 3491              		.loc 1 386 0
 3492 047e ADF84640 		strh	r4, [sp, #70]	@ movhi
 3493              		.loc 1 387 0
 3494 0482 ADF84890 		strh	r9, [sp, #72]	@ movhi
 3495              		.loc 1 388 0
 3496 0486 ADF84AB0 		strh	fp, [sp, #74]	@ movhi
 3497              		.loc 1 389 0
 3498 048a FFF7FEFF 		bl	TIM_OC1Init
 3499              	.LVL278:
 3500              		.loc 1 390 0
 3501 048e 3846     		mov	r0, r7
 3502 0490 0821     		movs	r1, #8
 3503 0492 FFF7FEFF 		bl	TIM_OC1PreloadConfig
 3504              	.LVL279:
 3505              		.loc 1 391 0
 3506 0496 0EA9     		add	r1, sp, #56
 3507 0498 3846     		mov	r0, r7
 3508 049a FFF7FEFF 		bl	TIM_OC2Init
 3509              	.LVL280:
 3510              		.loc 1 392 0
 3511 049e 3846     		mov	r0, r7
 3512 04a0 0821     		movs	r1, #8
 3513 04a2 FFF7FEFF 		bl	TIM_OC2PreloadConfig
 3514              	.LVL281:
 3515              		.loc 1 393 0
 3516 04a6 0EA9     		add	r1, sp, #56
 3517 04a8 3846     		mov	r0, r7
 3518 04aa FFF7FEFF 		bl	TIM_OC3Init
 3519              	.LVL282:
 3520              		.loc 1 394 0
 3521 04ae 3846     		mov	r0, r7
 3522 04b0 0821     		movs	r1, #8
 3523 04b2 FFF7FEFF 		bl	TIM_OC3PreloadConfig
 3524              	.LVL283:
 3525              		.loc 1 396 0
 3526 04b6 2946     		mov	r1, r5
 3527 04b8 3846     		mov	r0, r7
 3528 04ba FFF7FEFF 		bl	TIM_ARRPreloadConfig
 3529              	.LVL284:
 3530              		.loc 1 397 0
 3531 04be 2946     		mov	r1, r5
 3532 04c0 3846     		mov	r0, r7
 3533 04c2 FFF7FEFF 		bl	TIM_CCPreloadControl
 3534              	.LVL285:
ARM GAS  C:\Users\Grillmo\AppData\Local\Temp\ccnDcoCc.s 			page 63


 3535              		.loc 1 400 0
 3536 04c6 2946     		mov	r1, r5
 3537 04c8 3846     		mov	r0, r7
 3538 04ca FFF7FEFF 		bl	TIM_CtrlPWMOutputs
 3539              	.LVL286:
 3540              		.loc 1 403 0
 3541 04ce 3046     		mov	r0, r6
 3542 04d0 2021     		movs	r1, #32
 3543 04d2 FFF7FEFF 		bl	TIM_SelectOutputTrigger
 3544              	.LVL287:
 3545              		.loc 1 404 0
 3546 04d6 3046     		mov	r0, r6
 3547 04d8 8021     		movs	r1, #128
 3548 04da FFF7FEFF 		bl	TIM_SelectMasterSlaveMode
 3549              	.LVL288:
 3550              		.loc 1 405 0
 3551 04de 2146     		mov	r1, r4
 3552 04e0 3846     		mov	r0, r7
 3553 04e2 FFF7FEFF 		bl	TIM_SelectInputTrigger
 3554              	.LVL289:
 3555              		.loc 1 406 0
 3556 04e6 4146     		mov	r1, r8
 3557 04e8 3846     		mov	r0, r7
 3558 04ea FFF7FEFF 		bl	TIM_SelectSlaveMode
 3559              	.LVL290:
 3560              		.loc 1 409 0
 3561 04ee 2946     		mov	r1, r5
 3562 04f0 3046     		mov	r0, r6
 3563 04f2 FFF7FEFF 		bl	TIM_Cmd
 3564              	.LVL291:
 3565              		.loc 1 410 0
 3566 04f6 2946     		mov	r1, r5
 3567 04f8 3846     		mov	r0, r7
 3568 04fa FFF7FEFF 		bl	TIM_Cmd
 3569              	.LVL292:
 3570              		.loc 1 413 0
 3571 04fe 2946     		mov	r1, r5
 3572 0500 3046     		mov	r0, r6
 3573 0502 FFF7FEFF 		bl	TIM_CtrlPWMOutputs
 3574              	.LVL293:
 3575              		.loc 1 416 0
 3576 0506 2946     		mov	r1, r5
 3577 0508 2846     		mov	r0, r5
 3578 050a FFF7FEFF 		bl	RCC_APB1PeriphClockCmd
 3579              	.LVL294:
 3580              		.loc 1 420 0
 3581 050e 4FF0FF32 		mov	r2, #-1
 3582              		.loc 1 421 0
 3583 0512 5323     		movs	r3, #83
 3584              		.loc 1 424 0
 3585 0514 03A9     		add	r1, sp, #12
 3586 0516 4FF08040 		mov	r0, #1073741824
 3587              		.loc 1 420 0
 3588 051a 0492     		str	r2, [sp, #16]
 3589              		.loc 1 421 0
 3590 051c ADF80C30 		strh	r3, [sp, #12]	@ movhi
 3591              		.loc 1 422 0
ARM GAS  C:\Users\Grillmo\AppData\Local\Temp\ccnDcoCc.s 			page 64


 3592 0520 ADF81440 		strh	r4, [sp, #20]	@ movhi
 3593              		.loc 1 423 0
 3594 0524 ADF80E40 		strh	r4, [sp, #14]	@ movhi
 3595              		.loc 1 424 0
 3596 0528 FFF7FEFF 		bl	TIM_TimeBaseInit
 3597              	.LVL295:
 3598              		.loc 1 427 0
 3599 052c 2946     		mov	r1, r5
 3600 052e 4FF08040 		mov	r0, #1073741824
 3601 0532 FFF7FEFF 		bl	TIM_Cmd
 3602              	.LVL296:
 3603              		.loc 1 430 0
 3604 0536 FFF7FEFF 		bl	stop_pwm_hw
 3605              	.LVL297:
 3606              		.loc 1 432 0
 3607 053a F36A     		ldr	r3, [r6, #44]
 3608 053c 1A93     		str	r3, [sp, #104]
 3609              		.loc 1 433 0
 3610 053e F36A     		ldr	r3, [r6, #44]
 3611              		.loc 1 434 0
 3612 0540 19A8     		add	r0, sp, #100
 3613              		.loc 1 433 0
 3614 0542 EB40     		lsrs	r3, r3, r5
 3615 0544 1B93     		str	r3, [sp, #108]
 3616              		.loc 1 434 0
 3617 0546 FFF7FEFF 		bl	update_adc_sample_pos
 3618              	.LVL298:
 3619              		.loc 1 435 0
 3620 054a 19A8     		add	r0, sp, #100
 3621 054c FFF7FEFF 		bl	set_next_timer_settings
 3622              	.LVL299:
 3623              		.loc 1 440 0
 3624 0550 3F4D     		ldr	r5, .L261+12
 3625              		.loc 1 437 0
 3626 0552 FFF7FEFF 		bl	utils_sys_unlock_cnt
 3627              	.LVL300:
 3628              		.loc 1 441 0
 3629 0556 3F4B     		ldr	r3, .L261+16
 3630              		.loc 1 440 0
 3631 0558 A5F818A0 		strh	r10, [r5, #24]	@ movhi
 3632              		.loc 1 441 0
 3633 055c 4FF48052 		mov	r2, #4096
 3634 0560 5A83     		strh	r2, [r3, #26]	@ movhi
 3635              	.LBB107:
 3636              	.LBB108:
 3637              		.loc 1 538 0
 3638 0562 41F28934 		movw	r4, #5001
 3639 0566 1A83     		strh	r2, [r3, #24]	@ movhi
 3640              	.LVL301:
 3641 0568 03E0     		b	.L251
 3642              	.LVL302:
 3643              	.L253:
 3644              		.loc 1 543 0
 3645 056a FFF7FEFF 		bl	chThdSleep
 3646              	.LVL303:
 3647              		.loc 1 545 0
 3648 056e 013C     		subs	r4, r4, #1
ARM GAS  C:\Users\Grillmo\AppData\Local\Temp\ccnDcoCc.s 			page 65


 3649              	.LVL304:
 3650 0570 04D0     		beq	.L254
 3651              	.LVL305:
 3652              	.L251:
 3653              		.loc 1 542 0
 3654 0572 2B69     		ldr	r3, [r5, #16]
 3655 0574 DB04     		lsls	r3, r3, #19
 3656              		.loc 1 543 0
 3657 0576 4FF00A00 		mov	r0, #10
 3658              		.loc 1 542 0
 3659 057a F6D5     		bpl	.L253
 3660              	.LVL306:
 3661              	.L254:
 3662              		.loc 1 550 0
 3663 057c 42F21070 		movw	r0, #10000
 3664 0580 FFF7FEFF 		bl	chThdSleep
 3665              	.LVL307:
 3666              		.loc 1 551 0
 3667 0584 3448     		ldr	r0, .L261+20
 3668              		.loc 1 552 0
 3669 0586 3549     		ldr	r1, .L261+24
 3670              		.loc 1 558 0
 3671 0588 354A     		ldr	r2, .L261+28
 3672              		.loc 1 551 0
 3673 058a 0023     		movs	r3, #0
 3674 058c 0360     		str	r3, [r0]
 3675              		.loc 1 552 0
 3676 058e 0B60     		str	r3, [r1]
 3677              		.loc 1 558 0
 3678 0590 1360     		str	r3, [r2]
 3679              	.L252:
 3680              		.loc 1 559 0
 3681 0592 1368     		ldr	r3, [r2]
 3682 0594 B3F57A6F 		cmp	r3, #4000
 3683 0598 FBDB     		blt	.L252
 3684              		.loc 1 560 0
 3685 059a 324D     		ldr	r5, .L261+32
 3686              		.loc 1 561 0
 3687 059c 324C     		ldr	r4, .L261+36
 3688              		.loc 1 560 0
 3689 059e 0368     		ldr	r3, [r0]
 3690 05a0 1068     		ldr	r0, [r2]
 3691 05a2 93FBF0F3 		sdiv	r3, r3, r0
 3692              		.loc 1 567 0
 3693 05a6 2B48     		ldr	r0, .L261+16
 3694              		.loc 1 560 0
 3695 05a8 2B60     		str	r3, [r5]
 3696              		.loc 1 561 0
 3697 05aa 0B68     		ldr	r3, [r1]
 3698 05ac 1268     		ldr	r2, [r2]
 3699 05ae 93FBF2F3 		sdiv	r3, r3, r2
 3700              		.loc 1 568 0
 3701 05b2 0125     		movs	r5, #1
 3702              		.loc 1 561 0
 3703 05b4 2360     		str	r3, [r4]
 3704              		.loc 1 567 0
 3705 05b6 4FF48052 		mov	r2, #4096
ARM GAS  C:\Users\Grillmo\AppData\Local\Temp\ccnDcoCc.s 			page 66


 3706              		.loc 1 568 0
 3707 05ba 2C4B     		ldr	r3, .L261+40
 3708              		.loc 1 567 0
 3709 05bc 4283     		strh	r2, [r0, #26]	@ movhi
 3710              	.LBE108:
 3711              	.LBE107:
 3712              		.loc 1 445 0
 3713 05be 2946     		mov	r1, r5
 3714 05c0 4020     		movs	r0, #64
 3715              		.loc 1 451 0
 3716 05c2 0024     		movs	r4, #0
 3717              	.LBB110:
 3718              	.LBB109:
 3719              		.loc 1 568 0
 3720 05c4 1D70     		strb	r5, [r3]
 3721              	.LBE109:
 3722              	.LBE110:
 3723              		.loc 1 445 0
 3724 05c6 FFF7FEFF 		bl	RCC_APB1PeriphClockCmd
 3725              	.LVL308:
 3726              		.loc 1 449 0
 3727 05ca 4FF0FF32 		mov	r2, #-1
 3728              		.loc 1 450 0
 3729 05ce 0723     		movs	r3, #7
 3730              		.loc 1 453 0
 3731 05d0 03A9     		add	r1, sp, #12
 3732 05d2 2748     		ldr	r0, .L261+44
 3733              		.loc 1 449 0
 3734 05d4 0492     		str	r2, [sp, #16]
 3735              		.loc 1 450 0
 3736 05d6 ADF80C30 		strh	r3, [sp, #12]	@ movhi
 3737              		.loc 1 451 0
 3738 05da ADF81440 		strh	r4, [sp, #20]	@ movhi
 3739              		.loc 1 452 0
 3740 05de ADF80E40 		strh	r4, [sp, #14]	@ movhi
 3741              		.loc 1 453 0
 3742 05e2 FFF7FEFF 		bl	TIM_TimeBaseInit
 3743              	.LVL309:
 3744              		.loc 1 455 0
 3745 05e6 2946     		mov	r1, r5
 3746 05e8 2148     		ldr	r0, .L261+44
 3747              		.loc 1 459 0
 3748 05ea 224E     		ldr	r6, .L261+48
 3749              		.loc 1 455 0
 3750 05ec FFF7FEFF 		bl	TIM_Cmd
 3751              	.LVL310:
 3752              		.loc 1 458 0
 3753 05f0 214A     		ldr	r2, .L261+52
 3754              		.loc 1 460 0
 3755 05f2 0094     		str	r4, [sp]
 3756 05f4 214B     		ldr	r3, .L261+56
 3757              		.loc 1 458 0
 3758 05f6 1470     		strb	r4, [r2]
 3759              		.loc 1 460 0
 3760 05f8 40F69811 		movw	r1, #2456
 3761 05fc 4022     		movs	r2, #64
 3762              		.loc 1 459 0
ARM GAS  C:\Users\Grillmo\AppData\Local\Temp\ccnDcoCc.s 			page 67


 3763 05fe 3470     		strb	r4, [r6]
 3764              		.loc 1 460 0
 3765 0600 1F48     		ldr	r0, .L261+60
 3766 0602 FFF7FEFF 		bl	chThdCreateStatic
 3767              	.LVL311:
 3768              		.loc 1 461 0
 3769 0606 1F4B     		ldr	r3, .L261+64
 3770 0608 0094     		str	r4, [sp]
 3771 060a 4022     		movs	r2, #64
 3772 060c 4FF4B361 		mov	r1, #1432
 3773 0610 1D48     		ldr	r0, .L261+68
 3774 0612 FFF7FEFF 		bl	chThdCreateStatic
 3775              	.LVL312:
 3776              		.loc 1 464 0
 3777 0616 2946     		mov	r1, r5
 3778 0618 4FF40060 		mov	r0, #2048
 3779 061c FFF7FEFF 		bl	RCC_APB1PeriphClockCmd
 3780              	.LVL313:
 3781              		.loc 1 465 0
 3782 0620 2046     		mov	r0, r4
 3783 0622 FFF7FEFF 		bl	WWDG_SetPrescaler
 3784              	.LVL314:
 3785              		.loc 1 466 0
 3786 0626 FF20     		movs	r0, #255
 3787 0628 FFF7FEFF 		bl	WWDG_SetWindowValue
 3788              	.LVL315:
 3789              		.loc 1 467 0
 3790 062c 6420     		movs	r0, #100
 3791 062e FFF7FEFF 		bl	WWDG_Enable
 3792              	.LVL316:
 3793              		.loc 1 470 0
 3794 0632 164B     		ldr	r3, .L261+72
 3795 0634 1C60     		str	r4, [r3]
 3796              		.loc 1 471 0
 3797 0636 164B     		ldr	r3, .L261+76
 3798 0638 1C60     		str	r4, [r3]
 3799              		.loc 1 473 0
 3800 063a 164B     		ldr	r3, .L261+80
 3801 063c 1D70     		strb	r5, [r3]
 3802              		.loc 1 474 0
 3803 063e 2FB0     		add	sp, sp, #188
 3804              		.cfi_def_cfa_offset 36
 3805              		@ sp needed
 3806 0640 BDE8F08F 		pop	{r4, r5, r6, r7, r8, r9, r10, fp, pc}
 3807              	.L262:
 3808              		.align	2
 3809              	.L261:
 3810 0644 00210140 		.word	1073815808
 3811 0648 00200140 		.word	1073815552
 3812 064c 00220140 		.word	1073816064
 3813 0650 00080240 		.word	1073874944
 3814 0654 00040240 		.word	1073873920
 3815 0658 00000000 		.word	.LANCHOR48
 3816 065c 00000000 		.word	.LANCHOR49
 3817 0660 00000000 		.word	.LANCHOR50
 3818 0664 00000000 		.word	.LANCHOR51
 3819 0668 00000000 		.word	.LANCHOR52
ARM GAS  C:\Users\Grillmo\AppData\Local\Temp\ccnDcoCc.s 			page 68


 3820 066c 00000000 		.word	.LANCHOR44
 3821 0670 00180040 		.word	1073747968
 3822 0674 00000000 		.word	.LANCHOR29
 3823 0678 00000000 		.word	.LANCHOR20
 3824 067c 00000000 		.word	timer_thread
 3825 0680 00000000 		.word	.LANCHOR53
 3826 0684 00000000 		.word	rpm_thread
 3827 0688 00000000 		.word	.LANCHOR54
 3828 068c 00000000 		.word	.LANCHOR9
 3829 0690 00000000 		.word	.LANCHOR8
 3830 0694 00000000 		.word	.LANCHOR28
 3831              		.cfi_endproc
 3832              	.LFE257:
 3833              		.size	mcpwm_init, .-mcpwm_init
 3834              		.section	.text.mcpwm_set_configuration,"ax",%progbits
 3835              		.align	1
 3836              		.p2align 4,,15
 3837              		.global	mcpwm_set_configuration
 3838              		.syntax unified
 3839              		.thumb
 3840              		.thumb_func
 3841              		.fpu fpv4-sp-d16
 3842              		.type	mcpwm_set_configuration, %function
 3843              	mcpwm_set_configuration:
 3844              	.LFB260:
 3845              		.loc 1 502 0
 3846              		.cfi_startproc
 3847              		@ args = 0, pretend = 0, frame = 0
 3848              		@ frame_needed = 0, uses_anonymous_args = 0
 3849              	.LVL317:
 3850 0000 38B5     		push	{r3, r4, r5, lr}
 3851              		.cfi_def_cfa_offset 16
 3852              		.cfi_offset 3, -16
 3853              		.cfi_offset 4, -12
 3854              		.cfi_offset 5, -8
 3855              		.cfi_offset 14, -4
 3856              	.LBB111:
 3857              	.LBB112:
 3858              		.loc 1 885 0
 3859 0002 0E49     		ldr	r1, .L265
 3860              		.loc 1 886 0
 3861 0004 0E4A     		ldr	r2, .L265+4
 3862              	.LBE112:
 3863              	.LBE111:
 3864              		.loc 1 502 0
 3865 0006 0446     		mov	r4, r0
 3866              		.loc 1 504 0
 3867 0008 0E48     		ldr	r0, .L265+8
 3868              	.LVL318:
 3869              	.LBB115:
 3870              	.LBB113:
 3871              		.loc 1 885 0
 3872 000a 0023     		movs	r3, #0
 3873              	.LBE113:
 3874              	.LBE115:
 3875              		.loc 1 504 0
 3876 000c 0725     		movs	r5, #7
ARM GAS  C:\Users\Grillmo\AppData\Local\Temp\ccnDcoCc.s 			page 69


 3877 000e 0570     		strb	r5, [r0]
 3878              	.LBB116:
 3879              	.LBB114:
 3880              		.loc 1 885 0
 3881 0010 0B70     		strb	r3, [r1]
 3882              		.loc 1 886 0
 3883 0012 1360     		str	r3, [r2]
 3884              		.loc 1 887 0
 3885 0014 FFF7FEFF 		bl	stop_pwm_hw
 3886              	.LVL319:
 3887              	.LBE114:
 3888              	.LBE116:
 3889              		.loc 1 507 0
 3890 0018 FFF7FEFF 		bl	utils_sys_lock_cnt
 3891              	.LVL320:
 3892              		.loc 1 509 0
 3893 001c 6378     		ldrb	r3, [r4, #1]	@ zero_extendqisi2
 3894              		.loc 1 508 0
 3895 001e 0A49     		ldr	r1, .L265+12
 3896              		.loc 1 509 0
 3897 0020 0A4A     		ldr	r2, .L265+16
 3898              		.loc 1 508 0
 3899 0022 0C60     		str	r4, [r1]
 3900              		.loc 1 509 0
 3901 0024 DBB2     		uxtb	r3, r3
 3902              		.loc 1 510 0
 3903 0026 04F19800 		add	r0, r4, #152
 3904              		.loc 1 509 0
 3905 002a 1370     		strb	r3, [r2]
 3906              		.loc 1 510 0
 3907 002c FFF7FEFF 		bl	mcpwm_init_hall_table
 3908              	.LVL321:
 3909              		.loc 1 511 0
 3910 0030 FFF7FEFF 		bl	update_sensor_mode
 3911              	.LVL322:
 3912              		.loc 1 513 0
 3913 0034 BDE83840 		pop	{r3, r4, r5, lr}
 3914              		.cfi_restore 14
 3915              		.cfi_restore 5
 3916              		.cfi_restore 4
 3917              		.cfi_restore 3
 3918              		.cfi_def_cfa_offset 0
 3919              	.LVL323:
 3920              		.loc 1 512 0
 3921 0038 FFF7FEBF 		b	utils_sys_unlock_cnt
 3922              	.LVL324:
 3923              	.L266:
 3924              		.align	2
 3925              	.L265:
 3926 003c 00000000 		.word	.LANCHOR2
 3927 0040 00000000 		.word	.LANCHOR40
 3928 0044 00000000 		.word	.LANCHOR37
 3929 0048 00000000 		.word	.LANCHOR0
 3930 004c 00000000 		.word	.LANCHOR19
 3931              		.cfi_endproc
 3932              	.LFE260:
 3933              		.size	mcpwm_set_configuration, .-mcpwm_set_configuration
ARM GAS  C:\Users\Grillmo\AppData\Local\Temp\ccnDcoCc.s 			page 70


 3934              		.section	.text.mcpwm_set_pid_speed,"ax",%progbits
 3935              		.align	1
 3936              		.p2align 4,,15
 3937              		.global	mcpwm_set_pid_speed
 3938              		.syntax unified
 3939              		.thumb
 3940              		.thumb_func
 3941              		.fpu fpv4-sp-d16
 3942              		.type	mcpwm_set_pid_speed, %function
 3943              	mcpwm_set_pid_speed:
 3944              	.LFB265:
 3945              		.loc 1 612 0
 3946              		.cfi_startproc
 3947              		@ args = 0, pretend = 0, frame = 0
 3948              		@ frame_needed = 0, uses_anonymous_args = 0
 3949              		@ link register save eliminated.
 3950              	.LVL325:
 3951              		.loc 1 613 0
 3952 0000 034A     		ldr	r2, .L268
 3953              		.loc 1 614 0
 3954 0002 044B     		ldr	r3, .L268+4
 3955              		.loc 1 613 0
 3956 0004 0121     		movs	r1, #1
 3957 0006 1170     		strb	r1, [r2]
 3958              		.loc 1 614 0
 3959 0008 83ED000A 		vstr.32	s0, [r3]
 3960 000c 7047     		bx	lr
 3961              	.L269:
 3962 000e 00BF     		.align	2
 3963              	.L268:
 3964 0010 00000000 		.word	.LANCHOR37
 3965 0014 00000000 		.word	.LANCHOR34
 3966              		.cfi_endproc
 3967              	.LFE265:
 3968              		.size	mcpwm_set_pid_speed, .-mcpwm_set_pid_speed
 3969              		.section	.text.mcpwm_set_brake_current,"ax",%progbits
 3970              		.align	1
 3971              		.p2align 4,,15
 3972              		.global	mcpwm_set_brake_current
 3973              		.syntax unified
 3974              		.thumb
 3975              		.thumb_func
 3976              		.fpu fpv4-sp-d16
 3977              		.type	mcpwm_set_brake_current, %function
 3978              	mcpwm_set_brake_current:
 3979              	.LFB268:
 3980              		.loc 1 665 0
 3981              		.cfi_startproc
 3982              		@ args = 0, pretend = 0, frame = 8
 3983              		@ frame_needed = 0, uses_anonymous_args = 0
 3984              	.LVL326:
 3985 0000 30B5     		push	{r4, r5, lr}
 3986              		.cfi_def_cfa_offset 12
 3987              		.cfi_offset 4, -12
 3988              		.cfi_offset 5, -8
 3989              		.cfi_offset 14, -4
 3990              		.loc 1 666 0
ARM GAS  C:\Users\Grillmo\AppData\Local\Temp\ccnDcoCc.s 			page 71


 3991 0002 2E4C     		ldr	r4, .L295
 3992 0004 2368     		ldr	r3, [r4]
 3993 0006 D3ED507A 		vldr.32	s15, [r3, #320]
 3994 000a B0EEC07A 		vabs.f32	s14, s0
 3995 000e B4EEE77A 		vcmpe.f32	s14, s15
 3996              		.loc 1 665 0
 3997 0012 83B0     		sub	sp, sp, #12
 3998              		.cfi_def_cfa_offset 24
 3999              		.loc 1 666 0
 4000 0014 F1EE10FA 		vmrs	APSR_nzcv, FPSCR
 4001              		.loc 1 665 0
 4002 0018 8DED010A 		vstr.32	s0, [sp, #4]
 4003              		.loc 1 666 0
 4004 001c 2DD4     		bmi	.L293
 4005              		.loc 1 672 0
 4006 001e 93ED020A 		vldr.32	s0, [r3, #8]
 4007              	.LVL327:
 4008 0022 D3ED020A 		vldr.32	s1, [r3, #8]
 4009              		.loc 1 674 0
 4010 0026 264D     		ldr	r5, .L295+4
 4011              		.loc 1 672 0
 4012 0028 B0EEC00A 		vabs.f32	s0, s0
 4013 002c B1EE400A 		vneg.f32	s0, s0
 4014 0030 F0EEE00A 		vabs.f32	s1, s1
 4015 0034 01A8     		add	r0, sp, #4
 4016              	.LVL328:
 4017 0036 FFF7FEFF 		bl	utils_truncate_number
 4018              	.LVL329:
 4019              		.loc 1 675 0
 4020 003a 2249     		ldr	r1, .L295+8
 4021 003c 0198     		ldr	r0, [sp, #4]	@ float
 4022              		.loc 1 677 0
 4023 003e 224B     		ldr	r3, .L295+12
 4024              		.loc 1 674 0
 4025 0040 0322     		movs	r2, #3
 4026 0042 2A70     		strb	r2, [r5]
 4027              		.loc 1 675 0
 4028 0044 0860     		str	r0, [r1]	@ float
 4029              		.loc 1 677 0
 4030 0046 1978     		ldrb	r1, [r3]	@ zero_extendqisi2
 4031 0048 0229     		cmp	r1, #2
 4032 004a 14D0     		beq	.L270
 4033              		.loc 1 677 0 is_stmt 0 discriminator 1
 4034 004c 1978     		ldrb	r1, [r3]	@ zero_extendqisi2
 4035 004e 9142     		cmp	r1, r2
 4036 0050 11D0     		beq	.L270
 4037              		.loc 1 680 0 is_stmt 1
 4038 0052 2168     		ldr	r1, [r4]
 4039 0054 8878     		ldrb	r0, [r1, #2]	@ zero_extendqisi2
 4040 0056 0128     		cmp	r0, #1
 4041 0058 1BD0     		beq	.L294
 4042              		.loc 1 687 0
 4043 005a 1C48     		ldr	r0, .L295+16
 4044 005c D0ED007A 		vldr.32	s15, [r0]
 4045 0060 91ED097A 		vldr.32	s14, [r1, #36]
 4046 0064 F0EEE77A 		vabs.f32	s15, s15
 4047 0068 F4EEC77A 		vcmpe.f32	s15, s14
ARM GAS  C:\Users\Grillmo\AppData\Local\Temp\ccnDcoCc.s 			page 72


 4048 006c F1EE10FA 		vmrs	APSR_nzcv, FPSCR
 4049 0070 1BDD     		ble	.L290
 4050              	.L292:
 4051              		.loc 1 688 0
 4052 0072 0222     		movs	r2, #2
 4053 0074 1A70     		strb	r2, [r3]
 4054              	.L270:
 4055              		.loc 1 694 0
 4056 0076 03B0     		add	sp, sp, #12
 4057              		.cfi_remember_state
 4058              		.cfi_def_cfa_offset 12
 4059              		@ sp needed
 4060 0078 30BD     		pop	{r4, r5, pc}
 4061              	.LVL330:
 4062              	.L293:
 4063              		.cfi_restore_state
 4064              		.loc 1 667 0
 4065 007a 1148     		ldr	r0, .L295+4
 4066              	.LBB117:
 4067              	.LBB118:
 4068              		.loc 1 885 0
 4069 007c 1249     		ldr	r1, .L295+12
 4070              		.loc 1 886 0
 4071 007e 144A     		ldr	r2, .L295+20
 4072              		.loc 1 885 0
 4073 0080 0023     		movs	r3, #0
 4074              	.LBE118:
 4075              	.LBE117:
 4076              		.loc 1 667 0
 4077 0082 0724     		movs	r4, #7
 4078 0084 0470     		strb	r4, [r0]
 4079              	.LBB120:
 4080              	.LBB119:
 4081              		.loc 1 885 0
 4082 0086 0B70     		strb	r3, [r1]
 4083              		.loc 1 886 0
 4084 0088 1360     		str	r3, [r2]
 4085              		.loc 1 887 0
 4086 008a FFF7FEFF 		bl	stop_pwm_hw
 4087              	.LVL331:
 4088              	.LBE119:
 4089              	.LBE120:
 4090              		.loc 1 694 0
 4091 008e 03B0     		add	sp, sp, #12
 4092              		.cfi_remember_state
 4093              		.cfi_def_cfa_offset 12
 4094              		@ sp needed
 4095 0090 30BD     		pop	{r4, r5, pc}
 4096              	.L294:
 4097              		.cfi_restore_state
 4098              		.loc 1 681 0
 4099 0092 1049     		ldr	r1, .L295+24
 4100 0094 9FED107A 		vldr.32	s14, .L295+28
 4101 0098 D1ED007A 		vldr.32	s15, [r1]
 4102 009c F0EEE77A 		vabs.f32	s15, s15
 4103 00a0 F4EEC77A 		vcmpe.f32	s15, s14
 4104 00a4 F1EE10FA 		vmrs	APSR_nzcv, FPSCR
ARM GAS  C:\Users\Grillmo\AppData\Local\Temp\ccnDcoCc.s 			page 73


 4105 00a8 E3DC     		bgt	.L292
 4106              	.L290:
 4107              	.LBB121:
 4108              	.LBB122:
 4109              		.loc 1 914 0
 4110 00aa 0949     		ldr	r1, .L295+20
 4111              		.loc 1 913 0
 4112 00ac 1A70     		strb	r2, [r3]
 4113              		.loc 1 914 0
 4114 00ae 0023     		movs	r3, #0
 4115 00b0 0B60     		str	r3, [r1]
 4116              		.loc 1 915 0
 4117 00b2 FFF7FEFF 		bl	full_brake_hw
 4118              	.LVL332:
 4119              	.LBE122:
 4120              	.LBE121:
 4121              		.loc 1 694 0
 4122 00b6 03B0     		add	sp, sp, #12
 4123              		.cfi_def_cfa_offset 12
 4124              		@ sp needed
 4125 00b8 30BD     		pop	{r4, r5, pc}
 4126              	.L296:
 4127 00ba 00BF     		.align	2
 4128              	.L295:
 4129 00bc 00000000 		.word	.LANCHOR0
 4130 00c0 00000000 		.word	.LANCHOR37
 4131 00c4 00000000 		.word	.LANCHOR36
 4132 00c8 00000000 		.word	.LANCHOR2
 4133 00cc 00000000 		.word	.LANCHOR10
 4134 00d0 00000000 		.word	.LANCHOR40
 4135 00d4 00000000 		.word	.LANCHOR24
 4136 00d8 CDCCCC3D 		.word	1036831949
 4137              		.cfi_endproc
 4138              	.LFE268:
 4139              		.size	mcpwm_set_brake_current, .-mcpwm_set_brake_current
 4140              		.section	.text.mcpwm_get_comm_step,"ax",%progbits
 4141              		.align	1
 4142              		.p2align 4,,15
 4143              		.global	mcpwm_get_comm_step
 4144              		.syntax unified
 4145              		.thumb
 4146              		.thumb_func
 4147              		.fpu fpv4-sp-d16
 4148              		.type	mcpwm_get_comm_step, %function
 4149              	mcpwm_get_comm_step:
 4150              	.LFB269:
 4151              		.loc 1 702 0
 4152              		.cfi_startproc
 4153              		@ args = 0, pretend = 0, frame = 0
 4154              		@ frame_needed = 0, uses_anonymous_args = 0
 4155              		@ link register save eliminated.
 4156              		.loc 1 703 0
 4157 0000 014B     		ldr	r3, .L298
 4158 0002 1868     		ldr	r0, [r3]
 4159              		.loc 1 704 0
 4160 0004 7047     		bx	lr
 4161              	.L299:
ARM GAS  C:\Users\Grillmo\AppData\Local\Temp\ccnDcoCc.s 			page 74


 4162 0006 00BF     		.align	2
 4163              	.L298:
 4164 0008 00000000 		.word	.LANCHOR3
 4165              		.cfi_endproc
 4166              	.LFE269:
 4167              		.size	mcpwm_get_comm_step, .-mcpwm_get_comm_step
 4168              		.section	.text.mcpwm_get_duty_cycle_set,"ax",%progbits
 4169              		.align	1
 4170              		.p2align 4,,15
 4171              		.global	mcpwm_get_duty_cycle_set
 4172              		.syntax unified
 4173              		.thumb
 4174              		.thumb_func
 4175              		.fpu fpv4-sp-d16
 4176              		.type	mcpwm_get_duty_cycle_set, %function
 4177              	mcpwm_get_duty_cycle_set:
 4178              	.LFB270:
 4179              		.loc 1 706 0
 4180              		.cfi_startproc
 4181              		@ args = 0, pretend = 0, frame = 0
 4182              		@ frame_needed = 0, uses_anonymous_args = 0
 4183              		@ link register save eliminated.
 4184              		.loc 1 707 0
 4185 0000 014B     		ldr	r3, .L301
 4186 0002 93ED000A 		vldr.32	s0, [r3]
 4187              		.loc 1 708 0
 4188 0006 7047     		bx	lr
 4189              	.L302:
 4190              		.align	2
 4191              	.L301:
 4192 0008 00000000 		.word	.LANCHOR33
 4193              		.cfi_endproc
 4194              	.LFE270:
 4195              		.size	mcpwm_get_duty_cycle_set, .-mcpwm_get_duty_cycle_set
 4196              		.section	.text.mcpwm_get_duty_cycle_now,"ax",%progbits
 4197              		.align	1
 4198              		.p2align 4,,15
 4199              		.global	mcpwm_get_duty_cycle_now
 4200              		.syntax unified
 4201              		.thumb
 4202              		.thumb_func
 4203              		.fpu fpv4-sp-d16
 4204              		.type	mcpwm_get_duty_cycle_now, %function
 4205              	mcpwm_get_duty_cycle_now:
 4206              	.LFB271:
 4207              		.loc 1 710 0
 4208              		.cfi_startproc
 4209              		@ args = 0, pretend = 0, frame = 0
 4210              		@ frame_needed = 0, uses_anonymous_args = 0
 4211              		@ link register save eliminated.
 4212              		.loc 1 711 0
 4213 0000 014B     		ldr	r3, .L304
 4214 0002 93ED000A 		vldr.32	s0, [r3]
 4215              		.loc 1 712 0
 4216 0006 7047     		bx	lr
 4217              	.L305:
 4218              		.align	2
ARM GAS  C:\Users\Grillmo\AppData\Local\Temp\ccnDcoCc.s 			page 75


 4219              	.L304:
 4220 0008 00000000 		.word	.LANCHOR24
 4221              		.cfi_endproc
 4222              	.LFE271:
 4223              		.size	mcpwm_get_duty_cycle_now, .-mcpwm_get_duty_cycle_now
 4224              		.section	.text.mcpwm_get_switching_frequency_now,"ax",%progbits
 4225              		.align	1
 4226              		.p2align 4,,15
 4227              		.global	mcpwm_get_switching_frequency_now
 4228              		.syntax unified
 4229              		.thumb
 4230              		.thumb_func
 4231              		.fpu fpv4-sp-d16
 4232              		.type	mcpwm_get_switching_frequency_now, %function
 4233              	mcpwm_get_switching_frequency_now:
 4234              	.LFB272:
 4235              		.loc 1 720 0
 4236              		.cfi_startproc
 4237              		@ args = 0, pretend = 0, frame = 0
 4238              		@ frame_needed = 0, uses_anonymous_args = 0
 4239              		@ link register save eliminated.
 4240              		.loc 1 721 0
 4241 0000 014B     		ldr	r3, .L307
 4242 0002 93ED000A 		vldr.32	s0, [r3]
 4243              		.loc 1 722 0
 4244 0006 7047     		bx	lr
 4245              	.L308:
 4246              		.align	2
 4247              	.L307:
 4248 0008 00000000 		.word	.LANCHOR13
 4249              		.cfi_endproc
 4250              	.LFE272:
 4251              		.size	mcpwm_get_switching_frequency_now, .-mcpwm_get_switching_frequency_now
 4252              		.section	.text.mcpwm_get_rpm,"ax",%progbits
 4253              		.align	1
 4254              		.p2align 4,,15
 4255              		.global	mcpwm_get_rpm
 4256              		.syntax unified
 4257              		.thumb
 4258              		.thumb_func
 4259              		.fpu fpv4-sp-d16
 4260              		.type	mcpwm_get_rpm, %function
 4261              	mcpwm_get_rpm:
 4262              	.LFB273:
 4263              		.loc 1 732 0
 4264              		.cfi_startproc
 4265              		@ args = 0, pretend = 0, frame = 0
 4266              		@ frame_needed = 0, uses_anonymous_args = 0
 4267              		@ link register save eliminated.
 4268              		.loc 1 733 0
 4269 0000 064B     		ldr	r3, .L313
 4270 0002 1B68     		ldr	r3, [r3]
 4271 0004 1BB1     		cbz	r3, .L312
 4272              		.loc 1 733 0 is_stmt 0 discriminator 2
 4273 0006 064B     		ldr	r3, .L313+4
 4274 0008 93ED000A 		vldr.32	s0, [r3]
 4275              		.loc 1 734 0 is_stmt 1 discriminator 2
ARM GAS  C:\Users\Grillmo\AppData\Local\Temp\ccnDcoCc.s 			page 76


 4276 000c 7047     		bx	lr
 4277              	.L312:
 4278              		.loc 1 733 0 discriminator 1
 4279 000e 044B     		ldr	r3, .L313+4
 4280 0010 93ED000A 		vldr.32	s0, [r3]
 4281 0014 B1EE400A 		vneg.f32	s0, s0
 4282 0018 7047     		bx	lr
 4283              	.L314:
 4284 001a 00BF     		.align	2
 4285              	.L313:
 4286 001c 00000000 		.word	.LANCHOR4
 4287 0020 00000000 		.word	.LANCHOR10
 4288              		.cfi_endproc
 4289              	.LFE273:
 4290              		.size	mcpwm_get_rpm, .-mcpwm_get_rpm
 4291              		.section	.text.mcpwm_get_state,"ax",%progbits
 4292              		.align	1
 4293              		.p2align 4,,15
 4294              		.global	mcpwm_get_state
 4295              		.syntax unified
 4296              		.thumb
 4297              		.thumb_func
 4298              		.fpu fpv4-sp-d16
 4299              		.type	mcpwm_get_state, %function
 4300              	mcpwm_get_state:
 4301              	.LFB274:
 4302              		.loc 1 736 0
 4303              		.cfi_startproc
 4304              		@ args = 0, pretend = 0, frame = 0
 4305              		@ frame_needed = 0, uses_anonymous_args = 0
 4306              		@ link register save eliminated.
 4307              		.loc 1 737 0
 4308 0000 014B     		ldr	r3, .L316
 4309 0002 1878     		ldrb	r0, [r3]	@ zero_extendqisi2
 4310              		.loc 1 738 0
 4311 0004 7047     		bx	lr
 4312              	.L317:
 4313 0006 00BF     		.align	2
 4314              	.L316:
 4315 0008 00000000 		.word	.LANCHOR2
 4316              		.cfi_endproc
 4317              	.LFE274:
 4318              		.size	mcpwm_get_state, .-mcpwm_get_state
 4319              		.section	.text.mcpwm_get_kv,"ax",%progbits
 4320              		.align	1
 4321              		.p2align 4,,15
 4322              		.global	mcpwm_get_kv
 4323              		.syntax unified
 4324              		.thumb
 4325              		.thumb_func
 4326              		.fpu fpv4-sp-d16
 4327              		.type	mcpwm_get_kv, %function
 4328              	mcpwm_get_kv:
 4329              	.LFB275:
 4330              		.loc 1 748 0
 4331              		.cfi_startproc
 4332              		@ args = 0, pretend = 0, frame = 0
ARM GAS  C:\Users\Grillmo\AppData\Local\Temp\ccnDcoCc.s 			page 77


 4333              		@ frame_needed = 0, uses_anonymous_args = 0
 4334              		@ link register save eliminated.
 4335              		.loc 1 749 0
 4336 0000 0D4A     		ldr	r2, .L319
 4337 0002 0E4B     		ldr	r3, .L319+4
 4338 0004 92ED000A 		vldr.32	s0, [r2]
 4339 0008 1B8A     		ldrh	r3, [r3, #16]
 4340 000a 9FED0D6A 		vldr.32	s12, .L319+8
 4341 000e 0D4A     		ldr	r2, .L319+12
 4342 0010 DFED0D6A 		vldr.32	s13, .L319+16
 4343 0014 92ED007A 		vldr.32	s14, [r2]
 4344 0018 9BB2     		uxth	r3, r3
 4345 001a 07EE903A 		vmov	s15, r3	@ int
 4346 001e F8EE677A 		vcvt.f32.u32	s15, s15
 4347 0022 B0EEC77A 		vabs.f32	s14, s14
 4348 0026 67EE867A 		vmul.f32	s15, s15, s12
 4349 002a 67EEA67A 		vmul.f32	s15, s15, s13
 4350 002e 67EE877A 		vmul.f32	s15, s15, s14
 4351              		.loc 1 750 0
 4352 0032 80EE270A 		vdiv.f32	s0, s0, s15
 4353 0036 7047     		bx	lr
 4354              	.L320:
 4355              		.align	2
 4356              	.L319:
 4357 0038 00000000 		.word	.LANCHOR10
 4358 003c 00000000 		.word	ADC_Value
 4359 0040 6740533A 		.word	978534503
 4360 0044 00000000 		.word	.LANCHOR24
 4361 0048 74D19541 		.word	1100337524
 4362              		.cfi_endproc
 4363              	.LFE275:
 4364              		.size	mcpwm_get_kv, .-mcpwm_get_kv
 4365              		.section	.text.mcpwm_get_kv_filtered,"ax",%progbits
 4366              		.align	1
 4367              		.p2align 4,,15
 4368              		.global	mcpwm_get_kv_filtered
 4369              		.syntax unified
 4370              		.thumb
 4371              		.thumb_func
 4372              		.fpu fpv4-sp-d16
 4373              		.type	mcpwm_get_kv_filtered, %function
 4374              	mcpwm_get_kv_filtered:
 4375              	.LFB276:
 4376              		.loc 1 760 0
 4377              		.cfi_startproc
 4378              		@ args = 0, pretend = 0, frame = 0
 4379              		@ frame_needed = 0, uses_anonymous_args = 0
 4380              		@ link register save eliminated.
 4381              		.loc 1 761 0
 4382 0000 034B     		ldr	r3, .L322
 4383 0002 0449     		ldr	r1, .L322+4
 4384 0004 1B68     		ldr	r3, [r3]
 4385 0006 0448     		ldr	r0, .L322+8
 4386 0008 0722     		movs	r2, #7
 4387 000a FFF7FEBF 		b	filter_run_fir_iteration
 4388              	.LVL333:
 4389              	.L323:
ARM GAS  C:\Users\Grillmo\AppData\Local\Temp\ccnDcoCc.s 			page 78


 4390 000e 00BF     		.align	2
 4391              	.L322:
 4392 0010 00000000 		.word	.LANCHOR26
 4393 0014 00000000 		.word	.LANCHOR46
 4394 0018 00000000 		.word	.LANCHOR27
 4395              		.cfi_endproc
 4396              	.LFE276:
 4397              		.size	mcpwm_get_kv_filtered, .-mcpwm_get_kv_filtered
 4398              		.section	.text.mcpwm_get_tot_current,"ax",%progbits
 4399              		.align	1
 4400              		.p2align 4,,15
 4401              		.global	mcpwm_get_tot_current
 4402              		.syntax unified
 4403              		.thumb
 4404              		.thumb_func
 4405              		.fpu fpv4-sp-d16
 4406              		.type	mcpwm_get_tot_current, %function
 4407              	mcpwm_get_tot_current:
 4408              	.LFB277:
 4409              		.loc 1 775 0
 4410              		.cfi_startproc
 4411              		@ args = 0, pretend = 0, frame = 0
 4412              		@ frame_needed = 0, uses_anonymous_args = 0
 4413              		@ link register save eliminated.
 4414              		.loc 1 776 0
 4415 0000 014B     		ldr	r3, .L325
 4416 0002 93ED000A 		vldr.32	s0, [r3]
 4417              		.loc 1 777 0
 4418 0006 7047     		bx	lr
 4419              	.L326:
 4420              		.align	2
 4421              	.L325:
 4422 0008 00000000 		.word	.LANCHOR38
 4423              		.cfi_endproc
 4424              	.LFE277:
 4425              		.size	mcpwm_get_tot_current, .-mcpwm_get_tot_current
 4426              		.section	.text.mcpwm_get_tot_current_filtered,"ax",%progbits
 4427              		.align	1
 4428              		.p2align 4,,15
 4429              		.global	mcpwm_get_tot_current_filtered
 4430              		.syntax unified
 4431              		.thumb
 4432              		.thumb_func
 4433              		.fpu fpv4-sp-d16
 4434              		.type	mcpwm_get_tot_current_filtered, %function
 4435              	mcpwm_get_tot_current_filtered:
 4436              	.LFB278:
 4437              		.loc 1 787 0
 4438              		.cfi_startproc
 4439              		@ args = 0, pretend = 0, frame = 0
 4440              		@ frame_needed = 0, uses_anonymous_args = 0
 4441              		@ link register save eliminated.
 4442              		.loc 1 788 0
 4443 0000 014B     		ldr	r3, .L328
 4444 0002 93ED000A 		vldr.32	s0, [r3]
 4445              		.loc 1 789 0
 4446 0006 7047     		bx	lr
ARM GAS  C:\Users\Grillmo\AppData\Local\Temp\ccnDcoCc.s 			page 79


 4447              	.L329:
 4448              		.align	2
 4449              	.L328:
 4450 0008 00000000 		.word	.LANCHOR39
 4451              		.cfi_endproc
 4452              	.LFE278:
 4453              		.size	mcpwm_get_tot_current_filtered, .-mcpwm_get_tot_current_filtered
 4454              		.section	.text.mcpwm_get_tot_current_directional,"ax",%progbits
 4455              		.align	1
 4456              		.p2align 4,,15
 4457              		.global	mcpwm_get_tot_current_directional
 4458              		.syntax unified
 4459              		.thumb
 4460              		.thumb_func
 4461              		.fpu fpv4-sp-d16
 4462              		.type	mcpwm_get_tot_current_directional, %function
 4463              	mcpwm_get_tot_current_directional:
 4464              	.LFB279:
 4465              		.loc 1 798 0
 4466              		.cfi_startproc
 4467              		@ args = 0, pretend = 0, frame = 0
 4468              		@ frame_needed = 0, uses_anonymous_args = 0
 4469              		@ link register save eliminated.
 4470              	.LBB123:
 4471              	.LBB124:
 4472              		.loc 1 776 0
 4473 0000 064A     		ldr	r2, .L333
 4474              	.LBE124:
 4475              	.LBE123:
 4476              		.loc 1 800 0
 4477 0002 074B     		ldr	r3, .L333+4
 4478              	.LBB126:
 4479              	.LBB125:
 4480              		.loc 1 776 0
 4481 0004 92ED000A 		vldr.32	s0, [r2]
 4482              	.LBE125:
 4483              	.LBE126:
 4484              		.loc 1 800 0
 4485 0008 D3ED007A 		vldr.32	s15, [r3]
 4486 000c F5EEC07A 		vcmpe.f32	s15, #0
 4487 0010 F1EE10FA 		vmrs	APSR_nzcv, FPSCR
 4488 0014 D8BF     		it	le
 4489 0016 B1EE400A 		vnegle.f32	s0, s0
 4490              		.loc 1 801 0
 4491 001a 7047     		bx	lr
 4492              	.L334:
 4493              		.align	2
 4494              	.L333:
 4495 001c 00000000 		.word	.LANCHOR38
 4496 0020 00000000 		.word	.LANCHOR24
 4497              		.cfi_endproc
 4498              	.LFE279:
 4499              		.size	mcpwm_get_tot_current_directional, .-mcpwm_get_tot_current_directional
 4500              		.section	.text.mcpwm_get_tot_current_directional_filtered,"ax",%progbits
 4501              		.align	1
 4502              		.p2align 4,,15
 4503              		.global	mcpwm_get_tot_current_directional_filtered
ARM GAS  C:\Users\Grillmo\AppData\Local\Temp\ccnDcoCc.s 			page 80


 4504              		.syntax unified
 4505              		.thumb
 4506              		.thumb_func
 4507              		.fpu fpv4-sp-d16
 4508              		.type	mcpwm_get_tot_current_directional_filtered, %function
 4509              	mcpwm_get_tot_current_directional_filtered:
 4510              	.LFB280:
 4511              		.loc 1 810 0
 4512              		.cfi_startproc
 4513              		@ args = 0, pretend = 0, frame = 0
 4514              		@ frame_needed = 0, uses_anonymous_args = 0
 4515              		@ link register save eliminated.
 4516              	.LBB127:
 4517              	.LBB128:
 4518              		.loc 1 788 0
 4519 0000 064A     		ldr	r2, .L338
 4520              	.LBE128:
 4521              	.LBE127:
 4522              		.loc 1 812 0
 4523 0002 074B     		ldr	r3, .L338+4
 4524              	.LBB130:
 4525              	.LBB129:
 4526              		.loc 1 788 0
 4527 0004 92ED000A 		vldr.32	s0, [r2]
 4528              	.LBE129:
 4529              	.LBE130:
 4530              		.loc 1 812 0
 4531 0008 D3ED007A 		vldr.32	s15, [r3]
 4532 000c F5EEC07A 		vcmpe.f32	s15, #0
 4533 0010 F1EE10FA 		vmrs	APSR_nzcv, FPSCR
 4534 0014 D8BF     		it	le
 4535 0016 B1EE400A 		vnegle.f32	s0, s0
 4536              		.loc 1 813 0
 4537 001a 7047     		bx	lr
 4538              	.L339:
 4539              		.align	2
 4540              	.L338:
 4541 001c 00000000 		.word	.LANCHOR39
 4542 0020 00000000 		.word	.LANCHOR24
 4543              		.cfi_endproc
 4544              	.LFE280:
 4545              		.size	mcpwm_get_tot_current_directional_filtered, .-mcpwm_get_tot_current_directional_filtered
 4546              		.section	.text.mcpwm_get_tot_current_in,"ax",%progbits
 4547              		.align	1
 4548              		.p2align 4,,15
 4549              		.global	mcpwm_get_tot_current_in
 4550              		.syntax unified
 4551              		.thumb
 4552              		.thumb_func
 4553              		.fpu fpv4-sp-d16
 4554              		.type	mcpwm_get_tot_current_in, %function
 4555              	mcpwm_get_tot_current_in:
 4556              	.LFB281:
 4557              		.loc 1 821 0
 4558              		.cfi_startproc
 4559              		@ args = 0, pretend = 0, frame = 0
 4560              		@ frame_needed = 0, uses_anonymous_args = 0
ARM GAS  C:\Users\Grillmo\AppData\Local\Temp\ccnDcoCc.s 			page 81


 4561              		@ link register save eliminated.
 4562              	.LBB131:
 4563              	.LBB132:
 4564              		.loc 1 776 0
 4565 0000 054A     		ldr	r2, .L341
 4566              	.LBE132:
 4567              	.LBE131:
 4568              		.loc 1 822 0
 4569 0002 064B     		ldr	r3, .L341+4
 4570              	.LBB134:
 4571              	.LBB133:
 4572              		.loc 1 776 0
 4573 0004 92ED000A 		vldr.32	s0, [r2]
 4574              	.LBE133:
 4575              	.LBE134:
 4576              		.loc 1 822 0
 4577 0008 D3ED007A 		vldr.32	s15, [r3]
 4578 000c F0EEE77A 		vabs.f32	s15, s15
 4579              		.loc 1 823 0
 4580 0010 27EE800A 		vmul.f32	s0, s15, s0
 4581 0014 7047     		bx	lr
 4582              	.L342:
 4583 0016 00BF     		.align	2
 4584              	.L341:
 4585 0018 00000000 		.word	.LANCHOR38
 4586 001c 00000000 		.word	.LANCHOR24
 4587              		.cfi_endproc
 4588              	.LFE281:
 4589              		.size	mcpwm_get_tot_current_in, .-mcpwm_get_tot_current_in
 4590              		.section	.text.mcpwm_get_tot_current_in_filtered,"ax",%progbits
 4591              		.align	1
 4592              		.p2align 4,,15
 4593              		.global	mcpwm_get_tot_current_in_filtered
 4594              		.syntax unified
 4595              		.thumb
 4596              		.thumb_func
 4597              		.fpu fpv4-sp-d16
 4598              		.type	mcpwm_get_tot_current_in_filtered, %function
 4599              	mcpwm_get_tot_current_in_filtered:
 4600              	.LFB282:
 4601              		.loc 1 831 0
 4602              		.cfi_startproc
 4603              		@ args = 0, pretend = 0, frame = 0
 4604              		@ frame_needed = 0, uses_anonymous_args = 0
 4605              		@ link register save eliminated.
 4606              	.LBB135:
 4607              	.LBB136:
 4608              		.loc 1 788 0
 4609 0000 054A     		ldr	r2, .L344
 4610              	.LBE136:
 4611              	.LBE135:
 4612              		.loc 1 832 0
 4613 0002 064B     		ldr	r3, .L344+4
 4614              	.LBB138:
 4615              	.LBB137:
 4616              		.loc 1 788 0
 4617 0004 92ED000A 		vldr.32	s0, [r2]
ARM GAS  C:\Users\Grillmo\AppData\Local\Temp\ccnDcoCc.s 			page 82


 4618              	.LBE137:
 4619              	.LBE138:
 4620              		.loc 1 832 0
 4621 0008 D3ED007A 		vldr.32	s15, [r3]
 4622 000c F0EEE77A 		vabs.f32	s15, s15
 4623              		.loc 1 833 0
 4624 0010 27EE800A 		vmul.f32	s0, s15, s0
 4625 0014 7047     		bx	lr
 4626              	.L345:
 4627 0016 00BF     		.align	2
 4628              	.L344:
 4629 0018 00000000 		.word	.LANCHOR39
 4630 001c 00000000 		.word	.LANCHOR24
 4631              		.cfi_endproc
 4632              	.LFE282:
 4633              		.size	mcpwm_get_tot_current_in_filtered, .-mcpwm_get_tot_current_in_filtered
 4634              		.section	.text.mcpwm_get_tachometer_value,"ax",%progbits
 4635              		.align	1
 4636              		.p2align 4,,15
 4637              		.global	mcpwm_get_tachometer_value
 4638              		.syntax unified
 4639              		.thumb
 4640              		.thumb_func
 4641              		.fpu fpv4-sp-d16
 4642              		.type	mcpwm_get_tachometer_value, %function
 4643              	mcpwm_get_tachometer_value:
 4644              	.LFB283:
 4645              		.loc 1 846 0
 4646              		.cfi_startproc
 4647              		@ args = 0, pretend = 0, frame = 0
 4648              		@ frame_needed = 0, uses_anonymous_args = 0
 4649              		@ link register save eliminated.
 4650              	.LVL334:
 4651              		.loc 1 847 0
 4652 0000 034B     		ldr	r3, .L351
 4653 0002 1A68     		ldr	r2, [r3]
 4654              	.LVL335:
 4655              		.loc 1 849 0
 4656 0004 08B1     		cbz	r0, .L346
 4657              		.loc 1 850 0
 4658 0006 0021     		movs	r1, #0
 4659 0008 1960     		str	r1, [r3]
 4660              	.L346:
 4661              		.loc 1 854 0
 4662 000a 1046     		mov	r0, r2
 4663              	.LVL336:
 4664 000c 7047     		bx	lr
 4665              	.L352:
 4666 000e 00BF     		.align	2
 4667              	.L351:
 4668 0010 00000000 		.word	.LANCHOR9
 4669              		.cfi_endproc
 4670              	.LFE283:
 4671              		.size	mcpwm_get_tachometer_value, .-mcpwm_get_tachometer_value
 4672              		.section	.text.mcpwm_get_tachometer_abs_value,"ax",%progbits
 4673              		.align	1
 4674              		.p2align 4,,15
ARM GAS  C:\Users\Grillmo\AppData\Local\Temp\ccnDcoCc.s 			page 83


 4675              		.global	mcpwm_get_tachometer_abs_value
 4676              		.syntax unified
 4677              		.thumb
 4678              		.thumb_func
 4679              		.fpu fpv4-sp-d16
 4680              		.type	mcpwm_get_tachometer_abs_value, %function
 4681              	mcpwm_get_tachometer_abs_value:
 4682              	.LFB284:
 4683              		.loc 1 866 0
 4684              		.cfi_startproc
 4685              		@ args = 0, pretend = 0, frame = 0
 4686              		@ frame_needed = 0, uses_anonymous_args = 0
 4687              		@ link register save eliminated.
 4688              	.LVL337:
 4689              		.loc 1 867 0
 4690 0000 034B     		ldr	r3, .L358
 4691 0002 1A68     		ldr	r2, [r3]
 4692              	.LVL338:
 4693              		.loc 1 869 0
 4694 0004 08B1     		cbz	r0, .L353
 4695              		.loc 1 870 0
 4696 0006 0021     		movs	r1, #0
 4697 0008 1960     		str	r1, [r3]
 4698              	.L353:
 4699              		.loc 1 874 0
 4700 000a 1046     		mov	r0, r2
 4701              	.LVL339:
 4702 000c 7047     		bx	lr
 4703              	.L359:
 4704 000e 00BF     		.align	2
 4705              	.L358:
 4706 0010 00000000 		.word	.LANCHOR8
 4707              		.cfi_endproc
 4708              	.LFE284:
 4709              		.size	mcpwm_get_tachometer_abs_value, .-mcpwm_get_tachometer_abs_value
 4710              		.section	.text.mcpwm_stop_pwm,"ax",%progbits
 4711              		.align	1
 4712              		.p2align 4,,15
 4713              		.global	mcpwm_stop_pwm
 4714              		.syntax unified
 4715              		.thumb
 4716              		.thumb_func
 4717              		.fpu fpv4-sp-d16
 4718              		.type	mcpwm_stop_pwm, %function
 4719              	mcpwm_stop_pwm:
 4720              	.LFB285:
 4721              		.loc 1 879 0
 4722              		.cfi_startproc
 4723              		@ args = 0, pretend = 0, frame = 0
 4724              		@ frame_needed = 0, uses_anonymous_args = 0
 4725              		@ link register save eliminated.
 4726              		.loc 1 880 0
 4727 0000 0648     		ldr	r0, .L362
 4728              	.LBB139:
 4729              	.LBB140:
 4730              		.loc 1 885 0
 4731 0002 0749     		ldr	r1, .L362+4
ARM GAS  C:\Users\Grillmo\AppData\Local\Temp\ccnDcoCc.s 			page 84


 4732              		.loc 1 886 0
 4733 0004 074A     		ldr	r2, .L362+8
 4734              	.LBE140:
 4735              	.LBE139:
 4736              		.loc 1 879 0
 4737 0006 10B4     		push	{r4}
 4738              		.cfi_def_cfa_offset 4
 4739              		.cfi_offset 4, -4
 4740              		.loc 1 880 0
 4741 0008 0724     		movs	r4, #7
 4742 000a 0470     		strb	r4, [r0]
 4743              	.LBB143:
 4744              	.LBB141:
 4745              		.loc 1 885 0
 4746 000c 0023     		movs	r3, #0
 4747              	.LBE141:
 4748              	.LBE143:
 4749              		.loc 1 882 0
 4750 000e 5DF8044B 		ldr	r4, [sp], #4
 4751              		.cfi_restore 4
 4752              		.cfi_def_cfa_offset 0
 4753              	.LBB144:
 4754              	.LBB142:
 4755              		.loc 1 885 0
 4756 0012 0B70     		strb	r3, [r1]
 4757              		.loc 1 886 0
 4758 0014 1360     		str	r3, [r2]
 4759              		.loc 1 887 0
 4760 0016 FFF7FEBF 		b	stop_pwm_hw
 4761              	.LVL340:
 4762              	.L363:
 4763 001a 00BF     		.align	2
 4764              	.L362:
 4765 001c 00000000 		.word	.LANCHOR37
 4766 0020 00000000 		.word	.LANCHOR2
 4767 0024 00000000 		.word	.LANCHOR40
 4768              	.LBE142:
 4769              	.LBE144:
 4770              		.cfi_endproc
 4771              	.LFE285:
 4772              		.size	mcpwm_stop_pwm, .-mcpwm_stop_pwm
 4773              		.section	.text.mcpwm_adc_inj_int_handler,"ax",%progbits
 4774              		.align	1
 4775              		.p2align 4,,15
 4776              		.global	mcpwm_adc_inj_int_handler
 4777              		.syntax unified
 4778              		.thumb
 4779              		.thumb_func
 4780              		.fpu fpv4-sp-d16
 4781              		.type	mcpwm_adc_inj_int_handler, %function
 4782              	mcpwm_adc_inj_int_handler:
 4783              	.LFB297:
 4784              		.loc 1 1427 0
 4785              		.cfi_startproc
 4786              		@ args = 0, pretend = 0, frame = 0
 4787              		@ frame_needed = 0, uses_anonymous_args = 0
 4788 0000 F8B5     		push	{r3, r4, r5, r6, r7, lr}
ARM GAS  C:\Users\Grillmo\AppData\Local\Temp\ccnDcoCc.s 			page 85


 4789              		.cfi_def_cfa_offset 24
 4790              		.cfi_offset 3, -24
 4791              		.cfi_offset 4, -20
 4792              		.cfi_offset 5, -16
 4793              		.cfi_offset 6, -12
 4794              		.cfi_offset 7, -8
 4795              		.cfi_offset 14, -4
 4796              		.loc 1 1428 0
 4797 0002 A74B     		ldr	r3, .L439
 4798              		.loc 1 1430 0
 4799 0004 A748     		ldr	r0, .L439+4
 4800              		.loc 1 1428 0
 4801 0006 0022     		movs	r2, #0
 4802              		.loc 1 1427 0
 4803 0008 2DED028B 		vpush.64	{d8}
 4804              		.cfi_def_cfa_offset 32
 4805              		.cfi_offset 80, -32
 4806              		.cfi_offset 81, -28
 4807              		.loc 1 1430 0
 4808 000c 1421     		movs	r1, #20
 4809              		.loc 1 1428 0
 4810 000e 5A62     		str	r2, [r3, #36]
 4811              		.loc 1 1430 0
 4812 0010 FFF7FEFF 		bl	ADC_GetInjectedConversionValue
 4813              	.LVL341:
 4814              		.loc 1 1431 0
 4815 0014 1421     		movs	r1, #20
 4816              		.loc 1 1430 0
 4817 0016 0646     		mov	r6, r0
 4818              	.LVL342:
 4819              		.loc 1 1431 0
 4820 0018 A348     		ldr	r0, .L439+8
 4821              	.LVL343:
 4822 001a FFF7FEFF 		bl	ADC_GetInjectedConversionValue
 4823              	.LVL344:
 4824              		.loc 1 1433 0
 4825 001e 1821     		movs	r1, #24
 4826              		.loc 1 1431 0
 4827 0020 0546     		mov	r5, r0
 4828              	.LVL345:
 4829              		.loc 1 1433 0
 4830 0022 A148     		ldr	r0, .L439+8
 4831 0024 FFF7FEFF 		bl	ADC_GetInjectedConversionValue
 4832              	.LVL346:
 4833              		.loc 1 1434 0
 4834 0028 1821     		movs	r1, #24
 4835 002a 9E48     		ldr	r0, .L439+4
 4836 002c FFF7FEFF 		bl	ADC_GetInjectedConversionValue
 4837              	.LVL347:
 4838              		.loc 1 1446 0
 4839 0030 9E4B     		ldr	r3, .L439+12
 4840 0032 1A68     		ldr	r2, [r3]
 4841 0034 D207     		lsls	r2, r2, #31
 4842 0036 02D5     		bpl	.L365
 4843              		.loc 1 1447 0
 4844 0038 9D4A     		ldr	r2, .L439+16
 4845 003a 1689     		ldrh	r6, [r2, #8]
ARM GAS  C:\Users\Grillmo\AppData\Local\Temp\ccnDcoCc.s 			page 86


 4846              	.LVL348:
 4847 003c B6B2     		uxth	r6, r6
 4848              	.LVL349:
 4849              	.L365:
 4850              		.loc 1 1450 0
 4851 003e 1B68     		ldr	r3, [r3]
 4852 0040 9B07     		lsls	r3, r3, #30
 4853 0042 02D5     		bpl	.L366
 4854              		.loc 1 1451 0
 4855 0044 9A4B     		ldr	r3, .L439+16
 4856 0046 DD88     		ldrh	r5, [r3, #6]
 4857              	.LVL350:
 4858 0048 ADB2     		uxth	r5, r5
 4859              	.LVL351:
 4860              	.L366:
 4861              		.loc 1 1473 0
 4862 004a 9A4C     		ldr	r4, .L439+20
 4863              		.loc 1 1474 0
 4864 004c 9A4F     		ldr	r7, .L439+24
 4865              		.loc 1 1473 0
 4866 004e 2368     		ldr	r3, [r4]
 4867              		.loc 1 1479 0
 4868 0050 9A4A     		ldr	r2, .L439+28
 4869              		.loc 1 1481 0
 4870 0052 9B49     		ldr	r1, .L439+32
 4871              		.loc 1 1482 0
 4872 0054 9B48     		ldr	r0, .L439+36
 4873              		.loc 1 1473 0
 4874 0056 3344     		add	r3, r3, r6
 4875 0058 2360     		str	r3, [r4]
 4876              		.loc 1 1474 0
 4877 005a 3B68     		ldr	r3, [r7]
 4878              		.loc 1 1511 0
 4879 005c 9A4C     		ldr	r4, .L439+40
 4880              		.loc 1 1474 0
 4881 005e 2B44     		add	r3, r3, r5
 4882 0060 3B60     		str	r3, [r7]
 4883              		.loc 1 1479 0
 4884 0062 1368     		ldr	r3, [r2]
 4885              		.loc 1 1521 0
 4886 0064 994F     		ldr	r7, .L439+44
 4887              		.loc 1 1479 0
 4888 0066 0133     		adds	r3, r3, #1
 4889 0068 1360     		str	r3, [r2]
 4890              		.loc 1 1481 0
 4891 006a 0B68     		ldr	r3, [r1]
 4892              	.LVL352:
 4893              		.loc 1 1482 0
 4894 006c 0368     		ldr	r3, [r0]
 4895              		.loc 1 1483 0
 4896 006e 0A68     		ldr	r2, [r1]
 4897              		.loc 1 1484 0
 4898 0070 0368     		ldr	r3, [r0]
 4899              		.loc 1 1485 0
 4900 0072 D1F800E0 		ldr	lr, [r1]
 4901              		.loc 1 1486 0
 4902 0076 D0F800E0 		ldr	lr, [r0]
ARM GAS  C:\Users\Grillmo\AppData\Local\Temp\ccnDcoCc.s 			page 87


 4903              		.loc 1 1484 0
 4904 007a ED1A     		subs	r5, r5, r3
 4905              	.LVL353:
 4906              		.loc 1 1483 0
 4907 007c B61A     		subs	r6, r6, r2
 4908              	.LVL354:
 4909              		.loc 1 1511 0
 4910 007e 2660     		str	r6, [r4]
 4911              		.loc 1 1512 0
 4912 0080 6560     		str	r5, [r4, #4]
 4913              		.loc 1 1517 0
 4914 0082 2368     		ldr	r3, [r4]
 4915 0084 6568     		ldr	r5, [r4, #4]
 4916              	.LVL355:
 4917              		.loc 1 1521 0
 4918 0086 3A68     		ldr	r2, [r7]
 4919              		.loc 1 1517 0
 4920 0088 2B44     		add	r3, r3, r5
 4921 008a 5B42     		negs	r3, r3
 4922 008c A360     		str	r3, [r4, #8]
 4923              	.LVL356:
 4924              		.loc 1 1521 0
 4925 008e 9378     		ldrb	r3, [r2, #2]	@ zero_extendqisi2
 4926 0090 012B     		cmp	r3, #1
 4927 0092 23D0     		beq	.L434
 4928              	.LBB145:
 4929              		.loc 1 1554 0
 4930 0094 8E4D     		ldr	r5, .L439+48
 4931 0096 2B78     		ldrb	r3, [r5]	@ zero_extendqisi2
 4932 0098 032B     		cmp	r3, #3
 4933 009a 00F08F81 		beq	.L435
 4934              	.LBB146:
 4935              		.loc 1 1583 0
 4936 009e 8D4B     		ldr	r3, .L439+52
 4937 00a0 1B68     		ldr	r3, [r3]
 4938 00a2 6BB1     		cbz	r3, .L372
 4939              		.loc 1 1584 0
 4940 00a4 8C4B     		ldr	r3, .L439+56
 4941 00a6 1A68     		ldr	r2, [r3]
 4942 00a8 013A     		subs	r2, r2, #1
 4943 00aa 052A     		cmp	r2, #5
 4944 00ac 00F2BB81 		bhi	.L407
 4945 00b0 DFE812F0 		tbh	[pc, r2, lsl #1]
 4946              	.L375:
 4947 00b4 7200     		.2byte	(.L385-.L375)/2
 4948 00b6 7200     		.2byte	(.L385-.L375)/2
 4949 00b8 EC00     		.2byte	(.L383-.L375)/2
 4950 00ba F100     		.2byte	(.L381-.L375)/2
 4951 00bc E500     		.2byte	(.L387-.L375)/2
 4952 00be E500     		.2byte	(.L387-.L375)/2
 4953              		.p2align 1
 4954              	.L372:
 4955              		.loc 1 1594 0
 4956 00c0 854B     		ldr	r3, .L439+56
 4957 00c2 1A68     		ldr	r2, [r3]
 4958 00c4 013A     		subs	r2, r2, #1
 4959 00c6 052A     		cmp	r2, #5
ARM GAS  C:\Users\Grillmo\AppData\Local\Temp\ccnDcoCc.s 			page 88


 4960 00c8 00F2AD81 		bhi	.L407
 4961 00cc DFE812F0 		tbh	[pc, r2, lsl #1]
 4962              	.L382:
 4963 00d0 E300     		.2byte	(.L381-.L382)/2
 4964 00d2 DE00     		.2byte	(.L383-.L382)/2
 4965 00d4 6400     		.2byte	(.L385-.L382)/2
 4966 00d6 6400     		.2byte	(.L385-.L382)/2
 4967 00d8 D700     		.2byte	(.L387-.L382)/2
 4968 00da D700     		.2byte	(.L387-.L382)/2
 4969              		.p2align 1
 4970              	.L434:
 4971              	.LBE146:
 4972              	.LBE145:
 4973              		.loc 1 1522 0
 4974 00dc 7D4B     		ldr	r3, .L439+52
 4975 00de 1B68     		ldr	r3, [r3]
 4976 00e0 002B     		cmp	r3, #0
 4977 00e2 55D1     		bne	.L436
 4978              		.loc 1 1529 0
 4979 00e4 724B     		ldr	r3, .L439+16
 4980 00e6 1B89     		ldrh	r3, [r3, #8]
 4981 00e8 0968     		ldr	r1, [r1]
 4982              	.L432:
 4983 00ea 9BB2     		uxth	r3, r3
 4984 00ec 5B1A     		subs	r3, r3, r1
 4985 00ee 07EE903A 		vmov	s15, r3	@ int
 4986 00f2 F8EEE77A 		vcvt.f32.s32	s15, s15
 4987 00f6 B1EE678A 		vneg.f32	s16, s15
 4988              	.LVL357:
 4989              	.L369:
 4990              		.loc 1 1684 0
 4991 00fa DFED787A 		vldr.32	s15, .L439+60
 4992 00fe 784B     		ldr	r3, .L439+64
 4993              		.loc 1 1687 0
 4994 0100 9FED786A 		vldr.32	s12, .L439+68
 4995              		.loc 1 1684 0
 4996 0104 68EE277A 		vmul.f32	s15, s16, s15
 4997 0108 C3ED007A 		vstr.32	s15, [r3]
 4998              		.loc 1 1687 0
 4999 010c D3ED006A 		vldr.32	s13, [r3]
 5000 0110 92ED057A 		vldr.32	s14, [r2, #20]
 5001 0114 27EE067A 		vmul.f32	s14, s14, s12
 5002 0118 F0EEE66A 		vabs.f32	s13, s13
 5003 011c F4EEC76A 		vcmpe.f32	s13, s14
 5004 0120 F1EE10FA 		vmrs	APSR_nzcv, FPSCR
 5005 0124 14DD     		ble	.L402
 5006              		.loc 1 1688 0
 5007 0126 D3ED007A 		vldr.32	s15, [r3]
 5008 012a 92ED057A 		vldr.32	s14, [r2, #20]
 5009 012e F5EEC07A 		vcmpe.f32	s15, #0
 5010 0132 F1EE10FA 		vmrs	APSR_nzcv, FPSCR
 5011 0136 FFEE007A 		vmov.f32	s15, #-1.0e+0
 5012 013a F7EE006A 		vmov.f32	s13, #1.0e+0
 5013 013e 58BF     		it	pl
 5014 0140 F0EE667A 		vmovpl.f32	s15, s13
 5015 0144 67EE877A 		vmul.f32	s15, s15, s14
 5016 0148 67EE867A 		vmul.f32	s15, s15, s12
ARM GAS  C:\Users\Grillmo\AppData\Local\Temp\ccnDcoCc.s 			page 89


 5017 014c C3ED007A 		vstr.32	s15, [r3]
 5018              	.L402:
 5019              		.loc 1 1691 0
 5020 0150 654C     		ldr	r4, .L439+72
 5021 0152 93ED000A 		vldr.32	s0, [r3]
 5022 0156 6548     		ldr	r0, .L439+76
 5023 0158 2246     		mov	r2, r4
 5024 015a 0421     		movs	r1, #4
 5025 015c FFF7FEFF 		bl	filter_add_sample
 5026              	.LVL358:
 5027              		.loc 1 1693 0
 5028 0160 2368     		ldr	r3, [r4]
 5029 0162 6349     		ldr	r1, .L439+80
 5030 0164 6148     		ldr	r0, .L439+76
 5031 0166 0422     		movs	r2, #4
 5032 0168 FFF7FEFF 		bl	filter_run_fir_iteration
 5033              	.LVL359:
 5034 016c 614A     		ldr	r2, .L439+84
 5035              		.loc 1 1697 0
 5036 016e 4C4B     		ldr	r3, .L439
 5037              		.loc 1 1693 0
 5038 0170 82ED000A 		vstr.32	s0, [r2]
 5039              		.loc 1 1697 0
 5040 0174 D3ED097A 		vldr.32	s15, [r3, #36]	@ int
 5041 0178 DFED5F6A 		vldr.32	s13, .L439+88
 5042 017c 5F4B     		ldr	r3, .L439+92
 5043 017e F8EE677A 		vcvt.f32.u32	s15, s15
 5044              		.loc 1 1698 0
 5045 0182 BDEC028B 		vldm	sp!, {d8}
 5046              		.cfi_remember_state
 5047              		.cfi_restore 80
 5048              		.cfi_restore 81
 5049              		.cfi_def_cfa_offset 24
 5050              	.LVL360:
 5051              		.loc 1 1697 0
 5052 0186 87EEA67A 		vdiv.f32	s14, s15, s13
 5053 018a 83ED007A 		vstr.32	s14, [r3]
 5054              		.loc 1 1698 0
 5055 018e F8BD     		pop	{r3, r4, r5, r6, r7, pc}
 5056              	.LVL361:
 5057              	.L436:
 5058              		.cfi_restore_state
 5059              		.loc 1 1526 0
 5060 0190 474B     		ldr	r3, .L439+16
 5061 0192 DB88     		ldrh	r3, [r3, #6]
 5062 0194 0168     		ldr	r1, [r0]
 5063 0196 A8E7     		b	.L432
 5064              	.L385:
 5065              	.LBB153:
 5066              	.LBB147:
 5067              		.loc 1 1598 0
 5068 0198 D4ED017A 		vldr.32	s15, [r4, #4]	@ int
 5069 019c F8EEE77A 		vcvt.f32.s32	s15, s15
 5070 01a0 F1EE677A 		vneg.f32	s15, s15
 5071              	.LVL362:
 5072              	.L373:
 5073              		.loc 1 1609 0
ARM GAS  C:\Users\Grillmo\AppData\Local\Temp\ccnDcoCc.s 			page 90


 5074 01a4 564A     		ldr	r2, .L439+96
 5075 01a6 1868     		ldr	r0, [r3]
 5076 01a8 1168     		ldr	r1, [r2]
 5077              		.loc 1 1612 0
 5078 01aa 1B68     		ldr	r3, [r3]
 5079 01ac 1360     		str	r3, [r2]
 5080              		.loc 1 1609 0
 5081 01ae 8842     		cmp	r0, r1
 5082              		.loc 1 1610 0
 5083 01b0 16BF     		itet	ne
 5084 01b2 5449     		ldrne	r1, .L439+100
 5085 01b4 5349     		ldreq	r1, .L439+100
 5086 01b6 91ED008A 		vldrne.32	s16, [r1]
 5087              	.LVL363:
 5088              		.loc 1 1613 0
 5089 01ba C1ED007A 		vstr.32	s15, [r1]
 5090 01be 08BF     		it	eq
 5091 01c0 B0EE678A 		vmoveq.f32	s16, s15
 5092              	.LVL364:
 5093              	.L371:
 5094              	.LBE147:
 5095              		.loc 1 1616 0
 5096 01c4 504E     		ldr	r6, .L439+104
 5097              	.LVL365:
 5098 01c6 3368     		ldr	r3, [r6]
 5099 01c8 042B     		cmp	r3, #4
 5100 01ca 0AD0     		beq	.L437
 5101              	.L389:
 5102              		.loc 1 1663 0
 5103 01cc 002B     		cmp	r3, #0
 5104 01ce 00F0A580 		beq	.L398
 5105              		.loc 1 1667 0
 5106 01d2 2A78     		ldrb	r2, [r5]	@ zero_extendqisi2
 5107              		.loc 1 1664 0
 5108 01d4 013B     		subs	r3, r3, #1
 5109              		.loc 1 1667 0
 5110 01d6 012A     		cmp	r2, #1
 5111              		.loc 1 1664 0
 5112 01d8 3360     		str	r3, [r6]
 5113              		.loc 1 1667 0
 5114 01da 00F0EB80 		beq	.L438
 5115              	.L433:
 5116 01de 3A68     		ldr	r2, [r7]
 5117 01e0 8BE7     		b	.L369
 5118              	.L437:
 5119              	.LBB148:
 5120              		.loc 1 1617 0
 5121 01e2 94ED007A 		vldr.32	s14, [r4]	@ int
 5122              		.loc 1 1618 0
 5123 01e6 D4ED017A 		vldr.32	s15, [r4, #4]	@ int
 5124              		.loc 1 1621 0
 5125 01ea 484B     		ldr	r3, .L439+108
 5126 01ec 484A     		ldr	r2, .L439+112
 5127 01ee 1968     		ldr	r1, [r3]
 5128              		.loc 1 1617 0
 5129 01f0 B8EEC77A 		vcvt.f32.s32	s14, s14
 5130              		.loc 1 1618 0
ARM GAS  C:\Users\Grillmo\AppData\Local\Temp\ccnDcoCc.s 			page 91


 5131 01f4 F8EEE77A 		vcvt.f32.s32	s15, s15
 5132              		.loc 1 1617 0
 5133 01f8 B0EEC77A 		vabs.f32	s14, s14
 5134              	.LVL366:
 5135              		.loc 1 1618 0
 5136 01fc F0EEE77A 		vabs.f32	s15, s15
 5137              	.LVL367:
 5138              		.loc 1 1620 0
 5139 0200 B4EEE77A 		vcmpe.f32	s14, s15
 5140 0204 F1EE10FA 		vmrs	APSR_nzcv, FPSCR
 5141              		.loc 1 1621 0
 5142 0208 02EB8101 		add	r1, r2, r1, lsl #2
 5143 020c CCBF     		ite	gt
 5144 020e 81ED007A 		vstrgt.32	s14, [r1]
 5145              		.loc 1 1623 0
 5146 0212 C1ED007A 		vstrle.32	s15, [r1]
 5147              		.loc 1 1626 0
 5148 0216 1968     		ldr	r1, [r3]
 5149 0218 0029     		cmp	r1, #0
 5150 021a 40F3F080 		ble	.L393
 5151              		.loc 1 1627 0
 5152 021e D3F800E0 		ldr	lr, [r3]
 5153              		.loc 1 1628 0
 5154 0222 1968     		ldr	r1, [r3]
 5155              		.loc 1 1627 0
 5156 0224 3B48     		ldr	r0, .L439+116
 5157              		.loc 1 1628 0
 5158 0226 0139     		subs	r1, r1, #1
 5159 0228 02EB8101 		add	r1, r2, r1, lsl #2
 5160 022c D1ED007A 		vldr.32	s15, [r1]
 5161              	.LVL368:
 5162 0230 1C68     		ldr	r4, [r3]
 5163 0232 02EB8404 		add	r4, r2, r4, lsl #2
 5164 0236 94ED007A 		vldr.32	s14, [r4]
 5165              	.LVL369:
 5166 023a 77EEC77A 		vsub.f32	s15, s15, s14
 5167              		.loc 1 1627 0
 5168 023e 00EB8E01 		add	r1, r0, lr, lsl #2
 5169 0242 C1ED007A 		vstr.32	s15, [r1]
 5170              	.L394:
 5171              		.loc 1 1634 0
 5172 0246 1A4C     		ldr	r4, .L439+16
 5173              		.loc 1 1637 0
 5174 0248 2348     		ldr	r0, .L439+56
 5175              		.loc 1 1634 0
 5176 024a 218A     		ldrh	r1, [r4, #16]
 5177              		.loc 1 1637 0
 5178 024c 0068     		ldr	r0, [r0]
 5179 024e 0628     		cmp	r0, #6
 5180              		.loc 1 1634 0
 5181 0250 89B2     		uxth	r1, r1
 5182              	.LVL370:
 5183 0252 00F29080 		bhi	.L395
 5184 0256 4FF0010E 		mov	lr, #1
 5185 025a 0EFA00F0 		lsl	r0, lr, r0
 5186 025e 10F0480F 		tst	r0, #72
 5187 0262 21FA0EF1 		lsr	r1, r1, lr
ARM GAS  C:\Users\Grillmo\AppData\Local\Temp\ccnDcoCc.s 			page 92


 5188              	.LVL371:
 5189 0266 78D1     		bne	.L396
 5190 0268 10F0240F 		tst	r0, #36
 5191 026c 40F0D780 		bne	.L397
 5192 0270 10F0120F 		tst	r0, #18
 5193 0274 7FD0     		beq	.L395
 5194              		.loc 1 1640 0
 5195 0276 D3F800E0 		ldr	lr, [r3]
 5196 027a A088     		ldrh	r0, [r4, #4]
 5197 027c 70E0     		b	.L431
 5198              	.LVL372:
 5199              	.L387:
 5200              	.LBE148:
 5201              	.LBB149:
 5202              		.loc 1 1600 0
 5203 027e D4ED007A 		vldr.32	s15, [r4]	@ int
 5204 0282 F8EEE77A 		vcvt.f32.s32	s15, s15
 5205 0286 F1EE677A 		vneg.f32	s15, s15
 5206              	.LVL373:
 5207 028a 8BE7     		b	.L373
 5208              	.LVL374:
 5209              	.L383:
 5210              		.loc 1 1596 0
 5211 028c D4ED007A 		vldr.32	s15, [r4]	@ int
 5212 0290 F8EEE77A 		vcvt.f32.s32	s15, s15
 5213              	.LVL375:
 5214 0294 86E7     		b	.L373
 5215              	.LVL376:
 5216              	.L381:
 5217              		.loc 1 1595 0
 5218 0296 D4ED017A 		vldr.32	s15, [r4, #4]	@ int
 5219 029a F8EEE77A 		vcvt.f32.s32	s15, s15
 5220              	.LVL377:
 5221 029e 81E7     		b	.L373
 5222              	.L440:
 5223              		.align	2
 5224              	.L439:
 5225 02a0 00180040 		.word	1073747968
 5226 02a4 00200140 		.word	1073815552
 5227 02a8 00210140 		.word	1073815808
 5228 02ac 00000000 		.word	.LANCHOR1
 5229 02b0 00000000 		.word	ADC_Value
 5230 02b4 00000000 		.word	.LANCHOR48
 5231 02b8 00000000 		.word	.LANCHOR49
 5232 02bc 00000000 		.word	.LANCHOR50
 5233 02c0 00000000 		.word	.LANCHOR51
 5234 02c4 00000000 		.word	.LANCHOR52
 5235 02c8 00000000 		.word	ADC_curr_norm_value
 5236 02cc 00000000 		.word	.LANCHOR0
 5237 02d0 00000000 		.word	.LANCHOR2
 5238 02d4 00000000 		.word	.LANCHOR4
 5239 02d8 00000000 		.word	.LANCHOR3
 5240 02dc 500AA53D 		.word	1034226256
 5241 02e0 00000000 		.word	.LANCHOR38
 5242 02e4 9A99993F 		.word	1067030938
 5243 02e8 00000000 		.word	.LANCHOR63
 5244 02ec 00000000 		.word	.LANCHOR64
ARM GAS  C:\Users\Grillmo\AppData\Local\Temp\ccnDcoCc.s 			page 93


 5245 02f0 00000000 		.word	.LANCHOR47
 5246 02f4 00000000 		.word	.LANCHOR39
 5247 02f8 8096184B 		.word	1259902592
 5248 02fc 00000000 		.word	.LANCHOR65
 5249 0300 00000000 		.word	.LANCHOR55
 5250 0304 00000000 		.word	.LANCHOR56
 5251 0308 00000000 		.word	.LANCHOR57
 5252 030c 00000000 		.word	.LANCHOR32
 5253 0310 00000000 		.word	.LANCHOR58
 5254 0314 00000000 		.word	.LANCHOR59
 5255 0318 CDCC4C3E 		.word	1045220557
 5256              	.LVL378:
 5257              	.L398:
 5258              	.LBE149:
 5259              		.loc 1 1667 0
 5260 031c 2B78     		ldrb	r3, [r5]	@ zero_extendqisi2
 5261 031e 012B     		cmp	r3, #1
 5262 0320 7FF45DAF 		bne	.L433
 5263              	.L400:
 5264              		.loc 1 1668 0
 5265 0324 0523     		movs	r3, #5
 5266              		.loc 1 1670 0
 5267 0326 1FED040A 		vldr.32	s0, .L439+120
 5268              		.loc 1 1668 0
 5269 032a 3360     		str	r3, [r6]
 5270              		.loc 1 1670 0
 5271 032c FFF7FEFF 		bl	set_duty_cycle_hw
 5272              	.LVL379:
 5273              		.loc 1 1672 0
 5274 0330 3E4B     		ldr	r3, .L441
 5275 0332 1A68     		ldr	r2, [r3]
 5276 0334 0132     		adds	r2, r2, #1
 5277 0336 1A60     		str	r2, [r3]
 5278              		.loc 1 1673 0
 5279 0338 1A68     		ldr	r2, [r3]
 5280 033a 052A     		cmp	r2, #5
 5281              		.loc 1 1674 0
 5282 033c C4BF     		itt	gt
 5283 033e 0022     		movgt	r2, #0
 5284 0340 1A60     		strgt	r2, [r3]
 5285              		.loc 1 1677 0
 5286 0342 1B68     		ldr	r3, [r3]
 5287 0344 3A4A     		ldr	r2, .L441+4
 5288 0346 0133     		adds	r3, r3, #1
 5289 0348 1360     		str	r3, [r2]
 5290              		.loc 1 1679 0
 5291 034a 1068     		ldr	r0, [r2]
 5292 034c FFF7FEFF 		bl	set_next_comm_step
 5293              	.LVL380:
 5294              		.loc 1 1680 0
 5295 0350 2021     		movs	r1, #32
 5296 0352 3848     		ldr	r0, .L441+8
 5297 0354 FFF7FEFF 		bl	TIM_GenerateEvent
 5298              	.LVL381:
 5299 0358 41E7     		b	.L433
 5300              	.L396:
 5301              	.LBB150:
ARM GAS  C:\Users\Grillmo\AppData\Local\Temp\ccnDcoCc.s 			page 94


 5302              		.loc 1 1650 0
 5303 035a D3F800E0 		ldr	lr, [r3]
 5304 035e 2088     		ldrh	r0, [r4]
 5305              	.L431:
 5306 0360 354C     		ldr	r4, .L441+12
 5307 0362 80B2     		uxth	r0, r0
 5308 0364 411A     		subs	r1, r0, r1
 5309 0366 07EE901A 		vmov	s15, r1	@ int
 5310 036a F8EEE77A 		vcvt.f32.s32	s15, s15
 5311 036e 04EB8E01 		add	r1, r4, lr, lsl #2
 5312 0372 C1ED007A 		vstr.32	s15, [r1]
 5313              	.L395:
 5314              		.loc 1 1657 0
 5315 0376 1C68     		ldr	r4, [r3]
 5316 0378 3048     		ldr	r0, .L441+16
 5317              		.loc 1 1658 0
 5318 037a 3149     		ldr	r1, .L441+20
 5319              		.loc 1 1657 0
 5320 037c 02EB8402 		add	r2, r2, r4, lsl #2
 5321 0380 92ED007A 		vldr.32	s14, [r2]
 5322 0384 1A68     		ldr	r2, [r3]
 5323 0386 00EB8202 		add	r2, r0, r2, lsl #2
 5324 038a D2ED007A 		vldr.32	s15, [r2]
 5325 038e 37EE277A 		vadd.f32	s14, s14, s15
 5326              		.loc 1 1658 0
 5327 0392 F7EE006A 		vmov.f32	s13, #1.0e+0
 5328              		.loc 1 1657 0
 5329 0396 82ED007A 		vstr.32	s14, [r2]
 5330              		.loc 1 1658 0
 5331 039a 1B68     		ldr	r3, [r3]
 5332 039c 01EB8303 		add	r3, r1, r3, lsl #2
 5333 03a0 D3ED007A 		vldr.32	s15, [r3]
 5334 03a4 77EEA67A 		vadd.f32	s15, s15, s13
 5335 03a8 C3ED007A 		vstr.32	s15, [r3]
 5336              		.loc 1 1660 0
 5337 03ac FFF7FEFF 		bl	stop_pwm_hw
 5338              	.LVL382:
 5339 03b0 3368     		ldr	r3, [r6]
 5340 03b2 0BE7     		b	.L389
 5341              	.L438:
 5342              	.LBE150:
 5343              		.loc 1 1667 0 discriminator 1
 5344 03b4 002B     		cmp	r3, #0
 5345 03b6 7FF412AF 		bne	.L433
 5346 03ba B3E7     		b	.L400
 5347              	.LVL383:
 5348              	.L435:
 5349              	.LBB151:
 5350              		.loc 1 1555 0
 5351 03bc D4ED006A 		vldr.32	s13, [r4]	@ int
 5352              		.loc 1 1556 0
 5353 03c0 D4ED017A 		vldr.32	s15, [r4, #4]	@ int
 5354              		.loc 1 1557 0
 5355 03c4 94ED027A 		vldr.32	s14, [r4, #8]	@ int
 5356              		.loc 1 1556 0
 5357 03c8 F8EEE77A 		vcvt.f32.s32	s15, s15
 5358              		.loc 1 1555 0
ARM GAS  C:\Users\Grillmo\AppData\Local\Temp\ccnDcoCc.s 			page 95


 5359 03cc F8EEE66A 		vcvt.f32.s32	s13, s13
 5360              	.LVL384:
 5361              		.loc 1 1558 0
 5362 03d0 67EEA77A 		vmul.f32	s15, s15, s15
 5363              	.LVL385:
 5364              		.loc 1 1557 0
 5365 03d4 B8EEC77A 		vcvt.f32.s32	s14, s14
 5366              	.LVL386:
 5367              		.loc 1 1558 0
 5368 03d8 E6EEA67A 		vfma.f32	s15, s13, s13
 5369 03dc F7EE086A 		vmov.f32	s13, #1.5e+0
 5370              	.LVL387:
 5371 03e0 E7EE077A 		vfma.f32	s15, s14, s14
 5372 03e4 87EEA60A 		vdiv.f32	s0, s15, s13
 5373 03e8 B5EE400A 		vcmp.f32	s0, #0
 5374 03ec F1EE10FA 		vmrs	APSR_nzcv, FPSCR
 5375 03f0 B1EEC08A 		vsqrt.f32	s16, s0
 5376 03f4 7FF5E6AE 		bpl	.L371
 5377 03f8 FFF7FEFF 		bl	sqrtf
 5378              	.LVL388:
 5379 03fc E2E6     		b	.L371
 5380              	.LVL389:
 5381              	.L393:
 5382              	.LBE151:
 5383              	.LBB152:
 5384              		.loc 1 1630 0
 5385 03fe 1C68     		ldr	r4, [r3]
 5386              		.loc 1 1631 0
 5387 0400 D2ED057A 		vldr.32	s15, [r2, #20]
 5388              	.LVL390:
 5389 0404 1868     		ldr	r0, [r3]
 5390              		.loc 1 1630 0
 5391 0406 0F49     		ldr	r1, .L441+24
 5392              		.loc 1 1631 0
 5393 0408 02EB8000 		add	r0, r2, r0, lsl #2
 5394 040c 90ED007A 		vldr.32	s14, [r0]
 5395              	.LVL391:
 5396 0410 77EEC77A 		vsub.f32	s15, s15, s14
 5397              		.loc 1 1630 0
 5398 0414 01EB8401 		add	r1, r1, r4, lsl #2
 5399 0418 C1ED007A 		vstr.32	s15, [r1]
 5400 041c 13E7     		b	.L394
 5401              	.L397:
 5402              		.loc 1 1645 0
 5403 041e D3F800E0 		ldr	lr, [r3]
 5404 0422 6088     		ldrh	r0, [r4, #2]
 5405 0424 9CE7     		b	.L431
 5406              	.LVL392:
 5407              	.L407:
 5408              	.LBE152:
 5409              	.LBE153:
 5410              		.loc 1 1520 0
 5411 0426 DFED087A 		vldr.32	s15, .L441+28
 5412 042a BBE6     		b	.L373
 5413              	.L442:
 5414              		.align	2
 5415              	.L441:
ARM GAS  C:\Users\Grillmo\AppData\Local\Temp\ccnDcoCc.s 			page 96


 5416 042c 00000000 		.word	.LANCHOR32
 5417 0430 00000000 		.word	.LANCHOR3
 5418 0434 00000140 		.word	1073807360
 5419 0438 00000000 		.word	.LANCHOR60
 5420 043c 00000000 		.word	.LANCHOR61
 5421 0440 00000000 		.word	.LANCHOR62
 5422 0444 00000000 		.word	.LANCHOR59
 5423 0448 00000000 		.word	0
 5424              		.cfi_endproc
 5425              	.LFE297:
 5426              		.size	mcpwm_adc_inj_int_handler, .-mcpwm_adc_inj_int_handler
 5427              		.section	.text.mcpwm_set_detect,"ax",%progbits
 5428              		.align	1
 5429              		.p2align 4,,15
 5430              		.global	mcpwm_set_detect
 5431              		.syntax unified
 5432              		.thumb
 5433              		.thumb_func
 5434              		.fpu fpv4-sp-d16
 5435              		.type	mcpwm_set_detect, %function
 5436              	mcpwm_set_detect:
 5437              	.LFB299:
 5438              		.loc 1 2074 0
 5439              		.cfi_startproc
 5440              		@ args = 0, pretend = 0, frame = 0
 5441              		@ frame_needed = 0, uses_anonymous_args = 0
 5442 0000 F8B5     		push	{r3, r4, r5, r6, r7, lr}
 5443              		.cfi_def_cfa_offset 24
 5444              		.cfi_offset 3, -24
 5445              		.cfi_offset 4, -20
 5446              		.cfi_offset 5, -16
 5447              		.cfi_offset 6, -12
 5448              		.cfi_offset 7, -8
 5449              		.cfi_offset 14, -4
 5450              		.loc 1 2075 0
 5451 0002 FFF7FEFF 		bl	mc_interface_try_input
 5452              	.LVL393:
 5453 0006 00B1     		cbz	r0, .L448
 5454 0008 F8BD     		pop	{r3, r4, r5, r6, r7, pc}
 5455              	.L448:
 5456              		.loc 1 2079 0
 5457 000a 0F4B     		ldr	r3, .L449
 5458 000c 0F4F     		ldr	r7, .L449+4
 5459 000e 104E     		ldr	r6, .L449+8
 5460 0010 104D     		ldr	r5, .L449+12
 5461 0012 0722     		movs	r2, #7
 5462 0014 1A70     		strb	r2, [r3]
 5463 0016 0446     		mov	r4, r0
 5464              		.loc 1 2080 0
 5465 0018 FFF7FEFF 		bl	stop_pwm_hw
 5466              	.LVL394:
 5467              		.loc 1 2082 0
 5468 001c 0E4B     		ldr	r3, .L449+16
 5469 001e 1B68     		ldr	r3, [r3]
 5470 0020 93ED5A0A 		vldr.32	s0, [r3, #360]
 5471 0024 FFF7FEFF 		bl	set_switching_frequency
 5472              	.LVL395:
ARM GAS  C:\Users\Grillmo\AppData\Local\Temp\ccnDcoCc.s 			page 97


 5473              	.LBB154:
 5474              		.loc 1 2085 0
 5475 0028 0022     		movs	r2, #0
 5476              	.LVL396:
 5477              	.L445:
 5478              		.loc 1 2085 0 is_stmt 0 discriminator 3
 5479 002a A300     		lsls	r3, r4, #2
 5480 002c F818     		adds	r0, r7, r3
 5481              		.loc 1 2086 0 is_stmt 1 discriminator 3
 5482 002e F118     		adds	r1, r6, r3
 5483              		.loc 1 2084 0 discriminator 3
 5484 0030 0134     		adds	r4, r4, #1
 5485              	.LVL397:
 5486              		.loc 1 2087 0 discriminator 3
 5487 0032 2B44     		add	r3, r3, r5
 5488              		.loc 1 2084 0 discriminator 3
 5489 0034 062C     		cmp	r4, #6
 5490              		.loc 1 2085 0 discriminator 3
 5491 0036 0260     		str	r2, [r0]	@ float
 5492              		.loc 1 2086 0 discriminator 3
 5493 0038 0A60     		str	r2, [r1]	@ float
 5494              		.loc 1 2087 0 discriminator 3
 5495 003a 1A60     		str	r2, [r3]	@ float
 5496              		.loc 1 2084 0 discriminator 3
 5497 003c F5D1     		bne	.L445
 5498              	.LBE154:
 5499              		.loc 1 2090 0
 5500 003e 074B     		ldr	r3, .L449+20
 5501 0040 0122     		movs	r2, #1
 5502 0042 1A70     		strb	r2, [r3]
 5503 0044 F8BD     		pop	{r3, r4, r5, r6, r7, pc}
 5504              	.LVL398:
 5505              	.L450:
 5506 0046 00BF     		.align	2
 5507              	.L449:
 5508 0048 00000000 		.word	.LANCHOR37
 5509 004c 00000000 		.word	.LANCHOR58
 5510 0050 00000000 		.word	.LANCHOR61
 5511 0054 00000000 		.word	.LANCHOR62
 5512 0058 00000000 		.word	.LANCHOR0
 5513 005c 00000000 		.word	.LANCHOR2
 5514              		.cfi_endproc
 5515              	.LFE299:
 5516              		.size	mcpwm_set_detect, .-mcpwm_set_detect
 5517              		.section	.text.mcpwm_get_detect_pos,"ax",%progbits
 5518              		.align	1
 5519              		.p2align 4,,15
 5520              		.global	mcpwm_get_detect_pos
 5521              		.syntax unified
 5522              		.thumb
 5523              		.thumb_func
 5524              		.fpu fpv4-sp-d16
 5525              		.type	mcpwm_get_detect_pos, %function
 5526              	mcpwm_get_detect_pos:
 5527              	.LFB300:
 5528              		.loc 1 2093 0
 5529              		.cfi_startproc
ARM GAS  C:\Users\Grillmo\AppData\Local\Temp\ccnDcoCc.s 			page 98


 5530              		@ args = 0, pretend = 0, frame = 8
 5531              		@ frame_needed = 0, uses_anonymous_args = 0
 5532 0000 30B5     		push	{r4, r5, lr}
 5533              		.cfi_def_cfa_offset 12
 5534              		.cfi_offset 4, -12
 5535              		.cfi_offset 5, -8
 5536              		.cfi_offset 14, -4
 5537              		.loc 1 2095 0
 5538 0002 3F48     		ldr	r0, .L458
 5539 0004 3F4C     		ldr	r4, .L458+4
 5540 0006 94ED002A 		vldr.32	s4, [r4]
 5541 000a D0ED002A 		vldr.32	s5, [r0]
 5542              		.loc 1 2096 0
 5543 000e 94ED013A 		vldr.32	s6, [r4, #4]
 5544 0012 D0ED013A 		vldr.32	s7, [r0, #4]
 5545              		.loc 1 2097 0
 5546 0016 94ED024A 		vldr.32	s8, [r4, #8]
 5547 001a D0ED026A 		vldr.32	s13, [r0, #8]
 5548              		.loc 1 2098 0
 5549 001e D4ED034A 		vldr.32	s9, [r4, #12]
 5550 0022 90ED037A 		vldr.32	s14, [r0, #12]
 5551              		.loc 1 2099 0
 5552 0026 94ED045A 		vldr.32	s10, [r4, #16]
 5553 002a D0ED047A 		vldr.32	s15, [r0, #16]
 5554              		.loc 1 2100 0
 5555 002e D4ED055A 		vldr.32	s11, [r4, #20]
 5556 0032 90ED056A 		vldr.32	s12, [r0, #20]
 5557              		.loc 1 2093 0
 5558 0036 2DED048B 		vpush.64	{d8, d9}
 5559              		.cfi_def_cfa_offset 28
 5560              		.cfi_offset 80, -28
 5561              		.cfi_offset 81, -24
 5562              		.cfi_offset 82, -20
 5563              		.cfi_offset 83, -16
 5564              		.loc 1 2097 0
 5565 003a 84EE268A 		vdiv.f32	s16, s8, s13
 5566              		.loc 1 2093 0
 5567 003e 83B0     		sub	sp, sp, #12
 5568              		.cfi_def_cfa_offset 40
 5569              	.LBB155:
 5570              		.loc 1 2103 0
 5571 0040 0021     		movs	r1, #0
 5572              		.loc 1 2102 0
 5573 0042 0022     		movs	r2, #0
 5574              	.LBE155:
 5575              		.loc 1 2098 0
 5576 0044 C4EE876A 		vdiv.f32	s13, s9, s14
 5577              		.loc 1 2095 0
 5578 0048 82EE229A 		vdiv.f32	s18, s4, s5
 5579              	.LVL399:
 5580              		.loc 1 2099 0
 5581 004c 85EE277A 		vdiv.f32	s14, s10, s15
 5582              		.loc 1 2096 0
 5583 0050 C3EE238A 		vdiv.f32	s17, s6, s7
 5584              	.LVL400:
 5585              		.loc 1 2100 0
 5586 0054 C5EE867A 		vdiv.f32	s15, s11, s12
ARM GAS  C:\Users\Grillmo\AppData\Local\Temp\ccnDcoCc.s 			page 99


 5587              	.LVL401:
 5588              	.L452:
 5589              	.LBB156:
 5590              		.loc 1 2103 0 discriminator 3
 5591 0058 9300     		lsls	r3, r2, #2
 5592 005a E518     		adds	r5, r4, r3
 5593              		.loc 1 2102 0 discriminator 3
 5594 005c 0132     		adds	r2, r2, #1
 5595              	.LVL402:
 5596              		.loc 1 2104 0 discriminator 3
 5597 005e 0344     		add	r3, r3, r0
 5598              		.loc 1 2102 0 discriminator 3
 5599 0060 062A     		cmp	r2, #6
 5600              		.loc 1 2103 0 discriminator 3
 5601 0062 2960     		str	r1, [r5]	@ float
 5602              		.loc 1 2104 0 discriminator 3
 5603 0064 1960     		str	r1, [r3]	@ float
 5604              		.loc 1 2102 0 discriminator 3
 5605 0066 F7D1     		bne	.L452
 5606              	.LBE156:
 5607              		.loc 1 2107 0
 5608 0068 39EE269A 		vadd.f32	s18, s18, s13
 5609              	.LVL403:
 5610              		.loc 1 2108 0
 5611 006c 78EE878A 		vadd.f32	s17, s17, s14
 5612              	.LVL404:
 5613              		.loc 1 2109 0
 5614 0070 38EE278A 		vadd.f32	s16, s16, s15
 5615              	.LVL405:
 5616              		.loc 1 2111 0
 5617 0074 79EE287A 		vadd.f32	s15, s18, s17
 5618              	.LVL406:
 5619 0078 B0EE086A 		vmov.f32	s12, #3.0e+0
 5620              	.LVL407:
 5621 007c 77EE887A 		vadd.f32	s15, s15, s16
 5622              		.loc 1 2116 0
 5623 0080 F7EE086A 		vmov.f32	s13, #1.5e+0
 5624              	.LVL408:
 5625              		.loc 1 2111 0
 5626 0084 87EE867A 		vdiv.f32	s14, s15, s12
 5627              	.LVL409:
 5628              		.loc 1 2113 0
 5629 0088 78EEC78A 		vsub.f32	s17, s17, s14
 5630              	.LVL410:
 5631              		.loc 1 2112 0
 5632 008c 39EE479A 		vsub.f32	s18, s18, s14
 5633              	.LVL411:
 5634              		.loc 1 2116 0
 5635 0090 68EEA87A 		vmul.f32	s15, s17, s17
 5636              		.loc 1 2114 0
 5637 0094 38EE478A 		vsub.f32	s16, s16, s14
 5638              	.LVL412:
 5639              		.loc 1 2116 0
 5640 0098 E9EE097A 		vfma.f32	s15, s18, s18
 5641 009c E8EE087A 		vfma.f32	s15, s16, s16
 5642 00a0 87EEA60A 		vdiv.f32	s0, s15, s13
 5643 00a4 B5EE400A 		vcmp.f32	s0, #0
ARM GAS  C:\Users\Grillmo\AppData\Local\Temp\ccnDcoCc.s 			page 100


 5644 00a8 F1EE10FA 		vmrs	APSR_nzcv, FPSCR
 5645 00ac F1EEC09A 		vsqrt.f32	s19, s0
 5646 00b0 01D5     		bpl	.L453
 5647 00b2 FFF7FEFF 		bl	sqrtf
 5648              	.LVL413:
 5649              	.L453:
 5650              		.loc 1 2122 0
 5651 00b6 89EE290A 		vdiv.f32	s0, s18, s19
 5652              	.LVL414:
 5653 00ba FFF7FEFF 		bl	asinf
 5654              	.LVL415:
 5655              		.loc 1 2129 0
 5656 00be 01A8     		add	r0, sp, #4
 5657              		.loc 1 2122 0
 5658 00c0 DFED117A 		vldr.32	s15, .L458+8
 5659 00c4 DFED115A 		vldr.32	s11, .L458+12
 5660 00c8 20EE270A 		vmul.f32	s0, s0, s15
 5661              		.loc 1 2118 0
 5662 00cc 88EEA96A 		vdiv.f32	s12, s17, s19
 5663              	.LVL416:
 5664              		.loc 1 2119 0
 5665 00d0 C8EE296A 		vdiv.f32	s13, s16, s19
 5666              	.LVL417:
 5667              		.loc 1 2122 0
 5668 00d4 80EE257A 		vdiv.f32	s14, s0, s11
 5669              	.LVL418:
 5670              		.loc 1 2125 0
 5671 00d8 B4EEE66A 		vcmpe.f32	s12, s13
 5672 00dc F1EE10FA 		vmrs	APSR_nzcv, FPSCR
 5673              		.loc 1 2126 0
 5674 00e0 4ABF     		itet	mi
 5675 00e2 77EEC77A 		vsubmi.f32	s15, s15, s14
 5676              		.loc 1 2124 0
 5677 00e6 8DED017A 		vstrpl.32	s14, [sp, #4]
 5678              		.loc 1 2126 0
 5679 00ea CDED017A 		vstrmi.32	s15, [sp, #4]
 5680              		.loc 1 2129 0
 5681 00ee FFF7FEFF 		bl	utils_norm_angle
 5682              	.LVL419:
 5683              		.loc 1 2132 0
 5684 00f2 9DED010A 		vldr.32	s0, [sp, #4]
 5685 00f6 03B0     		add	sp, sp, #12
 5686              		.cfi_def_cfa_offset 28
 5687              		@ sp needed
 5688 00f8 BDEC048B 		vldm	sp!, {d8-d9}
 5689              		.cfi_restore 82
 5690              		.cfi_restore 83
 5691              		.cfi_restore 80
 5692              		.cfi_restore 81
 5693              		.cfi_def_cfa_offset 12
 5694              	.LVL420:
 5695 00fc 30BD     		pop	{r4, r5, pc}
 5696              	.L459:
 5697 00fe 00BF     		.align	2
 5698              	.L458:
 5699 0100 00000000 		.word	.LANCHOR62
 5700 0104 00000000 		.word	.LANCHOR61
ARM GAS  C:\Users\Grillmo\AppData\Local\Temp\ccnDcoCc.s 			page 101


 5701 0108 00003443 		.word	1127481344
 5702 010c DB0F4940 		.word	1078530011
 5703              		.cfi_endproc
 5704              	.LFE300:
 5705              		.size	mcpwm_get_detect_pos, .-mcpwm_get_detect_pos
 5706              		.section	.text.mcpwm_read_reset_avg_cycle_integrator,"ax",%progbits
 5707              		.align	1
 5708              		.p2align 4,,15
 5709              		.global	mcpwm_read_reset_avg_cycle_integrator
 5710              		.syntax unified
 5711              		.thumb
 5712              		.thumb_func
 5713              		.fpu fpv4-sp-d16
 5714              		.type	mcpwm_read_reset_avg_cycle_integrator, %function
 5715              	mcpwm_read_reset_avg_cycle_integrator:
 5716              	.LFB301:
 5717              		.loc 1 2134 0
 5718              		.cfi_startproc
 5719              		@ args = 0, pretend = 0, frame = 0
 5720              		@ frame_needed = 0, uses_anonymous_args = 0
 5721              		@ link register save eliminated.
 5722              		.loc 1 2135 0
 5723 0000 0549     		ldr	r1, .L461
 5724 0002 064B     		ldr	r3, .L461+4
 5725 0004 91ED000A 		vldr.32	s0, [r1]
 5726 0008 D3ED007A 		vldr.32	s15, [r3]
 5727              	.LVL421:
 5728              		.loc 1 2136 0
 5729 000c 0022     		movs	r2, #0
 5730 000e 0A60     		str	r2, [r1]	@ float
 5731              		.loc 1 2139 0
 5732 0010 80EE270A 		vdiv.f32	s0, s0, s15
 5733              	.LVL422:
 5734              		.loc 1 2137 0
 5735 0014 1A60     		str	r2, [r3]	@ float
 5736              		.loc 1 2139 0
 5737 0016 7047     		bx	lr
 5738              	.L462:
 5739              		.align	2
 5740              	.L461:
 5741 0018 00000000 		.word	.LANCHOR42
 5742 001c 00000000 		.word	.LANCHOR43
 5743              		.cfi_endproc
 5744              	.LFE301:
 5745              		.size	mcpwm_read_reset_avg_cycle_integrator, .-mcpwm_read_reset_avg_cycle_integrator
 5746              		.section	.text.mcpwm_set_comm_mode,"ax",%progbits
 5747              		.align	1
 5748              		.p2align 4,,15
 5749              		.global	mcpwm_set_comm_mode
 5750              		.syntax unified
 5751              		.thumb
 5752              		.thumb_func
 5753              		.fpu fpv4-sp-d16
 5754              		.type	mcpwm_set_comm_mode, %function
 5755              	mcpwm_set_comm_mode:
 5756              	.LFB302:
 5757              		.loc 1 2150 0
ARM GAS  C:\Users\Grillmo\AppData\Local\Temp\ccnDcoCc.s 			page 102


 5758              		.cfi_startproc
 5759              		@ args = 0, pretend = 0, frame = 0
 5760              		@ frame_needed = 0, uses_anonymous_args = 0
 5761              		@ link register save eliminated.
 5762              	.LVL423:
 5763              		.loc 1 2151 0
 5764 0000 014B     		ldr	r3, .L464
 5765 0002 1B68     		ldr	r3, [r3]
 5766 0004 5870     		strb	r0, [r3, #1]
 5767 0006 7047     		bx	lr
 5768              	.L465:
 5769              		.align	2
 5770              	.L464:
 5771 0008 00000000 		.word	.LANCHOR0
 5772              		.cfi_endproc
 5773              	.LFE302:
 5774              		.size	mcpwm_set_comm_mode, .-mcpwm_set_comm_mode
 5775              		.section	.text.mcpwm_get_comm_mode,"ax",%progbits
 5776              		.align	1
 5777              		.p2align 4,,15
 5778              		.global	mcpwm_get_comm_mode
 5779              		.syntax unified
 5780              		.thumb
 5781              		.thumb_func
 5782              		.fpu fpv4-sp-d16
 5783              		.type	mcpwm_get_comm_mode, %function
 5784              	mcpwm_get_comm_mode:
 5785              	.LFB303:
 5786              		.loc 1 2154 0
 5787              		.cfi_startproc
 5788              		@ args = 0, pretend = 0, frame = 0
 5789              		@ frame_needed = 0, uses_anonymous_args = 0
 5790              		@ link register save eliminated.
 5791              		.loc 1 2155 0
 5792 0000 014B     		ldr	r3, .L467
 5793 0002 1B68     		ldr	r3, [r3]
 5794 0004 5878     		ldrb	r0, [r3, #1]	@ zero_extendqisi2
 5795              		.loc 1 2156 0
 5796 0006 7047     		bx	lr
 5797              	.L468:
 5798              		.align	2
 5799              	.L467:
 5800 0008 00000000 		.word	.LANCHOR0
 5801              		.cfi_endproc
 5802              	.LFE303:
 5803              		.size	mcpwm_get_comm_mode, .-mcpwm_get_comm_mode
 5804              		.section	.text.mcpwm_get_last_adc_isr_duration,"ax",%progbits
 5805              		.align	1
 5806              		.p2align 4,,15
 5807              		.global	mcpwm_get_last_adc_isr_duration
 5808              		.syntax unified
 5809              		.thumb
 5810              		.thumb_func
 5811              		.fpu fpv4-sp-d16
 5812              		.type	mcpwm_get_last_adc_isr_duration, %function
 5813              	mcpwm_get_last_adc_isr_duration:
 5814              	.LFB304:
ARM GAS  C:\Users\Grillmo\AppData\Local\Temp\ccnDcoCc.s 			page 103


 5815              		.loc 1 2158 0
 5816              		.cfi_startproc
 5817              		@ args = 0, pretend = 0, frame = 0
 5818              		@ frame_needed = 0, uses_anonymous_args = 0
 5819              		@ link register save eliminated.
 5820              		.loc 1 2159 0
 5821 0000 014B     		ldr	r3, .L470
 5822 0002 93ED000A 		vldr.32	s0, [r3]
 5823              		.loc 1 2160 0
 5824 0006 7047     		bx	lr
 5825              	.L471:
 5826              		.align	2
 5827              	.L470:
 5828 0008 00000000 		.word	.LANCHOR66
 5829              		.cfi_endproc
 5830              	.LFE304:
 5831              		.size	mcpwm_get_last_adc_isr_duration, .-mcpwm_get_last_adc_isr_duration
 5832              		.section	.text.mcpwm_get_last_inj_adc_isr_duration,"ax",%progbits
 5833              		.align	1
 5834              		.p2align 4,,15
 5835              		.global	mcpwm_get_last_inj_adc_isr_duration
 5836              		.syntax unified
 5837              		.thumb
 5838              		.thumb_func
 5839              		.fpu fpv4-sp-d16
 5840              		.type	mcpwm_get_last_inj_adc_isr_duration, %function
 5841              	mcpwm_get_last_inj_adc_isr_duration:
 5842              	.LFB305:
 5843              		.loc 1 2162 0
 5844              		.cfi_startproc
 5845              		@ args = 0, pretend = 0, frame = 0
 5846              		@ frame_needed = 0, uses_anonymous_args = 0
 5847              		@ link register save eliminated.
 5848              		.loc 1 2163 0
 5849 0000 014B     		ldr	r3, .L473
 5850 0002 93ED000A 		vldr.32	s0, [r3]
 5851              		.loc 1 2164 0
 5852 0006 7047     		bx	lr
 5853              	.L474:
 5854              		.align	2
 5855              	.L473:
 5856 0008 00000000 		.word	.LANCHOR65
 5857              		.cfi_endproc
 5858              	.LFE305:
 5859              		.size	mcpwm_get_last_inj_adc_isr_duration, .-mcpwm_get_last_inj_adc_isr_duration
 5860              		.section	.text.mcpwm_get_rpm_dep,"ax",%progbits
 5861              		.align	1
 5862              		.p2align 4,,15
 5863              		.global	mcpwm_get_rpm_dep
 5864              		.syntax unified
 5865              		.thumb
 5866              		.thumb_func
 5867              		.fpu fpv4-sp-d16
 5868              		.type	mcpwm_get_rpm_dep, %function
 5869              	mcpwm_get_rpm_dep:
 5870              	.LFB306:
 5871              		.loc 1 2166 0
ARM GAS  C:\Users\Grillmo\AppData\Local\Temp\ccnDcoCc.s 			page 104


 5872              		.cfi_startproc
 5873              		@ args = 0, pretend = 0, frame = 0
 5874              		@ frame_needed = 0, uses_anonymous_args = 0
 5875              		@ link register save eliminated.
 5876              	.LVL424:
 5877 0000 70B4     		push	{r4, r5, r6}
 5878              		.cfi_def_cfa_offset 12
 5879              		.cfi_offset 4, -12
 5880              		.cfi_offset 5, -8
 5881              		.cfi_offset 6, -4
 5882              		.loc 1 2167 0
 5883 0002 064D     		ldr	r5, .L477
 5884              		.loc 1 2166 0
 5885 0004 0646     		mov	r6, r0
 5886              		.loc 1 2167 0
 5887 0006 0FCD     		ldmia	r5!, {r0, r1, r2, r3}
 5888              	.LVL425:
 5889 0008 3446     		mov	r4, r6
 5890 000a 0FC4     		stmia	r4!, {r0, r1, r2, r3}
 5891 000c 95E80700 		ldm	r5, {r0, r1, r2}
 5892 0010 84E80700 		stm	r4, {r0, r1, r2}
 5893              		.loc 1 2168 0
 5894 0014 3046     		mov	r0, r6
 5895 0016 70BC     		pop	{r4, r5, r6}
 5896              		.cfi_restore 6
 5897              		.cfi_restore 5
 5898              		.cfi_restore 4
 5899              		.cfi_def_cfa_offset 0
 5900              	.LVL426:
 5901 0018 7047     		bx	lr
 5902              	.L478:
 5903 001a 00BF     		.align	2
 5904              	.L477:
 5905 001c 00000000 		.word	.LANCHOR6
 5906              		.cfi_endproc
 5907              	.LFE306:
 5908              		.size	mcpwm_get_rpm_dep, .-mcpwm_get_rpm_dep
 5909              		.section	.text.mcpwm_is_dccal_done,"ax",%progbits
 5910              		.align	1
 5911              		.p2align 4,,15
 5912              		.global	mcpwm_is_dccal_done
 5913              		.syntax unified
 5914              		.thumb
 5915              		.thumb_func
 5916              		.fpu fpv4-sp-d16
 5917              		.type	mcpwm_is_dccal_done, %function
 5918              	mcpwm_is_dccal_done:
 5919              	.LFB307:
 5920              		.loc 1 2170 0
 5921              		.cfi_startproc
 5922              		@ args = 0, pretend = 0, frame = 0
 5923              		@ frame_needed = 0, uses_anonymous_args = 0
 5924              		@ link register save eliminated.
 5925              		.loc 1 2171 0
 5926 0000 014B     		ldr	r3, .L480
 5927 0002 1878     		ldrb	r0, [r3]	@ zero_extendqisi2
 5928              		.loc 1 2172 0
ARM GAS  C:\Users\Grillmo\AppData\Local\Temp\ccnDcoCc.s 			page 105


 5929 0004 7047     		bx	lr
 5930              	.L481:
 5931 0006 00BF     		.align	2
 5932              	.L480:
 5933 0008 00000000 		.word	.LANCHOR44
 5934              		.cfi_endproc
 5935              	.LFE307:
 5936              		.size	mcpwm_is_dccal_done, .-mcpwm_is_dccal_done
 5937              		.section	.text.mcpwm_switch_comm_mode,"ax",%progbits
 5938              		.align	1
 5939              		.p2align 4,,15
 5940              		.global	mcpwm_switch_comm_mode
 5941              		.syntax unified
 5942              		.thumb
 5943              		.thumb_func
 5944              		.fpu fpv4-sp-d16
 5945              		.type	mcpwm_switch_comm_mode, %function
 5946              	mcpwm_switch_comm_mode:
 5947              	.LFB308:
 5948              		.loc 1 2174 0
 5949              		.cfi_startproc
 5950              		@ args = 0, pretend = 0, frame = 0
 5951              		@ frame_needed = 0, uses_anonymous_args = 0
 5952              		@ link register save eliminated.
 5953              	.LVL427:
 5954              		.loc 1 2175 0
 5955 0000 014B     		ldr	r3, .L483
 5956 0002 1870     		strb	r0, [r3]
 5957 0004 7047     		bx	lr
 5958              	.L484:
 5959 0006 00BF     		.align	2
 5960              	.L483:
 5961 0008 00000000 		.word	.LANCHOR19
 5962              		.cfi_endproc
 5963              	.LFE308:
 5964              		.size	mcpwm_switch_comm_mode, .-mcpwm_switch_comm_mode
 5965              		.section	.text.mcpwm_reset_hall_detect_table,"ax",%progbits
 5966              		.align	1
 5967              		.p2align 4,,15
 5968              		.global	mcpwm_reset_hall_detect_table
 5969              		.syntax unified
 5970              		.thumb
 5971              		.thumb_func
 5972              		.fpu fpv4-sp-d16
 5973              		.type	mcpwm_reset_hall_detect_table, %function
 5974              	mcpwm_reset_hall_detect_table:
 5975              	.LFB309:
 5976              		.loc 1 2181 0
 5977              		.cfi_startproc
 5978              		@ args = 0, pretend = 0, frame = 0
 5979              		@ frame_needed = 0, uses_anonymous_args = 0
 5980              		@ link register save eliminated.
 5981              		.loc 1 2182 0
 5982 0000 E022     		movs	r2, #224
 5983 0002 0021     		movs	r1, #0
 5984 0004 0148     		ldr	r0, .L486
 5985 0006 FFF7FEBF 		b	memset
ARM GAS  C:\Users\Grillmo\AppData\Local\Temp\ccnDcoCc.s 			page 106


 5986              	.LVL428:
 5987              	.L487:
 5988 000a 00BF     		.align	2
 5989              	.L486:
 5990 000c 00000000 		.word	.LANCHOR45
 5991              		.cfi_endproc
 5992              	.LFE309:
 5993              		.size	mcpwm_reset_hall_detect_table, .-mcpwm_reset_hall_detect_table
 5994              		.section	.text.mcpwm_get_hall_detect_result,"ax",%progbits
 5995              		.align	1
 5996              		.p2align 4,,15
 5997              		.global	mcpwm_get_hall_detect_result
 5998              		.syntax unified
 5999              		.thumb
 6000              		.thumb_func
 6001              		.fpu fpv4-sp-d16
 6002              		.type	mcpwm_get_hall_detect_result, %function
 6003              	mcpwm_get_hall_detect_result:
 6004              	.LFB310:
 6005              		.loc 1 2197 0
 6006              		.cfi_startproc
 6007              		@ args = 0, pretend = 0, frame = 32
 6008              		@ frame_needed = 0, uses_anonymous_args = 0
 6009              	.LVL429:
 6010              		.loc 1 2200 0
 6011 0000 284B     		ldr	r3, .L510
 6012 0002 1B68     		ldr	r3, [r3]
 6013 0004 93F85C31 		ldrb	r3, [r3, #348]	@ zero_extendqisi2
 6014 0008 002B     		cmp	r3, #0
 6015 000a 48D1     		bne	.L498
 6016              		.loc 1 2197 0
 6017 000c F0B5     		push	{r4, r5, r6, r7, lr}
 6018              		.cfi_def_cfa_offset 20
 6019              		.cfi_offset 4, -20
 6020              		.cfi_offset 5, -16
 6021              		.cfi_offset 6, -12
 6022              		.cfi_offset 7, -8
 6023              		.cfi_offset 14, -4
 6024 000e 264F     		ldr	r7, .L510+4
 6025 0010 89B0     		sub	sp, sp, #36
 6026              		.cfi_def_cfa_offset 56
 6027 0012 03F0FF06 		and	r6, r3, #255
 6028              	.L493:
 6029              	.LVL430:
 6030              		.loc 1 2197 0
 6031 0016 0123     		movs	r3, #1
 6032 0018 4FF0FF34 		mov	r4, #-1
 6033 001c 0021     		movs	r1, #0
 6034              	.LBB157:
 6035              	.LBB158:
 6036              	.LBB159:
 6037              		.loc 1 2208 0
 6038 001e C6EBC60E 		rsb	lr, r6, r6, lsl #3
 6039              	.LVL431:
 6040              	.L492:
 6041 0022 0EEB0302 		add	r2, lr, r3
 6042 0026 57F82250 		ldr	r5, [r7, r2, lsl #2]
ARM GAS  C:\Users\Grillmo\AppData\Local\Temp\ccnDcoCc.s 			page 107


 6043 002a 8D42     		cmp	r5, r1
 6044 002c 04DD     		ble	.L491
 6045              		.loc 1 2209 0
 6046 002e 57F82210 		ldr	r1, [r7, r2, lsl #2]
 6047              	.LVL432:
 6048 0032 0F29     		cmp	r1, #15
 6049 0034 C8BF     		it	gt
 6050 0036 1C46     		movgt	r4, r3
 6051              	.LVL433:
 6052              	.L491:
 6053              		.loc 1 2207 0 discriminator 2
 6054 0038 0133     		adds	r3, r3, #1
 6055              	.LVL434:
 6056 003a 072B     		cmp	r3, #7
 6057              		.loc 1 2214 0 discriminator 2
 6058 003c 8455     		strb	r4, [r0, r6]
 6059              		.loc 1 2207 0 discriminator 2
 6060 003e F0D1     		bne	.L492
 6061              	.LBE159:
 6062              	.LBE158:
 6063              		.loc 1 2204 0 discriminator 2
 6064 0040 0136     		adds	r6, r6, #1
 6065              	.LVL435:
 6066 0042 082E     		cmp	r6, #8
 6067 0044 E7D1     		bne	.L493
 6068              	.LVL436:
 6069              	.LBE157:
 6070              		.loc 1 2219 0
 6071 0046 0023     		movs	r3, #0
 6072              	.LVL437:
 6073              		.loc 1 2220 0
 6074 0048 1C46     		mov	r4, r3
 6075              	.LVL438:
 6076              		.loc 1 2219 0
 6077 004a 0193     		str	r3, [sp, #4]
 6078              		.loc 1 2218 0
 6079 004c 1D46     		mov	r5, r3
 6080              		.loc 1 2219 0
 6081 004e 0293     		str	r3, [sp, #8]
 6082 0050 0393     		str	r3, [sp, #12]
 6083 0052 0493     		str	r3, [sp, #16]
 6084 0054 0593     		str	r3, [sp, #20]
 6085 0056 0693     		str	r3, [sp, #24]
 6086 0058 0793     		str	r3, [sp, #28]
 6087              	.LVL439:
 6088              	.LBB160:
 6089              		.loc 1 2226 0
 6090 005a 0126     		movs	r6, #1
 6091              	.LVL440:
 6092 005c 431E     		subs	r3, r0, #1
 6093 005e 0730     		adds	r0, r0, #7
 6094              	.LVL441:
 6095 0060 07E0     		b	.L497
 6096              	.LVL442:
 6097              	.L495:
 6098              		.loc 1 2225 0
 6099 0062 51F81C2C 		ldr	r2, [r1, #-28]
ARM GAS  C:\Users\Grillmo\AppData\Local\Temp\ccnDcoCc.s 			page 108


 6100 0066 12B9     		cbnz	r2, .L496
 6101              		.loc 1 2226 0
 6102 0068 41F81C6C 		str	r6, [r1, #-28]
 6103              		.loc 1 2227 0
 6104 006c 0134     		adds	r4, r4, #1
 6105              	.LVL443:
 6106              	.L496:
 6107              		.loc 1 2221 0 discriminator 2
 6108 006e 9842     		cmp	r0, r3
 6109 0070 0AD0     		beq	.L509
 6110              	.LVL444:
 6111              	.L497:
 6112              		.loc 1 2222 0
 6113 0072 13F9012F 		ldrsb	r2, [r3, #1]!
 6114              	.LVL445:
 6115              		.loc 1 2225 0
 6116 0076 08A9     		add	r1, sp, #32
 6117 0078 01EB8201 		add	r1, r1, r2, lsl #2
 6118              		.loc 1 2222 0
 6119 007c 0132     		adds	r2, r2, #1
 6120 007e F0D1     		bne	.L495
 6121              		.loc 1 2221 0
 6122 0080 9842     		cmp	r0, r3
 6123              		.loc 1 2223 0
 6124 0082 05F10105 		add	r5, r5, #1
 6125              	.LVL446:
 6126              		.loc 1 2221 0
 6127 0086 F4D1     		bne	.L497
 6128              	.LVL447:
 6129              	.L509:
 6130              	.LBE160:
 6131              		.loc 1 2232 0
 6132 0088 022D     		cmp	r5, #2
 6133 008a 05D1     		bne	.L500
 6134              		.loc 1 2232 0 is_stmt 0 discriminator 1
 6135 008c A01F     		subs	r0, r4, #6
 6136              	.LVL448:
 6137 008e 18BF     		it	ne
 6138 0090 4FF0FF30 		movne	r0, #-1
 6139              	.L488:
 6140              		.loc 1 2237 0 is_stmt 1
 6141 0094 09B0     		add	sp, sp, #36
 6142              		.cfi_remember_state
 6143              		.cfi_def_cfa_offset 20
 6144              		@ sp needed
 6145 0096 F0BD     		pop	{r4, r5, r6, r7, pc}
 6146              	.LVL449:
 6147              	.L500:
 6148              		.cfi_restore_state
 6149              		.loc 1 2235 0
 6150 0098 4FF0FF30 		mov	r0, #-1
 6151 009c FAE7     		b	.L488
 6152              	.LVL450:
 6153              	.L498:
 6154              		.cfi_def_cfa_offset 0
 6155              		.cfi_restore 4
 6156              		.cfi_restore 5
ARM GAS  C:\Users\Grillmo\AppData\Local\Temp\ccnDcoCc.s 			page 109


 6157              		.cfi_restore 6
 6158              		.cfi_restore 7
 6159              		.cfi_restore 14
 6160              		.loc 1 2201 0
 6161 009e 6FF00200 		mvn	r0, #2
 6162              	.LVL451:
 6163 00a2 7047     		bx	lr
 6164              	.L511:
 6165              		.align	2
 6166              	.L510:
 6167 00a4 00000000 		.word	.LANCHOR0
 6168 00a8 00000000 		.word	.LANCHOR45
 6169              		.cfi_endproc
 6170              	.LFE310:
 6171              		.size	mcpwm_get_hall_detect_result, .-mcpwm_get_hall_detect_result
 6172              		.section	.text.mcpwm_read_hall_phase,"ax",%progbits
 6173              		.align	1
 6174              		.p2align 4,,15
 6175              		.global	mcpwm_read_hall_phase
 6176              		.syntax unified
 6177              		.thumb
 6178              		.thumb_func
 6179              		.fpu fpv4-sp-d16
 6180              		.type	mcpwm_read_hall_phase, %function
 6181              	mcpwm_read_hall_phase:
 6182              	.LFB311:
 6183              		.loc 1 2244 0
 6184              		.cfi_startproc
 6185              		@ args = 0, pretend = 0, frame = 0
 6186              		@ frame_needed = 0, uses_anonymous_args = 0
 6187              		@ link register save eliminated.
 6188              	.LBB161:
 6189              	.LBB162:
 6190              		.loc 1 2249 0
 6191 0000 0E4B     		ldr	r3, .L516
 6192 0002 0F4A     		ldr	r2, .L516+4
 6193 0004 1969     		ldr	r1, [r3, #16]
 6194              	.LBE162:
 6195              	.LBE161:
 6196              		.loc 1 2245 0
 6197 0006 0F48     		ldr	r0, .L516+8
 6198              	.LBB167:
 6199              	.LBB163:
 6200              		.loc 1 2249 0
 6201 0008 1B69     		ldr	r3, [r3, #16]
 6202 000a 1269     		ldr	r2, [r2, #16]
 6203              	.LBE163:
 6204              	.LBE167:
 6205              		.loc 1 2244 0
 6206 000c 10B4     		push	{r4}
 6207              		.cfi_def_cfa_offset 4
 6208              		.cfi_offset 4, -4
 6209              	.LBB168:
 6210              	.LBB164:
 6211              		.loc 1 2249 0
 6212 000e 9B09     		lsrs	r3, r3, #6
 6213              	.LBE164:
ARM GAS  C:\Users\Grillmo\AppData\Local\Temp\ccnDcoCc.s 			page 110


 6214              	.LBE168:
 6215              		.loc 1 2245 0
 6216 0010 0468     		ldr	r4, [r0]
 6217 0012 0D48     		ldr	r0, .L516+12
 6218              	.LBB169:
 6219              	.LBB165:
 6220              		.loc 1 2249 0
 6221 0014 520A     		lsrs	r2, r2, #9
 6222 0016 02F00402 		and	r2, r2, #4
 6223 001a 03F00203 		and	r3, r3, #2
 6224 001e 1343     		orrs	r3, r3, r2
 6225              	.LBE165:
 6226              	.LBE169:
 6227              		.loc 1 2245 0
 6228 0020 002C     		cmp	r4, #0
 6229              	.LBB170:
 6230              	.LBB166:
 6231              		.loc 1 2249 0
 6232 0022 C1F38011 		ubfx	r1, r1, #6, #1
 6233 0026 43EA0103 		orr	r3, r3, r1
 6234              	.LBE166:
 6235              	.LBE170:
 6236              		.loc 1 2245 0
 6237 002a 14BF     		ite	ne
 6238 002c 0822     		movne	r2, #8
 6239 002e 0022     		moveq	r2, #0
 6240 0030 1344     		add	r3, r3, r2
 6241              		.loc 1 2246 0
 6242 0032 5DF8044B 		ldr	r4, [sp], #4
 6243              		.cfi_restore 4
 6244              		.cfi_def_cfa_offset 0
 6245 0036 50F82300 		ldr	r0, [r0, r3, lsl #2]
 6246 003a 7047     		bx	lr
 6247              	.L517:
 6248              		.align	2
 6249              	.L516:
 6250 003c 00040240 		.word	1073873920
 6251 0040 00080240 		.word	1073874944
 6252 0044 00000000 		.word	.LANCHOR4
 6253 0048 00000000 		.word	.LANCHOR31
 6254              		.cfi_endproc
 6255              	.LFE311:
 6256              		.size	mcpwm_read_hall_phase, .-mcpwm_read_hall_phase
 6257              		.section	.text.set_duty_cycle_ll,"ax",%progbits
 6258              		.align	1
 6259              		.p2align 4,,15
 6260              		.syntax unified
 6261              		.thumb
 6262              		.thumb_func
 6263              		.fpu fpv4-sp-d16
 6264              		.type	set_duty_cycle_ll, %function
 6265              	set_duty_cycle_ll:
 6266              	.LFB291:
 6267              		.loc 1 1001 0
 6268              		.cfi_startproc
 6269              		@ args = 0, pretend = 0, frame = 0
 6270              		@ frame_needed = 0, uses_anonymous_args = 0
ARM GAS  C:\Users\Grillmo\AppData\Local\Temp\ccnDcoCc.s 			page 111


 6271              	.LVL452:
 6272 0000 38B5     		push	{r3, r4, r5, lr}
 6273              		.cfi_def_cfa_offset 16
 6274              		.cfi_offset 3, -16
 6275              		.cfi_offset 4, -12
 6276              		.cfi_offset 5, -8
 6277              		.cfi_offset 14, -4
 6278              		.loc 1 1002 0
 6279 0002 5E4D     		ldr	r5, .L570
 6280 0004 2B68     		ldr	r3, [r5]
 6281 0006 D3ED157A 		vldr.32	s15, [r3, #84]
 6282 000a F4EEC07A 		vcmpe.f32	s15, s0
 6283 000e F1EE10FA 		vmrs	APSR_nzcv, FPSCR
 6284 0012 22D8     		bhi	.L560
 6285              		.loc 1 1003 0
 6286 0014 5A4A     		ldr	r2, .L570+4
 6287 0016 0121     		movs	r1, #1
 6288 0018 1160     		str	r1, [r2]
 6289              	.L521:
 6290              		.loc 1 1009 0
 6291 001a D3ED157A 		vldr.32	s15, [r3, #84]
 6292 001e B4EEE70A 		vcmpe.f32	s0, s15
 6293 0022 F1EE10FA 		vmrs	APSR_nzcv, FPSCR
 6294 0026 2DD5     		bpl	.L561
 6295              	.L568:
 6296              	.LBB171:
 6297              		.loc 1 1012 0
 6298 0028 564A     		ldr	r2, .L570+8
 6299 002a 1178     		ldrb	r1, [r2]	@ zero_extendqisi2
 6300 002c 0229     		cmp	r1, #2
 6301 002e 62D0     		beq	.L525
 6302              		.loc 1 1013 0 discriminator 1
 6303 0030 1178     		ldrb	r1, [r2]	@ zero_extendqisi2
 6304              		.loc 1 1012 0 discriminator 1
 6305 0032 0329     		cmp	r1, #3
 6306 0034 5FD0     		beq	.L525
 6307              		.loc 1 1014 0
 6308 0036 1278     		ldrb	r2, [r2]	@ zero_extendqisi2
 6309              		.loc 1 1013 0
 6310 0038 012A     		cmp	r2, #1
 6311 003a 5CD0     		beq	.L525
 6312              		.loc 1 1023 0
 6313 003c 524C     		ldr	r4, .L570+12
 6314              		.loc 1 1020 0
 6315 003e D3ED097A 		vldr.32	s15, [r3, #36]
 6316              	.LVL453:
 6317              		.loc 1 1023 0
 6318 0042 2278     		ldrb	r2, [r4]	@ zero_extendqisi2
 6319 0044 D2B2     		uxtb	r2, r2
 6320 0046 012A     		cmp	r2, #1
 6321 0048 5CD1     		bne	.L567
 6322              	.L529:
 6323              	.LBB172:
 6324              	.LBB173:
 6325              		.loc 1 886 0
 6326 004a 504A     		ldr	r2, .L570+16
 6327              		.loc 1 885 0
ARM GAS  C:\Users\Grillmo\AppData\Local\Temp\ccnDcoCc.s 			page 112


 6328 004c 0023     		movs	r3, #0
 6329 004e 2370     		strb	r3, [r4]
 6330              		.loc 1 886 0
 6331 0050 1360     		str	r3, [r2]
 6332              	.LBE173:
 6333              	.LBE172:
 6334              	.LBE171:
 6335              		.loc 1 1077 0
 6336 0052 BDE83840 		pop	{r3, r4, r5, lr}
 6337              		.cfi_remember_state
 6338              		.cfi_restore 14
 6339              		.cfi_restore 5
 6340              		.cfi_restore 4
 6341              		.cfi_restore 3
 6342              		.cfi_def_cfa_offset 0
 6343              	.LBB180:
 6344              	.LBB175:
 6345              	.LBB174:
 6346              		.loc 1 887 0
 6347 0056 FFF7FEBF 		b	stop_pwm_hw
 6348              	.LVL454:
 6349              	.L560:
 6350              		.cfi_restore_state
 6351              	.LBE174:
 6352              	.LBE175:
 6353              	.LBE180:
 6354              		.loc 1 1004 0
 6355 005a D3ED157A 		vldr.32	s15, [r3, #84]
 6356 005e F1EE677A 		vneg.f32	s15, s15
 6357 0062 B4EEE70A 		vcmpe.f32	s0, s15
 6358 0066 F1EE10FA 		vmrs	APSR_nzcv, FPSCR
 6359 006a D6D8     		bhi	.L521
 6360              		.loc 1 1006 0
 6361 006c 444A     		ldr	r2, .L570+4
 6362 006e 0021     		movs	r1, #0
 6363 0070 1160     		str	r1, [r2]
 6364              		.loc 1 1009 0
 6365 0072 D3ED157A 		vldr.32	s15, [r3, #84]
 6366              		.loc 1 1005 0
 6367 0076 B1EE400A 		vneg.f32	s0, s0
 6368              	.LVL455:
 6369              		.loc 1 1009 0
 6370 007a B4EEE70A 		vcmpe.f32	s0, s15
 6371 007e F1EE10FA 		vmrs	APSR_nzcv, FPSCR
 6372 0082 D1D4     		bmi	.L568
 6373              	.L561:
 6374              		.loc 1 1042 0
 6375 0084 D3ED167A 		vldr.32	s15, [r3, #88]
 6376 0088 3F4C     		ldr	r4, .L570+12
 6377 008a B4EEE70A 		vcmpe.f32	s0, s15
 6378 008e F1EE10FA 		vmrs	APSR_nzcv, FPSCR
 6379              		.loc 1 1043 0
 6380 0092 C8BF     		it	gt
 6381 0094 93ED160A 		vldrgt.32	s0, [r3, #88]
 6382              	.LVL456:
 6383              	.L533:
 6384              		.loc 1 1046 0
ARM GAS  C:\Users\Grillmo\AppData\Local\Temp\ccnDcoCc.s 			page 113


 6385 0098 FFF7FEFF 		bl	set_duty_cycle_hw
 6386              	.LVL457:
 6387              		.loc 1 1048 0
 6388 009c 2B68     		ldr	r3, [r5]
 6389 009e 9D78     		ldrb	r5, [r3, #2]	@ zero_extendqisi2
 6390 00a0 EDB2     		uxtb	r5, r5
 6391 00a2 012D     		cmp	r5, #1
 6392 00a4 5DD0     		beq	.L569
 6393              		.loc 1 1053 0
 6394 00a6 3A4A     		ldr	r2, .L570+20
 6395 00a8 1278     		ldrb	r2, [r2]	@ zero_extendqisi2
 6396 00aa 9AB1     		cbz	r2, .L536
 6397              		.loc 1 1054 0
 6398 00ac 2278     		ldrb	r2, [r4]	@ zero_extendqisi2
 6399 00ae 022A     		cmp	r2, #2
 6400 00b0 0FD0     		beq	.L518
 6401              		.loc 1 1055 0
 6402 00b2 2278     		ldrb	r2, [r4]	@ zero_extendqisi2
 6403 00b4 AABB     		cbnz	r2, .L538
 6404              		.loc 1 1056 0
 6405 00b6 0221     		movs	r1, #2
 6406              		.loc 1 1058 0
 6407 00b8 364A     		ldr	r2, .L570+24
 6408              		.loc 1 1056 0
 6409 00ba 2170     		strb	r1, [r4]
 6410              		.loc 1 1058 0
 6411 00bc D2ED007A 		vldr.32	s15, [r2]
 6412 00c0 93ED1F7A 		vldr.32	s14, [r3, #124]
 6413 00c4 F0EEE77A 		vabs.f32	s15, s15
 6414 00c8 F4EEC77A 		vcmpe.f32	s15, s14
 6415 00cc F1EE10FA 		vmrs	APSR_nzcv, FPSCR
 6416 00d0 0CD4     		bmi	.L566
 6417              	.L518:
 6418 00d2 38BD     		pop	{r3, r4, r5, pc}
 6419              	.L536:
 6420              		.loc 1 1069 0
 6421 00d4 2378     		ldrb	r3, [r4]	@ zero_extendqisi2
 6422 00d6 022B     		cmp	r3, #2
 6423 00d8 FBD0     		beq	.L518
 6424              		.loc 1 1070 0
 6425 00da 0223     		movs	r3, #2
 6426 00dc 2370     		strb	r3, [r4]
 6427              		.loc 1 1071 0
 6428 00de FFF7FEFF 		bl	mcpwm_read_hall_phase
 6429              	.LVL458:
 6430 00e2 2D4B     		ldr	r3, .L570+28
 6431 00e4 1860     		str	r0, [r3]
 6432              	.L565:
 6433              		.loc 1 1072 0
 6434 00e6 1868     		ldr	r0, [r3]
 6435 00e8 FFF7FEFF 		bl	set_next_comm_step
 6436              	.LVL459:
 6437              	.L566:
 6438              		.loc 1 1073 0
 6439 00ec 0120     		movs	r0, #1
 6440              		.loc 1 1077 0
 6441 00ee BDE83840 		pop	{r3, r4, r5, lr}
ARM GAS  C:\Users\Grillmo\AppData\Local\Temp\ccnDcoCc.s 			page 114


 6442              		.cfi_remember_state
 6443              		.cfi_restore 14
 6444              		.cfi_restore 5
 6445              		.cfi_restore 4
 6446              		.cfi_restore 3
 6447              		.cfi_def_cfa_offset 0
 6448              		.loc 1 1073 0
 6449 00f2 FFF7FEBF 		b	commutate
 6450              	.LVL460:
 6451              	.L525:
 6452              		.cfi_restore_state
 6453              	.LBB181:
 6454              		.loc 1 1023 0
 6455 00f6 244C     		ldr	r4, .L570+12
 6456              		.loc 1 1018 0
 6457 00f8 D3ED0A7A 		vldr.32	s15, [r3, #40]
 6458              	.LVL461:
 6459              		.loc 1 1023 0
 6460 00fc 2278     		ldrb	r2, [r4]	@ zero_extendqisi2
 6461 00fe D2B2     		uxtb	r2, r2
 6462 0100 012A     		cmp	r2, #1
 6463 0102 A2D0     		beq	.L529
 6464              	.L567:
 6465 0104 022A     		cmp	r2, #2
 6466 0106 E4D1     		bne	.L518
 6467              		.loc 1 1026 0
 6468 0108 224A     		ldr	r2, .L570+24
 6469 010a 92ED007A 		vldr.32	s14, [r2]
 6470 010e B0EEC77A 		vabs.f32	s14, s14
 6471 0112 F4EEC77A 		vcmpe.f32	s15, s14
 6472 0116 F1EE10FA 		vmrs	APSR_nzcv, FPSCR
 6473 011a 26D5     		bpl	.L562
 6474              		.loc 1 1027 0
 6475 011c 93ED150A 		vldr.32	s0, [r3, #84]
 6476              	.LVL462:
 6477              		.loc 1 1032 0
 6478 0120 BAE7     		b	.L533
 6479              	.LVL463:
 6480              	.L538:
 6481              	.LBE181:
 6482              		.loc 1 1061 0
 6483 0122 2278     		ldrb	r2, [r4]	@ zero_extendqisi2
 6484 0124 032A     		cmp	r2, #3
 6485 0126 D4D1     		bne	.L518
 6486              		.loc 1 1062 0
 6487 0128 1A4A     		ldr	r2, .L570+24
 6488 012a D2ED007A 		vldr.32	s15, [r2]
 6489 012e 93ED1F7A 		vldr.32	s14, [r3, #124]
 6490 0132 F0EEE77A 		vabs.f32	s15, s15
 6491 0136 F4EEC77A 		vcmpe.f32	s15, s14
 6492 013a F1EE10FA 		vmrs	APSR_nzcv, FPSCR
 6493 013e C8D5     		bpl	.L518
 6494              	.LBB182:
 6495              	.LBB183:
 6496              		.loc 1 788 0
 6497 0140 164A     		ldr	r2, .L570+32
 6498 0142 D2ED007A 		vldr.32	s15, [r2]
ARM GAS  C:\Users\Grillmo\AppData\Local\Temp\ccnDcoCc.s 			page 115


 6499              	.LBE183:
 6500              	.LBE182:
 6501              		.loc 1 1062 0
 6502 0146 93ED217A 		vldr.32	s14, [r3, #132]
 6503 014a B4EEE77A 		vcmpe.f32	s14, s15
 6504 014e F1EE10FA 		vmrs	APSR_nzcv, FPSCR
 6505 0152 BEDD     		ble	.L518
 6506              		.loc 1 1063 0
 6507 0154 0223     		movs	r3, #2
 6508 0156 2370     		strb	r3, [r4]
 6509              		.loc 1 1064 0
 6510 0158 0120     		movs	r0, #1
 6511              		.loc 1 1077 0
 6512 015a BDE83840 		pop	{r3, r4, r5, lr}
 6513              		.cfi_remember_state
 6514              		.cfi_restore 14
 6515              		.cfi_restore 5
 6516              		.cfi_restore 4
 6517              		.cfi_restore 3
 6518              		.cfi_def_cfa_offset 0
 6519              		.loc 1 1064 0
 6520 015e FFF7FEBF 		b	commutate
 6521              	.LVL464:
 6522              	.L569:
 6523              		.cfi_restore_state
 6524              		.loc 1 1049 0
 6525 0162 0222     		movs	r2, #2
 6526              		.loc 1 1050 0
 6527 0164 0C4B     		ldr	r3, .L570+28
 6528              		.loc 1 1049 0
 6529 0166 2270     		strb	r2, [r4]
 6530 0168 BDE7     		b	.L565
 6531              	.LVL465:
 6532              	.L562:
 6533              	.LBB184:
 6534              	.LBB176:
 6535              	.LBB177:
 6536              		.loc 1 914 0
 6537 016a 084B     		ldr	r3, .L570+16
 6538              		.loc 1 913 0
 6539 016c 0321     		movs	r1, #3
 6540              		.loc 1 914 0
 6541 016e 0022     		movs	r2, #0
 6542              		.loc 1 913 0
 6543 0170 2170     		strb	r1, [r4]
 6544              		.loc 1 914 0
 6545 0172 1A60     		str	r2, [r3]
 6546              	.LBE177:
 6547              	.LBE176:
 6548              	.LBE184:
 6549              		.loc 1 1077 0
 6550 0174 BDE83840 		pop	{r3, r4, r5, lr}
 6551              		.cfi_restore 14
 6552              		.cfi_restore 5
 6553              		.cfi_restore 4
 6554              		.cfi_restore 3
 6555              		.cfi_def_cfa_offset 0
ARM GAS  C:\Users\Grillmo\AppData\Local\Temp\ccnDcoCc.s 			page 116


 6556              	.LBB185:
 6557              	.LBB179:
 6558              	.LBB178:
 6559              		.loc 1 915 0
 6560 0178 FFF7FEBF 		b	full_brake_hw
