ARM GAS  /var/tmp//ccoqQk7W.s 			page 1


   1              		.cpu cortex-m4
   2              		.eabi_attribute 27, 1
   3              		.eabi_attribute 28, 1
   4              		.eabi_attribute 20, 1
   5              		.eabi_attribute 21, 1
   6              		.eabi_attribute 23, 3
   7              		.eabi_attribute 24, 1
   8              		.eabi_attribute 25, 1
   9              		.eabi_attribute 26, 1
  10              		.eabi_attribute 30, 2
  11              		.eabi_attribute 34, 1
  12              		.eabi_attribute 18, 4
  13              		.file	"mcpwm_foc.c"
  14              		.text
  15              	.Ltext0:
  16              		.cfi_sections	.debug_frame
  17              		.section	.text.correct_encoder,"ax",%progbits
  18              		.align	1
  19              		.p2align 4,,15
  20              		.syntax unified
  21              		.thumb
  22              		.thumb_func
  23              		.fpu fpv4-sp-d16
  24              		.type	correct_encoder, %function
  25              	correct_encoder:
  26              	.LFB316:
  27              		.file 1 "mcpwm_foc.c"
  28              		.loc 1 2564 0
  29              		.cfi_startproc
  30              		@ args = 0, pretend = 0, frame = 0
  31              		@ frame_needed = 0, uses_anonymous_args = 0
  32              		@ link register save eliminated.
  33              	.LVL0:
  34              		.loc 1 2565 0
  35 0000 DFED146A 		vldr.32	s13, .L12
  36              		.loc 1 2569 0
  37 0004 144B     		ldr	r3, .L12+4
  38              		.loc 1 2570 0
  39 0006 154A     		ldr	r2, .L12+8
  40              		.loc 1 2569 0
  41 0008 1B68     		ldr	r3, [r3]
  42 000a 9FED157A 		vldr.32	s14, .L12+12
  43 000e D3ED417A 		vldr.32	s15, [r3, #260]
  44              		.loc 1 2570 0
  45 0012 1178     		ldrb	r1, [r2]	@ zero_extendqisi2
  46              		.loc 1 2565 0
  47 0014 81EE261A 		vdiv.f32	s2, s2, s13
  48              	.LVL1:
  49              		.loc 1 2569 0
  50 0018 67EE877A 		vmul.f32	s15, s15, s14
  51              		.loc 1 2565 0
  52 001c B0EEC11A 		vabs.f32	s2, s2
  53              	.LVL2:
  54              		.loc 1 2571 0
  55 0020 93ED417A 		vldr.32	s14, [r3, #260]
  56              		.loc 1 2570 0
  57 0024 49B1     		cbz	r1, .L2
ARM GAS  /var/tmp//ccoqQk7W.s 			page 2


  58              		.loc 1 2571 0
  59 0026 77EE877A 		vadd.f32	s15, s15, s14
  60              	.LVL3:
  61 002a B4EEE71A 		vcmpe.f32	s2, s15
  62 002e F1EE10FA 		vmrs	APSR_nzcv, FPSCR
  63 0032 0CDC     		bgt	.L11
  64              	.L3:
  65              		.loc 1 2580 0
  66 0034 B0EE600A 		vmov.f32	s0, s1
  67              	.LVL4:
  68              	.L1:
  69              		.loc 1 2581 0
  70 0038 7047     		bx	lr
  71              	.LVL5:
  72              	.L2:
  73              		.loc 1 2575 0
  74 003a 77EE677A 		vsub.f32	s15, s14, s15
  75              	.LVL6:
  76 003e B4EEE71A 		vcmpe.f32	s2, s15
  77 0042 F1EE10FA 		vmrs	APSR_nzcv, FPSCR
  78 0046 F7D5     		bpl	.L1
  79              		.loc 1 2576 0
  80 0048 0123     		movs	r3, #1
  81 004a 1370     		strb	r3, [r2]
  82 004c F2E7     		b	.L3
  83              	.L11:
  84              		.loc 1 2572 0
  85 004e 0023     		movs	r3, #0
  86 0050 1370     		strb	r3, [r2]
  87 0052 7047     		bx	lr
  88              	.L13:
  89              		.align	2
  90              	.L12:
  91 0054 5077D63D 		.word	1037465424
  92 0058 00000000 		.word	.LANCHOR0
  93 005c 00000000 		.word	.LANCHOR1
  94 0060 CDCC4C3D 		.word	1028443341
  95              		.cfi_endproc
  96              	.LFE316:
  97              		.size	correct_encoder, .-correct_encoder
  98              		.section	.text.start_pwm_hw,"ax",%progbits
  99              		.align	1
 100              		.p2align 4,,15
 101              		.syntax unified
 102              		.thumb
 103              		.thumb_func
 104              		.fpu fpv4-sp-d16
 105              		.type	start_pwm_hw, %function
 106              	start_pwm_hw:
 107              	.LFB314:
 108              		.loc 1 2524 0
 109              		.cfi_startproc
 110              		@ args = 0, pretend = 0, frame = 0
 111              		@ frame_needed = 0, uses_anonymous_args = 0
 112 0000 10B5     		push	{r4, lr}
 113              		.cfi_def_cfa_offset 8
 114              		.cfi_offset 4, -8
ARM GAS  /var/tmp//ccoqQk7W.s 			page 3


 115              		.cfi_offset 14, -4
 116              		.loc 1 2525 0
 117 0002 194C     		ldr	r4, .L16
 118 0004 6022     		movs	r2, #96
 119 0006 2046     		mov	r0, r4
 120 0008 0021     		movs	r1, #0
 121 000a FFF7FEFF 		bl	TIM_SelectOCxM
 122              	.LVL7:
 123              		.loc 1 2526 0
 124 000e 2046     		mov	r0, r4
 125 0010 0122     		movs	r2, #1
 126 0012 0021     		movs	r1, #0
 127 0014 FFF7FEFF 		bl	TIM_CCxCmd
 128              	.LVL8:
 129              		.loc 1 2527 0
 130 0018 2046     		mov	r0, r4
 131 001a 0422     		movs	r2, #4
 132 001c 0021     		movs	r1, #0
 133 001e FFF7FEFF 		bl	TIM_CCxNCmd
 134              	.LVL9:
 135              		.loc 1 2529 0
 136 0022 2046     		mov	r0, r4
 137 0024 6022     		movs	r2, #96
 138 0026 0421     		movs	r1, #4
 139 0028 FFF7FEFF 		bl	TIM_SelectOCxM
 140              	.LVL10:
 141              		.loc 1 2530 0
 142 002c 2046     		mov	r0, r4
 143 002e 0122     		movs	r2, #1
 144 0030 0421     		movs	r1, #4
 145 0032 FFF7FEFF 		bl	TIM_CCxCmd
 146              	.LVL11:
 147              		.loc 1 2531 0
 148 0036 0422     		movs	r2, #4
 149 0038 1146     		mov	r1, r2
 150 003a 2046     		mov	r0, r4
 151 003c FFF7FEFF 		bl	TIM_CCxNCmd
 152              	.LVL12:
 153              		.loc 1 2533 0
 154 0040 2046     		mov	r0, r4
 155 0042 6022     		movs	r2, #96
 156 0044 0821     		movs	r1, #8
 157 0046 FFF7FEFF 		bl	TIM_SelectOCxM
 158              	.LVL13:
 159              		.loc 1 2534 0
 160 004a 2046     		mov	r0, r4
 161 004c 0122     		movs	r2, #1
 162 004e 0821     		movs	r1, #8
 163 0050 FFF7FEFF 		bl	TIM_CCxCmd
 164              	.LVL14:
 165              		.loc 1 2535 0
 166 0054 0422     		movs	r2, #4
 167 0056 2046     		mov	r0, r4
 168 0058 0821     		movs	r1, #8
 169 005a FFF7FEFF 		bl	TIM_CCxNCmd
 170              	.LVL15:
 171              		.loc 1 2543 0
ARM GAS  /var/tmp//ccoqQk7W.s 			page 4


 172 005e 034B     		ldr	r3, .L16+4
 173 0060 0122     		movs	r2, #1
 174 0062 1A70     		strb	r2, [r3]
 175 0064 10BD     		pop	{r4, pc}
 176              	.L17:
 177 0066 00BF     		.align	2
 178              	.L16:
 179 0068 00000140 		.word	1073807360
 180 006c 00000000 		.word	.LANCHOR2
 181              		.cfi_endproc
 182              	.LFE314:
 183              		.size	start_pwm_hw, .-start_pwm_hw
 184              		.section	.text.stop_pwm_hw,"ax",%progbits
 185              		.align	1
 186              		.p2align 4,,15
 187              		.syntax unified
 188              		.thumb
 189              		.thumb_func
 190              		.fpu fpv4-sp-d16
 191              		.type	stop_pwm_hw, %function
 192              	stop_pwm_hw:
 193              	.LFB313:
 194              		.loc 1 2503 0
 195              		.cfi_startproc
 196              		@ args = 0, pretend = 0, frame = 0
 197              		@ frame_needed = 0, uses_anonymous_args = 0
 198 0000 10B5     		push	{r4, lr}
 199              		.cfi_def_cfa_offset 8
 200              		.cfi_offset 4, -8
 201              		.cfi_offset 14, -4
 202              		.loc 1 2504 0
 203 0002 1B4C     		ldr	r4, .L20
 204 0004 4022     		movs	r2, #64
 205 0006 2046     		mov	r0, r4
 206 0008 0021     		movs	r1, #0
 207 000a FFF7FEFF 		bl	TIM_SelectOCxM
 208              	.LVL16:
 209              		.loc 1 2505 0
 210 000e 2046     		mov	r0, r4
 211 0010 0122     		movs	r2, #1
 212 0012 0021     		movs	r1, #0
 213 0014 FFF7FEFF 		bl	TIM_CCxCmd
 214              	.LVL17:
 215              		.loc 1 2506 0
 216 0018 0022     		movs	r2, #0
 217 001a 1146     		mov	r1, r2
 218 001c 2046     		mov	r0, r4
 219 001e FFF7FEFF 		bl	TIM_CCxNCmd
 220              	.LVL18:
 221              		.loc 1 2508 0
 222 0022 2046     		mov	r0, r4
 223 0024 4022     		movs	r2, #64
 224 0026 0421     		movs	r1, #4
 225 0028 FFF7FEFF 		bl	TIM_SelectOCxM
 226              	.LVL19:
 227              		.loc 1 2509 0
 228 002c 2046     		mov	r0, r4
ARM GAS  /var/tmp//ccoqQk7W.s 			page 5


 229 002e 0122     		movs	r2, #1
 230 0030 0421     		movs	r1, #4
 231 0032 FFF7FEFF 		bl	TIM_CCxCmd
 232              	.LVL20:
 233              		.loc 1 2510 0
 234 0036 2046     		mov	r0, r4
 235 0038 0022     		movs	r2, #0
 236 003a 0421     		movs	r1, #4
 237 003c FFF7FEFF 		bl	TIM_CCxNCmd
 238              	.LVL21:
 239              		.loc 1 2512 0
 240 0040 2046     		mov	r0, r4
 241 0042 4022     		movs	r2, #64
 242 0044 0821     		movs	r1, #8
 243 0046 FFF7FEFF 		bl	TIM_SelectOCxM
 244              	.LVL22:
 245              		.loc 1 2513 0
 246 004a 2046     		mov	r0, r4
 247 004c 0122     		movs	r2, #1
 248 004e 0821     		movs	r1, #8
 249 0050 FFF7FEFF 		bl	TIM_CCxCmd
 250              	.LVL23:
 251              		.loc 1 2514 0
 252 0054 0022     		movs	r2, #0
 253 0056 2046     		mov	r0, r4
 254 0058 0821     		movs	r1, #8
 255 005a FFF7FEFF 		bl	TIM_CCxNCmd
 256              	.LVL24:
 257              		.loc 1 2516 0
 258 005e 2046     		mov	r0, r4
 259 0060 2021     		movs	r1, #32
 260 0062 FFF7FEFF 		bl	TIM_GenerateEvent
 261              	.LVL25:
 262              		.loc 1 2521 0
 263 0066 034B     		ldr	r3, .L20+4
 264 0068 0022     		movs	r2, #0
 265 006a 1A70     		strb	r2, [r3]
 266 006c 10BD     		pop	{r4, pc}
 267              	.L21:
 268 006e 00BF     		.align	2
 269              	.L20:
 270 0070 00000140 		.word	1073807360
 271 0074 00000000 		.word	.LANCHOR2
 272              		.cfi_endproc
 273              	.LFE313:
 274              		.size	stop_pwm_hw, .-stop_pwm_hw
 275              		.section	.text.read_hall,"ax",%progbits
 276              		.align	1
 277              		.p2align 4,,15
 278              		.syntax unified
 279              		.thumb
 280              		.thumb_func
 281              		.fpu fpv4-sp-d16
 282              		.type	read_hall, %function
 283              	read_hall:
 284              	.LFB315:
 285              		.loc 1 2546 0
ARM GAS  /var/tmp//ccoqQk7W.s 			page 6


 286              		.cfi_startproc
 287              		@ args = 0, pretend = 0, frame = 0
 288              		@ frame_needed = 0, uses_anonymous_args = 0
 289 0000 2DE9F047 		push	{r4, r5, r6, r7, r8, r9, r10, lr}
 290              		.cfi_def_cfa_offset 32
 291              		.cfi_offset 4, -32
 292              		.cfi_offset 5, -28
 293              		.cfi_offset 6, -24
 294              		.cfi_offset 7, -20
 295              		.cfi_offset 8, -16
 296              		.cfi_offset 9, -12
 297              		.cfi_offset 10, -8
 298              		.cfi_offset 14, -4
 299              		.loc 1 2547 0
 300 0004 164B     		ldr	r3, .L24
 301              		.loc 1 2549 0
 302 0006 174C     		ldr	r4, .L24+4
 303              		.loc 1 2547 0
 304 0008 1869     		ldr	r0, [r3, #16]
 305              	.LVL26:
 306              		.loc 1 2548 0
 307 000a 1D69     		ldr	r5, [r3, #16]
 308              	.LVL27:
 309              		.loc 1 2549 0
 310 000c 2669     		ldr	r6, [r4, #16]
 311              	.LVL28:
 312              		.loc 1 2551 0
 313 000e 1969     		ldr	r1, [r3, #16]
 314              	.LVL29:
 315              		.loc 1 2552 0
 316 0010 D3F81090 		ldr	r9, [r3, #16]
 317              	.LVL30:
 318              		.loc 1 2553 0
 319 0014 2769     		ldr	r7, [r4, #16]
 320              	.LVL31:
 321              		.loc 1 2555 0
 322 0016 1A69     		ldr	r2, [r3, #16]
 323              	.LVL32:
 324              		.loc 1 2556 0
 325 0018 D3F810A0 		ldr	r10, [r3, #16]
 326              	.LVL33:
 327              		.loc 1 2557 0
 328 001c D4F81080 		ldr	r8, [r4, #16]
 329              	.LVL34:
 330              		.loc 1 2559 0
 331 0020 C1F38011 		ubfx	r1, r1, #6, #1
 332              	.LVL35:
 333 0024 C2F38012 		ubfx	r2, r2, #6, #1
 334              	.LVL36:
 335 0028 C0F38010 		ubfx	r0, r0, #6, #1
 336              	.LVL37:
 337 002c FFF7FEFF 		bl	utils_middle_of_3_int
 338              	.LVL38:
 339              		.loc 1 2560 0
 340 0030 CAF3C012 		ubfx	r2, r10, #7, #1
 341              		.loc 1 2559 0
 342 0034 0446     		mov	r4, r0
ARM GAS  /var/tmp//ccoqQk7W.s 			page 7


 343              		.loc 1 2560 0
 344 0036 C9F3C011 		ubfx	r1, r9, #7, #1
 345 003a C5F3C010 		ubfx	r0, r5, #7, #1
 346 003e FFF7FEFF 		bl	utils_middle_of_3_int
 347              	.LVL39:
 348              		.loc 1 2561 0
 349 0042 C8F3C022 		ubfx	r2, r8, #11, #1
 350              		.loc 1 2560 0
 351 0046 0546     		mov	r5, r0
 352              	.LVL40:
 353              		.loc 1 2561 0
 354 0048 C7F3C021 		ubfx	r1, r7, #11, #1
 355 004c C6F3C020 		ubfx	r0, r6, #11, #1
 356 0050 FFF7FEFF 		bl	utils_middle_of_3_int
 357              	.LVL41:
 358 0054 8000     		lsls	r0, r0, #2
 359              		.loc 1 2560 0
 360 0056 40EA4500 		orr	r0, r0, r5, lsl #1
 361              		.loc 1 2562 0
 362 005a 2043     		orrs	r0, r0, r4
 363 005c BDE8F087 		pop	{r4, r5, r6, r7, r8, r9, r10, pc}
 364              	.LVL42:
 365              	.L25:
 366              		.align	2
 367              	.L24:
 368 0060 00040240 		.word	1073873920
 369 0064 00080240 		.word	1073874944
 370              		.cfi_endproc
 371              	.LFE315:
 372              		.size	read_hall, .-read_hall
 373              		.section	.text.correct_hall,"ax",%progbits
 374              		.align	1
 375              		.p2align 4,,15
 376              		.syntax unified
 377              		.thumb
 378              		.thumb_func
 379              		.fpu fpv4-sp-d16
 380              		.type	correct_hall, %function
 381              	correct_hall:
 382              	.LFB317:
 383              		.loc 1 2583 0
 384              		.cfi_startproc
 385              		@ args = 0, pretend = 0, frame = 0
 386              		@ frame_needed = 0, uses_anonymous_args = 0
 387              	.LVL43:
 388 0000 F8B5     		push	{r3, r4, r5, r6, r7, lr}
 389              		.cfi_def_cfa_offset 24
 390              		.cfi_offset 3, -24
 391              		.cfi_offset 4, -20
 392              		.cfi_offset 5, -16
 393              		.cfi_offset 6, -12
 394              		.cfi_offset 7, -8
 395              		.cfi_offset 14, -4
 396              		.loc 1 2585 0
 397 0002 DFED6B6A 		vldr.32	s13, .L64
 398              		.loc 1 2589 0
 399 0006 6B4A     		ldr	r2, .L64+4
ARM GAS  /var/tmp//ccoqQk7W.s 			page 8


 400              		.loc 1 2590 0
 401 0008 6B4B     		ldr	r3, .L64+8
 402              		.loc 1 2589 0
 403 000a 1568     		ldr	r5, [r2]
 404 000c 9FED6B7A 		vldr.32	s14, .L64+12
 405 0010 D5ED417A 		vldr.32	s15, [r5, #260]
 406              		.loc 1 2590 0
 407 0014 1A78     		ldrb	r2, [r3]	@ zero_extendqisi2
 408              		.loc 1 2583 0
 409 0016 2DED028B 		vpush.64	{d8}
 410              		.cfi_def_cfa_offset 32
 411              		.cfi_offset 80, -32
 412              		.cfi_offset 81, -28
 413              		.loc 1 2585 0
 414 001a 80EEA68A 		vdiv.f32	s16, s1, s13
 415              		.loc 1 2589 0
 416 001e 67EE877A 		vmul.f32	s15, s15, s14
 417              		.loc 1 2585 0
 418 0022 B0EEC88A 		vabs.f32	s16, s16
 419              	.LVL44:
 420              		.loc 1 2591 0
 421 0026 95ED417A 		vldr.32	s14, [r5, #260]
 422              		.loc 1 2590 0
 423 002a 7AB1     		cbz	r2, .L27
 424              		.loc 1 2591 0
 425 002c 77EE877A 		vadd.f32	s15, s15, s14
 426              	.LVL45:
 427 0030 B4EEE78A 		vcmpe.f32	s16, s15
 428 0034 F1EE10FA 		vmrs	APSR_nzcv, FPSCR
 429 0038 11DD     		ble	.L28
 430              		.loc 1 2592 0
 431 003a 0022     		movs	r2, #0
 432 003c 1A70     		strb	r2, [r3]
 433              	.L30:
 434              		.loc 1 2663 0
 435 003e 604B     		ldr	r3, .L64+16
 436 0040 6FF00102 		mvn	r2, #1
 437 0044 1A60     		str	r2, [r3]
 438              	.LVL46:
 439              	.L26:
 440              		.loc 1 2667 0
 441 0046 BDEC028B 		vldm	sp!, {d8}
 442              		.cfi_remember_state
 443              		.cfi_restore 80
 444              		.cfi_restore 81
 445              		.cfi_def_cfa_offset 24
 446              	.LVL47:
 447 004a F8BD     		pop	{r3, r4, r5, r6, r7, pc}
 448              	.LVL48:
 449              	.L27:
 450              		.cfi_restore_state
 451              		.loc 1 2595 0
 452 004c 77EE677A 		vsub.f32	s15, s14, s15
 453              	.LVL49:
 454 0050 B4EEE78A 		vcmpe.f32	s16, s15
 455 0054 F1EE10FA 		vmrs	APSR_nzcv, FPSCR
 456 0058 F1D5     		bpl	.L30
ARM GAS  /var/tmp//ccoqQk7W.s 			page 9


 457              		.loc 1 2596 0
 458 005a 0122     		movs	r2, #1
 459 005c 1A70     		strb	r2, [r3]
 460              	.L28:
 461 005e 11EE107A 		vmov	r7, s2
 462 0062 10EE104A 		vmov	r4, s0
 463 0066 10EE906A 		vmov	r6, s1
 464              	.LBB12:
 465              		.loc 1 2601 0
 466 006a FFF7FEFF 		bl	read_hall
 467              	.LVL50:
 468 006e 2844     		add	r0, r0, r5
 469 0070 90F8F930 		ldrb	r3, [r0, #249]	@ zero_extendqisi2
 470 0074 DBB2     		uxtb	r3, r3
 471              	.LVL51:
 472              		.loc 1 2604 0
 473 0076 C82B     		cmp	r3, #200
 474 0078 50DC     		bgt	.L59
 475              	.LBB13:
 476              		.loc 1 2606 0
 477 007a 07EE903A 		vmov	s15, r3	@ int
 478 007e DFED515A 		vldr.32	s11, .L64+20
 479 0082 9FED516A 		vldr.32	s12, .L64+24
 480              		.loc 1 2608 0
 481 0086 4E49     		ldr	r1, .L64+16
 482              		.loc 1 2606 0
 483 0088 9FED507A 		vldr.32	s14, .L64+28
 484              		.loc 1 2608 0
 485 008c 0A68     		ldr	r2, [r1]
 486              		.loc 1 2606 0
 487 008e DFED506A 		vldr.32	s13, .L64+32
 488 0092 B8EEE75A 		vcvt.f32.s32	s10, s15
 489              		.loc 1 2608 0
 490 0096 002A     		cmp	r2, #0
 491              		.loc 1 2606 0
 492 0098 C5EE257A 		vdiv.f32	s15, s10, s11
 493 009c 67EE867A 		vmul.f32	s15, s15, s12
 494 00a0 67EE877A 		vmul.f32	s15, s15, s14
 495 00a4 C7EEA60A 		vdiv.f32	s1, s15, s13
 496              	.LVL52:
 497              		.loc 1 2608 0
 498 00a8 6EDB     		blt	.L60
 499              		.loc 1 2619 0
 500 00aa 9342     		cmp	r3, r2
 501 00ac 70D0     		beq	.L61
 502              	.LBB14:
 503              		.loc 1 2621 0
 504 00ae 981A     		subs	r0, r3, r2
 505 00b0 0028     		cmp	r0, #0
 506 00b2 B8BF     		it	lt
 507 00b4 4042     		rsblt	r0, r0, #0
 508              	.LVL53:
 509              		.loc 1 2622 0
 510 00b6 6328     		cmp	r0, #99
 511 00b8 40DD     		ble	.L62
 512              		.loc 1 2624 0
 513 00ba 6428     		cmp	r0, #100
ARM GAS  /var/tmp//ccoqQk7W.s 			page 10


 514 00bc 19D0     		beq	.L35
 515              	.LVL54:
 516              		.loc 1 2625 0
 517 00be 1A44     		add	r2, r2, r3
 518              	.LVL55:
 519 00c0 02EBD272 		add	r2, r2, r2, lsr #31
 520 00c4 5210     		asrs	r2, r2, #1
 521 00c6 434C     		ldr	r4, .L64+36
 522              	.LVL56:
 523 00c8 6432     		adds	r2, r2, #100
 524 00ca 84FB0204 		smull	r0, r4, r4, r2
 525 00ce D017     		asrs	r0, r2, #31
 526 00d0 C0EBA410 		rsb	r0, r0, r4, asr #6
 527 00d4 C824     		movs	r4, #200
 528 00d6 04FB1022 		mls	r2, r4, r0, r2
 529              	.LVL57:
 530              	.L57:
 531 00da 07EE902A 		vmov	s15, r2	@ int
 532 00de F8EEE77A 		vcvt.f32.s32	s15, s15
 533 00e2 87EEA55A 		vdiv.f32	s10, s15, s11
 534 00e6 25EE066A 		vmul.f32	s12, s10, s12
 535 00ea 26EE076A 		vmul.f32	s12, s12, s14
 536 00ee 86EE267A 		vdiv.f32	s14, s12, s13
 537              	.L35:
 538              		.loc 1 2628 0
 539 00f2 394C     		ldr	r4, .L64+40
 540 00f4 84ED007A 		vstr.32	s14, [r4]
 541              	.L33:
 542              	.LBE14:
 543              		.loc 1 2633 0
 544 00f8 DFED388A 		vldr.32	s17, .L64+44
 545              		.loc 1 2631 0
 546 00fc 0B60     		str	r3, [r1]
 547              		.loc 1 2633 0
 548 00fe B4EEE88A 		vcmpe.f32	s16, s17
 549 0102 F1EE10FA 		vmrs	APSR_nzcv, FPSCR
 550 0106 27D5     		bpl	.L53
 551              		.loc 1 2635 0
 552 0108 C4ED000A 		vstr.32	s1, [r4]
 553              	.LVL58:
 554              	.L38:
 555              		.loc 1 2648 0
 556 010c 3248     		ldr	r0, .L64+40
 557 010e FFF7FEFF 		bl	utils_norm_angle_rad
 558              	.LVL59:
 559              	.LBE13:
 560              	.LBE12:
 561              		.loc 1 2667 0
 562 0112 BDEC028B 		vldm	sp!, {d8}
 563              		.cfi_remember_state
 564              		.cfi_restore 80
 565              		.cfi_restore 81
 566              		.cfi_def_cfa_offset 24
 567              	.LVL60:
 568              	.LBB21:
 569              	.LBB18:
 570              		.loc 1 2649 0
ARM GAS  /var/tmp//ccoqQk7W.s 			page 11


 571 0116 94ED000A 		vldr.32	s0, [r4]
 572              	.LVL61:
 573              	.LBE18:
 574              	.LBE21:
 575              		.loc 1 2667 0
 576 011a F8BD     		pop	{r3, r4, r5, r6, r7, pc}
 577              	.LVL62:
 578              	.L59:
 579              		.cfi_restore_state
 580              	.LBB22:
 581              		.loc 1 2657 0
 582 011c 304B     		ldr	r3, .L64+48
 583              	.LVL63:
 584              		.loc 1 2652 0
 585 011e 284A     		ldr	r2, .L64+16
 586              		.loc 1 2657 0
 587 0120 1B78     		ldrb	r3, [r3]	@ zero_extendqisi2
 588              		.loc 1 2652 0
 589 0122 4FF0FF31 		mov	r1, #-1
 590 0126 1160     		str	r1, [r2]
 591              		.loc 1 2657 0
 592 0128 1BB1     		cbz	r3, .L46
 593              		.loc 1 2657 0 is_stmt 0 discriminator 1
 594 012a 2E4B     		ldr	r3, .L64+52
 595 012c 1B78     		ldrb	r3, [r3]	@ zero_extendqisi2
 596 012e 022B     		cmp	r3, #2
 597 0130 30D0     		beq	.L63
 598              	.L46:
 599              	.LBE22:
 600              		.loc 1 2667 0 is_stmt 1
 601 0132 BDEC028B 		vldm	sp!, {d8}
 602              		.cfi_remember_state
 603              		.cfi_restore 80
 604              		.cfi_restore 81
 605              		.cfi_def_cfa_offset 24
 606              	.LVL64:
 607              	.LBB23:
 608 0136 00EE104A 		vmov	s0, r4
 609              	.LBE23:
 610 013a F8BD     		pop	{r3, r4, r5, r6, r7, pc}
 611              	.LVL65:
 612              	.L62:
 613              		.cfi_restore_state
 614              	.LBB24:
 615              	.LBB19:
 616              	.LBB15:
 617              		.loc 1 2623 0
 618 013c 1A44     		add	r2, r2, r3
 619              	.LVL66:
 620 013e 02EBD272 		add	r2, r2, r2, lsr #31
 621 0142 2448     		ldr	r0, .L64+36
 622 0144 5410     		asrs	r4, r2, #1
 623              	.LVL67:
 624 0146 80FB0450 		smull	r5, r0, r0, r4
 625 014a D217     		asrs	r2, r2, #31
 626 014c C2EBA012 		rsb	r2, r2, r0, asr #6
 627 0150 C820     		movs	r0, #200
ARM GAS  /var/tmp//ccoqQk7W.s 			page 12


 628 0152 00FB1242 		mls	r2, r0, r2, r4
 629 0156 C0E7     		b	.L57
 630              	.LVL68:
 631              	.L53:
 632              	.LBE15:
 633              	.LBB16:
 634              		.loc 1 2638 0
 635 0158 94ED000A 		vldr.32	s0, [r4]
 636 015c FFF7FEFF 		bl	utils_angle_difference_rad
 637              	.LVL69:
 638              		.loc 1 2639 0
 639 0160 DFED217A 		vldr.32	s15, .L64+56
 640 0164 B0EEC07A 		vabs.f32	s14, s0
 641 0168 B4EEE77A 		vcmpe.f32	s14, s15
 642 016c F1EE10FA 		vmrs	APSR_nzcv, FPSCR
 643 0170 14D5     		bpl	.L54
 644              		.loc 1 2641 0
 645 0172 D4ED007A 		vldr.32	s15, [r4]
 646 0176 07EE106A 		vmov	s14, r6
 647 017a 06EE907A 		vmov	s13, r7
 648 017e E7EE267A 		vfma.f32	s15, s14, s13
 649 0182 C4ED007A 		vstr.32	s15, [r4]
 650 0186 C1E7     		b	.L38
 651              	.LVL70:
 652              	.L60:
 653              	.LBE16:
 654              		.loc 1 2617 0
 655 0188 134C     		ldr	r4, .L64+40
 656              	.LVL71:
 657 018a C4ED000A 		vstr.32	s1, [r4]
 658 018e B3E7     		b	.L33
 659              	.LVL72:
 660              	.L61:
 661 0190 114C     		ldr	r4, .L64+40
 662              	.LVL73:
 663 0192 B1E7     		b	.L33
 664              	.LVL74:
 665              	.L63:
 666              	.LBE19:
 667              		.loc 1 2658 0
 668 0194 154B     		ldr	r3, .L64+60
 669 0196 93ED000A 		vldr.32	s0, [r3]
 670              	.LVL75:
 671 019a 54E7     		b	.L26
 672              	.LVL76:
 673              	.L54:
 674              	.LBB20:
 675              	.LBB17:
 676              		.loc 1 2644 0
 677 019c 80EE287A 		vdiv.f32	s14, s0, s17
 678 01a0 D4ED007A 		vldr.32	s15, [r4]
 679 01a4 77EEC77A 		vsub.f32	s15, s15, s14
 680 01a8 C4ED007A 		vstr.32	s15, [r4]
 681 01ac AEE7     		b	.L38
 682              	.L65:
 683 01ae 00BF     		.align	2
 684              	.L64:
ARM GAS  /var/tmp//ccoqQk7W.s 			page 13


 685 01b0 5077D63D 		.word	1037465424
 686 01b4 00000000 		.word	.LANCHOR0
 687 01b8 00000000 		.word	.LANCHOR3
 688 01bc CDCCCC3D 		.word	1036831949
 689 01c0 00000000 		.word	.LANCHOR4
 690 01c4 00004843 		.word	1128792064
 691 01c8 0000B443 		.word	1135869952
 692 01cc DB0F4940 		.word	1078530011
 693 01d0 00003443 		.word	1127481344
 694 01d4 1F85EB51 		.word	1374389535
 695 01d8 00000000 		.word	.LANCHOR5
 696 01dc 0000C842 		.word	1120403456
 697 01e0 00000000 		.word	.LANCHOR6
 698 01e4 00000000 		.word	.LANCHOR7
 699 01e8 920A063F 		.word	1057360530
 700 01ec 00000000 		.word	.LANCHOR8
 701              	.LBE17:
 702              	.LBE20:
 703              	.LBE24:
 704              		.cfi_endproc
 705              	.LFE317:
 706              		.size	correct_hall, .-correct_hall
 707              		.section	.text.timer_thread,"ax",%progbits
 708              		.align	1
 709              		.p2align 4,,15
 710              		.syntax unified
 711              		.thumb
 712              		.thumb_func
 713              		.fpu fpv4-sp-d16
 714              		.type	timer_thread, %function
 715              	timer_thread:
 716              	.LFB305:
 717              		.loc 1 1949 0
 718              		.cfi_startproc
 719              		@ args = 0, pretend = 0, frame = 32
 720              		@ frame_needed = 0, uses_anonymous_args = 0
 721              	.LVL77:
 722              	.LBB33:
 723              	.LBB34:
 724              		.file 2 "ChibiOS_3.0.2/os/rt/include/chregistry.h"
 725              		.loc 2 135 0
 726 0000 C44B     		ldr	r3, .L140
 727 0002 C549     		ldr	r1, .L140+4
 728 0004 9A69     		ldr	r2, [r3, #24]
 729              	.LBE34:
 730              	.LBE33:
 731              	.LBB36:
 732              		.loc 1 1955 0
 733 0006 C54B     		ldr	r3, .L140+8
 734              	.LBE36:
 735              	.LBB49:
 736              	.LBB35:
 737              		.loc 2 135 0
 738 0008 9161     		str	r1, [r2, #24]
 739              	.LBE35:
 740              	.LBE49:
 741              	.LBB50:
ARM GAS  /var/tmp//ccoqQk7W.s 			page 14


 742              		.loc 1 1955 0
 743 000a 1B78     		ldrb	r3, [r3]	@ zero_extendqisi2
 744 000c 002B     		cmp	r3, #0
 745 000e 40F01F82 		bne	.L125
 746              	.LBE50:
 747              		.loc 1 1949 0
 748 0012 2DE9F04F 		push	{r4, r5, r6, r7, r8, r9, r10, fp, lr}
 749              		.cfi_def_cfa_offset 36
 750              		.cfi_offset 4, -36
 751              		.cfi_offset 5, -32
 752              		.cfi_offset 6, -28
 753              		.cfi_offset 7, -24
 754              		.cfi_offset 8, -20
 755              		.cfi_offset 9, -16
 756              		.cfi_offset 10, -12
 757              		.cfi_offset 11, -8
 758              		.cfi_offset 14, -4
 759 0016 2DED0A8B 		vpush.64	{d8, d9, d10, d11, d12}
 760              		.cfi_def_cfa_offset 76
 761              		.cfi_offset 80, -76
 762              		.cfi_offset 81, -72
 763              		.cfi_offset 82, -68
 764              		.cfi_offset 83, -64
 765              		.cfi_offset 84, -60
 766              		.cfi_offset 85, -56
 767              		.cfi_offset 86, -52
 768              		.cfi_offset 87, -48
 769              		.cfi_offset 88, -44
 770              		.cfi_offset 89, -40
 771 001a C14C     		ldr	r4, .L140+12
 772 001c C14D     		ldr	r5, .L140+16
 773 001e DFF83CA3 		ldr	r10, .L140+72
 774 0022 C14E     		ldr	r6, .L140+20
 775 0024 DFF84C93 		ldr	r9, .L140+96
 776 0028 DFF84CB3 		ldr	fp, .L140+100
 777 002c BF4F     		ldr	r7, .L140+24
 778 002e DFF81883 		ldr	r8, .L140+52
 779              	.LBB51:
 780              		.loc 1 1960 0
 781 0032 9FEDBF8A 		vldr.32	s16, .L140+28
 782              		.loc 1 1967 0
 783 0036 9FEDBFAA 		vldr.32	s20, .L140+32
 784 003a DFEDBF9A 		vldr.32	s19, .L140+36
 785              		.loc 1 1975 0
 786 003e 9FEDBF9A 		vldr.32	s18, .L140+40
 787              		.loc 1 1996 0
 788 0042 DFEDBFAA 		vldr.32	s21, .L140+44
 789              	.LBE51:
 790              		.loc 1 1949 0
 791 0046 89B0     		sub	sp, sp, #36
 792              		.cfi_def_cfa_offset 112
 793 0048 81E0     		b	.L67
 794              	.LVL78:
 795              	.L135:
 796              	.LBB52:
 797              		.loc 1 1990 0
 798 004a 99F80030 		ldrb	r3, [r9]	@ zero_extendqisi2
ARM GAS  /var/tmp//ccoqQk7W.s 			page 15


 799              		.loc 1 1984 0
 800 004e 77EE897A 		vadd.f32	s15, s15, s18
 801              		.loc 1 1990 0
 802 0052 032B     		cmp	r3, #3
 803              		.loc 1 1984 0
 804 0054 C6ED007A 		vstr.32	s15, [r6]
 805              		.loc 1 1990 0
 806 0058 00F0CA80 		beq	.L75
 807              	.L136:
 808              		.loc 1 1990 0 is_stmt 0 discriminator 1
 809 005c D4ED037A 		vldr.32	s15, [r4, #12]
 810 0060 F0EEE77A 		vabs.f32	s15, s15
 811 0064 F4EEC97A 		vcmpe.f32	s15, s18
 812 0068 F1EE10FA 		vmrs	APSR_nzcv, FPSCR
 813 006c 00F1C080 		bmi	.L75
 814 0070 96ED007A 		vldr.32	s14, [r6]
 815              	.L76:
 816              	.LVL79:
 817              		.loc 1 1996 0 is_stmt 1
 818 0074 2B68     		ldr	r3, [r5]
 819 0076 D3ED3A7A 		vldr.32	s15, [r3, #232]
 820 007a F4EEC77A 		vcmpe.f32	s15, s14
 821 007e F1EE10FA 		vmrs	APSR_nzcv, FPSCR
 822 0082 D7ED007A 		vldr.32	s15, [r7]
 823 0086 40F1BB80 		bpl	.L79
 824              		.loc 1 1996 0 is_stmt 0 discriminator 1
 825 008a F4EEEA7A 		vcmpe.f32	s15, s21
 826 008e F1EE10FA 		vmrs	APSR_nzcv, FPSCR
 827 0092 00F2B580 		bhi	.L79
 828              		.loc 1 1997 0 is_stmt 1
 829 0096 D3ED3B7A 		vldr.32	s15, [r3, #236]
 830              		.loc 1 2001 0
 831 009a F5EEC07A 		vcmpe.f32	s15, #0
 832 009e F1EE10FA 		vmrs	APSR_nzcv, FPSCR
 833              		.loc 1 1997 0
 834 00a2 C7ED007A 		vstr.32	s15, [r7]
 835              	.LVL80:
 836              		.loc 1 2001 0
 837 00a6 40F3B780 		ble	.L82
 838              		.loc 1 2002 0
 839 00aa D8ED007A 		vldr.32	s15, [r8]
 840 00ae 78EEA78A 		vadd.f32	s17, s17, s15
 841              	.LVL81:
 842 00b2 C8ED008A 		vstr.32	s17, [r8]
 843              		.loc 1 2007 0
 844 00b6 D4ED037A 		vldr.32	s15, [r4, #12]
 845 00ba F5EEC07A 		vcmpe.f32	s15, #0
 846 00be F1EE10FA 		vmrs	APSR_nzcv, FPSCR
 847 00c2 40F31581 		ble	.L132
 848              		.loc 1 2008 0
 849 00c6 98ED007A 		vldr.32	s14, [r8]
 850 00ca DFED9E7A 		vldr.32	s15, .L140+48
 851 00ce 77EE277A 		vadd.f32	s15, s14, s15
 852 00d2 C8ED007A 		vstr.32	s15, [r8]
 853              	.LVL82:
 854              	.L83:
 855              		.loc 1 2014 0
ARM GAS  /var/tmp//ccoqQk7W.s 			page 16


 856 00d6 9C48     		ldr	r0, .L140+52
 857 00d8 FFF7FEFF 		bl	utils_norm_angle_rad
 858              	.LVL83:
 859              		.loc 1 2015 0
 860 00dc 0123     		movs	r3, #1
 861              		.loc 1 2024 0
 862 00de 9B4A     		ldr	r2, .L140+56
 863              		.loc 1 2016 0
 864 00e0 D7ED007A 		vldr.32	s15, [r7]
 865              		.loc 1 2015 0
 866 00e4 8BF80030 		strb	r3, [fp]
 867              		.loc 1 2024 0
 868 00e8 1278     		ldrb	r2, [r2]	@ zero_extendqisi2
 869              		.loc 1 2017 0
 870 00ea 86ED008A 		vstr.32	s16, [r6]
 871              		.loc 1 2016 0
 872 00ee 77EEC97A 		vsub.f32	s15, s15, s18
 873              		.loc 1 2024 0
 874 00f2 022A     		cmp	r2, #2
 875              		.loc 1 2016 0
 876 00f4 C7ED007A 		vstr.32	s15, [r7]
 877 00f8 2B68     		ldr	r3, [r5]
 878              		.loc 1 2024 0
 879 00fa 00F09980 		beq	.L133
 880              	.L85:
 881              		.loc 1 2036 0
 882 00fe 94ED030A 		vldr.32	s0, [r4, #12]
 883              		.loc 1 2037 0
 884 0102 D3ED331A 		vldr.32	s3, [r3, #204]
 885 0106 D3ED347A 		vldr.32	s15, [r3, #208]
 886              		.loc 1 2036 0
 887 010a 93ED332A 		vldr.32	s4, [r3, #204]
 888 010e B0EEC00A 		vabs.f32	s0, s0
 889 0112 61EEA71A 		vmul.f32	s3, s3, s15
 890 0116 B7EE001A 		vmov.f32	s2, #1.0e+0
 891 011a F0EE480A 		vmov.f32	s1, s16
 892 011e FFF7FEFF 		bl	utils_map
 893              	.LVL84:
 894 0122 8B4B     		ldr	r3, .L140+60
 895 0124 83ED000A 		vstr.32	s0, [r3]
 896              	.LVL85:
 897              	.LBB37:
 898              	.LBB38:
 899              		.loc 1 2458 0
 900 0128 99F80030 		ldrb	r3, [r9]	@ zero_extendqisi2
 901 012c 012B     		cmp	r3, #1
 902 012e 00F0C080 		beq	.L88
 903              		.loc 1 2459 0
 904 0132 884B     		ldr	r3, .L140+64
 905 0134 83ED008A 		vstr.32	s16, [r3]
 906              		.loc 1 2460 0
 907 0138 874B     		ldr	r3, .L140+68
 908 013a 83ED008A 		vstr.32	s16, [r3]
 909              	.LVL86:
 910              	.L98:
 911              	.LBE38:
 912              	.LBE37:
ARM GAS  /var/tmp//ccoqQk7W.s 			page 17


 913              		.loc 1 2040 0
 914 013e 0A20     		movs	r0, #10
 915 0140 FFF7FEFF 		bl	chThdSleep
 916              	.LVL87:
 917              		.loc 1 1955 0
 918 0144 754B     		ldr	r3, .L140+8
 919 0146 1B78     		ldrb	r3, [r3]	@ zero_extendqisi2
 920 0148 002B     		cmp	r3, #0
 921 014a 40F0DA80 		bne	.L134
 922              	.LVL88:
 923              	.L67:
 924              		.loc 1 1961 0
 925 014e 2B68     		ldr	r3, [r5]
 926              		.loc 1 1960 0
 927 0150 94ED010A 		vldr.32	s0, [r4, #4]
 928 0154 DFED760A 		vldr.32	s1, .L140+28
 929 0158 93ED011A 		vldr.32	s2, [r3, #4]
 930 015c 93ED392A 		vldr.32	s4, [r3, #228]
 931 0160 F0EE481A 		vmov.f32	s3, s16
 932 0164 B0EEC00A 		vabs.f32	s0, s0
 933 0168 FFF7FEFF 		bl	utils_map
 934              	.LVL89:
 935              		.loc 1 1964 0
 936 016c 2B68     		ldr	r3, [r5]
 937              		.loc 1 1960 0
 938 016e 8DED020A 		vstr.32	s0, [sp, #8]
 939              		.loc 1 1964 0
 940 0172 D3ED397A 		vldr.32	s15, [r3, #228]
 941 0176 02A8     		add	r0, sp, #8
 942 0178 B0EE670A 		vmov.f32	s0, s15
 943 017c FFF7FEFF 		bl	utils_truncate_number_abs
 944              	.LVL90:
 945              		.loc 1 1967 0
 946 0180 DDED027A 		vldr.32	s15, [sp, #8]
 947              		.loc 1 1972 0
 948 0184 94ED037A 		vldr.32	s14, [r4, #12]
 949              		.loc 1 1980 0
 950 0188 7448     		ldr	r0, .L140+72
 951              		.loc 1 1967 0
 952 018a 77EEA77A 		vadd.f32	s15, s15, s15
 953              		.loc 1 1972 0
 954 018e B5EEC07A 		vcmpe.f32	s14, #0
 955              		.loc 1 1967 0
 956 0192 67EE8A7A 		vmul.f32	s15, s15, s20
 957              		.loc 1 1972 0
 958 0196 F1EE10FA 		vmrs	APSR_nzcv, FPSCR
 959              		.loc 1 1967 0
 960 019a 87EEA9BA 		vdiv.f32	s22, s15, s19
 961              	.LVL91:
 962              		.loc 1 1979 0
 963 019e DAED007A 		vldr.32	s15, [r10]
 964              		.loc 1 1973 0
 965 01a2 CCBF     		ite	gt
 966 01a4 6BEE098A 		vmulgt.f32	s17, s22, s18
 967              	.LVL92:
 968              		.loc 1 1975 0
 969 01a8 6BEE498A 		vnmulle.f32	s17, s22, s18
ARM GAS  /var/tmp//ccoqQk7W.s 			page 18


 970              	.LVL93:
 971              		.loc 1 1979 0
 972 01ac 78EEA77A 		vadd.f32	s15, s17, s15
 973 01b0 CAED007A 		vstr.32	s15, [r10]
 974              		.loc 1 1980 0
 975 01b4 FFF7FEFF 		bl	utils_norm_angle_rad
 976              	.LVL94:
 977              		.loc 1 1983 0
 978 01b8 694B     		ldr	r3, .L140+76
 979 01ba D3ED007A 		vldr.32	s15, [r3]
 980 01be F0EEE77A 		vabs.f32	s15, s15
 981 01c2 B4EEE7BA 		vcmpe.f32	s22, s15
 982 01c6 F1EE10FA 		vmrs	APSR_nzcv, FPSCR
 983              		.loc 1 1984 0
 984 01ca D6ED007A 		vldr.32	s15, [r6]
 985              		.loc 1 1983 0
 986 01ce 3FF73CAF 		bgt	.L135
 987              		.loc 1 1985 0
 988 01d2 F5EEC07A 		vcmpe.f32	s15, #0
 989 01d6 F1EE10FA 		vmrs	APSR_nzcv, FPSCR
 990              		.loc 1 1986 0
 991 01da C8BF     		it	gt
 992 01dc 77EEC97A 		vsubgt.f32	s15, s15, s18
 993              		.loc 1 1990 0
 994 01e0 99F80030 		ldrb	r3, [r9]	@ zero_extendqisi2
 995              		.loc 1 1986 0
 996 01e4 C8BF     		it	gt
 997 01e6 C6ED007A 		vstrgt.32	s15, [r6]
 998              		.loc 1 1990 0
 999 01ea 032B     		cmp	r3, #3
 1000 01ec 7FF436AF 		bne	.L136
 1001              	.L75:
 1002              		.loc 1 1992 0
 1003 01f0 0023     		movs	r3, #0
 1004 01f2 B0EE487A 		vmov.f32	s14, s16
 1005              		.loc 1 1991 0
 1006 01f6 86ED008A 		vstr.32	s16, [r6]
 1007              		.loc 1 1992 0
 1008 01fa 8BF80030 		strb	r3, [fp]
 1009 01fe 39E7     		b	.L76
 1010              	.LVL95:
 1011              	.L79:
 1012              		.loc 1 2001 0
 1013 0200 F5EEC07A 		vcmpe.f32	s15, #0
 1014 0204 F1EE10FA 		vmrs	APSR_nzcv, FPSCR
 1015 0208 06DD     		ble	.L82
 1016              		.loc 1 2002 0
 1017 020a D8ED007A 		vldr.32	s15, [r8]
 1018 020e 78EEA78A 		vadd.f32	s17, s17, s15
 1019              	.LVL96:
 1020 0212 C8ED008A 		vstr.32	s17, [r8]
 1021 0216 5EE7     		b	.L83
 1022              	.LVL97:
 1023              	.L82:
 1024              		.loc 1 2019 0
 1025 0218 524A     		ldr	r2, .L140+80
 1026 021a 1168     		ldr	r1, [r2]	@ float
ARM GAS  /var/tmp//ccoqQk7W.s 			page 19


 1027 021c C8F80010 		str	r1, [r8]	@ float
 1028              		.loc 1 2020 0
 1029 0220 0022     		movs	r2, #0
 1030 0222 8BF80020 		strb	r2, [fp]
 1031              		.loc 1 2024 0
 1032 0226 494A     		ldr	r2, .L140+56
 1033 0228 1278     		ldrb	r2, [r2]	@ zero_extendqisi2
 1034 022a 022A     		cmp	r2, #2
 1035 022c 7FF467AF 		bne	.L85
 1036              	.LVL98:
 1037              	.L133:
 1038              	.LBB45:
 1039              		.loc 1 2025 0
 1040 0230 E26C     		ldr	r2, [r4, #76]	@ float
 1041 0232 0392     		str	r2, [sp, #12]	@ float
 1042              		.loc 1 2026 0
 1043 0234 226D     		ldr	r2, [r4, #80]	@ float
 1044 0236 0492     		str	r2, [sp, #16]	@ float
 1045              		.loc 1 2027 0
 1046 0238 E26B     		ldr	r2, [r4, #60]	@ float
 1047 023a 0592     		str	r2, [sp, #20]	@ float
 1048              		.loc 1 2028 0
 1049 023c 226C     		ldr	r2, [r4, #64]	@ float
 1050 023e 0692     		str	r2, [sp, #24]	@ float
 1051              		.loc 1 2030 0
 1052 0240 DDED056A 		vldr.32	s13, [sp, #20]
 1053 0244 9DED057A 		vldr.32	s14, [sp, #20]
 1054 0248 DDED067A 		vldr.32	s15, [sp, #24]
 1055 024c 9DED060A 		vldr.32	s0, [sp, #24]
 1056 0250 27EE800A 		vmul.f32	s0, s15, s0
 1057 0254 A6EE870A 		vfma.f32	s0, s13, s14
 1058 0258 B5EE400A 		vcmp.f32	s0, #0
 1059 025c F1EE10FA 		vmrs	APSR_nzcv, FPSCR
 1060 0260 F1EEC08A 		vsqrt.f32	s17, s0
 1061 0264 00F1F880 		bmi	.L137
 1062              	.L86:
 1063 0268 3F4A     		ldr	r2, .L140+84
 1064 026a D2ED017A 		vldr.32	s15, [r2, #4]
 1065 026e 78EEA78A 		vadd.f32	s17, s17, s15
 1066 0272 C2ED018A 		vstr.32	s17, [r2, #4]
 1067              		.loc 1 2031 0
 1068 0276 DDED036A 		vldr.32	s13, [sp, #12]
 1069 027a 9DED037A 		vldr.32	s14, [sp, #12]
 1070 027e DDED047A 		vldr.32	s15, [sp, #16]
 1071 0282 9DED040A 		vldr.32	s0, [sp, #16]
 1072 0286 27EE800A 		vmul.f32	s0, s15, s0
 1073 028a A6EE870A 		vfma.f32	s0, s13, s14
 1074 028e B5EE400A 		vcmp.f32	s0, #0
 1075 0292 F1EE10FA 		vmrs	APSR_nzcv, FPSCR
 1076 0296 F1EEC08A 		vsqrt.f32	s17, s0
 1077 029a 00F1E280 		bmi	.L138
 1078              	.L87:
 1079 029e D2ED027A 		vldr.32	s15, [r2, #8]
 1080 02a2 78EEA78A 		vadd.f32	s17, s17, s15
 1081 02a6 C2ED028A 		vstr.32	s17, [r2, #8]
 1082              		.loc 1 2032 0
 1083 02aa 1168     		ldr	r1, [r2]
ARM GAS  /var/tmp//ccoqQk7W.s 			page 20


 1084 02ac 0131     		adds	r1, r1, #1
 1085 02ae 1160     		str	r1, [r2]
 1086 02b0 25E7     		b	.L85
 1087              	.LVL99:
 1088              	.L88:
 1089              	.LBE45:
 1090              	.LBB46:
 1091              	.LBB43:
 1092              	.LBB39:
 1093              	.LBB40:
 1094              		.loc 1 720 0
 1095 02b2 2B4B     		ldr	r3, .L140+76
 1096 02b4 DFED2D6A 		vldr.32	s13, .L140+88
 1097 02b8 93ED006A 		vldr.32	s12, [r3]
 1098              	.LBE40:
 1099              	.LBE39:
 1100              		.loc 1 2465 0
 1101 02bc 2C4B     		ldr	r3, .L140+92
 1102              		.loc 1 2468 0
 1103 02be 2A68     		ldr	r2, [r5]
 1104              		.loc 1 2465 0
 1105 02c0 D3ED008A 		vldr.32	s17, [r3]
 1106              		.loc 1 2468 0
 1107 02c4 D3ED007A 		vldr.32	s15, [r3]
 1108 02c8 92ED497A 		vldr.32	s14, [r2, #292]
 1109              	.LBB42:
 1110              	.LBB41:
 1111              		.loc 1 720 0
 1112 02cc 86EE26BA 		vdiv.f32	s22, s12, s13
 1113              	.LVL100:
 1114              	.LBE41:
 1115              	.LBE42:
 1116              		.loc 1 2468 0
 1117 02d0 F0EEE77A 		vabs.f32	s15, s15
 1118 02d4 F4EEC77A 		vcmpe.f32	s15, s14
 1119 02d8 F1EE10FA 		vmrs	APSR_nzcv, FPSCR
 1120              		.loc 1 2465 0
 1121 02dc 78EECB8A 		vsub.f32	s17, s17, s22
 1122              	.LVL101:
 1123              		.loc 1 2468 0
 1124 02e0 4CD5     		bpl	.L121
 1125              		.loc 1 2469 0
 1126 02e2 1C4B     		ldr	r3, .L140+64
 1127 02e4 83ED008A 		vstr.32	s16, [r3]
 1128              		.loc 1 2470 0
 1129 02e8 1B4B     		ldr	r3, .L140+68
 1130 02ea C3ED008A 		vstr.32	s17, [r3]
 1131 02ee 26E7     		b	.L98
 1132              	.LVL102:
 1133              	.L132:
 1134              	.LBE43:
 1135              	.LBE46:
 1136              		.loc 1 2010 0
 1137 02f0 98ED007A 		vldr.32	s14, [r8]
 1138 02f4 DFED137A 		vldr.32	s15, .L140+48
 1139 02f8 77EE677A 		vsub.f32	s15, s14, s15
 1140 02fc C8ED007A 		vstr.32	s15, [r8]
ARM GAS  /var/tmp//ccoqQk7W.s 			page 21


 1141 0300 E9E6     		b	.L83
 1142              	.LVL103:
 1143              	.L134:
 1144              		.loc 1 1956 0
 1145 0302 064A     		ldr	r2, .L140+8
 1146 0304 0023     		movs	r3, #0
 1147 0306 1370     		strb	r3, [r2]
 1148              	.LBE52:
 1149              		.loc 1 2043 0
 1150 0308 09B0     		add	sp, sp, #36
 1151              		.cfi_remember_state
 1152              		.cfi_def_cfa_offset 76
 1153              		@ sp needed
 1154 030a BDEC0A8B 		vldm	sp!, {d8-d12}
 1155              		.cfi_restore 88
 1156              		.cfi_restore 89
 1157              		.cfi_restore 86
 1158              		.cfi_restore 87
 1159              		.cfi_restore 84
 1160              		.cfi_restore 85
 1161              		.cfi_restore 82
 1162              		.cfi_restore 83
 1163              		.cfi_restore 80
 1164              		.cfi_restore 81
 1165              		.cfi_def_cfa_offset 36
 1166 030e BDE8F08F 		pop	{r4, r5, r6, r7, r8, r9, r10, fp, pc}
 1167              	.L141:
 1168 0312 00BF     		.align	2
 1169              	.L140:
 1170 0314 00000000 		.word	ch
 1171 0318 00000000 		.word	.LC0
 1172 031c 00000000 		.word	.LANCHOR9
 1173 0320 00000000 		.word	.LANCHOR10
 1174 0324 00000000 		.word	.LANCHOR0
 1175 0328 00000000 		.word	.LANCHOR13
 1176 032c 00000000 		.word	.LANCHOR15
 1177 0330 00000000 		.word	0
 1178 0334 DB0F4940 		.word	1078530011
 1179 0338 00007042 		.word	1114636288
 1180 033c 6F12833A 		.word	981668463
 1181 0340 17B7D138 		.word	953267991
 1182 0344 DB0FC93F 		.word	1070141403
 1183 0348 00000000 		.word	.LANCHOR8
 1184 034c 00000000 		.word	.LANCHOR7
 1185 0350 00000000 		.word	.LANCHOR18
 1186 0354 00000000 		.word	.LANCHOR19
 1187 0358 00000000 		.word	.LANCHOR20
 1188 035c 00000000 		.word	.LANCHOR11
 1189 0360 00000000 		.word	.LANCHOR12
 1190 0364 00000000 		.word	.LANCHOR16
 1191 0368 00000000 		.word	.LANCHOR17
 1192 036c 5077D63D 		.word	1037465424
 1193 0370 00000000 		.word	.LANCHOR21
 1194 0374 00000000 		.word	.LANCHOR14
 1195 0378 00000000 		.word	.LANCHOR6
 1196              	.LVL104:
 1197              	.L121:
ARM GAS  /var/tmp//ccoqQk7W.s 			page 22


 1198              		.cfi_restore_state
 1199              	.LBB53:
 1200              	.LBB47:
 1201              	.LBB44:
 1202              		.loc 1 2475 0
 1203 037c D2ED46CA 		vldr.32	s25, [r2, #280]
 1204              		.loc 1 2476 0
 1205 0380 92ED477A 		vldr.32	s14, [r2, #284]
 1206              		.loc 1 2477 0
 1207 0384 92ED486A 		vldr.32	s12, [r2, #288]
 1208              		.loc 1 2476 0
 1209 0388 394B     		ldr	r3, .L142
 1210 038a 9FED3ACA 		vldr.32	s24, .L142+4
 1211 038e D3ED006A 		vldr.32	s13, [r3]
 1212              		.loc 1 2477 0
 1213 0392 394B     		ldr	r3, .L142+8
 1214              		.loc 1 2480 0
 1215 0394 3648     		ldr	r0, .L142
 1216              		.loc 1 2477 0
 1217 0396 D3ED00BA 		vldr.32	s23, [r3]
 1218 039a C6EE097A 		vdiv.f32	s15, s12, s18
 1219              		.loc 1 2476 0
 1220 039e 0346     		mov	r3, r0
 1221 03a0 27EE097A 		vmul.f32	s14, s14, s18
 1222              		.loc 1 2477 0
 1223 03a4 78EEEBBA 		vsub.f32	s23, s17, s23
 1224              		.loc 1 2476 0
 1225 03a8 27EE287A 		vmul.f32	s14, s14, s17
 1226              		.loc 1 2480 0
 1227 03ac F7EE000A 		vmov.f32	s1, #1.0e+0
 1228              		.loc 1 2476 0
 1229 03b0 E7EE0C6A 		vfma.f32	s13, s14, s24
 1230              		.loc 1 2480 0
 1231 03b4 BFEE000A 		vmov.f32	s0, #-1.0e+0
 1232              		.loc 1 2476 0
 1233 03b8 C3ED006A 		vstr.32	s13, [r3]
 1234              		.loc 1 2477 0
 1235 03bc 6BEEA7BA 		vmul.f32	s23, s23, s15
 1236              		.loc 1 2480 0
 1237 03c0 FFF7FEFF 		bl	utils_truncate_number
 1238              	.LVL105:
 1239              		.loc 1 2486 0
 1240 03c4 2A4B     		ldr	r3, .L142
 1241              		.loc 1 2475 0
 1242 03c6 68EEACCA 		vmul.f32	s25, s17, s25
 1243              	.LVL106:
 1244              		.loc 1 2486 0
 1245 03ca D3ED007A 		vldr.32	s15, [r3]
 1246              		.loc 1 2483 0
 1247 03ce 2A4B     		ldr	r3, .L142+8
 1248              		.loc 1 2486 0
 1249 03d0 ECEE8C7A 		vfma.f32	s15, s25, s24
 1250 03d4 08A8     		add	r0, sp, #32
 1251              		.loc 1 2487 0
 1252 03d6 F7EE000A 		vmov.f32	s1, #1.0e+0
 1253              		.loc 1 2486 0
 1254 03da EBEE8C7A 		vfma.f32	s15, s23, s24
ARM GAS  /var/tmp//ccoqQk7W.s 			page 23


 1255              		.loc 1 2487 0
 1256 03de BFEE000A 		vmov.f32	s0, #-1.0e+0
 1257              		.loc 1 2486 0
 1258 03e2 60ED017A 		vstmdb.32	r0!, {s15}
 1259              		.loc 1 2483 0
 1260 03e6 C3ED008A 		vstr.32	s17, [r3]
 1261              		.loc 1 2487 0
 1262 03ea FFF7FEFF 		bl	utils_truncate_number
 1263              	.LVL107:
 1264              		.loc 1 2490 0
 1265 03ee 2B68     		ldr	r3, [r5]
 1266 03f0 93F82821 		ldrb	r2, [r3, #296]	@ zero_extendqisi2
 1267 03f4 FAB9     		cbnz	r2, .L139
 1268              		.loc 1 2491 0
 1269 03f6 B5EEC0BA 		vcmpe.f32	s22, #0
 1270 03fa F1EE10FA 		vmrs	APSR_nzcv, FPSCR
 1271 03fe DDED077A 		vldr.32	s15, [sp, #28]
 1272 0402 04DD     		ble	.L96
 1273 0404 F5EEC07A 		vcmpe.f32	s15, #0
 1274 0408 F1EE10FA 		vmrs	APSR_nzcv, FPSCR
 1275 040c 1DD4     		bmi	.L128
 1276              	.L96:
 1277              		.loc 1 2495 0
 1278 040e B5EEC0BA 		vcmpe.f32	s22, #0
 1279 0412 F1EE10FA 		vmrs	APSR_nzcv, FPSCR
 1280 0416 06D5     		bpl	.L93
 1281 0418 F5EE407A 		vcmp.f32	s15, #0
 1282 041c F1EE10FA 		vmrs	APSR_nzcv, FPSCR
 1283 0420 C8BF     		it	gt
 1284 0422 F0EE487A 		vmovgt.f32	s15, s16
 1285              	.L93:
 1286              		.loc 1 2500 0
 1287 0426 93ED197A 		vldr.32	s14, [r3, #100]
 1288 042a 144B     		ldr	r3, .L142+12
 1289 042c 67EE277A 		vmul.f32	s15, s14, s15
 1290 0430 C3ED007A 		vstr.32	s15, [r3]
 1291 0434 83E6     		b	.L98
 1292              	.L139:
 1293 0436 93ED197A 		vldr.32	s14, [r3, #100]
 1294 043a DDED077A 		vldr.32	s15, [sp, #28]
 1295 043e 0F4B     		ldr	r3, .L142+12
 1296 0440 67EE277A 		vmul.f32	s15, s14, s15
 1297 0444 C3ED007A 		vstr.32	s15, [r3]
 1298 0448 79E6     		b	.L98
 1299              	.L128:
 1300              		.loc 1 2491 0
 1301 044a DFED0D7A 		vldr.32	s15, .L142+16
 1302 044e EAE7     		b	.L93
 1303              	.LVL108:
 1304              	.L125:
 1305              		.cfi_def_cfa_offset 0
 1306              		.cfi_restore 4
 1307              		.cfi_restore 5
 1308              		.cfi_restore 6
 1309              		.cfi_restore 7
 1310              		.cfi_restore 8
 1311              		.cfi_restore 9
ARM GAS  /var/tmp//ccoqQk7W.s 			page 24


 1312              		.cfi_restore 10
 1313              		.cfi_restore 11
 1314              		.cfi_restore 14
 1315              		.cfi_restore 80
 1316              		.cfi_restore 81
 1317              		.cfi_restore 82
 1318              		.cfi_restore 83
 1319              		.cfi_restore 84
 1320              		.cfi_restore 85
 1321              		.cfi_restore 86
 1322              		.cfi_restore 87
 1323              		.cfi_restore 88
 1324              		.cfi_restore 89
 1325              	.LBE44:
 1326              	.LBE47:
 1327              		.loc 1 1956 0
 1328 0450 0C4A     		ldr	r2, .L142+20
 1329 0452 0023     		movs	r3, #0
 1330 0454 1370     		strb	r3, [r2]
 1331 0456 7047     		bx	lr
 1332              	.LVL109:
 1333              	.L137:
 1334              		.cfi_def_cfa_offset 112
 1335              		.cfi_offset 4, -36
 1336              		.cfi_offset 5, -32
 1337              		.cfi_offset 6, -28
 1338              		.cfi_offset 7, -24
 1339              		.cfi_offset 8, -20
 1340              		.cfi_offset 9, -16
 1341              		.cfi_offset 10, -12
 1342              		.cfi_offset 11, -8
 1343              		.cfi_offset 14, -4
 1344              		.cfi_offset 80, -76
 1345              		.cfi_offset 81, -72
 1346              		.cfi_offset 82, -68
 1347              		.cfi_offset 83, -64
 1348              		.cfi_offset 84, -60
 1349              		.cfi_offset 85, -56
 1350              		.cfi_offset 86, -52
 1351              		.cfi_offset 87, -48
 1352              		.cfi_offset 88, -44
 1353              		.cfi_offset 89, -40
 1354 0458 0093     		str	r3, [sp]
 1355              	.LBB48:
 1356              		.loc 1 2030 0
 1357 045a FFF7FEFF 		bl	sqrtf
 1358              	.LVL110:
 1359 045e 009B     		ldr	r3, [sp]
 1360 0460 02E7     		b	.L86
 1361              	.L138:
 1362 0462 0192     		str	r2, [sp, #4]
 1363 0464 0093     		str	r3, [sp]
 1364              		.loc 1 2031 0
 1365 0466 FFF7FEFF 		bl	sqrtf
 1366              	.LVL111:
 1367 046a 019A     		ldr	r2, [sp, #4]
 1368 046c 009B     		ldr	r3, [sp]
ARM GAS  /var/tmp//ccoqQk7W.s 			page 25


 1369 046e 16E7     		b	.L87
 1370              	.L143:
 1371              		.align	2
 1372              	.L142:
 1373 0470 00000000 		.word	.LANCHOR19
 1374 0474 CDCC4C3D 		.word	1028443341
 1375 0478 00000000 		.word	.LANCHOR20
 1376 047c 00000000 		.word	.LANCHOR22
 1377 0480 00000000 		.word	0
 1378 0484 00000000 		.word	.LANCHOR9
 1379              	.LBE48:
 1380              	.LBE53:
 1381              		.cfi_endproc
 1382              	.LFE305:
 1383              		.size	timer_thread, .-timer_thread
 1384              		.section	.text.mcpwm_foc_init,"ax",%progbits
 1385              		.align	1
 1386              		.p2align 4,,15
 1387              		.global	mcpwm_foc_init
 1388              		.syntax unified
 1389              		.thumb
 1390              		.thumb_func
 1391              		.fpu fpv4-sp-d16
 1392              		.type	mcpwm_foc_init, %function
 1393              	mcpwm_foc_init:
 1394              	.LFB256:
 1395              		.loc 1 190 0
 1396              		.cfi_startproc
 1397              		@ args = 0, pretend = 0, frame = 152
 1398              		@ frame_needed = 0, uses_anonymous_args = 0
 1399              	.LVL112:
 1400 0000 2DE9F04F 		push	{r4, r5, r6, r7, r8, r9, r10, fp, lr}
 1401              		.cfi_def_cfa_offset 36
 1402              		.cfi_offset 4, -36
 1403              		.cfi_offset 5, -32
 1404              		.cfi_offset 6, -28
 1405              		.cfi_offset 7, -24
 1406              		.cfi_offset 8, -20
 1407              		.cfi_offset 9, -16
 1408              		.cfi_offset 10, -12
 1409              		.cfi_offset 11, -8
 1410              		.cfi_offset 14, -4
 1411 0004 A9B0     		sub	sp, sp, #164
 1412              		.cfi_def_cfa_offset 200
 1413              		.loc 1 190 0
 1414 0006 8146     		mov	r9, r0
 1415              		.loc 1 191 0
 1416 0008 FFF7FEFF 		bl	utils_sys_lock_cnt
 1417              	.LVL113:
 1418              		.loc 1 199 0
 1419 000c D14B     		ldr	r3, .L152
 1420              		.loc 1 203 0
 1421 000e DFF8CCA3 		ldr	r10, .L152+136
 1422              		.loc 1 199 0
 1423 0012 C3F80090 		str	r9, [r3]
 1424              		.loc 1 193 0
 1425 0016 D04B     		ldr	r3, .L152+4
ARM GAS  /var/tmp//ccoqQk7W.s 			page 26


 1426              		.loc 1 204 0
 1427 0018 D048     		ldr	r0, .L152+8
 1428              		.loc 1 207 0
 1429 001a DFF8C4B3 		ldr	fp, .L152+140
 1430              		.loc 1 210 0
 1431 001e DFEDD07A 		vldr.32	s15, .L152+12
 1432              		.loc 1 209 0
 1433 0022 DFF8C083 		ldr	r8, .L152+144
 1434              		.loc 1 210 0
 1435 0026 DFF8C0C3 		ldr	ip, .L152+148
 1436              		.loc 1 211 0
 1437 002a DFF8C0E3 		ldr	lr, .L152+152
 1438              		.loc 1 212 0
 1439 002e CD4F     		ldr	r7, .L152+16
 1440              		.loc 1 213 0
 1441 0030 CD49     		ldr	r1, .L152+20
 1442              		.loc 1 214 0
 1443 0032 CE4A     		ldr	r2, .L152+24
 1444              		.loc 1 239 0
 1445 0034 CE4D     		ldr	r5, .L152+28
 1446              		.loc 1 240 0
 1447 0036 CF4E     		ldr	r6, .L152+32
 1448              		.loc 1 193 0
 1449 0038 0024     		movs	r4, #0
 1450 003a 1C70     		strb	r4, [r3]
 1451              		.loc 1 205 0
 1452 003c CE4B     		ldr	r3, .L152+36
 1453              		.loc 1 203 0
 1454 003e 8AF80040 		strb	r4, [r10]
 1455              		.loc 1 204 0
 1456 0042 4FF00709 		mov	r9, #7
 1457              	.LVL114:
 1458 0046 80F80090 		strb	r9, [r0]
 1459              		.loc 1 205 0
 1460 004a 1C60     		str	r4, [r3]
 1461              		.loc 1 206 0
 1462 004c CB4B     		ldr	r3, .L152+40
 1463              		.loc 1 221 0
 1464 004e CC48     		ldr	r0, .L152+44
 1465              		.loc 1 206 0
 1466 0050 1C60     		str	r4, [r3]
 1467              		.loc 1 208 0
 1468 0052 CC4B     		ldr	r3, .L152+48
 1469              		.loc 1 207 0
 1470 0054 CBF80040 		str	r4, [fp]
 1471              		.loc 1 208 0
 1472 0058 1C70     		strb	r4, [r3]
 1473              		.loc 1 215 0
 1474 005a CB4B     		ldr	r3, .L152+52
 1475              		.loc 1 209 0
 1476 005c 88F80040 		strb	r4, [r8]
 1477              		.loc 1 210 0
 1478 0060 CCED007A 		vstr.32	s15, [ip]
 1479              		.loc 1 211 0
 1480 0064 CEED007A 		vstr.32	s15, [lr]
 1481              		.loc 1 212 0
 1482 0068 C7ED007A 		vstr.32	s15, [r7]
ARM GAS  /var/tmp//ccoqQk7W.s 			page 27


 1483              		.loc 1 213 0
 1484 006c C1ED007A 		vstr.32	s15, [r1]
 1485              		.loc 1 214 0
 1486 0070 C2ED007A 		vstr.32	s15, [r2]
 1487              		.loc 1 215 0
 1488 0074 1C70     		strb	r4, [r3]
 1489              		.loc 1 216 0
 1490 0076 C54B     		ldr	r3, .L152+56
 1491              		.loc 1 218 0
 1492 0078 C54A     		ldr	r2, .L152+60
 1493              		.loc 1 216 0
 1494 007a C3ED007A 		vstr.32	s15, [r3]
 1495              		.loc 1 217 0
 1496 007e C54B     		ldr	r3, .L152+64
 1497              		.loc 1 228 0
 1498 0080 DFF86CC3 		ldr	ip, .L152+156
 1499              		.loc 1 217 0
 1500 0084 C3ED007A 		vstr.32	s15, [r3]
 1501              		.loc 1 218 0
 1502 0088 C2ED007A 		vstr.32	s15, [r2]
 1503              		.loc 1 219 0
 1504 008c C24A     		ldr	r2, .L152+68
 1505              		.loc 1 222 0
 1506 008e C34B     		ldr	r3, .L152+72
 1507              		.loc 1 219 0
 1508 0090 C2ED007A 		vstr.32	s15, [r2]
 1509              		.loc 1 220 0
 1510 0094 C24A     		ldr	r2, .L152+76
 1511              		.loc 1 229 0
 1512 0096 DFF85CE3 		ldr	lr, .L152+160
 1513              		.loc 1 220 0
 1514 009a 1470     		strb	r4, [r2]
 1515              		.loc 1 221 0
 1516 009c C0ED007A 		vstr.32	s15, [r0]
 1517              		.loc 1 222 0
 1518 00a0 C3ED007A 		vstr.32	s15, [r3]
 1519              		.loc 1 223 0
 1520 00a4 BF4B     		ldr	r3, .L152+80
 1521              		.loc 1 225 0
 1522 00a6 DFF850A3 		ldr	r10, .L152+164
 1523              		.loc 1 223 0
 1524 00aa C3ED007A 		vstr.32	s15, [r3]
 1525              		.loc 1 224 0
 1526 00ae BE4B     		ldr	r3, .L152+84
 1527              		.loc 1 226 0
 1528 00b0 DFF84893 		ldr	r9, .L152+168
 1529              		.loc 1 224 0
 1530 00b4 C3ED007A 		vstr.32	s15, [r3]
 1531              		.loc 1 227 0
 1532 00b8 DFF84483 		ldr	r8, .L152+172
 1533              		.loc 1 231 0
 1534 00bc BB4B     		ldr	r3, .L152+88
 1535              		.loc 1 230 0
 1536 00be BC4F     		ldr	r7, .L152+92
 1537              		.loc 1 232 0
 1538 00c0 BC48     		ldr	r0, .L152+96
 1539              		.loc 1 225 0
ARM GAS  /var/tmp//ccoqQk7W.s 			page 28


 1540 00c2 CAED007A 		vstr.32	s15, [r10]
 1541              		.loc 1 232 0
 1542 00c6 2146     		mov	r1, r4
 1543 00c8 6022     		movs	r2, #96
 1544              		.loc 1 226 0
 1545 00ca C9ED007A 		vstr.32	s15, [r9]
 1546              		.loc 1 227 0
 1547 00ce C8F80040 		str	r4, [r8]
 1548              		.loc 1 228 0
 1549 00d2 CCF80040 		str	r4, [ip]
 1550              		.loc 1 229 0
 1551 00d6 CEED007A 		vstr.32	s15, [lr]
 1552              		.loc 1 230 0
 1553 00da C7ED007A 		vstr.32	s15, [r7]
 1554              		.loc 1 231 0
 1555 00de C3ED007A 		vstr.32	s15, [r3]
 1556              		.loc 1 232 0
 1557 00e2 FFF7FEFF 		bl	memset
 1558              	.LVL115:
 1559              		.loc 1 233 0
 1560 00e6 B44B     		ldr	r3, .L152+100
 1561              		.loc 1 239 0
 1562 00e8 2846     		mov	r0, r5
 1563              		.loc 1 233 0
 1564 00ea 1C60     		str	r4, [r3]
 1565 00ec 5C60     		str	r4, [r3, #4]
 1566 00ee 9C60     		str	r4, [r3, #8]
 1567 00f0 DC60     		str	r4, [r3, #12]
 1568 00f2 1C61     		str	r4, [r3, #16]
 1569              		.loc 1 239 0
 1570 00f4 FFF7FEFF 		bl	TIM_DeInit
 1571              	.LVL116:
 1572              		.loc 1 240 0
 1573 00f8 3046     		mov	r0, r6
 1574 00fa FFF7FEFF 		bl	TIM_DeInit
 1575              	.LVL117:
 1576              		.loc 1 245 0
 1577 00fe 0121     		movs	r1, #1
 1578              		.loc 1 241 0
 1579 0100 6C62     		str	r4, [r5, #36]
 1580              		.loc 1 245 0
 1581 0102 0846     		mov	r0, r1
 1582              		.loc 1 242 0
 1583 0104 7462     		str	r4, [r6, #36]
 1584              		.loc 1 245 0
 1585 0106 FFF7FEFF 		bl	RCC_APB2PeriphClockCmd
 1586              	.LVL118:
 1587              		.loc 1 250 0
 1588 010a 924B     		ldr	r3, .L152
 1589 010c AB4A     		ldr	r2, .L152+104
 1590 010e 1B68     		ldr	r3, [r3]
 1591              		.loc 1 248 0
 1592 0110 ADF80C40 		strh	r4, [sp, #12]	@ movhi
 1593              		.loc 1 250 0
 1594 0114 D3ED2B7A 		vldr.32	s15, [r3, #172]
 1595              		.loc 1 251 0
 1596 0118 ADF81440 		strh	r4, [sp, #20]	@ movhi
ARM GAS  /var/tmp//ccoqQk7W.s 			page 29


 1597              		.loc 1 250 0
 1598 011c FDEEE77A 		vcvt.s32.f32	s15, s15
 1599              		.loc 1 254 0
 1600 0120 2846     		mov	r0, r5
 1601              		.loc 1 250 0
 1602 0122 17EE903A 		vmov	r3, s15	@ int
 1603              		.loc 1 254 0
 1604 0126 03A9     		add	r1, sp, #12
 1605              		.loc 1 249 0
 1606 0128 4FF02007 		mov	r7, #32	@ movhi
 1607              		.loc 1 250 0
 1608 012c 92FBF3F3 		sdiv	r3, r2, r3
 1609              		.loc 1 252 0
 1610 0130 8DF81640 		strb	r4, [sp, #22]
 1611              		.loc 1 249 0
 1612 0134 ADF80E70 		strh	r7, [sp, #14]	@ movhi
 1613              		.loc 1 250 0
 1614 0138 0493     		str	r3, [sp, #16]
 1615              		.loc 1 254 0
 1616 013a FFF7FEFF 		bl	TIM_TimeBaseInit
 1617              	.LVL119:
 1618              		.loc 1 260 0
 1619 013e EB6A     		ldr	r3, [r5, #44]
 1620              		.loc 1 261 0
 1621 0140 ADF84440 		strh	r4, [sp, #68]	@ movhi
 1622              		.loc 1 260 0
 1623 0144 5B08     		lsrs	r3, r3, #1
 1624              		.loc 1 258 0
 1625 0146 0127     		movs	r7, #1
 1626              		.loc 1 257 0
 1627 0148 4FF06002 		mov	r2, #96	@ movhi
 1628              		.loc 1 266 0
 1629 014c 2846     		mov	r0, r5
 1630              		.loc 1 259 0
 1631 014e 4FF00409 		mov	r9, #4
 1632              		.loc 1 263 0
 1633 0152 4FF4807A 		mov	r10, #256
 1634              		.loc 1 266 0
 1635 0156 0EA9     		add	r1, sp, #56
 1636              		.loc 1 260 0
 1637 0158 1093     		str	r3, [sp, #64]
 1638              		.loc 1 264 0
 1639 015a 4FF40073 		mov	r3, #512	@ movhi
 1640              		.loc 1 257 0
 1641 015e ADF83820 		strh	r2, [sp, #56]	@ movhi
 1642              		.loc 1 264 0
 1643 0162 ADF84A30 		strh	r3, [sp, #74]	@ movhi
 1644              		.loc 1 262 0
 1645 0166 ADF84640 		strh	r4, [sp, #70]	@ movhi
 1646              		.loc 1 258 0
 1647 016a ADF83A70 		strh	r7, [sp, #58]	@ movhi
 1648              		.loc 1 259 0
 1649 016e ADF83C90 		strh	r9, [sp, #60]	@ movhi
 1650              		.loc 1 263 0
 1651 0172 ADF848A0 		strh	r10, [sp, #72]	@ movhi
 1652              		.loc 1 266 0
 1653 0176 FFF7FEFF 		bl	TIM_OC1Init
ARM GAS  /var/tmp//ccoqQk7W.s 			page 30


 1654              	.LVL120:
 1655              		.loc 1 267 0
 1656 017a 2846     		mov	r0, r5
 1657 017c 0EA9     		add	r1, sp, #56
 1658 017e FFF7FEFF 		bl	TIM_OC2Init
 1659              	.LVL121:
 1660              		.loc 1 268 0
 1661 0182 2846     		mov	r0, r5
 1662 0184 0EA9     		add	r1, sp, #56
 1663 0186 FFF7FEFF 		bl	TIM_OC3Init
 1664              	.LVL122:
 1665              		.loc 1 269 0
 1666 018a 2846     		mov	r0, r5
 1667 018c 0EA9     		add	r1, sp, #56
 1668 018e FFF7FEFF 		bl	TIM_OC4Init
 1669              	.LVL123:
 1670              		.loc 1 271 0
 1671 0192 2846     		mov	r0, r5
 1672 0194 0821     		movs	r1, #8
 1673 0196 FFF7FEFF 		bl	TIM_OC1PreloadConfig
 1674              	.LVL124:
 1675              		.loc 1 272 0
 1676 019a 2846     		mov	r0, r5
 1677 019c 0821     		movs	r1, #8
 1678 019e FFF7FEFF 		bl	TIM_OC2PreloadConfig
 1679              	.LVL125:
 1680              		.loc 1 273 0
 1681 01a2 2846     		mov	r0, r5
 1682 01a4 0821     		movs	r1, #8
 1683 01a6 FFF7FEFF 		bl	TIM_OC3PreloadConfig
 1684              	.LVL126:
 1685              		.loc 1 274 0
 1686 01aa 2846     		mov	r0, r5
 1687 01ac 0821     		movs	r1, #8
 1688 01ae FFF7FEFF 		bl	TIM_OC4PreloadConfig
 1689              	.LVL127:
 1690              		.loc 1 280 0
 1691 01b2 3C23     		movs	r3, #60
 1692              		.loc 1 277 0
 1693 01b4 4FF40062 		mov	r2, #2048	@ movhi
 1694              		.loc 1 285 0
 1695 01b8 2846     		mov	r0, r5
 1696              		.loc 1 278 0
 1697 01ba 4FF48068 		mov	r8, #1024
 1698              		.loc 1 285 0
 1699 01be 06A9     		add	r1, sp, #24
 1700              		.loc 1 280 0
 1701 01c0 ADF81E30 		strh	r3, [sp, #30]	@ movhi
 1702              		.loc 1 282 0
 1703 01c4 4FF40053 		mov	r3, #8192	@ movhi
 1704              		.loc 1 277 0
 1705 01c8 ADF81820 		strh	r2, [sp, #24]	@ movhi
 1706              		.loc 1 282 0
 1707 01cc ADF82230 		strh	r3, [sp, #34]	@ movhi
 1708              		.loc 1 279 0
 1709 01d0 ADF81C40 		strh	r4, [sp, #28]	@ movhi
 1710              		.loc 1 281 0
ARM GAS  /var/tmp//ccoqQk7W.s 			page 31


 1711 01d4 ADF82040 		strh	r4, [sp, #32]	@ movhi
 1712              		.loc 1 283 0
 1713 01d8 ADF82440 		strh	r4, [sp, #36]	@ movhi
 1714              		.loc 1 278 0
 1715 01dc ADF81A80 		strh	r8, [sp, #26]	@ movhi
 1716              		.loc 1 285 0
 1717 01e0 FFF7FEFF 		bl	TIM_BDTRConfig
 1718              	.LVL128:
 1719              		.loc 1 286 0
 1720 01e4 2846     		mov	r0, r5
 1721 01e6 3946     		mov	r1, r7
 1722 01e8 FFF7FEFF 		bl	TIM_CCPreloadControl
 1723              	.LVL129:
 1724              		.loc 1 287 0
 1725 01ec 2846     		mov	r0, r5
 1726 01ee 3946     		mov	r1, r7
 1727 01f0 FFF7FEFF 		bl	TIM_ARRPreloadConfig
 1728              	.LVL130:
 1729              		.loc 1 297 0
 1730 01f4 3946     		mov	r1, r7
 1731 01f6 7248     		ldr	r0, .L152+108
 1732 01f8 FFF7FEFF 		bl	RCC_AHB1PeriphClockCmd
 1733              	.LVL131:
 1734              		.loc 1 298 0
 1735 01fc 3946     		mov	r1, r7
 1736 01fe 4FF4E060 		mov	r0, #1792
 1737 0202 FFF7FEFF 		bl	RCC_APB2PeriphClockCmd
 1738              	.LVL132:
 1739              		.loc 1 300 0
 1740 0206 2346     		mov	r3, r4
 1741 0208 6E4A     		ldr	r2, .L152+112
 1742 020a 6F48     		ldr	r0, .L152+116
 1743 020c 0321     		movs	r1, #3
 1744 020e FFF7FEFF 		bl	dmaStreamAllocate
 1745              	.LVL133:
 1746              		.loc 1 313 0
 1747 0212 4FF40063 		mov	r3, #2048
 1748 0216 2093     		str	r3, [sp, #128]
 1749              		.loc 1 314 0
 1750 0218 4FF40053 		mov	r3, #8192
 1751              		.loc 1 307 0
 1752 021c DFF8E4C1 		ldr	ip, .L152+176
 1753              		.loc 1 308 0
 1754 0220 DFF8E4E1 		ldr	lr, .L152+180
 1755              		.loc 1 321 0
 1756 0224 6948     		ldr	r0, .L152+120
 1757              		.loc 1 314 0
 1758 0226 2193     		str	r3, [sp, #132]
 1759              		.loc 1 310 0
 1760 0228 0C22     		movs	r2, #12
 1761              		.loc 1 316 0
 1762 022a 4FF40033 		mov	r3, #131072
 1763              		.loc 1 321 0
 1764 022e 19A9     		add	r1, sp, #100
 1765              		.loc 1 307 0
 1766 0230 CDF86CC0 		str	ip, [sp, #108]
 1767              		.loc 1 308 0
ARM GAS  /var/tmp//ccoqQk7W.s 			page 32


 1768 0234 CDF868E0 		str	lr, [sp, #104]
 1769              		.loc 1 316 0
 1770 0238 2393     		str	r3, [sp, #140]
 1771              		.loc 1 310 0
 1772 023a 1D92     		str	r2, [sp, #116]
 1773              		.loc 1 306 0
 1774 023c 1994     		str	r4, [sp, #100]
 1775              		.loc 1 309 0
 1776 023e 1C94     		str	r4, [sp, #112]
 1777              		.loc 1 311 0
 1778 0240 1E94     		str	r4, [sp, #120]
 1779              		.loc 1 317 0
 1780 0242 2494     		str	r4, [sp, #144]
 1781              		.loc 1 318 0
 1782 0244 2594     		str	r4, [sp, #148]
 1783              		.loc 1 319 0
 1784 0246 2694     		str	r4, [sp, #152]
 1785              		.loc 1 320 0
 1786 0248 2794     		str	r4, [sp, #156]
 1787              		.loc 1 312 0
 1788 024a CDF87C80 		str	r8, [sp, #124]
 1789              		.loc 1 315 0
 1790 024e CDF888A0 		str	r10, [sp, #136]
 1791              		.loc 1 321 0
 1792 0252 FFF7FEFF 		bl	DMA_Init
 1793              	.LVL134:
 1794              		.loc 1 324 0
 1795 0256 3946     		mov	r1, r7
 1796 0258 5C48     		ldr	r0, .L152+120
 1797 025a FFF7FEFF 		bl	DMA_Cmd
 1798              	.LVL135:
 1799              		.loc 1 327 0
 1800 025e 1021     		movs	r1, #16
 1801 0260 3A46     		mov	r2, r7
 1802 0262 5A48     		ldr	r0, .L152+120
 1803 0264 FFF7FEFF 		bl	DMA_ITConfig
 1804              	.LVL136:
 1805              		.loc 1 332 0
 1806 0268 1622     		movs	r2, #22
 1807              		.loc 1 334 0
 1808 026a 4FF48043 		mov	r3, #16384
 1809              		.loc 1 336 0
 1810 026e 0AA8     		add	r0, sp, #40
 1811              		.loc 1 333 0
 1812 0270 0B94     		str	r4, [sp, #44]
 1813              		.loc 1 335 0
 1814 0272 0D94     		str	r4, [sp, #52]
 1815              		.loc 1 332 0
 1816 0274 0A92     		str	r2, [sp, #40]
 1817              		.loc 1 334 0
 1818 0276 0C93     		str	r3, [sp, #48]
 1819              		.loc 1 336 0
 1820 0278 FFF7FEFF 		bl	ADC_CommonInit
 1821              	.LVL137:
 1822              		.loc 1 342 0
 1823 027c 4FF00052 		mov	r2, #536870912
 1824              		.loc 1 343 0
ARM GAS  /var/tmp//ccoqQk7W.s 			page 33


 1825 0280 4FF05063 		mov	r3, #218103808
 1826              		.loc 1 347 0
 1827 0284 13A9     		add	r1, sp, #76
 1828 0286 5248     		ldr	r0, .L152+124
 1829              		.loc 1 342 0
 1830 0288 1592     		str	r2, [sp, #84]
 1831              		.loc 1 343 0
 1832 028a 1693     		str	r3, [sp, #88]
 1833              		.loc 1 339 0
 1834 028c 1394     		str	r4, [sp, #76]
 1835              		.loc 1 341 0
 1836 028e 8DF85140 		strb	r4, [sp, #81]
 1837              		.loc 1 344 0
 1838 0292 1794     		str	r4, [sp, #92]
 1839              		.loc 1 340 0
 1840 0294 8DF85070 		strb	r7, [sp, #80]
 1841              		.loc 1 345 0
 1842 0298 8DF86090 		strb	r9, [sp, #96]
 1843              		.loc 1 347 0
 1844 029c FFF7FEFF 		bl	ADC_Init
 1845              	.LVL138:
 1846              		.loc 1 350 0
 1847 02a0 13A9     		add	r1, sp, #76
 1848 02a2 4C48     		ldr	r0, .L152+128
 1849              		.loc 1 348 0
 1850 02a4 1594     		str	r4, [sp, #84]
 1851              		.loc 1 349 0
 1852 02a6 1694     		str	r4, [sp, #88]
 1853              		.loc 1 350 0
 1854 02a8 FFF7FEFF 		bl	ADC_Init
 1855              	.LVL139:
 1856              		.loc 1 351 0
 1857 02ac 13A9     		add	r1, sp, #76
 1858 02ae 4A48     		ldr	r0, .L152+132
 1859 02b0 FFF7FEFF 		bl	ADC_Init
 1860              	.LVL140:
 1861              		.loc 1 354 0
 1862 02b4 3846     		mov	r0, r7
 1863 02b6 FFF7FEFF 		bl	ADC_TempSensorVrefintCmd
 1864              	.LVL141:
 1865              		.loc 1 357 0
 1866 02ba 3846     		mov	r0, r7
 1867 02bc FFF7FEFF 		bl	ADC_MultiModeDMARequestAfterLastTransferCmd
 1868              	.LVL142:
 1869              		.loc 1 359 0
 1870 02c0 FFF7FEFF 		bl	hw_setup_adc_channels
 1871              	.LVL143:
 1872              		.loc 1 362 0
 1873 02c4 3946     		mov	r1, r7
 1874 02c6 4248     		ldr	r0, .L152+124
 1875 02c8 FFF7FEFF 		bl	ADC_Cmd
 1876              	.LVL144:
 1877              		.loc 1 365 0
 1878 02cc 3946     		mov	r1, r7
 1879 02ce 4148     		ldr	r0, .L152+128
 1880 02d0 FFF7FEFF 		bl	ADC_Cmd
 1881              	.LVL145:
ARM GAS  /var/tmp//ccoqQk7W.s 			page 34


 1882              		.loc 1 368 0
 1883 02d4 3946     		mov	r1, r7
 1884 02d6 4048     		ldr	r0, .L152+132
 1885 02d8 FFF7FEFF 		bl	ADC_Cmd
 1886              	.LVL146:
 1887              		.loc 1 372 0
 1888 02dc 3946     		mov	r1, r7
 1889 02de 0220     		movs	r0, #2
 1890 02e0 FFF7FEFF 		bl	RCC_APB2PeriphClockCmd
 1891              	.LVL147:
 1892              		.loc 1 376 0
 1893 02e4 4FF6FF73 		movw	r3, #65535
 1894              		.loc 1 379 0
 1895 02e8 03A9     		add	r1, sp, #12
 1896 02ea 3046     		mov	r0, r6
 1897              		.loc 1 374 0
 1898 02ec ADF80C40 		strh	r4, [sp, #12]	@ movhi
 1899              		.loc 1 375 0
 1900 02f0 ADF80E40 		strh	r4, [sp, #14]	@ movhi
 1901              		.loc 1 377 0
 1902 02f4 ADF81440 		strh	r4, [sp, #20]	@ movhi
 1903              		.loc 1 378 0
 1904 02f8 8DF81640 		strb	r4, [sp, #22]
 1905              		.loc 1 376 0
 1906 02fc 0493     		str	r3, [sp, #16]
 1907              		.loc 1 379 0
 1908 02fe FFF7FEFF 		bl	TIM_TimeBaseInit
 1909              	.LVL148:
 1910              		.loc 1 381 0
 1911 0302 4FF06002 		mov	r2, #96	@ movhi
 1912              		.loc 1 383 0
 1913 0306 4FF4FA73 		mov	r3, #500
 1914              		.loc 1 388 0
 1915 030a 0EA9     		add	r1, sp, #56
 1916 030c 3046     		mov	r0, r6
 1917              		.loc 1 381 0
 1918 030e ADF83820 		strh	r2, [sp, #56]	@ movhi
 1919              		.loc 1 387 0
 1920 0312 4FF40072 		mov	r2, #512	@ movhi
 1921              		.loc 1 383 0
 1922 0316 1093     		str	r3, [sp, #64]
 1923              		.loc 1 387 0
 1924 0318 ADF84A20 		strh	r2, [sp, #74]	@ movhi
 1925              		.loc 1 384 0
 1926 031c ADF84440 		strh	r4, [sp, #68]	@ movhi
 1927              		.loc 1 385 0
 1928 0320 ADF84640 		strh	r4, [sp, #70]	@ movhi
 1929              		.loc 1 382 0
 1930 0324 ADF83A70 		strh	r7, [sp, #58]	@ movhi
 1931              		.loc 1 386 0
 1932 0328 ADF848A0 		strh	r10, [sp, #72]	@ movhi
 1933              		.loc 1 388 0
 1934 032c FFF7FEFF 		bl	TIM_OC1Init
 1935              	.LVL149:
 1936              		.loc 1 389 0
 1937 0330 3046     		mov	r0, r6
 1938 0332 0821     		movs	r1, #8
ARM GAS  /var/tmp//ccoqQk7W.s 			page 35


 1939 0334 FFF7FEFF 		bl	TIM_OC1PreloadConfig
 1940              	.LVL150:
 1941              		.loc 1 390 0
 1942 0338 0EA9     		add	r1, sp, #56
 1943 033a 3046     		mov	r0, r6
 1944 033c FFF7FEFF 		bl	TIM_OC2Init
 1945              	.LVL151:
 1946              		.loc 1 391 0
 1947 0340 3046     		mov	r0, r6
 1948 0342 0821     		movs	r1, #8
 1949 0344 FFF7FEFF 		bl	TIM_OC2PreloadConfig
 1950              	.LVL152:
 1951              		.loc 1 392 0
 1952 0348 0EA9     		add	r1, sp, #56
 1953 034a 3046     		mov	r0, r6
 1954 034c FFF7FEFF 		bl	TIM_OC3Init
 1955              	.LVL153:
 1956 0350 5CE0     		b	.L153
 1957              	.L154:
 1958 0352 00BF     		.align	2
 1959              	.L152:
 1960 0354 00000000 		.word	.LANCHOR0
 1961 0358 00000000 		.word	.LANCHOR23
 1962 035c 00000000 		.word	.LANCHOR14
 1963 0360 00000000 		.word	0
 1964 0364 00000000 		.word	.LANCHOR31
 1965 0368 00000000 		.word	.LANCHOR22
 1966 036c 00000000 		.word	.LANCHOR32
 1967 0370 00000140 		.word	1073807360
 1968 0374 00040140 		.word	1073808384
 1969 0378 00000000 		.word	.LANCHOR24
 1970 037c 00000000 		.word	.LANCHOR25
 1971 0380 00000000 		.word	.LANCHOR34
 1972 0384 00000000 		.word	.LANCHOR27
 1973 0388 00000000 		.word	.LANCHOR2
 1974 038c 00000000 		.word	.LANCHOR33
 1975 0390 00000000 		.word	.LANCHOR16
 1976 0394 00000000 		.word	.LANCHOR21
 1977 0398 00000000 		.word	.LANCHOR8
 1978 039c 00000000 		.word	.LANCHOR11
 1979 03a0 00000000 		.word	.LANCHOR6
 1980 03a4 00000000 		.word	.LANCHOR35
 1981 03a8 00000000 		.word	.LANCHOR36
 1982 03ac 00000000 		.word	.LANCHOR18
 1983 03b0 00000000 		.word	.LANCHOR41
 1984 03b4 00000000 		.word	.LANCHOR10
 1985 03b8 00000000 		.word	.LANCHOR17
 1986 03bc 007A030A 		.word	168000000
 1987 03c0 05004000 		.word	4194309
 1988 03c4 00000000 		.word	mcpwm_foc_adc_int_handler
 1989 03c8 90000000 		.word	_stm32_dma_streams+144
 1990 03cc 70640240 		.word	1073898608
 1991 03d0 00200140 		.word	1073815552
 1992 03d4 00210140 		.word	1073815808
 1993 03d8 00220140 		.word	1073816064
 1994 03dc 00000000 		.word	.LANCHOR7
 1995 03e0 00000000 		.word	.LANCHOR26
ARM GAS  /var/tmp//ccoqQk7W.s 			page 36


 1996 03e4 00000000 		.word	.LANCHOR28
 1997 03e8 00000000 		.word	.LANCHOR29
 1998 03ec 00000000 		.word	.LANCHOR30
 1999 03f0 00000000 		.word	.LANCHOR39
 2000 03f4 00000000 		.word	.LANCHOR40
 2001 03f8 00000000 		.word	.LANCHOR37
 2002 03fc 00000000 		.word	.LANCHOR12
 2003 0400 00000000 		.word	.LANCHOR38
 2004 0404 00000000 		.word	ADC_Value
 2005 0408 08230140 		.word	1073816328
 2006              	.L153:
 2007              		.loc 1 393 0
 2008 040c 3046     		mov	r0, r6
 2009 040e 0821     		movs	r1, #8
 2010 0410 FFF7FEFF 		bl	TIM_OC3PreloadConfig
 2011              	.LVL154:
 2012              		.loc 1 395 0
 2013 0414 3946     		mov	r1, r7
 2014 0416 3046     		mov	r0, r6
 2015 0418 FFF7FEFF 		bl	TIM_ARRPreloadConfig
 2016              	.LVL155:
 2017              		.loc 1 396 0
 2018 041c 3946     		mov	r1, r7
 2019 041e 3046     		mov	r0, r6
 2020 0420 FFF7FEFF 		bl	TIM_CCPreloadControl
 2021              	.LVL156:
 2022              		.loc 1 399 0
 2023 0424 3946     		mov	r1, r7
 2024 0426 3046     		mov	r0, r6
 2025 0428 FFF7FEFF 		bl	TIM_CtrlPWMOutputs
 2026              	.LVL157:
 2027              		.loc 1 402 0
 2028 042c 2846     		mov	r0, r5
 2029 042e 2021     		movs	r1, #32
 2030 0430 FFF7FEFF 		bl	TIM_SelectOutputTrigger
 2031              	.LVL158:
 2032              		.loc 1 403 0
 2033 0434 2846     		mov	r0, r5
 2034 0436 8021     		movs	r1, #128
 2035 0438 FFF7FEFF 		bl	TIM_SelectMasterSlaveMode
 2036              	.LVL159:
 2037              		.loc 1 404 0
 2038 043c 2146     		mov	r1, r4
 2039 043e 3046     		mov	r0, r6
 2040 0440 FFF7FEFF 		bl	TIM_SelectInputTrigger
 2041              	.LVL160:
 2042              		.loc 1 405 0
 2043 0444 4946     		mov	r1, r9
 2044 0446 3046     		mov	r0, r6
 2045 0448 FFF7FEFF 		bl	TIM_SelectSlaveMode
 2046              	.LVL161:
 2047              		.loc 1 408 0
 2048 044c 2846     		mov	r0, r5
 2049 044e 3946     		mov	r1, r7
 2050 0450 FFF7FEFF 		bl	TIM_Cmd
 2051              	.LVL162:
 2052              		.loc 1 409 0
ARM GAS  /var/tmp//ccoqQk7W.s 			page 37


 2053 0454 3946     		mov	r1, r7
 2054 0456 3046     		mov	r0, r6
 2055 0458 FFF7FEFF 		bl	TIM_Cmd
 2056              	.LVL163:
 2057              		.loc 1 412 0
 2058 045c 2846     		mov	r0, r5
 2059 045e 3946     		mov	r1, r7
 2060 0460 FFF7FEFF 		bl	TIM_CtrlPWMOutputs
 2061              	.LVL164:
 2062              		.loc 1 415 0
 2063 0464 FFF7FEFF 		bl	stop_pwm_hw
 2064              	.LVL165:
 2065              		.loc 1 419 0
 2066 0468 0221     		movs	r1, #2
 2067              		.loc 1 422 0
 2068 046a 3A46     		mov	r2, r7
 2069              		.loc 1 419 0
 2070 046c 7163     		str	r1, [r6, #52]
 2071              		.loc 1 422 0
 2072 046e 3046     		mov	r0, r6
 2073 0470 FFF7FEFF 		bl	TIM_ITConfig
 2074              	.LVL166:
 2075              		.loc 1 423 0
 2076 0474 0621     		movs	r1, #6
 2077 0476 2E20     		movs	r0, #46
 2078 0478 FFF7FEFF 		bl	nvicEnableVector
 2079              	.LVL167:
 2080              		.loc 1 428 0
 2081 047c 05F58435 		add	r5, r5, #67584
 2082              		.loc 1 425 0
 2083 0480 FFF7FEFF 		bl	utils_sys_unlock_cnt
 2084              	.LVL168:
 2085              		.loc 1 429 0
 2086 0484 364B     		ldr	r3, .L155
 2087              		.loc 1 428 0
 2088 0486 A5F81880 		strh	r8, [r5, #24]	@ movhi
 2089              		.loc 1 429 0
 2090 048a 4FF48052 		mov	r2, #4096
 2091 048e 5A83     		strh	r2, [r3, #26]	@ movhi
 2092              	.LBB56:
 2093              	.LBB57:
 2094              		.loc 1 2046 0
 2095 0490 41F28934 		movw	r4, #5001
 2096 0494 1A83     		strh	r2, [r3, #24]	@ movhi
 2097              	.LVL169:
 2098 0496 03E0     		b	.L145
 2099              	.LVL170:
 2100              	.L147:
 2101              		.loc 1 2051 0
 2102 0498 FFF7FEFF 		bl	chThdSleep
 2103              	.LVL171:
 2104              		.loc 1 2053 0
 2105 049c 013C     		subs	r4, r4, #1
 2106              	.LVL172:
 2107 049e 04D0     		beq	.L148
 2108              	.LVL173:
 2109              	.L145:
ARM GAS  /var/tmp//ccoqQk7W.s 			page 38


 2110              		.loc 1 2050 0
 2111 04a0 2B69     		ldr	r3, [r5, #16]
 2112 04a2 DB04     		lsls	r3, r3, #19
 2113              		.loc 1 2051 0
 2114 04a4 4FF00A00 		mov	r0, #10
 2115              		.loc 1 2050 0
 2116 04a8 F6D5     		bpl	.L147
 2117              	.LVL174:
 2118              	.L148:
 2119              		.loc 1 2058 0
 2120 04aa 42F21070 		movw	r0, #10000
 2121 04ae FFF7FEFF 		bl	chThdSleep
 2122              	.LVL175:
 2123              		.loc 1 2059 0
 2124 04b2 2C4A     		ldr	r2, .L155+4
 2125 04b4 0023     		movs	r3, #0
 2126 04b6 1360     		str	r3, [r2]
 2127              		.loc 1 2060 0
 2128 04b8 2B4A     		ldr	r2, .L155+8
 2129 04ba 1360     		str	r3, [r2]
 2130              		.loc 1 2064 0
 2131 04bc CBF80030 		str	r3, [fp]
 2132              	.L146:
 2133              		.loc 1 2065 0
 2134 04c0 DBF80030 		ldr	r3, [fp]
 2135 04c4 B3F57A6F 		cmp	r3, #4000
 2136 04c8 FADB     		blt	.L146
 2137              		.loc 1 2066 0
 2138 04ca 284A     		ldr	r2, .L155+12
 2139 04cc 254B     		ldr	r3, .L155+4
 2140 04ce 1B68     		ldr	r3, [r3]
 2141 04d0 DBF80010 		ldr	r1, [fp]
 2142 04d4 93FBF1F3 		sdiv	r3, r3, r1
 2143              		.loc 1 2067 0
 2144 04d8 2549     		ldr	r1, .L155+16
 2145              		.loc 1 2066 0
 2146 04da 1360     		str	r3, [r2]
 2147              		.loc 1 2067 0
 2148 04dc 224B     		ldr	r3, .L155+8
 2149              		.loc 1 2071 0
 2150 04de 204A     		ldr	r2, .L155
 2151              		.loc 1 2067 0
 2152 04e0 1B68     		ldr	r3, [r3]
 2153 04e2 DBF80000 		ldr	r0, [fp]
 2154 04e6 93FBF0F3 		sdiv	r3, r3, r0
 2155              		.loc 1 2072 0
 2156 04ea 0124     		movs	r4, #1
 2157              		.loc 1 2067 0
 2158 04ec 0B60     		str	r3, [r1]
 2159              		.loc 1 2071 0
 2160 04ee 4FF48050 		mov	r0, #4096
 2161              		.loc 1 2072 0
 2162 04f2 204B     		ldr	r3, .L155+20
 2163              		.loc 1 2071 0
 2164 04f4 5083     		strh	r0, [r2, #26]	@ movhi
 2165              	.LBE57:
 2166              	.LBE56:
ARM GAS  /var/tmp//ccoqQk7W.s 			page 39


 2167              		.loc 1 433 0
 2168 04f6 2146     		mov	r1, r4
 2169 04f8 4020     		movs	r0, #64
 2170              		.loc 1 438 0
 2171 04fa 0025     		movs	r5, #0
 2172              	.LBB59:
 2173              	.LBB58:
 2174              		.loc 1 2072 0
 2175 04fc 1C70     		strb	r4, [r3]
 2176              	.LBE58:
 2177              	.LBE59:
 2178              		.loc 1 433 0
 2179 04fe FFF7FEFF 		bl	RCC_APB1PeriphClockCmd
 2180              	.LVL176:
 2181              		.loc 1 436 0
 2182 0502 4FF0FF32 		mov	r2, #-1
 2183              		.loc 1 437 0
 2184 0506 0723     		movs	r3, #7
 2185              		.loc 1 440 0
 2186 0508 03A9     		add	r1, sp, #12
 2187 050a 1B48     		ldr	r0, .L155+24
 2188              		.loc 1 436 0
 2189 050c 0492     		str	r2, [sp, #16]
 2190              		.loc 1 437 0
 2191 050e ADF80C30 		strh	r3, [sp, #12]	@ movhi
 2192              		.loc 1 438 0
 2193 0512 ADF81450 		strh	r5, [sp, #20]	@ movhi
 2194              		.loc 1 439 0
 2195 0516 ADF80E50 		strh	r5, [sp, #14]	@ movhi
 2196              		.loc 1 440 0
 2197 051a FFF7FEFF 		bl	TIM_TimeBaseInit
 2198              	.LVL177:
 2199              		.loc 1 442 0
 2200 051e 2146     		mov	r1, r4
 2201 0520 1548     		ldr	r0, .L155+24
 2202 0522 FFF7FEFF 		bl	TIM_Cmd
 2203              	.LVL178:
 2204              		.loc 1 445 0
 2205 0526 154A     		ldr	r2, .L155+28
 2206              		.loc 1 446 0
 2207 0528 154B     		ldr	r3, .L155+32
 2208 052a 0095     		str	r5, [sp]
 2209 052c 40F69811 		movw	r1, #2456
 2210              		.loc 1 445 0
 2211 0530 1570     		strb	r5, [r2]
 2212              		.loc 1 446 0
 2213 0532 1448     		ldr	r0, .L155+36
 2214 0534 4022     		movs	r2, #64
 2215 0536 FFF7FEFF 		bl	chThdCreateStatic
 2216              	.LVL179:
 2217              		.loc 1 449 0
 2218 053a 2146     		mov	r1, r4
 2219 053c 4FF40060 		mov	r0, #2048
 2220 0540 FFF7FEFF 		bl	RCC_APB1PeriphClockCmd
 2221              	.LVL180:
 2222              		.loc 1 450 0
 2223 0544 2846     		mov	r0, r5
ARM GAS  /var/tmp//ccoqQk7W.s 			page 40


 2224 0546 FFF7FEFF 		bl	WWDG_SetPrescaler
 2225              	.LVL181:
 2226              		.loc 1 451 0
 2227 054a FF20     		movs	r0, #255
 2228 054c FFF7FEFF 		bl	WWDG_SetWindowValue
 2229              	.LVL182:
 2230              		.loc 1 452 0
 2231 0550 6420     		movs	r0, #100
 2232 0552 FFF7FEFF 		bl	WWDG_Enable
 2233              	.LVL183:
 2234              		.loc 1 454 0
 2235 0556 0C4B     		ldr	r3, .L155+40
 2236 0558 1C70     		strb	r4, [r3]
 2237              		.loc 1 455 0
 2238 055a 29B0     		add	sp, sp, #164
 2239              		.cfi_def_cfa_offset 36
 2240              		@ sp needed
 2241 055c BDE8F08F 		pop	{r4, r5, r6, r7, r8, r9, r10, fp, pc}
 2242              	.L156:
 2243              		.align	2
 2244              	.L155:
 2245 0560 00040240 		.word	1073873920
 2246 0564 00000000 		.word	.LANCHOR24
 2247 0568 00000000 		.word	.LANCHOR25
 2248 056c 00000000 		.word	.LANCHOR42
 2249 0570 00000000 		.word	.LANCHOR43
 2250 0574 00000000 		.word	.LANCHOR27
 2251 0578 00180040 		.word	1073747968
 2252 057c 00000000 		.word	.LANCHOR9
 2253 0580 00000000 		.word	timer_thread
 2254 0584 00000000 		.word	.LANCHOR44
 2255 0588 00000000 		.word	.LANCHOR23
 2256              		.cfi_endproc
 2257              	.LFE256:
 2258              		.size	mcpwm_foc_init, .-mcpwm_foc_init
 2259              		.section	.text.mcpwm_foc_deinit,"ax",%progbits
 2260              		.align	1
 2261              		.p2align 4,,15
 2262              		.global	mcpwm_foc_deinit
 2263              		.syntax unified
 2264              		.thumb
 2265              		.thumb_func
 2266              		.fpu fpv4-sp-d16
 2267              		.type	mcpwm_foc_deinit, %function
 2268              	mcpwm_foc_deinit:
 2269              	.LFB257:
 2270              		.loc 1 457 0
 2271              		.cfi_startproc
 2272              		@ args = 0, pretend = 0, frame = 0
 2273              		@ frame_needed = 0, uses_anonymous_args = 0
 2274              		.loc 1 458 0
 2275 0000 134B     		ldr	r3, .L163
 2276              		.loc 1 457 0
 2277 0002 10B5     		push	{r4, lr}
 2278              		.cfi_def_cfa_offset 8
 2279              		.cfi_offset 4, -8
 2280              		.cfi_offset 14, -4
ARM GAS  /var/tmp//ccoqQk7W.s 			page 41


 2281              		.loc 1 458 0
 2282 0004 0022     		movs	r2, #0
 2283              		.loc 1 462 0
 2284 0006 134C     		ldr	r4, .L163+4
 2285              		.loc 1 458 0
 2286 0008 1A70     		strb	r2, [r3]
 2287              		.loc 1 460 0
 2288 000a FFF7FEFF 		bl	WWDG_DeInit
 2289              	.LVL184:
 2290              		.loc 1 462 0
 2291 000e 0123     		movs	r3, #1
 2292 0010 2370     		strb	r3, [r4]
 2293              		.loc 1 464 0
 2294 0012 2378     		ldrb	r3, [r4]	@ zero_extendqisi2
 2295 0014 2BB1     		cbz	r3, .L159
 2296              	.L160:
 2297              		.loc 1 465 0
 2298 0016 0A20     		movs	r0, #10
 2299 0018 FFF7FEFF 		bl	chThdSleep
 2300              	.LVL185:
 2301              		.loc 1 464 0
 2302 001c 2378     		ldrb	r3, [r4]	@ zero_extendqisi2
 2303 001e 002B     		cmp	r3, #0
 2304 0020 F9D1     		bne	.L160
 2305              	.L159:
 2306              		.loc 1 468 0
 2307 0022 0D48     		ldr	r0, .L163+8
 2308 0024 FFF7FEFF 		bl	TIM_DeInit
 2309              	.LVL186:
 2310              		.loc 1 469 0
 2311 0028 0C48     		ldr	r0, .L163+12
 2312 002a FFF7FEFF 		bl	TIM_DeInit
 2313              	.LVL187:
 2314              		.loc 1 470 0
 2315 002e 0C48     		ldr	r0, .L163+16
 2316 0030 FFF7FEFF 		bl	TIM_DeInit
 2317              	.LVL188:
 2318              		.loc 1 471 0
 2319 0034 FFF7FEFF 		bl	ADC_DeInit
 2320              	.LVL189:
 2321              		.loc 1 472 0
 2322 0038 0A48     		ldr	r0, .L163+20
 2323 003a FFF7FEFF 		bl	DMA_DeInit
 2324              	.LVL190:
 2325              		.loc 1 473 0
 2326 003e 1220     		movs	r0, #18
 2327 0040 FFF7FEFF 		bl	nvicDisableVector
 2328              	.LVL191:
 2329              		.loc 1 474 0
 2330 0044 0848     		ldr	r0, .L163+24
 2331              		.loc 1 475 0
 2332 0046 BDE81040 		pop	{r4, lr}
 2333              		.cfi_restore 14
 2334              		.cfi_restore 4
 2335              		.cfi_def_cfa_offset 0
 2336              		.loc 1 474 0
 2337 004a FFF7FEBF 		b	dmaStreamRelease
ARM GAS  /var/tmp//ccoqQk7W.s 			page 42


 2338              	.LVL192:
 2339              	.L164:
 2340 004e 00BF     		.align	2
 2341              	.L163:
 2342 0050 00000000 		.word	.LANCHOR23
 2343 0054 00000000 		.word	.LANCHOR9
 2344 0058 00000140 		.word	1073807360
 2345 005c 00040140 		.word	1073808384
 2346 0060 00180040 		.word	1073747968
 2347 0064 70640240 		.word	1073898608
 2348 0068 90000000 		.word	_stm32_dma_streams+144
 2349              		.cfi_endproc
 2350              	.LFE257:
 2351              		.size	mcpwm_foc_deinit, .-mcpwm_foc_deinit
 2352              		.section	.text.mcpwm_foc_init_done,"ax",%progbits
 2353              		.align	1
 2354              		.p2align 4,,15
 2355              		.global	mcpwm_foc_init_done
 2356              		.syntax unified
 2357              		.thumb
 2358              		.thumb_func
 2359              		.fpu fpv4-sp-d16
 2360              		.type	mcpwm_foc_init_done, %function
 2361              	mcpwm_foc_init_done:
 2362              	.LFB258:
 2363              		.loc 1 477 0
 2364              		.cfi_startproc
 2365              		@ args = 0, pretend = 0, frame = 0
 2366              		@ frame_needed = 0, uses_anonymous_args = 0
 2367              		@ link register save eliminated.
 2368              		.loc 1 478 0
 2369 0000 014B     		ldr	r3, .L166
 2370 0002 1878     		ldrb	r0, [r3]	@ zero_extendqisi2
 2371              		.loc 1 479 0
 2372 0004 7047     		bx	lr
 2373              	.L167:
 2374 0006 00BF     		.align	2
 2375              	.L166:
 2376 0008 00000000 		.word	.LANCHOR23
 2377              		.cfi_endproc
 2378              	.LFE258:
 2379              		.size	mcpwm_foc_init_done, .-mcpwm_foc_init_done
 2380              		.section	.text.mcpwm_foc_set_configuration,"ax",%progbits
 2381              		.align	1
 2382              		.p2align 4,,15
 2383              		.global	mcpwm_foc_set_configuration
 2384              		.syntax unified
 2385              		.thumb
 2386              		.thumb_func
 2387              		.fpu fpv4-sp-d16
 2388              		.type	mcpwm_foc_set_configuration, %function
 2389              	mcpwm_foc_set_configuration:
 2390              	.LFB259:
 2391              		.loc 1 481 0
 2392              		.cfi_startproc
 2393              		@ args = 0, pretend = 0, frame = 0
 2394              		@ frame_needed = 0, uses_anonymous_args = 0
ARM GAS  /var/tmp//ccoqQk7W.s 			page 43


 2395              	.LVL193:
 2396 0000 10B5     		push	{r4, lr}
 2397              		.cfi_def_cfa_offset 8
 2398              		.cfi_offset 4, -8
 2399              		.cfi_offset 14, -4
 2400              		.loc 1 482 0
 2401 0002 144C     		ldr	r4, .L170
 2402              		.loc 1 484 0
 2403 0004 1449     		ldr	r1, .L170+4
 2404              		.loc 1 485 0
 2405 0006 154B     		ldr	r3, .L170+8
 2406              		.loc 1 482 0
 2407 0008 2060     		str	r0, [r4]
 2408              		.loc 1 485 0
 2409 000a 0022     		movs	r2, #0
 2410              		.loc 1 484 0
 2411 000c 0720     		movs	r0, #7
 2412              	.LVL194:
 2413 000e 0870     		strb	r0, [r1]
 2414              		.loc 1 485 0
 2415 0010 1A70     		strb	r2, [r3]
 2416              		.loc 1 486 0
 2417 0012 FFF7FEFF 		bl	stop_pwm_hw
 2418              	.LVL195:
 2419              		.loc 1 487 0
 2420 0016 2368     		ldr	r3, [r4]
 2421              		.loc 1 488 0
 2422 0018 114A     		ldr	r2, .L170+12
 2423              		.loc 1 487 0
 2424 001a D3ED2B7A 		vldr.32	s15, [r3, #172]
 2425              		.loc 1 488 0
 2426 001e 1168     		ldr	r1, [r2]
 2427 0020 104B     		ldr	r3, .L170+16
 2428              		.loc 1 487 0
 2429 0022 1148     		ldr	r0, .L170+20
 2430              		.loc 1 488 0
 2431 0024 41F00201 		orr	r1, r1, #2
 2432 0028 1160     		str	r1, [r2]
 2433 002a 1968     		ldr	r1, [r3]
 2434 002c 0224     		movs	r4, #2
 2435              		.loc 1 487 0
 2436 002e FDEEE77A 		vcvt.s32.f32	s15, s15
 2437              		.loc 1 488 0
 2438 0032 2143     		orrs	r1, r1, r4
 2439 0034 1960     		str	r1, [r3]
 2440              		.loc 1 487 0
 2441 0036 17EE901A 		vmov	r1, s15	@ int
 2442 003a 90FBF1F1 		sdiv	r1, r0, r1
 2443              	.LVL196:
 2444              		.loc 1 488 0
 2445 003e D162     		str	r1, [r2, #44]
 2446 0040 5C63     		str	r4, [r3, #52]
 2447 0042 1168     		ldr	r1, [r2]
 2448              	.LVL197:
 2449 0044 21F00201 		bic	r1, r1, #2
 2450 0048 1160     		str	r1, [r2]
 2451 004a 1A68     		ldr	r2, [r3]
ARM GAS  /var/tmp//ccoqQk7W.s 			page 44


 2452 004c 22F00202 		bic	r2, r2, #2
 2453 0050 1A60     		str	r2, [r3]
 2454 0052 10BD     		pop	{r4, pc}
 2455              	.L171:
 2456              		.align	2
 2457              	.L170:
 2458 0054 00000000 		.word	.LANCHOR0
 2459 0058 00000000 		.word	.LANCHOR14
 2460 005c 00000000 		.word	.LANCHOR7
 2461 0060 00000140 		.word	1073807360
 2462 0064 00040140 		.word	1073808384
 2463 0068 007A030A 		.word	168000000
 2464              		.cfi_endproc
 2465              	.LFE259:
 2466              		.size	mcpwm_foc_set_configuration, .-mcpwm_foc_set_configuration
 2467              		.section	.text.mcpwm_foc_get_state,"ax",%progbits
 2468              		.align	1
 2469              		.p2align 4,,15
 2470              		.global	mcpwm_foc_get_state
 2471              		.syntax unified
 2472              		.thumb
 2473              		.thumb_func
 2474              		.fpu fpv4-sp-d16
 2475              		.type	mcpwm_foc_get_state, %function
 2476              	mcpwm_foc_get_state:
 2477              	.LFB260:
 2478              		.loc 1 491 0
 2479              		.cfi_startproc
 2480              		@ args = 0, pretend = 0, frame = 0
 2481              		@ frame_needed = 0, uses_anonymous_args = 0
 2482              		@ link register save eliminated.
 2483              		.loc 1 492 0
 2484 0000 014B     		ldr	r3, .L173
 2485 0002 1878     		ldrb	r0, [r3]	@ zero_extendqisi2
 2486              		.loc 1 493 0
 2487 0004 7047     		bx	lr
 2488              	.L174:
 2489 0006 00BF     		.align	2
 2490              	.L173:
 2491 0008 00000000 		.word	.LANCHOR7
 2492              		.cfi_endproc
 2493              	.LFE260:
 2494              		.size	mcpwm_foc_get_state, .-mcpwm_foc_get_state
 2495              		.section	.text.mcpwm_foc_is_dccal_done,"ax",%progbits
 2496              		.align	1
 2497              		.p2align 4,,15
 2498              		.global	mcpwm_foc_is_dccal_done
 2499              		.syntax unified
 2500              		.thumb
 2501              		.thumb_func
 2502              		.fpu fpv4-sp-d16
 2503              		.type	mcpwm_foc_is_dccal_done, %function
 2504              	mcpwm_foc_is_dccal_done:
 2505              	.LFB261:
 2506              		.loc 1 495 0
 2507              		.cfi_startproc
 2508              		@ args = 0, pretend = 0, frame = 0
ARM GAS  /var/tmp//ccoqQk7W.s 			page 45


 2509              		@ frame_needed = 0, uses_anonymous_args = 0
 2510              		@ link register save eliminated.
 2511              		.loc 1 496 0
 2512 0000 014B     		ldr	r3, .L176
 2513 0002 1878     		ldrb	r0, [r3]	@ zero_extendqisi2
 2514              		.loc 1 497 0
 2515 0004 7047     		bx	lr
 2516              	.L177:
 2517 0006 00BF     		.align	2
 2518              	.L176:
 2519 0008 00000000 		.word	.LANCHOR27
 2520              		.cfi_endproc
 2521              	.LFE261:
 2522              		.size	mcpwm_foc_is_dccal_done, .-mcpwm_foc_is_dccal_done
 2523              		.section	.text.mcpwm_foc_set_duty,"ax",%progbits
 2524              		.align	1
 2525              		.p2align 4,,15
 2526              		.global	mcpwm_foc_set_duty
 2527              		.syntax unified
 2528              		.thumb
 2529              		.thumb_func
 2530              		.fpu fpv4-sp-d16
 2531              		.type	mcpwm_foc_set_duty, %function
 2532              	mcpwm_foc_set_duty:
 2533              	.LFB263:
 2534              		.loc 1 513 0
 2535              		.cfi_startproc
 2536              		@ args = 0, pretend = 0, frame = 0
 2537              		@ frame_needed = 0, uses_anonymous_args = 0
 2538              		@ link register save eliminated.
 2539              	.LVL198:
 2540              		.loc 1 515 0
 2541 0000 064A     		ldr	r2, .L183
 2542              		.loc 1 514 0
 2543 0002 0749     		ldr	r1, .L183+4
 2544              		.loc 1 517 0
 2545 0004 074B     		ldr	r3, .L183+8
 2546              		.loc 1 514 0
 2547 0006 0020     		movs	r0, #0
 2548 0008 0870     		strb	r0, [r1]
 2549              		.loc 1 515 0
 2550 000a 82ED000A 		vstr.32	s0, [r2]
 2551              		.loc 1 517 0
 2552 000e 1A78     		ldrb	r2, [r3]	@ zero_extendqisi2
 2553 0010 022A     		cmp	r2, #2
 2554              		.loc 1 518 0
 2555 0012 1CBF     		itt	ne
 2556 0014 0222     		movne	r2, #2
 2557 0016 1A70     		strbne	r2, [r3]
 2558 0018 7047     		bx	lr
 2559              	.L184:
 2560 001a 00BF     		.align	2
 2561              	.L183:
 2562 001c 00000000 		.word	.LANCHOR30
 2563 0020 00000000 		.word	.LANCHOR14
 2564 0024 00000000 		.word	.LANCHOR7
 2565              		.cfi_endproc
ARM GAS  /var/tmp//ccoqQk7W.s 			page 46


 2566              	.LFE263:
 2567              		.size	mcpwm_foc_set_duty, .-mcpwm_foc_set_duty
 2568              		.section	.text.mcpwm_foc_set_duty_noramp,"ax",%progbits
 2569              		.align	1
 2570              		.p2align 4,,15
 2571              		.global	mcpwm_foc_set_duty_noramp
 2572              		.syntax unified
 2573              		.thumb
 2574              		.thumb_func
 2575              		.fpu fpv4-sp-d16
 2576              		.type	mcpwm_foc_set_duty_noramp, %function
 2577              	mcpwm_foc_set_duty_noramp:
 2578              	.LFB264:
 2579              		.loc 1 532 0
 2580              		.cfi_startproc
 2581              		@ args = 0, pretend = 0, frame = 0
 2582              		@ frame_needed = 0, uses_anonymous_args = 0
 2583              		@ link register save eliminated.
 2584              	.LVL199:
 2585              	.LBB60:
 2586              	.LBB61:
 2587              		.loc 1 515 0
 2588 0000 064A     		ldr	r2, .L190
 2589              		.loc 1 514 0
 2590 0002 0749     		ldr	r1, .L190+4
 2591              		.loc 1 517 0
 2592 0004 074B     		ldr	r3, .L190+8
 2593              		.loc 1 514 0
 2594 0006 0020     		movs	r0, #0
 2595 0008 0870     		strb	r0, [r1]
 2596              		.loc 1 515 0
 2597 000a 82ED000A 		vstr.32	s0, [r2]
 2598              		.loc 1 517 0
 2599 000e 1A78     		ldrb	r2, [r3]	@ zero_extendqisi2
 2600 0010 022A     		cmp	r2, #2
 2601              		.loc 1 518 0
 2602 0012 1CBF     		itt	ne
 2603 0014 0222     		movne	r2, #2
 2604 0016 1A70     		strbne	r2, [r3]
 2605              	.LVL200:
 2606 0018 7047     		bx	lr
 2607              	.L191:
 2608 001a 00BF     		.align	2
 2609              	.L190:
 2610 001c 00000000 		.word	.LANCHOR30
 2611 0020 00000000 		.word	.LANCHOR14
 2612 0024 00000000 		.word	.LANCHOR7
 2613              	.LBE61:
 2614              	.LBE60:
 2615              		.cfi_endproc
 2616              	.LFE264:
 2617              		.size	mcpwm_foc_set_duty_noramp, .-mcpwm_foc_set_duty_noramp
 2618              		.section	.text.mcpwm_foc_set_pid_speed,"ax",%progbits
 2619              		.align	1
 2620              		.p2align 4,,15
 2621              		.global	mcpwm_foc_set_pid_speed
 2622              		.syntax unified
ARM GAS  /var/tmp//ccoqQk7W.s 			page 47


 2623              		.thumb
 2624              		.thumb_func
 2625              		.fpu fpv4-sp-d16
 2626              		.type	mcpwm_foc_set_pid_speed, %function
 2627              	mcpwm_foc_set_pid_speed:
 2628              	.LFB265:
 2629              		.loc 1 544 0
 2630              		.cfi_startproc
 2631              		@ args = 0, pretend = 0, frame = 0
 2632              		@ frame_needed = 0, uses_anonymous_args = 0
 2633              		@ link register save eliminated.
 2634              	.LVL201:
 2635              		.loc 1 546 0
 2636 0000 064A     		ldr	r2, .L197
 2637              		.loc 1 545 0
 2638 0002 0749     		ldr	r1, .L197+4
 2639              		.loc 1 548 0
 2640 0004 074B     		ldr	r3, .L197+8
 2641              		.loc 1 545 0
 2642 0006 0120     		movs	r0, #1
 2643 0008 0870     		strb	r0, [r1]
 2644              		.loc 1 546 0
 2645 000a 82ED000A 		vstr.32	s0, [r2]
 2646              		.loc 1 548 0
 2647 000e 1A78     		ldrb	r2, [r3]	@ zero_extendqisi2
 2648 0010 022A     		cmp	r2, #2
 2649              		.loc 1 549 0
 2650 0012 1CBF     		itt	ne
 2651 0014 0222     		movne	r2, #2
 2652 0016 1A70     		strbne	r2, [r3]
 2653 0018 7047     		bx	lr
 2654              	.L198:
 2655 001a 00BF     		.align	2
 2656              	.L197:
 2657 001c 00000000 		.word	.LANCHOR21
 2658 0020 00000000 		.word	.LANCHOR14
 2659 0024 00000000 		.word	.LANCHOR7
 2660              		.cfi_endproc
 2661              	.LFE265:
 2662              		.size	mcpwm_foc_set_pid_speed, .-mcpwm_foc_set_pid_speed
 2663              		.section	.text.mcpwm_foc_set_pid_pos,"ax",%progbits
 2664              		.align	1
 2665              		.p2align 4,,15
 2666              		.global	mcpwm_foc_set_pid_pos
 2667              		.syntax unified
 2668              		.thumb
 2669              		.thumb_func
 2670              		.fpu fpv4-sp-d16
 2671              		.type	mcpwm_foc_set_pid_pos, %function
 2672              	mcpwm_foc_set_pid_pos:
 2673              	.LFB266:
 2674              		.loc 1 560 0
 2675              		.cfi_startproc
 2676              		@ args = 0, pretend = 0, frame = 0
 2677              		@ frame_needed = 0, uses_anonymous_args = 0
 2678              		@ link register save eliminated.
 2679              	.LVL202:
ARM GAS  /var/tmp//ccoqQk7W.s 			page 48


 2680              		.loc 1 562 0
 2681 0000 064A     		ldr	r2, .L204
 2682              		.loc 1 561 0
 2683 0002 0749     		ldr	r1, .L204+4
 2684              		.loc 1 564 0
 2685 0004 074B     		ldr	r3, .L204+8
 2686              		.loc 1 561 0
 2687 0006 0420     		movs	r0, #4
 2688 0008 0870     		strb	r0, [r1]
 2689              		.loc 1 562 0
 2690 000a 82ED000A 		vstr.32	s0, [r2]
 2691              		.loc 1 564 0
 2692 000e 1A78     		ldrb	r2, [r3]	@ zero_extendqisi2
 2693 0010 022A     		cmp	r2, #2
 2694              		.loc 1 565 0
 2695 0012 1CBF     		itt	ne
 2696 0014 0222     		movne	r2, #2
 2697 0016 1A70     		strbne	r2, [r3]
 2698 0018 7047     		bx	lr
 2699              	.L205:
 2700 001a 00BF     		.align	2
 2701              	.L204:
 2702 001c 00000000 		.word	.LANCHOR33
 2703 0020 00000000 		.word	.LANCHOR14
 2704 0024 00000000 		.word	.LANCHOR7
 2705              		.cfi_endproc
 2706              	.LFE266:
 2707              		.size	mcpwm_foc_set_pid_pos, .-mcpwm_foc_set_pid_pos
 2708              		.section	.text.mcpwm_foc_set_current,"ax",%progbits
 2709              		.align	1
 2710              		.p2align 4,,15
 2711              		.global	mcpwm_foc_set_current
 2712              		.syntax unified
 2713              		.thumb
 2714              		.thumb_func
 2715              		.fpu fpv4-sp-d16
 2716              		.type	mcpwm_foc_set_current, %function
 2717              	mcpwm_foc_set_current:
 2718              	.LFB267:
 2719              		.loc 1 577 0
 2720              		.cfi_startproc
 2721              		@ args = 0, pretend = 0, frame = 0
 2722              		@ frame_needed = 0, uses_anonymous_args = 0
 2723              		@ link register save eliminated.
 2724              	.LVL203:
 2725              		.loc 1 578 0
 2726 0000 0F4B     		ldr	r3, .L216
 2727 0002 1B68     		ldr	r3, [r3]
 2728 0004 D3ED507A 		vldr.32	s15, [r3, #320]
 2729 0008 B0EEC07A 		vabs.f32	s14, s0
 2730 000c B4EEE77A 		vcmpe.f32	s14, s15
 2731 0010 F1EE10FA 		vmrs	APSR_nzcv, FPSCR
 2732 0014 0BD4     		bmi	.L215
 2733              		.loc 1 586 0
 2734 0016 0B49     		ldr	r1, .L216+4
 2735              		.loc 1 585 0
 2736 0018 0B48     		ldr	r0, .L216+8
ARM GAS  /var/tmp//ccoqQk7W.s 			page 49


 2737              		.loc 1 588 0
 2738 001a 0C4B     		ldr	r3, .L216+12
 2739              		.loc 1 585 0
 2740 001c 0222     		movs	r2, #2
 2741 001e 0270     		strb	r2, [r0]
 2742              		.loc 1 586 0
 2743 0020 81ED000A 		vstr.32	s0, [r1]
 2744              		.loc 1 588 0
 2745 0024 1978     		ldrb	r1, [r3]	@ zero_extendqisi2
 2746 0026 9142     		cmp	r1, r2
 2747              		.loc 1 589 0
 2748 0028 18BF     		it	ne
 2749 002a 1A70     		strbne	r2, [r3]
 2750 002c 7047     		bx	lr
 2751              	.L215:
 2752              	.LVL204:
 2753              	.LBB64:
 2754              	.LBB65:
 2755              		.loc 1 579 0
 2756 002e 0649     		ldr	r1, .L216+8
 2757              		.loc 1 580 0
 2758 0030 064B     		ldr	r3, .L216+12
 2759              		.loc 1 579 0
 2760 0032 0720     		movs	r0, #7
 2761              		.loc 1 580 0
 2762 0034 0022     		movs	r2, #0
 2763              		.loc 1 579 0
 2764 0036 0870     		strb	r0, [r1]
 2765              		.loc 1 580 0
 2766 0038 1A70     		strb	r2, [r3]
 2767              		.loc 1 581 0
 2768 003a FFF7FEBF 		b	stop_pwm_hw
 2769              	.LVL205:
 2770              	.L217:
 2771 003e 00BF     		.align	2
 2772              	.L216:
 2773 0040 00000000 		.word	.LANCHOR0
 2774 0044 00000000 		.word	.LANCHOR22
 2775 0048 00000000 		.word	.LANCHOR14
 2776 004c 00000000 		.word	.LANCHOR7
 2777              	.LBE65:
 2778              	.LBE64:
 2779              		.cfi_endproc
 2780              	.LFE267:
 2781              		.size	mcpwm_foc_set_current, .-mcpwm_foc_set_current
 2782              		.section	.text.mcpwm_foc_stop_pwm,"ax",%progbits
 2783              		.align	1
 2784              		.p2align 4,,15
 2785              		.global	mcpwm_foc_stop_pwm
 2786              		.syntax unified
 2787              		.thumb
 2788              		.thumb_func
 2789              		.fpu fpv4-sp-d16
 2790              		.type	mcpwm_foc_stop_pwm, %function
 2791              	mcpwm_foc_stop_pwm:
 2792              	.LFB262:
 2793              		.loc 1 502 0
ARM GAS  /var/tmp//ccoqQk7W.s 			page 50


 2794              		.cfi_startproc
 2795              		@ args = 0, pretend = 0, frame = 0
 2796              		@ frame_needed = 0, uses_anonymous_args = 0
 2797              		@ link register save eliminated.
 2798              		.loc 1 503 0
 2799 0000 9FED010A 		vldr.32	s0, .L219
 2800 0004 FFF7FEBF 		b	mcpwm_foc_set_current
 2801              	.LVL206:
 2802              	.L220:
 2803              		.align	2
 2804              	.L219:
 2805 0008 00000000 		.word	0
 2806              		.cfi_endproc
 2807              	.LFE262:
 2808              		.size	mcpwm_foc_stop_pwm, .-mcpwm_foc_stop_pwm
 2809              		.section	.text.mcpwm_foc_set_brake_current,"ax",%progbits
 2810              		.align	1
 2811              		.p2align 4,,15
 2812              		.global	mcpwm_foc_set_brake_current
 2813              		.syntax unified
 2814              		.thumb
 2815              		.thumb_func
 2816              		.fpu fpv4-sp-d16
 2817              		.type	mcpwm_foc_set_brake_current, %function
 2818              	mcpwm_foc_set_brake_current:
 2819              	.LFB268:
 2820              		.loc 1 600 0
 2821              		.cfi_startproc
 2822              		@ args = 0, pretend = 0, frame = 0
 2823              		@ frame_needed = 0, uses_anonymous_args = 0
 2824              		@ link register save eliminated.
 2825              	.LVL207:
 2826              		.loc 1 601 0
 2827 0000 0F4B     		ldr	r3, .L231
 2828              		.loc 1 602 0
 2829 0002 1049     		ldr	r1, .L231+4
 2830              		.loc 1 601 0
 2831 0004 1B68     		ldr	r3, [r3]
 2832 0006 D3ED507A 		vldr.32	s15, [r3, #320]
 2833 000a B0EEC07A 		vabs.f32	s14, s0
 2834 000e B4EEE77A 		vcmpe.f32	s14, s15
 2835 0012 F1EE10FA 		vmrs	APSR_nzcv, FPSCR
 2836 0016 0BD4     		bmi	.L230
 2837              		.loc 1 609 0
 2838 0018 0B4A     		ldr	r2, .L231+8
 2839              		.loc 1 611 0
 2840 001a 0C4B     		ldr	r3, .L231+12
 2841              		.loc 1 608 0
 2842 001c 0320     		movs	r0, #3
 2843 001e 0870     		strb	r0, [r1]
 2844              		.loc 1 609 0
 2845 0020 82ED000A 		vstr.32	s0, [r2]
 2846              		.loc 1 611 0
 2847 0024 1A78     		ldrb	r2, [r3]	@ zero_extendqisi2
 2848 0026 022A     		cmp	r2, #2
 2849              		.loc 1 612 0
 2850 0028 1CBF     		itt	ne
ARM GAS  /var/tmp//ccoqQk7W.s 			page 51


 2851 002a 0222     		movne	r2, #2
 2852 002c 1A70     		strbne	r2, [r3]
 2853 002e 7047     		bx	lr
 2854              	.L230:
 2855              		.loc 1 603 0
 2856 0030 064B     		ldr	r3, .L231+12
 2857              		.loc 1 602 0
 2858 0032 0720     		movs	r0, #7
 2859              		.loc 1 603 0
 2860 0034 0022     		movs	r2, #0
 2861              		.loc 1 602 0
 2862 0036 0870     		strb	r0, [r1]
 2863              		.loc 1 603 0
 2864 0038 1A70     		strb	r2, [r3]
 2865              		.loc 1 604 0
 2866 003a FFF7FEBF 		b	stop_pwm_hw
 2867              	.LVL208:
 2868              	.L232:
 2869 003e 00BF     		.align	2
 2870              	.L231:
 2871 0040 00000000 		.word	.LANCHOR0
 2872 0044 00000000 		.word	.LANCHOR14
 2873 0048 00000000 		.word	.LANCHOR22
 2874 004c 00000000 		.word	.LANCHOR7
 2875              		.cfi_endproc
 2876              	.LFE268:
 2877              		.size	mcpwm_foc_set_brake_current, .-mcpwm_foc_set_brake_current
 2878              		.section	.text.mcpwm_foc_set_handbrake,"ax",%progbits
 2879              		.align	1
 2880              		.p2align 4,,15
 2881              		.global	mcpwm_foc_set_handbrake
 2882              		.syntax unified
 2883              		.thumb
 2884              		.thumb_func
 2885              		.fpu fpv4-sp-d16
 2886              		.type	mcpwm_foc_set_handbrake, %function
 2887              	mcpwm_foc_set_handbrake:
 2888              	.LFB269:
 2889              		.loc 1 623 0
 2890              		.cfi_startproc
 2891              		@ args = 0, pretend = 0, frame = 0
 2892              		@ frame_needed = 0, uses_anonymous_args = 0
 2893              		@ link register save eliminated.
 2894              	.LVL209:
 2895              		.loc 1 624 0
 2896 0000 0F4B     		ldr	r3, .L243
 2897              		.loc 1 625 0
 2898 0002 1049     		ldr	r1, .L243+4
 2899              		.loc 1 624 0
 2900 0004 1B68     		ldr	r3, [r3]
 2901 0006 D3ED507A 		vldr.32	s15, [r3, #320]
 2902 000a B0EEC07A 		vabs.f32	s14, s0
 2903 000e B4EEE77A 		vcmpe.f32	s14, s15
 2904 0012 F1EE10FA 		vmrs	APSR_nzcv, FPSCR
 2905 0016 0BD4     		bmi	.L242
 2906              		.loc 1 632 0
 2907 0018 0B4A     		ldr	r2, .L243+8
ARM GAS  /var/tmp//ccoqQk7W.s 			page 52


 2908              		.loc 1 634 0
 2909 001a 0C4B     		ldr	r3, .L243+12
 2910              		.loc 1 631 0
 2911 001c 0520     		movs	r0, #5
 2912 001e 0870     		strb	r0, [r1]
 2913              		.loc 1 632 0
 2914 0020 82ED000A 		vstr.32	s0, [r2]
 2915              		.loc 1 634 0
 2916 0024 1A78     		ldrb	r2, [r3]	@ zero_extendqisi2
 2917 0026 022A     		cmp	r2, #2
 2918              		.loc 1 635 0
 2919 0028 1CBF     		itt	ne
 2920 002a 0222     		movne	r2, #2
 2921 002c 1A70     		strbne	r2, [r3]
 2922 002e 7047     		bx	lr
 2923              	.L242:
 2924              		.loc 1 626 0
 2925 0030 064B     		ldr	r3, .L243+12
 2926              		.loc 1 625 0
 2927 0032 0720     		movs	r0, #7
 2928              		.loc 1 626 0
 2929 0034 0022     		movs	r2, #0
 2930              		.loc 1 625 0
 2931 0036 0870     		strb	r0, [r1]
 2932              		.loc 1 626 0
 2933 0038 1A70     		strb	r2, [r3]
 2934              		.loc 1 627 0
 2935 003a FFF7FEBF 		b	stop_pwm_hw
 2936              	.LVL210:
 2937              	.L244:
 2938 003e 00BF     		.align	2
 2939              	.L243:
 2940 0040 00000000 		.word	.LANCHOR0
 2941 0044 00000000 		.word	.LANCHOR14
 2942 0048 00000000 		.word	.LANCHOR22
 2943 004c 00000000 		.word	.LANCHOR7
 2944              		.cfi_endproc
 2945              	.LFE269:
 2946              		.size	mcpwm_foc_set_handbrake, .-mcpwm_foc_set_handbrake
 2947              		.section	.text.mcpwm_foc_set_openloop,"ax",%progbits
 2948              		.align	1
 2949              		.p2align 4,,15
 2950              		.global	mcpwm_foc_set_openloop
 2951              		.syntax unified
 2952              		.thumb
 2953              		.thumb_func
 2954              		.fpu fpv4-sp-d16
 2955              		.type	mcpwm_foc_set_openloop, %function
 2956              	mcpwm_foc_set_openloop:
 2957              	.LFB270:
 2958              		.loc 1 648 0
 2959              		.cfi_startproc
 2960              		@ args = 0, pretend = 0, frame = 8
 2961              		@ frame_needed = 0, uses_anonymous_args = 0
 2962              	.LVL211:
 2963 0000 30B5     		push	{r4, r5, lr}
 2964              		.cfi_def_cfa_offset 12
ARM GAS  /var/tmp//ccoqQk7W.s 			page 53


 2965              		.cfi_offset 4, -12
 2966              		.cfi_offset 5, -8
 2967              		.cfi_offset 14, -4
 2968              		.loc 1 649 0
 2969 0002 1F4B     		ldr	r3, .L256
 2970 0004 1B68     		ldr	r3, [r3]
 2971              		.loc 1 648 0
 2972 0006 2DED028B 		vpush.64	{d8}
 2973              		.cfi_def_cfa_offset 20
 2974              		.cfi_offset 80, -20
 2975              		.cfi_offset 81, -16
 2976              		.loc 1 649 0
 2977 000a D3ED507A 		vldr.32	s15, [r3, #320]
 2978 000e B0EEC07A 		vabs.f32	s14, s0
 2979 0012 B4EEE77A 		vcmpe.f32	s14, s15
 2980              		.loc 1 648 0
 2981 0016 83B0     		sub	sp, sp, #12
 2982              		.cfi_def_cfa_offset 32
 2983              		.loc 1 649 0
 2984 0018 F1EE10FA 		vmrs	APSR_nzcv, FPSCR
 2985              		.loc 1 648 0
 2986 001c 8DED010A 		vstr.32	s0, [sp, #4]
 2987              		.loc 1 649 0
 2988 0020 21D4     		bmi	.L255
 2989              		.loc 1 656 0
 2990 0022 93ED010A 		vldr.32	s0, [r3, #4]
 2991              	.LVL212:
 2992              		.loc 1 658 0
 2993 0026 174C     		ldr	r4, .L256+4
 2994 0028 B0EE608A 		vmov.f32	s16, s1
 2995              		.loc 1 656 0
 2996 002c B1EE400A 		vneg.f32	s0, s0
 2997 0030 D3ED010A 		vldr.32	s1, [r3, #4]
 2998              	.LVL213:
 2999 0034 01A8     		add	r0, sp, #4
 3000              	.LVL214:
 3001 0036 FFF7FEFF 		bl	utils_truncate_number
 3002              	.LVL215:
 3003              		.loc 1 660 0
 3004 003a DFED137A 		vldr.32	s15, .L256+8
 3005              		.loc 1 659 0
 3006 003e 1349     		ldr	r1, .L256+12
 3007              		.loc 1 660 0
 3008 0040 134A     		ldr	r2, .L256+16
 3009              		.loc 1 662 0
 3010 0042 144B     		ldr	r3, .L256+20
 3011              		.loc 1 659 0
 3012 0044 0198     		ldr	r0, [sp, #4]	@ float
 3013              		.loc 1 660 0
 3014 0046 28EE278A 		vmul.f32	s16, s16, s15
 3015              	.LVL216:
 3016              		.loc 1 658 0
 3017 004a 0625     		movs	r5, #6
 3018 004c 2570     		strb	r5, [r4]
 3019              		.loc 1 659 0
 3020 004e 0860     		str	r0, [r1]	@ float
 3021              		.loc 1 660 0
ARM GAS  /var/tmp//ccoqQk7W.s 			page 54


 3022 0050 82ED008A 		vstr.32	s16, [r2]
 3023              		.loc 1 662 0
 3024 0054 1A78     		ldrb	r2, [r3]	@ zero_extendqisi2
 3025 0056 022A     		cmp	r2, #2
 3026              		.loc 1 663 0
 3027 0058 1CBF     		itt	ne
 3028 005a 0222     		movne	r2, #2
 3029 005c 1A70     		strbne	r2, [r3]
 3030              		.loc 1 665 0
 3031 005e 03B0     		add	sp, sp, #12
 3032              		.cfi_remember_state
 3033              		.cfi_def_cfa_offset 20
 3034              		@ sp needed
 3035 0060 BDEC028B 		vldm	sp!, {d8}
 3036              		.cfi_restore 80
 3037              		.cfi_restore 81
 3038              		.cfi_def_cfa_offset 12
 3039 0064 30BD     		pop	{r4, r5, pc}
 3040              	.LVL217:
 3041              	.L255:
 3042              		.cfi_restore_state
 3043              		.loc 1 650 0
 3044 0066 0749     		ldr	r1, .L256+4
 3045              		.loc 1 651 0
 3046 0068 0A4B     		ldr	r3, .L256+20
 3047              		.loc 1 650 0
 3048 006a 0720     		movs	r0, #7
 3049              		.loc 1 651 0
 3050 006c 0022     		movs	r2, #0
 3051              		.loc 1 650 0
 3052 006e 0870     		strb	r0, [r1]
 3053              		.loc 1 651 0
 3054 0070 1A70     		strb	r2, [r3]
 3055              		.loc 1 652 0
 3056 0072 FFF7FEFF 		bl	stop_pwm_hw
 3057              	.LVL218:
 3058              		.loc 1 665 0
 3059 0076 03B0     		add	sp, sp, #12
 3060              		.cfi_def_cfa_offset 20
 3061              		@ sp needed
 3062 0078 BDEC028B 		vldm	sp!, {d8}
 3063              		.cfi_restore 80
 3064              		.cfi_restore 81
 3065              		.cfi_def_cfa_offset 12
 3066 007c 30BD     		pop	{r4, r5, pc}
 3067              	.L257:
 3068 007e 00BF     		.align	2
 3069              	.L256:
 3070 0080 00000000 		.word	.LANCHOR0
 3071 0084 00000000 		.word	.LANCHOR14
 3072 0088 5077D63D 		.word	1037465424
 3073 008c 00000000 		.word	.LANCHOR22
 3074 0090 00000000 		.word	.LANCHOR32
 3075 0094 00000000 		.word	.LANCHOR7
 3076              		.cfi_endproc
 3077              	.LFE270:
 3078              		.size	mcpwm_foc_set_openloop, .-mcpwm_foc_set_openloop
ARM GAS  /var/tmp//ccoqQk7W.s 			page 55


 3079              		.section	.text.mcpwm_foc_get_duty_cycle_set,"ax",%progbits
 3080              		.align	1
 3081              		.p2align 4,,15
 3082              		.global	mcpwm_foc_get_duty_cycle_set
 3083              		.syntax unified
 3084              		.thumb
 3085              		.thumb_func
 3086              		.fpu fpv4-sp-d16
 3087              		.type	mcpwm_foc_get_duty_cycle_set, %function
 3088              	mcpwm_foc_get_duty_cycle_set:
 3089              	.LFB271:
 3090              		.loc 1 667 0
 3091              		.cfi_startproc
 3092              		@ args = 0, pretend = 0, frame = 0
 3093              		@ frame_needed = 0, uses_anonymous_args = 0
 3094              		@ link register save eliminated.
 3095              		.loc 1 668 0
 3096 0000 014B     		ldr	r3, .L259
 3097 0002 93ED000A 		vldr.32	s0, [r3]
 3098              		.loc 1 669 0
 3099 0006 7047     		bx	lr
 3100              	.L260:
 3101              		.align	2
 3102              	.L259:
 3103 0008 00000000 		.word	.LANCHOR30
 3104              		.cfi_endproc
 3105              	.LFE271:
 3106              		.size	mcpwm_foc_get_duty_cycle_set, .-mcpwm_foc_get_duty_cycle_set
 3107              		.section	.text.mcpwm_foc_get_duty_cycle_now,"ax",%progbits
 3108              		.align	1
 3109              		.p2align 4,,15
 3110              		.global	mcpwm_foc_get_duty_cycle_now
 3111              		.syntax unified
 3112              		.thumb
 3113              		.thumb_func
 3114              		.fpu fpv4-sp-d16
 3115              		.type	mcpwm_foc_get_duty_cycle_now, %function
 3116              	mcpwm_foc_get_duty_cycle_now:
 3117              	.LFB272:
 3118              		.loc 1 671 0
 3119              		.cfi_startproc
 3120              		@ args = 0, pretend = 0, frame = 0
 3121              		@ frame_needed = 0, uses_anonymous_args = 0
 3122              		@ link register save eliminated.
 3123              		.loc 1 672 0
 3124 0000 014B     		ldr	r3, .L262
 3125 0002 93ED030A 		vldr.32	s0, [r3, #12]
 3126              		.loc 1 673 0
 3127 0006 7047     		bx	lr
 3128              	.L263:
 3129              		.align	2
 3130              	.L262:
 3131 0008 00000000 		.word	.LANCHOR10
 3132              		.cfi_endproc
 3133              	.LFE272:
 3134              		.size	mcpwm_foc_get_duty_cycle_now, .-mcpwm_foc_get_duty_cycle_now
 3135              		.section	.text.mcpwm_foc_get_pid_pos_set,"ax",%progbits
ARM GAS  /var/tmp//ccoqQk7W.s 			page 56


 3136              		.align	1
 3137              		.p2align 4,,15
 3138              		.global	mcpwm_foc_get_pid_pos_set
 3139              		.syntax unified
 3140              		.thumb
 3141              		.thumb_func
 3142              		.fpu fpv4-sp-d16
 3143              		.type	mcpwm_foc_get_pid_pos_set, %function
 3144              	mcpwm_foc_get_pid_pos_set:
 3145              	.LFB273:
 3146              		.loc 1 675 0
 3147              		.cfi_startproc
 3148              		@ args = 0, pretend = 0, frame = 0
 3149              		@ frame_needed = 0, uses_anonymous_args = 0
 3150              		@ link register save eliminated.
 3151              		.loc 1 676 0
 3152 0000 014B     		ldr	r3, .L265
 3153 0002 93ED000A 		vldr.32	s0, [r3]
 3154              		.loc 1 677 0
 3155 0006 7047     		bx	lr
 3156              	.L266:
 3157              		.align	2
 3158              	.L265:
 3159 0008 00000000 		.word	.LANCHOR33
 3160              		.cfi_endproc
 3161              	.LFE273:
 3162              		.size	mcpwm_foc_get_pid_pos_set, .-mcpwm_foc_get_pid_pos_set
 3163              		.section	.text.mcpwm_foc_get_pid_pos_now,"ax",%progbits
 3164              		.align	1
 3165              		.p2align 4,,15
 3166              		.global	mcpwm_foc_get_pid_pos_now
 3167              		.syntax unified
 3168              		.thumb
 3169              		.thumb_func
 3170              		.fpu fpv4-sp-d16
 3171              		.type	mcpwm_foc_get_pid_pos_now, %function
 3172              	mcpwm_foc_get_pid_pos_now:
 3173              	.LFB274:
 3174              		.loc 1 679 0
 3175              		.cfi_startproc
 3176              		@ args = 0, pretend = 0, frame = 0
 3177              		@ frame_needed = 0, uses_anonymous_args = 0
 3178              		@ link register save eliminated.
 3179              		.loc 1 680 0
 3180 0000 014B     		ldr	r3, .L268
 3181 0002 93ED000A 		vldr.32	s0, [r3]
 3182              		.loc 1 681 0
 3183 0006 7047     		bx	lr
 3184              	.L269:
 3185              		.align	2
 3186              	.L268:
 3187 0008 00000000 		.word	.LANCHOR41
 3188              		.cfi_endproc
 3189              	.LFE274:
 3190              		.size	mcpwm_foc_get_pid_pos_now, .-mcpwm_foc_get_pid_pos_now
 3191              		.section	.text.mcpwm_foc_get_switching_frequency_now,"ax",%progbits
 3192              		.align	1
ARM GAS  /var/tmp//ccoqQk7W.s 			page 57


 3193              		.p2align 4,,15
 3194              		.global	mcpwm_foc_get_switching_frequency_now
 3195              		.syntax unified
 3196              		.thumb
 3197              		.thumb_func
 3198              		.fpu fpv4-sp-d16
 3199              		.type	mcpwm_foc_get_switching_frequency_now, %function
 3200              	mcpwm_foc_get_switching_frequency_now:
 3201              	.LFB275:
 3202              		.loc 1 689 0
 3203              		.cfi_startproc
 3204              		@ args = 0, pretend = 0, frame = 0
 3205              		@ frame_needed = 0, uses_anonymous_args = 0
 3206              		@ link register save eliminated.
 3207              		.loc 1 690 0
 3208 0000 024B     		ldr	r3, .L271
 3209 0002 1B68     		ldr	r3, [r3]
 3210 0004 93ED2B0A 		vldr.32	s0, [r3, #172]
 3211              		.loc 1 691 0
 3212 0008 7047     		bx	lr
 3213              	.L272:
 3214 000a 00BF     		.align	2
 3215              	.L271:
 3216 000c 00000000 		.word	.LANCHOR0
 3217              		.cfi_endproc
 3218              	.LFE275:
 3219              		.size	mcpwm_foc_get_switching_frequency_now, .-mcpwm_foc_get_switching_frequency_now
 3220              		.section	.text.mcpwm_foc_get_sampling_frequency_now,"ax",%progbits
 3221              		.align	1
 3222              		.p2align 4,,15
 3223              		.global	mcpwm_foc_get_sampling_frequency_now
 3224              		.syntax unified
 3225              		.thumb
 3226              		.thumb_func
 3227              		.fpu fpv4-sp-d16
 3228              		.type	mcpwm_foc_get_sampling_frequency_now, %function
 3229              	mcpwm_foc_get_sampling_frequency_now:
 3230              	.LFB276:
 3231              		.loc 1 699 0
 3232              		.cfi_startproc
 3233              		@ args = 0, pretend = 0, frame = 0
 3234              		@ frame_needed = 0, uses_anonymous_args = 0
 3235              		@ link register save eliminated.
 3236              		.loc 1 707 0
 3237 0000 044B     		ldr	r3, .L274
 3238 0002 1B68     		ldr	r3, [r3]
 3239 0004 93ED2B0A 		vldr.32	s0, [r3, #172]
 3240 0008 F6EE007A 		vmov.f32	s15, #5.0e-1
 3241              		.loc 1 709 0
 3242 000c 20EE270A 		vmul.f32	s0, s0, s15
 3243 0010 7047     		bx	lr
 3244              	.L275:
 3245 0012 00BF     		.align	2
 3246              	.L274:
 3247 0014 00000000 		.word	.LANCHOR0
 3248              		.cfi_endproc
 3249              	.LFE276:
ARM GAS  /var/tmp//ccoqQk7W.s 			page 58


 3250              		.size	mcpwm_foc_get_sampling_frequency_now, .-mcpwm_foc_get_sampling_frequency_now
 3251              		.section	.text.mcpwm_foc_get_rpm,"ax",%progbits
 3252              		.align	1
 3253              		.p2align 4,,15
 3254              		.global	mcpwm_foc_get_rpm
 3255              		.syntax unified
 3256              		.thumb
 3257              		.thumb_func
 3258              		.fpu fpv4-sp-d16
 3259              		.type	mcpwm_foc_get_rpm, %function
 3260              	mcpwm_foc_get_rpm:
 3261              	.LFB277:
 3262              		.loc 1 719 0
 3263              		.cfi_startproc
 3264              		@ args = 0, pretend = 0, frame = 0
 3265              		@ frame_needed = 0, uses_anonymous_args = 0
 3266              		@ link register save eliminated.
 3267              		.loc 1 720 0
 3268 0000 034B     		ldr	r3, .L277
 3269 0002 DFED047A 		vldr.32	s15, .L277+4
 3270 0006 93ED000A 		vldr.32	s0, [r3]
 3271              		.loc 1 721 0
 3272 000a 80EE270A 		vdiv.f32	s0, s0, s15
 3273 000e 7047     		bx	lr
 3274              	.L278:
 3275              		.align	2
 3276              	.L277:
 3277 0010 00000000 		.word	.LANCHOR12
 3278 0014 5077D63D 		.word	1037465424
 3279              		.cfi_endproc
 3280              	.LFE277:
 3281              		.size	mcpwm_foc_get_rpm, .-mcpwm_foc_get_rpm
 3282              		.section	.text.mcpwm_foc_get_tot_current,"ax",%progbits
 3283              		.align	1
 3284              		.p2align 4,,15
 3285              		.global	mcpwm_foc_get_tot_current
 3286              		.syntax unified
 3287              		.thumb
 3288              		.thumb_func
 3289              		.fpu fpv4-sp-d16
 3290              		.type	mcpwm_foc_get_tot_current, %function
 3291              	mcpwm_foc_get_tot_current:
 3292              	.LFB278:
 3293              		.loc 1 731 0
 3294              		.cfi_startproc
 3295              		@ args = 0, pretend = 0, frame = 0
 3296              		@ frame_needed = 0, uses_anonymous_args = 0
 3297              		@ link register save eliminated.
 3298              		.loc 1 732 0
 3299 0000 094B     		ldr	r3, .L282
 3300 0002 D3ED147A 		vldr.32	s15, [r3, #80]
 3301 0006 93ED100A 		vldr.32	s0, [r3, #64]
 3302 000a F5EEC07A 		vcmpe.f32	s15, #0
 3303 000e F1EE10FA 		vmrs	APSR_nzcv, FPSCR
 3304 0012 B7EE007A 		vmov.f32	s14, #1.0e+0
 3305 0016 FFEE007A 		vmov.f32	s15, #-1.0e+0
 3306 001a 58BF     		it	pl
ARM GAS  /var/tmp//ccoqQk7W.s 			page 59


 3307 001c F0EE477A 		vmovpl.f32	s15, s14
 3308              		.loc 1 733 0
 3309 0020 27EE800A 		vmul.f32	s0, s15, s0
 3310 0024 7047     		bx	lr
 3311              	.L283:
 3312 0026 00BF     		.align	2
 3313              	.L282:
 3314 0028 00000000 		.word	.LANCHOR10
 3315              		.cfi_endproc
 3316              	.LFE278:
 3317              		.size	mcpwm_foc_get_tot_current, .-mcpwm_foc_get_tot_current
 3318              		.section	.text.mcpwm_foc_get_tot_current_filtered,"ax",%progbits
 3319              		.align	1
 3320              		.p2align 4,,15
 3321              		.global	mcpwm_foc_get_tot_current_filtered
 3322              		.syntax unified
 3323              		.thumb
 3324              		.thumb_func
 3325              		.fpu fpv4-sp-d16
 3326              		.type	mcpwm_foc_get_tot_current_filtered, %function
 3327              	mcpwm_foc_get_tot_current_filtered:
 3328              	.LFB279:
 3329              		.loc 1 743 0
 3330              		.cfi_startproc
 3331              		@ args = 0, pretend = 0, frame = 0
 3332              		@ frame_needed = 0, uses_anonymous_args = 0
 3333              		@ link register save eliminated.
 3334              		.loc 1 744 0
 3335 0000 094B     		ldr	r3, .L287
 3336 0002 D3ED147A 		vldr.32	s15, [r3, #80]
 3337 0006 93ED120A 		vldr.32	s0, [r3, #72]
 3338 000a F5EEC07A 		vcmpe.f32	s15, #0
 3339 000e F1EE10FA 		vmrs	APSR_nzcv, FPSCR
 3340 0012 B7EE007A 		vmov.f32	s14, #1.0e+0
 3341 0016 FFEE007A 		vmov.f32	s15, #-1.0e+0
 3342 001a 58BF     		it	pl
 3343 001c F0EE477A 		vmovpl.f32	s15, s14
 3344              		.loc 1 745 0
 3345 0020 27EE800A 		vmul.f32	s0, s15, s0
 3346 0024 7047     		bx	lr
 3347              	.L288:
 3348 0026 00BF     		.align	2
 3349              	.L287:
 3350 0028 00000000 		.word	.LANCHOR10
 3351              		.cfi_endproc
 3352              	.LFE279:
 3353              		.size	mcpwm_foc_get_tot_current_filtered, .-mcpwm_foc_get_tot_current_filtered
 3354              		.section	.text.mcpwm_foc_get_abs_motor_current,"ax",%progbits
 3355              		.align	1
 3356              		.p2align 4,,15
 3357              		.global	mcpwm_foc_get_abs_motor_current
 3358              		.syntax unified
 3359              		.thumb
 3360              		.thumb_func
 3361              		.fpu fpv4-sp-d16
 3362              		.type	mcpwm_foc_get_abs_motor_current, %function
 3363              	mcpwm_foc_get_abs_motor_current:
ARM GAS  /var/tmp//ccoqQk7W.s 			page 60


 3364              	.LFB280:
 3365              		.loc 1 754 0
 3366              		.cfi_startproc
 3367              		@ args = 0, pretend = 0, frame = 0
 3368              		@ frame_needed = 0, uses_anonymous_args = 0
 3369              		@ link register save eliminated.
 3370              		.loc 1 755 0
 3371 0000 014B     		ldr	r3, .L290
 3372 0002 93ED070A 		vldr.32	s0, [r3, #28]
 3373              		.loc 1 756 0
 3374 0006 7047     		bx	lr
 3375              	.L291:
 3376              		.align	2
 3377              	.L290:
 3378 0008 00000000 		.word	.LANCHOR10
 3379              		.cfi_endproc
 3380              	.LFE280:
 3381              		.size	mcpwm_foc_get_abs_motor_current, .-mcpwm_foc_get_abs_motor_current
 3382              		.section	.text.mcpwm_foc_get_abs_motor_voltage,"ax",%progbits
 3383              		.align	1
 3384              		.p2align 4,,15
 3385              		.global	mcpwm_foc_get_abs_motor_voltage
 3386              		.syntax unified
 3387              		.thumb
 3388              		.thumb_func
 3389              		.fpu fpv4-sp-d16
 3390              		.type	mcpwm_foc_get_abs_motor_voltage, %function
 3391              	mcpwm_foc_get_abs_motor_voltage:
 3392              	.LFB281:
 3393              		.loc 1 764 0
 3394              		.cfi_startproc
 3395              		@ args = 0, pretend = 0, frame = 0
 3396              		@ frame_needed = 0, uses_anonymous_args = 0
 3397 0000 08B5     		push	{r3, lr}
 3398              		.cfi_def_cfa_offset 8
 3399              		.cfi_offset 3, -8
 3400              		.cfi_offset 14, -4
 3401              		.loc 1 765 0
 3402 0002 0D4B     		ldr	r3, .L296
 3403 0004 D3ED137A 		vldr.32	s15, [r3, #76]
 3404              	.LVL219:
 3405              		.loc 1 766 0
 3406 0008 93ED140A 		vldr.32	s0, [r3, #80]
 3407              	.LVL220:
 3408              		.loc 1 767 0
 3409 000c 20EE000A 		vmul.f32	s0, s0, s0
 3410              	.LVL221:
 3411              		.loc 1 764 0
 3412 0010 2DED028B 		vpush.64	{d8}
 3413              		.cfi_def_cfa_offset 16
 3414              		.cfi_offset 80, -16
 3415              		.cfi_offset 81, -12
 3416              		.loc 1 767 0
 3417 0014 A7EEA70A 		vfma.f32	s0, s15, s15
 3418 0018 B5EE400A 		vcmp.f32	s0, #0
 3419 001c F1EE10FA 		vmrs	APSR_nzcv, FPSCR
 3420 0020 B1EEC08A 		vsqrt.f32	s16, s0
ARM GAS  /var/tmp//ccoqQk7W.s 			page 61


 3421 0024 04D4     		bmi	.L295
 3422              	.LVL222:
 3423              	.L292:
 3424              		.loc 1 768 0
 3425 0026 B0EE480A 		vmov.f32	s0, s16
 3426 002a BDEC028B 		vldm	sp!, {d8}
 3427              		.cfi_remember_state
 3428              		.cfi_restore 80
 3429              		.cfi_restore 81
 3430              		.cfi_def_cfa_offset 8
 3431 002e 08BD     		pop	{r3, pc}
 3432              	.LVL223:
 3433              	.L295:
 3434              		.cfi_restore_state
 3435              		.loc 1 767 0
 3436 0030 FFF7FEFF 		bl	sqrtf
 3437              	.LVL224:
 3438 0034 F7E7     		b	.L292
 3439              	.L297:
 3440 0036 00BF     		.align	2
 3441              	.L296:
 3442 0038 00000000 		.word	.LANCHOR10
 3443              		.cfi_endproc
 3444              	.LFE281:
 3445              		.size	mcpwm_foc_get_abs_motor_voltage, .-mcpwm_foc_get_abs_motor_voltage
 3446              		.section	.text.mcpwm_foc_get_abs_motor_current_filtered,"ax",%progbits
 3447              		.align	1
 3448              		.p2align 4,,15
 3449              		.global	mcpwm_foc_get_abs_motor_current_filtered
 3450              		.syntax unified
 3451              		.thumb
 3452              		.thumb_func
 3453              		.fpu fpv4-sp-d16
 3454              		.type	mcpwm_foc_get_abs_motor_current_filtered, %function
 3455              	mcpwm_foc_get_abs_motor_current_filtered:
 3456              	.LFB282:
 3457              		.loc 1 777 0
 3458              		.cfi_startproc
 3459              		@ args = 0, pretend = 0, frame = 0
 3460              		@ frame_needed = 0, uses_anonymous_args = 0
 3461              		@ link register save eliminated.
 3462              		.loc 1 778 0
 3463 0000 014B     		ldr	r3, .L299
 3464 0002 93ED080A 		vldr.32	s0, [r3, #32]
 3465              		.loc 1 779 0
 3466 0006 7047     		bx	lr
 3467              	.L300:
 3468              		.align	2
 3469              	.L299:
 3470 0008 00000000 		.word	.LANCHOR10
 3471              		.cfi_endproc
 3472              	.LFE282:
 3473              		.size	mcpwm_foc_get_abs_motor_current_filtered, .-mcpwm_foc_get_abs_motor_current_filtered
 3474              		.section	.text.mcpwm_foc_get_tot_current_directional,"ax",%progbits
 3475              		.align	1
 3476              		.p2align 4,,15
 3477              		.global	mcpwm_foc_get_tot_current_directional
ARM GAS  /var/tmp//ccoqQk7W.s 			page 62


 3478              		.syntax unified
 3479              		.thumb
 3480              		.thumb_func
 3481              		.fpu fpv4-sp-d16
 3482              		.type	mcpwm_foc_get_tot_current_directional, %function
 3483              	mcpwm_foc_get_tot_current_directional:
 3484              	.LFB322:
 3485              		.cfi_startproc
 3486              		@ args = 0, pretend = 0, frame = 0
 3487              		@ frame_needed = 0, uses_anonymous_args = 0
 3488              		@ link register save eliminated.
 3489 0000 014B     		ldr	r3, .L302
 3490 0002 93ED100A 		vldr.32	s0, [r3, #64]
 3491 0006 7047     		bx	lr
 3492              	.L303:
 3493              		.align	2
 3494              	.L302:
 3495 0008 00000000 		.word	.LANCHOR10
 3496              		.cfi_endproc
 3497              	.LFE322:
 3498              		.size	mcpwm_foc_get_tot_current_directional, .-mcpwm_foc_get_tot_current_directional
 3499              		.section	.text.mcpwm_foc_get_tot_current_directional_filtered,"ax",%progbits
 3500              		.align	1
 3501              		.p2align 4,,15
 3502              		.global	mcpwm_foc_get_tot_current_directional_filtered
 3503              		.syntax unified
 3504              		.thumb
 3505              		.thumb_func
 3506              		.fpu fpv4-sp-d16
 3507              		.type	mcpwm_foc_get_tot_current_directional_filtered, %function
 3508              	mcpwm_foc_get_tot_current_directional_filtered:
 3509              	.LFB284:
 3510              		.loc 1 799 0
 3511              		.cfi_startproc
 3512              		@ args = 0, pretend = 0, frame = 0
 3513              		@ frame_needed = 0, uses_anonymous_args = 0
 3514              		@ link register save eliminated.
 3515              		.loc 1 800 0
 3516 0000 014B     		ldr	r3, .L305
 3517 0002 93ED120A 		vldr.32	s0, [r3, #72]
 3518              		.loc 1 801 0
 3519 0006 7047     		bx	lr
 3520              	.L306:
 3521              		.align	2
 3522              	.L305:
 3523 0008 00000000 		.word	.LANCHOR10
 3524              		.cfi_endproc
 3525              	.LFE284:
 3526              		.size	mcpwm_foc_get_tot_current_directional_filtered, .-mcpwm_foc_get_tot_current_directional_filt
 3527              		.section	.text.mcpwm_foc_get_id,"ax",%progbits
 3528              		.align	1
 3529              		.p2align 4,,15
 3530              		.global	mcpwm_foc_get_id
 3531              		.syntax unified
 3532              		.thumb
 3533              		.thumb_func
 3534              		.fpu fpv4-sp-d16
ARM GAS  /var/tmp//ccoqQk7W.s 			page 63


 3535              		.type	mcpwm_foc_get_id, %function
 3536              	mcpwm_foc_get_id:
 3537              	.LFB285:
 3538              		.loc 1 809 0
 3539              		.cfi_startproc
 3540              		@ args = 0, pretend = 0, frame = 0
 3541              		@ frame_needed = 0, uses_anonymous_args = 0
 3542              		@ link register save eliminated.
 3543              		.loc 1 810 0
 3544 0000 014B     		ldr	r3, .L308
 3545 0002 93ED0F0A 		vldr.32	s0, [r3, #60]
 3546              		.loc 1 811 0
 3547 0006 7047     		bx	lr
 3548              	.L309:
 3549              		.align	2
 3550              	.L308:
 3551 0008 00000000 		.word	.LANCHOR10
 3552              		.cfi_endproc
 3553              	.LFE285:
 3554              		.size	mcpwm_foc_get_id, .-mcpwm_foc_get_id
 3555              		.section	.text.mcpwm_foc_get_iq,"ax",%progbits
 3556              		.align	1
 3557              		.p2align 4,,15
 3558              		.global	mcpwm_foc_get_iq
 3559              		.syntax unified
 3560              		.thumb
 3561              		.thumb_func
 3562              		.fpu fpv4-sp-d16
 3563              		.type	mcpwm_foc_get_iq, %function
 3564              	mcpwm_foc_get_iq:
 3565              	.LFB286:
 3566              		.loc 1 819 0
 3567              		.cfi_startproc
 3568              		@ args = 0, pretend = 0, frame = 0
 3569              		@ frame_needed = 0, uses_anonymous_args = 0
 3570              		@ link register save eliminated.
 3571              		.loc 1 820 0
 3572 0000 014B     		ldr	r3, .L311
 3573 0002 93ED100A 		vldr.32	s0, [r3, #64]
 3574              		.loc 1 821 0
 3575 0006 7047     		bx	lr
 3576              	.L312:
 3577              		.align	2
 3578              	.L311:
 3579 0008 00000000 		.word	.LANCHOR10
 3580              		.cfi_endproc
 3581              	.LFE286:
 3582              		.size	mcpwm_foc_get_iq, .-mcpwm_foc_get_iq
 3583              		.section	.text.mcpwm_foc_get_tot_current_in,"ax",%progbits
 3584              		.align	1
 3585              		.p2align 4,,15
 3586              		.global	mcpwm_foc_get_tot_current_in
 3587              		.syntax unified
 3588              		.thumb
 3589              		.thumb_func
 3590              		.fpu fpv4-sp-d16
 3591              		.type	mcpwm_foc_get_tot_current_in, %function
ARM GAS  /var/tmp//ccoqQk7W.s 			page 64


 3592              	mcpwm_foc_get_tot_current_in:
 3593              	.LFB320:
 3594              		.cfi_startproc
 3595              		@ args = 0, pretend = 0, frame = 0
 3596              		@ frame_needed = 0, uses_anonymous_args = 0
 3597              		@ link register save eliminated.
 3598 0000 014B     		ldr	r3, .L314
 3599 0002 93ED090A 		vldr.32	s0, [r3, #36]
 3600 0006 7047     		bx	lr
 3601              	.L315:
 3602              		.align	2
 3603              	.L314:
 3604 0008 00000000 		.word	.LANCHOR10
 3605              		.cfi_endproc
 3606              	.LFE320:
 3607              		.size	mcpwm_foc_get_tot_current_in, .-mcpwm_foc_get_tot_current_in
 3608              		.section	.text.mcpwm_foc_get_tot_current_in_filtered,"ax",%progbits
 3609              		.align	1
 3610              		.p2align 4,,15
 3611              		.global	mcpwm_foc_get_tot_current_in_filtered
 3612              		.syntax unified
 3613              		.thumb
 3614              		.thumb_func
 3615              		.fpu fpv4-sp-d16
 3616              		.type	mcpwm_foc_get_tot_current_in_filtered, %function
 3617              	mcpwm_foc_get_tot_current_in_filtered:
 3618              	.LFB288:
 3619              		.loc 1 839 0
 3620              		.cfi_startproc
 3621              		@ args = 0, pretend = 0, frame = 0
 3622              		@ frame_needed = 0, uses_anonymous_args = 0
 3623              		@ link register save eliminated.
 3624              		.loc 1 840 0
 3625 0000 014B     		ldr	r3, .L317
 3626 0002 93ED090A 		vldr.32	s0, [r3, #36]
 3627              		.loc 1 841 0
 3628 0006 7047     		bx	lr
 3629              	.L318:
 3630              		.align	2
 3631              	.L317:
 3632 0008 00000000 		.word	.LANCHOR10
 3633              		.cfi_endproc
 3634              	.LFE288:
 3635              		.size	mcpwm_foc_get_tot_current_in_filtered, .-mcpwm_foc_get_tot_current_in_filtered
 3636              		.section	.text.mcpwm_foc_get_tachometer_value,"ax",%progbits
 3637              		.align	1
 3638              		.p2align 4,,15
 3639              		.global	mcpwm_foc_get_tachometer_value
 3640              		.syntax unified
 3641              		.thumb
 3642              		.thumb_func
 3643              		.fpu fpv4-sp-d16
 3644              		.type	mcpwm_foc_get_tachometer_value, %function
 3645              	mcpwm_foc_get_tachometer_value:
 3646              	.LFB289:
 3647              		.loc 1 854 0
 3648              		.cfi_startproc
ARM GAS  /var/tmp//ccoqQk7W.s 			page 65


 3649              		@ args = 0, pretend = 0, frame = 0
 3650              		@ frame_needed = 0, uses_anonymous_args = 0
 3651              		@ link register save eliminated.
 3652              	.LVL225:
 3653              		.loc 1 855 0
 3654 0000 034B     		ldr	r3, .L324
 3655 0002 1A68     		ldr	r2, [r3]
 3656              	.LVL226:
 3657              		.loc 1 857 0
 3658 0004 08B1     		cbz	r0, .L319
 3659              		.loc 1 858 0
 3660 0006 0021     		movs	r1, #0
 3661 0008 1960     		str	r1, [r3]
 3662              	.L319:
 3663              		.loc 1 862 0
 3664 000a 1046     		mov	r0, r2
 3665              	.LVL227:
 3666 000c 7047     		bx	lr
 3667              	.L325:
 3668 000e 00BF     		.align	2
 3669              	.L324:
 3670 0010 00000000 		.word	.LANCHOR38
 3671              		.cfi_endproc
 3672              	.LFE289:
 3673              		.size	mcpwm_foc_get_tachometer_value, .-mcpwm_foc_get_tachometer_value
 3674              		.section	.text.mcpwm_foc_get_tachometer_abs_value,"ax",%progbits
 3675              		.align	1
 3676              		.p2align 4,,15
 3677              		.global	mcpwm_foc_get_tachometer_abs_value
 3678              		.syntax unified
 3679              		.thumb
 3680              		.thumb_func
 3681              		.fpu fpv4-sp-d16
 3682              		.type	mcpwm_foc_get_tachometer_abs_value, %function
 3683              	mcpwm_foc_get_tachometer_abs_value:
 3684              	.LFB290:
 3685              		.loc 1 874 0
 3686              		.cfi_startproc
 3687              		@ args = 0, pretend = 0, frame = 0
 3688              		@ frame_needed = 0, uses_anonymous_args = 0
 3689              		@ link register save eliminated.
 3690              	.LVL228:
 3691              		.loc 1 875 0
 3692 0000 034B     		ldr	r3, .L331
 3693 0002 1A68     		ldr	r2, [r3]
 3694              	.LVL229:
 3695              		.loc 1 877 0
 3696 0004 08B1     		cbz	r0, .L326
 3697              		.loc 1 878 0
 3698 0006 0021     		movs	r1, #0
 3699 0008 1960     		str	r1, [r3]
 3700              	.L326:
 3701              		.loc 1 882 0
 3702 000a 1046     		mov	r0, r2
 3703              	.LVL230:
 3704 000c 7047     		bx	lr
 3705              	.L332:
ARM GAS  /var/tmp//ccoqQk7W.s 			page 66


 3706 000e 00BF     		.align	2
 3707              	.L331:
 3708 0010 00000000 		.word	.LANCHOR39
 3709              		.cfi_endproc
 3710              	.LFE290:
 3711              		.size	mcpwm_foc_get_tachometer_abs_value, .-mcpwm_foc_get_tachometer_abs_value
 3712              		.section	.text.mcpwm_foc_get_phase,"ax",%progbits
 3713              		.align	1
 3714              		.p2align 4,,15
 3715              		.global	mcpwm_foc_get_phase
 3716              		.syntax unified
 3717              		.thumb
 3718              		.thumb_func
 3719              		.fpu fpv4-sp-d16
 3720              		.type	mcpwm_foc_get_phase, %function
 3721              	mcpwm_foc_get_phase:
 3722              	.LFB291:
 3723              		.loc 1 890 0
 3724              		.cfi_startproc
 3725              		@ args = 0, pretend = 0, frame = 8
 3726              		@ frame_needed = 0, uses_anonymous_args = 0
 3727 0000 00B5     		push	{lr}
 3728              		.cfi_def_cfa_offset 4
 3729              		.cfi_offset 14, -4
 3730              		.loc 1 891 0
 3731 0002 094B     		ldr	r3, .L335
 3732 0004 9FED097A 		vldr.32	s14, .L335+4
 3733 0008 D3ED047A 		vldr.32	s15, [r3, #16]
 3734              		.loc 1 890 0
 3735 000c 83B0     		sub	sp, sp, #12
 3736              		.cfi_def_cfa_offset 16
 3737              		.loc 1 891 0
 3738 000e 67EE877A 		vmul.f32	s15, s15, s14
 3739 0012 02A8     		add	r0, sp, #8
 3740 0014 60ED017A 		vstmdb.32	r0!, {s15}
 3741              		.loc 1 892 0
 3742 0018 FFF7FEFF 		bl	utils_norm_angle
 3743              	.LVL231:
 3744              		.loc 1 894 0
 3745 001c 9DED010A 		vldr.32	s0, [sp, #4]
 3746 0020 03B0     		add	sp, sp, #12
 3747              		.cfi_def_cfa_offset 4
 3748              		@ sp needed
 3749 0022 5DF804FB 		ldr	pc, [sp], #4
 3750              	.L336:
 3751 0026 00BF     		.align	2
 3752              	.L335:
 3753 0028 00000000 		.word	.LANCHOR10
 3754 002c E02E6542 		.word	1113927392
 3755              		.cfi_endproc
 3756              	.LFE291:
 3757              		.size	mcpwm_foc_get_phase, .-mcpwm_foc_get_phase
 3758              		.section	.text.mcpwm_foc_get_phase_observer,"ax",%progbits
 3759              		.align	1
 3760              		.p2align 4,,15
 3761              		.global	mcpwm_foc_get_phase_observer
 3762              		.syntax unified
ARM GAS  /var/tmp//ccoqQk7W.s 			page 67


 3763              		.thumb
 3764              		.thumb_func
 3765              		.fpu fpv4-sp-d16
 3766              		.type	mcpwm_foc_get_phase_observer, %function
 3767              	mcpwm_foc_get_phase_observer:
 3768              	.LFB292:
 3769              		.loc 1 902 0
 3770              		.cfi_startproc
 3771              		@ args = 0, pretend = 0, frame = 8
 3772              		@ frame_needed = 0, uses_anonymous_args = 0
 3773 0000 00B5     		push	{lr}
 3774              		.cfi_def_cfa_offset 4
 3775              		.cfi_offset 14, -4
 3776              		.loc 1 903 0
 3777 0002 094B     		ldr	r3, .L339
 3778 0004 9FED097A 		vldr.32	s14, .L339+4
 3779 0008 D3ED007A 		vldr.32	s15, [r3]
 3780              		.loc 1 902 0
 3781 000c 83B0     		sub	sp, sp, #12
 3782              		.cfi_def_cfa_offset 16
 3783              		.loc 1 903 0
 3784 000e 67EE877A 		vmul.f32	s15, s15, s14
 3785 0012 02A8     		add	r0, sp, #8
 3786 0014 60ED017A 		vstmdb.32	r0!, {s15}
 3787              		.loc 1 904 0
 3788 0018 FFF7FEFF 		bl	utils_norm_angle
 3789              	.LVL232:
 3790              		.loc 1 906 0
 3791 001c 9DED010A 		vldr.32	s0, [sp, #4]
 3792 0020 03B0     		add	sp, sp, #12
 3793              		.cfi_def_cfa_offset 4
 3794              		@ sp needed
 3795 0022 5DF804FB 		ldr	pc, [sp], #4
 3796              	.L340:
 3797 0026 00BF     		.align	2
 3798              	.L339:
 3799 0028 00000000 		.word	.LANCHOR16
 3800 002c E02E6542 		.word	1113927392
 3801              		.cfi_endproc
 3802              	.LFE292:
 3803              		.size	mcpwm_foc_get_phase_observer, .-mcpwm_foc_get_phase_observer
 3804              		.section	.text.mcpwm_foc_get_phase_encoder,"ax",%progbits
 3805              		.align	1
 3806              		.p2align 4,,15
 3807              		.global	mcpwm_foc_get_phase_encoder
 3808              		.syntax unified
 3809              		.thumb
 3810              		.thumb_func
 3811              		.fpu fpv4-sp-d16
 3812              		.type	mcpwm_foc_get_phase_encoder, %function
 3813              	mcpwm_foc_get_phase_encoder:
 3814              	.LFB293:
 3815              		.loc 1 914 0
 3816              		.cfi_startproc
 3817              		@ args = 0, pretend = 0, frame = 8
 3818              		@ frame_needed = 0, uses_anonymous_args = 0
 3819 0000 00B5     		push	{lr}
ARM GAS  /var/tmp//ccoqQk7W.s 			page 68


 3820              		.cfi_def_cfa_offset 4
 3821              		.cfi_offset 14, -4
 3822              		.loc 1 915 0
 3823 0002 094B     		ldr	r3, .L343
 3824 0004 9FED097A 		vldr.32	s14, .L343+4
 3825 0008 D3ED007A 		vldr.32	s15, [r3]
 3826              		.loc 1 914 0
 3827 000c 83B0     		sub	sp, sp, #12
 3828              		.cfi_def_cfa_offset 16
 3829              		.loc 1 915 0
 3830 000e 67EE877A 		vmul.f32	s15, s15, s14
 3831 0012 02A8     		add	r0, sp, #8
 3832 0014 60ED017A 		vstmdb.32	r0!, {s15}
 3833              		.loc 1 916 0
 3834 0018 FFF7FEFF 		bl	utils_norm_angle
 3835              	.LVL233:
 3836              		.loc 1 918 0
 3837 001c 9DED010A 		vldr.32	s0, [sp, #4]
 3838 0020 03B0     		add	sp, sp, #12
 3839              		.cfi_def_cfa_offset 4
 3840              		@ sp needed
 3841 0022 5DF804FB 		ldr	pc, [sp], #4
 3842              	.L344:
 3843 0026 00BF     		.align	2
 3844              	.L343:
 3845 0028 00000000 		.word	.LANCHOR34
 3846 002c E02E6542 		.word	1113927392
 3847              		.cfi_endproc
 3848              	.LFE293:
 3849              		.size	mcpwm_foc_get_phase_encoder, .-mcpwm_foc_get_phase_encoder
 3850              		.section	.text.mcpwm_foc_get_vd,"ax",%progbits
 3851              		.align	1
 3852              		.p2align 4,,15
 3853              		.global	mcpwm_foc_get_vd
 3854              		.syntax unified
 3855              		.thumb
 3856              		.thumb_func
 3857              		.fpu fpv4-sp-d16
 3858              		.type	mcpwm_foc_get_vd, %function
 3859              	mcpwm_foc_get_vd:
 3860              	.LFB294:
 3861              		.loc 1 920 0
 3862              		.cfi_startproc
 3863              		@ args = 0, pretend = 0, frame = 0
 3864              		@ frame_needed = 0, uses_anonymous_args = 0
 3865              		@ link register save eliminated.
 3866              		.loc 1 921 0
 3867 0000 014B     		ldr	r3, .L346
 3868 0002 93ED130A 		vldr.32	s0, [r3, #76]
 3869              		.loc 1 922 0
 3870 0006 7047     		bx	lr
 3871              	.L347:
 3872              		.align	2
 3873              	.L346:
 3874 0008 00000000 		.word	.LANCHOR10
 3875              		.cfi_endproc
 3876              	.LFE294:
ARM GAS  /var/tmp//ccoqQk7W.s 			page 69


 3877              		.size	mcpwm_foc_get_vd, .-mcpwm_foc_get_vd
 3878              		.section	.text.mcpwm_foc_get_vq,"ax",%progbits
 3879              		.align	1
 3880              		.p2align 4,,15
 3881              		.global	mcpwm_foc_get_vq
 3882              		.syntax unified
 3883              		.thumb
 3884              		.thumb_func
 3885              		.fpu fpv4-sp-d16
 3886              		.type	mcpwm_foc_get_vq, %function
 3887              	mcpwm_foc_get_vq:
 3888              	.LFB295:
 3889              		.loc 1 924 0
 3890              		.cfi_startproc
 3891              		@ args = 0, pretend = 0, frame = 0
 3892              		@ frame_needed = 0, uses_anonymous_args = 0
 3893              		@ link register save eliminated.
 3894              		.loc 1 925 0
 3895 0000 014B     		ldr	r3, .L349
 3896 0002 93ED140A 		vldr.32	s0, [r3, #80]
 3897              		.loc 1 926 0
 3898 0006 7047     		bx	lr
 3899              	.L350:
 3900              		.align	2
 3901              	.L349:
 3902 0008 00000000 		.word	.LANCHOR10
 3903              		.cfi_endproc
 3904              	.LFE295:
 3905              		.size	mcpwm_foc_get_vq, .-mcpwm_foc_get_vq
 3906              		.global	__aeabi_f2d
 3907              		.section	.text.mcpwm_foc_encoder_detect,"ax",%progbits
 3908              		.align	1
 3909              		.p2align 4,,15
 3910              		.global	mcpwm_foc_encoder_detect
 3911              		.syntax unified
 3912              		.thumb
 3913              		.thumb_func
 3914              		.fpu fpv4-sp-d16
 3915              		.type	mcpwm_foc_encoder_detect, %function
 3916              	mcpwm_foc_encoder_detect:
 3917              	.LFB296:
 3918              		.loc 1 943 0
 3919              		.cfi_startproc
 3920              		@ args = 0, pretend = 0, frame = 24
 3921              		@ frame_needed = 0, uses_anonymous_args = 0
 3922              	.LVL234:
 3923 0000 2DE9F04F 		push	{r4, r5, r6, r7, r8, r9, r10, fp, lr}
 3924              		.cfi_def_cfa_offset 36
 3925              		.cfi_offset 4, -36
 3926              		.cfi_offset 5, -32
 3927              		.cfi_offset 6, -28
 3928              		.cfi_offset 7, -24
 3929              		.cfi_offset 8, -20
 3930              		.cfi_offset 9, -16
 3931              		.cfi_offset 10, -12
 3932              		.cfi_offset 11, -8
 3933              		.cfi_offset 14, -4
ARM GAS  /var/tmp//ccoqQk7W.s 			page 70


 3934 0004 2DED0E8B 		vpush.64	{d8, d9, d10, d11, d12, d13, d14}
 3935              		.cfi_def_cfa_offset 92
 3936              		.cfi_offset 80, -92
 3937              		.cfi_offset 81, -88
 3938              		.cfi_offset 82, -84
 3939              		.cfi_offset 83, -80
 3940              		.cfi_offset 84, -76
 3941              		.cfi_offset 85, -72
 3942              		.cfi_offset 86, -68
 3943              		.cfi_offset 87, -64
 3944              		.cfi_offset 88, -60
 3945              		.cfi_offset 89, -56
 3946              		.cfi_offset 90, -52
 3947              		.cfi_offset 91, -48
 3948              		.cfi_offset 92, -44
 3949              		.cfi_offset 93, -40
 3950 0008 87B0     		sub	sp, sp, #28
 3951              		.cfi_def_cfa_offset 120
 3952              		.loc 1 943 0
 3953 000a B0EE409A 		vmov.f32	s18, s0
 3954 000e 0746     		mov	r7, r0
 3955 0010 8946     		mov	r9, r1
 3956 0012 0292     		str	r2, [sp, #8]
 3957 0014 0393     		str	r3, [sp, #12]
 3958              		.loc 1 944 0
 3959 0016 FFF7FEFF 		bl	mc_interface_lock
 3960              	.LVL235:
 3961              		.loc 1 946 0
 3962 001a C449     		ldr	r1, .L438
 3963              		.loc 1 948 0
 3964 001c 9FEDC48A 		vldr.32	s16, .L438+4
 3965              		.loc 1 959 0
 3966 0020 DFF83C83 		ldr	r8, .L438+52
 3967              	.LBB66:
 3968              		.loc 1 970 0
 3969 0024 DFEDC38A 		vldr.32	s17, .L438+8
 3970 0028 C34C     		ldr	r4, .L438+12
 3971              	.LBE66:
 3972              		.loc 1 946 0
 3973 002a 0122     		movs	r2, #1
 3974 002c 0A70     		strb	r2, [r1]
 3975              		.loc 1 947 0
 3976 002e C34A     		ldr	r2, .L438+16
 3977 0030 82ED009A 		vstr.32	s18, [r2]
 3978              		.loc 1 948 0
 3979 0034 C24A     		ldr	r2, .L438+20
 3980 0036 82ED008A 		vstr.32	s16, [r2]
 3981              		.loc 1 949 0
 3982 003a C24A     		ldr	r2, .L438+24
 3983 003c 0223     		movs	r3, #2
 3984 003e 1370     		strb	r3, [r2]
 3985              		.loc 1 950 0
 3986 0040 C14A     		ldr	r2, .L438+28
 3987 0042 1370     		strb	r3, [r2]
 3988              		.loc 1 953 0
 3989 0044 FFF7FEFF 		bl	timeout_get_timeout_msec
 3990              	.LVL236:
ARM GAS  /var/tmp//ccoqQk7W.s 			page 71


 3991 0048 0190     		str	r0, [sp, #4]
 3992              	.LVL237:
 3993              		.loc 1 954 0
 3994 004a FFF7FEFF 		bl	timeout_get_brake_current
 3995              	.LVL238:
 3996 004e B0EE40AA 		vmov.f32	s20, s0
 3997              	.LVL239:
 3998              		.loc 1 955 0
 3999 0052 FFF7FEFF 		bl	timeout_reset
 4000              	.LVL240:
 4001              		.loc 1 956 0
 4002 0056 B0EE480A 		vmov.f32	s0, s16
 4003 005a BC48     		ldr	r0, .L438+32
 4004 005c FFF7FEFF 		bl	timeout_configure
 4005              	.LVL241:
 4006              		.loc 1 959 0
 4007 0060 D8F80030 		ldr	r3, [r8]
 4008 0064 D3ED2DAA 		vldr.32	s21, [r3, #180]
 4009              	.LVL242:
 4010              		.loc 1 960 0
 4011 0068 93F8B820 		ldrb	r2, [r3, #184]	@ zero_extendqisi2
 4012              		.loc 1 961 0
 4013 006c 93ED2FBA 		vldr.32	s22, [r3, #188]
 4014              		.loc 1 963 0
 4015 0070 83ED2D8A 		vstr.32	s16, [r3, #180]
 4016              		.loc 1 960 0
 4017 0074 09EE902A 		vmov	s19, r2	@ int
 4018              		.loc 1 964 0
 4019 0078 0022     		movs	r2, #0
 4020 007a 83F8B820 		strb	r2, [r3, #184]
 4021              		.loc 1 960 0
 4022 007e F8EE699A 		vcvt.f32.u32	s19, s19
 4023              	.LVL243:
 4024              		.loc 1 965 0
 4025 0082 4FF07E52 		mov	r2, #1065353216
 4026 0086 C3F8BC20 		str	r2, [r3, #188]	@ float
 4027              		.loc 1 969 0
 4028 008a 1F25     		movs	r5, #31
 4029              	.LVL244:
 4030              	.L352:
 4031 008c FFF7FEFF 		bl	encoder_index_found
 4032              	.LVL245:
 4033 0090 70B9     		cbnz	r0, .L356
 4034 0092 9FEDA78A 		vldr.32	s16, .L438+4
 4035 0096 4FF4FA76 		mov	r6, #500
 4036              	.L353:
 4037              	.LVL246:
 4038              	.LBB67:
 4039              		.loc 1 972 0 discriminator 3
 4040 009a 0A20     		movs	r0, #10
 4041              		.loc 1 971 0 discriminator 3
 4042 009c 84ED008A 		vstr.32	s16, [r4]
 4043              		.loc 1 972 0 discriminator 3
 4044 00a0 FFF7FEFF 		bl	chThdSleep
 4045              	.LVL247:
 4046              		.loc 1 970 0 discriminator 3
 4047 00a4 013E     		subs	r6, r6, #1
ARM GAS  /var/tmp//ccoqQk7W.s 			page 72


 4048 00a6 38EE288A 		vadd.f32	s16, s16, s17
 4049              	.LVL248:
 4050 00aa F6D1     		bne	.L353
 4051              	.LVL249:
 4052              	.LBE67:
 4053              		.loc 1 976 0
 4054 00ac 013D     		subs	r5, r5, #1
 4055              	.LVL250:
 4056 00ae EDD1     		bne	.L352
 4057              	.LVL251:
 4058              	.L356:
 4059              		.loc 1 982 0
 4060 00b0 002F     		cmp	r7, #0
 4061 00b2 40F07E82 		bne	.L430
 4062              	.L355:
 4063              	.LVL252:
 4064              		.loc 1 969 0 discriminator 1
 4065 00b6 9FED9E8A 		vldr.32	s16, .L438+4
 4066              	.LBB68:
 4067              		.loc 1 987 0 discriminator 1
 4068 00ba DFED9E8A 		vldr.32	s17, .L438+8
 4069              	.LBE68:
 4070              		.loc 1 969 0 discriminator 1
 4071 00be 4FF4FA75 		mov	r5, #500
 4072              	.LVL253:
 4073              	.L358:
 4074              	.LBB69:
 4075              		.loc 1 989 0 discriminator 3
 4076 00c2 0A20     		movs	r0, #10
 4077              		.loc 1 988 0 discriminator 3
 4078 00c4 84ED008A 		vstr.32	s16, [r4]
 4079              		.loc 1 989 0 discriminator 3
 4080 00c8 FFF7FEFF 		bl	chThdSleep
 4081              	.LVL254:
 4082              		.loc 1 987 0 discriminator 3
 4083 00cc 013D     		subs	r5, r5, #1
 4084 00ce 38EE288A 		vadd.f32	s16, s16, s17
 4085              	.LVL255:
 4086 00d2 F6D1     		bne	.L358
 4087              	.LBE69:
 4088              		.loc 1 992 0
 4089 00d4 002F     		cmp	r7, #0
 4090 00d6 40F06882 		bne	.L431
 4091              	.L359:
 4092              		.loc 1 1002 0
 4093 00da 9D4D     		ldr	r5, .L438+36
 4094              		.loc 1 1001 0
 4095 00dc DFED94BA 		vldr.32	s23, .L438+4
 4096              	.LBB70:
 4097              	.LBB71:
 4098              	.LBB72:
 4099              		.loc 1 1007 0
 4100 00e0 DFED9CCA 		vldr.32	s25, .L438+40
 4101              		.loc 1 1008 0
 4102 00e4 9FED939A 		vldr.32	s18, .L438+8
 4103              	.LVL256:
 4104              	.LBE72:
ARM GAS  /var/tmp//ccoqQk7W.s 			page 73


 4105              		.loc 1 1012 0
 4106 00e8 DFF84CA2 		ldr	r10, .L438+12
 4107              		.loc 1 1022 0
 4108 00ec 9FED9FEA 		vldr.32	s28, .L438+64
 4109 00f0 DFED9DDA 		vldr.32	s27, .L438+60
 4110 00f4 DFF86CB2 		ldr	fp, .L438+56
 4111              	.LBE71:
 4112              	.LBE70:
 4113              		.loc 1 997 0
 4114 00f8 42F21070 		movw	r0, #10000
 4115 00fc FFF7FEFF 		bl	chThdSleep
 4116              	.LVL257:
 4117              		.loc 1 1002 0
 4118 0100 95ED00DA 		vldr.32	s26, [r5]
 4119              	.LVL258:
 4120              		.loc 1 1000 0
 4121 0104 B0EE6BCA 		vmov.f32	s24, s23
 4122              	.LBB76:
 4123              		.loc 1 1004 0
 4124 0108 0026     		movs	r6, #0
 4125              	.LVL259:
 4126              	.L366:
 4127              	.LBB74:
 4128              		.loc 1 1005 0
 4129 010a D5ED00EA 		vldr.32	s29, [r5]
 4130              	.LVL260:
 4131              		.loc 1 1006 0
 4132 010e 94ED008A 		vldr.32	s16, [r4]
 4133              	.LVL261:
 4134              	.LBB73:
 4135              		.loc 1 1007 0
 4136 0112 78EE2C8A 		vadd.f32	s17, s16, s25
 4137 0116 F4EEC88A 		vcmpe.f32	s17, s16
 4138 011a F1EE10FA 		vmrs	APSR_nzcv, FPSCR
 4139 011e 0BDD     		ble	.L364
 4140              	.LVL262:
 4141              	.L363:
 4142              		.loc 1 1010 0
 4143 0120 0A20     		movs	r0, #10
 4144              		.loc 1 1009 0
 4145 0122 84ED008A 		vstr.32	s16, [r4]
 4146              		.loc 1 1010 0
 4147 0126 FFF7FEFF 		bl	chThdSleep
 4148              	.LVL263:
 4149              		.loc 1 1008 0
 4150 012a 38EE098A 		vadd.f32	s16, s16, s18
 4151              	.LVL264:
 4152              		.loc 1 1007 0
 4153 012e F4EEC88A 		vcmpe.f32	s17, s16
 4154 0132 F1EE10FA 		vmrs	APSR_nzcv, FPSCR
 4155 0136 F3DC     		bgt	.L363
 4156              	.L364:
 4157              	.LBE73:
 4158              		.loc 1 1012 0
 4159 0138 5046     		mov	r0, r10
 4160 013a FFF7FEFF 		bl	utils_norm_angle_rad
 4161              	.LVL265:
ARM GAS  /var/tmp//ccoqQk7W.s 			page 74


 4162              		.loc 1 1013 0
 4163 013e 40F6B830 		movw	r0, #3000
 4164 0142 FFF7FEFF 		bl	chThdSleep
 4165              	.LVL266:
 4166              		.loc 1 1014 0
 4167 0146 F0EE6E0A 		vmov.f32	s1, s29
 4168 014a 95ED000A 		vldr.32	s0, [r5]
 4169 014e FFF7FEFF 		bl	utils_angle_difference_rad
 4170              	.LVL267:
 4171              		.loc 1 1017 0
 4172 0152 05A9     		add	r1, sp, #20
 4173 0154 04A8     		add	r0, sp, #16
 4174              		.loc 1 1014 0
 4175 0156 B0EE408A 		vmov.f32	s16, s0
 4176              	.LVL268:
 4177              		.loc 1 1017 0
 4178 015a FFF7FEFF 		bl	sincosf
 4179              	.LVL269:
 4180              		.loc 1 1018 0
 4181 015e 9DED047A 		vldr.32	s14, [sp, #16]
 4182              		.loc 1 1019 0
 4183 0162 DDED057A 		vldr.32	s15, [sp, #20]
 4184              		.loc 1 1018 0
 4185 0166 3CEE07CA 		vadd.f32	s24, s24, s14
 4186              	.LVL270:
 4187              		.loc 1 1019 0
 4188 016a 7BEEA7BA 		vadd.f32	s23, s23, s15
 4189              	.LVL271:
 4190              		.loc 1 1021 0
 4191 016e 002F     		cmp	r7, #0
 4192 0170 40F0BF81 		bne	.L432
 4193              	.L362:
 4194              		.loc 1 1025 0
 4195 0174 032E     		cmp	r6, #3
 4196 0176 12DD     		ble	.L368
 4197              		.loc 1 1025 0 is_stmt 0 discriminator 1
 4198 0178 95ED000A 		vldr.32	s0, [r5]
 4199 017c F0EE4D0A 		vmov.f32	s1, s26
 4200 0180 FFF7FEFF 		bl	utils_angle_difference_rad
 4201              	.LVL272:
 4202 0184 F6EE007A 		vmov.f32	s15, #5.0e-1
 4203 0188 28EE278A 		vmul.f32	s16, s16, s15
 4204              	.LVL273:
 4205 018c B0EEC00A 		vabs.f32	s0, s0
 4206 0190 B0EEC88A 		vabs.f32	s16, s16
 4207 0194 B4EEC80A 		vcmpe.f32	s0, s16
 4208 0198 F1EE10FA 		vmrs	APSR_nzcv, FPSCR
 4209 019c 02D4     		bmi	.L367
 4210              	.L368:
 4211              	.LBE74:
 4212              		.loc 1 1004 0 is_stmt 1
 4213 019e 0136     		adds	r6, r6, #1
 4214              	.LVL274:
 4215 01a0 142E     		cmp	r6, #20
 4216 01a2 B2D1     		bne	.L366
 4217              	.L367:
 4218              	.LBE76:
ARM GAS  /var/tmp//ccoqQk7W.s 			page 75


 4219              		.loc 1 1030 0
 4220 01a4 95ED00DA 		vldr.32	s26, [r5]
 4221              	.LVL275:
 4222              	.LBB77:
 4223              	.LBB78:
 4224              	.LBB79:
 4225              		.loc 1 1035 0
 4226 01a8 DFED6ACA 		vldr.32	s25, .L438+40
 4227              		.loc 1 1036 0
 4228 01ac 9FED619A 		vldr.32	s18, .L438+8
 4229              	.LBE79:
 4230              		.loc 1 1040 0
 4231 01b0 DFF884A1 		ldr	r10, .L438+12
 4232              		.loc 1 1050 0
 4233 01b4 9FED6DEA 		vldr.32	s28, .L438+64
 4234 01b8 DFED6BDA 		vldr.32	s27, .L438+60
 4235 01bc DFF8A4B1 		ldr	fp, .L438+56
 4236              	.LBE78:
 4237              		.loc 1 1032 0
 4238 01c0 0026     		movs	r6, #0
 4239              	.LVL276:
 4240              	.L376:
 4241              	.LBB81:
 4242              		.loc 1 1033 0
 4243 01c2 D5ED00EA 		vldr.32	s29, [r5]
 4244              	.LVL277:
 4245              		.loc 1 1034 0
 4246 01c6 94ED008A 		vldr.32	s16, [r4]
 4247              	.LVL278:
 4248              	.LBB80:
 4249              		.loc 1 1035 0
 4250 01ca 78EE6C8A 		vsub.f32	s17, s16, s25
 4251 01ce B4EEE88A 		vcmpe.f32	s16, s17
 4252 01d2 F1EE10FA 		vmrs	APSR_nzcv, FPSCR
 4253 01d6 0BDD     		ble	.L374
 4254              	.LVL279:
 4255              	.L373:
 4256              		.loc 1 1038 0
 4257 01d8 0A20     		movs	r0, #10
 4258              		.loc 1 1037 0
 4259 01da 84ED008A 		vstr.32	s16, [r4]
 4260              		.loc 1 1038 0
 4261 01de FFF7FEFF 		bl	chThdSleep
 4262              	.LVL280:
 4263              		.loc 1 1036 0
 4264 01e2 38EE498A 		vsub.f32	s16, s16, s18
 4265              	.LVL281:
 4266              		.loc 1 1035 0
 4267 01e6 B4EEE88A 		vcmpe.f32	s16, s17
 4268 01ea F1EE10FA 		vmrs	APSR_nzcv, FPSCR
 4269 01ee F3DC     		bgt	.L373
 4270              	.L374:
 4271              	.LBE80:
 4272              		.loc 1 1040 0
 4273 01f0 5046     		mov	r0, r10
 4274 01f2 FFF7FEFF 		bl	utils_norm_angle_rad
 4275              	.LVL282:
ARM GAS  /var/tmp//ccoqQk7W.s 			page 76


 4276              		.loc 1 1041 0
 4277 01f6 40F6B830 		movw	r0, #3000
 4278 01fa FFF7FEFF 		bl	chThdSleep
 4279              	.LVL283:
 4280              		.loc 1 1042 0
 4281 01fe D5ED000A 		vldr.32	s1, [r5]
 4282 0202 B0EE6E0A 		vmov.f32	s0, s29
 4283 0206 FFF7FEFF 		bl	utils_angle_difference_rad
 4284              	.LVL284:
 4285              		.loc 1 1045 0
 4286 020a 05A9     		add	r1, sp, #20
 4287 020c 04A8     		add	r0, sp, #16
 4288              		.loc 1 1042 0
 4289 020e B0EE408A 		vmov.f32	s16, s0
 4290              	.LVL285:
 4291              		.loc 1 1045 0
 4292 0212 FFF7FEFF 		bl	sincosf
 4293              	.LVL286:
 4294              		.loc 1 1046 0
 4295 0216 9DED047A 		vldr.32	s14, [sp, #16]
 4296              		.loc 1 1047 0
 4297 021a DDED057A 		vldr.32	s15, [sp, #20]
 4298              		.loc 1 1046 0
 4299 021e 3CEE07CA 		vadd.f32	s24, s24, s14
 4300              	.LVL287:
 4301              		.loc 1 1047 0
 4302 0222 7BEEA7BA 		vadd.f32	s23, s23, s15
 4303              	.LVL288:
 4304              		.loc 1 1049 0
 4305 0226 002F     		cmp	r7, #0
 4306 0228 40F07181 		bne	.L433
 4307              	.L372:
 4308              		.loc 1 1053 0
 4309 022c 032E     		cmp	r6, #3
 4310 022e 12DD     		ble	.L378
 4311              		.loc 1 1053 0 is_stmt 0 discriminator 1
 4312 0230 95ED000A 		vldr.32	s0, [r5]
 4313 0234 F0EE4D0A 		vmov.f32	s1, s26
 4314 0238 FFF7FEFF 		bl	utils_angle_difference_rad
 4315              	.LVL289:
 4316 023c F6EE007A 		vmov.f32	s15, #5.0e-1
 4317 0240 28EE278A 		vmul.f32	s16, s16, s15
 4318              	.LVL290:
 4319 0244 B0EEC00A 		vabs.f32	s0, s0
 4320 0248 B0EEC88A 		vabs.f32	s16, s16
 4321 024c B4EEC80A 		vcmpe.f32	s0, s16
 4322 0250 F1EE10FA 		vmrs	APSR_nzcv, FPSCR
 4323 0254 02D4     		bmi	.L377
 4324              	.L378:
 4325              	.LBE81:
 4326              		.loc 1 1032 0 is_stmt 1
 4327 0256 0136     		adds	r6, r6, #1
 4328              	.LVL291:
 4329 0258 142E     		cmp	r6, #20
 4330 025a B2D1     		bne	.L376
 4331              	.L377:
 4332              	.LBE77:
ARM GAS  /var/tmp//ccoqQk7W.s 			page 77


 4333              		.loc 1 1058 0
 4334 025c F0EE6B0A 		vmov.f32	s1, s23
 4335 0260 B0EE4C0A 		vmov.f32	s0, s24
 4336 0264 FFF7FEFF 		bl	atan2f
 4337              	.LVL292:
 4338 0268 DFED407A 		vldr.32	s15, .L438+64
 4339 026c DFED3E6A 		vldr.32	s13, .L438+60
 4340              		.loc 1 1059 0
 4341 0270 039B     		ldr	r3, [sp, #12]
 4342              		.loc 1 1060 0
 4343 0272 9FED397A 		vldr.32	s14, .L438+44
 4344              		.loc 1 1058 0
 4345 0276 20EE270A 		vmul.f32	s0, s0, s15
 4346 027a C0EE267A 		vdiv.f32	s15, s0, s13
 4347              	.LVL293:
 4348              		.loc 1 1059 0
 4349 027e F5EEC07A 		vcmpe.f32	s15, #0
 4350 0282 F1EE10FA 		vmrs	APSR_nzcv, FPSCR
 4351 0286 4CBF     		ite	mi
 4352 0288 0126     		movmi	r6, #1
 4353              	.LVL294:
 4354 028a 0026     		movpl	r6, #0
 4355              		.loc 1 1061 0
 4356 028c F0EEE77A 		vabs.f32	s15, s15
 4357              	.LVL295:
 4358              		.loc 1 1059 0
 4359 0290 1E70     		strb	r6, [r3]
 4360              		.loc 1 1060 0
 4361 0292 87EE270A 		vdiv.f32	s0, s14, s15
 4362              	.LVL296:
 4363 0296 FFF7FEFF 		bl	roundf
 4364              	.LVL297:
 4365              		.loc 1 1063 0
 4366 029a D8F80030 		ldr	r3, [r8]
 4367              		.loc 1 1060 0
 4368 029e 029A     		ldr	r2, [sp, #8]
 4369 02a0 82ED000A 		vstr.32	s0, [r2]
 4370              		.loc 1 1063 0
 4371 02a4 83F8B860 		strb	r6, [r3, #184]
 4372              		.loc 1 1064 0
 4373 02a8 83ED2F0A 		vstr.32	s0, [r3, #188]
 4374              		.loc 1 1066 0
 4375 02ac 002F     		cmp	r7, #0
 4376 02ae 40F04C81 		bne	.L434
 4377              	.LBB83:
 4378              		.loc 1 1071 0
 4379 02b2 94ED008A 		vldr.32	s16, [r4]
 4380              	.LVL298:
 4381 02b6 DFED297A 		vldr.32	s15, .L438+48
 4382 02ba B4EEE78A 		vcmpe.f32	s16, s15
 4383 02be F1EE10FA 		vmrs	APSR_nzcv, FPSCR
 4384 02c2 40F15D81 		bpl	.L382
 4385              	.L381:
 4386              		.loc 1 1071 0 is_stmt 0 discriminator 3
 4387 02c6 9FED1B9A 		vldr.32	s18, .L438+8
 4388 02ca DFED248A 		vldr.32	s17, .L438+48
 4389              	.L385:
ARM GAS  /var/tmp//ccoqQk7W.s 			page 78


 4390              		.loc 1 1072 0 is_stmt 1 discriminator 3
 4391 02ce 84ED008A 		vstr.32	s16, [r4]
 4392              		.loc 1 1073 0 discriminator 3
 4393 02d2 1420     		movs	r0, #20
 4394 02d4 FFF7FEFF 		bl	chThdSleep
 4395              	.LVL299:
 4396              		.loc 1 1071 0 discriminator 3
 4397 02d8 38EE098A 		vadd.f32	s16, s16, s18
 4398              	.LVL300:
 4399 02dc B4EEE88A 		vcmpe.f32	s16, s17
 4400 02e0 F1EE10FA 		vmrs	APSR_nzcv, FPSCR
 4401 02e4 F3D4     		bmi	.L385
 4402              	.LBE83:
 4403              		.loc 1 1076 0
 4404 02e6 002F     		cmp	r7, #0
 4405 02e8 40F03C81 		bne	.L383
 4406              		.loc 1 1081 0
 4407 02ec D8F80030 		ldr	r3, [r8]
 4408 02f0 D3ED2F7A 		vldr.32	s15, [r3, #188]
 4409 02f4 B0EE087A 		vmov.f32	s14, #3.0e+0
 4410 02f8 67EE877A 		vmul.f32	s15, s15, s14
 4411 02fc FDEEE77A 		vcvt.s32.f32	s15, s15
 4412 0300 17EE90AA 		vmov	r10, s15	@ int
 4413              	.LVL301:
 4414              	.LBB84:
 4415              		.loc 1 1085 0
 4416 0304 BAF1000F 		cmp	r10, #0
 4417 0308 40F35781 		ble	.L435
 4418              	.L395:
 4419              	.LBE84:
 4420              	.LBB88:
 4421              		.loc 1 1032 0
 4422 030c 9FED088A 		vldr.32	s16, .L438+4
 4423              	.LVL302:
 4424              	.LBE88:
 4425              	.LBB89:
 4426              	.LBB85:
 4427              		.loc 1 1086 0
 4428 0310 DFED15BA 		vldr.32	s23, .L438+60
 4429              		.loc 1 1096 0
 4430 0314 9FED15CA 		vldr.32	s24, .L438+64
 4431 0318 DFF848B0 		ldr	fp, .L438+56
 4432 031c 07EE90AA 		vmov	s15, r10	@ int
 4433              	.LBE85:
 4434              	.LBE89:
 4435              	.LBB90:
 4436              		.loc 1 1032 0
 4437 0320 F0EE488A 		vmov.f32	s17, s16
 4438 0324 B8EEE79A 		vcvt.f32.s32	s18, s15
 4439 0328 0026     		movs	r6, #0
 4440 032a 25E0     		b	.L390
 4441              	.L439:
 4442              		.align	2
 4443              	.L438:
 4444 032c 00000000 		.word	.LANCHOR28
 4445 0330 00000000 		.word	0
 4446 0334 2EE34D3C 		.word	1011737390
ARM GAS  /var/tmp//ccoqQk7W.s 			page 79


 4447 0338 00000000 		.word	.LANCHOR29
 4448 033c 00000000 		.word	.LANCHOR31
 4449 0340 00000000 		.word	.LANCHOR22
 4450 0344 00000000 		.word	.LANCHOR14
 4451 0348 00000000 		.word	.LANCHOR7
 4452 034c C0270900 		.word	600000
 4453 0350 00000000 		.word	.LANCHOR34
 4454 0354 920A0640 		.word	1074137746
 4455 0358 0000F042 		.word	1123024896
 4456 035c DB0FC940 		.word	1086918619
 4457 0360 00000000 		.word	.LANCHOR0
 4458 0364 20000000 		.word	.LC3
 4459 0368 DB0F4940 		.word	1078530011
 4460 036c 00003443 		.word	1127481344
 4461              	.LVL303:
 4462              	.L388:
 4463              	.LBE90:
 4464              	.LBB91:
 4465              		.loc 1 1085 0 discriminator 2
 4466 0370 B245     		cmp	r10, r6
 4467 0372 3BD0     		beq	.L389
 4468              	.LVL304:
 4469              	.L436:
 4470 0374 D8F80030 		ldr	r3, [r8]
 4471              	.LVL305:
 4472              	.L390:
 4473              	.LBB86:
 4474              		.loc 1 1086 0
 4475 0378 93ED2F7A 		vldr.32	s14, [r3, #188]
 4476 037c 07EE906A 		vmov	s15, r6	@ int
 4477 0380 F8EEE77A 		vcvt.f32.s32	s15, s15
 4478              		.loc 1 1087 0
 4479 0384 41F28830 		movw	r0, #5000
 4480              		.loc 1 1086 0
 4481 0388 77EEA77A 		vadd.f32	s15, s15, s15
 4482              	.LBE86:
 4483              		.loc 1 1085 0
 4484 038c 0136     		adds	r6, r6, #1
 4485              	.LVL306:
 4486              	.LBB87:
 4487              		.loc 1 1086 0
 4488 038e 67EEAB7A 		vmul.f32	s15, s15, s23
 4489 0392 67EE877A 		vmul.f32	s15, s15, s14
 4490 0396 87EE897A 		vdiv.f32	s14, s15, s18
 4491 039a 84ED007A 		vstr.32	s14, [r4]
 4492              		.loc 1 1087 0
 4493 039e FFF7FEFF 		bl	chThdSleep
 4494              	.LVL307:
 4495              		.loc 1 1089 0
 4496 03a2 95ED000A 		vldr.32	s0, [r5]
 4497 03a6 D4ED000A 		vldr.32	s1, [r4]
 4498 03aa FFF7FEFF 		bl	utils_angle_difference_rad
 4499              	.LVL308:
 4500              		.loc 1 1091 0
 4501 03ae 05A9     		add	r1, sp, #20
 4502 03b0 04A8     		add	r0, sp, #16
 4503              		.loc 1 1089 0
ARM GAS  /var/tmp//ccoqQk7W.s 			page 80


 4504 03b2 F0EE40CA 		vmov.f32	s25, s0
 4505              	.LVL309:
 4506              		.loc 1 1091 0
 4507 03b6 FFF7FEFF 		bl	sincosf
 4508              	.LVL310:
 4509              		.loc 1 1092 0
 4510 03ba 9DED047A 		vldr.32	s14, [sp, #16]
 4511              		.loc 1 1093 0
 4512 03be DDED057A 		vldr.32	s15, [sp, #20]
 4513              		.loc 1 1092 0
 4514 03c2 78EE878A 		vadd.f32	s17, s17, s14
 4515              	.LVL311:
 4516              		.loc 1 1093 0
 4517 03c6 38EE278A 		vadd.f32	s16, s16, s15
 4518              	.LVL312:
 4519              		.loc 1 1095 0
 4520 03ca 002F     		cmp	r7, #0
 4521 03cc D0D0     		beq	.L388
 4522              		.loc 1 1096 0
 4523 03ce 6CEE8CCA 		vmul.f32	s25, s25, s24
 4524              	.LVL313:
 4525 03d2 CCEEAB7A 		vdiv.f32	s15, s25, s23
 4526 03d6 17EE900A 		vmov	r0, s15
 4527 03da FFF7FEFF 		bl	__aeabi_f2d
 4528              	.LVL314:
 4529 03de 0246     		mov	r2, r0
 4530 03e0 0B46     		mov	r3, r1
 4531 03e2 5846     		mov	r0, fp
 4532 03e4 FFF7FEFF 		bl	commands_printf
 4533              	.LVL315:
 4534              	.LBE87:
 4535              		.loc 1 1085 0
 4536 03e8 B245     		cmp	r10, r6
 4537 03ea C3D1     		bne	.L436
 4538              	.L389:
 4539              	.LBE91:
 4540              	.LBB92:
 4541              	.LBB93:
 4542              		.loc 1 1101 0
 4543 03ec 5FED22BA 		vldr.32	s23, .L438+60
 4544              		.loc 1 1111 0
 4545 03f0 1FED22CA 		vldr.32	s24, .L438+64
 4546 03f4 DFF808A2 		ldr	r10, .L440+60
 4547              	.LVL316:
 4548 03f8 01E0     		b	.L392
 4549              	.LVL317:
 4550              	.L391:
 4551              	.LBE93:
 4552              		.loc 1 1100 0 discriminator 2
 4553 03fa 013E     		subs	r6, r6, #1
 4554              	.LVL318:
 4555 03fc 3AD0     		beq	.L387
 4556              	.LVL319:
 4557              	.L392:
 4558              	.LBB94:
 4559              		.loc 1 1101 0
 4560 03fe 07EE906A 		vmov	s15, r6	@ int
ARM GAS  /var/tmp//ccoqQk7W.s 			page 81


 4561 0402 F8EEE77A 		vcvt.f32.s32	s15, s15
 4562 0406 D8F80030 		ldr	r3, [r8]
 4563 040a 77EEA77A 		vadd.f32	s15, s15, s15
 4564 040e 93ED2F7A 		vldr.32	s14, [r3, #188]
 4565 0412 67EEAB7A 		vmul.f32	s15, s15, s23
 4566              		.loc 1 1102 0
 4567 0416 41F28830 		movw	r0, #5000
 4568              		.loc 1 1101 0
 4569 041a 67EE877A 		vmul.f32	s15, s15, s14
 4570 041e 87EE897A 		vdiv.f32	s14, s15, s18
 4571 0422 84ED007A 		vstr.32	s14, [r4]
 4572              		.loc 1 1102 0
 4573 0426 FFF7FEFF 		bl	chThdSleep
 4574              	.LVL320:
 4575              		.loc 1 1104 0
 4576 042a 95ED000A 		vldr.32	s0, [r5]
 4577 042e D4ED000A 		vldr.32	s1, [r4]
 4578 0432 FFF7FEFF 		bl	utils_angle_difference_rad
 4579              	.LVL321:
 4580              		.loc 1 1106 0
 4581 0436 05A9     		add	r1, sp, #20
 4582 0438 04A8     		add	r0, sp, #16
 4583              		.loc 1 1104 0
 4584 043a F0EE40CA 		vmov.f32	s25, s0
 4585              	.LVL322:
 4586              		.loc 1 1106 0
 4587 043e FFF7FEFF 		bl	sincosf
 4588              	.LVL323:
 4589              		.loc 1 1107 0
 4590 0442 9DED047A 		vldr.32	s14, [sp, #16]
 4591              		.loc 1 1108 0
 4592 0446 DDED057A 		vldr.32	s15, [sp, #20]
 4593              		.loc 1 1107 0
 4594 044a 78EE878A 		vadd.f32	s17, s17, s14
 4595              	.LVL324:
 4596              		.loc 1 1108 0
 4597 044e 38EE278A 		vadd.f32	s16, s16, s15
 4598              	.LVL325:
 4599              		.loc 1 1110 0
 4600 0452 002F     		cmp	r7, #0
 4601 0454 D1D0     		beq	.L391
 4602              		.loc 1 1111 0
 4603 0456 6CEE8CCA 		vmul.f32	s25, s25, s24
 4604              	.LVL326:
 4605 045a CCEEAB7A 		vdiv.f32	s15, s25, s23
 4606 045e 17EE900A 		vmov	r0, s15
 4607 0462 FFF7FEFF 		bl	__aeabi_f2d
 4608              	.LVL327:
 4609 0466 0246     		mov	r2, r0
 4610 0468 0B46     		mov	r3, r1
 4611 046a 5046     		mov	r0, r10
 4612 046c FFF7FEFF 		bl	commands_printf
 4613              	.LVL328:
 4614              	.LBE94:
 4615              		.loc 1 1100 0
 4616 0470 013E     		subs	r6, r6, #1
 4617              	.LVL329:
ARM GAS  /var/tmp//ccoqQk7W.s 			page 82


 4618 0472 C4D1     		bne	.L392
 4619              	.LVL330:
 4620              	.L387:
 4621              	.LBE92:
 4622              		.loc 1 1115 0
 4623 0474 F0EE480A 		vmov.f32	s1, s16
 4624 0478 B0EE680A 		vmov.f32	s0, s17
 4625 047c FFF7FEFF 		bl	atan2f
 4626              	.LVL331:
 4627 0480 DFED507A 		vldr.32	s15, .L440
 4628 0484 DFED506A 		vldr.32	s13, .L440+4
 4629 0488 60EE277A 		vmul.f32	s15, s0, s15
 4630 048c 87EEA67A 		vdiv.f32	s14, s15, s13
 4631 0490 89ED007A 		vstr.32	s14, [r9]
 4632              		.loc 1 1117 0
 4633 0494 002F     		cmp	r7, #0
 4634 0496 48D1     		bne	.L437
 4635              	.L393:
 4636              		.loc 1 1121 0
 4637 0498 4846     		mov	r0, r9
 4638 049a FFF7FEFF 		bl	utils_norm_angle
 4639              	.LVL332:
 4640              	.L394:
 4641              		.loc 1 1128 0
 4642 049e 4B48     		ldr	r0, .L440+8
 4643              		.loc 1 1127 0
 4644 04a0 4B49     		ldr	r1, .L440+12
 4645 04a2 0022     		movs	r2, #0
 4646 04a4 0A60     		str	r2, [r1]	@ float
 4647              		.loc 1 1128 0
 4648 04a6 0260     		str	r2, [r0]	@ float
 4649              		.loc 1 1129 0
 4650 04a8 4A4A     		ldr	r2, .L440+16
 4651 04aa 0023     		movs	r3, #0
 4652 04ac 1370     		strb	r3, [r2]
 4653              		.loc 1 1130 0
 4654 04ae 4A4A     		ldr	r2, .L440+20
 4655 04b0 0721     		movs	r1, #7
 4656 04b2 1170     		strb	r1, [r2]
 4657              		.loc 1 1131 0
 4658 04b4 494A     		ldr	r2, .L440+24
 4659 04b6 1370     		strb	r3, [r2]
 4660              		.loc 1 1132 0
 4661 04b8 FFF7FEFF 		bl	stop_pwm_hw
 4662              	.LVL333:
 4663              		.loc 1 1135 0
 4664 04bc F5EE409A 		vcmp.f32	s19, #0
 4665 04c0 D8F80030 		ldr	r3, [r8]
 4666              		.loc 1 1140 0
 4667 04c4 0198     		ldr	r0, [sp, #4]
 4668              		.loc 1 1135 0
 4669 04c6 F1EE10FA 		vmrs	APSR_nzcv, FPSCR
 4670 04ca 14BF     		ite	ne
 4671 04cc 0122     		movne	r2, #1
 4672 04ce 0022     		moveq	r2, #0
 4673 04d0 83F8B820 		strb	r2, [r3, #184]
 4674              		.loc 1 1140 0
ARM GAS  /var/tmp//ccoqQk7W.s 			page 83


 4675 04d4 B0EE4A0A 		vmov.f32	s0, s20
 4676              		.loc 1 1136 0
 4677 04d8 C3ED2DAA 		vstr.32	s21, [r3, #180]
 4678              		.loc 1 1137 0
 4679 04dc 83ED2FBA 		vstr.32	s22, [r3, #188]
 4680              		.loc 1 1140 0
 4681 04e0 FFF7FEFF 		bl	timeout_configure
 4682              	.LVL334:
 4683              		.loc 1 1143 0
 4684 04e4 07B0     		add	sp, sp, #28
 4685              		.cfi_remember_state
 4686              		.cfi_def_cfa_offset 92
 4687              		@ sp needed
 4688 04e6 BDEC0E8B 		vldm	sp!, {d8-d14}
 4689              		.cfi_restore 92
 4690              		.cfi_restore 93
 4691              		.cfi_restore 90
 4692              		.cfi_restore 91
 4693              		.cfi_restore 88
 4694              		.cfi_restore 89
 4695              		.cfi_restore 86
 4696              		.cfi_restore 87
 4697              		.cfi_restore 84
 4698              		.cfi_restore 85
 4699              		.cfi_restore 82
 4700              		.cfi_restore 83
 4701              		.cfi_restore 80
 4702              		.cfi_restore 81
 4703              		.cfi_def_cfa_offset 36
 4704              	.LVL335:
 4705 04ea BDE8F04F 		pop	{r4, r5, r6, r7, r8, r9, r10, fp, lr}
 4706              		.cfi_restore 14
 4707              		.cfi_restore 11
 4708              		.cfi_restore 10
 4709              		.cfi_restore 9
 4710              		.cfi_restore 8
 4711              		.cfi_restore 7
 4712              		.cfi_restore 6
 4713              		.cfi_restore 5
 4714              		.cfi_restore 4
 4715              		.cfi_def_cfa_offset 0
 4716              	.LVL336:
 4717              		.loc 1 1142 0
 4718 04ee FFF7FEBF 		b	mc_interface_unlock
 4719              	.LVL337:
 4720              	.L432:
 4721              		.cfi_restore_state
 4722              	.LBB95:
 4723              	.LBB75:
 4724              		.loc 1 1022 0
 4725 04f2 68EE0E7A 		vmul.f32	s15, s16, s28
 4726 04f6 87EEAD7A 		vdiv.f32	s14, s15, s27
 4727 04fa 17EE100A 		vmov	r0, s14
 4728 04fe FFF7FEFF 		bl	__aeabi_f2d
 4729              	.LVL338:
 4730 0502 0246     		mov	r2, r0
 4731 0504 0B46     		mov	r3, r1
ARM GAS  /var/tmp//ccoqQk7W.s 			page 84


 4732 0506 5846     		mov	r0, fp
 4733 0508 FFF7FEFF 		bl	commands_printf
 4734              	.LVL339:
 4735 050c 32E6     		b	.L362
 4736              	.LVL340:
 4737              	.L433:
 4738              	.LBE75:
 4739              	.LBE95:
 4740              	.LBB96:
 4741              	.LBB82:
 4742              		.loc 1 1050 0
 4743 050e 68EE0E7A 		vmul.f32	s15, s16, s28
 4744 0512 87EEAD7A 		vdiv.f32	s14, s15, s27
 4745 0516 17EE100A 		vmov	r0, s14
 4746 051a FFF7FEFF 		bl	__aeabi_f2d
 4747              	.LVL341:
 4748 051e 0246     		mov	r2, r0
 4749 0520 0B46     		mov	r3, r1
 4750 0522 5846     		mov	r0, fp
 4751 0524 FFF7FEFF 		bl	commands_printf
 4752              	.LVL342:
 4753 0528 80E6     		b	.L372
 4754              	.LVL343:
 4755              	.L437:
 4756              	.LBE82:
 4757              	.LBE96:
 4758              		.loc 1 1118 0
 4759 052a 17EE100A 		vmov	r0, s14
 4760 052e FFF7FEFF 		bl	__aeabi_f2d
 4761              	.LVL344:
 4762 0532 0246     		mov	r2, r0
 4763 0534 0B46     		mov	r3, r1
 4764 0536 2A48     		ldr	r0, .L440+28
 4765 0538 FFF7FEFF 		bl	commands_printf
 4766              	.LVL345:
 4767              		.loc 1 1121 0
 4768 053c 4846     		mov	r0, r9
 4769 053e FFF7FEFF 		bl	utils_norm_angle
 4770              	.LVL346:
 4771              		.loc 1 1124 0
 4772 0542 2848     		ldr	r0, .L440+32
 4773 0544 FFF7FEFF 		bl	commands_printf
 4774              	.LVL347:
 4775 0548 A9E7     		b	.L394
 4776              	.LVL348:
 4777              	.L434:
 4778              		.loc 1 1067 0
 4779 054a 2748     		ldr	r0, .L440+36
 4780 054c FFF7FEFF 		bl	commands_printf
 4781              	.LVL349:
 4782              	.LBB97:
 4783              		.loc 1 1071 0
 4784 0550 94ED008A 		vldr.32	s16, [r4]
 4785              	.LVL350:
 4786 0554 DFED257A 		vldr.32	s15, .L440+40
 4787 0558 B4EEE78A 		vcmpe.f32	s16, s15
 4788 055c F1EE10FA 		vmrs	APSR_nzcv, FPSCR
ARM GAS  /var/tmp//ccoqQk7W.s 			page 85


 4789 0560 3FF5B1AE 		bmi	.L381
 4790              	.L383:
 4791              	.LBE97:
 4792              		.loc 1 1077 0
 4793 0564 2248     		ldr	r0, .L440+44
 4794 0566 FFF7FEFF 		bl	commands_printf
 4795              	.LVL351:
 4796              		.loc 1 1078 0
 4797 056a FFF7FEFF 		bl	encoder_read_deg
 4798              	.LVL352:
 4799 056e 10EE100A 		vmov	r0, s0
 4800 0572 FFF7FEFF 		bl	__aeabi_f2d
 4801              	.LVL353:
 4802 0576 0246     		mov	r2, r0
 4803 0578 0B46     		mov	r3, r1
 4804 057a 1E48     		ldr	r0, .L440+48
 4805 057c FFF7FEFF 		bl	commands_printf
 4806              	.LVL354:
 4807              	.L382:
 4808              		.loc 1 1081 0
 4809 0580 D8F80030 		ldr	r3, [r8]
 4810 0584 D3ED2F7A 		vldr.32	s15, [r3, #188]
 4811 0588 B0EE087A 		vmov.f32	s14, #3.0e+0
 4812 058c 67EE877A 		vmul.f32	s15, s15, s14
 4813 0590 FDEEE77A 		vcvt.s32.f32	s15, s15
 4814 0594 17EE90AA 		vmov	r10, s15	@ int
 4815              	.LVL355:
 4816              	.LBB98:
 4817              		.loc 1 1085 0
 4818 0598 BAF1000F 		cmp	r10, #0
 4819 059c 3FF7B6AE 		bgt	.L395
 4820              	.LBE98:
 4821              		.loc 1 1083 0
 4822 05a0 9FED158A 		vldr.32	s16, .L440+52
 4823              	.LVL356:
 4824              		.loc 1 1082 0
 4825 05a4 F0EE488A 		vmov.f32	s17, s16
 4826 05a8 64E7     		b	.L387
 4827              	.LVL357:
 4828              	.L431:
 4829              		.loc 1 993 0
 4830 05aa 1148     		ldr	r0, .L440+44
 4831 05ac FFF7FEFF 		bl	commands_printf
 4832              	.LVL358:
 4833 05b0 93E5     		b	.L359
 4834              	.LVL359:
 4835              	.L430:
 4836              		.loc 1 983 0
 4837 05b2 1248     		ldr	r0, .L440+56
 4838 05b4 FFF7FEFF 		bl	commands_printf
 4839              	.LVL360:
 4840 05b8 7DE5     		b	.L355
 4841              	.LVL361:
 4842              	.L435:
 4843              		.loc 1 1115 0
 4844 05ba 0023     		movs	r3, #0
 4845 05bc C9F80030 		str	r3, [r9]	@ float
ARM GAS  /var/tmp//ccoqQk7W.s 			page 86


 4846 05c0 6AE7     		b	.L393
 4847              	.L441:
 4848 05c2 00BF     		.align	2
 4849              	.L440:
 4850 05c4 00003443 		.word	1127481344
 4851 05c8 DB0F4940 		.word	1078530011
 4852 05cc 00000000 		.word	.LANCHOR22
 4853 05d0 00000000 		.word	.LANCHOR31
 4854 05d4 00000000 		.word	.LANCHOR28
 4855 05d8 00000000 		.word	.LANCHOR14
 4856 05dc 00000000 		.word	.LANCHOR7
 4857 05e0 54000000 		.word	.LC6
 4858 05e4 60000000 		.word	.LC7
 4859 05e8 28000000 		.word	.LC4
 4860 05ec DB0FC940 		.word	1086918619
 4861 05f0 0C000000 		.word	.LC2
 4862 05f4 48000000 		.word	.LC5
 4863 05f8 00000000 		.word	0
 4864 05fc 00000000 		.word	.LC1
 4865 0600 20000000 		.word	.LC3
 4866              		.cfi_endproc
 4867              	.LFE296:
 4868              		.size	mcpwm_foc_encoder_detect, .-mcpwm_foc_encoder_detect
 4869              		.section	.text.mcpwm_foc_measure_resistance,"ax",%progbits
 4870              		.align	1
 4871              		.p2align 4,,15
 4872              		.global	mcpwm_foc_measure_resistance
 4873              		.syntax unified
 4874              		.thumb
 4875              		.thumb_func
 4876              		.fpu fpv4-sp-d16
 4877              		.type	mcpwm_foc_measure_resistance, %function
 4878              	mcpwm_foc_measure_resistance:
 4879              	.LFB297:
 4880              		.loc 1 1158 0
 4881              		.cfi_startproc
 4882              		@ args = 0, pretend = 0, frame = 8
 4883              		@ frame_needed = 0, uses_anonymous_args = 0
 4884              	.LVL362:
 4885 0000 2DE9F04F 		push	{r4, r5, r6, r7, r8, r9, r10, fp, lr}
 4886              		.cfi_def_cfa_offset 36
 4887              		.cfi_offset 4, -36
 4888              		.cfi_offset 5, -32
 4889              		.cfi_offset 6, -28
 4890              		.cfi_offset 7, -24
 4891              		.cfi_offset 8, -20
 4892              		.cfi_offset 9, -16
 4893              		.cfi_offset 10, -12
 4894              		.cfi_offset 11, -8
 4895              		.cfi_offset 14, -4
 4896 0004 2DED048B 		vpush.64	{d8, d9}
 4897              		.cfi_def_cfa_offset 52
 4898              		.cfi_offset 80, -52
 4899              		.cfi_offset 81, -48
 4900              		.cfi_offset 82, -44
 4901              		.cfi_offset 83, -40
 4902 0008 83B0     		sub	sp, sp, #12
ARM GAS  /var/tmp//ccoqQk7W.s 			page 87


 4903              		.cfi_def_cfa_offset 64
 4904              		.loc 1 1158 0
 4905 000a F0EE408A 		vmov.f32	s17, s0
 4906              		.loc 1 1162 0
 4907 000e 9FED388A 		vldr.32	s16, .L449
 4908              		.loc 1 1161 0
 4909 0012 DFF8F490 		ldr	r9, .L449+24
 4910              		.loc 1 1163 0
 4911 0016 DFF8F4A0 		ldr	r10, .L449+28
 4912              		.loc 1 1164 0
 4913 001a DFF8F480 		ldr	r8, .L449+32
 4914              		.loc 1 1165 0
 4915 001e 354E     		ldr	r6, .L449+4
 4916              		.loc 1 1166 0
 4917 0020 354F     		ldr	r7, .L449+8
 4918              		.loc 1 1178 0
 4919 0022 364C     		ldr	r4, .L449+12
 4920              		.loc 1 1158 0
 4921 0024 0546     		mov	r5, r0
 4922              		.loc 1 1159 0
 4923 0026 FFF7FEFF 		bl	mc_interface_lock
 4924              	.LVL363:
 4925              		.loc 1 1162 0
 4926 002a 354A     		ldr	r2, .L449+16
 4927              		.loc 1 1165 0
 4928 002c 0223     		movs	r3, #2
 4929              		.loc 1 1161 0
 4930 002e 0121     		movs	r1, #1
 4931 0030 89F80010 		strb	r1, [r9]
 4932              		.loc 1 1162 0
 4933 0034 82ED008A 		vstr.32	s16, [r2]
 4934              		.loc 1 1163 0
 4935 0038 8AED008A 		vstr.32	s16, [r10]
 4936              		.loc 1 1164 0
 4937 003c C8ED008A 		vstr.32	s17, [r8]
 4938              		.loc 1 1165 0
 4939 0040 3370     		strb	r3, [r6]
 4940              		.loc 1 1166 0
 4941 0042 3B70     		strb	r3, [r7]
 4942              		.loc 1 1169 0
 4943 0044 FFF7FEFF 		bl	timeout_get_timeout_msec
 4944              	.LVL364:
 4945 0048 0190     		str	r0, [sp, #4]
 4946              	.LVL365:
 4947              		.loc 1 1170 0
 4948 004a FFF7FEFF 		bl	timeout_get_brake_current
 4949              	.LVL366:
 4950 004e F0EE408A 		vmov.f32	s17, s0
 4951              	.LVL367:
 4952              		.loc 1 1171 0
 4953 0052 FFF7FEFF 		bl	timeout_reset
 4954              	.LVL368:
 4955              		.loc 1 1172 0
 4956 0056 B0EE480A 		vmov.f32	s0, s16
 4957 005a 4EF66020 		movw	r0, #60000
 4958 005e FFF7FEFF 		bl	timeout_configure
 4959              	.LVL369:
ARM GAS  /var/tmp//ccoqQk7W.s 			page 88


 4960              		.loc 1 1175 0
 4961 0062 41F28830 		movw	r0, #5000
 4962 0066 FFF7FEFF 		bl	chThdSleep
 4963              	.LVL370:
 4964              		.loc 1 1180 0
 4965 006a 0023     		movs	r3, #0
 4966              		.loc 1 1178 0
 4967 006c 84ED018A 		vstr.32	s16, [r4, #4]
 4968              		.loc 1 1183 0
 4969 0070 42F2117B 		movw	fp, #10001
 4970              		.loc 1 1179 0
 4971 0074 84ED028A 		vstr.32	s16, [r4, #8]
 4972              		.loc 1 1180 0
 4973 0078 2360     		str	r3, [r4]
 4974              	.LVL371:
 4975              		.loc 1 1183 0
 4976 007a 04E0     		b	.L443
 4977              	.LVL372:
 4978              	.L444:
 4979              		.loc 1 1184 0
 4980 007c FFF7FEFF 		bl	chThdSleep
 4981              	.LVL373:
 4982              		.loc 1 1187 0
 4983 0080 BBF1010B 		subs	fp, fp, #1
 4984              	.LVL374:
 4985 0084 04D0     		beq	.L445
 4986              	.LVL375:
 4987              	.L443:
 4988              		.loc 1 1183 0
 4989 0086 2268     		ldr	r2, [r4]
 4990 0088 AA42     		cmp	r2, r5
 4991              		.loc 1 1184 0
 4992 008a 4FF00A00 		mov	r0, #10
 4993              		.loc 1 1183 0
 4994 008e F5DB     		blt	.L444
 4995              	.LVL376:
 4996              	.L445:
 4997              		.loc 1 1192 0
 4998 0090 94ED016A 		vldr.32	s12, [r4, #4]
 4999 0094 94ED007A 		vldr.32	s14, [r4]	@ int
 5000              		.loc 1 1193 0
 5001 0098 D4ED026A 		vldr.32	s13, [r4, #8]
 5002 009c D4ED007A 		vldr.32	s15, [r4]	@ int
 5003              		.loc 1 1192 0
 5004 00a0 B8EEC77A 		vcvt.f32.s32	s14, s14
 5005              		.loc 1 1193 0
 5006 00a4 F8EEE77A 		vcvt.f32.s32	s15, s15
 5007              		.loc 1 1192 0
 5008 00a8 86EE078A 		vdiv.f32	s16, s12, s14
 5009              	.LVL377:
 5010              		.loc 1 1196 0
 5011 00ac 0022     		movs	r2, #0
 5012              		.loc 1 1198 0
 5013 00ae 0023     		movs	r3, #0
 5014              		.loc 1 1199 0
 5015 00b0 0721     		movs	r1, #7
 5016              		.loc 1 1196 0
ARM GAS  /var/tmp//ccoqQk7W.s 			page 89


 5017 00b2 CAF80020 		str	r2, [r10]	@ float
 5018              		.loc 1 1197 0
 5019 00b6 C8F80020 		str	r2, [r8]	@ float
 5020              		.loc 1 1198 0
 5021 00ba 89F80030 		strb	r3, [r9]
 5022              		.loc 1 1199 0
 5023 00be 3170     		strb	r1, [r6]
 5024              		.loc 1 1200 0
 5025 00c0 3B70     		strb	r3, [r7]
 5026              		.loc 1 1193 0
 5027 00c2 86EEA79A 		vdiv.f32	s18, s13, s15
 5028              	.LVL378:
 5029              		.loc 1 1201 0
 5030 00c6 FFF7FEFF 		bl	stop_pwm_hw
 5031              	.LVL379:
 5032              		.loc 1 1204 0
 5033 00ca 0198     		ldr	r0, [sp, #4]
 5034 00cc B0EE680A 		vmov.f32	s0, s17
 5035 00d0 FFF7FEFF 		bl	timeout_configure
 5036              	.LVL380:
 5037              		.loc 1 1206 0
 5038 00d4 FFF7FEFF 		bl	mc_interface_unlock
 5039              	.LVL381:
 5040              		.loc 1 1208 0
 5041 00d8 89EE080A 		vdiv.f32	s0, s18, s16
 5042 00dc DFED097A 		vldr.32	s15, .L449+20
 5043 00e0 20EE270A 		vmul.f32	s0, s0, s15
 5044              		.loc 1 1209 0
 5045 00e4 03B0     		add	sp, sp, #12
 5046              		.cfi_def_cfa_offset 52
 5047              		@ sp needed
 5048 00e6 BDEC048B 		vldm	sp!, {d8-d9}
 5049              		.cfi_restore 82
 5050              		.cfi_restore 83
 5051              		.cfi_restore 80
 5052              		.cfi_restore 81
 5053              		.cfi_def_cfa_offset 36
 5054              	.LVL382:
 5055 00ea BDE8F08F 		pop	{r4, r5, r6, r7, r8, r9, r10, fp, pc}
 5056              	.LVL383:
 5057              	.L450:
 5058 00ee 00BF     		.align	2
 5059              	.L449:
 5060 00f0 00000000 		.word	0
 5061 00f4 00000000 		.word	.LANCHOR14
 5062 00f8 00000000 		.word	.LANCHOR7
 5063 00fc 00000000 		.word	.LANCHOR17
 5064 0100 00000000 		.word	.LANCHOR29
 5065 0104 ABAA2A3F 		.word	1059760811
 5066 0108 00000000 		.word	.LANCHOR28
 5067 010c 00000000 		.word	.LANCHOR31
 5068 0110 00000000 		.word	.LANCHOR22
 5069              		.cfi_endproc
 5070              	.LFE297:
 5071              		.size	mcpwm_foc_measure_resistance, .-mcpwm_foc_measure_resistance
 5072              		.section	.text.mcpwm_foc_measure_inductance,"ax",%progbits
 5073              		.align	1
ARM GAS  /var/tmp//ccoqQk7W.s 			page 90


 5074              		.p2align 4,,15
 5075              		.global	mcpwm_foc_measure_inductance
 5076              		.syntax unified
 5077              		.thumb
 5078              		.thumb_func
 5079              		.fpu fpv4-sp-d16
 5080              		.type	mcpwm_foc_measure_inductance, %function
 5081              	mcpwm_foc_measure_inductance:
 5082              	.LFB298:
 5083              		.loc 1 1226 0
 5084              		.cfi_startproc
 5085              		@ args = 0, pretend = 0, frame = 0
 5086              		@ frame_needed = 0, uses_anonymous_args = 0
 5087              	.LVL384:
 5088 0000 2DE9F84F 		push	{r3, r4, r5, r6, r7, r8, r9, r10, fp, lr}
 5089              		.cfi_def_cfa_offset 40
 5090              		.cfi_offset 3, -40
 5091              		.cfi_offset 4, -36
 5092              		.cfi_offset 5, -32
 5093              		.cfi_offset 6, -28
 5094              		.cfi_offset 7, -24
 5095              		.cfi_offset 8, -20
 5096              		.cfi_offset 9, -16
 5097              		.cfi_offset 10, -12
 5098              		.cfi_offset 11, -8
 5099              		.cfi_offset 14, -4
 5100              		.loc 1 1227 0
 5101 0004 394D     		ldr	r5, .L468
 5102              		.loc 1 1226 0
 5103 0006 2DED028B 		vpush.64	{d8}
 5104              		.cfi_def_cfa_offset 48
 5105              		.cfi_offset 80, -48
 5106              		.cfi_offset 81, -44
 5107              		.loc 1 1227 0
 5108 000a DFED398A 		vldr.32	s17, .L468+4
 5109              		.loc 1 1229 0
 5110 000e 0027     		movs	r7, #0
 5111              		.loc 1 1226 0
 5112 0010 8A46     		mov	r10, r1
 5113              		.loc 1 1227 0
 5114 0012 C5ED018A 		vstr.32	s17, [r5, #4]
 5115              		.loc 1 1226 0
 5116 0016 8046     		mov	r8, r0
 5117              		.loc 1 1228 0
 5118 0018 C5ED028A 		vstr.32	s17, [r5, #8]
 5119              		.loc 1 1229 0
 5120 001c 2F60     		str	r7, [r5]
 5121              		.loc 1 1230 0
 5122 001e 85ED040A 		vstr.32	s0, [r5, #16]
 5123              		.loc 1 1233 0
 5124 0022 FFF7FEFF 		bl	timeout_get_timeout_msec
 5125              	.LVL385:
 5126 0026 8346     		mov	fp, r0
 5127              	.LVL386:
 5128              		.loc 1 1234 0
 5129 0028 FFF7FEFF 		bl	timeout_get_brake_current
 5130              	.LVL387:
ARM GAS  /var/tmp//ccoqQk7W.s 			page 91


 5131 002c B0EE408A 		vmov.f32	s16, s0
 5132              	.LVL388:
 5133              		.loc 1 1235 0
 5134 0030 FFF7FEFF 		bl	timeout_reset
 5135              	.LVL389:
 5136              		.loc 1 1236 0
 5137 0034 B0EE680A 		vmov.f32	s0, s17
 5138 0038 4EF66020 		movw	r0, #60000
 5139 003c FFF7FEFF 		bl	timeout_configure
 5140              	.LVL390:
 5141              		.loc 1 1238 0
 5142 0040 FFF7FEFF 		bl	mc_interface_lock
 5143              	.LVL391:
 5144              	.LBB99:
 5145              		.loc 1 1241 0
 5146 0044 B845     		cmp	r8, r7
 5147 0046 10DD     		ble	.L452
 5148 0048 3C46     		mov	r4, r7
 5149              		.loc 1 1242 0
 5150 004a 4FF00109 		mov	r9, #1
 5151              		.loc 1 1247 0
 5152 004e 4CF25036 		movw	r6, #50000
 5153              	.LVL392:
 5154              	.L456:
 5155              		.loc 1 1242 0
 5156 0052 85F80C90 		strb	r9, [r5, #12]
 5157 0056 02E0     		b	.L453
 5158              	.L467:
 5159              		.loc 1 1250 0
 5160 0058 2B7B     		ldrb	r3, [r5, #12]	@ zero_extendqisi2
 5161 005a 002B     		cmp	r3, #0
 5162 005c 42D0     		beq	.L466
 5163              	.L453:
 5164              		.loc 1 1246 0
 5165 005e 0134     		adds	r4, r4, #1
 5166              	.LVL393:
 5167              		.loc 1 1245 0
 5168 0060 0120     		movs	r0, #1
 5169 0062 FFF7FEFF 		bl	chThdSleep
 5170              	.LVL394:
 5171              		.loc 1 1247 0
 5172 0066 B442     		cmp	r4, r6
 5173 0068 F6DD     		ble	.L467
 5174              	.LVL395:
 5175              	.L452:
 5176              	.LBE99:
 5177              		.loc 1 1258 0
 5178 006a B0EE480A 		vmov.f32	s0, s16
 5179 006e 5846     		mov	r0, fp
 5180 0070 FFF7FEFF 		bl	timeout_configure
 5181              	.LVL396:
 5182              		.loc 1 1260 0
 5183 0074 FFF7FEFF 		bl	mc_interface_unlock
 5184              	.LVL397:
 5185              		.loc 1 1264 0
 5186 0078 1E4B     		ldr	r3, .L468+8
 5187              		.loc 1 1262 0
ARM GAS  /var/tmp//ccoqQk7W.s 			page 92


 5188 007a D5ED014A 		vldr.32	s9, [r5, #4]
 5189 007e D5ED006A 		vldr.32	s13, [r5]	@ int
 5190              		.loc 1 1263 0
 5191 0082 95ED025A 		vldr.32	s10, [r5, #8]
 5192 0086 95ED007A 		vldr.32	s14, [r5]	@ int
 5193              		.loc 1 1264 0
 5194 008a D3ED0B7A 		vldr.32	s15, [r3, #44]	@ int
 5195 008e 95ED046A 		vldr.32	s12, [r5, #16]
 5196 0092 9FED194A 		vldr.32	s8, .L468+12
 5197 0096 DFED195A 		vldr.32	s11, .L468+16
 5198 009a F8EE677A 		vcvt.f32.u32	s15, s15
 5199              		.loc 1 1262 0
 5200 009e F8EEE66A 		vcvt.f32.s32	s13, s13
 5201              		.loc 1 1264 0
 5202 00a2 67EE867A 		vmul.f32	s15, s15, s12
 5203              		.loc 1 1263 0
 5204 00a6 B8EEC77A 		vcvt.f32.s32	s14, s14
 5205              		.loc 1 1264 0
 5206 00aa 87EE846A 		vdiv.f32	s12, s15, s8
 5207              		.loc 1 1262 0
 5208 00ae 84EEA64A 		vdiv.f32	s8, s9, s13
 5209              	.LVL398:
 5210              		.loc 1 1263 0
 5211 00b2 C5EE077A 		vdiv.f32	s15, s10, s14
 5212              	.LVL399:
 5213              		.loc 1 1264 0
 5214 00b6 36EE656A 		vsub.f32	s12, s12, s11
 5215              	.LVL400:
 5216              		.loc 1 1267 0
 5217 00ba BAF1000F 		cmp	r10, #0
 5218 00be 01D0     		beq	.L455
 5219              		.loc 1 1268 0
 5220 00c0 8AED004A 		vstr.32	s8, [r10]
 5221              	.L455:
 5222              		.loc 1 1271 0
 5223 00c4 27EE866A 		vmul.f32	s12, s15, s12
 5224              	.LVL401:
 5225              		.loc 1 1272 0
 5226 00c8 BDEC028B 		vldm	sp!, {d8}
 5227              		.cfi_remember_state
 5228              		.cfi_restore 80
 5229              		.cfi_restore 81
 5230              		.cfi_def_cfa_offset 40
 5231              	.LVL402:
 5232              		.loc 1 1271 0
 5233 00cc 86EE040A 		vdiv.f32	s0, s12, s8
 5234 00d0 9FED0B7A 		vldr.32	s14, .L468+20
 5235 00d4 DFED0B7A 		vldr.32	s15, .L468+24
 5236              	.LVL403:
 5237 00d8 20EE070A 		vmul.f32	s0, s0, s14
 5238 00dc 20EE270A 		vmul.f32	s0, s0, s15
 5239              		.loc 1 1272 0
 5240 00e0 BDE8F88F 		pop	{r3, r4, r5, r6, r7, r8, r9, r10, fp, pc}
 5241              	.LVL404:
 5242              	.L466:
 5243              		.cfi_restore_state
 5244              	.LBB100:
ARM GAS  /var/tmp//ccoqQk7W.s 			page 93


 5245              		.loc 1 1241 0
 5246 00e4 0137     		adds	r7, r7, #1
 5247              	.LVL405:
 5248 00e6 B845     		cmp	r8, r7
 5249 00e8 B3D1     		bne	.L456
 5250 00ea BEE7     		b	.L452
 5251              	.L469:
 5252              		.align	2
 5253              	.L468:
 5254 00ec 00000000 		.word	.LANCHOR17
 5255 00f0 00000000 		.word	0
 5256 00f4 00000140 		.word	1073807360
 5257 00f8 A037204D 		.word	1293957024
 5258 00fc 57BDBF34 		.word	884981079
 5259 0100 00247449 		.word	1232348160
 5260 0104 ABAA2A3F 		.word	1059760811
 5261              	.LBE100:
 5262              		.cfi_endproc
 5263              	.LFE298:
 5264              		.size	mcpwm_foc_measure_inductance, .-mcpwm_foc_measure_inductance
 5265              		.section	.text.mcpwm_foc_measure_res_ind,"ax",%progbits
 5266              		.align	1
 5267              		.p2align 4,,15
 5268              		.global	mcpwm_foc_measure_res_ind
 5269              		.syntax unified
 5270              		.thumb
 5271              		.thumb_func
 5272              		.fpu fpv4-sp-d16
 5273              		.type	mcpwm_foc_measure_res_ind, %function
 5274              	mcpwm_foc_measure_res_ind:
 5275              	.LFB299:
 5276              		.loc 1 1286 0
 5277              		.cfi_startproc
 5278              		@ args = 0, pretend = 0, frame = 8
 5279              		@ frame_needed = 0, uses_anonymous_args = 0
 5280              	.LVL406:
 5281 0000 2DE9F043 		push	{r4, r5, r6, r7, r8, r9, lr}
 5282              		.cfi_def_cfa_offset 28
 5283              		.cfi_offset 4, -28
 5284              		.cfi_offset 5, -24
 5285              		.cfi_offset 6, -20
 5286              		.cfi_offset 7, -16
 5287              		.cfi_offset 8, -12
 5288              		.cfi_offset 9, -8
 5289              		.cfi_offset 14, -4
 5290              		.loc 1 1287 0
 5291 0004 734D     		ldr	r5, .L487
 5292              		.loc 1 1291 0
 5293 0006 744A     		ldr	r2, .L487+4
 5294              		.loc 1 1287 0
 5295 0008 2B68     		ldr	r3, [r5]
 5296              		.loc 1 1296 0
 5297 000a 744C     		ldr	r4, .L487+8
 5298              		.loc 1 1287 0
 5299 000c D3F8AC90 		ldr	r9, [r3, #172]	@ float
 5300              	.LVL407:
 5301              		.loc 1 1292 0
ARM GAS  /var/tmp//ccoqQk7W.s 			page 94


 5302 0010 734E     		ldr	r6, .L487+12
 5303              		.loc 1 1288 0
 5304 0012 D3F8A480 		ldr	r8, [r3, #164]	@ float
 5305              	.LVL408:
 5306              		.loc 1 1289 0
 5307 0016 D3F8A870 		ldr	r7, [r3, #168]	@ float
 5308              	.LVL409:
 5309              		.loc 1 1286 0
 5310 001a 2DED048B 		vpush.64	{d8, d9}
 5311              		.cfi_def_cfa_offset 44
 5312              		.cfi_offset 80, -44
 5313              		.cfi_offset 81, -40
 5314              		.cfi_offset 82, -36
 5315              		.cfi_offset 83, -32
 5316              		.loc 1 1291 0
 5317 001e C3F8AC20 		str	r2, [r3, #172]	@ float
 5318              		.loc 1 1293 0
 5319 0022 704A     		ldr	r2, .L487+16
 5320              		.loc 1 1292 0
 5321 0024 C3F8A460 		str	r6, [r3, #164]	@ float
 5322              		.loc 1 1293 0
 5323 0028 C3F8A820 		str	r2, [r3, #168]	@ float
 5324              		.loc 1 1295 0
 5325 002c D3ED2B7A 		vldr.32	s15, [r3, #172]
 5326              		.loc 1 1296 0
 5327 0030 D4F800E0 		ldr	lr, [r4]
 5328 0034 6C4A     		ldr	r2, .L487+20
 5329              		.loc 1 1295 0
 5330 0036 6D4E     		ldr	r6, .L487+24
 5331              		.loc 1 1296 0
 5332 0038 4EF0020E 		orr	lr, lr, #2
 5333 003c C4F800E0 		str	lr, [r4]
 5334 0040 D2F800E0 		ldr	lr, [r2]
 5335              		.loc 1 1295 0
 5336 0044 FDEEE77A 		vcvt.s32.f32	s15, s15
 5337              		.loc 1 1296 0
 5338 0048 4EF0020E 		orr	lr, lr, #2
 5339 004c C2F800E0 		str	lr, [r2]
 5340              		.loc 1 1295 0
 5341 0050 17EE90EA 		vmov	lr, s15	@ int
 5342              		.loc 1 1296 0
 5343 0054 4FF0020C 		mov	ip, #2
 5344              		.loc 1 1295 0
 5345 0058 96FBFEF6 		sdiv	r6, r6, lr
 5346              	.LVL410:
 5347              		.loc 1 1296 0
 5348 005c E662     		str	r6, [r4, #44]
 5349 005e C2F834C0 		str	ip, [r2, #52]
 5350 0062 2668     		ldr	r6, [r4]
 5351              	.LVL411:
 5352 0064 26F00206 		bic	r6, r6, #2
 5353 0068 2660     		str	r6, [r4]
 5354 006a 1468     		ldr	r4, [r2]
 5355 006c 24F00204 		bic	r4, r4, #2
 5356 0070 1460     		str	r4, [r2]
 5357              	.LVL412:
 5358              	.LBB101:
ARM GAS  /var/tmp//ccoqQk7W.s 			page 95


 5359              		.loc 1 1300 0
 5360 0072 D3ED017A 		vldr.32	s15, [r3, #4]
 5361 0076 B6EE007A 		vmov.f32	s14, #5.0e-1
 5362 007a 67EE877A 		vmul.f32	s15, s15, s14
 5363 007e B0EE008A 		vmov.f32	s16, #2.0e+0
 5364 0082 F4EEC87A 		vcmpe.f32	s15, s16
 5365 0086 F1EE10FA 		vmrs	APSR_nzcv, FPSCR
 5366              	.LBE101:
 5367              		.loc 1 1286 0
 5368 008a 83B0     		sub	sp, sp, #12
 5369              		.cfi_def_cfa_offset 56
 5370              		.loc 1 1286 0
 5371 008c 0446     		mov	r4, r0
 5372 008e 0E46     		mov	r6, r1
 5373              	.LBB102:
 5374              		.loc 1 1300 0
 5375 0090 26DD     		ble	.L480
 5376              		.loc 1 1303 0
 5377 0092 F7EE008A 		vmov.f32	s17, #1.0e+0
 5378              		.loc 1 1300 0
 5379 0096 B7EE089A 		vmov.f32	s18, #1.5e+0
 5380 009a 0BE0     		b	.L474
 5381              	.LVL413:
 5382              	.L486:
 5383              		.loc 1 1300 0 is_stmt 0 discriminator 2
 5384 009c 2B68     		ldr	r3, [r5]
 5385 009e D3ED017A 		vldr.32	s15, [r3, #4]
 5386 00a2 28EE098A 		vmul.f32	s16, s16, s18
 5387              	.LVL414:
 5388 00a6 67EE877A 		vmul.f32	s15, s15, s14
 5389 00aa F4EEC87A 		vcmpe.f32	s15, s16
 5390 00ae F1EE10FA 		vmrs	APSR_nzcv, FPSCR
 5391 00b2 15DD     		ble	.L480
 5392              	.LVL415:
 5393              	.L474:
 5394              		.loc 1 1301 0 is_stmt 1
 5395 00b4 1420     		movs	r0, #20
 5396 00b6 B0EE480A 		vmov.f32	s0, s16
 5397 00ba FFF7FEFF 		bl	mcpwm_foc_measure_resistance
 5398              	.LVL416:
 5399              		.loc 1 1303 0
 5400 00be 88EE800A 		vdiv.f32	s0, s17, s0
 5401              	.LVL417:
 5402              		.loc 1 1300 0
 5403 00c2 B6EE007A 		vmov.f32	s14, #5.0e-1
 5404              		.loc 1 1303 0
 5405 00c6 B4EEC80A 		vcmpe.f32	s0, s16
 5406 00ca F1EE10FA 		vmrs	APSR_nzcv, FPSCR
 5407 00ce E5D5     		bpl	.L486
 5408              	.LVL418:
 5409              	.LBE102:
 5410              		.loc 1 1309 0
 5411 00d0 DFED477A 		vldr.32	s15, .L487+28
 5412 00d4 B4EEE78A 		vcmpe.f32	s16, s15
 5413 00d8 F1EE10FA 		vmrs	APSR_nzcv, FPSCR
 5414 00dc 06D5     		bpl	.L475
 5415 00de 2B68     		ldr	r3, [r5]
ARM GAS  /var/tmp//ccoqQk7W.s 			page 96


 5416              	.LVL419:
 5417              	.L480:
 5418              		.loc 1 1310 0
 5419 00e0 93ED018A 		vldr.32	s16, [r3, #4]
 5420 00e4 F6EE007A 		vmov.f32	s15, #5.0e-1
 5421 00e8 28EE278A 		vmul.f32	s16, s16, s15
 5422              	.LVL420:
 5423              	.L475:
 5424              		.loc 1 1313 0
 5425 00ec C820     		movs	r0, #200
 5426 00ee B0EE480A 		vmov.f32	s0, s16
 5427 00f2 FFF7FEFF 		bl	mcpwm_foc_measure_resistance
 5428              	.LVL421:
 5429              		.loc 1 1315 0
 5430 00f6 2B68     		ldr	r3, [r5]
 5431              		.loc 1 1317 0
 5432 00f8 384A     		ldr	r2, .L487+8
 5433              		.loc 1 1315 0
 5434 00fa 3E49     		ldr	r1, .L487+32
 5435              		.loc 1 1313 0
 5436 00fc 84ED000A 		vstr.32	s0, [r4]
 5437              		.loc 1 1315 0
 5438 0100 C3F8AC10 		str	r1, [r3, #172]	@ float
 5439              		.loc 1 1316 0
 5440 0104 D3ED2B7A 		vldr.32	s15, [r3, #172]
 5441              		.loc 1 1317 0
 5442 0108 1168     		ldr	r1, [r2]
 5443 010a 374B     		ldr	r3, .L487+20
 5444              		.loc 1 1316 0
 5445 010c 3748     		ldr	r0, .L487+24
 5446              	.LBB103:
 5447              		.loc 1 1320 0
 5448 010e DFED3A8A 		vldr.32	s17, .L487+36
 5449              	.LBE103:
 5450              		.loc 1 1317 0
 5451 0112 41F00201 		orr	r1, r1, #2
 5452 0116 1160     		str	r1, [r2]
 5453 0118 1968     		ldr	r1, [r3]
 5454              		.loc 1 1316 0
 5455 011a FDEEE77A 		vcvt.s32.f32	s15, s15
 5456              		.loc 1 1317 0
 5457 011e 41F00201 		orr	r1, r1, #2
 5458 0122 1960     		str	r1, [r3]
 5459              		.loc 1 1316 0
 5460 0124 17EE901A 		vmov	r1, s15	@ int
 5461              		.loc 1 1317 0
 5462 0128 0224     		movs	r4, #2
 5463              	.LVL422:
 5464              		.loc 1 1316 0
 5465 012a 90FBF1F1 		sdiv	r1, r0, r1
 5466              	.LVL423:
 5467              		.loc 1 1317 0
 5468 012e D162     		str	r1, [r2, #44]
 5469 0130 5C63     		str	r4, [r3, #52]
 5470 0132 1168     		ldr	r1, [r2]
 5471              	.LVL424:
 5472 0134 21F00201 		bic	r1, r1, #2
ARM GAS  /var/tmp//ccoqQk7W.s 			page 97


 5473 0138 1160     		str	r1, [r2]
 5474 013a 1A68     		ldr	r2, [r3]
 5475 013c 22F00202 		bic	r2, r2, #2
 5476 0140 1A60     		str	r2, [r3]
 5477              	.LVL425:
 5478 0142 0824     		movs	r4, #8
 5479              	.LBB105:
 5480              		.loc 1 1320 0
 5481 0144 B7EE089A 		vmov.f32	s18, #1.5e+0
 5482 0148 01E0     		b	.L478
 5483              	.LVL426:
 5484              	.L481:
 5485 014a F0EE678A 		vmov.f32	s17, s15
 5486              	.LVL427:
 5487              	.L478:
 5488              	.LBB104:
 5489              		.loc 1 1322 0
 5490 014e 01A9     		add	r1, sp, #4
 5491 0150 1420     		movs	r0, #20
 5492 0152 B0EE680A 		vmov.f32	s0, s17
 5493 0156 FFF7FEFF 		bl	mcpwm_foc_measure_inductance
 5494              	.LVL428:
 5495              		.loc 1 1325 0
 5496 015a DDED017A 		vldr.32	s15, [sp, #4]
 5497 015e B4EEE78A 		vcmpe.f32	s16, s15
 5498 0162 F1EE10FA 		vmrs	APSR_nzcv, FPSCR
 5499 0166 03D9     		bls	.L479
 5500              	.LBE104:
 5501              		.loc 1 1320 0
 5502 0168 013C     		subs	r4, r4, #1
 5503 016a 68EE897A 		vmul.f32	s15, s17, s18
 5504              	.LVL429:
 5505 016e ECD1     		bne	.L481
 5506              	.LVL430:
 5507              	.L479:
 5508              	.LBE105:
 5509              		.loc 1 1330 0
 5510 0170 B0EE680A 		vmov.f32	s0, s17
 5511 0174 0021     		movs	r1, #0
 5512 0176 C820     		movs	r0, #200
 5513 0178 FFF7FEFF 		bl	mcpwm_foc_measure_inductance
 5514              	.LVL431:
 5515              		.loc 1 1332 0
 5516 017c 2B68     		ldr	r3, [r5]
 5517              		.loc 1 1337 0
 5518 017e 174A     		ldr	r2, .L487+8
 5519              		.loc 1 1330 0
 5520 0180 86ED000A 		vstr.32	s0, [r6]
 5521              		.loc 1 1332 0
 5522 0184 C3F8AC90 		str	r9, [r3, #172]	@ float
 5523              		.loc 1 1333 0
 5524 0188 C3F8A480 		str	r8, [r3, #164]	@ float
 5525              		.loc 1 1334 0
 5526 018c C3F8A870 		str	r7, [r3, #168]	@ float
 5527              		.loc 1 1336 0
 5528 0190 D3ED2B7A 		vldr.32	s15, [r3, #172]
 5529              		.loc 1 1337 0
ARM GAS  /var/tmp//ccoqQk7W.s 			page 98


 5530 0194 1168     		ldr	r1, [r2]
 5531 0196 144B     		ldr	r3, .L487+20
 5532              		.loc 1 1336 0
 5533 0198 1448     		ldr	r0, .L487+24
 5534              		.loc 1 1337 0
 5535 019a 41F00201 		orr	r1, r1, #2
 5536 019e 1160     		str	r1, [r2]
 5537 01a0 1968     		ldr	r1, [r3]
 5538 01a2 0224     		movs	r4, #2
 5539              		.loc 1 1336 0
 5540 01a4 FDEEE77A 		vcvt.s32.f32	s15, s15
 5541              		.loc 1 1337 0
 5542 01a8 2143     		orrs	r1, r1, r4
 5543 01aa 1960     		str	r1, [r3]
 5544              		.loc 1 1336 0
 5545 01ac 17EE901A 		vmov	r1, s15	@ int
 5546 01b0 90FBF1F1 		sdiv	r1, r0, r1
 5547              	.LVL432:
 5548              		.loc 1 1337 0
 5549 01b4 D162     		str	r1, [r2, #44]
 5550 01b6 5C63     		str	r4, [r3, #52]
 5551 01b8 1168     		ldr	r1, [r2]
 5552              	.LVL433:
 5553 01ba 21F00201 		bic	r1, r1, #2
 5554 01be 1160     		str	r1, [r2]
 5555 01c0 1A68     		ldr	r2, [r3]
 5556              		.loc 1 1340 0
 5557 01c2 0120     		movs	r0, #1
 5558              	.LVL434:
 5559              		.loc 1 1337 0
 5560 01c4 22F00202 		bic	r2, r2, #2
 5561 01c8 1A60     		str	r2, [r3]
 5562              		.loc 1 1340 0
 5563 01ca 03B0     		add	sp, sp, #12
 5564              		.cfi_def_cfa_offset 44
 5565              		@ sp needed
 5566 01cc BDEC048B 		vldm	sp!, {d8-d9}
 5567              		.cfi_restore 82
 5568              		.cfi_restore 83
 5569              		.cfi_restore 80
 5570              		.cfi_restore 81
 5571              		.cfi_def_cfa_offset 28
 5572              	.LVL435:
 5573 01d0 BDE8F083 		pop	{r4, r5, r6, r7, r8, r9, pc}
 5574              	.LVL436:
 5575              	.L488:
 5576              		.align	2
 5577              	.L487:
 5578 01d4 00000000 		.word	.LANCHOR0
 5579 01d8 00401C46 		.word	1176256512
 5580 01dc 00000140 		.word	1073807360
 5581 01e0 0AD7233C 		.word	1008981770
 5582 01e4 00002041 		.word	1092616192
 5583 01e8 00040140 		.word	1073808384
 5584 01ec 007A030A 		.word	168000000
 5585 01f0 0AD7233C 		.word	1008981770
 5586 01f4 00803B45 		.word	1161527296
ARM GAS  /var/tmp//ccoqQk7W.s 			page 99


 5587 01f8 0AD7A33C 		.word	1017370378
 5588              		.cfi_endproc
 5589              	.LFE299:
 5590              		.size	mcpwm_foc_measure_res_ind, .-mcpwm_foc_measure_res_ind
 5591              		.section	.text.mcpwm_foc_hall_detect,"ax",%progbits
 5592              		.align	1
 5593              		.p2align 4,,15
 5594              		.global	mcpwm_foc_hall_detect
 5595              		.syntax unified
 5596              		.thumb
 5597              		.thumb_func
 5598              		.fpu fpv4-sp-d16
 5599              		.type	mcpwm_foc_hall_detect, %function
 5600              	mcpwm_foc_hall_detect:
 5601              	.LFB300:
 5602              		.loc 1 1355 0
 5603              		.cfi_startproc
 5604              		@ args = 0, pretend = 0, frame = 112
 5605              		@ frame_needed = 0, uses_anonymous_args = 0
 5606              	.LVL437:
 5607 0000 2DE9F04F 		push	{r4, r5, r6, r7, r8, r9, r10, fp, lr}
 5608              		.cfi_def_cfa_offset 36
 5609              		.cfi_offset 4, -36
 5610              		.cfi_offset 5, -32
 5611              		.cfi_offset 6, -28
 5612              		.cfi_offset 7, -24
 5613              		.cfi_offset 8, -20
 5614              		.cfi_offset 9, -16
 5615              		.cfi_offset 10, -12
 5616              		.cfi_offset 11, -8
 5617              		.cfi_offset 14, -4
 5618 0004 2DED048B 		vpush.64	{d8, d9}
 5619              		.cfi_def_cfa_offset 52
 5620              		.cfi_offset 80, -52
 5621              		.cfi_offset 81, -48
 5622              		.cfi_offset 82, -44
 5623              		.cfi_offset 83, -40
 5624 0008 9DB0     		sub	sp, sp, #116
 5625              		.cfi_def_cfa_offset 168
 5626              		.loc 1 1355 0
 5627 000a B0EE408A 		vmov.f32	s16, s0
 5628 000e 0190     		str	r0, [sp, #4]
 5629              		.loc 1 1356 0
 5630 0010 FFF7FEFF 		bl	mc_interface_lock
 5631              	.LVL438:
 5632              		.loc 1 1358 0
 5633 0014 8649     		ldr	r1, .L507
 5634              		.loc 1 1360 0
 5635 0016 DFED879A 		vldr.32	s19, .L507+4
 5636              		.loc 1 1359 0
 5637 001a DFF838B2 		ldr	fp, .L507+36
 5638              		.loc 1 1360 0
 5639 001e DFF838A2 		ldr	r10, .L507+40
 5640              		.loc 1 1362 0
 5641 0022 854F     		ldr	r7, .L507+8
 5642              		.loc 1 1371 0
 5643 0024 854C     		ldr	r4, .L507+12
ARM GAS  /var/tmp//ccoqQk7W.s 			page 100


 5644              	.LBB106:
 5645              	.LBB107:
 5646              	.LBB108:
 5647              		.loc 1 1384 0
 5648 0026 9FED869A 		vldr.32	s18, .L507+16
 5649 002a DFED868A 		vldr.32	s17, .L507+20
 5650              	.LBE108:
 5651              	.LBE107:
 5652              	.LBE106:
 5653              		.loc 1 1358 0
 5654 002e 0122     		movs	r2, #1
 5655 0030 0A70     		strb	r2, [r1]
 5656              		.loc 1 1361 0
 5657 0032 854A     		ldr	r2, .L507+24
 5658              		.loc 1 1359 0
 5659 0034 8BED008A 		vstr.32	s16, [fp]
 5660              		.loc 1 1361 0
 5661 0038 0223     		movs	r3, #2
 5662              		.loc 1 1360 0
 5663 003a CAED009A 		vstr.32	s19, [r10]
 5664              		.loc 1 1361 0
 5665 003e 1370     		strb	r3, [r2]
 5666              		.loc 1 1362 0
 5667 0040 3B70     		strb	r3, [r7]
 5668              		.loc 1 1365 0
 5669 0042 FFF7FEFF 		bl	timeout_get_timeout_msec
 5670              	.LVL439:
 5671 0046 0090     		str	r0, [sp]
 5672              	.LVL440:
 5673              		.loc 1 1366 0
 5674 0048 FFF7FEFF 		bl	timeout_get_brake_current
 5675              	.LVL441:
 5676 004c B0EE408A 		vmov.f32	s16, s0
 5677              	.LVL442:
 5678              		.loc 1 1367 0
 5679 0050 FFF7FEFF 		bl	timeout_reset
 5680              	.LVL443:
 5681              		.loc 1 1368 0
 5682 0054 B0EE690A 		vmov.f32	s0, s19
 5683 0058 4EF66020 		movw	r0, #60000
 5684 005c FFF7FEFF 		bl	timeout_configure
 5685              	.LVL444:
 5686              		.loc 1 1372 0
 5687 0060 42F21070 		movw	r0, #10000
 5688              		.loc 1 1371 0
 5689 0064 C4ED009A 		vstr.32	s19, [r4]
 5690              		.loc 1 1378 0
 5691 0068 0CAE     		add	r6, sp, #48
 5692              		.loc 1 1372 0
 5693 006a FFF7FEFF 		bl	chThdSleep
 5694              	.LVL445:
 5695              		.loc 1 1377 0
 5696 006e 2022     		movs	r2, #32
 5697 0070 0021     		movs	r1, #0
 5698 0072 04A8     		add	r0, sp, #16
 5699 0074 FFF7FEFF 		bl	memset
 5700              	.LVL446:
ARM GAS  /var/tmp//ccoqQk7W.s 			page 101


 5701              		.loc 1 1378 0
 5702 0078 2022     		movs	r2, #32
 5703 007a 0021     		movs	r1, #0
 5704 007c 3046     		mov	r0, r6
 5705 007e FFF7FEFF 		bl	memset
 5706              	.LVL447:
 5707              		.loc 1 1379 0
 5708 0082 2022     		movs	r2, #32
 5709 0084 0021     		movs	r1, #0
 5710 0086 14A8     		add	r0, sp, #80
 5711 0088 FFF7FEFF 		bl	memset
 5712              	.LVL448:
 5713 008c 0325     		movs	r5, #3
 5714              	.LVL449:
 5715              	.L490:
 5716              		.loc 1 1355 0
 5717 008e 4FF00009 		mov	r9, #0
 5718              	.LVL450:
 5719              	.L491:
 5720              	.LBB113:
 5721              	.LBB112:
 5722              	.LBB109:
 5723              		.loc 1 1384 0 discriminator 3
 5724 0092 07EE909A 		vmov	s15, r9	@ int
 5725 0096 F8EEE77A 		vcvt.f32.s32	s15, s15
 5726              		.loc 1 1385 0 discriminator 3
 5727 009a 3220     		movs	r0, #50
 5728              		.loc 1 1384 0 discriminator 3
 5729 009c 67EE897A 		vmul.f32	s15, s15, s18
 5730              	.LBE109:
 5731              		.loc 1 1383 0 discriminator 3
 5732 00a0 09F10109 		add	r9, r9, #1
 5733              	.LVL451:
 5734              	.LBB110:
 5735              		.loc 1 1384 0 discriminator 3
 5736 00a4 87EEA87A 		vdiv.f32	s14, s15, s17
 5737 00a8 84ED007A 		vstr.32	s14, [r4]
 5738              		.loc 1 1385 0 discriminator 3
 5739 00ac FFF7FEFF 		bl	chThdSleep
 5740              	.LVL452:
 5741              		.loc 1 1387 0 discriminator 3
 5742 00b0 FFF7FEFF 		bl	read_hall
 5743              	.LVL453:
 5744              		.loc 1 1389 0 discriminator 3
 5745 00b4 94ED000A 		vldr.32	s0, [r4]
 5746              		.loc 1 1387 0 discriminator 3
 5747 00b8 8046     		mov	r8, r0
 5748              	.LVL454:
 5749              		.loc 1 1389 0 discriminator 3
 5750 00ba 03A9     		add	r1, sp, #12
 5751 00bc 02A8     		add	r0, sp, #8
 5752              	.LVL455:
 5753 00be FFF7FEFF 		bl	sincosf
 5754              	.LVL456:
 5755              		.loc 1 1390 0 discriminator 3
 5756 00c2 1CAB     		add	r3, sp, #112
 5757 00c4 03EB8800 		add	r0, r3, r8, lsl #2
ARM GAS  /var/tmp//ccoqQk7W.s 			page 102


 5758 00c8 10ED186A 		vldr.32	s12, [r0, #-96]
 5759              		.loc 1 1391 0 discriminator 3
 5760 00cc 10ED107A 		vldr.32	s14, [r0, #-64]
 5761              		.loc 1 1390 0 discriminator 3
 5762 00d0 DDED026A 		vldr.32	s13, [sp, #8]
 5763              		.loc 1 1391 0 discriminator 3
 5764 00d4 DDED037A 		vldr.32	s15, [sp, #12]
 5765              		.loc 1 1392 0 discriminator 3
 5766 00d8 50F8203C 		ldr	r3, [r0, #-32]
 5767              		.loc 1 1390 0 discriminator 3
 5768 00dc 76EE266A 		vadd.f32	s13, s12, s13
 5769              		.loc 1 1391 0 discriminator 3
 5770 00e0 77EE277A 		vadd.f32	s15, s14, s15
 5771              		.loc 1 1392 0 discriminator 3
 5772 00e4 0133     		adds	r3, r3, #1
 5773              	.LBE110:
 5774              		.loc 1 1383 0 discriminator 3
 5775 00e6 B9F5B47F 		cmp	r9, #360
 5776              	.LBB111:
 5777              		.loc 1 1390 0 discriminator 3
 5778 00ea 40ED186A 		vstr.32	s13, [r0, #-96]
 5779              		.loc 1 1391 0 discriminator 3
 5780 00ee 40ED107A 		vstr.32	s15, [r0, #-64]
 5781              		.loc 1 1392 0 discriminator 3
 5782 00f2 40F8203C 		str	r3, [r0, #-32]
 5783              	.LBE111:
 5784              		.loc 1 1383 0 discriminator 3
 5785 00f6 CCD1     		bne	.L491
 5786              	.LVL457:
 5787              	.LBE112:
 5788              		.loc 1 1382 0 discriminator 2
 5789 00f8 013D     		subs	r5, r5, #1
 5790              	.LVL458:
 5791 00fa C8D1     		bne	.L490
 5792              	.LBE113:
 5793              	.LBB114:
 5794              	.LBB115:
 5795              	.LBB116:
 5796              		.loc 1 1399 0
 5797 00fc 9FED509A 		vldr.32	s18, .L507+16
 5798 0100 DFED508A 		vldr.32	s17, .L507+20
 5799              	.LBE116:
 5800              	.LBE115:
 5801              	.LBE114:
 5802              	.LBB121:
 5803 0104 0325     		movs	r5, #3
 5804              	.LVL459:
 5805              	.L494:
 5806              	.LBE121:
 5807              		.loc 1 1379 0
 5808 0106 4FF4B479 		mov	r9, #360
 5809              	.LVL460:
 5810              	.L493:
 5811              	.LBB122:
 5812              	.LBB120:
 5813              	.LBB117:
 5814              		.loc 1 1399 0 discriminator 3
ARM GAS  /var/tmp//ccoqQk7W.s 			page 103


 5815 010a 07EE909A 		vmov	s15, r9	@ int
 5816 010e F8EEE77A 		vcvt.f32.s32	s15, s15
 5817              		.loc 1 1400 0 discriminator 3
 5818 0112 3220     		movs	r0, #50
 5819              		.loc 1 1399 0 discriminator 3
 5820 0114 67EE897A 		vmul.f32	s15, s15, s18
 5821              	.LBE117:
 5822              		.loc 1 1398 0 discriminator 3
 5823 0118 09F1FF39 		add	r9, r9, #-1
 5824              	.LVL461:
 5825              	.LBB118:
 5826              		.loc 1 1399 0 discriminator 3
 5827 011c 87EEA87A 		vdiv.f32	s14, s15, s17
 5828 0120 84ED007A 		vstr.32	s14, [r4]
 5829              		.loc 1 1400 0 discriminator 3
 5830 0124 FFF7FEFF 		bl	chThdSleep
 5831              	.LVL462:
 5832              		.loc 1 1402 0 discriminator 3
 5833 0128 FFF7FEFF 		bl	read_hall
 5834              	.LVL463:
 5835              		.loc 1 1404 0 discriminator 3
 5836 012c 94ED000A 		vldr.32	s0, [r4]
 5837              		.loc 1 1402 0 discriminator 3
 5838 0130 8046     		mov	r8, r0
 5839              	.LVL464:
 5840              		.loc 1 1404 0 discriminator 3
 5841 0132 03A9     		add	r1, sp, #12
 5842 0134 02A8     		add	r0, sp, #8
 5843              	.LVL465:
 5844 0136 FFF7FEFF 		bl	sincosf
 5845              	.LVL466:
 5846              		.loc 1 1405 0 discriminator 3
 5847 013a 1CAB     		add	r3, sp, #112
 5848 013c 03EB8800 		add	r0, r3, r8, lsl #2
 5849 0140 10ED186A 		vldr.32	s12, [r0, #-96]
 5850              		.loc 1 1406 0 discriminator 3
 5851 0144 10ED107A 		vldr.32	s14, [r0, #-64]
 5852              		.loc 1 1405 0 discriminator 3
 5853 0148 DDED026A 		vldr.32	s13, [sp, #8]
 5854              		.loc 1 1406 0 discriminator 3
 5855 014c DDED037A 		vldr.32	s15, [sp, #12]
 5856              		.loc 1 1407 0 discriminator 3
 5857 0150 50F8203C 		ldr	r3, [r0, #-32]
 5858              		.loc 1 1405 0 discriminator 3
 5859 0154 76EE266A 		vadd.f32	s13, s12, s13
 5860              		.loc 1 1406 0 discriminator 3
 5861 0158 77EE277A 		vadd.f32	s15, s14, s15
 5862              		.loc 1 1407 0 discriminator 3
 5863 015c 0133     		adds	r3, r3, #1
 5864              	.LBE118:
 5865              		.loc 1 1398 0 discriminator 3
 5866 015e B9F1FF3F 		cmp	r9, #-1
 5867              	.LBB119:
 5868              		.loc 1 1405 0 discriminator 3
 5869 0162 40ED186A 		vstr.32	s13, [r0, #-96]
 5870              		.loc 1 1406 0 discriminator 3
 5871 0166 40ED107A 		vstr.32	s15, [r0, #-64]
ARM GAS  /var/tmp//ccoqQk7W.s 			page 104


 5872              		.loc 1 1407 0 discriminator 3
 5873 016a 40F8203C 		str	r3, [r0, #-32]
 5874              	.LBE119:
 5875              		.loc 1 1398 0 discriminator 3
 5876 016e CCD1     		bne	.L493
 5877              	.LVL467:
 5878              	.LBE120:
 5879              		.loc 1 1397 0 discriminator 2
 5880 0170 013D     		subs	r5, r5, #1
 5881              	.LVL468:
 5882 0172 C8D1     		bne	.L494
 5883              	.LBE122:
 5884              		.loc 1 1411 0
 5885 0174 0023     		movs	r3, #0
 5886 0176 CBF80030 		str	r3, [fp]	@ float
 5887              		.loc 1 1412 0
 5888 017a CAF80030 		str	r3, [r10]	@ float
 5889              		.loc 1 1413 0
 5890 017e 2C4B     		ldr	r3, .L507
 5891              	.LBB123:
 5892              	.LBB124:
 5893              		.loc 1 1424 0
 5894 0180 DFED309A 		vldr.32	s19, .L507+20
 5895              	.LBE124:
 5896              	.LBE123:
 5897              		.loc 1 1413 0
 5898 0184 1D70     		strb	r5, [r3]
 5899              		.loc 1 1414 0
 5900 0186 304B     		ldr	r3, .L507+24
 5901              	.LBB129:
 5902              	.LBB125:
 5903              		.loc 1 1424 0
 5904 0188 9FED2D9A 		vldr.32	s18, .L507+16
 5905              		.loc 1 1426 0
 5906 018c DFED2F8A 		vldr.32	s17, .L507+28
 5907              	.LBE125:
 5908              	.LBE129:
 5909              		.loc 1 1414 0
 5910 0190 0722     		movs	r2, #7
 5911 0192 1A70     		strb	r2, [r3]
 5912              		.loc 1 1415 0
 5913 0194 3D70     		strb	r5, [r7]
 5914              		.loc 1 1416 0
 5915 0196 FFF7FEFF 		bl	stop_pwm_hw
 5916              	.LVL469:
 5917              		.loc 1 1419 0
 5918 019a B0EE480A 		vmov.f32	s0, s16
 5919 019e 0098     		ldr	r0, [sp]
 5920              	.LBB130:
 5921              	.LBB126:
 5922              		.loc 1 1426 0
 5923 01a0 9FED2B8A 		vldr.32	s16, .L507+32
 5924              	.LVL470:
 5925              	.LBE126:
 5926              	.LBE130:
 5927              		.loc 1 1419 0
 5928 01a4 FFF7FEFF 		bl	timeout_configure
ARM GAS  /var/tmp//ccoqQk7W.s 			page 105


 5929              	.LVL471:
 5930 01a8 04AC     		add	r4, sp, #16
 5931 01aa 019F     		ldr	r7, [sp, #4]
 5932 01ac 0DF14C09 		add	r9, sp, #76
 5933              	.LVL472:
 5934 01b0 B046     		mov	r8, r6
 5935              	.LVL473:
 5936              	.LBB131:
 5937              		.loc 1 1428 0
 5938 01b2 4FF0FF0A 		mov	r10, #255
 5939 01b6 0AE0     		b	.L498
 5940              	.LVL474:
 5941              	.L496:
 5942 01b8 0434     		adds	r4, r4, #4
 5943              		.loc 1 1422 0
 5944 01ba B442     		cmp	r4, r6
 5945              		.loc 1 1428 0
 5946 01bc 87F800A0 		strb	r10, [r7]
 5947              		.loc 1 1429 0
 5948 01c0 05F10105 		add	r5, r5, #1
 5949              	.LVL475:
 5950 01c4 08F10408 		add	r8, r8, #4
 5951 01c8 07F10107 		add	r7, r7, #1
 5952              	.LVL476:
 5953              		.loc 1 1422 0
 5954 01cc 24D0     		beq	.L506
 5955              	.LVL477:
 5956              	.L498:
 5957              		.loc 1 1423 0
 5958 01ce 59F8043F 		ldr	r3, [r9, #4]!
 5959 01d2 1E2B     		cmp	r3, #30
 5960 01d4 F0DD     		ble	.L496
 5961              	.LBB127:
 5962              		.loc 1 1424 0
 5963 01d6 D8ED000A 		vldr.32	s1, [r8]
 5964 01da 94ED000A 		vldr.32	s0, [r4]
 5965 01de FFF7FEFF 		bl	atan2f
 5966              	.LVL478:
 5967 01e2 20EE290A 		vmul.f32	s0, s0, s19
 5968              		.loc 1 1425 0
 5969 01e6 03A8     		add	r0, sp, #12
 5970              		.loc 1 1424 0
 5971 01e8 C0EE097A 		vdiv.f32	s15, s0, s18
 5972 01ec 0434     		adds	r4, r4, #4
 5973 01ee 08F10408 		add	r8, r8, #4
 5974 01f2 0137     		adds	r7, r7, #1
 5975              	.LVL479:
 5976 01f4 CDED037A 		vstr.32	s15, [sp, #12]
 5977              		.loc 1 1425 0
 5978 01f8 FFF7FEFF 		bl	utils_norm_angle
 5979              	.LVL480:
 5980              		.loc 1 1426 0
 5981 01fc 9DED037A 		vldr.32	s14, [sp, #12]
 5982 0200 27EE287A 		vmul.f32	s14, s14, s17
 5983              	.LBE127:
 5984              		.loc 1 1422 0
 5985 0204 B442     		cmp	r4, r6
ARM GAS  /var/tmp//ccoqQk7W.s 			page 106


 5986              	.LBB128:
 5987              		.loc 1 1426 0
 5988 0206 C7EE087A 		vdiv.f32	s15, s14, s16
 5989 020a FCEEE77A 		vcvt.u32.f32	s15, s15
 5990 020e 17EE903A 		vmov	r3, s15	@ int
 5991 0212 07F8013C 		strb	r3, [r7, #-1]
 5992              	.LVL481:
 5993              	.LBE128:
 5994              		.loc 1 1422 0
 5995 0216 DAD1     		bne	.L498
 5996              	.L506:
 5997              	.LBE131:
 5998              		.loc 1 1433 0
 5999 0218 FFF7FEFF 		bl	mc_interface_unlock
 6000              	.LVL482:
 6001              		.loc 1 1436 0
 6002 021c A5F10200 		sub	r0, r5, #2
 6003 0220 B0FA80F0 		clz	r0, r0
 6004 0224 4009     		lsrs	r0, r0, #5
 6005 0226 1DB0     		add	sp, sp, #116
 6006              		.cfi_def_cfa_offset 52
 6007              	.LVL483:
 6008              		@ sp needed
 6009 0228 BDEC048B 		vldm	sp!, {d8-d9}
 6010              		.cfi_restore 82
 6011              		.cfi_restore 83
 6012              		.cfi_restore 80
 6013              		.cfi_restore 81
 6014              		.cfi_def_cfa_offset 36
 6015 022c BDE8F08F 		pop	{r4, r5, r6, r7, r8, r9, r10, fp, pc}
 6016              	.LVL484:
 6017              	.L508:
 6018              		.align	2
 6019              	.L507:
 6020 0230 00000000 		.word	.LANCHOR28
 6021 0234 00000000 		.word	0
 6022 0238 00000000 		.word	.LANCHOR7
 6023 023c 00000000 		.word	.LANCHOR29
 6024 0240 DB0F4940 		.word	1078530011
 6025 0244 00003443 		.word	1127481344
 6026 0248 00000000 		.word	.LANCHOR14
 6027 024c 00004843 		.word	1128792064
 6028 0250 0000B443 		.word	1135869952
 6029 0254 00000000 		.word	.LANCHOR31
 6030 0258 00000000 		.word	.LANCHOR22
 6031              		.cfi_endproc
 6032              	.LFE300:
 6033              		.size	mcpwm_foc_hall_detect, .-mcpwm_foc_hall_detect
 6034              		.section	.text.mcpwm_foc_print_state,"ax",%progbits
 6035              		.align	1
 6036              		.p2align 4,,15
 6037              		.global	mcpwm_foc_print_state
 6038              		.syntax unified
 6039              		.thumb
 6040              		.thumb_func
 6041              		.fpu fpv4-sp-d16
 6042              		.type	mcpwm_foc_print_state, %function
ARM GAS  /var/tmp//ccoqQk7W.s 			page 107


 6043              	mcpwm_foc_print_state:
 6044              	.LFB301:
 6045              		.loc 1 1438 0
 6046              		.cfi_startproc
 6047              		@ args = 0, pretend = 0, frame = 0
 6048              		@ frame_needed = 0, uses_anonymous_args = 0
 6049 0000 10B5     		push	{r4, lr}
 6050              		.cfi_def_cfa_offset 8
 6051              		.cfi_offset 4, -8
 6052              		.cfi_offset 14, -4
 6053              		.loc 1 1439 0
 6054 0002 4A4C     		ldr	r4, .L511
 6055 0004 606B     		ldr	r0, [r4, #52]	@ float
 6056 0006 FFF7FEFF 		bl	__aeabi_f2d
 6057              	.LVL485:
 6058 000a 0246     		mov	r2, r0
 6059 000c 0B46     		mov	r3, r1
 6060 000e 4848     		ldr	r0, .L511+4
 6061 0010 FFF7FEFF 		bl	commands_printf
 6062              	.LVL486:
 6063              		.loc 1 1440 0
 6064 0014 A06B     		ldr	r0, [r4, #56]	@ float
 6065 0016 FFF7FEFF 		bl	__aeabi_f2d
 6066              	.LVL487:
 6067 001a 0246     		mov	r2, r0
 6068 001c 0B46     		mov	r3, r1
 6069 001e 4548     		ldr	r0, .L511+8
 6070 0020 FFF7FEFF 		bl	commands_printf
 6071              	.LVL488:
 6072              		.loc 1 1441 0
 6073 0024 E068     		ldr	r0, [r4, #12]	@ float
 6074 0026 FFF7FEFF 		bl	__aeabi_f2d
 6075              	.LVL489:
 6076 002a 0246     		mov	r2, r0
 6077 002c 0B46     		mov	r3, r1
 6078 002e 4248     		ldr	r0, .L511+12
 6079 0030 FFF7FEFF 		bl	commands_printf
 6080              	.LVL490:
 6081              		.loc 1 1442 0
 6082 0034 E06C     		ldr	r0, [r4, #76]	@ float
 6083 0036 FFF7FEFF 		bl	__aeabi_f2d
 6084              	.LVL491:
 6085 003a 0246     		mov	r2, r0
 6086 003c 0B46     		mov	r3, r1
 6087 003e 3F48     		ldr	r0, .L511+16
 6088 0040 FFF7FEFF 		bl	commands_printf
 6089              	.LVL492:
 6090              		.loc 1 1443 0
 6091 0044 206D     		ldr	r0, [r4, #80]	@ float
 6092 0046 FFF7FEFF 		bl	__aeabi_f2d
 6093              	.LVL493:
 6094 004a 0246     		mov	r2, r0
 6095 004c 0B46     		mov	r3, r1
 6096 004e 3C48     		ldr	r0, .L511+20
 6097 0050 FFF7FEFF 		bl	commands_printf
 6098              	.LVL494:
 6099              		.loc 1 1444 0
ARM GAS  /var/tmp//ccoqQk7W.s 			page 108


 6100 0054 2069     		ldr	r0, [r4, #16]	@ float
 6101 0056 FFF7FEFF 		bl	__aeabi_f2d
 6102              	.LVL495:
 6103 005a 0246     		mov	r2, r0
 6104 005c 0B46     		mov	r3, r1
 6105 005e 3948     		ldr	r0, .L511+24
 6106 0060 FFF7FEFF 		bl	commands_printf
 6107              	.LVL496:
 6108              		.loc 1 1445 0
 6109 0064 E06A     		ldr	r0, [r4, #44]	@ float
 6110 0066 FFF7FEFF 		bl	__aeabi_f2d
 6111              	.LVL497:
 6112 006a 0246     		mov	r2, r0
 6113 006c 0B46     		mov	r3, r1
 6114 006e 3648     		ldr	r0, .L511+28
 6115 0070 FFF7FEFF 		bl	commands_printf
 6116              	.LVL498:
 6117              		.loc 1 1446 0
 6118 0074 206B     		ldr	r0, [r4, #48]	@ float
 6119 0076 FFF7FEFF 		bl	__aeabi_f2d
 6120              	.LVL499:
 6121 007a 0246     		mov	r2, r0
 6122 007c 0B46     		mov	r3, r1
 6123 007e 3348     		ldr	r0, .L511+32
 6124 0080 FFF7FEFF 		bl	commands_printf
 6125              	.LVL500:
 6126              		.loc 1 1447 0
 6127 0084 E06B     		ldr	r0, [r4, #60]	@ float
 6128 0086 FFF7FEFF 		bl	__aeabi_f2d
 6129              	.LVL501:
 6130 008a 0246     		mov	r2, r0
 6131 008c 0B46     		mov	r3, r1
 6132 008e 3048     		ldr	r0, .L511+36
 6133 0090 FFF7FEFF 		bl	commands_printf
 6134              	.LVL502:
 6135              		.loc 1 1448 0
 6136 0094 206C     		ldr	r0, [r4, #64]	@ float
 6137 0096 FFF7FEFF 		bl	__aeabi_f2d
 6138              	.LVL503:
 6139 009a 0246     		mov	r2, r0
 6140 009c 0B46     		mov	r3, r1
 6141 009e 2D48     		ldr	r0, .L511+40
 6142 00a0 FFF7FEFF 		bl	commands_printf
 6143              	.LVL504:
 6144              		.loc 1 1449 0
 6145 00a4 606C     		ldr	r0, [r4, #68]	@ float
 6146 00a6 FFF7FEFF 		bl	__aeabi_f2d
 6147              	.LVL505:
 6148 00aa 0246     		mov	r2, r0
 6149 00ac 0B46     		mov	r3, r1
 6150 00ae 2A48     		ldr	r0, .L511+44
 6151 00b0 FFF7FEFF 		bl	commands_printf
 6152              	.LVL506:
 6153              		.loc 1 1450 0
 6154 00b4 A06C     		ldr	r0, [r4, #72]	@ float
 6155 00b6 FFF7FEFF 		bl	__aeabi_f2d
 6156              	.LVL507:
ARM GAS  /var/tmp//ccoqQk7W.s 			page 109


 6157 00ba 0246     		mov	r2, r0
 6158 00bc 0B46     		mov	r3, r1
 6159 00be 2748     		ldr	r0, .L511+48
 6160 00c0 FFF7FEFF 		bl	commands_printf
 6161              	.LVL508:
 6162              		.loc 1 1451 0
 6163 00c4 2068     		ldr	r0, [r4]	@ float
 6164 00c6 FFF7FEFF 		bl	__aeabi_f2d
 6165              	.LVL509:
 6166 00ca 0246     		mov	r2, r0
 6167 00cc 0B46     		mov	r3, r1
 6168 00ce 2448     		ldr	r0, .L511+52
 6169 00d0 FFF7FEFF 		bl	commands_printf
 6170              	.LVL510:
 6171              		.loc 1 1452 0
 6172 00d4 6068     		ldr	r0, [r4, #4]	@ float
 6173 00d6 FFF7FEFF 		bl	__aeabi_f2d
 6174              	.LVL511:
 6175 00da 0246     		mov	r2, r0
 6176 00dc 0B46     		mov	r3, r1
 6177 00de 2148     		ldr	r0, .L511+56
 6178 00e0 FFF7FEFF 		bl	commands_printf
 6179              	.LVL512:
 6180              		.loc 1 1453 0
 6181 00e4 E069     		ldr	r0, [r4, #28]	@ float
 6182 00e6 FFF7FEFF 		bl	__aeabi_f2d
 6183              	.LVL513:
 6184 00ea 0246     		mov	r2, r0
 6185 00ec 0B46     		mov	r3, r1
 6186 00ee 1E48     		ldr	r0, .L511+60
 6187 00f0 FFF7FEFF 		bl	commands_printf
 6188              	.LVL514:
 6189              		.loc 1 1454 0
 6190 00f4 206A     		ldr	r0, [r4, #32]	@ float
 6191 00f6 FFF7FEFF 		bl	__aeabi_f2d
 6192              	.LVL515:
 6193 00fa 0246     		mov	r2, r0
 6194 00fc 0B46     		mov	r3, r1
 6195 00fe 1B48     		ldr	r0, .L511+64
 6196 0100 FFF7FEFF 		bl	commands_printf
 6197              	.LVL516:
 6198              		.loc 1 1455 0
 6199 0104 1A4B     		ldr	r3, .L511+68
 6200 0106 1868     		ldr	r0, [r3]	@ float
 6201 0108 FFF7FEFF 		bl	__aeabi_f2d
 6202              	.LVL517:
 6203 010c 0246     		mov	r2, r0
 6204 010e 0B46     		mov	r3, r1
 6205 0110 1848     		ldr	r0, .L511+72
 6206 0112 FFF7FEFF 		bl	commands_printf
 6207              	.LVL518:
 6208              		.loc 1 1456 0
 6209 0116 184B     		ldr	r3, .L511+76
 6210 0118 1868     		ldr	r0, [r3]	@ float
 6211 011a FFF7FEFF 		bl	__aeabi_f2d
 6212              	.LVL519:
 6213              		.loc 1 1457 0
ARM GAS  /var/tmp//ccoqQk7W.s 			page 110


 6214 011e BDE81040 		pop	{r4, lr}
 6215              		.cfi_restore 14
 6216              		.cfi_restore 4
 6217              		.cfi_def_cfa_offset 0
 6218              		.loc 1 1456 0
 6219 0122 0246     		mov	r2, r0
 6220 0124 0B46     		mov	r3, r1
 6221 0126 1548     		ldr	r0, .L511+80
 6222 0128 FFF7FEBF 		b	commands_printf
 6223              	.LVL520:
 6224              	.L512:
 6225              		.align	2
 6226              	.L511:
 6227 012c 00000000 		.word	.LANCHOR10
 6228 0130 00000000 		.word	.LC8
 6229 0134 14000000 		.word	.LC9
 6230 0138 28000000 		.word	.LC10
 6231 013c 3C000000 		.word	.LC11
 6232 0140 50000000 		.word	.LC12
 6233 0144 64000000 		.word	.LC13
 6234 0148 78000000 		.word	.LC14
 6235 014c 8C000000 		.word	.LC15
 6236 0150 A0000000 		.word	.LC16
 6237 0154 B4000000 		.word	.LC17
 6238 0158 C8000000 		.word	.LC18
 6239 015c DC000000 		.word	.LC19
 6240 0160 F0000000 		.word	.LC20
 6241 0164 04010000 		.word	.LC21
 6242 0168 18010000 		.word	.LC22
 6243 016c 2C010000 		.word	.LC23
 6244 0170 00000000 		.word	.LANCHOR35
 6245 0174 40010000 		.word	.LC24
 6246 0178 00000000 		.word	.LANCHOR36
 6247 017c 54010000 		.word	.LC25
 6248              		.cfi_endproc
 6249              	.LFE301:
 6250              		.size	mcpwm_foc_print_state, .-mcpwm_foc_print_state
 6251              		.section	.text.mcpwm_foc_get_last_inj_adc_isr_duration,"ax",%progbits
 6252              		.align	1
 6253              		.p2align 4,,15
 6254              		.global	mcpwm_foc_get_last_inj_adc_isr_duration
 6255              		.syntax unified
 6256              		.thumb
 6257              		.thumb_func
 6258              		.fpu fpv4-sp-d16
 6259              		.type	mcpwm_foc_get_last_inj_adc_isr_duration, %function
 6260              	mcpwm_foc_get_last_inj_adc_isr_duration:
 6261              	.LFB302:
 6262              		.loc 1 1459 0
 6263              		.cfi_startproc
 6264              		@ args = 0, pretend = 0, frame = 0
 6265              		@ frame_needed = 0, uses_anonymous_args = 0
 6266              		@ link register save eliminated.
 6267              		.loc 1 1460 0
 6268 0000 014B     		ldr	r3, .L514
 6269 0002 93ED000A 		vldr.32	s0, [r3]
 6270              		.loc 1 1461 0
ARM GAS  /var/tmp//ccoqQk7W.s 			page 111


 6271 0006 7047     		bx	lr
 6272              	.L515:
 6273              		.align	2
 6274              	.L514:
 6275 0008 00000000 		.word	.LANCHOR40
 6276              		.cfi_endproc
 6277              	.LFE302:
 6278              		.size	mcpwm_foc_get_last_inj_adc_isr_duration, .-mcpwm_foc_get_last_inj_adc_isr_duration
 6279              		.section	.text.mcpwm_foc_tim_sample_int_handler,"ax",%progbits
 6280              		.align	1
 6281              		.p2align 4,,15
 6282              		.global	mcpwm_foc_tim_sample_int_handler
 6283              		.syntax unified
 6284              		.thumb
 6285              		.thumb_func
 6286              		.fpu fpv4-sp-d16
 6287              		.type	mcpwm_foc_tim_sample_int_handler, %function
 6288              	mcpwm_foc_tim_sample_int_handler:
 6289              	.LFB303:
 6290              		.loc 1 1463 0
 6291              		.cfi_startproc
 6292              		@ args = 0, pretend = 0, frame = 0
 6293              		@ frame_needed = 0, uses_anonymous_args = 0
 6294              		@ link register save eliminated.
 6295              		.loc 1 1464 0
 6296 0000 034B     		ldr	r3, .L519
 6297 0002 1B78     		ldrb	r3, [r3]	@ zero_extendqisi2
 6298 0004 03B9     		cbnz	r3, .L518
 6299 0006 7047     		bx	lr
 6300              	.L518:
 6301              		.loc 1 1466 0
 6302 0008 2021     		movs	r1, #32
 6303 000a 0248     		ldr	r0, .L519+4
 6304 000c FFF7FEBF 		b	TIM_GenerateEvent
 6305              	.LVL521:
 6306              	.L520:
 6307              		.align	2
 6308              	.L519:
 6309 0010 00000000 		.word	.LANCHOR23
 6310 0014 00000140 		.word	1073807360
 6311              		.cfi_endproc
 6312              	.LFE303:
 6313              		.size	mcpwm_foc_tim_sample_int_handler, .-mcpwm_foc_tim_sample_int_handler
 6314              		.section	.text.observer_update,"ax",%progbits
 6315              		.align	1
 6316              		.p2align 4,,15
 6317              		.global	observer_update
 6318              		.syntax unified
 6319              		.thumb
 6320              		.thumb_func
 6321              		.fpu fpv4-sp-d16
 6322              		.type	observer_update, %function
 6323              	observer_update:
 6324              	.LFB307:
 6325              		.loc 1 2077 0
 6326              		.cfi_startproc
 6327              		@ args = 0, pretend = 0, frame = 8
ARM GAS  /var/tmp//ccoqQk7W.s 			page 112


 6328              		@ frame_needed = 0, uses_anonymous_args = 0
 6329              	.LVL522:
 6330 0000 F0B5     		push	{r4, r5, r6, r7, lr}
 6331              		.cfi_def_cfa_offset 20
 6332              		.cfi_offset 4, -20
 6333              		.cfi_offset 5, -16
 6334              		.cfi_offset 6, -12
 6335              		.cfi_offset 7, -8
 6336              		.cfi_offset 14, -4
 6337              		.loc 1 2079 0
 6338 0002 754E     		ldr	r6, .L544
 6339              		.loc 1 2084 0
 6340 0004 754C     		ldr	r4, .L544+4
 6341              		.loc 1 2079 0
 6342 0006 3368     		ldr	r3, [r6]
 6343              		.loc 1 2077 0
 6344 0008 2DED0A8B 		vpush.64	{d8, d9, d10, d11, d12}
 6345              		.cfi_def_cfa_offset 60
 6346              		.cfi_offset 80, -60
 6347              		.cfi_offset 81, -56
 6348              		.cfi_offset 82, -52
 6349              		.cfi_offset 83, -48
 6350              		.cfi_offset 84, -44
 6351              		.cfi_offset 85, -40
 6352              		.cfi_offset 86, -36
 6353              		.cfi_offset 87, -32
 6354              		.cfi_offset 88, -28
 6355              		.cfi_offset 89, -24
 6356              		.loc 1 2079 0
 6357 000c 93ED30BA 		vldr.32	s22, [r3, #192]
 6358              		.loc 1 2080 0
 6359 0010 93ED328A 		vldr.32	s16, [r3, #200]
 6360              		.loc 1 2081 0
 6361 0014 D3ED31AA 		vldr.32	s21, [r3, #196]
 6362              		.loc 1 2084 0
 6363 0018 D4ED107A 		vldr.32	s15, [r4, #64]
 6364 001c D4ED146A 		vldr.32	s13, [r4, #80]
 6365              		.loc 1 2085 0
 6366 0020 93ED437A 		vldr.32	s14, [r3, #268]
 6367 0024 94ED085A 		vldr.32	s10, [r4, #32]
 6368 0028 D3ED015A 		vldr.32	s11, [r3, #4]
 6369 002c 85EE256A 		vdiv.f32	s12, s10, s11
 6370              		.loc 1 2077 0
 6371 0030 83B0     		sub	sp, sp, #12
 6372              		.cfi_def_cfa_offset 72
 6373              		.loc 1 2077 0
 6374 0032 1746     		mov	r7, r2
 6375 0034 0546     		mov	r5, r0
 6376 0036 0C46     		mov	r4, r1
 6377              		.loc 1 2084 0
 6378 0038 67EEA67A 		vmul.f32	s15, s15, s13
 6379              		.loc 1 2079 0
 6380 003c F7EE086A 		vmov.f32	s13, #1.5e+0
 6381              		.loc 1 2084 0
 6382 0040 F5EEC07A 		vcmpe.f32	s15, #0
 6383              		.loc 1 2081 0
 6384 0044 6AEEA6AA 		vmul.f32	s21, s21, s13
ARM GAS  /var/tmp//ccoqQk7W.s 			page 113


 6385              		.loc 1 2084 0
 6386 0048 F1EE10FA 		vmrs	APSR_nzcv, FPSCR
 6387 004c FFEE005A 		vmov.f32	s11, #-1.0e+0
 6388 0050 F7EE007A 		vmov.f32	s15, #1.0e+0
 6389 0054 B8BF     		it	lt
 6390 0056 F0EE657A 		vmovlt.f32	s15, s11
 6391              		.loc 1 2085 0
 6392 005a 67EEAA7A 		vmul.f32	s15, s15, s21
 6393              		.loc 1 2077 0
 6394 005e B0EE409A 		vmov.f32	s18, s0
 6395 0062 67EE677A 		vnmul.f32	s15, s14, s15
 6396 0066 F0EE608A 		vmov.f32	s17, s1
 6397 006a F0EE41BA 		vmov.f32	s23, s2
 6398 006e F0EE61CA 		vmov.f32	s25, s3
 6399 0072 F0EE429A 		vmov.f32	s19, s4
 6400              		.loc 1 2079 0
 6401 0076 2BEE26BA 		vmul.f32	s22, s22, s13
 6402              	.LVL523:
 6403              		.loc 1 2085 0
 6404 007a E7EE86AA 		vfma.f32	s21, s15, s12
 6405              	.LVL524:
 6406              		.loc 1 2088 0
 6407 007e FFF7FEFF 		bl	mc_interface_temp_motor_filtered
 6408              	.LVL525:
 6409              		.loc 1 2089 0
 6410 0082 3368     		ldr	r3, [r6]
 6411 0084 93F81021 		ldrb	r2, [r3, #272]	@ zero_extendqisi2
 6412 0088 3AB1     		cbz	r2, .L524
 6413              		.loc 1 2089 0 is_stmt 0 discriminator 1
 6414 008a F9EE047A 		vmov.f32	s15, #-5.0e+0
 6415 008e B4EEE70A 		vcmpe.f32	s0, s15
 6416 0092 F1EE10FA 		vmrs	APSR_nzcv, FPSCR
 6417 0096 00F39380 		bgt	.L541
 6418              	.LVL526:
 6419              	.L524:
 6420              		.loc 1 2098 0 is_stmt 1
 6421 009a 514B     		ldr	r3, .L544+8
 6422              		.loc 1 2109 0
 6423 009c F1EE087A 		vmov.f32	s15, #6.0e+0
 6424 00a0 89EEA7CA 		vdiv.f32	s24, s19, s15
 6425 00a4 0626     		movs	r6, #6
 6426              		.loc 1 2095 0
 6427 00a6 6AEEAB7A 		vmul.f32	s15, s21, s23
 6428              		.loc 1 2097 0
 6429 00aa 28EE088A 		vmul.f32	s16, s16, s16
 6430              	.LVL527:
 6431              		.loc 1 2096 0
 6432 00ae 6AEEACAA 		vmul.f32	s21, s21, s25
 6433              	.LVL528:
 6434              		.loc 1 2098 0
 6435 00b2 93ED00AA 		vldr.32	s20, [r3]
 6436 00b6 DFED4B9A 		vldr.32	s19, .L544+12
 6437              	.LVL529:
 6438 00ba B6EE007A 		vmov.f32	s14, #5.0e-1
 6439 00be 78EEEA8A 		vsub.f32	s17, s17, s21
 6440              	.LVL530:
 6441              		.loc 1 2093 0
ARM GAS  /var/tmp//ccoqQk7W.s 			page 114


 6442 00c2 6BEE2BBA 		vmul.f32	s23, s22, s23
 6443              	.LVL531:
 6444              		.loc 1 2098 0
 6445 00c6 2AEE07AA 		vmul.f32	s20, s20, s14
 6446 00ca 68EE299A 		vmul.f32	s19, s16, s19
 6447 00ce 39EE679A 		vsub.f32	s18, s18, s15
 6448              	.LVL532:
 6449              		.loc 1 2094 0
 6450 00d2 2BEE2CBA 		vmul.f32	s22, s22, s25
 6451              	.LVL533:
 6452              	.LBB132:
 6453              	.LBB133:
 6454              		.loc 1 2114 0
 6455 00d6 F2EE04AA 		vmov.f32	s21, #1.0e+1
 6456 00da 27E0     		b	.L527
 6457              	.LVL534:
 6458              	.L543:
 6459 00dc 6AEE2A5A 		vmul.f32	s11, s20, s21
 6460              	.LVL535:
 6461              	.L526:
 6462              		.loc 1 2116 0 discriminator 2
 6463 00e0 95ED007A 		vldr.32	s14, [r5]
 6464              		.loc 1 2117 0 discriminator 2
 6465 00e4 D4ED007A 		vldr.32	s15, [r4]
 6466              		.loc 1 2116 0 discriminator 2
 6467 00e8 9DED016A 		vldr.32	s12, [sp, #4]
 6468              	.LVL536:
 6469              		.loc 1 2119 0 discriminator 2
 6470 00ec D5ED006A 		vldr.32	s13, [r5]
 6471              		.loc 1 2116 0 discriminator 2
 6472 00f0 37EE6B7A 		vsub.f32	s14, s14, s23
 6473              		.loc 1 2117 0 discriminator 2
 6474 00f4 77EECB7A 		vsub.f32	s15, s15, s22
 6475              		.loc 1 2116 0 discriminator 2
 6476 00f8 27EE257A 		vmul.f32	s14, s14, s11
 6477              		.loc 1 2117 0 discriminator 2
 6478 00fc 67EEA57A 		vmul.f32	s15, s15, s11
 6479              		.loc 1 2116 0 discriminator 2
 6480 0100 F0EE495A 		vmov.f32	s11, s18
 6481              	.LVL537:
 6482 0104 E7EE065A 		vfma.f32	s11, s14, s12
 6483              	.LBE133:
 6484              		.loc 1 2110 0 discriminator 2
 6485 0108 013E     		subs	r6, r6, #1
 6486              	.LVL538:
 6487              	.LBB134:
 6488              		.loc 1 2117 0 discriminator 2
 6489 010a B0EE687A 		vmov.f32	s14, s17
 6490 010e A6EE277A 		vfma.f32	s14, s12, s15
 6491              		.loc 1 2119 0 discriminator 2
 6492 0112 F0EE667A 		vmov.f32	s15, s13
 6493 0116 ECEE257A 		vfma.f32	s15, s24, s11
 6494 011a C5ED007A 		vstr.32	s15, [r5]
 6495              		.loc 1 2120 0 discriminator 2
 6496 011e D4ED007A 		vldr.32	s15, [r4]
 6497 0122 ECEE077A 		vfma.f32	s15, s24, s14
 6498 0126 C4ED007A 		vstr.32	s15, [r4]
ARM GAS  /var/tmp//ccoqQk7W.s 			page 115


 6499              	.LVL539:
 6500              	.LBE134:
 6501              		.loc 1 2110 0 discriminator 2
 6502 012a 21D0     		beq	.L542
 6503              	.L527:
 6504              	.LVL540:
 6505              	.LBB135:
 6506              		.loc 1 2111 0
 6507 012c D5ED006A 		vldr.32	s13, [r5]
 6508 0130 95ED007A 		vldr.32	s14, [r5]
 6509 0134 D4ED007A 		vldr.32	s15, [r4]
 6510 0138 94ED006A 		vldr.32	s12, [r4]
 6511 013c 77EECB7A 		vsub.f32	s15, s15, s22
 6512 0140 36EE4B6A 		vsub.f32	s12, s12, s22
 6513 0144 76EEEB6A 		vsub.f32	s13, s13, s23
 6514 0148 37EE6B7A 		vsub.f32	s14, s14, s23
 6515 014c 67EE867A 		vmul.f32	s15, s15, s12
 6516              		.loc 1 2113 0
 6517 0150 B0EE690A 		vmov.f32	s0, s19
 6518              		.loc 1 2111 0
 6519 0154 E6EE877A 		vfma.f32	s15, s13, s14
 6520              		.loc 1 2113 0
 6521 0158 01A8     		add	r0, sp, #4
 6522              		.loc 1 2111 0
 6523 015a 78EE677A 		vsub.f32	s15, s16, s15
 6524 015e CDED017A 		vstr.32	s15, [sp, #4]
 6525              		.loc 1 2113 0
 6526 0162 FFF7FEFF 		bl	utils_truncate_number_abs
 6527              	.LVL541:
 6528 0166 0028     		cmp	r0, #0
 6529 0168 B8D1     		bne	.L543
 6530              		.loc 1 2112 0
 6531 016a F0EE4A5A 		vmov.f32	s11, s20
 6532 016e B7E7     		b	.L526
