ARM GAS  /var/tmp//ccH8mr4P.s 			page 1


   1              		.cpu cortex-m4
   2              		.eabi_attribute 27, 1
   3              		.eabi_attribute 28, 1
   4              		.eabi_attribute 20, 1
   5              		.eabi_attribute 21, 1
   6              		.eabi_attribute 23, 3
   7              		.eabi_attribute 24, 1
   8              		.eabi_attribute 25, 1
   9              		.eabi_attribute 26, 1
  10              		.eabi_attribute 30, 2
  11              		.eabi_attribute 34, 1
  12              		.eabi_attribute 18, 4
  13              		.file	"nrf_driver.c"
  14              		.text
  15              	.Ltext0:
  16              		.cfi_sections	.debug_frame
  17              		.section	.text.tx_thread,"ax",%progbits
  18              		.align	1
  19              		.p2align 4,,15
  20              		.syntax unified
  21              		.thumb
  22              		.thumb_func
  23              		.fpu fpv4-sp-d16
  24              		.type	tx_thread, %function
  25              	tx_thread:
  26              	.LFB223:
  27              		.file 1 "nrf/nrf_driver.c"
  28              		.loc 1 144 0
  29              		.cfi_startproc
  30              		@ args = 0, pretend = 0, frame = 8
  31              		@ frame_needed = 0, uses_anonymous_args = 0
  32              	.LVL0:
  33              	.LBB37:
  34              	.LBB38:
  35              		.file 2 "ChibiOS_3.0.2/os/rt/include/chregistry.h"
  36              		.loc 2 135 0
  37 0000 1C4B     		ldr	r3, .L10
  38 0002 1D49     		ldr	r1, .L10+4
  39 0004 9A69     		ldr	r2, [r3, #24]
  40              	.LBE38:
  41              	.LBE37:
  42              		.loc 1 144 0
  43 0006 2DE9F043 		push	{r4, r5, r6, r7, r8, r9, lr}
  44              		.cfi_def_cfa_offset 28
  45              		.cfi_offset 4, -28
  46              		.cfi_offset 5, -24
  47              		.cfi_offset 6, -20
  48              		.cfi_offset 7, -16
  49              		.cfi_offset 8, -12
  50              		.cfi_offset 9, -8
  51              		.cfi_offset 14, -4
  52              		.loc 1 148 0
  53 000a 1C4F     		ldr	r7, .L10+8
  54              		.loc 1 151 0
  55 000c 1C4D     		ldr	r5, .L10+12
  56              	.LBB40:
  57              	.LBB39:
ARM GAS  /var/tmp//ccH8mr4P.s 			page 2


  58              		.loc 2 135 0
  59 000e 9161     		str	r1, [r2, #24]
  60              	.LVL1:
  61              	.LBE39:
  62              	.LBE40:
  63              		.loc 1 148 0
  64 0010 0123     		movs	r3, #1
  65 0012 3B70     		strb	r3, [r7]
  66              		.loc 1 151 0
  67 0014 2B78     		ldrb	r3, [r5]	@ zero_extendqisi2
  68              		.loc 1 144 0
  69 0016 83B0     		sub	sp, sp, #12
  70              		.cfi_def_cfa_offset 40
  71              		.loc 1 151 0
  72 0018 33BB     		cbnz	r3, .L5
  73 001a 1A4C     		ldr	r4, .L10+16
  74              		.loc 1 158 0
  75 001c 1A4E     		ldr	r6, .L10+20
  76              	.LBB41:
  77              	.LBB42:
  78              	.LBB43:
  79              		.loc 1 138 0
  80 001e DFF86C90 		ldr	r9, .L10+24
  81              	.LBE43:
  82              	.LBE42:
  83              		.loc 1 161 0
  84 0022 4FF00208 		mov	r8, #2
  85 0026 04E0     		b	.L2
  86              	.LVL2:
  87              	.L3:
  88              	.LBE41:
  89              		.loc 1 166 0
  90 0028 0A20     		movs	r0, #10
  91 002a FFF7FEFF 		bl	chThdSleep
  92              	.LVL3:
  93              		.loc 1 151 0
  94 002e 2B78     		ldrb	r3, [r5]	@ zero_extendqisi2
  95 0030 D3B9     		cbnz	r3, .L5
  96              	.L2:
  97              		.loc 1 156 0
  98 0032 2368     		ldr	r3, [r4]
  99 0034 0133     		adds	r3, r3, #1
 100              		.loc 1 158 0
 101 0036 312B     		cmp	r3, #49
 102              		.loc 1 156 0
 103 0038 2360     		str	r3, [r4]
 104              		.loc 1 158 0
 105 003a F5DD     		ble	.L3
 106              		.loc 1 158 0 is_stmt 0 discriminator 1
 107 003c 3378     		ldrb	r3, [r6]	@ zero_extendqisi2
 108 003e 002B     		cmp	r3, #0
 109 0040 F2D1     		bne	.L3
 110              	.LVL4:
 111              	.LBB48:
 112              		.loc 1 161 0 is_stmt 1
 113 0042 02A8     		add	r0, sp, #8
 114              	.LBB46:
ARM GAS  /var/tmp//ccH8mr4P.s 			page 3


 115              	.LBB44:
 116              		.loc 1 135 0
 117 0044 0121     		movs	r1, #1
 118              	.LBE44:
 119              	.LBE46:
 120              		.loc 1 161 0
 121 0046 00F8048D 		strb	r8, [r0, #-4]!
 122              	.LVL5:
 123              	.LBB47:
 124              	.LBB45:
 125              		.loc 1 135 0
 126 004a FFF7FEFF 		bl	rfhelp_send_data_crc
 127              	.LVL6:
 128              		.loc 1 137 0
 129 004e 18B9     		cbnz	r0, .L4
 130              		.loc 1 138 0
 131 0050 4FF4FA73 		mov	r3, #500
 132 0054 C9F80030 		str	r3, [r9]
 133              	.L4:
 134              	.LBE45:
 135              	.LBE47:
 136              		.loc 1 163 0
 137 0058 0023     		movs	r3, #0
 138              	.LBE48:
 139              		.loc 1 166 0
 140 005a 0A20     		movs	r0, #10
 141              	.LBB49:
 142              		.loc 1 163 0
 143 005c 2360     		str	r3, [r4]
 144              	.LBE49:
 145              		.loc 1 166 0
 146 005e FFF7FEFF 		bl	chThdSleep
 147              	.LVL7:
 148              		.loc 1 151 0
 149 0062 2B78     		ldrb	r3, [r5]	@ zero_extendqisi2
 150 0064 002B     		cmp	r3, #0
 151 0066 E4D0     		beq	.L2
 152              	.LVL8:
 153              	.L5:
 154              		.loc 1 152 0
 155 0068 0023     		movs	r3, #0
 156 006a 3B70     		strb	r3, [r7]
 157              		.loc 1 169 0
 158 006c 03B0     		add	sp, sp, #12
 159              		.cfi_def_cfa_offset 28
 160              		@ sp needed
 161 006e BDE8F083 		pop	{r4, r5, r6, r7, r8, r9, pc}
 162              	.L11:
 163 0072 00BF     		.align	2
 164              	.L10:
 165 0074 00000000 		.word	ch
 166 0078 00000000 		.word	.LC0
 167 007c 00000000 		.word	.LANCHOR0
 168 0080 00000000 		.word	.LANCHOR1
 169 0084 00000000 		.word	.LANCHOR2
 170 0088 00000000 		.word	.LANCHOR3
 171 008c 00000000 		.word	.LANCHOR4
ARM GAS  /var/tmp//ccH8mr4P.s 			page 4


 172              		.cfi_endproc
 173              	.LFE223:
 174              		.size	tx_thread, .-tx_thread
 175              		.section	.text.nrf_driver_send_buffer,"ax",%progbits
 176              		.align	1
 177              		.p2align 4,,15
 178              		.global	nrf_driver_send_buffer
 179              		.syntax unified
 180              		.thumb
 181              		.thumb_func
 182              		.fpu fpv4-sp-d16
 183              		.type	nrf_driver_send_buffer, %function
 184              	nrf_driver_send_buffer:
 185              	.LFB225:
 186              		.loc 1 344 0
 187              		.cfi_startproc
 188              		@ args = 0, pretend = 0, frame = 40
 189              		@ frame_needed = 0, uses_anonymous_args = 0
 190              	.LVL9:
 191 0000 2DE9F04F 		push	{r4, r5, r6, r7, r8, r9, r10, fp, lr}
 192              		.cfi_def_cfa_offset 36
 193              		.cfi_offset 4, -36
 194              		.cfi_offset 5, -32
 195              		.cfi_offset 6, -28
 196              		.cfi_offset 7, -24
 197              		.cfi_offset 8, -20
 198              		.cfi_offset 9, -16
 199              		.cfi_offset 10, -12
 200              		.cfi_offset 11, -8
 201              		.cfi_offset 14, -4
 202              		.loc 1 347 0
 203 0004 1829     		cmp	r1, #24
 204              		.loc 1 344 0
 205 0006 8BB0     		sub	sp, sp, #44
 206              		.cfi_def_cfa_offset 80
 207              		.loc 1 344 0
 208 0008 8946     		mov	r9, r1
 209 000a 8346     		mov	fp, r0
 210              		.loc 1 347 0
 211 000c 40F2AC80 		bls	.L36
 212              	.LVL10:
 213              	.LBB50:
 214              		.loc 1 356 0
 215 0010 0027     		movs	r7, #0
 216 0012 DFF8A081 		ldr	r8, .L38+4
 217              		.loc 1 355 0
 218 0016 3C46     		mov	r4, r7
 219              		.loc 1 356 0
 220 0018 A1F11406 		sub	r6, r1, #20
 221              	.LVL11:
 222 001c 0546     		mov	r5, r0
 223              	.LBB51:
 224              	.LBB52:
 225              		.loc 1 366 0
 226 001e 4FF0030A 		mov	r10, #3
 227              	.LVL12:
 228              	.L16:
ARM GAS  /var/tmp//ccH8mr4P.s 			page 5


 229              		.loc 1 363 0
 230 0022 1734     		adds	r4, r4, #23
 231              	.LVL13:
 232              		.loc 1 367 0
 233 0024 FBB2     		uxtb	r3, r7
 234              		.loc 1 369 0
 235 0026 A642     		cmp	r6, r4
 236              		.loc 1 366 0
 237 0028 8DF80CA0 		strb	r10, [sp, #12]
 238              		.loc 1 367 0
 239 002c 8DF80D30 		strb	r3, [sp, #13]
 240              		.loc 1 369 0
 241 0030 C0F0B280 		bcc	.L18
 242              		.loc 1 370 0
 243 0034 2B68     		ldr	r3, [r5]	@ unaligned
 244 0036 6A68     		ldr	r2, [r5, #4]	@ unaligned
 245 0038 CDF80E30 		str	r3, [sp, #14]	@ unaligned
 246 003c AB68     		ldr	r3, [r5, #8]	@ unaligned
 247 003e CDF81220 		str	r2, [sp, #18]	@ unaligned
 248 0042 CDF81630 		str	r3, [sp, #22]	@ unaligned
 249 0046 EA68     		ldr	r2, [r5, #12]	@ unaligned
 250 0048 2B69     		ldr	r3, [r5, #16]	@ unaligned
 251 004a CDF81A20 		str	r2, [sp, #26]	@ unaligned
 252 004e CDF81E30 		str	r3, [sp, #30]	@ unaligned
 253 0052 AA8A     		ldrh	r2, [r5, #20]	@ unaligned
 254 0054 AB7D     		ldrb	r3, [r5, #22]	@ zero_extendqisi2
 255 0056 ADF82220 		strh	r2, [sp, #34]	@ unaligned
 256 005a 8DF82430 		strb	r3, [sp, #36]
 257 005e 1921     		movs	r1, #25
 258              	.LVL14:
 259              	.L19:
 260              	.LBB53:
 261              	.LBB54:
 262              		.loc 1 135 0 discriminator 2
 263 0060 03A8     		add	r0, sp, #12
 264              	.LVL15:
 265 0062 FFF7FEFF 		bl	rfhelp_send_data_crc
 266              	.LVL16:
 267 0066 1737     		adds	r7, r7, #23
 268              	.LBE54:
 269              	.LBE53:
 270              		.loc 1 377 0 discriminator 2
 271 0068 0023     		movs	r3, #0
 272 006a 1735     		adds	r5, r5, #23
 273              	.LBB56:
 274              	.LBB55:
 275              		.loc 1 137 0 discriminator 2
 276 006c 18B9     		cbnz	r0, .L20
 277              		.loc 1 138 0
 278 006e 5049     		ldr	r1, .L38
 279 0070 4FF4FA72 		mov	r2, #500
 280 0074 0A60     		str	r2, [r1]
 281              	.L20:
 282              	.LBE55:
 283              	.LBE56:
 284              	.LBE52:
 285              		.loc 1 358 0
ARM GAS  /var/tmp//ccH8mr4P.s 			page 6


 286 0076 A642     		cmp	r6, r4
 287              	.LBB57:
 288              		.loc 1 377 0
 289 0078 C8F80030 		str	r3, [r8]
 290              	.LBE57:
 291              		.loc 1 358 0
 292 007c 42D9     		bls	.L27
 293              	.LBB58:
 294              		.loc 1 359 0
 295 007e B4F58A7F 		cmp	r4, #276
 296 0082 CED1     		bne	.L16
 297 0084 A6F11403 		sub	r3, r6, #20
 298 0088 5FFA83FA 		uxtb	r10, r3
 299 008c 0BF58A75 		add	r5, fp, #276
 300              	.LBE58:
 301              	.LBE51:
 302              	.LBB60:
 303              	.LBB61:
 304              		.loc 1 382 0
 305 0090 0427     		movs	r7, #4
 306 0092 24E0     		b	.L26
 307              	.LVL17:
 308              	.L37:
 309              		.loc 1 387 0
 310 0094 2B68     		ldr	r3, [r5]	@ unaligned
 311 0096 6A68     		ldr	r2, [r5, #4]	@ unaligned
 312 0098 CDF80F30 		str	r3, [sp, #15]	@ unaligned
 313 009c CDF81320 		str	r2, [sp, #19]	@ unaligned
 314 00a0 AB68     		ldr	r3, [r5, #8]	@ unaligned
 315 00a2 EA68     		ldr	r2, [r5, #12]	@ unaligned
 316 00a4 CDF81730 		str	r3, [sp, #23]	@ unaligned
 317 00a8 CDF81B20 		str	r2, [sp, #27]	@ unaligned
 318 00ac 2B69     		ldr	r3, [r5, #16]	@ unaligned
 319 00ae AA8A     		ldrh	r2, [r5, #20]	@ unaligned
 320 00b0 CDF81F30 		str	r3, [sp, #31]	@ unaligned
 321 00b4 ADF82320 		strh	r2, [sp, #35]	@ unaligned
 322 00b8 1921     		movs	r1, #25
 323              	.L24:
 324              	.LVL18:
 325              	.LBB62:
 326              	.LBB63:
 327              		.loc 1 135 0 discriminator 2
 328 00ba 03A8     		add	r0, sp, #12
 329              	.LVL19:
 330 00bc FFF7FEFF 		bl	rfhelp_send_data_crc
 331              	.LVL20:
 332 00c0 AAF1160A 		sub	r10, r10, #22
 333              	.LBE63:
 334              	.LBE62:
 335              		.loc 1 394 0 discriminator 2
 336 00c4 0023     		movs	r3, #0
 337 00c6 1635     		adds	r5, r5, #22
 338 00c8 5FFA8AFA 		uxtb	r10, r10
 339              	.LBB65:
 340              	.LBB64:
 341              		.loc 1 137 0 discriminator 2
 342 00cc 18B9     		cbnz	r0, .L25
ARM GAS  /var/tmp//ccH8mr4P.s 			page 7


 343              		.loc 1 138 0
 344 00ce 3849     		ldr	r1, .L38
 345 00d0 4FF4FA72 		mov	r2, #500
 346 00d4 0A60     		str	r2, [r1]
 347              	.L25:
 348              	.LBE64:
 349              	.LBE65:
 350              	.LBE61:
 351              		.loc 1 380 0
 352 00d6 A642     		cmp	r6, r4
 353              	.LBB66:
 354              		.loc 1 394 0
 355 00d8 C8F80030 		str	r3, [r8]
 356              	.LVL21:
 357              	.LBE66:
 358              		.loc 1 380 0
 359 00dc 12D9     		bls	.L27
 360              	.LVL22:
 361              	.L26:
 362              	.LBB67:
 363              		.loc 1 383 0
 364 00de 230A     		lsrs	r3, r4, #8
 365              		.loc 1 384 0
 366 00e0 8DF80E40 		strb	r4, [sp, #14]
 367              		.loc 1 386 0
 368 00e4 1634     		adds	r4, r4, #22
 369              	.LVL23:
 370 00e6 A642     		cmp	r6, r4
 371              		.loc 1 382 0
 372 00e8 8DF80C70 		strb	r7, [sp, #12]
 373              		.loc 1 383 0
 374 00ec 8DF80D30 		strb	r3, [sp, #13]
 375              		.loc 1 386 0
 376 00f0 D0D2     		bcs	.L37
 377              		.loc 1 390 0
 378 00f2 2946     		mov	r1, r5
 379 00f4 5246     		mov	r2, r10
 380 00f6 0DF10F00 		add	r0, sp, #15
 381 00fa FFF7FEFF 		bl	memcpy
 382              	.LVL24:
 383 00fe 0AF10301 		add	r1, r10, #3
 384 0102 DAE7     		b	.L24
 385              	.LVL25:
 386              	.L27:
 387              	.LBE67:
 388              	.LBE60:
 389              		.loc 1 398 0
 390 0104 0522     		movs	r2, #5
 391              		.loc 1 399 0
 392 0106 4FEA1923 		lsr	r3, r9, #8
 393              		.loc 1 401 0
 394 010a 4946     		mov	r1, r9
 395 010c 5846     		mov	r0, fp
 396              		.loc 1 398 0
 397 010e 8DF80C20 		strb	r2, [sp, #12]
 398              	.LVL26:
 399              		.loc 1 399 0
ARM GAS  /var/tmp//ccH8mr4P.s 			page 8


 400 0112 8DF80D30 		strb	r3, [sp, #13]
 401              	.LVL27:
 402              		.loc 1 400 0
 403 0116 8DF80E90 		strb	r9, [sp, #14]
 404              		.loc 1 401 0
 405 011a FFF7FEFF 		bl	crc16
 406              	.LVL28:
 407              		.loc 1 404 0
 408 011e 5E44     		add	r6, r6, fp
 409              	.LVL29:
 410              		.loc 1 401 0
 411 0120 0246     		mov	r2, r0
 412              	.LVL30:
 413              		.loc 1 402 0
 414 0122 010A     		lsrs	r1, r0, #8
 415              		.loc 1 404 0
 416 0124 3368     		ldr	r3, [r6]	@ unaligned
 417 0126 CDF81130 		str	r3, [sp, #17]	@ unaligned
 418 012a 7568     		ldr	r5, [r6, #4]	@ unaligned
 419 012c B468     		ldr	r4, [r6, #8]	@ unaligned
 420              		.loc 1 403 0
 421 012e 8DF81020 		strb	r2, [sp, #16]
 422              		.loc 1 404 0
 423 0132 3369     		ldr	r3, [r6, #16]	@ unaligned
 424 0134 F268     		ldr	r2, [r6, #12]	@ unaligned
 425              		.loc 1 402 0
 426 0136 8DF80F10 		strb	r1, [sp, #15]
 427              	.LVL31:
 428              	.LBB68:
 429              	.LBB69:
 430              		.loc 1 135 0
 431 013a 03A8     		add	r0, sp, #12
 432              	.LVL32:
 433 013c 1921     		movs	r1, #25
 434              	.LBE69:
 435              	.LBE68:
 436              		.loc 1 404 0
 437 013e CDF81550 		str	r5, [sp, #21]	@ unaligned
 438 0142 CDF81940 		str	r4, [sp, #25]	@ unaligned
 439 0146 CDF81D20 		str	r2, [sp, #29]	@ unaligned
 440 014a CDF82130 		str	r3, [sp, #33]	@ unaligned
 441              	.LVL33:
 442              	.LBB71:
 443              	.LBB70:
 444              		.loc 1 135 0
 445 014e FFF7FEFF 		bl	rfhelp_send_data_crc
 446              	.LVL34:
 447              		.loc 1 137 0
 448 0152 18B9     		cbnz	r0, .L15
 449              	.LBE70:
 450              	.LBE71:
 451              	.LBE50:
 452              	.LBB73:
 453              	.LBB74:
 454              	.LBB75:
 455              		.loc 1 138 0
 456 0154 164B     		ldr	r3, .L38
ARM GAS  /var/tmp//ccH8mr4P.s 			page 9


 457 0156 4FF4FA72 		mov	r2, #500
 458 015a 1A60     		str	r2, [r3]
 459              	.LVL35:
 460              	.L15:
 461              	.LBE75:
 462              	.LBE74:
 463              		.loc 1 353 0
 464 015c 0023     		movs	r3, #0
 465 015e C8F80030 		str	r3, [r8]
 466              	.LBE73:
 467              		.loc 1 410 0
 468 0162 0BB0     		add	sp, sp, #44
 469              		.cfi_remember_state
 470              		.cfi_def_cfa_offset 36
 471              		@ sp needed
 472 0164 BDE8F08F 		pop	{r4, r5, r6, r7, r8, r9, r10, fp, pc}
 473              	.LVL36:
 474              	.L36:
 475              		.cfi_restore_state
 476              	.LBB78:
 477              		.loc 1 349 0
 478 0168 0AAC     		add	r4, sp, #40
 479 016a 0623     		movs	r3, #6
 480 016c 04F81C3D 		strb	r3, [r4, #-28]!
 481              		.loc 1 350 0
 482 0170 0146     		mov	r1, r0
 483              	.LVL37:
 484 0172 4A46     		mov	r2, r9
 485 0174 0DF10D00 		add	r0, sp, #13
 486              	.LVL38:
 487 0178 FFF7FEFF 		bl	memcpy
 488              	.LVL39:
 489              	.LBB77:
 490              	.LBB76:
 491              		.loc 1 135 0
 492 017c 2046     		mov	r0, r4
 493 017e 09F10101 		add	r1, r9, #1
 494              	.LVL40:
 495 0182 FFF7FEFF 		bl	rfhelp_send_data_crc
 496              	.LVL41:
 497 0186 DFF82C80 		ldr	r8, .L38+4
 498              		.loc 1 137 0
 499 018a 0028     		cmp	r0, #0
 500 018c E6D1     		bne	.L15
 501              		.loc 1 138 0
 502 018e 084B     		ldr	r3, .L38
 503 0190 4FF4FA72 		mov	r2, #500
 504 0194 1A60     		str	r2, [r3]
 505 0196 E1E7     		b	.L15
 506              	.LVL42:
 507              	.L18:
 508 0198 F31A     		subs	r3, r6, r3
 509 019a DBB2     		uxtb	r3, r3
 510              	.LVL43:
 511              	.LBE76:
 512              	.LBE77:
 513              	.LBE78:
ARM GAS  /var/tmp//ccH8mr4P.s 			page 10


 514              	.LBB79:
 515              	.LBB72:
 516              	.LBB59:
 517              		.loc 1 373 0
 518 019c 1A46     		mov	r2, r3
 519 019e 2946     		mov	r1, r5
 520 01a0 0DF10E00 		add	r0, sp, #14
 521 01a4 0193     		str	r3, [sp, #4]
 522 01a6 FFF7FEFF 		bl	memcpy
 523              	.LVL44:
 524 01aa 019B     		ldr	r3, [sp, #4]
 525 01ac 991C     		adds	r1, r3, #2
 526 01ae 57E7     		b	.L19
 527              	.L39:
 528              		.align	2
 529              	.L38:
 530 01b0 00000000 		.word	.LANCHOR4
 531 01b4 00000000 		.word	.LANCHOR2
 532              	.LBE59:
 533              	.LBE72:
 534              	.LBE79:
 535              		.cfi_endproc
 536              	.LFE225:
 537              		.size	nrf_driver_send_buffer, .-nrf_driver_send_buffer
 538              		.section	.text.rx_thread,"ax",%progbits
 539              		.align	1
 540              		.p2align 4,,15
 541              		.syntax unified
 542              		.thumb
 543              		.thumb_func
 544              		.fpu fpv4-sp-d16
 545              		.type	rx_thread, %function
 546              	rx_thread:
 547              	.LFB224:
 548              		.loc 1 171 0
 549              		.cfi_startproc
 550              		@ args = 0, pretend = 0, frame = 256
 551              		@ frame_needed = 0, uses_anonymous_args = 0
 552              	.LVL45:
 553 0000 2DE9F04F 		push	{r4, r5, r6, r7, r8, r9, r10, fp, lr}
 554              		.cfi_def_cfa_offset 36
 555              		.cfi_offset 4, -36
 556              		.cfi_offset 5, -32
 557              		.cfi_offset 6, -28
 558              		.cfi_offset 7, -24
 559              		.cfi_offset 8, -20
 560              		.cfi_offset 9, -16
 561              		.cfi_offset 10, -12
 562              		.cfi_offset 11, -8
 563              		.cfi_offset 14, -4
 564              		.loc 1 175 0
 565 0004 AB48     		ldr	r0, .L67
 566              	.LVL46:
 567              	.LBB80:
 568              	.LBB81:
 569              		.loc 2 135 0
 570 0006 DFF8D482 		ldr	r8, .L67+40
ARM GAS  /var/tmp//ccH8mr4P.s 			page 11


 571 000a AB49     		ldr	r1, .L67+4
 572 000c D8F81820 		ldr	r2, [r8, #24]
 573              	.LBE81:
 574              	.LBE80:
 575              		.loc 1 175 0
 576 0010 0123     		movs	r3, #1
 577              		.loc 1 171 0
 578 0012 2DED028B 		vpush.64	{d8}
 579              		.cfi_def_cfa_offset 44
 580              		.cfi_offset 80, -44
 581              		.cfi_offset 81, -40
 582              		.loc 1 175 0
 583 0016 0370     		strb	r3, [r0]
 584              	.LBB83:
 585              		.loc 1 178 0
 586 0018 A84B     		ldr	r3, .L67+8
 587              	.LBE83:
 588              	.LBB96:
 589              	.LBB82:
 590              		.loc 2 135 0
 591 001a 9161     		str	r1, [r2, #24]
 592              	.LVL47:
 593              	.LBE82:
 594              	.LBE96:
 595              	.LBB97:
 596              		.loc 1 178 0
 597 001c 1B78     		ldrb	r3, [r3]	@ zero_extendqisi2
 598              	.LBE97:
 599              		.loc 1 171 0
 600 001e C1B0     		sub	sp, sp, #260
 601              		.cfi_def_cfa_offset 304
 602              	.LBB98:
 603              		.loc 1 178 0
 604 0020 002B     		cmp	r3, #0
 605 0022 40F01D81 		bne	.L41
 606 0026 A64D     		ldr	r5, .L67+12
 607 0028 DFF8B492 		ldr	r9, .L67+44
 608 002c DFF8B4B2 		ldr	fp, .L67+48
 609              	.LBB84:
 610              	.LBB85:
 611              	.LBB86:
 612              		.loc 1 291 0
 613 0030 A44F     		ldr	r7, .L67+16
 614              	.LBE86:
 615              		.loc 1 213 0
 616 0032 9FEDA58A 		vldr.32	s16, .L67+20
 617              	.L42:
 618              	.LBE85:
 619              		.loc 1 188 0
 620 0036 04AA     		add	r2, sp, #16
 621 0038 03A9     		add	r1, sp, #12
 622 003a 06A8     		add	r0, sp, #24
 623 003c FFF7FEFF 		bl	rfhelp_read_rx_data_crc
 624              	.LVL48:
 625              		.loc 1 191 0
 626 0040 0023     		movs	r3, #0
 627              		.loc 1 195 0
ARM GAS  /var/tmp//ccH8mr4P.s 			page 12


 628 0042 041E     		subs	r4, r0, #0
 629              		.loc 1 191 0
 630 0044 0593     		str	r3, [sp, #20]
 631              		.loc 1 195 0
 632 0046 C0F2EE80 		blt	.L43
 633              	.LBB90:
 634              		.loc 1 196 0
 635 004a 9DF81830 		ldrb	r3, [sp, #24]	@ zero_extendqisi2
 636              	.LVL49:
 637              		.loc 1 198 0
 638 004e 4FF4FA72 		mov	r2, #500
 639              		.loc 1 200 0
 640 0052 013B     		subs	r3, r3, #1
 641              	.LVL50:
 642              		.loc 1 198 0
 643 0054 2A60     		str	r2, [r5]
 644              		.loc 1 200 0
 645 0056 062B     		cmp	r3, #6
 646 0058 3BD8     		bhi	.L44
 647 005a DFE803F0 		tbb	[pc, r3]
 648              	.L46:
 649 005e 6F       		.byte	(.L45-.L46)/2
 650 005f 3A       		.byte	(.L44-.L46)/2
 651 0060 64       		.byte	(.L47-.L46)/2
 652 0061 52       		.byte	(.L48-.L46)/2
 653 0062 04       		.byte	(.L49-.L46)/2
 654 0063 41       		.byte	(.L50-.L46)/2
 655 0064 9F       		.byte	(.L51-.L46)/2
 656 0065 00       		.p2align 1
 657              	.L49:
 658              	.LBB87:
 659              		.loc 1 238 0
 660 0066 9DF81930 		ldrb	r3, [sp, #25]	@ zero_extendqisi2
 661              	.LVL51:
 662              		.loc 1 239 0
 663 006a 9DF81A60 		ldrb	r6, [sp, #26]	@ zero_extendqisi2
 664 006e 46EA0326 		orr	r6, r6, r3, lsl #8
 665              	.LVL52:
 666              		.loc 1 241 0
 667 0072 B6F5806F 		cmp	r6, #1024
 668              		.loc 1 239 0
 669 0076 4FF00303 		mov	r3, #3
 670 007a 0593     		str	r3, [sp, #20]
 671              		.loc 1 241 0
 672 007c 29D8     		bhi	.L44
 673              	.LVL53:
 674              		.loc 1 248 0
 675 007e 039A     		ldr	r2, [sp, #12]
 676 0080 DFF84CA2 		ldr	r10, .L67+28
 677              		.loc 1 245 0
 678 0084 9DF81B30 		ldrb	r3, [sp, #27]	@ zero_extendqisi2
 679              		.loc 1 246 0
 680 0088 9DF81C10 		ldrb	r1, [sp, #28]	@ zero_extendqisi2
 681              		.loc 1 245 0
 682 008c 0093     		str	r3, [sp]
 683              	.LVL54:
 684              		.loc 1 248 0
ARM GAS  /var/tmp//ccH8mr4P.s 			page 13


 685 008e 053A     		subs	r2, r2, #5
 686 0090 B01A     		subs	r0, r6, r2
 687              	.LVL55:
 688              		.loc 1 246 0
 689 0092 0523     		movs	r3, #5
 690 0094 0191     		str	r1, [sp, #4]
 691              	.LVL56:
 692              		.loc 1 248 0
 693 0096 5044     		add	r0, r0, r10
 694 0098 0DF11D01 		add	r1, sp, #29
 695              		.loc 1 246 0
 696 009c 0593     		str	r3, [sp, #20]
 697              		.loc 1 248 0
 698 009e FFF7FEFF 		bl	memcpy
 699              	.LVL57:
 700              		.loc 1 250 0
 701 00a2 3146     		mov	r1, r6
 702 00a4 5046     		mov	r0, r10
 703 00a6 FFF7FEFF 		bl	crc16
 704              	.LVL58:
 705              		.loc 1 252 0
 706 00aa 0199     		ldr	r1, [sp, #4]
 707 00ac 009B     		ldr	r3, [sp]
 708 00ae 41EA0323 		orr	r3, r1, r3, lsl #8
 709              		.loc 1 250 0
 710 00b2 9842     		cmp	r0, r3
 711 00b4 0DD1     		bne	.L44
 712              		.loc 1 255 0
 713 00b6 1420     		movs	r0, #20
 714 00b8 FFF7FEFF 		bl	chThdSleep
 715              	.LVL59:
 716              		.loc 1 257 0
 717 00bc 8348     		ldr	r0, .L67+24
 718 00be FFF7FEFF 		bl	commands_set_send_func
 719              	.LVL60:
 720              		.loc 1 258 0
 721 00c2 0123     		movs	r3, #1
 722              		.loc 1 259 0
 723 00c4 3146     		mov	r1, r6
 724 00c6 5046     		mov	r0, r10
 725              		.loc 1 258 0
 726 00c8 3B70     		strb	r3, [r7]
 727              		.loc 1 259 0
 728 00ca FFF7FEFF 		bl	commands_process_packet
 729              	.LVL61:
 730              		.loc 1 260 0
 731 00ce 0023     		movs	r3, #0
 732 00d0 3B70     		strb	r3, [r7]
 733              	.LVL62:
 734              	.L44:
 735              	.LBE87:
 736              	.LBE90:
 737              		.loc 1 310 0
 738 00d2 002C     		cmp	r4, #0
 739 00d4 00F0A780 		beq	.L43
 740              		.loc 1 314 0
 741 00d8 0A20     		movs	r0, #10
ARM GAS  /var/tmp//ccH8mr4P.s 			page 14


 742 00da FFF7FEFF 		bl	chThdSleep
 743              	.LVL63:
 744              	.LBE84:
 745              		.loc 1 187 0
 746 00de AAE7     		b	.L42
 747              	.LVL64:
 748              	.L50:
 749              	.LBB92:
 750              	.LBB91:
 751              		.loc 1 267 0
 752 00e0 1420     		movs	r0, #20
 753              	.LVL65:
 754 00e2 FFF7FEFF 		bl	chThdSleep
 755              	.LVL66:
 756              		.loc 1 269 0
 757 00e6 7948     		ldr	r0, .L67+24
 758 00e8 FFF7FEFF 		bl	commands_set_send_func
 759              	.LVL67:
 760              		.loc 1 271 0
 761 00ec 0399     		ldr	r1, [sp, #12]
 762              		.loc 1 270 0
 763 00ee 0123     		movs	r3, #1
 764              		.loc 1 271 0
 765 00f0 0139     		subs	r1, r1, #1
 766 00f2 0DF11900 		add	r0, sp, #25
 767              		.loc 1 270 0
 768 00f6 3B70     		strb	r3, [r7]
 769              		.loc 1 271 0
 770 00f8 FFF7FEFF 		bl	commands_process_packet
 771              	.LVL68:
 772              		.loc 1 272 0
 773 00fc 0023     		movs	r3, #0
 774 00fe 3B70     		strb	r3, [r7]
 775              		.loc 1 273 0
 776 0100 E7E7     		b	.L44
 777              	.LVL69:
 778              	.L48:
 779              	.LBB88:
 780              		.loc 1 228 0
 781 0102 9DF81900 		ldrb	r0, [sp, #25]	@ zero_extendqisi2
 782              	.LVL70:
 783              		.loc 1 229 0
 784 0106 9DF81A30 		ldrb	r3, [sp, #26]	@ zero_extendqisi2
 785              	.LVL71:
 786 010a 43EA0023 		orr	r3, r3, r0, lsl #8
 787              	.LVL72:
 788              		.loc 1 230 0
 789 010e B3F5806F 		cmp	r3, #1024
 790 0112 DEDA     		bge	.L44
 791              		.loc 1 231 0
 792 0114 039A     		ldr	r2, [sp, #12]
 793 0116 6E48     		ldr	r0, .L67+28
 794 0118 033A     		subs	r2, r2, #3
 795 011a 1844     		add	r0, r0, r3
 796 011c 0DF11B01 		add	r1, sp, #27
 797 0120 FFF7FEFF 		bl	memcpy
 798              	.LVL73:
ARM GAS  /var/tmp//ccH8mr4P.s 			page 15


 799 0124 D5E7     		b	.L44
 800              	.LVL74:
 801              	.L47:
 802              	.LBE88:
 803              		.loc 1 224 0
 804 0126 9DF81930 		ldrb	r3, [sp, #25]	@ zero_extendqisi2
 805              	.LVL75:
 806 012a 039A     		ldr	r2, [sp, #12]
 807 012c 6848     		ldr	r0, .L67+28
 808              	.LVL76:
 809 012e 023A     		subs	r2, r2, #2
 810 0130 1844     		add	r0, r0, r3
 811 0132 0DF11A01 		add	r1, sp, #26
 812 0136 FFF7FEFF 		bl	memcpy
 813              	.LVL77:
 814              		.loc 1 225 0
 815 013a CAE7     		b	.L44
 816              	.LVL78:
 817              	.L45:
 818              		.loc 1 209 0
 819 013c 9DF81B30 		ldrb	r3, [sp, #27]	@ zero_extendqisi2
 820              	.LVL79:
 821              		.loc 1 207 0
 822 0140 644E     		ldr	r6, .L67+32
 823 0142 9DF81920 		ldrb	r2, [sp, #25]	@ zero_extendqisi2
 824 0146 3270     		strb	r2, [r6]
 825              		.loc 1 210 0
 826 0148 03F00101 		and	r1, r3, #1
 827              		.loc 1 208 0
 828 014c 9DF81A20 		ldrb	r2, [sp, #26]	@ zero_extendqisi2
 829              		.loc 1 210 0
 830 0150 B170     		strb	r1, [r6, #2]
 831              		.loc 1 211 0
 832 0152 C3F34001 		ubfx	r1, r3, #1, #1
 833              		.loc 1 208 0
 834 0156 7270     		strb	r2, [r6, #1]
 835              		.loc 1 212 0
 836 0158 C3F38003 		ubfx	r3, r3, #2, #1
 837              	.LVL80:
 838              		.loc 1 209 0
 839 015c 0422     		movs	r2, #4
 840              		.loc 1 211 0
 841 015e F170     		strb	r1, [r6, #3]
 842              		.loc 1 213 0
 843 0160 06A8     		add	r0, sp, #24
 844              	.LVL81:
 845 0162 05A9     		add	r1, sp, #20
 846              		.loc 1 212 0
 847 0164 3371     		strb	r3, [r6, #4]
 848              		.loc 1 209 0
 849 0166 0592     		str	r2, [sp, #20]
 850              		.loc 1 213 0
 851 0168 FFF7FEFF 		bl	buffer_get_int16
 852              	.LVL82:
 853 016c 07EE900A 		vmov	s15, r0	@ int
 854 0170 B8EEE77A 		vcvt.f32.s32	s14, s15
 855              		.loc 1 215 0
ARM GAS  /var/tmp//ccH8mr4P.s 			page 16


 856 0174 3378     		ldrb	r3, [r6]	@ zero_extendqisi2
 857              		.loc 1 216 0
 858 0176 7278     		ldrb	r2, [r6, #1]	@ zero_extendqisi2
 859 0178 0F92     		str	r2, [sp, #60]
 860              		.loc 1 213 0
 861 017a C7EE087A 		vdiv.f32	s15, s14, s16
 862              		.loc 1 215 0
 863 017e C3F1FF03 		rsb	r3, r3, #255
 864              		.loc 1 217 0
 865 0182 B178     		ldrb	r1, [r6, #2]	@ zero_extendqisi2
 866              		.loc 1 218 0
 867 0184 F278     		ldrb	r2, [r6, #3]	@ zero_extendqisi2
 868              		.loc 1 215 0
 869 0186 0E93     		str	r3, [sp, #56]
 870              		.loc 1 220 0
 871 0188 0EA8     		add	r0, sp, #56
 872              		.loc 1 217 0
 873 018a 8DF84C10 		strb	r1, [sp, #76]
 874              		.loc 1 218 0
 875 018e 8DF84D20 		strb	r2, [sp, #77]
 876              		.loc 1 213 0
 877 0192 C6ED027A 		vstr.32	s15, [r6, #8]
 878              		.loc 1 220 0
 879 0196 FFF7FEFF 		bl	app_nunchuk_update_output
 880              	.LVL83:
 881              		.loc 1 221 0
 882 019a 9AE7     		b	.L44
 883              	.LVL84:
 884              	.L51:
 885              	.LBB89:
 886              		.loc 1 276 0
 887 019c 0126     		movs	r6, #1
 888 019e 0596     		str	r6, [sp, #20]
 889              		.loc 1 278 0
 890 01a0 FFF7FEFF 		bl	app_get_configuration
 891              	.LVL85:
 892 01a4 C822     		movs	r2, #200
 893 01a6 0146     		mov	r1, r0
 894 01a8 0EA8     		add	r0, sp, #56
 895 01aa FFF7FEFF 		bl	memcpy
 896              	.LVL86:
 897              		.loc 1 279 0
 898 01ae 059A     		ldr	r2, [sp, #20]
 899              		.loc 1 283 0
 900 01b0 8DF8F660 		strb	r6, [sp, #246]
 901              		.loc 1 279 0
 902 01b4 40AB     		add	r3, sp, #256
 903 01b6 1344     		add	r3, r3, r2
 904              		.loc 1 282 0
 905 01b8 0432     		adds	r2, r2, #4
 906              		.loc 1 280 0
 907 01ba 13F8E7EC 		ldrb	lr, [r3, #-231]	@ zero_extendqisi2
 908              		.loc 1 281 0
 909 01be 13F8E61C 		ldrb	r1, [r3, #-230]	@ zero_extendqisi2
 910              		.loc 1 279 0
 911 01c2 13F8E80C 		ldrb	r0, [r3, #-232]	@ zero_extendqisi2
 912              		.loc 1 282 0
ARM GAS  /var/tmp//ccH8mr4P.s 			page 17


 913 01c6 0592     		str	r2, [sp, #20]
 914 01c8 13F8E52C 		ldrb	r2, [r3, #-229]	@ zero_extendqisi2
 915              		.loc 1 279 0
 916 01cc 8DF8FA00 		strb	r0, [sp, #250]
 917              		.loc 1 284 0
 918 01d0 0323     		movs	r3, #3
 919 01d2 8DF8F830 		strb	r3, [sp, #248]
 920              		.loc 1 285 0
 921 01d6 8DF8F730 		strb	r3, [sp, #247]
 922              		.loc 1 289 0
 923 01da 3F4B     		ldr	r3, .L67+36
 924              		.loc 1 280 0
 925 01dc 8DF8FBE0 		strb	lr, [sp, #251]
 926              		.loc 1 287 0
 927 01e0 4FF0000A 		mov	r10, #0
 928              		.loc 1 292 0
 929 01e4 0EA8     		add	r0, sp, #56
 930              		.loc 1 282 0
 931 01e6 8DF8F920 		strb	r2, [sp, #249]
 932              		.loc 1 289 0
 933 01ea 83F800A0 		strb	r10, [r3]
 934              		.loc 1 281 0
 935 01ee 8DF8FC10 		strb	r1, [sp, #252]
 936              		.loc 1 286 0
 937 01f2 8DF8FD60 		strb	r6, [sp, #253]
 938              		.loc 1 291 0
 939 01f6 3E70     		strb	r6, [r7]
 940              		.loc 1 287 0
 941 01f8 8DF8F4A0 		strb	r10, [sp, #244]
 942              		.loc 1 292 0
 943 01fc FFF7FEFF 		bl	conf_general_store_app_configuration
 944              	.LVL87:
 945              		.loc 1 293 0
 946 0200 0EA8     		add	r0, sp, #56
 947 0202 FFF7FEFF 		bl	app_set_configuration
 948              	.LVL88:
 949              		.loc 1 294 0
 950 0206 0EA9     		add	r1, sp, #56
 951 0208 1120     		movs	r0, #17
 952 020a FFF7FEFF 		bl	commands_send_appconf
 953              	.LVL89:
 954              		.loc 1 297 0
 955 020e 2523     		movs	r3, #37
 956              		.loc 1 299 0
 957 0210 0221     		movs	r1, #2
 958 0212 02A8     		add	r0, sp, #8
 959              		.loc 1 298 0
 960 0214 8DF80960 		strb	r6, [sp, #9]
 961              		.loc 1 297 0
 962 0218 8DF80830 		strb	r3, [sp, #8]
 963              		.loc 1 299 0
 964 021c FFF7FEFF 		bl	commands_send_packet
 965              	.LVL90:
 966              		.loc 1 301 0
 967 0220 87F800A0 		strb	r10, [r7]
 968              	.LBE89:
 969              		.loc 1 302 0
ARM GAS  /var/tmp//ccH8mr4P.s 			page 18


 970 0224 55E7     		b	.L44
 971              	.L43:
 972              	.LBE91:
 973              	.LBE92:
 974              	.LBB93:
 975              	.LBB94:
 976              		.file 3 "ChibiOS_3.0.2/os/rt/include/chvt.h"
 977              		.loc 3 231 0
 978 0226 D8F82830 		ldr	r3, [r8, #40]
 979              	.LBE94:
 980              	.LBE93:
 981              		.loc 1 318 0
 982 022a D9F80020 		ldr	r2, [r9]
 983 022e 9A42     		cmp	r2, r3
 984 0230 02D2     		bcs	.L54
 985              		.loc 1 318 0 is_stmt 0 discriminator 1
 986 0232 294B     		ldr	r3, .L67+36
 987 0234 1B78     		ldrb	r3, [r3]	@ zero_extendqisi2
 988 0236 2BBB     		cbnz	r3, .L66
 989              	.L54:
 990              		.loc 1 329 0 is_stmt 1
 991 0238 3220     		movs	r0, #50
 992 023a FFF7FEFF 		bl	chThdSleep
 993              	.LVL91:
 994              		.loc 1 332 0
 995 023e 2B68     		ldr	r3, [r5]
 996 0240 002B     		cmp	r3, #0
 997 0242 15DD     		ble	.L55
 998              		.loc 1 332 0 is_stmt 0 discriminator 1
 999 0244 DBF80020 		ldr	r2, [fp]
 1000 0248 002A     		cmp	r2, #0
 1001 024a 11DD     		ble	.L55
 1002              		.loc 1 333 0 is_stmt 1
 1003 024c 053B     		subs	r3, r3, #5
 1004              		.loc 1 334 0
 1005 024e 053A     		subs	r2, r2, #5
 1006              		.loc 1 333 0
 1007 0250 2B60     		str	r3, [r5]
 1008              		.loc 1 334 0
 1009 0252 CBF80020 		str	r2, [fp]
 1010              	.L56:
 1011              		.loc 1 178 0
 1012 0256 194B     		ldr	r3, .L67+8
 1013 0258 1B78     		ldrb	r3, [r3]	@ zero_extendqisi2
 1014 025a 002B     		cmp	r3, #0
 1015 025c 3FF4EBAE 		beq	.L42
 1016              	.LVL92:
 1017              	.L41:
 1018              		.loc 1 179 0
 1019 0260 144A     		ldr	r2, .L67
 1020 0262 0023     		movs	r3, #0
 1021 0264 1370     		strb	r3, [r2]
 1022              	.LBE98:
 1023              		.loc 1 342 0
 1024 0266 41B0     		add	sp, sp, #260
 1025              		.cfi_remember_state
 1026              		.cfi_def_cfa_offset 44
ARM GAS  /var/tmp//ccH8mr4P.s 			page 19


 1027              		@ sp needed
 1028 0268 BDEC028B 		vldm	sp!, {d8}
 1029              		.cfi_restore 80
 1030              		.cfi_restore 81
 1031              		.cfi_def_cfa_offset 36
 1032 026c BDE8F08F 		pop	{r4, r5, r6, r7, r8, r9, r10, fp, pc}
 1033              	.LVL93:
 1034              	.L55:
 1035              		.cfi_restore_state
 1036              	.LBB99:
 1037              		.loc 1 336 0
 1038 0270 FFF7FEFF 		bl	rfhelp_power_up
 1039              	.LVL94:
 1040              		.loc 1 337 0
 1041 0274 FFF7FEFF 		bl	rfhelp_restart
 1042              	.LVL95:
 1043              		.loc 1 338 0
 1044 0278 4FF4FA73 		mov	r3, #500
 1045 027c 2B60     		str	r3, [r5]
 1046              		.loc 1 339 0
 1047 027e CBF80030 		str	r3, [fp]
 1048 0282 E8E7     		b	.L56
 1049              	.L66:
 1050              	.LBB95:
 1051              		.loc 1 319 0
 1052 0284 144A     		ldr	r2, .L67+36
 1053 0286 0023     		movs	r3, #0
 1054 0288 1370     		strb	r3, [r2]
 1055              		.loc 1 320 0
 1056 028a FFF7FEFF 		bl	app_get_configuration
 1057              	.LVL96:
 1058 028e BC30     		adds	r0, r0, #188
 1059 0290 07C8     		ldm	r0, {r0, r1, r2}
 1060 0292 0EAB     		add	r3, sp, #56
 1061 0294 03C3     		stmia	r3!, {r0, r1}
 1062              		.loc 1 321 0
 1063 0296 0EA8     		add	r0, sp, #56
 1064              		.loc 1 320 0
 1065 0298 1A80     		strh	r2, [r3]	@ movhi
 1066              		.loc 1 321 0
 1067 029a FFF7FEFF 		bl	rfhelp_update_conf
 1068              	.LVL97:
 1069              		.loc 1 325 0
 1070 029e 0223     		movs	r3, #2
 1071              		.loc 1 324 0
 1072 02a0 2522     		movs	r2, #37
 1073              		.loc 1 326 0
 1074 02a2 1946     		mov	r1, r3
 1075 02a4 05A8     		add	r0, sp, #20
 1076              		.loc 1 325 0
 1077 02a6 8DF81530 		strb	r3, [sp, #21]
 1078              		.loc 1 324 0
 1079 02aa 8DF81420 		strb	r2, [sp, #20]
 1080              		.loc 1 326 0
 1081 02ae FFF7FEFF 		bl	commands_send_packet
 1082              	.LVL98:
 1083 02b2 C1E7     		b	.L54
ARM GAS  /var/tmp//ccH8mr4P.s 			page 20


 1084              	.L68:
 1085              		.align	2
 1086              	.L67:
 1087 02b4 00000000 		.word	.LANCHOR5
 1088 02b8 00000000 		.word	.LC1
 1089 02bc 00000000 		.word	.LANCHOR6
 1090 02c0 00000000 		.word	.LANCHOR7
 1091 02c4 00000000 		.word	.LANCHOR10
 1092 02c8 00007A44 		.word	1148846080
 1093 02cc 00000000 		.word	nrf_driver_send_buffer
 1094 02d0 00000000 		.word	.LANCHOR9
 1095 02d4 00000000 		.word	.LANCHOR8
 1096 02d8 00000000 		.word	.LANCHOR3
 1097 02dc 00000000 		.word	ch
 1098 02e0 00000000 		.word	.LANCHOR11
 1099 02e4 00000000 		.word	.LANCHOR4
 1100              	.LBE95:
 1101              	.LBE99:
 1102              		.cfi_endproc
 1103              	.LFE224:
 1104              		.size	rx_thread, .-rx_thread
 1105              		.section	.text.nrf_driver_stop.part.0,"ax",%progbits
 1106              		.align	1
 1107              		.p2align 4,,15
 1108              		.syntax unified
 1109              		.thumb
 1110              		.thumb_func
 1111              		.fpu fpv4-sp-d16
 1112              		.type	nrf_driver_stop.part.0, %function
 1113              	nrf_driver_stop.part.0:
 1114              	.LFB226:
 1115              		.loc 1 92 0
 1116              		.cfi_startproc
 1117              		@ args = 0, pretend = 0, frame = 0
 1118              		@ frame_needed = 0, uses_anonymous_args = 0
 1119              		.loc 1 97 0
 1120 0000 0D49     		ldr	r1, .L81
 1121              		.loc 1 98 0
 1122 0002 0E4A     		ldr	r2, .L81+4
 1123              		.loc 1 92 0
 1124 0004 38B5     		push	{r3, r4, r5, lr}
 1125              		.cfi_def_cfa_offset 16
 1126              		.cfi_offset 3, -16
 1127              		.cfi_offset 4, -12
 1128              		.cfi_offset 5, -8
 1129              		.cfi_offset 14, -4
 1130              		.loc 1 97 0
 1131 0006 0123     		movs	r3, #1
 1132              		.loc 1 100 0
 1133 0008 0D4C     		ldr	r4, .L81+8
 1134              		.loc 1 97 0
 1135 000a 0B70     		strb	r3, [r1]
 1136              		.loc 1 98 0
 1137 000c 1370     		strb	r3, [r2]
 1138              		.loc 1 100 0
 1139 000e 2378     		ldrb	r3, [r4]	@ zero_extendqisi2
 1140 0010 0C4D     		ldr	r5, .L81+12
ARM GAS  /var/tmp//ccH8mr4P.s 			page 21


 1141 0012 0BB9     		cbnz	r3, .L70
 1142 0014 2B78     		ldrb	r3, [r5]	@ zero_extendqisi2
 1143 0016 33B1     		cbz	r3, .L72
 1144              	.L70:
 1145              		.loc 1 101 0
 1146 0018 FFF7FEFF 		bl	rfhelp_stop
 1147              	.LVL99:
 1148              		.loc 1 104 0
 1149 001c 2378     		ldrb	r3, [r4]	@ zero_extendqisi2
 1150              		.loc 1 105 0
 1151 001e 0A20     		movs	r0, #10
 1152              		.loc 1 104 0
 1153 0020 2BB1     		cbz	r3, .L80
 1154              	.L73:
 1155              		.loc 1 105 0
 1156 0022 FFF7FEFF 		bl	chThdSleep
 1157              	.LVL100:
 1158              	.L72:
 1159              		.loc 1 104 0
 1160 0026 2378     		ldrb	r3, [r4]	@ zero_extendqisi2
 1161              		.loc 1 105 0
 1162 0028 0A20     		movs	r0, #10
 1163              		.loc 1 104 0
 1164 002a 002B     		cmp	r3, #0
 1165 002c F9D1     		bne	.L73
 1166              	.L80:
 1167 002e 2B78     		ldrb	r3, [r5]	@ zero_extendqisi2
 1168 0030 002B     		cmp	r3, #0
 1169 0032 F6D1     		bne	.L73
 1170              		.loc 1 107 0
 1171 0034 38BD     		pop	{r3, r4, r5, pc}
 1172              	.L82:
 1173 0036 00BF     		.align	2
 1174              	.L81:
 1175 0038 00000000 		.word	.LANCHOR1
 1176 003c 00000000 		.word	.LANCHOR6
 1177 0040 00000000 		.word	.LANCHOR5
 1178 0044 00000000 		.word	.LANCHOR0
 1179              		.cfi_endproc
 1180              	.LFE226:
 1181              		.size	nrf_driver_stop.part.0, .-nrf_driver_stop.part.0
 1182              		.section	.text.nrf_driver_init,"ax",%progbits
 1183              		.align	1
 1184              		.p2align 4,,15
 1185              		.global	nrf_driver_init
 1186              		.syntax unified
 1187              		.thumb
 1188              		.thumb_func
 1189              		.fpu fpv4-sp-d16
 1190              		.type	nrf_driver_init, %function
 1191              	nrf_driver_init:
 1192              	.LFB219:
 1193              		.loc 1 64 0
 1194              		.cfi_startproc
 1195              		@ args = 0, pretend = 0, frame = 0
 1196              		@ frame_needed = 0, uses_anonymous_args = 0
 1197 0000 F0B5     		push	{r4, r5, r6, r7, lr}
ARM GAS  /var/tmp//ccH8mr4P.s 			page 22


 1198              		.cfi_def_cfa_offset 20
 1199              		.cfi_offset 4, -20
 1200              		.cfi_offset 5, -16
 1201              		.cfi_offset 6, -12
 1202              		.cfi_offset 7, -8
 1203              		.cfi_offset 14, -4
 1204              		.loc 1 65 0
 1205 0002 1F4A     		ldr	r2, .L92
 1206 0004 1378     		ldrb	r3, [r2]	@ zero_extendqisi2
 1207              		.loc 1 64 0
 1208 0006 83B0     		sub	sp, sp, #12
 1209              		.cfi_def_cfa_offset 32
 1210              		.loc 1 65 0
 1211 0008 03F0FF04 		and	r4, r3, #255
 1212 000c 33B9     		cbnz	r3, .L84
 1213              	.LBB100:
 1214              	.LBB101:
 1215              		.loc 1 93 0
 1216 000e 1378     		ldrb	r3, [r2]	@ zero_extendqisi2
 1217 0010 002B     		cmp	r3, #0
 1218 0012 2DD0     		beq	.L90
 1219              	.LBE101:
 1220              	.LBE100:
 1221              		.loc 1 71 0
 1222 0014 FFF7FEFF 		bl	rfhelp_init
 1223              	.LVL101:
 1224 0018 0446     		mov	r4, r0
 1225 001a 10B9     		cbnz	r0, .L91
 1226              	.L84:
 1227              		.loc 1 90 0
 1228 001c 2046     		mov	r0, r4
 1229 001e 03B0     		add	sp, sp, #12
 1230              		.cfi_remember_state
 1231              		.cfi_def_cfa_offset 20
 1232              		@ sp needed
 1233 0020 F0BD     		pop	{r4, r5, r6, r7, pc}
 1234              	.L91:
 1235              		.cfi_restore_state
 1236              		.loc 1 82 0
 1237 0022 184E     		ldr	r6, .L92+4
 1238              		.loc 1 75 0
 1239 0024 184B     		ldr	r3, .L92+8
 1240              		.loc 1 76 0
 1241 0026 194A     		ldr	r2, .L92+12
 1242              		.loc 1 77 0
 1243 0028 1949     		ldr	r1, .L92+16
 1244              		.loc 1 79 0
 1245 002a 1A48     		ldr	r0, .L92+20
 1246              		.loc 1 80 0
 1247 002c 1A4F     		ldr	r7, .L92+24
 1248              		.loc 1 75 0
 1249 002e 0025     		movs	r5, #0
 1250              		.loc 1 84 0
 1251 0030 0095     		str	r5, [sp]
 1252              		.loc 1 82 0
 1253 0032 3570     		strb	r5, [r6]
 1254              		.loc 1 83 0
ARM GAS  /var/tmp//ccH8mr4P.s 			page 23


 1255 0034 194E     		ldr	r6, .L92+28
 1256              		.loc 1 75 0
 1257 0036 1D60     		str	r5, [r3]
 1258              		.loc 1 76 0
 1259 0038 1560     		str	r5, [r2]
 1260              		.loc 1 77 0
 1261 003a 0D60     		str	r5, [r1]
 1262              		.loc 1 79 0
 1263 003c 0560     		str	r5, [r0]
 1264              		.loc 1 84 0
 1265 003e 184B     		ldr	r3, .L92+32
 1266              		.loc 1 80 0
 1267 0040 3D70     		strb	r5, [r7]
 1268              		.loc 1 84 0
 1269 0042 3F22     		movs	r2, #63
 1270 0044 40F69811 		movw	r1, #2456
 1271              		.loc 1 83 0
 1272 0048 3570     		strb	r5, [r6]
 1273              		.loc 1 84 0
 1274 004a 1648     		ldr	r0, .L92+36
 1275 004c FFF7FEFF 		bl	chThdCreateStatic
 1276              	.LVL102:
 1277              		.loc 1 85 0
 1278 0050 0095     		str	r5, [sp]
 1279 0052 154B     		ldr	r3, .L92+40
 1280 0054 1548     		ldr	r0, .L92+44
 1281 0056 3F22     		movs	r2, #63
 1282 0058 4FF46671 		mov	r1, #920
 1283 005c FFF7FEFF 		bl	chThdCreateStatic
 1284              	.LVL103:
 1285              		.loc 1 86 0
 1286 0060 1349     		ldr	r1, .L92+48
 1287              		.loc 1 87 0
 1288 0062 144A     		ldr	r2, .L92+52
 1289              		.loc 1 86 0
 1290 0064 0123     		movs	r3, #1
 1291              		.loc 1 90 0
 1292 0066 2046     		mov	r0, r4
 1293              		.loc 1 86 0
 1294 0068 0B70     		strb	r3, [r1]
 1295              		.loc 1 87 0
 1296 006a 1370     		strb	r3, [r2]
 1297              		.loc 1 90 0
 1298 006c 03B0     		add	sp, sp, #12
 1299              		.cfi_remember_state
 1300              		.cfi_def_cfa_offset 20
 1301              		@ sp needed
 1302 006e F0BD     		pop	{r4, r5, r6, r7, pc}
 1303              	.L90:
 1304              		.cfi_restore_state
 1305              	.LBB103:
 1306              	.LBB102:
 1307 0070 FFF7FEFF 		bl	nrf_driver_stop.part.0
 1308              	.LVL104:
 1309              	.LBE102:
 1310              	.LBE103:
 1311              		.loc 1 71 0
ARM GAS  /var/tmp//ccH8mr4P.s 			page 24


 1312 0074 FFF7FEFF 		bl	rfhelp_init
 1313              	.LVL105:
 1314 0078 0446     		mov	r4, r0
 1315 007a 0028     		cmp	r0, #0
 1316 007c CED0     		beq	.L84
 1317 007e D0E7     		b	.L91
 1318              	.L93:
 1319              		.align	2
 1320              	.L92:
 1321 0080 00000000 		.word	.LANCHOR10
 1322 0084 00000000 		.word	.LANCHOR6
 1323 0088 00000000 		.word	.LANCHOR2
 1324 008c 00000000 		.word	.LANCHOR7
 1325 0090 00000000 		.word	.LANCHOR4
 1326 0094 00000000 		.word	.LANCHOR11
 1327 0098 00000000 		.word	.LANCHOR3
 1328 009c 00000000 		.word	.LANCHOR1
 1329 00a0 00000000 		.word	rx_thread
 1330 00a4 00000000 		.word	.LANCHOR12
 1331 00a8 00000000 		.word	tx_thread
 1332 00ac 00000000 		.word	.LANCHOR13
 1333 00b0 00000000 		.word	.LANCHOR5
 1334 00b4 00000000 		.word	.LANCHOR0
 1335              		.cfi_endproc
 1336              	.LFE219:
 1337              		.size	nrf_driver_init, .-nrf_driver_init
 1338              		.section	.text.nrf_driver_stop,"ax",%progbits
 1339              		.align	1
 1340              		.p2align 4,,15
 1341              		.global	nrf_driver_stop
 1342              		.syntax unified
 1343              		.thumb
 1344              		.thumb_func
 1345              		.fpu fpv4-sp-d16
 1346              		.type	nrf_driver_stop, %function
 1347              	nrf_driver_stop:
 1348              	.LFB220:
 1349              		.loc 1 92 0
 1350              		.cfi_startproc
 1351              		@ args = 0, pretend = 0, frame = 0
 1352              		@ frame_needed = 0, uses_anonymous_args = 0
 1353              		@ link register save eliminated.
 1354              		.loc 1 93 0
 1355 0000 024B     		ldr	r3, .L96
 1356 0002 1B78     		ldrb	r3, [r3]	@ zero_extendqisi2
 1357 0004 0BB9     		cbnz	r3, .L94
 1358 0006 FFF7FEBF 		b	nrf_driver_stop.part.0
 1359              	.LVL106:
 1360              	.L94:
 1361 000a 7047     		bx	lr
 1362              	.L97:
 1363              		.align	2
 1364              	.L96:
 1365 000c 00000000 		.word	.LANCHOR10
 1366              		.cfi_endproc
 1367              	.LFE220:
 1368              		.size	nrf_driver_stop, .-nrf_driver_stop
ARM GAS  /var/tmp//ccH8mr4P.s 			page 25


 1369              		.section	.text.nrf_driver_start_pairing,"ax",%progbits
 1370              		.align	1
 1371              		.p2align 4,,15
 1372              		.global	nrf_driver_start_pairing
 1373              		.syntax unified
 1374              		.thumb
 1375              		.thumb_func
 1376              		.fpu fpv4-sp-d16
 1377              		.type	nrf_driver_start_pairing, %function
 1378              	nrf_driver_start_pairing:
 1379              	.LFB221:
 1380              		.loc 1 109 0
 1381              		.cfi_startproc
 1382              		@ args = 0, pretend = 0, frame = 16
 1383              		@ frame_needed = 0, uses_anonymous_args = 0
 1384              	.LVL107:
 1385              		.loc 1 110 0
 1386 0000 1F4B     		ldr	r3, .L107
 1387 0002 1B78     		ldrb	r3, [r3]	@ zero_extendqisi2
 1388 0004 002B     		cmp	r3, #0
 1389 0006 39D0     		beq	.L103
 1390              		.loc 1 109 0
 1391 0008 70B5     		push	{r4, r5, r6, lr}
 1392              		.cfi_def_cfa_offset 16
 1393              		.cfi_offset 4, -16
 1394              		.cfi_offset 5, -12
 1395              		.cfi_offset 6, -8
 1396              		.cfi_offset 14, -4
 1397              		.loc 1 114 0
 1398 000a 42F21073 		movw	r3, #10000
 1399              	.LBB104:
 1400              	.LBB105:
 1401              		.loc 3 231 0
 1402 000e 1D4A     		ldr	r2, .L107+4
 1403              	.LBE105:
 1404              	.LBE104:
 1405              		.loc 1 114 0
 1406 0010 1D4E     		ldr	r6, .L107+8
 1407              		.loc 1 116 0
 1408 0012 1E49     		ldr	r1, .L107+12
 1409              	.LBB107:
 1410              	.LBB106:
 1411              		.loc 3 231 0
 1412 0014 926A     		ldr	r2, [r2, #40]
 1413              	.LBE106:
 1414              	.LBE107:
 1415              		.loc 1 114 0
 1416 0016 1E4D     		ldr	r5, .L107+16
 1417              		.loc 1 116 0
 1418 0018 0C78     		ldrb	r4, [r1]	@ zero_extendqisi2
 1419              		.loc 1 114 0
 1420 001a 03FB00F0 		mul	r0, r3, r0
 1421              	.LVL108:
 1422 001e 00F2E730 		addw	r0, r0, #999
 1423 0022 A6FB0030 		umull	r3, r0, r6, r0
 1424 0026 02EB9010 		add	r0, r2, r0, lsr #6
 1425              		.loc 1 109 0
ARM GAS  /var/tmp//ccH8mr4P.s 			page 26


 1426 002a 84B0     		sub	sp, sp, #16
 1427              		.cfi_def_cfa_offset 32
 1428              		.loc 1 114 0
 1429 002c 2860     		str	r0, [r5]
 1430              		.loc 1 116 0
 1431 002e 0CB1     		cbz	r4, .L106
 1432              		.loc 1 132 0
 1433 0030 04B0     		add	sp, sp, #16
 1434              		.cfi_remember_state
 1435              		.cfi_def_cfa_offset 16
 1436              		@ sp needed
 1437 0032 70BD     		pop	{r4, r5, r6, pc}
 1438              	.L106:
 1439              		.cfi_restore_state
 1440              	.LBB108:
 1441              		.loc 1 117 0 discriminator 2
 1442 0034 0125     		movs	r5, #1
 1443 0036 0D70     		strb	r5, [r1]
 1444              		.loc 1 119 0 discriminator 2
 1445 0038 FFF7FEFF 		bl	app_get_configuration
 1446              	.LVL109:
 1447 003c BC30     		adds	r0, r0, #188
 1448 003e 07C8     		ldm	r0, {r0, r1, r2}
 1449              		.loc 1 128 0 discriminator 2
 1450 0040 04AA     		add	r2, sp, #16
 1451              		.loc 1 119 0 discriminator 2
 1452 0042 01AB     		add	r3, sp, #4
 1453 0044 03C3     		stmia	r3!, {r0, r1}
 1454              		.loc 1 128 0 discriminator 2
 1455 0046 02F80C4D 		strb	r4, [r2, #-12]!
 1456              		.loc 1 125 0 discriminator 2
 1457 004a 0323     		movs	r3, #3
 1458              		.loc 1 130 0 discriminator 2
 1459 004c 1046     		mov	r0, r2
 1460              		.loc 1 121 0 discriminator 2
 1461 004e C521     		movs	r1, #197
 1462              		.loc 1 123 0 discriminator 2
 1463 0050 7C22     		movs	r2, #124
 1464              		.loc 1 120 0 discriminator 2
 1465 0052 C626     		movs	r6, #198
 1466              		.loc 1 127 0 discriminator 2
 1467 0054 8DF80D50 		strb	r5, [sp, #13]
 1468              		.loc 1 122 0 discriminator 2
 1469 0058 8DF80C40 		strb	r4, [sp, #12]
 1470              		.loc 1 124 0 discriminator 2
 1471 005c 8DF80650 		strb	r5, [sp, #6]
 1472              		.loc 1 120 0 discriminator 2
 1473 0060 8DF80A60 		strb	r6, [sp, #10]
 1474              		.loc 1 121 0 discriminator 2
 1475 0064 8DF80B10 		strb	r1, [sp, #11]
 1476              		.loc 1 123 0 discriminator 2
 1477 0068 8DF80920 		strb	r2, [sp, #9]
 1478              		.loc 1 125 0 discriminator 2
 1479 006c 8DF80830 		strb	r3, [sp, #8]
 1480              		.loc 1 126 0 discriminator 2
 1481 0070 8DF80730 		strb	r3, [sp, #7]
 1482              		.loc 1 130 0 discriminator 2
ARM GAS  /var/tmp//ccH8mr4P.s 			page 27


 1483 0074 FFF7FEFF 		bl	rfhelp_update_conf
 1484              	.LVL110:
 1485              	.LBE108:
 1486              		.loc 1 132 0 discriminator 2
 1487 0078 04B0     		add	sp, sp, #16
 1488              		.cfi_def_cfa_offset 16
 1489              		@ sp needed
 1490 007a 70BD     		pop	{r4, r5, r6, pc}
 1491              	.LVL111:
 1492              	.L103:
 1493              		.cfi_def_cfa_offset 0
 1494              		.cfi_restore 4
 1495              		.cfi_restore 5
 1496              		.cfi_restore 6
 1497              		.cfi_restore 14
 1498 007c 7047     		bx	lr
 1499              	.L108:
 1500 007e 00BF     		.align	2
 1501              	.L107:
 1502 0080 00000000 		.word	.LANCHOR5
 1503 0084 00000000 		.word	ch
 1504 0088 D34D6210 		.word	274877907
 1505 008c 00000000 		.word	.LANCHOR3
 1506 0090 00000000 		.word	.LANCHOR11
 1507              		.cfi_endproc
 1508              	.LFE221:
 1509              		.size	nrf_driver_start_pairing, .-nrf_driver_start_pairing
 1510              		.section	.bss.from_nrf,"aw",%nobits
 1511              		.set	.LANCHOR10,. + 0
 1512              		.type	from_nrf, %object
 1513              		.size	from_nrf, 1
 1514              	from_nrf:
 1515 0000 00       		.space	1
 1516              		.section	.bss.mstate,"aw",%nobits
 1517              		.align	2
 1518              		.set	.LANCHOR8,. + 0
 1519              		.type	mstate, %object
 1520              		.size	mstate, 12
 1521              	mstate:
 1522 0000 00000000 		.space	12
 1522      00000000 
 1522      00000000 
 1523              		.section	.bss.nosend_cnt,"aw",%nobits
 1524              		.align	2
 1525              		.set	.LANCHOR2,. + 0
 1526              		.type	nosend_cnt, %object
 1527              		.size	nosend_cnt, 4
 1528              	nosend_cnt:
 1529 0000 00000000 		.space	4
 1530              		.section	.bss.nrf_restart_rx_time,"aw",%nobits
 1531              		.align	2
 1532              		.set	.LANCHOR7,. + 0
 1533              		.type	nrf_restart_rx_time, %object
 1534              		.size	nrf_restart_rx_time, 4
 1535              	nrf_restart_rx_time:
 1536 0000 00000000 		.space	4
 1537              		.section	.bss.nrf_restart_tx_time,"aw",%nobits
ARM GAS  /var/tmp//ccH8mr4P.s 			page 28


 1538              		.align	2
 1539              		.set	.LANCHOR4,. + 0
 1540              		.type	nrf_restart_tx_time, %object
 1541              		.size	nrf_restart_tx_time, 4
 1542              	nrf_restart_tx_time:
 1543 0000 00000000 		.space	4
 1544              		.section	.bss.pairing_active,"aw",%nobits
 1545              		.set	.LANCHOR3,. + 0
 1546              		.type	pairing_active, %object
 1547              		.size	pairing_active, 1
 1548              	pairing_active:
 1549 0000 00       		.space	1
 1550              		.section	.bss.pairing_time_end,"aw",%nobits
 1551              		.align	2
 1552              		.set	.LANCHOR11,. + 0
 1553              		.type	pairing_time_end, %object
 1554              		.size	pairing_time_end, 4
 1555              	pairing_time_end:
 1556 0000 00000000 		.space	4
 1557              		.section	.bss.rx_buffer,"aw",%nobits
 1558              		.align	2
 1559              		.set	.LANCHOR9,. + 0
 1560              		.type	rx_buffer, %object
 1561              		.size	rx_buffer, 1024
 1562              	rx_buffer:
 1563 0000 00000000 		.space	1024
 1563      00000000 
 1563      00000000 
 1563      00000000 
 1563      00000000 
 1564              		.section	.bss.rx_running,"aw",%nobits
 1565              		.set	.LANCHOR5,. + 0
 1566              		.type	rx_running, %object
 1567              		.size	rx_running, 1
 1568              	rx_running:
 1569 0000 00       		.space	1
 1570              		.section	.bss.rx_thread_wa,"aw",%nobits
 1571              		.align	3
 1572              		.set	.LANCHOR12,. + 0
 1573              		.type	rx_thread_wa, %object
 1574              		.size	rx_thread_wa, 2456
 1575              	rx_thread_wa:
 1576 0000 00000000 		.space	2456
 1576      00000000 
 1576      00000000 
 1576      00000000 
 1576      00000000 
 1577              		.section	.bss.tx_running,"aw",%nobits
 1578              		.set	.LANCHOR0,. + 0
 1579              		.type	tx_running, %object
 1580              		.size	tx_running, 1
 1581              	tx_running:
 1582 0000 00       		.space	1
 1583              		.section	.bss.tx_thread_wa,"aw",%nobits
 1584              		.align	3
 1585              		.set	.LANCHOR13,. + 0
 1586              		.type	tx_thread_wa, %object
ARM GAS  /var/tmp//ccH8mr4P.s 			page 29


 1587              		.size	tx_thread_wa, 920
 1588              	tx_thread_wa:
 1589 0000 00000000 		.space	920
 1589      00000000 
 1589      00000000 
 1589      00000000 
 1589      00000000 
 1590              		.section	.data.rx_stop,"aw",%progbits
 1591              		.set	.LANCHOR6,. + 0
 1592              		.type	rx_stop, %object
 1593              		.size	rx_stop, 1
 1594              	rx_stop:
 1595 0000 01       		.byte	1
 1596              		.section	.data.tx_stop,"aw",%progbits
 1597              		.set	.LANCHOR1,. + 0
 1598              		.type	tx_stop, %object
 1599              		.size	tx_stop, 1
 1600              	tx_stop:
 1601 0000 01       		.byte	1
 1602              		.section	.rodata.rx_thread.str1.4,"aMS",%progbits,1
 1603              		.align	2
 1604              	.LC1:
 1605 0000 4E726620 		.ascii	"Nrf RX\000"
 1605      525800
 1606              		.section	.rodata.tx_thread.str1.4,"aMS",%progbits,1
 1607              		.align	2
 1608              	.LC0:
 1609 0000 4E726620 		.ascii	"Nrf TX\000"
 1609      545800
 1610              		.text
 1611              	.Letext0:
 1612              		.file 4 "/usr/local/gcc_arm/gcc-arm-none-eabi-6-2017-q2-update/lib/gcc/arm-none-eabi/6.3.1/include
 1613              		.file 5 "/usr/local/gcc_arm/gcc-arm-none-eabi-6-2017-q2-update/arm-none-eabi/include/machine/_defa
 1614              		.file 6 "/usr/local/gcc_arm/gcc-arm-none-eabi-6-2017-q2-update/arm-none-eabi/include/sys/lock.h"
 1615              		.file 7 "/usr/local/gcc_arm/gcc-arm-none-eabi-6-2017-q2-update/arm-none-eabi/include/sys/_types.h"
 1616              		.file 8 "/usr/local/gcc_arm/gcc-arm-none-eabi-6-2017-q2-update/arm-none-eabi/include/sys/reent.h"
 1617              		.file 9 "/usr/local/gcc_arm/gcc-arm-none-eabi-6-2017-q2-update/arm-none-eabi/include/sys/_stdint.h
 1618              		.file 10 "ChibiOS_3.0.2/os/rt/ports/ARMCMx/compilers/GCC/chtypes.h"
 1619              		.file 11 "ChibiOS_3.0.2/os/rt/include/chsystypes.h"
 1620              		.file 12 "ChibiOS_3.0.2/os/rt/include/chschd.h"
 1621              		.file 13 "ChibiOS_3.0.2/os/ext/CMSIS/include/core_cm4.h"
 1622              		.file 14 "ChibiOS_3.0.2/os/ext/CMSIS/ST/system_stm32f4xx.h"
 1623              		.file 15 "ChibiOS_3.0.2/os/rt/ports/ARMCMx/chcore.h"
 1624              		.file 16 "ChibiOS_3.0.2/os/rt/ports/ARMCMx/chcore_v7m.h"
 1625              		.file 17 "ChibiOS_3.0.2/os/rt/include/chtm.h"
 1626              		.file 18 "ChibiOS_3.0.2/os/rt/include/chsem.h"
 1627              		.file 19 "ChibiOS_3.0.2/os/rt/include/chmtx.h"
 1628              		.file 20 "./datatypes.h"
 1629              		.file 21 "./conf_general.h"
 1630              		.file 22 "nrf/rfhelp.h"
 1631              		.file 23 "./crc.h"
 1632              		.file 24 "ChibiOS_3.0.2/os/rt/include/chthreads.h"
 1633              		.file 25 "./commands.h"
 1634              		.file 26 "applications/app.h"
 1635              		.file 27 "./buffer.h"