ARM GAS  /var/tmp//cc4OxsgC.s 			page 1


   1              		.cpu cortex-m4
   2              		.eabi_attribute 27, 1
   3              		.eabi_attribute 28, 1
   4              		.eabi_attribute 20, 1
   5              		.eabi_attribute 21, 1
   6              		.eabi_attribute 23, 3
   7              		.eabi_attribute 24, 1
   8              		.eabi_attribute 25, 1
   9              		.eabi_attribute 26, 1
  10              		.eabi_attribute 30, 2
  11              		.eabi_attribute 34, 1
  12              		.eabi_attribute 18, 4
  13              		.file	"packet.c"
  14              		.text
  15              	.Ltext0:
  16              		.cfi_sections	.debug_frame
  17              		.section	.text.packet_init,"ax",%progbits
  18              		.align	1
  19              		.p2align 4,,15
  20              		.global	packet_init
  21              		.syntax unified
  22              		.thumb
  23              		.thumb_func
  24              		.fpu fpv4-sp-d16
  25              		.type	packet_init, %function
  26              	packet_init:
  27              	.LFB0:
  28              		.file 1 "packet.c"
  29              		.loc 1 40 0
  30              		.cfi_startproc
  31              		@ args = 0, pretend = 0, frame = 0
  32              		@ frame_needed = 0, uses_anonymous_args = 0
  33              		@ link register save eliminated.
  34              	.LVL0:
  35              		.loc 1 41 0
  36 0000 034B     		ldr	r3, .L2
  37 0002 02EB8212 		add	r2, r2, r2, lsl #6
  38              	.LVL1:
  39 0006 03EB4212 		add	r2, r3, r2, lsl #5
  40 000a 5060     		str	r0, [r2, #4]
  41              		.loc 1 42 0
  42 000c 9160     		str	r1, [r2, #8]
  43 000e 7047     		bx	lr
  44              	.L3:
  45              		.align	2
  46              	.L2:
  47 0010 00000000 		.word	.LANCHOR0
  48              		.cfi_endproc
  49              	.LFE0:
  50              		.size	packet_init, .-packet_init
  51              		.section	.text.packet_send_packet,"ax",%progbits
  52              		.align	1
  53              		.p2align 4,,15
  54              		.global	packet_send_packet
  55              		.syntax unified
  56              		.thumb
  57              		.thumb_func
ARM GAS  /var/tmp//cc4OxsgC.s 			page 2


  58              		.fpu fpv4-sp-d16
  59              		.type	packet_send_packet, %function
  60              	packet_send_packet:
  61              	.LFB1:
  62              		.loc 1 45 0
  63              		.cfi_startproc
  64              		@ args = 0, pretend = 0, frame = 0
  65              		@ frame_needed = 0, uses_anonymous_args = 0
  66              	.LVL2:
  67              		.loc 1 46 0
  68 0000 B1F5806F 		cmp	r1, #1024
  69 0004 3CD8     		bhi	.L14
  70              	.LVL3:
  71              		.loc 1 45 0
  72 0006 2DE9F047 		push	{r4, r5, r6, r7, r8, r9, r10, lr}
  73              		.cfi_def_cfa_offset 32
  74              		.cfi_offset 4, -32
  75              		.cfi_offset 5, -28
  76              		.cfi_offset 6, -24
  77              		.cfi_offset 7, -20
  78              		.cfi_offset 8, -16
  79              		.cfi_offset 9, -12
  80              		.cfi_offset 10, -8
  81              		.cfi_offset 14, -4
  82              		.loc 1 53 0
  83 000a 9301     		lsls	r3, r2, #6
  84 000c 1D4E     		ldr	r6, .L19
  85 000e 9C18     		adds	r4, r3, r2
  86              		.loc 1 52 0
  87 0010 B1F5807F 		cmp	r1, #256
  88              		.loc 1 53 0
  89 0014 06EB4414 		add	r4, r6, r4, lsl #5
  90              		.loc 1 52 0
  91 0018 2AD9     		bls	.L18
  92              	.LVL4:
  93              		.loc 1 57 0
  94 001a 0D0A     		lsrs	r5, r1, #8
  95              		.loc 1 56 0
  96 001c 0327     		movs	r7, #3
  97              		.loc 1 58 0
  98 001e 84F81214 		strb	r1, [r4, #1042]
  99              		.loc 1 57 0
 100 0022 84F81154 		strb	r5, [r4, #1041]
 101              		.loc 1 56 0
 102 0026 84F81074 		strb	r7, [r4, #1040]
 103              	.LVL5:
 104              	.L8:
 105              		.loc 1 61 0
 106 002a 1344     		add	r3, r3, r2
 107 002c 5C01     		lsls	r4, r3, #5
 108 002e 04F58269 		add	r9, r4, #1040
 109 0032 8046     		mov	r8, r0
 110 0034 B144     		add	r9, r9, r6
 111 0036 0A46     		mov	r2, r1
 112              	.LVL6:
 113 0038 0D46     		mov	r5, r1
 114 003a 09EB0700 		add	r0, r9, r7
ARM GAS  /var/tmp//cc4OxsgC.s 			page 3


 115              	.LVL7:
 116 003e 4146     		mov	r1, r8
 117              	.LVL8:
 118 0040 FFF7FEFF 		bl	memcpy
 119              	.LVL9:
 120              		.loc 1 64 0
 121 0044 2946     		mov	r1, r5
 122 0046 4046     		mov	r0, r8
 123 0048 FFF7FEFF 		bl	crc16
 124              	.LVL10:
 125              		.loc 1 65 0
 126 004c 3444     		add	r4, r4, r6
 127              		.loc 1 62 0
 128 004e E919     		adds	r1, r5, r7
 129              	.LVL11:
 130              		.loc 1 65 0
 131 0050 6318     		adds	r3, r4, r1
 132              		.loc 1 69 0
 133 0052 6268     		ldr	r2, [r4, #4]
 134              		.loc 1 66 0
 135 0054 83F81104 		strb	r0, [r3, #1041]
 136              		.loc 1 67 0
 137 0058 0324     		movs	r4, #3
 138              		.loc 1 65 0
 139 005a 000A     		lsrs	r0, r0, #8
 140              	.LVL12:
 141 005c 83F81004 		strb	r0, [r3, #1040]
 142              	.LVL13:
 143              		.loc 1 67 0
 144 0060 2144     		add	r1, r1, r4
 145              	.LVL14:
 146 0062 83F81244 		strb	r4, [r3, #1042]
 147              		.loc 1 69 0
 148 0066 4AB1     		cbz	r2, .L4
 149              		.loc 1 70 0
 150 0068 4846     		mov	r0, r9
 151              		.loc 1 72 0
 152 006a BDE8F047 		pop	{r4, r5, r6, r7, r8, r9, r10, lr}
 153              		.cfi_remember_state
 154              		.cfi_restore 14
 155              		.cfi_restore 10
 156              		.cfi_restore 9
 157              		.cfi_restore 8
 158              		.cfi_restore 7
 159              		.cfi_restore 6
 160              		.cfi_restore 5
 161              		.cfi_restore 4
 162              		.cfi_def_cfa_offset 0
 163              	.LVL15:
 164              		.loc 1 70 0
 165 006e 1047     		bx	r2	@ indirect register sibling call
 166              	.LVL16:
 167              	.L18:
 168              		.cfi_restore_state
 169              		.loc 1 53 0
 170 0070 0227     		movs	r7, #2
 171              		.loc 1 54 0
ARM GAS  /var/tmp//cc4OxsgC.s 			page 4


 172 0072 84F81114 		strb	r1, [r4, #1041]
 173              		.loc 1 53 0
 174 0076 84F81074 		strb	r7, [r4, #1040]
 175              	.LVL17:
 176 007a D6E7     		b	.L8
 177              	.LVL18:
 178              	.L4:
 179 007c BDE8F087 		pop	{r4, r5, r6, r7, r8, r9, r10, pc}
 180              	.LVL19:
 181              	.L14:
 182              		.cfi_def_cfa_offset 0
 183              		.cfi_restore 4
 184              		.cfi_restore 5
 185              		.cfi_restore 6
 186              		.cfi_restore 7
 187              		.cfi_restore 8
 188              		.cfi_restore 9
 189              		.cfi_restore 10
 190              		.cfi_restore 14
 191 0080 7047     		bx	lr
 192              	.L20:
 193 0082 00BF     		.align	2
 194              	.L19:
 195 0084 00000000 		.word	.LANCHOR0
 196              		.cfi_endproc
 197              	.LFE1:
 198              		.size	packet_send_packet, .-packet_send_packet
 199              		.section	.text.packet_timerfunc,"ax",%progbits
 200              		.align	1
 201              		.p2align 4,,15
 202              		.global	packet_timerfunc
 203              		.syntax unified
 204              		.thumb
 205              		.thumb_func
 206              		.fpu fpv4-sp-d16
 207              		.type	packet_timerfunc, %function
 208              	packet_timerfunc:
 209              	.LFB2:
 210              		.loc 1 77 0
 211              		.cfi_startproc
 212              		@ args = 0, pretend = 0, frame = 0
 213              		@ frame_needed = 0, uses_anonymous_args = 0
 214              		@ link register save eliminated.
 215              	.LVL20:
 216              	.LBB2:
 217              		.loc 1 79 0
 218 0000 0E4B     		ldr	r3, .L27
 219 0002 5A88     		ldrh	r2, [r3, #2]
 220 0004 92B2     		uxth	r2, r2
 221 0006 72B9     		cbnz	r2, .L22
 222              	.LVL21:
 223              		.loc 1 82 0
 224 0008 1A70     		strb	r2, [r3]
 225              		.loc 1 79 0
 226 000a B3F82228 		ldrh	r2, [r3, #2082]
 227 000e 92B2     		uxth	r2, r2
 228 0010 32B1     		cbz	r2, .L26
ARM GAS  /var/tmp//cc4OxsgC.s 			page 5


 229              	.L24:
 230              		.loc 1 80 0
 231 0012 B3F82228 		ldrh	r2, [r3, #2082]
 232 0016 013A     		subs	r2, r2, #1
 233 0018 92B2     		uxth	r2, r2
 234 001a A3F82228 		strh	r2, [r3, #2082]	@ movhi
 235              	.LVL22:
 236 001e 7047     		bx	lr
 237              	.LVL23:
 238              	.L26:
 239              		.loc 1 82 0
 240 0020 83F82028 		strb	r2, [r3, #2080]
 241 0024 7047     		bx	lr
 242              	.LVL24:
 243              	.L22:
 244              		.loc 1 80 0
 245 0026 5A88     		ldrh	r2, [r3, #2]
 246 0028 013A     		subs	r2, r2, #1
 247 002a 92B2     		uxth	r2, r2
 248 002c 5A80     		strh	r2, [r3, #2]	@ movhi
 249              	.LVL25:
 250              		.loc 1 79 0
 251 002e B3F82228 		ldrh	r2, [r3, #2082]
 252 0032 92B2     		uxth	r2, r2
 253 0034 002A     		cmp	r2, #0
 254 0036 ECD1     		bne	.L24
 255 0038 F2E7     		b	.L26
 256              	.L28:
 257 003a 00BF     		.align	2
 258              	.L27:
 259 003c 00000000 		.word	.LANCHOR0
 260              	.LBE2:
 261              		.cfi_endproc
 262              	.LFE2:
 263              		.size	packet_timerfunc, .-packet_timerfunc
 264              		.section	.text.packet_process_byte,"ax",%progbits
 265              		.align	1
 266              		.p2align 4,,15
 267              		.global	packet_process_byte
 268              		.syntax unified
 269              		.thumb
 270              		.thumb_func
 271              		.fpu fpv4-sp-d16
 272              		.type	packet_process_byte, %function
 273              	packet_process_byte:
 274              	.LFB3:
 275              		.loc 1 87 0
 276              		.cfi_startproc
 277              		@ args = 0, pretend = 0, frame = 0
 278              		@ frame_needed = 0, uses_anonymous_args = 0
 279              	.LVL26:
 280 0000 2DE9F041 		push	{r4, r5, r6, r7, r8, lr}
 281              		.cfi_def_cfa_offset 24
 282              		.cfi_offset 4, -24
 283              		.cfi_offset 5, -20
 284              		.cfi_offset 6, -16
 285              		.cfi_offset 7, -12
ARM GAS  /var/tmp//cc4OxsgC.s 			page 6


 286              		.cfi_offset 8, -8
 287              		.cfi_offset 14, -4
 288              		.loc 1 88 0
 289 0004 8E01     		lsls	r6, r1, #6
 290 0006 7318     		adds	r3, r6, r1
 291 0008 5B01     		lsls	r3, r3, #5
 292 000a 4B4D     		ldr	r5, .L57
 293 000c EB5C     		ldrb	r3, [r5, r3]	@ zero_extendqisi2
 294 000e 062B     		cmp	r3, #6
 295 0010 63D8     		bhi	.L30
 296 0012 DFE803F0 		tbb	[pc, r3]
 297              	.L32:
 298 0016 0D       		.byte	(.L31-.L32)/2
 299 0017 18       		.byte	(.L33-.L32)/2
 300 0018 26       		.byte	(.L34-.L32)/2
 301 0019 39       		.byte	(.L35-.L32)/2
 302 001a 54       		.byte	(.L36-.L32)/2
 303 001b 5B       		.byte	(.L37-.L32)/2
 304 001c 04       		.byte	(.L38-.L32)/2
 305 001d 00       		.p2align 1
 306              	.L38:
 307              		.loc 1 145 0
 308 001e 0328     		cmp	r0, #3
 309 0020 0C46     		mov	r4, r1
 310 0022 72D0     		beq	.L54
 311              	.LVL27:
 312              	.L45:
 313              		.loc 1 156 0
 314 0024 3444     		add	r4, r4, r6
 315              	.LVL28:
 316 0026 6401     		lsls	r4, r4, #5
 317 0028 0023     		movs	r3, #0
 318 002a 2B55     		strb	r3, [r5, r4]
 319              		.loc 1 157 0
 320 002c BDE8F081 		pop	{r4, r5, r6, r7, r8, pc}
 321              	.LVL29:
 322              	.L31:
 323              		.loc 1 92 0
 324 0030 3144     		add	r1, r1, r6
 325              	.LVL30:
 326              		.loc 1 90 0
 327 0032 0228     		cmp	r0, #2
 328              		.loc 1 92 0
 329 0034 4FEA4111 		lsl	r1, r1, #5
 330              		.loc 1 90 0
 331 0038 63D0     		beq	.L55
 332              		.loc 1 96 0
 333 003a 0328     		cmp	r0, #3
 334 003c 53D0     		beq	.L56
 335              	.LVL31:
 336              	.L52:
 337              		.loc 1 160 0
 338 003e 0023     		movs	r3, #0
 339 0040 6B54     		strb	r3, [r5, r1]
 340 0042 BDE8F081 		pop	{r4, r5, r6, r7, r8, pc}
 341              	.LVL32:
 342              	.L33:
ARM GAS  /var/tmp//cc4OxsgC.s 			page 7


 343              		.loc 1 108 0
 344 0046 3144     		add	r1, r1, r6
 345              	.LVL33:
 346 0048 4901     		lsls	r1, r1, #5
 347 004a 6A18     		adds	r2, r5, r1
 348              		.loc 1 109 0
 349 004c 6B5C     		ldrb	r3, [r5, r1]	@ zero_extendqisi2
 350 004e 0133     		adds	r3, r3, #1
 351 0050 DBB2     		uxtb	r3, r3
 352 0052 6B54     		strb	r3, [r5, r1]
 353              		.loc 1 108 0
 354 0054 0002     		lsls	r0, r0, #8
 355              	.LVL34:
 356              		.loc 1 110 0
 357 0056 4FF47A74 		mov	r4, #1000
 358              		.loc 1 108 0
 359 005a D060     		str	r0, [r2, #12]
 360              		.loc 1 110 0
 361 005c 5480     		strh	r4, [r2, #2]	@ movhi
 362              		.loc 1 111 0
 363 005e BDE8F081 		pop	{r4, r5, r6, r7, r8, pc}
 364              	.LVL35:
 365              	.L34:
 366              		.loc 1 114 0
 367 0062 3144     		add	r1, r1, r6
 368              	.LVL36:
 369 0064 4901     		lsls	r1, r1, #5
 370 0066 6A18     		adds	r2, r5, r1
 371 0068 D368     		ldr	r3, [r2, #12]
 372 006a 1843     		orrs	r0, r0, r3
 373              	.LVL37:
 374              		.loc 1 115 0
 375 006c 431E     		subs	r3, r0, #1
 376 006e B3F5806F 		cmp	r3, #1024
 377              		.loc 1 114 0
 378 0072 D060     		str	r0, [r2, #12]
 379              		.loc 1 115 0
 380 0074 E3D2     		bcs	.L52
 381              		.loc 1 117 0
 382 0076 6B5C     		ldrb	r3, [r5, r1]	@ zero_extendqisi2
 383              	.L53:
 384              		.loc 1 140 0
 385 0078 0133     		adds	r3, r3, #1
 386 007a DBB2     		uxtb	r3, r3
 387 007c 6B54     		strb	r3, [r5, r1]
 388              		.loc 1 141 0
 389 007e 4FF47A70 		mov	r0, #1000
 390 0082 5080     		strh	r0, [r2, #2]	@ movhi
 391              		.loc 1 142 0
 392 0084 BDE8F081 		pop	{r4, r5, r6, r7, r8, pc}
 393              	.LVL38:
 394              	.L35:
 395              		.loc 1 125 0
 396 0088 7418     		adds	r4, r6, r1
 397 008a 6401     		lsls	r4, r4, #5
 398 008c 2A19     		adds	r2, r5, r4
 399 008e D2F81838 		ldr	r3, [r2, #2072]
ARM GAS  /var/tmp//cc4OxsgC.s 			page 8


 400              		.loc 1 126 0
 401 0092 D768     		ldr	r7, [r2, #12]
 402              		.loc 1 125 0
 403 0094 02EB030E 		add	lr, r2, r3
 404 0098 0133     		adds	r3, r3, #1
 405              		.loc 1 126 0
 406 009a BB42     		cmp	r3, r7
 407              		.loc 1 125 0
 408 009c 8EF81000 		strb	r0, [lr, #16]
 409 00a0 C2F81838 		str	r3, [r2, #2072]
 410              		.loc 1 126 0
 411 00a4 03D1     		bne	.L43
 412              		.loc 1 127 0
 413 00a6 2B5D     		ldrb	r3, [r5, r4]	@ zero_extendqisi2
 414 00a8 0133     		adds	r3, r3, #1
 415 00aa DBB2     		uxtb	r3, r3
 416 00ac 2B55     		strb	r3, [r5, r4]
 417              	.L43:
 418              		.loc 1 129 0
 419 00ae 3144     		add	r1, r1, r6
 420              	.LVL39:
 421 00b0 05EB4115 		add	r5, r5, r1, lsl #5
 422 00b4 4FF47A73 		mov	r3, #1000
 423 00b8 6B80     		strh	r3, [r5, #2]	@ movhi
 424              		.loc 1 130 0
 425 00ba BDE8F081 		pop	{r4, r5, r6, r7, r8, pc}
 426              	.LVL40:
 427              	.L36:
 428              		.loc 1 133 0
 429 00be 3144     		add	r1, r1, r6
 430              	.LVL41:
 431 00c0 4901     		lsls	r1, r1, #5
 432 00c2 6A18     		adds	r2, r5, r1
 433              		.loc 1 134 0
 434 00c4 6B5C     		ldrb	r3, [r5, r1]	@ zero_extendqisi2
 435              		.loc 1 133 0
 436 00c6 82F81D08 		strb	r0, [r2, #2077]
 437 00ca D5E7     		b	.L53
 438              	.LVL42:
 439              	.L37:
 440              		.loc 1 139 0
 441 00cc 3144     		add	r1, r1, r6
 442              	.LVL43:
 443 00ce 4901     		lsls	r1, r1, #5
 444 00d0 6A18     		adds	r2, r5, r1
 445              		.loc 1 140 0
 446 00d2 6B5C     		ldrb	r3, [r5, r1]	@ zero_extendqisi2
 447              		.loc 1 139 0
 448 00d4 82F81C08 		strb	r0, [r2, #2076]
 449 00d8 CEE7     		b	.L53
 450              	.LVL44:
 451              	.L30:
 452              		.loc 1 160 0
 453 00da 3144     		add	r1, r1, r6
 454              	.LVL45:
 455 00dc 4901     		lsls	r1, r1, #5
 456 00de 0023     		movs	r3, #0
ARM GAS  /var/tmp//cc4OxsgC.s 			page 9


 457 00e0 6B54     		strb	r3, [r5, r1]
 458 00e2 BDE8F081 		pop	{r4, r5, r6, r7, r8, pc}
 459              	.L56:
 460              		.loc 1 98 0
 461 00e6 6B5C     		ldrb	r3, [r5, r1]	@ zero_extendqisi2
 462 00e8 6A18     		adds	r2, r5, r1
 463 00ea 0133     		adds	r3, r3, #1
 464              	.L51:
 465 00ec DBB2     		uxtb	r3, r3
 466 00ee 6B54     		strb	r3, [r5, r1]
 467              		.loc 1 100 0
 468 00f0 0020     		movs	r0, #0
 469              	.LVL46:
 470              		.loc 1 99 0
 471 00f2 4FF47A74 		mov	r4, #1000
 472              		.loc 1 100 0
 473 00f6 C2F81808 		str	r0, [r2, #2072]
 474              		.loc 1 99 0
 475 00fa 5480     		strh	r4, [r2, #2]	@ movhi
 476              		.loc 1 101 0
 477 00fc D060     		str	r0, [r2, #12]
 478 00fe BDE8F081 		pop	{r4, r5, r6, r7, r8, pc}
 479              	.LVL47:
 480              	.L55:
 481              		.loc 1 92 0
 482 0102 6B5C     		ldrb	r3, [r5, r1]	@ zero_extendqisi2
 483 0104 6A18     		adds	r2, r5, r1
 484 0106 0233     		adds	r3, r3, #2
 485 0108 F0E7     		b	.L51
 486              	.LVL48:
 487              	.L54:
 488 010a 7718     		adds	r7, r6, r1
 489 010c 7F01     		lsls	r7, r7, #5
 490              		.loc 1 146 0
 491 010e 07F11008 		add	r8, r7, #16
 492 0112 2F44     		add	r7, r7, r5
 493 0114 A844     		add	r8, r8, r5
 494 0116 4046     		mov	r0, r8
 495              	.LVL49:
 496 0118 F968     		ldr	r1, [r7, #12]
 497              	.LVL50:
 498 011a FFF7FEFF 		bl	crc16
 499              	.LVL51:
 500 011e B7F81C38 		ldrh	r3, [r7, #2076]
 501 0122 8342     		cmp	r3, r0
 502 0124 7FF47EAF 		bne	.L45
 503              		.loc 1 150 0
 504 0128 BB68     		ldr	r3, [r7, #8]
 505 012a 002B     		cmp	r3, #0
 506 012c 3FF47AAF 		beq	.L45
 507              		.loc 1 151 0
 508 0130 F968     		ldr	r1, [r7, #12]
 509 0132 4046     		mov	r0, r8
 510 0134 9847     		blx	r3
 511              	.LVL52:
 512 0136 75E7     		b	.L45
 513              	.L58:
ARM GAS  /var/tmp//cc4OxsgC.s 			page 10


 514              		.align	2
 515              	.L57:
 516 0138 00000000 		.word	.LANCHOR0
 517              		.cfi_endproc
 518              	.LFE3:
 519              		.size	packet_process_byte, .-packet_process_byte
 520              		.section	.bss.handler_states,"aw",%nobits
 521              		.align	2
 522              		.set	.LANCHOR0,. + 0
 523              		.type	handler_states, %object
 524              		.size	handler_states, 4160
 525              	handler_states:
 526 0000 00000000 		.space	4160
 526      00000000 
 526      00000000 
 526      00000000 
 526      00000000 
 527              		.text
 528              	.Letext0:
 529              		.file 2 "/usr/local/gcc_arm/gcc-arm-none-eabi-6-2017-q2-update/arm-none-eabi/include/machine/_defa
 530              		.file 3 "/usr/local/gcc_arm/gcc-arm-none-eabi-6-2017-q2-update/arm-none-eabi/include/sys/lock.h"
 531              		.file 4 "/usr/local/gcc_arm/gcc-arm-none-eabi-6-2017-q2-update/arm-none-eabi/include/sys/_types.h"
 532              		.file 5 "/usr/local/gcc_arm/gcc-arm-none-eabi-6-2017-q2-update/lib/gcc/arm-none-eabi/6.3.1/include
 533              		.file 6 "/usr/local/gcc_arm/gcc-arm-none-eabi-6-2017-q2-update/arm-none-eabi/include/sys/reent.h"
 534              		.file 7 "/usr/local/gcc_arm/gcc-arm-none-eabi-6-2017-q2-update/arm-none-eabi/include/sys/_stdint.h
 535              		.file 8 "crc.h"
 536              		.section	.debug_info,"",%progbits
 537              	.Ldebug_info0:
 538 0000 280B0000 		.4byte	0xb28
 539 0004 0400     		.2byte	0x4
 540 0006 00000000 		.4byte	.Ldebug_abbrev0
 541 000a 04       		.byte	0x4
 542 000b 01       		.uleb128 0x1
 543 000c D5020000 		.4byte	.LASF145
 544 0010 0C       		.byte	0xc
 545 0011 21050000 		.4byte	.LASF146
 546 0015 77020000 		.4byte	.LASF147
 547 0019 00000000 		.4byte	.Ldebug_ranges0+0
 548 001d 00000000 		.4byte	0
 549 0021 00000000 		.4byte	.Ldebug_line0
 550 0025 02       		.uleb128 0x2
 551 0026 04       		.byte	0x4
 552 0027 05       		.byte	0x5
 553 0028 696E7400 		.ascii	"int\000"
 554 002c 03       		.uleb128 0x3
 555 002d 04       		.byte	0x4
 556 002e 07       		.byte	0x7
 557 002f DF010000 		.4byte	.LASF0
 558 0033 03       		.uleb128 0x3
 559 0034 01       		.byte	0x1
 560 0035 06       		.byte	0x6
 561 0036 C8000000 		.4byte	.LASF1
 562 003a 04       		.uleb128 0x4
 563 003b 47000000 		.4byte	.LASF9
 564 003f 02       		.byte	0x2
 565 0040 2B       		.byte	0x2b
 566 0041 45000000 		.4byte	0x45
ARM GAS  /var/tmp//cc4OxsgC.s 			page 11


 567 0045 03       		.uleb128 0x3
 568 0046 01       		.byte	0x1
 569 0047 08       		.byte	0x8
 570 0048 9F040000 		.4byte	.LASF2
 571 004c 05       		.uleb128 0x5
 572 004d 45000000 		.4byte	0x45
 573 0051 03       		.uleb128 0x3
 574 0052 02       		.byte	0x2
 575 0053 05       		.byte	0x5
 576 0054 BB040000 		.4byte	.LASF3
 577 0058 03       		.uleb128 0x3
 578 0059 02       		.byte	0x2
 579 005a 07       		.byte	0x7
 580 005b 34020000 		.4byte	.LASF4
 581 005f 05       		.uleb128 0x5
 582 0060 58000000 		.4byte	0x58
 583 0064 03       		.uleb128 0x3
 584 0065 04       		.byte	0x4
 585 0066 05       		.byte	0x5
 586 0067 0D010000 		.4byte	.LASF5
 587 006b 03       		.uleb128 0x3
 588 006c 04       		.byte	0x4
 589 006d 07       		.byte	0x7
 590 006e 10020000 		.4byte	.LASF6
 591 0072 03       		.uleb128 0x3
 592 0073 08       		.byte	0x8
 593 0074 05       		.byte	0x5
 594 0075 BA000000 		.4byte	.LASF7
 595 0079 03       		.uleb128 0x3
 596 007a 08       		.byte	0x8
 597 007b 07       		.byte	0x7
 598 007c 77000000 		.4byte	.LASF8
 599 0080 04       		.uleb128 0x4
 600 0081 A4020000 		.4byte	.LASF10
 601 0085 03       		.byte	0x3
 602 0086 22       		.byte	0x22
 603 0087 8B000000 		.4byte	0x8b
 604 008b 06       		.uleb128 0x6
 605 008c 04       		.byte	0x4
 606 008d 91000000 		.4byte	0x91
 607 0091 07       		.uleb128 0x7
 608 0092 7E050000 		.4byte	.LASF118
 609 0096 04       		.uleb128 0x4
 610 0097 38040000 		.4byte	.LASF11
 611 009b 04       		.byte	0x4
 612 009c 2C       		.byte	0x2c
 613 009d 64000000 		.4byte	0x64
 614 00a1 04       		.uleb128 0x4
 615 00a2 9F050000 		.4byte	.LASF12
 616 00a6 04       		.byte	0x4
 617 00a7 72       		.byte	0x72
 618 00a8 64000000 		.4byte	0x64
 619 00ac 08       		.uleb128 0x8
 620 00ad AC020000 		.4byte	.LASF13
 621 00b1 05       		.byte	0x5
 622 00b2 6501     		.2byte	0x165
 623 00b4 2C000000 		.4byte	0x2c
ARM GAS  /var/tmp//cc4OxsgC.s 			page 12


 624 00b8 09       		.uleb128 0x9
 625 00b9 04       		.byte	0x4
 626 00ba 04       		.byte	0x4
 627 00bb A6       		.byte	0xa6
 628 00bc D7000000 		.4byte	0xd7
 629 00c0 0A       		.uleb128 0xa
 630 00c1 71020000 		.4byte	.LASF14
 631 00c5 04       		.byte	0x4
 632 00c6 A8       		.byte	0xa8
 633 00c7 AC000000 		.4byte	0xac
 634 00cb 0A       		.uleb128 0xa
 635 00cc EC010000 		.4byte	.LASF15
 636 00d0 04       		.byte	0x4
 637 00d1 A9       		.byte	0xa9
 638 00d2 D7000000 		.4byte	0xd7
 639 00d6 00       		.byte	0
 640 00d7 0B       		.uleb128 0xb
 641 00d8 45000000 		.4byte	0x45
 642 00dc E7000000 		.4byte	0xe7
 643 00e0 0C       		.uleb128 0xc
 644 00e1 E7000000 		.4byte	0xe7
 645 00e5 03       		.byte	0x3
 646 00e6 00       		.byte	0
 647 00e7 03       		.uleb128 0x3
 648 00e8 04       		.byte	0x4
 649 00e9 07       		.byte	0x7
 650 00ea 0C040000 		.4byte	.LASF16
 651 00ee 0D       		.uleb128 0xd
 652 00ef 08       		.byte	0x8
 653 00f0 04       		.byte	0x4
 654 00f1 A3       		.byte	0xa3
 655 00f2 0F010000 		.4byte	0x10f
 656 00f6 0E       		.uleb128 0xe
 657 00f7 76050000 		.4byte	.LASF17
 658 00fb 04       		.byte	0x4
 659 00fc A5       		.byte	0xa5
 660 00fd 25000000 		.4byte	0x25
 661 0101 00       		.byte	0
 662 0102 0E       		.uleb128 0xe
 663 0103 85050000 		.4byte	.LASF18
 664 0107 04       		.byte	0x4
 665 0108 AA       		.byte	0xaa
 666 0109 B8000000 		.4byte	0xb8
 667 010d 04       		.byte	0x4
 668 010e 00       		.byte	0
 669 010f 04       		.uleb128 0x4
 670 0110 E3040000 		.4byte	.LASF19
 671 0114 04       		.byte	0x4
 672 0115 AB       		.byte	0xab
 673 0116 EE000000 		.4byte	0xee
 674 011a 04       		.uleb128 0x4
 675 011b 9B010000 		.4byte	.LASF20
 676 011f 04       		.byte	0x4
 677 0120 AF       		.byte	0xaf
 678 0121 80000000 		.4byte	0x80
 679 0125 0F       		.uleb128 0xf
 680 0126 04       		.byte	0x4
ARM GAS  /var/tmp//cc4OxsgC.s 			page 13


 681 0127 06       		.uleb128 0x6
 682 0128 04       		.byte	0x4
 683 0129 2D010000 		.4byte	0x12d
 684 012d 03       		.uleb128 0x3
 685 012e 01       		.byte	0x1
 686 012f 08       		.byte	0x8
 687 0130 B7050000 		.4byte	.LASF21
 688 0134 10       		.uleb128 0x10
 689 0135 2D010000 		.4byte	0x12d
 690 0139 04       		.uleb128 0x4
 691 013a 09060000 		.4byte	.LASF22
 692 013e 06       		.byte	0x6
 693 013f 16       		.byte	0x16
 694 0140 6B000000 		.4byte	0x6b
 695 0144 11       		.uleb128 0x11
 696 0145 AC010000 		.4byte	.LASF27
 697 0149 18       		.byte	0x18
 698 014a 06       		.byte	0x6
 699 014b 2F       		.byte	0x2f
 700 014c 97010000 		.4byte	0x197
 701 0150 0E       		.uleb128 0xe
 702 0151 E8050000 		.4byte	.LASF23
 703 0155 06       		.byte	0x6
 704 0156 31       		.byte	0x31
 705 0157 97010000 		.4byte	0x197
 706 015b 00       		.byte	0
 707 015c 12       		.uleb128 0x12
 708 015d 5F6B00   		.ascii	"_k\000"
 709 0160 06       		.byte	0x6
 710 0161 32       		.byte	0x32
 711 0162 25000000 		.4byte	0x25
 712 0166 04       		.byte	0x4
 713 0167 0E       		.uleb128 0xe
 714 0168 55050000 		.4byte	.LASF24
 715 016c 06       		.byte	0x6
 716 016d 32       		.byte	0x32
 717 016e 25000000 		.4byte	0x25
 718 0172 08       		.byte	0x8
 719 0173 0E       		.uleb128 0xe
 720 0174 95010000 		.4byte	.LASF25
 721 0178 06       		.byte	0x6
 722 0179 32       		.byte	0x32
 723 017a 25000000 		.4byte	0x25
 724 017e 0C       		.byte	0xc
 725 017f 0E       		.uleb128 0xe
 726 0180 48060000 		.4byte	.LASF26
 727 0184 06       		.byte	0x6
 728 0185 32       		.byte	0x32
 729 0186 25000000 		.4byte	0x25
 730 018a 10       		.byte	0x10
 731 018b 12       		.uleb128 0x12
 732 018c 5F7800   		.ascii	"_x\000"
 733 018f 06       		.byte	0x6
 734 0190 33       		.byte	0x33
 735 0191 9D010000 		.4byte	0x19d
 736 0195 14       		.byte	0x14
 737 0196 00       		.byte	0
ARM GAS  /var/tmp//cc4OxsgC.s 			page 14


 738 0197 06       		.uleb128 0x6
 739 0198 04       		.byte	0x4
 740 0199 44010000 		.4byte	0x144
 741 019d 0B       		.uleb128 0xb
 742 019e 39010000 		.4byte	0x139
 743 01a2 AD010000 		.4byte	0x1ad
 744 01a6 0C       		.uleb128 0xc
 745 01a7 E7000000 		.4byte	0xe7
 746 01ab 00       		.byte	0
 747 01ac 00       		.byte	0
 748 01ad 11       		.uleb128 0x11
 749 01ae D3010000 		.4byte	.LASF28
 750 01b2 24       		.byte	0x24
 751 01b3 06       		.byte	0x6
 752 01b4 37       		.byte	0x37
 753 01b5 26020000 		.4byte	0x226
 754 01b9 0E       		.uleb128 0xe
 755 01ba B1000000 		.4byte	.LASF29
 756 01be 06       		.byte	0x6
 757 01bf 39       		.byte	0x39
 758 01c0 25000000 		.4byte	0x25
 759 01c4 00       		.byte	0
 760 01c5 0E       		.uleb128 0xe
 761 01c6 BC050000 		.4byte	.LASF30
 762 01ca 06       		.byte	0x6
 763 01cb 3A       		.byte	0x3a
 764 01cc 25000000 		.4byte	0x25
 765 01d0 04       		.byte	0x4
 766 01d1 0E       		.uleb128 0xe
 767 01d2 E0000000 		.4byte	.LASF31
 768 01d6 06       		.byte	0x6
 769 01d7 3B       		.byte	0x3b
 770 01d8 25000000 		.4byte	0x25
 771 01dc 08       		.byte	0x8
 772 01dd 0E       		.uleb128 0xe
 773 01de D0060000 		.4byte	.LASF32
 774 01e2 06       		.byte	0x6
 775 01e3 3C       		.byte	0x3c
 776 01e4 25000000 		.4byte	0x25
 777 01e8 0C       		.byte	0xc
 778 01e9 0E       		.uleb128 0xe
 779 01ea 1C040000 		.4byte	.LASF33
 780 01ee 06       		.byte	0x6
 781 01ef 3D       		.byte	0x3d
 782 01f0 25000000 		.4byte	0x25
 783 01f4 10       		.byte	0x10
 784 01f5 0E       		.uleb128 0xe
 785 01f6 F9030000 		.4byte	.LASF34
 786 01fa 06       		.byte	0x6
 787 01fb 3E       		.byte	0x3e
 788 01fc 25000000 		.4byte	0x25
 789 0200 14       		.byte	0x14
 790 0201 0E       		.uleb128 0xe
 791 0202 4D060000 		.4byte	.LASF35
 792 0206 06       		.byte	0x6
 793 0207 3F       		.byte	0x3f
 794 0208 25000000 		.4byte	0x25
ARM GAS  /var/tmp//cc4OxsgC.s 			page 15


 795 020c 18       		.byte	0x18
 796 020d 0E       		.uleb128 0xe
 797 020e C5040000 		.4byte	.LASF36
 798 0212 06       		.byte	0x6
 799 0213 40       		.byte	0x40
 800 0214 25000000 		.4byte	0x25
 801 0218 1C       		.byte	0x1c
 802 0219 0E       		.uleb128 0xe
 803 021a 88060000 		.4byte	.LASF37
 804 021e 06       		.byte	0x6
 805 021f 41       		.byte	0x41
 806 0220 25000000 		.4byte	0x25
 807 0224 20       		.byte	0x20
 808 0225 00       		.byte	0
 809 0226 13       		.uleb128 0x13
 810 0227 EF000000 		.4byte	.LASF38
 811 022b 0801     		.2byte	0x108
 812 022d 06       		.byte	0x6
 813 022e 4A       		.byte	0x4a
 814 022f 66020000 		.4byte	0x266
 815 0233 0E       		.uleb128 0xe
 816 0234 6F010000 		.4byte	.LASF39
 817 0238 06       		.byte	0x6
 818 0239 4B       		.byte	0x4b
 819 023a 66020000 		.4byte	0x266
 820 023e 00       		.byte	0
 821 023f 0E       		.uleb128 0xe
 822 0240 00000000 		.4byte	.LASF40
 823 0244 06       		.byte	0x6
 824 0245 4C       		.byte	0x4c
 825 0246 66020000 		.4byte	0x266
 826 024a 80       		.byte	0x80
 827 024b 14       		.uleb128 0x14
 828 024c FB050000 		.4byte	.LASF41
 829 0250 06       		.byte	0x6
 830 0251 4E       		.byte	0x4e
 831 0252 39010000 		.4byte	0x139
 832 0256 0001     		.2byte	0x100
 833 0258 14       		.uleb128 0x14
 834 0259 1D010000 		.4byte	.LASF42
 835 025d 06       		.byte	0x6
 836 025e 51       		.byte	0x51
 837 025f 39010000 		.4byte	0x139
 838 0263 0401     		.2byte	0x104
 839 0265 00       		.byte	0
 840 0266 0B       		.uleb128 0xb
 841 0267 25010000 		.4byte	0x125
 842 026b 76020000 		.4byte	0x276
 843 026f 0C       		.uleb128 0xc
 844 0270 E7000000 		.4byte	0xe7
 845 0274 1F       		.byte	0x1f
 846 0275 00       		.byte	0
 847 0276 13       		.uleb128 0x13
 848 0277 25040000 		.4byte	.LASF43
 849 027b 9001     		.2byte	0x190
 850 027d 06       		.byte	0x6
 851 027e 5D       		.byte	0x5d
ARM GAS  /var/tmp//cc4OxsgC.s 			page 16


 852 027f B4020000 		.4byte	0x2b4
 853 0283 0E       		.uleb128 0xe
 854 0284 E8050000 		.4byte	.LASF23
 855 0288 06       		.byte	0x6
 856 0289 5E       		.byte	0x5e
 857 028a B4020000 		.4byte	0x2b4
 858 028e 00       		.byte	0
 859 028f 0E       		.uleb128 0xe
 860 0290 1C050000 		.4byte	.LASF44
 861 0294 06       		.byte	0x6
 862 0295 5F       		.byte	0x5f
 863 0296 25000000 		.4byte	0x25
 864 029a 04       		.byte	0x4
 865 029b 0E       		.uleb128 0xe
 866 029c 7D010000 		.4byte	.LASF45
 867 02a0 06       		.byte	0x6
 868 02a1 61       		.byte	0x61
 869 02a2 BA020000 		.4byte	0x2ba
 870 02a6 08       		.byte	0x8
 871 02a7 0E       		.uleb128 0xe
 872 02a8 EF000000 		.4byte	.LASF38
 873 02ac 06       		.byte	0x6
 874 02ad 62       		.byte	0x62
 875 02ae 26020000 		.4byte	0x226
 876 02b2 88       		.byte	0x88
 877 02b3 00       		.byte	0
 878 02b4 06       		.uleb128 0x6
 879 02b5 04       		.byte	0x4
 880 02b6 76020000 		.4byte	0x276
 881 02ba 0B       		.uleb128 0xb
 882 02bb CA020000 		.4byte	0x2ca
 883 02bf CA020000 		.4byte	0x2ca
 884 02c3 0C       		.uleb128 0xc
 885 02c4 E7000000 		.4byte	0xe7
 886 02c8 1F       		.byte	0x1f
 887 02c9 00       		.byte	0
 888 02ca 06       		.uleb128 0x6
 889 02cb 04       		.byte	0x4
 890 02cc D0020000 		.4byte	0x2d0
 891 02d0 15       		.uleb128 0x15
 892 02d1 11       		.uleb128 0x11
 893 02d2 CF040000 		.4byte	.LASF46
 894 02d6 08       		.byte	0x8
 895 02d7 06       		.byte	0x6
 896 02d8 75       		.byte	0x75
 897 02d9 F6020000 		.4byte	0x2f6
 898 02dd 0E       		.uleb128 0xe
 899 02de DA000000 		.4byte	.LASF47
 900 02e2 06       		.byte	0x6
 901 02e3 76       		.byte	0x76
 902 02e4 F6020000 		.4byte	0x2f6
 903 02e8 00       		.byte	0
 904 02e9 0E       		.uleb128 0xe
 905 02ea 16000000 		.4byte	.LASF48
 906 02ee 06       		.byte	0x6
 907 02ef 77       		.byte	0x77
 908 02f0 25000000 		.4byte	0x25
ARM GAS  /var/tmp//cc4OxsgC.s 			page 17


 909 02f4 04       		.byte	0x4
 910 02f5 00       		.byte	0
 911 02f6 06       		.uleb128 0x6
 912 02f7 04       		.byte	0x4
 913 02f8 45000000 		.4byte	0x45
 914 02fc 11       		.uleb128 0x11
 915 02fd EE040000 		.4byte	.LASF49
 916 0301 68       		.byte	0x68
 917 0302 06       		.byte	0x6
 918 0303 B5       		.byte	0xb5
 919 0304 26040000 		.4byte	0x426
 920 0308 12       		.uleb128 0x12
 921 0309 5F7000   		.ascii	"_p\000"
 922 030c 06       		.byte	0x6
 923 030d B6       		.byte	0xb6
 924 030e F6020000 		.4byte	0x2f6
 925 0312 00       		.byte	0
 926 0313 12       		.uleb128 0x12
 927 0314 5F7200   		.ascii	"_r\000"
 928 0317 06       		.byte	0x6
 929 0318 B7       		.byte	0xb7
 930 0319 25000000 		.4byte	0x25
 931 031d 04       		.byte	0x4
 932 031e 12       		.uleb128 0x12
 933 031f 5F7700   		.ascii	"_w\000"
 934 0322 06       		.byte	0x6
 935 0323 B8       		.byte	0xb8
 936 0324 25000000 		.4byte	0x25
 937 0328 08       		.byte	0x8
 938 0329 0E       		.uleb128 0xe
 939 032a 16010000 		.4byte	.LASF50
 940 032e 06       		.byte	0x6
 941 032f B9       		.byte	0xb9
 942 0330 51000000 		.4byte	0x51
 943 0334 0C       		.byte	0xc
 944 0335 0E       		.uleb128 0xe
 945 0336 22020000 		.4byte	.LASF51
 946 033a 06       		.byte	0x6
 947 033b BA       		.byte	0xba
 948 033c 51000000 		.4byte	0x51
 949 0340 0E       		.byte	0xe
 950 0341 12       		.uleb128 0x12
 951 0342 5F626600 		.ascii	"_bf\000"
 952 0346 06       		.byte	0x6
 953 0347 BB       		.byte	0xbb
 954 0348 D1020000 		.4byte	0x2d1
 955 034c 10       		.byte	0x10
 956 034d 0E       		.uleb128 0xe
 957 034e 8E000000 		.4byte	.LASF52
 958 0352 06       		.byte	0x6
 959 0353 BC       		.byte	0xbc
 960 0354 25000000 		.4byte	0x25
 961 0358 18       		.byte	0x18
 962 0359 0E       		.uleb128 0xe
 963 035a FD000000 		.4byte	.LASF53
 964 035e 06       		.byte	0x6
 965 035f C3       		.byte	0xc3
ARM GAS  /var/tmp//cc4OxsgC.s 			page 18


 966 0360 25010000 		.4byte	0x125
 967 0364 1C       		.byte	0x1c
 968 0365 0E       		.uleb128 0xe
 969 0366 C3010000 		.4byte	.LASF54
 970 036a 06       		.byte	0x6
 971 036b C5       		.byte	0xc5
 972 036c 81050000 		.4byte	0x581
 973 0370 20       		.byte	0x20
 974 0371 0E       		.uleb128 0xe
 975 0372 8E040000 		.4byte	.LASF55
 976 0376 06       		.byte	0x6
 977 0377 C7       		.byte	0xc7
 978 0378 AB050000 		.4byte	0x5ab
 979 037c 24       		.byte	0x24
 980 037d 0E       		.uleb128 0xe
 981 037e 8D050000 		.4byte	.LASF56
 982 0382 06       		.byte	0x6
 983 0383 CA       		.byte	0xca
 984 0384 CF050000 		.4byte	0x5cf
 985 0388 28       		.byte	0x28
 986 0389 0E       		.uleb128 0xe
 987 038a A2060000 		.4byte	.LASF57
 988 038e 06       		.byte	0x6
 989 038f CB       		.byte	0xcb
 990 0390 E9050000 		.4byte	0x5e9
 991 0394 2C       		.byte	0x2c
 992 0395 12       		.uleb128 0x12
 993 0396 5F756200 		.ascii	"_ub\000"
 994 039a 06       		.byte	0x6
 995 039b CE       		.byte	0xce
 996 039c D1020000 		.4byte	0x2d1
 997 03a0 30       		.byte	0x30
 998 03a1 12       		.uleb128 0x12
 999 03a2 5F757000 		.ascii	"_up\000"
 1000 03a6 06       		.byte	0x6
 1001 03a7 CF       		.byte	0xcf
 1002 03a8 F6020000 		.4byte	0x2f6
 1003 03ac 38       		.byte	0x38
 1004 03ad 12       		.uleb128 0x12
 1005 03ae 5F757200 		.ascii	"_ur\000"
 1006 03b2 06       		.byte	0x6
 1007 03b3 D0       		.byte	0xd0
 1008 03b4 25000000 		.4byte	0x25
 1009 03b8 3C       		.byte	0x3c
 1010 03b9 0E       		.uleb128 0xe
 1011 03ba D4000000 		.4byte	.LASF58
 1012 03be 06       		.byte	0x6
 1013 03bf D3       		.byte	0xd3
 1014 03c0 EF050000 		.4byte	0x5ef
 1015 03c4 40       		.byte	0x40
 1016 03c5 0E       		.uleb128 0xe
 1017 03c6 7A060000 		.4byte	.LASF59
 1018 03ca 06       		.byte	0x6
 1019 03cb D4       		.byte	0xd4
 1020 03cc FF050000 		.4byte	0x5ff
 1021 03d0 43       		.byte	0x43
 1022 03d1 12       		.uleb128 0x12
ARM GAS  /var/tmp//cc4OxsgC.s 			page 19


 1023 03d2 5F6C6200 		.ascii	"_lb\000"
 1024 03d6 06       		.byte	0x6
 1025 03d7 D7       		.byte	0xd7
 1026 03d8 D1020000 		.4byte	0x2d1
 1027 03dc 44       		.byte	0x44
 1028 03dd 0E       		.uleb128 0xe
 1029 03de 2C010000 		.4byte	.LASF60
 1030 03e2 06       		.byte	0x6
 1031 03e3 DA       		.byte	0xda
 1032 03e4 25000000 		.4byte	0x25
 1033 03e8 4C       		.byte	0x4c
 1034 03e9 0E       		.uleb128 0xe
 1035 03ea 3D010000 		.4byte	.LASF61
 1036 03ee 06       		.byte	0x6
 1037 03ef DB       		.byte	0xdb
 1038 03f0 96000000 		.4byte	0x96
 1039 03f4 50       		.byte	0x50
 1040 03f5 0E       		.uleb128 0xe
 1041 03f6 51000000 		.4byte	.LASF62
 1042 03fa 06       		.byte	0x6
 1043 03fb DE       		.byte	0xde
 1044 03fc 44040000 		.4byte	0x444
 1045 0400 54       		.byte	0x54
 1046 0401 0E       		.uleb128 0xe
 1047 0402 B3020000 		.4byte	.LASF63
 1048 0406 06       		.byte	0x6
 1049 0407 E2       		.byte	0xe2
 1050 0408 1A010000 		.4byte	0x11a
 1051 040c 58       		.byte	0x58
 1052 040d 0E       		.uleb128 0xe
 1053 040e F6040000 		.4byte	.LASF64
 1054 0412 06       		.byte	0x6
 1055 0413 E4       		.byte	0xe4
 1056 0414 0F010000 		.4byte	0x10f
 1057 0418 5C       		.byte	0x5c
 1058 0419 0E       		.uleb128 0xe
 1059 041a C1020000 		.4byte	.LASF65
 1060 041e 06       		.byte	0x6
 1061 041f E5       		.byte	0xe5
 1062 0420 25000000 		.4byte	0x25
 1063 0424 64       		.byte	0x64
 1064 0425 00       		.byte	0
 1065 0426 16       		.uleb128 0x16
 1066 0427 25000000 		.4byte	0x25
 1067 042b 44040000 		.4byte	0x444
 1068 042f 17       		.uleb128 0x17
 1069 0430 44040000 		.4byte	0x444
 1070 0434 17       		.uleb128 0x17
 1071 0435 25010000 		.4byte	0x125
 1072 0439 17       		.uleb128 0x17
 1073 043a 27010000 		.4byte	0x127
 1074 043e 17       		.uleb128 0x17
 1075 043f 25000000 		.4byte	0x25
 1076 0443 00       		.byte	0
 1077 0444 06       		.uleb128 0x6
 1078 0445 04       		.byte	0x4
 1079 0446 4F040000 		.4byte	0x44f
ARM GAS  /var/tmp//cc4OxsgC.s 			page 20


 1080 044a 10       		.uleb128 0x10
 1081 044b 44040000 		.4byte	0x444
 1082 044f 18       		.uleb128 0x18
 1083 0450 5D050000 		.4byte	.LASF66
 1084 0454 2804     		.2byte	0x428
 1085 0456 06       		.byte	0x6
 1086 0457 3902     		.2byte	0x239
 1087 0459 81050000 		.4byte	0x581
 1088 045d 19       		.uleb128 0x19
 1089 045e B0050000 		.4byte	.LASF67
 1090 0462 06       		.byte	0x6
 1091 0463 3B02     		.2byte	0x23b
 1092 0465 25000000 		.4byte	0x25
 1093 0469 00       		.byte	0
 1094 046a 19       		.uleb128 0x19
 1095 046b 25010000 		.4byte	.LASF68
 1096 046f 06       		.byte	0x6
 1097 0470 4002     		.2byte	0x240
 1098 0472 56060000 		.4byte	0x656
 1099 0476 04       		.byte	0x4
 1100 0477 19       		.uleb128 0x19
 1101 0478 00020000 		.4byte	.LASF69
 1102 047c 06       		.byte	0x6
 1103 047d 4002     		.2byte	0x240
 1104 047f 56060000 		.4byte	0x656
 1105 0483 08       		.byte	0x8
 1106 0484 19       		.uleb128 0x19
 1107 0485 A4010000 		.4byte	.LASF70
 1108 0489 06       		.byte	0x6
 1109 048a 4002     		.2byte	0x240
 1110 048c 56060000 		.4byte	0x656
 1111 0490 0C       		.byte	0xc
 1112 0491 19       		.uleb128 0x19
 1113 0492 17050000 		.4byte	.LASF71
 1114 0496 06       		.byte	0x6
 1115 0497 4202     		.2byte	0x242
 1116 0499 25000000 		.4byte	0x25
 1117 049d 10       		.byte	0x10
 1118 049e 19       		.uleb128 0x19
 1119 049f 2B000000 		.4byte	.LASF72
 1120 04a3 06       		.byte	0x6
 1121 04a4 4302     		.2byte	0x243
 1122 04a6 38080000 		.4byte	0x838
 1123 04aa 14       		.byte	0x14
 1124 04ab 19       		.uleb128 0x19
 1125 04ac 3C050000 		.4byte	.LASF73
 1126 04b0 06       		.byte	0x6
 1127 04b1 4602     		.2byte	0x246
 1128 04b3 25000000 		.4byte	0x25
 1129 04b7 30       		.byte	0x30
 1130 04b8 19       		.uleb128 0x19
 1131 04b9 2A050000 		.4byte	.LASF74
 1132 04bd 06       		.byte	0x6
 1133 04be 4702     		.2byte	0x247
 1134 04c0 4D080000 		.4byte	0x84d
 1135 04c4 34       		.byte	0x34
 1136 04c5 19       		.uleb128 0x19
ARM GAS  /var/tmp//cc4OxsgC.s 			page 21


 1137 04c6 2D040000 		.4byte	.LASF75
 1138 04ca 06       		.byte	0x6
 1139 04cb 4902     		.2byte	0x249
 1140 04cd 25000000 		.4byte	0x25
 1141 04d1 38       		.byte	0x38
 1142 04d2 19       		.uleb128 0x19
 1143 04d3 32050000 		.4byte	.LASF76
 1144 04d7 06       		.byte	0x6
 1145 04d8 4B02     		.2byte	0x24b
 1146 04da 5E080000 		.4byte	0x85e
 1147 04de 3C       		.byte	0x3c
 1148 04df 19       		.uleb128 0x19
 1149 04e0 69020000 		.4byte	.LASF77
 1150 04e4 06       		.byte	0x6
 1151 04e5 4E02     		.2byte	0x24e
 1152 04e7 97010000 		.4byte	0x197
 1153 04eb 40       		.byte	0x40
 1154 04ec 19       		.uleb128 0x19
 1155 04ed C9010000 		.4byte	.LASF78
 1156 04f1 06       		.byte	0x6
 1157 04f2 4F02     		.2byte	0x24f
 1158 04f4 25000000 		.4byte	0x25
 1159 04f8 44       		.byte	0x44
 1160 04f9 19       		.uleb128 0x19
 1161 04fa CB060000 		.4byte	.LASF79
 1162 04fe 06       		.byte	0x6
 1163 04ff 5002     		.2byte	0x250
 1164 0501 97010000 		.4byte	0x197
 1165 0505 48       		.byte	0x48
 1166 0506 19       		.uleb128 0x19
 1167 0507 4E040000 		.4byte	.LASF80
 1168 050b 06       		.byte	0x6
 1169 050c 5102     		.2byte	0x251
 1170 050e 64080000 		.4byte	0x864
 1171 0512 4C       		.byte	0x4c
 1172 0513 19       		.uleb128 0x19
 1173 0514 08020000 		.4byte	.LASF81
 1174 0518 06       		.byte	0x6
 1175 0519 5402     		.2byte	0x254
 1176 051b 25000000 		.4byte	0x25
 1177 051f 50       		.byte	0x50
 1178 0520 19       		.uleb128 0x19
 1179 0521 35010000 		.4byte	.LASF82
 1180 0525 06       		.byte	0x6
 1181 0526 5502     		.2byte	0x255
 1182 0528 27010000 		.4byte	0x127
 1183 052c 54       		.byte	0x54
 1184 052d 19       		.uleb128 0x19
 1185 052e AD040000 		.4byte	.LASF83
 1186 0532 06       		.byte	0x6
 1187 0533 7802     		.2byte	0x278
 1188 0535 16080000 		.4byte	0x816
 1189 0539 58       		.byte	0x58
 1190 053a 1A       		.uleb128 0x1a
 1191 053b 25040000 		.4byte	.LASF43
 1192 053f 06       		.byte	0x6
 1193 0540 7C02     		.2byte	0x27c
ARM GAS  /var/tmp//cc4OxsgC.s 			page 22


 1194 0542 B4020000 		.4byte	0x2b4
 1195 0546 4801     		.2byte	0x148
 1196 0548 1A       		.uleb128 0x1a
 1197 0549 47020000 		.4byte	.LASF84
 1198 054d 06       		.byte	0x6
 1199 054e 7D02     		.2byte	0x27d
 1200 0550 76020000 		.4byte	0x276
 1201 0554 4C01     		.2byte	0x14c
 1202 0556 1A       		.uleb128 0x1a
 1203 0557 70060000 		.4byte	.LASF85
 1204 055b 06       		.byte	0x6
 1205 055c 8102     		.2byte	0x281
 1206 055e 75080000 		.4byte	0x875
 1207 0562 DC02     		.2byte	0x2dc
 1208 0564 1A       		.uleb128 0x1a
 1209 0565 05010000 		.4byte	.LASF86
 1210 0569 06       		.byte	0x6
 1211 056a 8602     		.2byte	0x286
 1212 056c 1B060000 		.4byte	0x61b
 1213 0570 E002     		.2byte	0x2e0
 1214 0572 1A       		.uleb128 0x1a
 1215 0573 EA000000 		.4byte	.LASF87
 1216 0577 06       		.byte	0x6
 1217 0578 8702     		.2byte	0x287
 1218 057a 81080000 		.4byte	0x881
 1219 057e EC02     		.2byte	0x2ec
 1220 0580 00       		.byte	0
 1221 0581 06       		.uleb128 0x6
 1222 0582 04       		.byte	0x4
 1223 0583 26040000 		.4byte	0x426
 1224 0587 16       		.uleb128 0x16
 1225 0588 25000000 		.4byte	0x25
 1226 058c A5050000 		.4byte	0x5a5
 1227 0590 17       		.uleb128 0x17
 1228 0591 44040000 		.4byte	0x444
 1229 0595 17       		.uleb128 0x17
 1230 0596 25010000 		.4byte	0x125
 1231 059a 17       		.uleb128 0x17
 1232 059b A5050000 		.4byte	0x5a5
 1233 059f 17       		.uleb128 0x17
 1234 05a0 25000000 		.4byte	0x25
 1235 05a4 00       		.byte	0
 1236 05a5 06       		.uleb128 0x6
 1237 05a6 04       		.byte	0x4
 1238 05a7 34010000 		.4byte	0x134
 1239 05ab 06       		.uleb128 0x6
 1240 05ac 04       		.byte	0x4
 1241 05ad 87050000 		.4byte	0x587
 1242 05b1 16       		.uleb128 0x16
 1243 05b2 A1000000 		.4byte	0xa1
 1244 05b6 CF050000 		.4byte	0x5cf
 1245 05ba 17       		.uleb128 0x17
 1246 05bb 44040000 		.4byte	0x444
 1247 05bf 17       		.uleb128 0x17
 1248 05c0 25010000 		.4byte	0x125
 1249 05c4 17       		.uleb128 0x17
 1250 05c5 A1000000 		.4byte	0xa1
ARM GAS  /var/tmp//cc4OxsgC.s 			page 23


 1251 05c9 17       		.uleb128 0x17
 1252 05ca 25000000 		.4byte	0x25
 1253 05ce 00       		.byte	0
 1254 05cf 06       		.uleb128 0x6
 1255 05d0 04       		.byte	0x4
 1256 05d1 B1050000 		.4byte	0x5b1
 1257 05d5 16       		.uleb128 0x16
 1258 05d6 25000000 		.4byte	0x25
 1259 05da E9050000 		.4byte	0x5e9
 1260 05de 17       		.uleb128 0x17
 1261 05df 44040000 		.4byte	0x444
 1262 05e3 17       		.uleb128 0x17
 1263 05e4 25010000 		.4byte	0x125
 1264 05e8 00       		.byte	0
 1265 05e9 06       		.uleb128 0x6
 1266 05ea 04       		.byte	0x4
 1267 05eb D5050000 		.4byte	0x5d5
 1268 05ef 0B       		.uleb128 0xb
 1269 05f0 45000000 		.4byte	0x45
 1270 05f4 FF050000 		.4byte	0x5ff
 1271 05f8 0C       		.uleb128 0xc
 1272 05f9 E7000000 		.4byte	0xe7
 1273 05fd 02       		.byte	0x2
 1274 05fe 00       		.byte	0
 1275 05ff 0B       		.uleb128 0xb
 1276 0600 45000000 		.4byte	0x45
 1277 0604 0F060000 		.4byte	0x60f
 1278 0608 0C       		.uleb128 0xc
 1279 0609 E7000000 		.4byte	0xe7
 1280 060d 00       		.byte	0
 1281 060e 00       		.byte	0
 1282 060f 08       		.uleb128 0x8
 1283 0610 DC040000 		.4byte	.LASF88
 1284 0614 06       		.byte	0x6
 1285 0615 1F01     		.2byte	0x11f
 1286 0617 FC020000 		.4byte	0x2fc
 1287 061b 1B       		.uleb128 0x1b
 1288 061c 57060000 		.4byte	.LASF89
 1289 0620 0C       		.byte	0xc
 1290 0621 06       		.byte	0x6
 1291 0622 2301     		.2byte	0x123
 1292 0624 50060000 		.4byte	0x650
 1293 0628 19       		.uleb128 0x19
 1294 0629 E8050000 		.4byte	.LASF23
 1295 062d 06       		.byte	0x6
 1296 062e 2501     		.2byte	0x125
 1297 0630 50060000 		.4byte	0x650
 1298 0634 00       		.byte	0
 1299 0635 19       		.uleb128 0x19
 1300 0636 28020000 		.4byte	.LASF90
 1301 063a 06       		.byte	0x6
 1302 063b 2601     		.2byte	0x126
 1303 063d 25000000 		.4byte	0x25
 1304 0641 04       		.byte	0x4
 1305 0642 19       		.uleb128 0x19
 1306 0643 D6040000 		.4byte	.LASF91
 1307 0647 06       		.byte	0x6
ARM GAS  /var/tmp//cc4OxsgC.s 			page 24


 1308 0648 2701     		.2byte	0x127
 1309 064a 56060000 		.4byte	0x656
 1310 064e 08       		.byte	0x8
 1311 064f 00       		.byte	0
 1312 0650 06       		.uleb128 0x6
 1313 0651 04       		.byte	0x4
 1314 0652 1B060000 		.4byte	0x61b
 1315 0656 06       		.uleb128 0x6
 1316 0657 04       		.byte	0x4
 1317 0658 0F060000 		.4byte	0x60f
 1318 065c 1B       		.uleb128 0x1b
 1319 065d 23000000 		.4byte	.LASF92
 1320 0661 0E       		.byte	0xe
 1321 0662 06       		.byte	0x6
 1322 0663 3F01     		.2byte	0x13f
 1323 0665 91060000 		.4byte	0x691
 1324 0669 19       		.uleb128 0x19
 1325 066a 70050000 		.4byte	.LASF93
 1326 066e 06       		.byte	0x6
 1327 066f 4001     		.2byte	0x140
 1328 0671 91060000 		.4byte	0x691
 1329 0675 00       		.byte	0
 1330 0676 19       		.uleb128 0x19
 1331 0677 E2050000 		.4byte	.LASF94
 1332 067b 06       		.byte	0x6
 1333 067c 4101     		.2byte	0x141
 1334 067e 91060000 		.4byte	0x691
 1335 0682 06       		.byte	0x6
 1336 0683 19       		.uleb128 0x19
 1337 0684 04060000 		.4byte	.LASF95
 1338 0688 06       		.byte	0x6
 1339 0689 4201     		.2byte	0x142
 1340 068b 58000000 		.4byte	0x58
 1341 068f 0C       		.byte	0xc
 1342 0690 00       		.byte	0
 1343 0691 0B       		.uleb128 0xb
 1344 0692 58000000 		.4byte	0x58
 1345 0696 A1060000 		.4byte	0x6a1
 1346 069a 0C       		.uleb128 0xc
 1347 069b E7000000 		.4byte	0xe7
 1348 069f 02       		.byte	0x2
 1349 06a0 00       		.byte	0
 1350 06a1 1C       		.uleb128 0x1c
 1351 06a2 D0       		.byte	0xd0
 1352 06a3 06       		.byte	0x6
 1353 06a4 5902     		.2byte	0x259
 1354 06a6 A2070000 		.4byte	0x7a2
 1355 06aa 19       		.uleb128 0x19
 1356 06ab 3B060000 		.4byte	.LASF96
 1357 06af 06       		.byte	0x6
 1358 06b0 5B02     		.2byte	0x25b
 1359 06b2 2C000000 		.4byte	0x2c
 1360 06b6 00       		.byte	0
 1361 06b7 19       		.uleb128 0x19
 1362 06b8 EE050000 		.4byte	.LASF97
 1363 06bc 06       		.byte	0x6
 1364 06bd 5C02     		.2byte	0x25c
ARM GAS  /var/tmp//cc4OxsgC.s 			page 25


 1365 06bf 27010000 		.4byte	0x127
 1366 06c3 04       		.byte	0x4
 1367 06c4 19       		.uleb128 0x19
 1368 06c5 5C020000 		.4byte	.LASF98
 1369 06c9 06       		.byte	0x6
 1370 06ca 5D02     		.2byte	0x25d
 1371 06cc A2070000 		.4byte	0x7a2
 1372 06d0 08       		.byte	0x8
 1373 06d1 19       		.uleb128 0x19
 1374 06d2 93060000 		.4byte	.LASF99
 1375 06d6 06       		.byte	0x6
 1376 06d7 5E02     		.2byte	0x25e
 1377 06d9 AD010000 		.4byte	0x1ad
 1378 06dd 24       		.byte	0x24
 1379 06de 19       		.uleb128 0x19
 1380 06df B4010000 		.4byte	.LASF100
 1381 06e3 06       		.byte	0x6
 1382 06e4 5F02     		.2byte	0x25f
 1383 06e6 25000000 		.4byte	0x25
 1384 06ea 48       		.byte	0x48
 1385 06eb 19       		.uleb128 0x19
 1386 06ec FF040000 		.4byte	.LASF101
 1387 06f0 06       		.byte	0x6
 1388 06f1 6002     		.2byte	0x260
 1389 06f3 79000000 		.4byte	0x79
 1390 06f7 50       		.byte	0x50
 1391 06f8 19       		.uleb128 0x19
 1392 06f9 A9060000 		.4byte	.LASF102
 1393 06fd 06       		.byte	0x6
 1394 06fe 6102     		.2byte	0x261
 1395 0700 5C060000 		.4byte	0x65c
 1396 0704 58       		.byte	0x58
 1397 0705 19       		.uleb128 0x19
 1398 0706 0A050000 		.4byte	.LASF103
 1399 070a 06       		.byte	0x6
 1400 070b 6202     		.2byte	0x262
 1401 070d 0F010000 		.4byte	0x10f
 1402 0711 68       		.byte	0x68
 1403 0712 19       		.uleb128 0x19
 1404 0713 BD060000 		.4byte	.LASF104
 1405 0717 06       		.byte	0x6
 1406 0718 6302     		.2byte	0x263
 1407 071a 0F010000 		.4byte	0x10f
 1408 071e 70       		.byte	0x70
 1409 071f 19       		.uleb128 0x19
 1410 0720 80040000 		.4byte	.LASF105
 1411 0724 06       		.byte	0x6
 1412 0725 6402     		.2byte	0x264
 1413 0727 0F010000 		.4byte	0x10f
 1414 072b 78       		.byte	0x78
 1415 072c 19       		.uleb128 0x19
 1416 072d 66060000 		.4byte	.LASF106
 1417 0731 06       		.byte	0x6
 1418 0732 6502     		.2byte	0x265
 1419 0734 B2070000 		.4byte	0x7b2
 1420 0738 80       		.byte	0x80
 1421 0739 19       		.uleb128 0x19
ARM GAS  /var/tmp//cc4OxsgC.s 			page 26


 1422 073a 50020000 		.4byte	.LASF107
 1423 073e 06       		.byte	0x6
 1424 073f 6602     		.2byte	0x266
 1425 0741 C2070000 		.4byte	0x7c2
 1426 0745 88       		.byte	0x88
 1427 0746 19       		.uleb128 0x19
 1428 0747 11060000 		.4byte	.LASF108
 1429 074b 06       		.byte	0x6
 1430 074c 6702     		.2byte	0x267
 1431 074e 25000000 		.4byte	0x25
 1432 0752 A0       		.byte	0xa0
 1433 0753 19       		.uleb128 0x19
 1434 0754 61010000 		.4byte	.LASF109
 1435 0758 06       		.byte	0x6
 1436 0759 6802     		.2byte	0x268
 1437 075b 0F010000 		.4byte	0x10f
 1438 075f A4       		.byte	0xa4
 1439 0760 19       		.uleb128 0x19
 1440 0761 A2000000 		.4byte	.LASF110
 1441 0765 06       		.byte	0x6
 1442 0766 6902     		.2byte	0x269
 1443 0768 0F010000 		.4byte	0x10f
 1444 076c AC       		.byte	0xac
 1445 076d 19       		.uleb128 0x19
 1446 076e 50010000 		.4byte	.LASF111
 1447 0772 06       		.byte	0x6
 1448 0773 6A02     		.2byte	0x26a
 1449 0775 0F010000 		.4byte	0x10f
 1450 0779 B4       		.byte	0xb4
 1451 077a 19       		.uleb128 0x19
 1452 077b 57000000 		.4byte	.LASF112
 1453 077f 06       		.byte	0x6
 1454 0780 6B02     		.2byte	0x26b
 1455 0782 0F010000 		.4byte	0x10f
 1456 0786 BC       		.byte	0xbc
 1457 0787 19       		.uleb128 0x19
 1458 0788 66000000 		.4byte	.LASF113
 1459 078c 06       		.byte	0x6
 1460 078d 6C02     		.2byte	0x26c
 1461 078f 0F010000 		.4byte	0x10f
 1462 0793 C4       		.byte	0xc4
 1463 0794 19       		.uleb128 0x19
 1464 0795 B2040000 		.4byte	.LASF114
 1465 0799 06       		.byte	0x6
 1466 079a 6D02     		.2byte	0x26d
 1467 079c 25000000 		.4byte	0x25
 1468 07a0 CC       		.byte	0xcc
 1469 07a1 00       		.byte	0
 1470 07a2 0B       		.uleb128 0xb
 1471 07a3 2D010000 		.4byte	0x12d
 1472 07a7 B2070000 		.4byte	0x7b2
 1473 07ab 0C       		.uleb128 0xc
 1474 07ac E7000000 		.4byte	0xe7
 1475 07b0 19       		.byte	0x19
 1476 07b1 00       		.byte	0
 1477 07b2 0B       		.uleb128 0xb
 1478 07b3 2D010000 		.4byte	0x12d
ARM GAS  /var/tmp//cc4OxsgC.s 			page 27


 1479 07b7 C2070000 		.4byte	0x7c2
 1480 07bb 0C       		.uleb128 0xc
 1481 07bc E7000000 		.4byte	0xe7
 1482 07c0 07       		.byte	0x7
 1483 07c1 00       		.byte	0
 1484 07c2 0B       		.uleb128 0xb
 1485 07c3 2D010000 		.4byte	0x12d
 1486 07c7 D2070000 		.4byte	0x7d2
 1487 07cb 0C       		.uleb128 0xc
 1488 07cc E7000000 		.4byte	0xe7
 1489 07d0 17       		.byte	0x17
 1490 07d1 00       		.byte	0
 1491 07d2 1C       		.uleb128 0x1c
 1492 07d3 F0       		.byte	0xf0
 1493 07d4 06       		.byte	0x6
 1494 07d5 7202     		.2byte	0x272
 1495 07d7 F6070000 		.4byte	0x7f6
 1496 07db 19       		.uleb128 0x19
 1497 07dc 15040000 		.4byte	.LASF115
 1498 07e0 06       		.byte	0x6
 1499 07e1 7502     		.2byte	0x275
 1500 07e3 F6070000 		.4byte	0x7f6
 1501 07e7 00       		.byte	0
 1502 07e8 19       		.uleb128 0x19
 1503 07e9 5D060000 		.4byte	.LASF116
 1504 07ed 06       		.byte	0x6
 1505 07ee 7602     		.2byte	0x276
 1506 07f0 06080000 		.4byte	0x806
 1507 07f4 78       		.byte	0x78
 1508 07f5 00       		.byte	0
 1509 07f6 0B       		.uleb128 0xb
 1510 07f7 F6020000 		.4byte	0x2f6
 1511 07fb 06080000 		.4byte	0x806
 1512 07ff 0C       		.uleb128 0xc
 1513 0800 E7000000 		.4byte	0xe7
 1514 0804 1D       		.byte	0x1d
 1515 0805 00       		.byte	0
 1516 0806 0B       		.uleb128 0xb
 1517 0807 2C000000 		.4byte	0x2c
 1518 080b 16080000 		.4byte	0x816
 1519 080f 0C       		.uleb128 0xc
 1520 0810 E7000000 		.4byte	0xe7
 1521 0814 1D       		.byte	0x1d
 1522 0815 00       		.byte	0
 1523 0816 1D       		.uleb128 0x1d
 1524 0817 F0       		.byte	0xf0
 1525 0818 06       		.byte	0x6
 1526 0819 5702     		.2byte	0x257
 1527 081b 38080000 		.4byte	0x838
 1528 081f 1E       		.uleb128 0x1e
 1529 0820 5D050000 		.4byte	.LASF66
 1530 0824 06       		.byte	0x6
 1531 0825 6E02     		.2byte	0x26e
 1532 0827 A1060000 		.4byte	0x6a1
 1533 082b 1E       		.uleb128 0x1e
 1534 082c 80060000 		.4byte	.LASF117
 1535 0830 06       		.byte	0x6
ARM GAS  /var/tmp//cc4OxsgC.s 			page 28


 1536 0831 7702     		.2byte	0x277
 1537 0833 D2070000 		.4byte	0x7d2
 1538 0837 00       		.byte	0
 1539 0838 0B       		.uleb128 0xb
 1540 0839 2D010000 		.4byte	0x12d
 1541 083d 48080000 		.4byte	0x848
 1542 0841 0C       		.uleb128 0xc
 1543 0842 E7000000 		.4byte	0xe7
 1544 0846 18       		.byte	0x18
 1545 0847 00       		.byte	0
 1546 0848 07       		.uleb128 0x7
 1547 0849 97000000 		.4byte	.LASF119
 1548 084d 06       		.uleb128 0x6
 1549 084e 04       		.byte	0x4
 1550 084f 48080000 		.4byte	0x848
 1551 0853 1F       		.uleb128 0x1f
 1552 0854 5E080000 		.4byte	0x85e
 1553 0858 17       		.uleb128 0x17
 1554 0859 44040000 		.4byte	0x444
 1555 085d 00       		.byte	0
 1556 085e 06       		.uleb128 0x6
 1557 085f 04       		.byte	0x4
 1558 0860 53080000 		.4byte	0x853
 1559 0864 06       		.uleb128 0x6
 1560 0865 04       		.byte	0x4
 1561 0866 97010000 		.4byte	0x197
 1562 086a 1F       		.uleb128 0x1f
 1563 086b 75080000 		.4byte	0x875
 1564 086f 17       		.uleb128 0x17
 1565 0870 25000000 		.4byte	0x25
 1566 0874 00       		.byte	0
 1567 0875 06       		.uleb128 0x6
 1568 0876 04       		.byte	0x4
 1569 0877 7B080000 		.4byte	0x87b
 1570 087b 06       		.uleb128 0x6
 1571 087c 04       		.byte	0x4
 1572 087d 6A080000 		.4byte	0x86a
 1573 0881 0B       		.uleb128 0xb
 1574 0882 0F060000 		.4byte	0x60f
 1575 0886 91080000 		.4byte	0x891
 1576 088a 0C       		.uleb128 0xc
 1577 088b E7000000 		.4byte	0xe7
 1578 088f 02       		.byte	0x2
 1579 0890 00       		.byte	0
 1580 0891 20       		.uleb128 0x20
 1581 0892 93050000 		.4byte	.LASF120
 1582 0896 06       		.byte	0x6
 1583 0897 FE02     		.2byte	0x2fe
 1584 0899 44040000 		.4byte	0x444
 1585 089d 20       		.uleb128 0x20
 1586 089e 1E060000 		.4byte	.LASF121
 1587 08a2 06       		.byte	0x6
 1588 08a3 FF02     		.2byte	0x2ff
 1589 08a5 4A040000 		.4byte	0x44a
 1590 08a9 04       		.uleb128 0x4
 1591 08aa DA050000 		.4byte	.LASF122
 1592 08ae 07       		.byte	0x7
ARM GAS  /var/tmp//cc4OxsgC.s 			page 29


 1593 08af 18       		.byte	0x18
 1594 08b0 3A000000 		.4byte	0x3a
 1595 08b4 21       		.uleb128 0x21
 1596 08b5 2008     		.2byte	0x820
 1597 08b7 01       		.byte	0x1
 1598 08b8 18       		.byte	0x18
 1599 08b9 3A090000 		.4byte	0x93a
 1600 08bd 0E       		.uleb128 0xe
 1601 08be 03040000 		.4byte	.LASF123
 1602 08c2 01       		.byte	0x1
 1603 08c3 19       		.byte	0x19
 1604 08c4 4C000000 		.4byte	0x4c
 1605 08c8 00       		.byte	0
 1606 08c9 0E       		.uleb128 0xe
 1607 08ca 45010000 		.4byte	.LASF124
 1608 08ce 01       		.byte	0x1
 1609 08cf 1A       		.byte	0x1a
 1610 08d0 5F000000 		.4byte	0x5f
 1611 08d4 02       		.byte	0x2
 1612 08d5 0E       		.uleb128 0xe
 1613 08d6 0C000000 		.4byte	.LASF125
 1614 08da 01       		.byte	0x1
 1615 08db 1B       		.byte	0x1b
 1616 08dc 4A090000 		.4byte	0x94a
 1617 08e0 04       		.byte	0x4
 1618 08e1 0E       		.uleb128 0xe
 1619 08e2 F3010000 		.4byte	.LASF126
 1620 08e6 01       		.byte	0x1
 1621 08e7 1C       		.byte	0x1c
 1622 08e8 4A090000 		.4byte	0x94a
 1623 08ec 08       		.byte	0x8
 1624 08ed 0E       		.uleb128 0xe
 1625 08ee 3F040000 		.4byte	.LASF127
 1626 08f2 01       		.byte	0x1
 1627 08f3 1D       		.byte	0x1d
 1628 08f4 2C000000 		.4byte	0x2c
 1629 08f8 0C       		.byte	0xc
 1630 08f9 0E       		.uleb128 0xe
 1631 08fa 95040000 		.4byte	.LASF128
 1632 08fe 01       		.byte	0x1
 1633 08ff 1E       		.byte	0x1e
 1634 0900 50090000 		.4byte	0x950
 1635 0904 10       		.byte	0x10
 1636 0905 14       		.uleb128 0x14
 1637 0906 31060000 		.4byte	.LASF129
 1638 090a 01       		.byte	0x1
 1639 090b 1F       		.byte	0x1f
 1640 090c 61090000 		.4byte	0x961
 1641 0910 1004     		.2byte	0x410
 1642 0912 14       		.uleb128 0x14
 1643 0913 64050000 		.4byte	.LASF130
 1644 0917 01       		.byte	0x1
 1645 0918 20       		.byte	0x20
 1646 0919 2C000000 		.4byte	0x2c
 1647 091d 1808     		.2byte	0x818
 1648 091f 14       		.uleb128 0x14
 1649 0920 B9020000 		.4byte	.LASF131
ARM GAS  /var/tmp//cc4OxsgC.s 			page 30


 1650 0924 01       		.byte	0x1
 1651 0925 21       		.byte	0x21
 1652 0926 45000000 		.4byte	0x45
 1653 092a 1C08     		.2byte	0x81c
 1654 092c 14       		.uleb128 0x14
 1655 092d A7050000 		.4byte	.LASF132
 1656 0931 01       		.byte	0x1
 1657 0932 22       		.byte	0x22
 1658 0933 45000000 		.4byte	0x45
 1659 0937 1D08     		.2byte	0x81d
 1660 0939 00       		.byte	0
 1661 093a 1F       		.uleb128 0x1f
 1662 093b 4A090000 		.4byte	0x94a
 1663 093f 17       		.uleb128 0x17
 1664 0940 F6020000 		.4byte	0x2f6
 1665 0944 17       		.uleb128 0x17
 1666 0945 2C000000 		.4byte	0x2c
 1667 0949 00       		.byte	0
 1668 094a 06       		.uleb128 0x6
 1669 094b 04       		.byte	0x4
 1670 094c 3A090000 		.4byte	0x93a
 1671 0950 0B       		.uleb128 0xb
 1672 0951 45000000 		.4byte	0x45
 1673 0955 61090000 		.4byte	0x961
 1674 0959 22       		.uleb128 0x22
 1675 095a E7000000 		.4byte	0xe7
 1676 095e FF03     		.2byte	0x3ff
 1677 0960 00       		.byte	0
 1678 0961 0B       		.uleb128 0xb
 1679 0962 45000000 		.4byte	0x45
 1680 0966 72090000 		.4byte	0x972
 1681 096a 22       		.uleb128 0x22
 1682 096b E7000000 		.4byte	0xe7
 1683 096f 0504     		.2byte	0x405
 1684 0971 00       		.byte	0
 1685 0972 04       		.uleb128 0x4
 1686 0973 AE060000 		.4byte	.LASF133
 1687 0977 01       		.byte	0x1
 1688 0978 23       		.byte	0x23
 1689 0979 B4080000 		.4byte	0x8b4
 1690 097d 0B       		.uleb128 0xb
 1691 097e 72090000 		.4byte	0x972
 1692 0982 8D090000 		.4byte	0x98d
 1693 0986 0C       		.uleb128 0xc
 1694 0987 E7000000 		.4byte	0xe7
 1695 098b 01       		.byte	0x1
 1696 098c 00       		.byte	0
 1697 098d 23       		.uleb128 0x23
 1698 098e C5050000 		.4byte	.LASF138
 1699 0992 01       		.byte	0x1
 1700 0993 25       		.byte	0x25
 1701 0994 7D090000 		.4byte	0x97d
 1702 0998 05       		.uleb128 0x5
 1703 0999 03       		.byte	0x3
 1704 099a 00000000 		.4byte	handler_states
 1705 099e 24       		.uleb128 0x24
 1706 099f 64040000 		.4byte	.LASF136
ARM GAS  /var/tmp//cc4OxsgC.s 			page 31


 1707 09a3 01       		.byte	0x1
 1708 09a4 57       		.byte	0x57
 1709 09a5 00000000 		.4byte	.LFB3
 1710 09a9 3C010000 		.4byte	.LFE3-.LFB3
 1711 09ad 01       		.uleb128 0x1
 1712 09ae 9C       		.byte	0x9c
 1713 09af F2090000 		.4byte	0x9f2
 1714 09b3 25       		.uleb128 0x25
 1715 09b4 78040000 		.4byte	.LASF134
 1716 09b8 01       		.byte	0x1
 1717 09b9 57       		.byte	0x57
 1718 09ba A9080000 		.4byte	0x8a9
 1719 09be 00000000 		.4byte	.LLST7
 1720 09c2 25       		.uleb128 0x25
 1721 09c3 58040000 		.4byte	.LASF135
 1722 09c7 01       		.byte	0x1
 1723 09c8 57       		.byte	0x57
 1724 09c9 25000000 		.4byte	0x25
 1725 09cd 9E000000 		.4byte	.LLST8
 1726 09d1 26       		.uleb128 0x26
 1727 09d2 1E010000 		.4byte	.LVL51
 1728 09d6 170B0000 		.4byte	0xb17
 1729 09da E5090000 		.4byte	0x9e5
 1730 09de 27       		.uleb128 0x27
 1731 09df 01       		.uleb128 0x1
 1732 09e0 50       		.byte	0x50
 1733 09e1 02       		.uleb128 0x2
 1734 09e2 78       		.byte	0x78
 1735 09e3 00       		.sleb128 0
 1736 09e4 00       		.byte	0
 1737 09e5 28       		.uleb128 0x28
 1738 09e6 36010000 		.4byte	.LVL52
 1739 09ea 27       		.uleb128 0x27
 1740 09eb 01       		.uleb128 0x1
 1741 09ec 50       		.byte	0x50
 1742 09ed 02       		.uleb128 0x2
 1743 09ee 78       		.byte	0x78
 1744 09ef 00       		.sleb128 0
 1745 09f0 00       		.byte	0
 1746 09f1 00       		.byte	0
 1747 09f2 24       		.uleb128 0x24
 1748 09f3 36000000 		.4byte	.LASF137
 1749 09f7 01       		.byte	0x1
 1750 09f8 4D       		.byte	0x4d
 1751 09f9 00000000 		.4byte	.LFB2
 1752 09fd 40000000 		.4byte	.LFE2-.LFB2
 1753 0a01 01       		.uleb128 0x1
 1754 0a02 9C       		.byte	0x9c
 1755 0a03 1F0A0000 		.4byte	0xa1f
 1756 0a07 29       		.uleb128 0x29
 1757 0a08 00000000 		.4byte	.LBB2
 1758 0a0c 40000000 		.4byte	.LBE2-.LBB2
 1759 0a10 2A       		.uleb128 0x2a
 1760 0a11 6900     		.ascii	"i\000"
 1761 0a13 01       		.byte	0x1
 1762 0a14 4E       		.byte	0x4e
 1763 0a15 25000000 		.4byte	0x25
ARM GAS  /var/tmp//cc4OxsgC.s 			page 32


 1764 0a19 8F010000 		.4byte	.LLST6
 1765 0a1d 00       		.byte	0
 1766 0a1e 00       		.byte	0
 1767 0a1f 24       		.uleb128 0x24
 1768 0a20 82010000 		.4byte	.LASF139
 1769 0a24 01       		.byte	0x1
 1770 0a25 2D       		.byte	0x2d
 1771 0a26 00000000 		.4byte	.LFB1
 1772 0a2a 88000000 		.4byte	.LFE1-.LFB1
 1773 0a2e 01       		.uleb128 0x1
 1774 0a2f 9C       		.byte	0x9c
 1775 0a30 D80A0000 		.4byte	0xad8
 1776 0a34 25       		.uleb128 0x25
 1777 0a35 2F020000 		.4byte	.LASF140
 1778 0a39 01       		.byte	0x1
 1779 0a3a 2D       		.byte	0x2d
 1780 0a3b F6020000 		.4byte	0x2f6
 1781 0a3f DF010000 		.4byte	.LLST1
 1782 0a43 2B       		.uleb128 0x2b
 1783 0a44 6C656E00 		.ascii	"len\000"
 1784 0a48 01       		.byte	0x1
 1785 0a49 2D       		.byte	0x2d
 1786 0a4a 2C000000 		.4byte	0x2c
 1787 0a4e 2C020000 		.4byte	.LLST2
 1788 0a52 25       		.uleb128 0x25
 1789 0a53 58040000 		.4byte	.LASF135
 1790 0a57 01       		.byte	0x1
 1791 0a58 2D       		.byte	0x2d
 1792 0a59 25000000 		.4byte	0x25
 1793 0a5d 84020000 		.4byte	.LLST3
 1794 0a61 2C       		.uleb128 0x2c
 1795 0a62 77010000 		.4byte	.LASF141
 1796 0a66 01       		.byte	0x1
 1797 0a67 32       		.byte	0x32
 1798 0a68 25000000 		.4byte	0x25
 1799 0a6c C9020000 		.4byte	.LLST4
 1800 0a70 2A       		.uleb128 0x2a
 1801 0a71 63726300 		.ascii	"crc\000"
 1802 0a75 01       		.byte	0x1
 1803 0a76 40       		.byte	0x40
 1804 0a77 58000000 		.4byte	0x58
 1805 0a7b 31030000 		.4byte	.LLST5
 1806 0a7f 26       		.uleb128 0x26
 1807 0a80 44000000 		.4byte	.LVL9
 1808 0a84 220B0000 		.4byte	0xb22
 1809 0a88 A20A0000 		.4byte	0xaa2
 1810 0a8c 27       		.uleb128 0x27
 1811 0a8d 01       		.uleb128 0x1
 1812 0a8e 50       		.byte	0x50
 1813 0a8f 05       		.uleb128 0x5
 1814 0a90 79       		.byte	0x79
 1815 0a91 00       		.sleb128 0
 1816 0a92 77       		.byte	0x77
 1817 0a93 00       		.sleb128 0
 1818 0a94 22       		.byte	0x22
 1819 0a95 27       		.uleb128 0x27
 1820 0a96 01       		.uleb128 0x1
ARM GAS  /var/tmp//cc4OxsgC.s 			page 33


 1821 0a97 51       		.byte	0x51
 1822 0a98 02       		.uleb128 0x2
 1823 0a99 78       		.byte	0x78
 1824 0a9a 00       		.sleb128 0
 1825 0a9b 27       		.uleb128 0x27
 1826 0a9c 01       		.uleb128 0x1
 1827 0a9d 52       		.byte	0x52
 1828 0a9e 02       		.uleb128 0x2
 1829 0a9f 75       		.byte	0x75
 1830 0aa0 00       		.sleb128 0
 1831 0aa1 00       		.byte	0
 1832 0aa2 26       		.uleb128 0x26
 1833 0aa3 4C000000 		.4byte	.LVL10
 1834 0aa7 170B0000 		.4byte	0xb17
 1835 0aab BC0A0000 		.4byte	0xabc
 1836 0aaf 27       		.uleb128 0x27
 1837 0ab0 01       		.uleb128 0x1
 1838 0ab1 50       		.byte	0x50
 1839 0ab2 02       		.uleb128 0x2
 1840 0ab3 78       		.byte	0x78
 1841 0ab4 00       		.sleb128 0
 1842 0ab5 27       		.uleb128 0x27
 1843 0ab6 01       		.uleb128 0x1
 1844 0ab7 51       		.byte	0x51
 1845 0ab8 02       		.uleb128 0x2
 1846 0ab9 75       		.byte	0x75
 1847 0aba 00       		.sleb128 0
 1848 0abb 00       		.byte	0
 1849 0abc 2D       		.uleb128 0x2d
 1850 0abd 70000000 		.4byte	.LVL16
 1851 0ac1 27       		.uleb128 0x27
 1852 0ac2 01       		.uleb128 0x1
 1853 0ac3 50       		.byte	0x50
 1854 0ac4 11       		.uleb128 0x11
 1855 0ac5 F3       		.byte	0xf3
 1856 0ac6 01       		.uleb128 0x1
 1857 0ac7 52       		.byte	0x52
 1858 0ac8 36       		.byte	0x36
 1859 0ac9 24       		.byte	0x24
 1860 0aca F3       		.byte	0xf3
 1861 0acb 01       		.uleb128 0x1
 1862 0acc 52       		.byte	0x52
 1863 0acd 22       		.byte	0x22
 1864 0ace 35       		.byte	0x35
 1865 0acf 24       		.byte	0x24
 1866 0ad0 03       		.byte	0x3
 1867 0ad1 10040000 		.4byte	.LANCHOR0+1040
 1868 0ad5 22       		.byte	0x22
 1869 0ad6 00       		.byte	0
 1870 0ad7 00       		.byte	0
 1871 0ad8 24       		.uleb128 0x24
 1872 0ad9 C9020000 		.4byte	.LASF142
 1873 0add 01       		.byte	0x1
 1874 0ade 27       		.byte	0x27
 1875 0adf 00000000 		.4byte	.LFB0
 1876 0ae3 14000000 		.4byte	.LFE0-.LFB0
 1877 0ae7 01       		.uleb128 0x1
ARM GAS  /var/tmp//cc4OxsgC.s 			page 34


 1878 0ae8 9C       		.byte	0x9c
 1879 0ae9 170B0000 		.4byte	0xb17
 1880 0aed 2E       		.uleb128 0x2e
 1881 0aee DA060000 		.4byte	.LASF143
 1882 0af2 01       		.byte	0x1
 1883 0af3 27       		.byte	0x27
 1884 0af4 4A090000 		.4byte	0x94a
 1885 0af8 01       		.uleb128 0x1
 1886 0af9 50       		.byte	0x50
 1887 0afa 2E       		.uleb128 0x2e
 1888 0afb D8010000 		.4byte	.LASF144
 1889 0aff 01       		.byte	0x1
 1890 0b00 28       		.byte	0x28
 1891 0b01 4A090000 		.4byte	0x94a
 1892 0b05 01       		.uleb128 0x1
 1893 0b06 51       		.byte	0x51
 1894 0b07 25       		.uleb128 0x25
 1895 0b08 58040000 		.4byte	.LASF135
 1896 0b0c 01       		.byte	0x1
 1897 0b0d 28       		.byte	0x28
 1898 0b0e 25000000 		.4byte	0x25
 1899 0b12 44030000 		.4byte	.LLST0
 1900 0b16 00       		.byte	0
 1901 0b17 2F       		.uleb128 0x2f
 1902 0b18 D4050000 		.4byte	.LASF148
 1903 0b1c D4050000 		.4byte	.LASF148
 1904 0b20 08       		.byte	0x8
 1905 0b21 1A       		.byte	0x1a
 1906 0b22 30       		.uleb128 0x30
 1907 0b23 1C000000 		.4byte	.LASF149
 1908 0b27 1C000000 		.4byte	.LASF149
 1909 0b2b 00       		.byte	0
 1910              		.section	.debug_abbrev,"",%progbits
 1911              	.Ldebug_abbrev0:
 1912 0000 01       		.uleb128 0x1
 1913 0001 11       		.uleb128 0x11
 1914 0002 01       		.byte	0x1
 1915 0003 25       		.uleb128 0x25
 1916 0004 0E       		.uleb128 0xe
 1917 0005 13       		.uleb128 0x13
 1918 0006 0B       		.uleb128 0xb
 1919 0007 03       		.uleb128 0x3
 1920 0008 0E       		.uleb128 0xe
 1921 0009 1B       		.uleb128 0x1b
 1922 000a 0E       		.uleb128 0xe
 1923 000b 55       		.uleb128 0x55
 1924 000c 17       		.uleb128 0x17
 1925 000d 11       		.uleb128 0x11
 1926 000e 01       		.uleb128 0x1
 1927 000f 10       		.uleb128 0x10
 1928 0010 17       		.uleb128 0x17
 1929 0011 00       		.byte	0
 1930 0012 00       		.byte	0
 1931 0013 02       		.uleb128 0x2
 1932 0014 24       		.uleb128 0x24
 1933 0015 00       		.byte	0
 1934 0016 0B       		.uleb128 0xb
ARM GAS  /var/tmp//cc4OxsgC.s 			page 35


 1935 0017 0B       		.uleb128 0xb
 1936 0018 3E       		.uleb128 0x3e
 1937 0019 0B       		.uleb128 0xb
 1938 001a 03       		.uleb128 0x3
 1939 001b 08       		.uleb128 0x8
 1940 001c 00       		.byte	0
 1941 001d 00       		.byte	0
 1942 001e 03       		.uleb128 0x3
 1943 001f 24       		.uleb128 0x24
 1944 0020 00       		.byte	0
 1945 0021 0B       		.uleb128 0xb
 1946 0022 0B       		.uleb128 0xb
 1947 0023 3E       		.uleb128 0x3e
 1948 0024 0B       		.uleb128 0xb
 1949 0025 03       		.uleb128 0x3
 1950 0026 0E       		.uleb128 0xe
 1951 0027 00       		.byte	0
 1952 0028 00       		.byte	0
 1953 0029 04       		.uleb128 0x4
 1954 002a 16       		.uleb128 0x16
 1955 002b 00       		.byte	0
 1956 002c 03       		.uleb128 0x3
 1957 002d 0E       		.uleb128 0xe
 1958 002e 3A       		.uleb128 0x3a
 1959 002f 0B       		.uleb128 0xb
 1960 0030 3B       		.uleb128 0x3b
 1961 0031 0B       		.uleb128 0xb
 1962 0032 49       		.uleb128 0x49
 1963 0033 13       		.uleb128 0x13
 1964 0034 00       		.byte	0
 1965 0035 00       		.byte	0
 1966 0036 05       		.uleb128 0x5
 1967 0037 35       		.uleb128 0x35
 1968 0038 00       		.byte	0
 1969 0039 49       		.uleb128 0x49
 1970 003a 13       		.uleb128 0x13
 1971 003b 00       		.byte	0
 1972 003c 00       		.byte	0
 1973 003d 06       		.uleb128 0x6
 1974 003e 0F       		.uleb128 0xf
 1975 003f 00       		.byte	0
 1976 0040 0B       		.uleb128 0xb
 1977 0041 0B       		.uleb128 0xb
 1978 0042 49       		.uleb128 0x49
 1979 0043 13       		.uleb128 0x13
 1980 0044 00       		.byte	0
 1981 0045 00       		.byte	0
 1982 0046 07       		.uleb128 0x7
 1983 0047 13       		.uleb128 0x13
 1984 0048 00       		.byte	0
 1985 0049 03       		.uleb128 0x3
 1986 004a 0E       		.uleb128 0xe
 1987 004b 3C       		.uleb128 0x3c
 1988 004c 19       		.uleb128 0x19
 1989 004d 00       		.byte	0
 1990 004e 00       		.byte	0
 1991 004f 08       		.uleb128 0x8
ARM GAS  /var/tmp//cc4OxsgC.s 			page 36


 1992 0050 16       		.uleb128 0x16
 1993 0051 00       		.byte	0
 1994 0052 03       		.uleb128 0x3
 1995 0053 0E       		.uleb128 0xe
 1996 0054 3A       		.uleb128 0x3a
 1997 0055 0B       		.uleb128 0xb
 1998 0056 3B       		.uleb128 0x3b
 1999 0057 05       		.uleb128 0x5
 2000 0058 49       		.uleb128 0x49
 2001 0059 13       		.uleb128 0x13
 2002 005a 00       		.byte	0
 2003 005b 00       		.byte	0
 2004 005c 09       		.uleb128 0x9
 2005 005d 17       		.uleb128 0x17
 2006 005e 01       		.byte	0x1
 2007 005f 0B       		.uleb128 0xb
 2008 0060 0B       		.uleb128 0xb
 2009 0061 3A       		.uleb128 0x3a
 2010 0062 0B       		.uleb128 0xb
 2011 0063 3B       		.uleb128 0x3b
 2012 0064 0B       		.uleb128 0xb
 2013 0065 01       		.uleb128 0x1
 2014 0066 13       		.uleb128 0x13
 2015 0067 00       		.byte	0
 2016 0068 00       		.byte	0
 2017 0069 0A       		.uleb128 0xa
 2018 006a 0D       		.uleb128 0xd
 2019 006b 00       		.byte	0
 2020 006c 03       		.uleb128 0x3
 2021 006d 0E       		.uleb128 0xe
 2022 006e 3A       		.uleb128 0x3a
 2023 006f 0B       		.uleb128 0xb
 2024 0070 3B       		.uleb128 0x3b
 2025 0071 0B       		.uleb128 0xb
 2026 0072 49       		.uleb128 0x49
 2027 0073 13       		.uleb128 0x13
 2028 0074 00       		.byte	0
 2029 0075 00       		.byte	0
 2030 0076 0B       		.uleb128 0xb
 2031 0077 01       		.uleb128 0x1
 2032 0078 01       		.byte	0x1
 2033 0079 49       		.uleb128 0x49
 2034 007a 13       		.uleb128 0x13
 2035 007b 01       		.uleb128 0x1
 2036 007c 13       		.uleb128 0x13
 2037 007d 00       		.byte	0
 2038 007e 00       		.byte	0
 2039 007f 0C       		.uleb128 0xc
 2040 0080 21       		.uleb128 0x21
 2041 0081 00       		.byte	0
 2042 0082 49       		.uleb128 0x49
 2043 0083 13       		.uleb128 0x13
 2044 0084 2F       		.uleb128 0x2f
 2045 0085 0B       		.uleb128 0xb
 2046 0086 00       		.byte	0
 2047 0087 00       		.byte	0
 2048 0088 0D       		.uleb128 0xd
ARM GAS  /var/tmp//cc4OxsgC.s 			page 37


 2049 0089 13       		.uleb128 0x13
 2050 008a 01       		.byte	0x1
 2051 008b 0B       		.uleb128 0xb
 2052 008c 0B       		.uleb128 0xb
 2053 008d 3A       		.uleb128 0x3a
 2054 008e 0B       		.uleb128 0xb
 2055 008f 3B       		.uleb128 0x3b
 2056 0090 0B       		.uleb128 0xb
 2057 0091 01       		.uleb128 0x1
 2058 0092 13       		.uleb128 0x13
 2059 0093 00       		.byte	0
 2060 0094 00       		.byte	0
 2061 0095 0E       		.uleb128 0xe
 2062 0096 0D       		.uleb128 0xd
 2063 0097 00       		.byte	0
 2064 0098 03       		.uleb128 0x3
 2065 0099 0E       		.uleb128 0xe
 2066 009a 3A       		.uleb128 0x3a
 2067 009b 0B       		.uleb128 0xb
 2068 009c 3B       		.uleb128 0x3b
 2069 009d 0B       		.uleb128 0xb
 2070 009e 49       		.uleb128 0x49
 2071 009f 13       		.uleb128 0x13
 2072 00a0 38       		.uleb128 0x38
 2073 00a1 0B       		.uleb128 0xb
 2074 00a2 00       		.byte	0
 2075 00a3 00       		.byte	0
 2076 00a4 0F       		.uleb128 0xf
 2077 00a5 0F       		.uleb128 0xf
 2078 00a6 00       		.byte	0
 2079 00a7 0B       		.uleb128 0xb
 2080 00a8 0B       		.uleb128 0xb
 2081 00a9 00       		.byte	0
 2082 00aa 00       		.byte	0
 2083 00ab 10       		.uleb128 0x10
 2084 00ac 26       		.uleb128 0x26
 2085 00ad 00       		.byte	0
 2086 00ae 49       		.uleb128 0x49
 2087 00af 13       		.uleb128 0x13
 2088 00b0 00       		.byte	0
 2089 00b1 00       		.byte	0
 2090 00b2 11       		.uleb128 0x11
 2091 00b3 13       		.uleb128 0x13
 2092 00b4 01       		.byte	0x1
 2093 00b5 03       		.uleb128 0x3
 2094 00b6 0E       		.uleb128 0xe
 2095 00b7 0B       		.uleb128 0xb
 2096 00b8 0B       		.uleb128 0xb
 2097 00b9 3A       		.uleb128 0x3a
 2098 00ba 0B       		.uleb128 0xb
 2099 00bb 3B       		.uleb128 0x3b
 2100 00bc 0B       		.uleb128 0xb
 2101 00bd 01       		.uleb128 0x1
 2102 00be 13       		.uleb128 0x13
 2103 00bf 00       		.byte	0
 2104 00c0 00       		.byte	0
 2105 00c1 12       		.uleb128 0x12
ARM GAS  /var/tmp//cc4OxsgC.s 			page 38


 2106 00c2 0D       		.uleb128 0xd
 2107 00c3 00       		.byte	0
 2108 00c4 03       		.uleb128 0x3
 2109 00c5 08       		.uleb128 0x8
 2110 00c6 3A       		.uleb128 0x3a
 2111 00c7 0B       		.uleb128 0xb
 2112 00c8 3B       		.uleb128 0x3b
 2113 00c9 0B       		.uleb128 0xb
 2114 00ca 49       		.uleb128 0x49
 2115 00cb 13       		.uleb128 0x13
 2116 00cc 38       		.uleb128 0x38
 2117 00cd 0B       		.uleb128 0xb
 2118 00ce 00       		.byte	0
 2119 00cf 00       		.byte	0
 2120 00d0 13       		.uleb128 0x13
 2121 00d1 13       		.uleb128 0x13
 2122 00d2 01       		.byte	0x1
 2123 00d3 03       		.uleb128 0x3
 2124 00d4 0E       		.uleb128 0xe
 2125 00d5 0B       		.uleb128 0xb
 2126 00d6 05       		.uleb128 0x5
 2127 00d7 3A       		.uleb128 0x3a
 2128 00d8 0B       		.uleb128 0xb
 2129 00d9 3B       		.uleb128 0x3b
 2130 00da 0B       		.uleb128 0xb
 2131 00db 01       		.uleb128 0x1
 2132 00dc 13       		.uleb128 0x13
 2133 00dd 00       		.byte	0
 2134 00de 00       		.byte	0
 2135 00df 14       		.uleb128 0x14
 2136 00e0 0D       		.uleb128 0xd
 2137 00e1 00       		.byte	0
 2138 00e2 03       		.uleb128 0x3
 2139 00e3 0E       		.uleb128 0xe
 2140 00e4 3A       		.uleb128 0x3a
 2141 00e5 0B       		.uleb128 0xb
 2142 00e6 3B       		.uleb128 0x3b
 2143 00e7 0B       		.uleb128 0xb
 2144 00e8 49       		.uleb128 0x49
 2145 00e9 13       		.uleb128 0x13
 2146 00ea 38       		.uleb128 0x38
 2147 00eb 05       		.uleb128 0x5
 2148 00ec 00       		.byte	0
 2149 00ed 00       		.byte	0
 2150 00ee 15       		.uleb128 0x15
 2151 00ef 15       		.uleb128 0x15
 2152 00f0 00       		.byte	0
 2153 00f1 27       		.uleb128 0x27
 2154 00f2 19       		.uleb128 0x19
 2155 00f3 00       		.byte	0
 2156 00f4 00       		.byte	0
 2157 00f5 16       		.uleb128 0x16
 2158 00f6 15       		.uleb128 0x15
 2159 00f7 01       		.byte	0x1
 2160 00f8 27       		.uleb128 0x27
 2161 00f9 19       		.uleb128 0x19
 2162 00fa 49       		.uleb128 0x49
ARM GAS  /var/tmp//cc4OxsgC.s 			page 39


 2163 00fb 13       		.uleb128 0x13
 2164 00fc 01       		.uleb128 0x1
 2165 00fd 13       		.uleb128 0x13
 2166 00fe 00       		.byte	0
 2167 00ff 00       		.byte	0
 2168 0100 17       		.uleb128 0x17
 2169 0101 05       		.uleb128 0x5
 2170 0102 00       		.byte	0
 2171 0103 49       		.uleb128 0x49
 2172 0104 13       		.uleb128 0x13
 2173 0105 00       		.byte	0
 2174 0106 00       		.byte	0
 2175 0107 18       		.uleb128 0x18
 2176 0108 13       		.uleb128 0x13
 2177 0109 01       		.byte	0x1
 2178 010a 03       		.uleb128 0x3
 2179 010b 0E       		.uleb128 0xe
 2180 010c 0B       		.uleb128 0xb
 2181 010d 05       		.uleb128 0x5
 2182 010e 3A       		.uleb128 0x3a
 2183 010f 0B       		.uleb128 0xb
 2184 0110 3B       		.uleb128 0x3b
 2185 0111 05       		.uleb128 0x5
 2186 0112 01       		.uleb128 0x1
 2187 0113 13       		.uleb128 0x13
 2188 0114 00       		.byte	0
 2189 0115 00       		.byte	0
 2190 0116 19       		.uleb128 0x19
 2191 0117 0D       		.uleb128 0xd
 2192 0118 00       		.byte	0
 2193 0119 03       		.uleb128 0x3
 2194 011a 0E       		.uleb128 0xe
 2195 011b 3A       		.uleb128 0x3a
 2196 011c 0B       		.uleb128 0xb
 2197 011d 3B       		.uleb128 0x3b
 2198 011e 05       		.uleb128 0x5
 2199 011f 49       		.uleb128 0x49
 2200 0120 13       		.uleb128 0x13
 2201 0121 38       		.uleb128 0x38
 2202 0122 0B       		.uleb128 0xb
 2203 0123 00       		.byte	0
 2204 0124 00       		.byte	0
 2205 0125 1A       		.uleb128 0x1a
 2206 0126 0D       		.uleb128 0xd
 2207 0127 00       		.byte	0
 2208 0128 03       		.uleb128 0x3
 2209 0129 0E       		.uleb128 0xe
 2210 012a 3A       		.uleb128 0x3a
 2211 012b 0B       		.uleb128 0xb
 2212 012c 3B       		.uleb128 0x3b
 2213 012d 05       		.uleb128 0x5
 2214 012e 49       		.uleb128 0x49
 2215 012f 13       		.uleb128 0x13
 2216 0130 38       		.uleb128 0x38
 2217 0131 05       		.uleb128 0x5
 2218 0132 00       		.byte	0
 2219 0133 00       		.byte	0
ARM GAS  /var/tmp//cc4OxsgC.s 			page 40


 2220 0134 1B       		.uleb128 0x1b
 2221 0135 13       		.uleb128 0x13
 2222 0136 01       		.byte	0x1
 2223 0137 03       		.uleb128 0x3
 2224 0138 0E       		.uleb128 0xe
 2225 0139 0B       		.uleb128 0xb
 2226 013a 0B       		.uleb128 0xb
 2227 013b 3A       		.uleb128 0x3a
 2228 013c 0B       		.uleb128 0xb
 2229 013d 3B       		.uleb128 0x3b
 2230 013e 05       		.uleb128 0x5
 2231 013f 01       		.uleb128 0x1
 2232 0140 13       		.uleb128 0x13
 2233 0141 00       		.byte	0
 2234 0142 00       		.byte	0
 2235 0143 1C       		.uleb128 0x1c
 2236 0144 13       		.uleb128 0x13
 2237 0145 01       		.byte	0x1
 2238 0146 0B       		.uleb128 0xb
 2239 0147 0B       		.uleb128 0xb
 2240 0148 3A       		.uleb128 0x3a
 2241 0149 0B       		.uleb128 0xb
 2242 014a 3B       		.uleb128 0x3b
 2243 014b 05       		.uleb128 0x5
 2244 014c 01       		.uleb128 0x1
 2245 014d 13       		.uleb128 0x13
 2246 014e 00       		.byte	0
 2247 014f 00       		.byte	0
 2248 0150 1D       		.uleb128 0x1d
 2249 0151 17       		.uleb128 0x17
 2250 0152 01       		.byte	0x1
 2251 0153 0B       		.uleb128 0xb
 2252 0154 0B       		.uleb128 0xb
 2253 0155 3A       		.uleb128 0x3a
 2254 0156 0B       		.uleb128 0xb
 2255 0157 3B       		.uleb128 0x3b
 2256 0158 05       		.uleb128 0x5
 2257 0159 01       		.uleb128 0x1
 2258 015a 13       		.uleb128 0x13
 2259 015b 00       		.byte	0
 2260 015c 00       		.byte	0
 2261 015d 1E       		.uleb128 0x1e
 2262 015e 0D       		.uleb128 0xd
 2263 015f 00       		.byte	0
 2264 0160 03       		.uleb128 0x3
 2265 0161 0E       		.uleb128 0xe
 2266 0162 3A       		.uleb128 0x3a
 2267 0163 0B       		.uleb128 0xb
 2268 0164 3B       		.uleb128 0x3b
 2269 0165 05       		.uleb128 0x5
 2270 0166 49       		.uleb128 0x49
 2271 0167 13       		.uleb128 0x13
 2272 0168 00       		.byte	0
 2273 0169 00       		.byte	0
 2274 016a 1F       		.uleb128 0x1f
 2275 016b 15       		.uleb128 0x15
 2276 016c 01       		.byte	0x1
ARM GAS  /var/tmp//cc4OxsgC.s 			page 41


 2277 016d 27       		.uleb128 0x27
 2278 016e 19       		.uleb128 0x19
 2279 016f 01       		.uleb128 0x1
 2280 0170 13       		.uleb128 0x13
 2281 0171 00       		.byte	0
 2282 0172 00       		.byte	0
 2283 0173 20       		.uleb128 0x20
 2284 0174 34       		.uleb128 0x34
 2285 0175 00       		.byte	0
 2286 0176 03       		.uleb128 0x3
 2287 0177 0E       		.uleb128 0xe
 2288 0178 3A       		.uleb128 0x3a
 2289 0179 0B       		.uleb128 0xb
 2290 017a 3B       		.uleb128 0x3b
 2291 017b 05       		.uleb128 0x5
 2292 017c 49       		.uleb128 0x49
 2293 017d 13       		.uleb128 0x13
 2294 017e 3F       		.uleb128 0x3f
 2295 017f 19       		.uleb128 0x19
 2296 0180 3C       		.uleb128 0x3c
 2297 0181 19       		.uleb128 0x19
 2298 0182 00       		.byte	0
 2299 0183 00       		.byte	0
 2300 0184 21       		.uleb128 0x21
 2301 0185 13       		.uleb128 0x13
 2302 0186 01       		.byte	0x1
 2303 0187 0B       		.uleb128 0xb
 2304 0188 05       		.uleb128 0x5
 2305 0189 3A       		.uleb128 0x3a
 2306 018a 0B       		.uleb128 0xb
 2307 018b 3B       		.uleb128 0x3b
 2308 018c 0B       		.uleb128 0xb
 2309 018d 01       		.uleb128 0x1
 2310 018e 13       		.uleb128 0x13
 2311 018f 00       		.byte	0
 2312 0190 00       		.byte	0
 2313 0191 22       		.uleb128 0x22
 2314 0192 21       		.uleb128 0x21
 2315 0193 00       		.byte	0
 2316 0194 49       		.uleb128 0x49
 2317 0195 13       		.uleb128 0x13
 2318 0196 2F       		.uleb128 0x2f
 2319 0197 05       		.uleb128 0x5
 2320 0198 00       		.byte	0
 2321 0199 00       		.byte	0
 2322 019a 23       		.uleb128 0x23
 2323 019b 34       		.uleb128 0x34
 2324 019c 00       		.byte	0
 2325 019d 03       		.uleb128 0x3
 2326 019e 0E       		.uleb128 0xe
 2327 019f 3A       		.uleb128 0x3a
 2328 01a0 0B       		.uleb128 0xb
 2329 01a1 3B       		.uleb128 0x3b
 2330 01a2 0B       		.uleb128 0xb
 2331 01a3 49       		.uleb128 0x49
 2332 01a4 13       		.uleb128 0x13
 2333 01a5 02       		.uleb128 0x2
ARM GAS  /var/tmp//cc4OxsgC.s 			page 42


 2334 01a6 18       		.uleb128 0x18
 2335 01a7 00       		.byte	0
 2336 01a8 00       		.byte	0
 2337 01a9 24       		.uleb128 0x24
 2338 01aa 2E       		.uleb128 0x2e
 2339 01ab 01       		.byte	0x1
 2340 01ac 3F       		.uleb128 0x3f
 2341 01ad 19       		.uleb128 0x19
 2342 01ae 03       		.uleb128 0x3
 2343 01af 0E       		.uleb128 0xe
 2344 01b0 3A       		.uleb128 0x3a
 2345 01b1 0B       		.uleb128 0xb
 2346 01b2 3B       		.uleb128 0x3b
 2347 01b3 0B       		.uleb128 0xb
 2348 01b4 27       		.uleb128 0x27
 2349 01b5 19       		.uleb128 0x19
 2350 01b6 11       		.uleb128 0x11
 2351 01b7 01       		.uleb128 0x1
 2352 01b8 12       		.uleb128 0x12
 2353 01b9 06       		.uleb128 0x6
 2354 01ba 40       		.uleb128 0x40
 2355 01bb 18       		.uleb128 0x18
 2356 01bc 9742     		.uleb128 0x2117
 2357 01be 19       		.uleb128 0x19
 2358 01bf 01       		.uleb128 0x1
 2359 01c0 13       		.uleb128 0x13
 2360 01c1 00       		.byte	0
 2361 01c2 00       		.byte	0
 2362 01c3 25       		.uleb128 0x25
 2363 01c4 05       		.uleb128 0x5
 2364 01c5 00       		.byte	0
 2365 01c6 03       		.uleb128 0x3
 2366 01c7 0E       		.uleb128 0xe
 2367 01c8 3A       		.uleb128 0x3a
 2368 01c9 0B       		.uleb128 0xb
 2369 01ca 3B       		.uleb128 0x3b
 2370 01cb 0B       		.uleb128 0xb
 2371 01cc 49       		.uleb128 0x49
 2372 01cd 13       		.uleb128 0x13
 2373 01ce 02       		.uleb128 0x2
 2374 01cf 17       		.uleb128 0x17
 2375 01d0 00       		.byte	0
 2376 01d1 00       		.byte	0
 2377 01d2 26       		.uleb128 0x26
 2378 01d3 898201   		.uleb128 0x4109
 2379 01d6 01       		.byte	0x1
 2380 01d7 11       		.uleb128 0x11
 2381 01d8 01       		.uleb128 0x1
 2382 01d9 31       		.uleb128 0x31
 2383 01da 13       		.uleb128 0x13
 2384 01db 01       		.uleb128 0x1
 2385 01dc 13       		.uleb128 0x13
 2386 01dd 00       		.byte	0
 2387 01de 00       		.byte	0
 2388 01df 27       		.uleb128 0x27
 2389 01e0 8A8201   		.uleb128 0x410a
 2390 01e3 00       		.byte	0
ARM GAS  /var/tmp//cc4OxsgC.s 			page 43


 2391 01e4 02       		.uleb128 0x2
 2392 01e5 18       		.uleb128 0x18
 2393 01e6 9142     		.uleb128 0x2111
 2394 01e8 18       		.uleb128 0x18
 2395 01e9 00       		.byte	0
 2396 01ea 00       		.byte	0
 2397 01eb 28       		.uleb128 0x28
 2398 01ec 898201   		.uleb128 0x4109
 2399 01ef 01       		.byte	0x1
 2400 01f0 11       		.uleb128 0x11
 2401 01f1 01       		.uleb128 0x1
 2402 01f2 00       		.byte	0
 2403 01f3 00       		.byte	0
 2404 01f4 29       		.uleb128 0x29
 2405 01f5 0B       		.uleb128 0xb
 2406 01f6 01       		.byte	0x1
 2407 01f7 11       		.uleb128 0x11
 2408 01f8 01       		.uleb128 0x1
 2409 01f9 12       		.uleb128 0x12
 2410 01fa 06       		.uleb128 0x6
 2411 01fb 00       		.byte	0
 2412 01fc 00       		.byte	0
 2413 01fd 2A       		.uleb128 0x2a
 2414 01fe 34       		.uleb128 0x34
 2415 01ff 00       		.byte	0
 2416 0200 03       		.uleb128 0x3
 2417 0201 08       		.uleb128 0x8
 2418 0202 3A       		.uleb128 0x3a
 2419 0203 0B       		.uleb128 0xb
 2420 0204 3B       		.uleb128 0x3b
 2421 0205 0B       		.uleb128 0xb
 2422 0206 49       		.uleb128 0x49
 2423 0207 13       		.uleb128 0x13
 2424 0208 02       		.uleb128 0x2
 2425 0209 17       		.uleb128 0x17
 2426 020a 00       		.byte	0
 2427 020b 00       		.byte	0
 2428 020c 2B       		.uleb128 0x2b
 2429 020d 05       		.uleb128 0x5
 2430 020e 00       		.byte	0
 2431 020f 03       		.uleb128 0x3
 2432 0210 08       		.uleb128 0x8
 2433 0211 3A       		.uleb128 0x3a
 2434 0212 0B       		.uleb128 0xb
 2435 0213 3B       		.uleb128 0x3b
 2436 0214 0B       		.uleb128 0xb
 2437 0215 49       		.uleb128 0x49
 2438 0216 13       		.uleb128 0x13
 2439 0217 02       		.uleb128 0x2
 2440 0218 17       		.uleb128 0x17
 2441 0219 00       		.byte	0
 2442 021a 00       		.byte	0
 2443 021b 2C       		.uleb128 0x2c
 2444 021c 34       		.uleb128 0x34
 2445 021d 00       		.byte	0
 2446 021e 03       		.uleb128 0x3
 2447 021f 0E       		.uleb128 0xe
ARM GAS  /var/tmp//cc4OxsgC.s 			page 44


 2448 0220 3A       		.uleb128 0x3a
 2449 0221 0B       		.uleb128 0xb
 2450 0222 3B       		.uleb128 0x3b
 2451 0223 0B       		.uleb128 0xb
 2452 0224 49       		.uleb128 0x49
 2453 0225 13       		.uleb128 0x13
 2454 0226 02       		.uleb128 0x2
 2455 0227 17       		.uleb128 0x17
 2456 0228 00       		.byte	0
 2457 0229 00       		.byte	0
 2458 022a 2D       		.uleb128 0x2d
 2459 022b 898201   		.uleb128 0x4109
 2460 022e 01       		.byte	0x1
 2461 022f 11       		.uleb128 0x11
 2462 0230 01       		.uleb128 0x1
 2463 0231 9542     		.uleb128 0x2115
 2464 0233 19       		.uleb128 0x19
 2465 0234 00       		.byte	0
 2466 0235 00       		.byte	0
 2467 0236 2E       		.uleb128 0x2e
 2468 0237 05       		.uleb128 0x5
 2469 0238 00       		.byte	0
 2470 0239 03       		.uleb128 0x3
 2471 023a 0E       		.uleb128 0xe
 2472 023b 3A       		.uleb128 0x3a
 2473 023c 0B       		.uleb128 0xb
 2474 023d 3B       		.uleb128 0x3b
 2475 023e 0B       		.uleb128 0xb
 2476 023f 49       		.uleb128 0x49
 2477 0240 13       		.uleb128 0x13
 2478 0241 02       		.uleb128 0x2
 2479 0242 18       		.uleb128 0x18
 2480 0243 00       		.byte	0
 2481 0244 00       		.byte	0
 2482 0245 2F       		.uleb128 0x2f
 2483 0246 2E       		.uleb128 0x2e
 2484 0247 00       		.byte	0
 2485 0248 3F       		.uleb128 0x3f
 2486 0249 19       		.uleb128 0x19
 2487 024a 3C       		.uleb128 0x3c
 2488 024b 19       		.uleb128 0x19
 2489 024c 6E       		.uleb128 0x6e
 2490 024d 0E       		.uleb128 0xe
 2491 024e 03       		.uleb128 0x3
 2492 024f 0E       		.uleb128 0xe
 2493 0250 3A       		.uleb128 0x3a
 2494 0251 0B       		.uleb128 0xb
 2495 0252 3B       		.uleb128 0x3b
 2496 0253 0B       		.uleb128 0xb
 2497 0254 00       		.byte	0
 2498 0255 00       		.byte	0
 2499 0256 30       		.uleb128 0x30
 2500 0257 2E       		.uleb128 0x2e
 2501 0258 00       		.byte	0
 2502 0259 3F       		.uleb128 0x3f
 2503 025a 19       		.uleb128 0x19
 2504 025b 3C       		.uleb128 0x3c
ARM GAS  /var/tmp//cc4OxsgC.s 			page 45


 2505 025c 19       		.uleb128 0x19
 2506 025d 6E       		.uleb128 0x6e
 2507 025e 0E       		.uleb128 0xe
 2508 025f 03       		.uleb128 0x3
 2509 0260 0E       		.uleb128 0xe
 2510 0261 00       		.byte	0
 2511 0262 00       		.byte	0
 2512 0263 00       		.byte	0
 2513              		.section	.debug_loc,"",%progbits
 2514              	.Ldebug_loc0:
 2515              	.LLST7:
 2516 0000 00000000 		.4byte	.LVL26
 2517 0004 24000000 		.4byte	.LVL27
 2518 0008 0100     		.2byte	0x1
 2519 000a 50       		.byte	0x50
 2520 000b 24000000 		.4byte	.LVL27
 2521 000f 30000000 		.4byte	.LVL29
 2522 0013 0400     		.2byte	0x4
 2523 0015 F3       		.byte	0xf3
 2524 0016 01       		.uleb128 0x1
 2525 0017 50       		.byte	0x50
 2526 0018 9F       		.byte	0x9f
 2527 0019 30000000 		.4byte	.LVL29
 2528 001d 3E000000 		.4byte	.LVL31
 2529 0021 0100     		.2byte	0x1
 2530 0023 50       		.byte	0x50
 2531 0024 3E000000 		.4byte	.LVL31
 2532 0028 46000000 		.4byte	.LVL32
 2533 002c 0400     		.2byte	0x4
 2534 002e F3       		.byte	0xf3
 2535 002f 01       		.uleb128 0x1
 2536 0030 50       		.byte	0x50
 2537 0031 9F       		.byte	0x9f
 2538 0032 46000000 		.4byte	.LVL32
 2539 0036 56000000 		.4byte	.LVL34
 2540 003a 0100     		.2byte	0x1
 2541 003c 50       		.byte	0x50
 2542 003d 56000000 		.4byte	.LVL34
 2543 0041 62000000 		.4byte	.LVL35
 2544 0045 0400     		.2byte	0x4
 2545 0047 F3       		.byte	0xf3
 2546 0048 01       		.uleb128 0x1
 2547 0049 50       		.byte	0x50
 2548 004a 9F       		.byte	0x9f
 2549 004b 62000000 		.4byte	.LVL35
 2550 004f 6C000000 		.4byte	.LVL37
 2551 0053 0100     		.2byte	0x1
 2552 0055 50       		.byte	0x50
 2553 0056 6C000000 		.4byte	.LVL37
 2554 005a 88000000 		.4byte	.LVL38
 2555 005e 0400     		.2byte	0x4
 2556 0060 F3       		.byte	0xf3
 2557 0061 01       		.uleb128 0x1
 2558 0062 50       		.byte	0x50
 2559 0063 9F       		.byte	0x9f
 2560 0064 88000000 		.4byte	.LVL38
 2561 0068 F2000000 		.4byte	.LVL46
ARM GAS  /var/tmp//cc4OxsgC.s 			page 46


 2562 006c 0100     		.2byte	0x1
 2563 006e 50       		.byte	0x50
 2564 006f F2000000 		.4byte	.LVL46
 2565 0073 02010000 		.4byte	.LVL47
 2566 0077 0400     		.2byte	0x4
 2567 0079 F3       		.byte	0xf3
 2568 007a 01       		.uleb128 0x1
 2569 007b 50       		.byte	0x50
 2570 007c 9F       		.byte	0x9f
 2571 007d 02010000 		.4byte	.LVL47
 2572 0081 18010000 		.4byte	.LVL49
 2573 0085 0100     		.2byte	0x1
 2574 0087 50       		.byte	0x50
 2575 0088 18010000 		.4byte	.LVL49
 2576 008c 3C010000 		.4byte	.LFE3
 2577 0090 0400     		.2byte	0x4
 2578 0092 F3       		.byte	0xf3
 2579 0093 01       		.uleb128 0x1
 2580 0094 50       		.byte	0x50
 2581 0095 9F       		.byte	0x9f
 2582 0096 00000000 		.4byte	0
 2583 009a 00000000 		.4byte	0
 2584              	.LLST8:
 2585 009e 00000000 		.4byte	.LVL26
 2586 00a2 24000000 		.4byte	.LVL27
 2587 00a6 0100     		.2byte	0x1
 2588 00a8 51       		.byte	0x51
 2589 00a9 24000000 		.4byte	.LVL27
 2590 00ad 26000000 		.4byte	.LVL28
 2591 00b1 0100     		.2byte	0x1
 2592 00b3 54       		.byte	0x54
 2593 00b4 26000000 		.4byte	.LVL28
 2594 00b8 30000000 		.4byte	.LVL29
 2595 00bc 0400     		.2byte	0x4
 2596 00be F3       		.byte	0xf3
 2597 00bf 01       		.uleb128 0x1
 2598 00c0 51       		.byte	0x51
 2599 00c1 9F       		.byte	0x9f
 2600 00c2 30000000 		.4byte	.LVL29
 2601 00c6 32000000 		.4byte	.LVL30
 2602 00ca 0100     		.2byte	0x1
 2603 00cc 51       		.byte	0x51
 2604 00cd 32000000 		.4byte	.LVL30
 2605 00d1 46000000 		.4byte	.LVL32
 2606 00d5 0400     		.2byte	0x4
 2607 00d7 F3       		.byte	0xf3
 2608 00d8 01       		.uleb128 0x1
 2609 00d9 51       		.byte	0x51
 2610 00da 9F       		.byte	0x9f
 2611 00db 46000000 		.4byte	.LVL32
 2612 00df 48000000 		.4byte	.LVL33
 2613 00e3 0100     		.2byte	0x1
 2614 00e5 51       		.byte	0x51
 2615 00e6 48000000 		.4byte	.LVL33
 2616 00ea 62000000 		.4byte	.LVL35
 2617 00ee 0400     		.2byte	0x4
 2618 00f0 F3       		.byte	0xf3
ARM GAS  /var/tmp//cc4OxsgC.s 			page 47


 2619 00f1 01       		.uleb128 0x1
 2620 00f2 51       		.byte	0x51
 2621 00f3 9F       		.byte	0x9f
 2622 00f4 62000000 		.4byte	.LVL35
 2623 00f8 64000000 		.4byte	.LVL36
 2624 00fc 0100     		.2byte	0x1
 2625 00fe 51       		.byte	0x51
 2626 00ff 64000000 		.4byte	.LVL36
 2627 0103 88000000 		.4byte	.LVL38
 2628 0107 0400     		.2byte	0x4
 2629 0109 F3       		.byte	0xf3
 2630 010a 01       		.uleb128 0x1
 2631 010b 51       		.byte	0x51
 2632 010c 9F       		.byte	0x9f
 2633 010d 88000000 		.4byte	.LVL38
 2634 0111 B0000000 		.4byte	.LVL39
 2635 0115 0100     		.2byte	0x1
 2636 0117 51       		.byte	0x51
 2637 0118 B0000000 		.4byte	.LVL39
 2638 011c BE000000 		.4byte	.LVL40
 2639 0120 0400     		.2byte	0x4
 2640 0122 F3       		.byte	0xf3
 2641 0123 01       		.uleb128 0x1
 2642 0124 51       		.byte	0x51
 2643 0125 9F       		.byte	0x9f
 2644 0126 BE000000 		.4byte	.LVL40
 2645 012a C0000000 		.4byte	.LVL41
 2646 012e 0100     		.2byte	0x1
 2647 0130 51       		.byte	0x51
 2648 0131 C0000000 		.4byte	.LVL41
 2649 0135 CC000000 		.4byte	.LVL42
 2650 0139 0400     		.2byte	0x4
 2651 013b F3       		.byte	0xf3
 2652 013c 01       		.uleb128 0x1
 2653 013d 51       		.byte	0x51
 2654 013e 9F       		.byte	0x9f
 2655 013f CC000000 		.4byte	.LVL42
 2656 0143 CE000000 		.4byte	.LVL43
 2657 0147 0100     		.2byte	0x1
 2658 0149 51       		.byte	0x51
 2659 014a CE000000 		.4byte	.LVL43
 2660 014e DA000000 		.4byte	.LVL44
 2661 0152 0400     		.2byte	0x4
 2662 0154 F3       		.byte	0xf3
 2663 0155 01       		.uleb128 0x1
 2664 0156 51       		.byte	0x51
 2665 0157 9F       		.byte	0x9f
 2666 0158 DA000000 		.4byte	.LVL44
 2667 015c DC000000 		.4byte	.LVL45
 2668 0160 0100     		.2byte	0x1
 2669 0162 51       		.byte	0x51
 2670 0163 DC000000 		.4byte	.LVL45
 2671 0167 0A010000 		.4byte	.LVL48
 2672 016b 0400     		.2byte	0x4
 2673 016d F3       		.byte	0xf3
 2674 016e 01       		.uleb128 0x1
 2675 016f 51       		.byte	0x51
ARM GAS  /var/tmp//cc4OxsgC.s 			page 48


 2676 0170 9F       		.byte	0x9f
 2677 0171 0A010000 		.4byte	.LVL48
 2678 0175 1A010000 		.4byte	.LVL50
 2679 0179 0100     		.2byte	0x1
 2680 017b 51       		.byte	0x51
 2681 017c 1A010000 		.4byte	.LVL50
 2682 0180 3C010000 		.4byte	.LFE3
 2683 0184 0100     		.2byte	0x1
 2684 0186 54       		.byte	0x54
 2685 0187 00000000 		.4byte	0
 2686 018b 00000000 		.4byte	0
 2687              	.LLST6:
 2688 018f 00000000 		.4byte	.LVL20
 2689 0193 08000000 		.4byte	.LVL21
 2690 0197 0200     		.2byte	0x2
 2691 0199 30       		.byte	0x30
 2692 019a 9F       		.byte	0x9f
 2693 019b 08000000 		.4byte	.LVL21
 2694 019f 1E000000 		.4byte	.LVL22
 2695 01a3 0200     		.2byte	0x2
 2696 01a5 31       		.byte	0x31
 2697 01a6 9F       		.byte	0x9f
 2698 01a7 1E000000 		.4byte	.LVL22
 2699 01ab 20000000 		.4byte	.LVL23
 2700 01af 0200     		.2byte	0x2
 2701 01b1 32       		.byte	0x32
 2702 01b2 9F       		.byte	0x9f
 2703 01b3 20000000 		.4byte	.LVL23
 2704 01b7 26000000 		.4byte	.LVL24
 2705 01bb 0200     		.2byte	0x2
 2706 01bd 31       		.byte	0x31
 2707 01be 9F       		.byte	0x9f
 2708 01bf 26000000 		.4byte	.LVL24
 2709 01c3 2E000000 		.4byte	.LVL25
 2710 01c7 0200     		.2byte	0x2
 2711 01c9 30       		.byte	0x30
 2712 01ca 9F       		.byte	0x9f
 2713 01cb 2E000000 		.4byte	.LVL25
 2714 01cf 40000000 		.4byte	.LFE2
 2715 01d3 0200     		.2byte	0x2
 2716 01d5 31       		.byte	0x31
 2717 01d6 9F       		.byte	0x9f
 2718 01d7 00000000 		.4byte	0
 2719 01db 00000000 		.4byte	0
 2720              	.LLST1:
 2721 01df 00000000 		.4byte	.LVL2
 2722 01e3 3E000000 		.4byte	.LVL7
 2723 01e7 0100     		.2byte	0x1
 2724 01e9 50       		.byte	0x50
 2725 01ea 3E000000 		.4byte	.LVL7
 2726 01ee 6E000000 		.4byte	.LVL15
 2727 01f2 0100     		.2byte	0x1
 2728 01f4 58       		.byte	0x58
 2729 01f5 6E000000 		.4byte	.LVL15
 2730 01f9 70000000 		.4byte	.LVL16
 2731 01fd 0400     		.2byte	0x4
 2732 01ff F3       		.byte	0xf3
ARM GAS  /var/tmp//cc4OxsgC.s 			page 49


 2733 0200 01       		.uleb128 0x1
 2734 0201 50       		.byte	0x50
 2735 0202 9F       		.byte	0x9f
 2736 0203 70000000 		.4byte	.LVL16
 2737 0207 7C000000 		.4byte	.LVL18
 2738 020b 0100     		.2byte	0x1
 2739 020d 50       		.byte	0x50
 2740 020e 7C000000 		.4byte	.LVL18
 2741 0212 80000000 		.4byte	.LVL19
 2742 0216 0100     		.2byte	0x1
 2743 0218 58       		.byte	0x58
 2744 0219 80000000 		.4byte	.LVL19
 2745 021d 88000000 		.4byte	.LFE1
 2746 0221 0100     		.2byte	0x1
 2747 0223 50       		.byte	0x50
 2748 0224 00000000 		.4byte	0
 2749 0228 00000000 		.4byte	0
 2750              	.LLST2:
 2751 022c 00000000 		.4byte	.LVL2
 2752 0230 40000000 		.4byte	.LVL8
 2753 0234 0100     		.2byte	0x1
 2754 0236 51       		.byte	0x51
 2755 0237 40000000 		.4byte	.LVL8
 2756 023b 43000000 		.4byte	.LVL9-1
 2757 023f 0100     		.2byte	0x1
 2758 0241 52       		.byte	0x52
 2759 0242 43000000 		.4byte	.LVL9-1
 2760 0246 6E000000 		.4byte	.LVL15
 2761 024a 0100     		.2byte	0x1
 2762 024c 55       		.byte	0x55
 2763 024d 6E000000 		.4byte	.LVL15
 2764 0251 70000000 		.4byte	.LVL16
 2765 0255 0400     		.2byte	0x4
 2766 0257 F3       		.byte	0xf3
 2767 0258 01       		.uleb128 0x1
 2768 0259 51       		.byte	0x51
 2769 025a 9F       		.byte	0x9f
 2770 025b 70000000 		.4byte	.LVL16
 2771 025f 7C000000 		.4byte	.LVL18
 2772 0263 0100     		.2byte	0x1
 2773 0265 51       		.byte	0x51
 2774 0266 7C000000 		.4byte	.LVL18
 2775 026a 80000000 		.4byte	.LVL19
 2776 026e 0100     		.2byte	0x1
 2777 0270 55       		.byte	0x55
 2778 0271 80000000 		.4byte	.LVL19
 2779 0275 88000000 		.4byte	.LFE1
 2780 0279 0100     		.2byte	0x1
 2781 027b 51       		.byte	0x51
 2782 027c 00000000 		.4byte	0
 2783 0280 00000000 		.4byte	0
 2784              	.LLST3:
 2785 0284 00000000 		.4byte	.LVL2
 2786 0288 38000000 		.4byte	.LVL6
 2787 028c 0100     		.2byte	0x1
 2788 028e 52       		.byte	0x52
 2789 028f 38000000 		.4byte	.LVL6
ARM GAS  /var/tmp//cc4OxsgC.s 			page 50


 2790 0293 70000000 		.4byte	.LVL16
 2791 0297 0400     		.2byte	0x4
 2792 0299 F3       		.byte	0xf3
 2793 029a 01       		.uleb128 0x1
 2794 029b 52       		.byte	0x52
 2795 029c 9F       		.byte	0x9f
 2796 029d 70000000 		.4byte	.LVL16
 2797 02a1 7C000000 		.4byte	.LVL18
 2798 02a5 0100     		.2byte	0x1
 2799 02a7 52       		.byte	0x52
 2800 02a8 7C000000 		.4byte	.LVL18
 2801 02ac 80000000 		.4byte	.LVL19
 2802 02b0 0400     		.2byte	0x4
 2803 02b2 F3       		.byte	0xf3
 2804 02b3 01       		.uleb128 0x1
 2805 02b4 52       		.byte	0x52
 2806 02b5 9F       		.byte	0x9f
 2807 02b6 80000000 		.4byte	.LVL19
 2808 02ba 88000000 		.4byte	.LFE1
 2809 02be 0100     		.2byte	0x1
 2810 02c0 52       		.byte	0x52
 2811 02c1 00000000 		.4byte	0
 2812 02c5 00000000 		.4byte	0
 2813              	.LLST4:
 2814 02c9 06000000 		.4byte	.LVL3
 2815 02cd 1A000000 		.4byte	.LVL4
 2816 02d1 0200     		.2byte	0x2
 2817 02d3 30       		.byte	0x30
 2818 02d4 9F       		.byte	0x9f
 2819 02d5 1A000000 		.4byte	.LVL4
 2820 02d9 2A000000 		.4byte	.LVL5
 2821 02dd 0200     		.2byte	0x2
 2822 02df 31       		.byte	0x31
 2823 02e0 9F       		.byte	0x9f
 2824 02e1 50000000 		.4byte	.LVL11
 2825 02e5 60000000 		.4byte	.LVL13
 2826 02e9 0300     		.2byte	0x3
 2827 02eb 71       		.byte	0x71
 2828 02ec 01       		.sleb128 1
 2829 02ed 9F       		.byte	0x9f
 2830 02ee 60000000 		.4byte	.LVL13
 2831 02f2 62000000 		.4byte	.LVL14
 2832 02f6 0300     		.2byte	0x3
 2833 02f8 71       		.byte	0x71
 2834 02f9 02       		.sleb128 2
 2835 02fa 9F       		.byte	0x9f
 2836 02fb 62000000 		.4byte	.LVL14
 2837 02ff 6F000000 		.4byte	.LVL16-1
 2838 0303 0100     		.2byte	0x1
 2839 0305 51       		.byte	0x51
 2840 0306 70000000 		.4byte	.LVL16
 2841 030a 7A000000 		.4byte	.LVL17
 2842 030e 0200     		.2byte	0x2
 2843 0310 31       		.byte	0x31
 2844 0311 9F       		.byte	0x9f
 2845 0312 7A000000 		.4byte	.LVL17
 2846 0316 7C000000 		.4byte	.LVL18
ARM GAS  /var/tmp//cc4OxsgC.s 			page 51


 2847 031a 0200     		.2byte	0x2
 2848 031c 32       		.byte	0x32
 2849 031d 9F       		.byte	0x9f
 2850 031e 7C000000 		.4byte	.LVL18
 2851 0322 80000000 		.4byte	.LVL19
 2852 0326 0100     		.2byte	0x1
 2853 0328 51       		.byte	0x51
 2854 0329 00000000 		.4byte	0
 2855 032d 00000000 		.4byte	0
 2856              	.LLST5:
 2857 0331 50000000 		.4byte	.LVL11
 2858 0335 5C000000 		.4byte	.LVL12
 2859 0339 0100     		.2byte	0x1
 2860 033b 50       		.byte	0x50
 2861 033c 00000000 		.4byte	0
 2862 0340 00000000 		.4byte	0
 2863              	.LLST0:
 2864 0344 00000000 		.4byte	.LVL0
 2865 0348 06000000 		.4byte	.LVL1
 2866 034c 0100     		.2byte	0x1
 2867 034e 52       		.byte	0x52
 2868 034f 06000000 		.4byte	.LVL1
 2869 0353 14000000 		.4byte	.LFE0
 2870 0357 0400     		.2byte	0x4
 2871 0359 F3       		.byte	0xf3
 2872 035a 01       		.uleb128 0x1
 2873 035b 52       		.byte	0x52
 2874 035c 9F       		.byte	0x9f
 2875 035d 00000000 		.4byte	0
 2876 0361 00000000 		.4byte	0
 2877              		.section	.debug_aranges,"",%progbits
 2878 0000 34000000 		.4byte	0x34
 2879 0004 0200     		.2byte	0x2
 2880 0006 00000000 		.4byte	.Ldebug_info0
 2881 000a 04       		.byte	0x4
 2882 000b 00       		.byte	0
 2883 000c 0000     		.2byte	0
 2884 000e 0000     		.2byte	0
 2885 0010 00000000 		.4byte	.LFB0
 2886 0014 14000000 		.4byte	.LFE0-.LFB0
 2887 0018 00000000 		.4byte	.LFB1
 2888 001c 88000000 		.4byte	.LFE1-.LFB1
 2889 0020 00000000 		.4byte	.LFB2
 2890 0024 40000000 		.4byte	.LFE2-.LFB2
 2891 0028 00000000 		.4byte	.LFB3
 2892 002c 3C010000 		.4byte	.LFE3-.LFB3
 2893 0030 00000000 		.4byte	0
 2894 0034 00000000 		.4byte	0
 2895              		.section	.debug_ranges,"",%progbits
 2896              	.Ldebug_ranges0:
 2897 0000 00000000 		.4byte	.LFB0
 2898 0004 14000000 		.4byte	.LFE0
 2899 0008 00000000 		.4byte	.LFB1
 2900 000c 88000000 		.4byte	.LFE1
 2901 0010 00000000 		.4byte	.LFB2
 2902 0014 40000000 		.4byte	.LFE2
 2903 0018 00000000 		.4byte	.LFB3
ARM GAS  /var/tmp//cc4OxsgC.s 			page 52


 2904 001c 3C010000 		.4byte	.LFE3
 2905 0020 00000000 		.4byte	0
 2906 0024 00000000 		.4byte	0
 2907              		.section	.debug_line,"",%progbits
 2908              	.Ldebug_line0:
 2909 0000 2A020000 		.section	.debug_str,"MS",%progbits,1
 2909      02007401 
 2909      00000201 
 2909      FB0E0D00 
 2909      01010101 
 2910              	.LASF40:
 2911 0000 5F64736F 		.ascii	"_dso_handle\000"
 2911      5F68616E 
 2911      646C6500 
 2912              	.LASF125:
 2913 000c 73656E64 		.ascii	"send_func\000"
 2913      5F66756E 
 2913      6300
 2914              	.LASF48:
 2915 0016 5F73697A 		.ascii	"_size\000"
 2915      6500
 2916              	.LASF149:
 2917 001c 6D656D63 		.ascii	"memcpy\000"
 2917      707900
 2918              	.LASF92:
 2919 0023 5F72616E 		.ascii	"_rand48\000"
 2919      64343800 
 2920              	.LASF72:
 2921 002b 5F656D65 		.ascii	"_emergency\000"
 2921      7267656E 
 2921      637900
 2922              	.LASF137:
 2923 0036 7061636B 		.ascii	"packet_timerfunc\000"
 2923      65745F74 
 2923      696D6572 
 2923      66756E63 
 2923      00
 2924              	.LASF9:
 2925 0047 5F5F7569 		.ascii	"__uint8_t\000"
 2925      6E74385F 
 2925      7400
 2926              	.LASF62:
 2927 0051 5F646174 		.ascii	"_data\000"
 2927      6100
 2928              	.LASF112:
 2929 0057 5F776372 		.ascii	"_wcrtomb_state\000"
 2929      746F6D62 
 2929      5F737461 
 2929      746500
 2930              	.LASF113:
 2931 0066 5F776373 		.ascii	"_wcsrtombs_state\000"
 2931      72746F6D 
 2931      62735F73 
 2931      74617465 
 2931      00
 2932              	.LASF8:
 2933 0077 6C6F6E67 		.ascii	"long long unsigned int\000"
ARM GAS  /var/tmp//cc4OxsgC.s 			page 53


 2933      206C6F6E 
 2933      6720756E 
 2933      7369676E 
 2933      65642069 
 2934              	.LASF52:
 2935 008e 5F6C6266 		.ascii	"_lbfsize\000"
 2935      73697A65 
 2935      00
 2936              	.LASF119:
 2937 0097 5F5F6C6F 		.ascii	"__locale_t\000"
 2937      63616C65 
 2937      5F7400
 2938              	.LASF110:
 2939 00a2 5F6D6272 		.ascii	"_mbrtowc_state\000"
 2939      746F7763 
 2939      5F737461 
 2939      746500
 2940              	.LASF29:
 2941 00b1 5F5F746D 		.ascii	"__tm_sec\000"
 2941      5F736563 
 2941      00
 2942              	.LASF7:
 2943 00ba 6C6F6E67 		.ascii	"long long int\000"
 2943      206C6F6E 
 2943      6720696E 
 2943      7400
 2944              	.LASF1:
 2945 00c8 7369676E 		.ascii	"signed char\000"
 2945      65642063 
 2945      68617200 
 2946              	.LASF58:
 2947 00d4 5F756275 		.ascii	"_ubuf\000"
 2947      6600
 2948              	.LASF47:
 2949 00da 5F626173 		.ascii	"_base\000"
 2949      6500
 2950              	.LASF31:
 2951 00e0 5F5F746D 		.ascii	"__tm_hour\000"
 2951      5F686F75 
 2951      7200
 2952              	.LASF87:
 2953 00ea 5F5F7366 		.ascii	"__sf\000"
 2953      00
 2954              	.LASF38:
 2955 00ef 5F6F6E5F 		.ascii	"_on_exit_args\000"
 2955      65786974 
 2955      5F617267 
 2955      7300
 2956              	.LASF53:
 2957 00fd 5F636F6F 		.ascii	"_cookie\000"
 2957      6B696500 
 2958              	.LASF86:
 2959 0105 5F5F7367 		.ascii	"__sglue\000"
 2959      6C756500 
 2960              	.LASF5:
 2961 010d 6C6F6E67 		.ascii	"long int\000"
 2961      20696E74 
ARM GAS  /var/tmp//cc4OxsgC.s 			page 54


 2961      00
 2962              	.LASF50:
 2963 0116 5F666C61 		.ascii	"_flags\000"
 2963      677300
 2964              	.LASF42:
 2965 011d 5F69735F 		.ascii	"_is_cxa\000"
 2965      63786100 
 2966              	.LASF68:
 2967 0125 5F737464 		.ascii	"_stdin\000"
 2967      696E00
 2968              	.LASF60:
 2969 012c 5F626C6B 		.ascii	"_blksize\000"
 2969      73697A65 
 2969      00
 2970              	.LASF82:
 2971 0135 5F637674 		.ascii	"_cvtbuf\000"
 2971      62756600 
 2972              	.LASF61:
 2973 013d 5F6F6666 		.ascii	"_offset\000"
 2973      73657400 
 2974              	.LASF124:
 2975 0145 72785F74 		.ascii	"rx_timeout\000"
 2975      696D656F 
 2975      757400
 2976              	.LASF111:
 2977 0150 5F6D6273 		.ascii	"_mbsrtowcs_state\000"
 2977      72746F77 
 2977      63735F73 
 2977      74617465 
 2977      00
 2978              	.LASF109:
 2979 0161 5F6D6272 		.ascii	"_mbrlen_state\000"
 2979      6C656E5F 
 2979      73746174 
 2979      6500
 2980              	.LASF39:
 2981 016f 5F666E61 		.ascii	"_fnargs\000"
 2981      72677300 
 2982              	.LASF141:
 2983 0177 625F696E 		.ascii	"b_ind\000"
 2983      6400
 2984              	.LASF45:
 2985 017d 5F666E73 		.ascii	"_fns\000"
 2985      00
 2986              	.LASF139:
 2987 0182 7061636B 		.ascii	"packet_send_packet\000"
 2987      65745F73 
 2987      656E645F 
 2987      7061636B 
 2987      657400
 2988              	.LASF25:
 2989 0195 5F736967 		.ascii	"_sign\000"
 2989      6E00
 2990              	.LASF20:
 2991 019b 5F666C6F 		.ascii	"_flock_t\000"
 2991      636B5F74 
 2991      00
ARM GAS  /var/tmp//cc4OxsgC.s 			page 55


 2992              	.LASF70:
 2993 01a4 5F737464 		.ascii	"_stderr\000"
 2993      65727200 
 2994              	.LASF27:
 2995 01ac 5F426967 		.ascii	"_Bigint\000"
 2995      696E7400 
 2996              	.LASF100:
 2997 01b4 5F67616D 		.ascii	"_gamma_signgam\000"
 2997      6D615F73 
 2997      69676E67 
 2997      616D00
 2998              	.LASF54:
 2999 01c3 5F726561 		.ascii	"_read\000"
 2999      6400
 3000              	.LASF78:
 3001 01c9 5F726573 		.ascii	"_result_k\000"
 3001      756C745F 
 3001      6B00
 3002              	.LASF28:
 3003 01d3 5F5F746D 		.ascii	"__tm\000"
 3003      00
 3004              	.LASF144:
 3005 01d8 705F6675 		.ascii	"p_func\000"
 3005      6E6300
 3006              	.LASF0:
 3007 01df 756E7369 		.ascii	"unsigned int\000"
 3007      676E6564 
 3007      20696E74 
 3007      00
 3008              	.LASF15:
 3009 01ec 5F5F7763 		.ascii	"__wchb\000"
 3009      686200
 3010              	.LASF126:
 3011 01f3 70726F63 		.ascii	"process_func\000"
 3011      6573735F 
 3011      66756E63 
 3011      00
 3012              	.LASF69:
 3013 0200 5F737464 		.ascii	"_stdout\000"
 3013      6F757400 
 3014              	.LASF81:
 3015 0208 5F637674 		.ascii	"_cvtlen\000"
 3015      6C656E00 
 3016              	.LASF6:
 3017 0210 6C6F6E67 		.ascii	"long unsigned int\000"
 3017      20756E73 
 3017      69676E65 
 3017      6420696E 
 3017      7400
 3018              	.LASF51:
 3019 0222 5F66696C 		.ascii	"_file\000"
 3019      6500
 3020              	.LASF90:
 3021 0228 5F6E696F 		.ascii	"_niobs\000"
 3021      627300
 3022              	.LASF140:
 3023 022f 64617461 		.ascii	"data\000"
ARM GAS  /var/tmp//cc4OxsgC.s 			page 56


 3023      00
 3024              	.LASF4:
 3025 0234 73686F72 		.ascii	"short unsigned int\000"
 3025      7420756E 
 3025      7369676E 
 3025      65642069 
 3025      6E7400
 3026              	.LASF84:
 3027 0247 5F617465 		.ascii	"_atexit0\000"
 3027      78697430 
 3027      00
 3028              	.LASF107:
 3029 0250 5F736967 		.ascii	"_signal_buf\000"
 3029      6E616C5F 
 3029      62756600 
 3030              	.LASF98:
 3031 025c 5F617363 		.ascii	"_asctime_buf\000"
 3031      74696D65 
 3031      5F627566 
 3031      00
 3032              	.LASF77:
 3033 0269 5F726573 		.ascii	"_result\000"
 3033      756C7400 
 3034              	.LASF14:
 3035 0271 5F5F7763 		.ascii	"__wch\000"
 3035      6800
 3036              	.LASF147:
 3037 0277 2F557365 		.ascii	"/Users/yanrudall/Documents/eBike/ebikeSystem\000"
 3037      72732F79 
 3037      616E7275 
 3037      64616C6C 
 3037      2F446F63 
 3038              	.LASF10:
 3039 02a4 5F4C4F43 		.ascii	"_LOCK_T\000"
 3039      4B5F5400 
 3040              	.LASF13:
 3041 02ac 77696E74 		.ascii	"wint_t\000"
 3041      5F7400
 3042              	.LASF63:
 3043 02b3 5F6C6F63 		.ascii	"_lock\000"
 3043      6B00
 3044              	.LASF131:
 3045 02b9 6372635F 		.ascii	"crc_low\000"
 3045      6C6F7700 
 3046              	.LASF65:
 3047 02c1 5F666C61 		.ascii	"_flags2\000"
 3047      67733200 
 3048              	.LASF142:
 3049 02c9 7061636B 		.ascii	"packet_init\000"
 3049      65745F69 
 3049      6E697400 
 3050              	.LASF145:
 3051 02d5 474E5520 		.ascii	"GNU C99 6.3.1 20170620 (release) [ARM/embedded-6-br"
 3051      43393920 
 3051      362E332E 
 3051      31203230 
 3051      31373036 
ARM GAS  /var/tmp//cc4OxsgC.s 			page 57


 3052 0308 616E6368 		.ascii	"anch revision 249437] -mcpu=cortex-m4 -mfloat-abi=h"
 3052      20726576 
 3052      6973696F 
 3052      6E203234 
 3052      39343337 
 3053 033b 61726420 		.ascii	"ard -mfpu=fpv4-sp-d16 -mno-thumb-interwork -mthumb "
 3053      2D6D6670 
 3053      753D6670 
 3053      76342D73 
 3053      702D6431 
 3054 036e 2D676764 		.ascii	"-ggdb -O2 -std=gnu99 -fomit-frame-pointer -falign-f"
 3054      62202D4F 
 3054      32202D73 
 3054      74643D67 
 3054      6E753939 
 3055 03a1 756E6374 		.ascii	"unctions=16 -ffunction-sections -fdata-sections -fn"
 3055      696F6E73 
 3055      3D313620 
 3055      2D666675 
 3055      6E637469 
 3056 03d4 6F2D636F 		.ascii	"o-common -fsingle-precision-constant\000"
 3056      6D6D6F6E 
 3056      202D6673 
 3056      696E676C 
 3056      652D7072 
 3057              	.LASF34:
 3058 03f9 5F5F746D 		.ascii	"__tm_year\000"
 3058      5F796561 
 3058      7200
 3059              	.LASF123:
 3060 0403 72785F73 		.ascii	"rx_state\000"
 3060      74617465 
 3060      00
 3061              	.LASF16:
 3062 040c 73697A65 		.ascii	"sizetype\000"
 3062      74797065 
 3062      00
 3063              	.LASF115:
 3064 0415 5F6E6578 		.ascii	"_nextf\000"
 3064      746600
 3065              	.LASF33:
 3066 041c 5F5F746D 		.ascii	"__tm_mon\000"
 3066      5F6D6F6E 
 3066      00
 3067              	.LASF43:
 3068 0425 5F617465 		.ascii	"_atexit\000"
 3068      78697400 
 3069              	.LASF75:
 3070 042d 5F5F7364 		.ascii	"__sdidinit\000"
 3070      6964696E 
 3070      697400
 3071              	.LASF11:
 3072 0438 5F6F6666 		.ascii	"_off_t\000"
 3072      5F7400
 3073              	.LASF127:
 3074 043f 7061796C 		.ascii	"payload_length\000"
 3074      6F61645F 
ARM GAS  /var/tmp//cc4OxsgC.s 			page 58


 3074      6C656E67 
 3074      746800
 3075              	.LASF80:
 3076 044e 5F667265 		.ascii	"_freelist\000"
 3076      656C6973 
 3076      7400
 3077              	.LASF135:
 3078 0458 68616E64 		.ascii	"handler_num\000"
 3078      6C65725F 
 3078      6E756D00 
 3079              	.LASF136:
 3080 0464 7061636B 		.ascii	"packet_process_byte\000"
 3080      65745F70 
 3080      726F6365 
 3080      73735F62 
 3080      79746500 
 3081              	.LASF134:
 3082 0478 72785F64 		.ascii	"rx_data\000"
 3082      61746100 
 3083              	.LASF105:
 3084 0480 5F776374 		.ascii	"_wctomb_state\000"
 3084      6F6D625F 
 3084      73746174 
 3084      6500
 3085              	.LASF55:
 3086 048e 5F777269 		.ascii	"_write\000"
 3086      746500
 3087              	.LASF128:
 3088 0495 72785F62 		.ascii	"rx_buffer\000"
 3088      75666665 
 3088      7200
 3089              	.LASF2:
 3090 049f 756E7369 		.ascii	"unsigned char\000"
 3090      676E6564 
 3090      20636861 
 3090      7200
 3091              	.LASF83:
 3092 04ad 5F6E6577 		.ascii	"_new\000"
 3092      00
 3093              	.LASF114:
 3094 04b2 5F685F65 		.ascii	"_h_errno\000"
 3094      72726E6F 
 3094      00
 3095              	.LASF3:
 3096 04bb 73686F72 		.ascii	"short int\000"
 3096      7420696E 
 3096      7400
 3097              	.LASF36:
 3098 04c5 5F5F746D 		.ascii	"__tm_yday\000"
 3098      5F796461 
 3098      7900
 3099              	.LASF46:
 3100 04cf 5F5F7362 		.ascii	"__sbuf\000"
 3100      756600
 3101              	.LASF91:
 3102 04d6 5F696F62 		.ascii	"_iobs\000"
 3102      7300
ARM GAS  /var/tmp//cc4OxsgC.s 			page 59


 3103              	.LASF88:
 3104 04dc 5F5F4649 		.ascii	"__FILE\000"
 3104      4C4500
 3105              	.LASF19:
 3106 04e3 5F6D6273 		.ascii	"_mbstate_t\000"
 3106      74617465 
 3106      5F7400
 3107              	.LASF49:
 3108 04ee 5F5F7346 		.ascii	"__sFILE\000"
 3108      494C4500 
 3109              	.LASF64:
 3110 04f6 5F6D6273 		.ascii	"_mbstate\000"
 3110      74617465 
 3110      00
 3111              	.LASF101:
 3112 04ff 5F72616E 		.ascii	"_rand_next\000"
 3112      645F6E65 
 3112      787400
 3113              	.LASF103:
 3114 050a 5F6D626C 		.ascii	"_mblen_state\000"
 3114      656E5F73 
 3114      74617465 
 3114      00
 3115              	.LASF71:
 3116 0517 5F696E63 		.ascii	"_inc\000"
 3116      00
 3117              	.LASF44:
 3118 051c 5F696E64 		.ascii	"_ind\000"
 3118      00
 3119              	.LASF146:
 3120 0521 7061636B 		.ascii	"packet.c\000"
 3120      65742E63 
 3120      00
 3121              	.LASF74:
 3122 052a 5F6C6F63 		.ascii	"_locale\000"
 3122      616C6500 
 3123              	.LASF76:
 3124 0532 5F5F636C 		.ascii	"__cleanup\000"
 3124      65616E75 
 3124      7000
 3125              	.LASF73:
 3126 053c 5F756E73 		.ascii	"_unspecified_locale_info\000"
 3126      70656369 
 3126      66696564 
 3126      5F6C6F63 
 3126      616C655F 
 3127              	.LASF24:
 3128 0555 5F6D6178 		.ascii	"_maxwds\000"
 3128      77647300 
 3129              	.LASF66:
 3130 055d 5F726565 		.ascii	"_reent\000"
 3130      6E7400
 3131              	.LASF130:
 3132 0564 72785F64 		.ascii	"rx_data_ptr\000"
 3132      6174615F 
 3132      70747200 
 3133              	.LASF93:
ARM GAS  /var/tmp//cc4OxsgC.s 			page 60


 3134 0570 5F736565 		.ascii	"_seed\000"
 3134      6400
 3135              	.LASF17:
 3136 0576 5F5F636F 		.ascii	"__count\000"
 3136      756E7400 
 3137              	.LASF118:
 3138 057e 5F5F6C6F 		.ascii	"__lock\000"
 3138      636B00
 3139              	.LASF18:
 3140 0585 5F5F7661 		.ascii	"__value\000"
 3140      6C756500 
 3141              	.LASF56:
 3142 058d 5F736565 		.ascii	"_seek\000"
 3142      6B00
 3143              	.LASF120:
 3144 0593 5F696D70 		.ascii	"_impure_ptr\000"
 3144      7572655F 
 3144      70747200 
 3145              	.LASF12:
 3146 059f 5F66706F 		.ascii	"_fpos_t\000"
 3146      735F7400 
 3147              	.LASF132:
 3148 05a7 6372635F 		.ascii	"crc_high\000"
 3148      68696768 
 3148      00
 3149              	.LASF67:
 3150 05b0 5F657272 		.ascii	"_errno\000"
 3150      6E6F00
 3151              	.LASF21:
 3152 05b7 63686172 		.ascii	"char\000"
 3152      00
 3153              	.LASF30:
 3154 05bc 5F5F746D 		.ascii	"__tm_min\000"
 3154      5F6D696E 
 3154      00
 3155              	.LASF138:
 3156 05c5 68616E64 		.ascii	"handler_states\000"
 3156      6C65725F 
 3156      73746174 
 3156      657300
 3157              	.LASF148:
 3158 05d4 63726331 		.ascii	"crc16\000"
 3158      3600
 3159              	.LASF122:
 3160 05da 75696E74 		.ascii	"uint8_t\000"
 3160      385F7400 
 3161              	.LASF94:
 3162 05e2 5F6D756C 		.ascii	"_mult\000"
 3162      7400
 3163              	.LASF23:
 3164 05e8 5F6E6578 		.ascii	"_next\000"
 3164      7400
 3165              	.LASF97:
 3166 05ee 5F737472 		.ascii	"_strtok_last\000"
 3166      746F6B5F 
 3166      6C617374 
 3166      00
ARM GAS  /var/tmp//cc4OxsgC.s 			page 61


 3167              	.LASF41:
 3168 05fb 5F666E74 		.ascii	"_fntypes\000"
 3168      79706573 
 3168      00
 3169              	.LASF95:
 3170 0604 5F616464 		.ascii	"_add\000"
 3170      00
 3171              	.LASF22:
 3172 0609 5F5F554C 		.ascii	"__ULong\000"
 3172      6F6E6700 
 3173              	.LASF108:
 3174 0611 5F676574 		.ascii	"_getdate_err\000"
 3174      64617465 
 3174      5F657272 
 3174      00
 3175              	.LASF121:
 3176 061e 5F676C6F 		.ascii	"_global_impure_ptr\000"
 3176      62616C5F 
 3176      696D7075 
 3176      72655F70 
 3176      747200
 3177              	.LASF129:
 3178 0631 74785F62 		.ascii	"tx_buffer\000"
 3178      75666665 
 3178      7200
 3179              	.LASF96:
 3180 063b 5F756E75 		.ascii	"_unused_rand\000"
 3180      7365645F 
 3180      72616E64 
 3180      00
 3181              	.LASF26:
 3182 0648 5F776473 		.ascii	"_wds\000"
 3182      00
 3183              	.LASF35:
 3184 064d 5F5F746D 		.ascii	"__tm_wday\000"
 3184      5F776461 
 3184      7900
 3185              	.LASF89:
 3186 0657 5F676C75 		.ascii	"_glue\000"
 3186      6500
 3187              	.LASF116:
 3188 065d 5F6E6D61 		.ascii	"_nmalloc\000"
 3188      6C6C6F63 
 3188      00
 3189              	.LASF106:
 3190 0666 5F6C3634 		.ascii	"_l64a_buf\000"
 3190      615F6275 
 3190      6600
 3191              	.LASF85:
 3192 0670 5F736967 		.ascii	"_sig_func\000"
 3192      5F66756E 
 3192      6300
 3193              	.LASF59:
 3194 067a 5F6E6275 		.ascii	"_nbuf\000"
 3194      6600
 3195              	.LASF117:
 3196 0680 5F756E75 		.ascii	"_unused\000"
ARM GAS  /var/tmp//cc4OxsgC.s 			page 62


 3196      73656400 
 3197              	.LASF37:
 3198 0688 5F5F746D 		.ascii	"__tm_isdst\000"
 3198      5F697364 
 3198      737400
 3199              	.LASF99:
 3200 0693 5F6C6F63 		.ascii	"_localtime_buf\000"
 3200      616C7469 
 3200      6D655F62 
 3200      756600
 3201              	.LASF57:
 3202 06a2 5F636C6F 		.ascii	"_close\000"
 3202      736500
 3203              	.LASF102:
 3204 06a9 5F723438 		.ascii	"_r48\000"
 3204      00
 3205              	.LASF133:
 3206 06ae 5041434B 		.ascii	"PACKET_STATE_t\000"
 3206      45545F53 
 3206      54415445 
 3206      5F7400
 3207              	.LASF104:
 3208 06bd 5F6D6274 		.ascii	"_mbtowc_state\000"
 3208      6F77635F 
 3208      73746174 
 3208      6500
 3209              	.LASF79:
 3210 06cb 5F703573 		.ascii	"_p5s\000"
 3210      00
 3211              	.LASF32:
 3212 06d0 5F5F746D 		.ascii	"__tm_mday\000"
 3212      5F6D6461 
 3212      7900
 3213              	.LASF143:
 3214 06da 735F6675 		.ascii	"s_func\000"
 3214      6E6300
 3215              		.ident	"GCC: (GNU Tools for ARM Embedded Processors 6-2017-q2-update) 6.3.1 20170620 (release) [AR
ARM GAS  /var/tmp//cc4OxsgC.s 			page 63


DEFINED SYMBOLS
                            *ABS*:0000000000000000 packet.c
/var/tmp//cc4OxsgC.s:18     .text.packet_init:0000000000000000 $t
/var/tmp//cc4OxsgC.s:26     .text.packet_init:0000000000000000 packet_init
/var/tmp//cc4OxsgC.s:47     .text.packet_init:0000000000000010 $d
/var/tmp//cc4OxsgC.s:52     .text.packet_send_packet:0000000000000000 $t
/var/tmp//cc4OxsgC.s:60     .text.packet_send_packet:0000000000000000 packet_send_packet
/var/tmp//cc4OxsgC.s:195    .text.packet_send_packet:0000000000000084 $d
/var/tmp//cc4OxsgC.s:200    .text.packet_timerfunc:0000000000000000 $t
/var/tmp//cc4OxsgC.s:208    .text.packet_timerfunc:0000000000000000 packet_timerfunc
/var/tmp//cc4OxsgC.s:259    .text.packet_timerfunc:000000000000003c $d
/var/tmp//cc4OxsgC.s:265    .text.packet_process_byte:0000000000000000 $t
/var/tmp//cc4OxsgC.s:273    .text.packet_process_byte:0000000000000000 packet_process_byte
/var/tmp//cc4OxsgC.s:298    .text.packet_process_byte:0000000000000016 $d
/var/tmp//cc4OxsgC.s:516    .text.packet_process_byte:0000000000000138 $d
/var/tmp//cc4OxsgC.s:521    .bss.handler_states:0000000000000000 $d
/var/tmp//cc4OxsgC.s:525    .bss.handler_states:0000000000000000 handler_states
                     .debug_frame:0000000000000010 $d
/var/tmp//cc4OxsgC.s:305    .text.packet_process_byte:000000000000001d $d
/var/tmp//cc4OxsgC.s:305    .text.packet_process_byte:000000000000001e $t

UNDEFINED SYMBOLS
memcpy
crc16
