ARM GAS  /var/tmp//cc4OxsgC.s 			page 1


   1              		.cpu cortex-m4
   2              		.eabi_attribute 27, 1
   3              		.eabi_attribute 28, 1
   4              		.eabi_attribute 20, 1
   5              		.eabi_attribute 21, 1
   6              		.eabi_attribute 23, 3
   7              		.eabi_attribute 24, 1
   8              		.eabi_attribute 25, 1
   9              		.eabi_attribute 26, 1
  10              		.eabi_attribute 30, 2
  11              		.eabi_attribute 34, 1
  12              		.eabi_attribute 18, 4
  13              		.file	"packet.c"
  14              		.text
  15              	.Ltext0:
  16              		.cfi_sections	.debug_frame
  17              		.section	.text.packet_init,"ax",%progbits
  18              		.align	1
  19              		.p2align 4,,15
  20              		.global	packet_init
  21              		.syntax unified
  22              		.thumb
  23              		.thumb_func
  24              		.fpu fpv4-sp-d16
  25              		.type	packet_init, %function
  26              	packet_init:
  27              	.LFB0:
  28              		.file 1 "packet.c"
  29              		.loc 1 40 0
  30              		.cfi_startproc
  31              		@ args = 0, pretend = 0, frame = 0
  32              		@ frame_needed = 0, uses_anonymous_args = 0
  33              		@ link register save eliminated.
  34              	.LVL0:
  35              		.loc 1 41 0
  36 0000 034B     		ldr	r3, .L2
  37 0002 02EB8212 		add	r2, r2, r2, lsl #6
  38              	.LVL1:
  39 0006 03EB4212 		add	r2, r3, r2, lsl #5
  40 000a 5060     		str	r0, [r2, #4]
  41              		.loc 1 42 0
  42 000c 9160     		str	r1, [r2, #8]
  43 000e 7047     		bx	lr
  44              	.L3:
  45              		.align	2
  46              	.L2:
  47 0010 00000000 		.word	.LANCHOR0
  48              		.cfi_endproc
  49              	.LFE0:
  50              		.size	packet_init, .-packet_init
  51              		.section	.text.packet_send_packet,"ax",%progbits
  52              		.align	1
  53              		.p2align 4,,15
  54              		.global	packet_send_packet
  55              		.syntax unified
  56              		.thumb
  57              		.thumb_func
ARM GAS  /var/tmp//cc4OxsgC.s 			page 2


  58              		.fpu fpv4-sp-d16
  59              		.type	packet_send_packet, %function
  60              	packet_send_packet:
  61              	.LFB1:
  62              		.loc 1 45 0
  63              		.cfi_startproc
  64              		@ args = 0, pretend = 0, frame = 0
  65              		@ frame_needed = 0, uses_anonymous_args = 0
  66              	.LVL2:
  67              		.loc 1 46 0
  68 0000 B1F5806F 		cmp	r1, #1024
  69 0004 3CD8     		bhi	.L14
  70              	.LVL3:
  71              		.loc 1 45 0
  72 0006 2DE9F047 		push	{r4, r5, r6, r7, r8, r9, r10, lr}
  73              		.cfi_def_cfa_offset 32
  74              		.cfi_offset 4, -32
  75              		.cfi_offset 5, -28
  76              		.cfi_offset 6, -24
  77              		.cfi_offset 7, -20
  78              		.cfi_offset 8, -16
  79              		.cfi_offset 9, -12
  80              		.cfi_offset 10, -8
  81              		.cfi_offset 14, -4
  82              		.loc 1 53 0
  83 000a 9301     		lsls	r3, r2, #6
  84 000c 1D4E     		ldr	r6, .L19
  85 000e 9C18     		adds	r4, r3, r2
  86              		.loc 1 52 0
  87 0010 B1F5807F 		cmp	r1, #256
  88              		.loc 1 53 0
  89 0014 06EB4414 		add	r4, r6, r4, lsl #5
  90              		.loc 1 52 0
  91 0018 2AD9     		bls	.L18
  92              	.LVL4:
  93              		.loc 1 57 0
  94 001a 0D0A     		lsrs	r5, r1, #8
  95              		.loc 1 56 0
  96 001c 0327     		movs	r7, #3
  97              		.loc 1 58 0
  98 001e 84F81214 		strb	r1, [r4, #1042]
  99              		.loc 1 57 0
 100 0022 84F81154 		strb	r5, [r4, #1041]
 101              		.loc 1 56 0
 102 0026 84F81074 		strb	r7, [r4, #1040]
 103              	.LVL5:
 104              	.L8:
 105              		.loc 1 61 0
 106 002a 1344     		add	r3, r3, r2
 107 002c 5C01     		lsls	r4, r3, #5
 108 002e 04F58269 		add	r9, r4, #1040
 109 0032 8046     		mov	r8, r0
 110 0034 B144     		add	r9, r9, r6
 111 0036 0A46     		mov	r2, r1
 112              	.LVL6:
 113 0038 0D46     		mov	r5, r1
 114 003a 09EB0700 		add	r0, r9, r7
ARM GAS  /var/tmp//cc4OxsgC.s 			page 3


 115              	.LVL7:
 116 003e 4146     		mov	r1, r8
 117              	.LVL8:
 118 0040 FFF7FEFF 		bl	memcpy
 119              	.LVL9:
 120              		.loc 1 64 0
 121 0044 2946     		mov	r1, r5
 122 0046 4046     		mov	r0, r8
 123 0048 FFF7FEFF 		bl	crc16
 124              	.LVL10:
 125              		.loc 1 65 0
 126 004c 3444     		add	r4, r4, r6
 127              		.loc 1 62 0
 128 004e E919     		adds	r1, r5, r7
 129              	.LVL11:
 130              		.loc 1 65 0
 131 0050 6318     		adds	r3, r4, r1
 132              		.loc 1 69 0
 133 0052 6268     		ldr	r2, [r4, #4]
 134              		.loc 1 66 0
 135 0054 83F81104 		strb	r0, [r3, #1041]
 136              		.loc 1 67 0
 137 0058 0324     		movs	r4, #3
 138              		.loc 1 65 0
 139 005a 000A     		lsrs	r0, r0, #8
 140              	.LVL12:
 141 005c 83F81004 		strb	r0, [r3, #1040]
 142              	.LVL13:
 143              		.loc 1 67 0
 144 0060 2144     		add	r1, r1, r4
 145              	.LVL14:
 146 0062 83F81244 		strb	r4, [r3, #1042]
 147              		.loc 1 69 0
 148 0066 4AB1     		cbz	r2, .L4
 149              		.loc 1 70 0
 150 0068 4846     		mov	r0, r9
 151              		.loc 1 72 0
 152 006a BDE8F047 		pop	{r4, r5, r6, r7, r8, r9, r10, lr}
 153              		.cfi_remember_state
 154              		.cfi_restore 14
 155              		.cfi_restore 10
 156              		.cfi_restore 9
 157              		.cfi_restore 8
 158              		.cfi_restore 7
 159              		.cfi_restore 6
 160              		.cfi_restore 5
 161              		.cfi_restore 4
 162              		.cfi_def_cfa_offset 0
 163              	.LVL15:
 164              		.loc 1 70 0
 165 006e 1047     		bx	r2	@ indirect register sibling call
 166              	.LVL16:
 167              	.L18:
 168              		.cfi_restore_state
 169              		.loc 1 53 0
 170 0070 0227     		movs	r7, #2
 171              		.loc 1 54 0
ARM GAS  /var/tmp//cc4OxsgC.s 			page 4


 172 0072 84F81114 		strb	r1, [r4, #1041]
 173              		.loc 1 53 0
 174 0076 84F81074 		strb	r7, [r4, #1040]
 175              	.LVL17:
 176 007a D6E7     		b	.L8
 177              	.LVL18:
 178              	.L4:
 179 007c BDE8F087 		pop	{r4, r5, r6, r7, r8, r9, r10, pc}
 180              	.LVL19:
 181              	.L14:
 182              		.cfi_def_cfa_offset 0
 183              		.cfi_restore 4
 184              		.cfi_restore 5
 185              		.cfi_restore 6
 186              		.cfi_restore 7
 187              		.cfi_restore 8
 188              		.cfi_restore 9
 189              		.cfi_restore 10
 190              		.cfi_restore 14
 191 0080 7047     		bx	lr
 192              	.L20:
 193 0082 00BF     		.align	2
 194              	.L19:
 195 0084 00000000 		.word	.LANCHOR0
 196              		.cfi_endproc
 197              	.LFE1:
 198              		.size	packet_send_packet, .-packet_send_packet
 199              		.section	.text.packet_timerfunc,"ax",%progbits
 200              		.align	1
 201              		.p2align 4,,15
 202              		.global	packet_timerfunc
 203              		.syntax unified
 204              		.thumb
 205              		.thumb_func
 206              		.fpu fpv4-sp-d16
 207              		.type	packet_timerfunc, %function
 208              	packet_timerfunc:
 209              	.LFB2:
 210              		.loc 1 77 0
 211              		.cfi_startproc
 212              		@ args = 0, pretend = 0, frame = 0
 213              		@ frame_needed = 0, uses_anonymous_args = 0
 214              		@ link register save eliminated.
 215              	.LVL20:
 216              	.LBB2:
 217              		.loc 1 79 0
 218 0000 0E4B     		ldr	r3, .L27
 219 0002 5A88     		ldrh	r2, [r3, #2]
 220 0004 92B2     		uxth	r2, r2
 221 0006 72B9     		cbnz	r2, .L22
 222              	.LVL21:
 223              		.loc 1 82 0
 224 0008 1A70     		strb	r2, [r3]
 225              		.loc 1 79 0
 226 000a B3F82228 		ldrh	r2, [r3, #2082]
 227 000e 92B2     		uxth	r2, r2
 228 0010 32B1     		cbz	r2, .L26
ARM GAS  /var/tmp//cc4OxsgC.s 			page 5


 229              	.L24:
 230              		.loc 1 80 0
 231 0012 B3F82228 		ldrh	r2, [r3, #2082]
 232 0016 013A     		subs	r2, r2, #1
 233 0018 92B2     		uxth	r2, r2
 234 001a A3F82228 		strh	r2, [r3, #2082]	@ movhi
 235              	.LVL22:
 236 001e 7047     		bx	lr
 237              	.LVL23:
 238              	.L26:
 239              		.loc 1 82 0
 240 0020 83F82028 		strb	r2, [r3, #2080]
 241 0024 7047     		bx	lr
 242              	.LVL24:
 243              	.L22:
 244              		.loc 1 80 0
 245 0026 5A88     		ldrh	r2, [r3, #2]
 246 0028 013A     		subs	r2, r2, #1
 247 002a 92B2     		uxth	r2, r2
 248 002c 5A80     		strh	r2, [r3, #2]	@ movhi
 249              	.LVL25:
 250              		.loc 1 79 0
 251 002e B3F82228 		ldrh	r2, [r3, #2082]
 252 0032 92B2     		uxth	r2, r2
 253 0034 002A     		cmp	r2, #0
 254 0036 ECD1     		bne	.L24
 255 0038 F2E7     		b	.L26
 256              	.L28:
 257 003a 00BF     		.align	2
 258              	.L27:
 259 003c 00000000 		.word	.LANCHOR0
 260              	.LBE2:
 261              		.cfi_endproc
 262              	.LFE2:
 263              		.size	packet_timerfunc, .-packet_timerfunc
 264              		.section	.text.packet_process_byte,"ax",%progbits
 265              		.align	1
 266              		.p2align 4,,15
 267              		.global	packet_process_byte
 268              		.syntax unified
 269              		.thumb
 270              		.thumb_func
 271              		.fpu fpv4-sp-d16
 272              		.type	packet_process_byte, %function
 273              	packet_process_byte:
 274              	.LFB3:
 275              		.loc 1 87 0
 276              		.cfi_startproc
 277              		@ args = 0, pretend = 0, frame = 0
 278              		@ frame_needed = 0, uses_anonymous_args = 0
 279              	.LVL26:
 280 0000 2DE9F041 		push	{r4, r5, r6, r7, r8, lr}
 281              		.cfi_def_cfa_offset 24
 282              		.cfi_offset 4, -24
 283              		.cfi_offset 5, -20
 284              		.cfi_offset 6, -16
 285              		.cfi_offset 7, -12
ARM GAS  /var/tmp//cc4OxsgC.s 			page 6


 286              		.cfi_offset 8, -8
 287              		.cfi_offset 14, -4
 288              		.loc 1 88 0
 289 0004 8E01     		lsls	r6, r1, #6
 290 0006 7318     		adds	r3, r6, r1
 291 0008 5B01     		lsls	r3, r3, #5
 292 000a 4B4D     		ldr	r5, .L57
 293 000c EB5C     		ldrb	r3, [r5, r3]	@ zero_extendqisi2
 294 000e 062B     		cmp	r3, #6
 295 0010 63D8     		bhi	.L30
 296 0012 DFE803F0 		tbb	[pc, r3]
 297              	.L32:
 298 0016 0D       		.byte	(.L31-.L32)/2
 299 0017 18       		.byte	(.L33-.L32)/2
 300 0018 26       		.byte	(.L34-.L32)/2
 301 0019 39       		.byte	(.L35-.L32)/2
 302 001a 54       		.byte	(.L36-.L32)/2
 303 001b 5B       		.byte	(.L37-.L32)/2
 304 001c 04       		.byte	(.L38-.L32)/2
 305 001d 00       		.p2align 1
 306              	.L38:
 307              		.loc 1 145 0
 308 001e 0328     		cmp	r0, #3
 309 0020 0C46     		mov	r4, r1
 310 0022 72D0     		beq	.L54
 311              	.LVL27:
 312              	.L45:
 313              		.loc 1 156 0
 314 0024 3444     		add	r4, r4, r6
 315              	.LVL28:
 316 0026 6401     		lsls	r4, r4, #5
 317 0028 0023     		movs	r3, #0
 318 002a 2B55     		strb	r3, [r5, r4]
 319              		.loc 1 157 0
 320 002c BDE8F081 		pop	{r4, r5, r6, r7, r8, pc}
 321              	.LVL29:
 322              	.L31:
 323              		.loc 1 92 0
 324 0030 3144     		add	r1, r1, r6
 325              	.LVL30:
 326              		.loc 1 90 0
 327 0032 0228     		cmp	r0, #2
 328              		.loc 1 92 0
 329 0034 4FEA4111 		lsl	r1, r1, #5
 330              		.loc 1 90 0
 331 0038 63D0     		beq	.L55
 332              		.loc 1 96 0
 333 003a 0328     		cmp	r0, #3
 334 003c 53D0     		beq	.L56
 335              	.LVL31:
 336              	.L52:
 337              		.loc 1 160 0
 338 003e 0023     		movs	r3, #0
 339 0040 6B54     		strb	r3, [r5, r1]
 340 0042 BDE8F081 		pop	{r4, r5, r6, r7, r8, pc}
 341              	.LVL32:
 342              	.L33:
ARM GAS  /var/tmp//cc4OxsgC.s 			page 7


 343              		.loc 1 108 0
 344 0046 3144     		add	r1, r1, r6
 345              	.LVL33:
 346 0048 4901     		lsls	r1, r1, #5
 347 004a 6A18     		adds	r2, r5, r1
 348              		.loc 1 109 0
 349 004c 6B5C     		ldrb	r3, [r5, r1]	@ zero_extendqisi2
 350 004e 0133     		adds	r3, r3, #1
 351 0050 DBB2     		uxtb	r3, r3
 352 0052 6B54     		strb	r3, [r5, r1]
 353              		.loc 1 108 0
 354 0054 0002     		lsls	r0, r0, #8
 355              	.LVL34:
 356              		.loc 1 110 0
 357 0056 4FF47A74 		mov	r4, #1000
 358              		.loc 1 108 0
 359 005a D060     		str	r0, [r2, #12]
 360              		.loc 1 110 0
 361 005c 5480     		strh	r4, [r2, #2]	@ movhi
 362              		.loc 1 111 0
 363 005e BDE8F081 		pop	{r4, r5, r6, r7, r8, pc}
 364              	.LVL35:
 365              	.L34:
 366              		.loc 1 114 0
 367 0062 3144     		add	r1, r1, r6
 368              	.LVL36:
 369 0064 4901     		lsls	r1, r1, #5
 370 0066 6A18     		adds	r2, r5, r1
 371 0068 D368     		ldr	r3, [r2, #12]
 372 006a 1843     		orrs	r0, r0, r3
 373              	.LVL37:
 374              		.loc 1 115 0
 375 006c 431E     		subs	r3, r0, #1
 376 006e B3F5806F 		cmp	r3, #1024
 377              		.loc 1 114 0
 378 0072 D060     		str	r0, [r2, #12]
 379              		.loc 1 115 0
 380 0074 E3D2     		bcs	.L52
 381              		.loc 1 117 0
 382 0076 6B5C     		ldrb	r3, [r5, r1]	@ zero_extendqisi2
 383              	.L53:
 384              		.loc 1 140 0
 385 0078 0133     		adds	r3, r3, #1
 386 007a DBB2     		uxtb	r3, r3
 387 007c 6B54     		strb	r3, [r5, r1]
 388              		.loc 1 141 0
 389 007e 4FF47A70 		mov	r0, #1000
 390 0082 5080     		strh	r0, [r2, #2]	@ movhi
 391              		.loc 1 142 0
 392 0084 BDE8F081 		pop	{r4, r5, r6, r7, r8, pc}
 393              	.LVL38:
 394              	.L35:
 395              		.loc 1 125 0
 396 0088 7418     		adds	r4, r6, r1
 397 008a 6401     		lsls	r4, r4, #5
 398 008c 2A19     		adds	r2, r5, r4
 399 008e D2F81838 		ldr	r3, [r2, #2072]
ARM GAS  /var/tmp//cc4OxsgC.s 			page 8


 400              		.loc 1 126 0
 401 0092 D768     		ldr	r7, [r2, #12]
 402              		.loc 1 125 0
 403 0094 02EB030E 		add	lr, r2, r3
 404 0098 0133     		adds	r3, r3, #1
 405              		.loc 1 126 0
 406 009a BB42     		cmp	r3, r7
 407              		.loc 1 125 0
 408 009c 8EF81000 		strb	r0, [lr, #16]
 409 00a0 C2F81838 		str	r3, [r2, #2072]
 410              		.loc 1 126 0
 411 00a4 03D1     		bne	.L43
 412              		.loc 1 127 0
 413 00a6 2B5D     		ldrb	r3, [r5, r4]	@ zero_extendqisi2
 414 00a8 0133     		adds	r3, r3, #1
 415 00aa DBB2     		uxtb	r3, r3
 416 00ac 2B55     		strb	r3, [r5, r4]
 417              	.L43:
 418              		.loc 1 129 0
 419 00ae 3144     		add	r1, r1, r6
 420              	.LVL39:
 421 00b0 05EB4115 		add	r5, r5, r1, lsl #5
 422 00b4 4FF47A73 		mov	r3, #1000
 423 00b8 6B80     		strh	r3, [r5, #2]	@ movhi
 424              		.loc 1 130 0
 425 00ba BDE8F081 		pop	{r4, r5, r6, r7, r8, pc}
 426              	.LVL40:
 427              	.L36:
 428              		.loc 1 133 0
 429 00be 3144     		add	r1, r1, r6
 430              	.LVL41:
 431 00c0 4901     		lsls	r1, r1, #5
 432 00c2 6A18     		adds	r2, r5, r1
 433              		.loc 1 134 0
 434 00c4 6B5C     		ldrb	r3, [r5, r1]	@ zero_extendqisi2
 435              		.loc 1 133 0
 436 00c6 82F81D08 		strb	r0, [r2, #2077]
 437 00ca D5E7     		b	.L53
 438              	.LVL42:
 439              	.L37:
 440              		.loc 1 139 0
 441 00cc 3144     		add	r1, r1, r6
 442              	.LVL43:
 443 00ce 4901     		lsls	r1, r1, #5
 444 00d0 6A18     		adds	r2, r5, r1
 445              		.loc 1 140 0
 446 00d2 6B5C     		ldrb	r3, [r5, r1]	@ zero_extendqisi2
 447              		.loc 1 139 0
 448 00d4 82F81C08 		strb	r0, [r2, #2076]
 449 00d8 CEE7     		b	.L53
 450              	.LVL44:
 451              	.L30:
 452              		.loc 1 160 0
 453 00da 3144     		add	r1, r1, r6
 454              	.LVL45:
 455 00dc 4901     		lsls	r1, r1, #5
 456 00de 0023     		movs	r3, #0
ARM GAS  /var/tmp//cc4OxsgC.s 			page 9


 457 00e0 6B54     		strb	r3, [r5, r1]
 458 00e2 BDE8F081 		pop	{r4, r5, r6, r7, r8, pc}
 459              	.L56:
 460              		.loc 1 98 0
 461 00e6 6B5C     		ldrb	r3, [r5, r1]	@ zero_extendqisi2
 462 00e8 6A18     		adds	r2, r5, r1
 463 00ea 0133     		adds	r3, r3, #1
 464              	.L51:
 465 00ec DBB2     		uxtb	r3, r3
 466 00ee 6B54     		strb	r3, [r5, r1]
 467              		.loc 1 100 0
 468 00f0 0020     		movs	r0, #0
 469              	.LVL46:
 470              		.loc 1 99 0
 471 00f2 4FF47A74 		mov	r4, #1000
 472              		.loc 1 100 0
 473 00f6 C2F81808 		str	r0, [r2, #2072]
 474              		.loc 1 99 0
 475 00fa 5480     		strh	r4, [r2, #2]	@ movhi
 476              		.loc 1 101 0
 477 00fc D060     		str	r0, [r2, #12]
 478 00fe BDE8F081 		pop	{r4, r5, r6, r7, r8, pc}
 479              	.LVL47:
 480              	.L55:
 481              		.loc 1 92 0
 482 0102 6B5C     		ldrb	r3, [r5, r1]	@ zero_extendqisi2
 483 0104 6A18     		adds	r2, r5, r1
 484 0106 0233     		adds	r3, r3, #2
 485 0108 F0E7     		b	.L51
 486              	.LVL48:
 487              	.L54:
 488 010a 7718     		adds	r7, r6, r1
 489 010c 7F01     		lsls	r7, r7, #5
 490              		.loc 1 146 0
 491 010e 07F11008 		add	r8, r7, #16
 492 0112 2F44     		add	r7, r7, r5
 493 0114 A844     		add	r8, r8, r5
 494 0116 4046     		mov	r0, r8
 495              	.LVL49:
 496 0118 F968     		ldr	r1, [r7, #12]
 497              	.LVL50:
 498 011a FFF7FEFF 		bl	crc16
 499              	.LVL51:
 500 011e B7F81C38 		ldrh	r3, [r7, #2076]
 501 0122 8342     		cmp	r3, r0
 502 0124 7FF47EAF 		bne	.L45
 503              		.loc 1 150 0
 504 0128 BB68     		ldr	r3, [r7, #8]
 505 012a 002B     		cmp	r3, #0
 506 012c 3FF47AAF 		beq	.L45
 507              		.loc 1 151 0
 508 0130 F968     		ldr	r1, [r7, #12]
 509 0132 4046     		mov	r0, r8
 510 0134 9847     		blx	r3
 511              	.LVL52:
 512 0136 75E7     		b	.L45
 513              	.L58:
ARM GAS  /var/tmp//cc4OxsgC.s 			page 10


 514              		.align	2
 515              	.L57:
 516 0138 00000000 		.word	.LANCHOR0
 517              		.cfi_endproc
 518              	.LFE3:
 519              		.size	packet_process_byte, .-packet_process_byte
 520              		.section	.bss.handler_states,"aw",%nobits
 521              		.align	2
 522              		.set	.LANCHOR0,. + 0
 523              		.type	handler_states, %object
 524              		.size	handler_states, 4160
 525              	handler_states:
 526 0000 00000000 		.space	4160
 526      00000000 
 526      00000000 
 526      00000000 
 526      00000000 
 527              		.text
 528              	.Letext0:
 529              		.file 2 "/usr/local/gcc_arm/gcc-arm-none-eabi-6-2017-q2-update/arm-none-eabi/include/machine/_defa
 530              		.file 3 "/usr/local/gcc_arm/gcc-arm-none-eabi-6-2017-q2-update/arm-none-eabi/include/sys/lock.h"
 531              		.file 4 "/usr/local/gcc_arm/gcc-arm-none-eabi-6-2017-q2-update/arm-none-eabi/include/sys/_types.h"
 532              		.file 5 "/usr/local/gcc_arm/gcc-arm-none-eabi-6-2017-q2-update/lib/gcc/arm-none-eabi/6.3.1/include
 533              		.file 6 "/usr/local/gcc_arm/gcc-arm-none-eabi-6-2017-q2-update/arm-none-eabi/include/sys/reent.h"
 534              		.file 7 "/usr/local/gcc_arm/gcc-arm-none-eabi-6-2017-q2-update/arm-none-eabi/include/sys/_stdint.h
 535              		.file 8 "crc.h"