ARM GAS  /var/tmp//ccMjob6i.s 			page 1


   1              		.cpu cortex-m4
   2              		.eabi_attribute 27, 1
   3              		.eabi_attribute 28, 1
   4              		.eabi_attribute 20, 1
   5              		.eabi_attribute 21, 1
   6              		.eabi_attribute 23, 3
   7              		.eabi_attribute 24, 1
   8              		.eabi_attribute 25, 1
   9              		.eabi_attribute 26, 1
  10              		.eabi_attribute 30, 2
  11              		.eabi_attribute 34, 1
  12              		.eabi_attribute 18, 4
  13              		.file	"pal_lld.c"
  14              		.text
  15              	.Ltext0:
  16              		.cfi_sections	.debug_frame
  17              		.section	.text._pal_lld_init,"ax",%progbits
  18              		.align	1
  19              		.p2align 4,,15
  20              		.global	_pal_lld_init
  21              		.syntax unified
  22              		.thumb
  23              		.thumb_func
  24              		.fpu fpv4-sp-d16
  25              		.type	_pal_lld_init, %function
  26              	_pal_lld_init:
  27              	.LFB257:
  28              		.file 1 "ChibiOS_3.0.2/os/hal/ports/STM32/LLD/GPIOv2/pal_lld.c"
  29              		.loc 1 92 0
  30              		.cfi_startproc
  31              		@ args = 0, pretend = 0, frame = 0
  32              		@ frame_needed = 0, uses_anonymous_args = 0
  33              	.LVL0:
  34 0000 F0B5     		push	{r4, r5, r6, r7, lr}
  35              		.cfi_def_cfa_offset 20
  36              		.cfi_offset 4, -20
  37              		.cfi_offset 5, -16
  38              		.cfi_offset 6, -12
  39              		.cfi_offset 7, -8
  40              		.cfi_offset 14, -4
  41              		.loc 1 105 0
  42 0002 654D     		ldr	r5, .L3
  43              	.LBB20:
  44              	.LBB21:
  45              		.loc 1 67 0
  46 0004 654C     		ldr	r4, .L3+4
  47              	.LBE21:
  48              	.LBE20:
  49              		.loc 1 105 0
  50 0006 2F6B     		ldr	r7, [r5, #48]
  51              	.LBB23:
  52              	.LBB24:
  53              		.loc 1 67 0
  54 0008 6549     		ldr	r1, .L3+8
  55              	.LBE24:
  56              	.LBE23:
  57              	.LBB26:
ARM GAS  /var/tmp//ccMjob6i.s 			page 2


  58              	.LBB27:
  59 000a 664A     		ldr	r2, .L3+12
  60              	.LBE27:
  61              	.LBE26:
  62              	.LBB29:
  63              	.LBB30:
  64 000c 664B     		ldr	r3, .L3+16
  65              	.LBE30:
  66              	.LBE29:
  67              		.loc 1 105 0
  68 000e 40F2FF1E 		movw	lr, #511
  69 0012 47EA0E07 		orr	r7, r7, lr
  70 0016 2F63     		str	r7, [r5, #48]
  71              		.loc 1 106 0
  72 0018 2E6D     		ldr	r6, [r5, #80]
  73 001a 46EA0E06 		orr	r6, r6, lr
  74 001e 2E65     		str	r6, [r5, #80]
  75              	.LVL1:
  76              	.LBB32:
  77              	.LBB22:
  78              		.loc 1 67 0
  79 0020 4568     		ldr	r5, [r0, #4]
  80 0022 6560     		str	r5, [r4, #4]
  81              		.loc 1 68 0
  82 0024 8568     		ldr	r5, [r0, #8]
  83 0026 A560     		str	r5, [r4, #8]
  84              		.loc 1 69 0
  85 0028 C568     		ldr	r5, [r0, #12]
  86 002a E560     		str	r5, [r4, #12]
  87              		.loc 1 70 0
  88 002c 0569     		ldr	r5, [r0, #16]
  89 002e 6561     		str	r5, [r4, #20]
  90              		.loc 1 71 0
  91 0030 4569     		ldr	r5, [r0, #20]
  92 0032 2562     		str	r5, [r4, #32]
  93              		.loc 1 72 0
  94 0034 8569     		ldr	r5, [r0, #24]
  95 0036 6562     		str	r5, [r4, #36]
  96              		.loc 1 73 0
  97 0038 0568     		ldr	r5, [r0]
  98 003a 2560     		str	r5, [r4]
  99              	.LVL2:
 100              	.LBE22:
 101              	.LBE32:
 102              	.LBB33:
 103              	.LBB25:
 104              		.loc 1 67 0
 105 003c 046A     		ldr	r4, [r0, #32]
 106 003e 4C60     		str	r4, [r1, #4]
 107              		.loc 1 68 0
 108 0040 446A     		ldr	r4, [r0, #36]
 109 0042 8C60     		str	r4, [r1, #8]
 110              		.loc 1 69 0
 111 0044 846A     		ldr	r4, [r0, #40]
 112 0046 CC60     		str	r4, [r1, #12]
 113              		.loc 1 70 0
 114 0048 C46A     		ldr	r4, [r0, #44]
ARM GAS  /var/tmp//ccMjob6i.s 			page 3


 115 004a 4C61     		str	r4, [r1, #20]
 116              		.loc 1 71 0
 117 004c 046B     		ldr	r4, [r0, #48]
 118 004e 0C62     		str	r4, [r1, #32]
 119              		.loc 1 72 0
 120 0050 446B     		ldr	r4, [r0, #52]
 121 0052 4C62     		str	r4, [r1, #36]
 122              		.loc 1 73 0
 123 0054 C469     		ldr	r4, [r0, #28]
 124 0056 0C60     		str	r4, [r1]
 125              	.LVL3:
 126              	.LBE25:
 127              	.LBE33:
 128              	.LBB34:
 129              	.LBB28:
 130              		.loc 1 67 0
 131 0058 C16B     		ldr	r1, [r0, #60]
 132 005a 5160     		str	r1, [r2, #4]
 133              		.loc 1 68 0
 134 005c 016C     		ldr	r1, [r0, #64]
 135 005e 9160     		str	r1, [r2, #8]
 136              		.loc 1 69 0
 137 0060 416C     		ldr	r1, [r0, #68]
 138 0062 D160     		str	r1, [r2, #12]
 139              		.loc 1 70 0
 140 0064 816C     		ldr	r1, [r0, #72]
 141 0066 5161     		str	r1, [r2, #20]
 142              		.loc 1 71 0
 143 0068 C16C     		ldr	r1, [r0, #76]
 144 006a 1162     		str	r1, [r2, #32]
 145              		.loc 1 72 0
 146 006c 016D     		ldr	r1, [r0, #80]
 147 006e 5162     		str	r1, [r2, #36]
 148              		.loc 1 73 0
 149 0070 816B     		ldr	r1, [r0, #56]
 150 0072 1160     		str	r1, [r2]
 151              	.LVL4:
 152              	.LBE28:
 153              	.LBE34:
 154              	.LBB35:
 155              	.LBB31:
 156              		.loc 1 67 0
 157 0074 826D     		ldr	r2, [r0, #88]
 158 0076 5A60     		str	r2, [r3, #4]
 159              		.loc 1 68 0
 160 0078 C26D     		ldr	r2, [r0, #92]
 161 007a 9A60     		str	r2, [r3, #8]
 162              		.loc 1 69 0
 163 007c 026E     		ldr	r2, [r0, #96]
 164 007e DA60     		str	r2, [r3, #12]
 165              		.loc 1 70 0
 166 0080 426E     		ldr	r2, [r0, #100]
 167 0082 5A61     		str	r2, [r3, #20]
 168              		.loc 1 71 0
 169 0084 826E     		ldr	r2, [r0, #104]
 170 0086 1A62     		str	r2, [r3, #32]
 171              		.loc 1 72 0
ARM GAS  /var/tmp//ccMjob6i.s 			page 4


 172 0088 C26E     		ldr	r2, [r0, #108]
 173 008a 5A62     		str	r2, [r3, #36]
 174              		.loc 1 73 0
 175 008c 426D     		ldr	r2, [r0, #84]
 176 008e 1A60     		str	r2, [r3]
 177              	.LVL5:
 178              	.LBE31:
 179              	.LBE35:
 180              	.LBB36:
 181              	.LBB37:
 182              		.loc 1 67 0
 183 0090 426F     		ldr	r2, [r0, #116]
 184 0092 C3F80424 		str	r2, [r3, #1028]
 185              		.loc 1 68 0
 186 0096 826F     		ldr	r2, [r0, #120]
 187 0098 C3F80824 		str	r2, [r3, #1032]
 188              		.loc 1 69 0
 189 009c C26F     		ldr	r2, [r0, #124]
 190 009e C3F80C24 		str	r2, [r3, #1036]
 191              		.loc 1 70 0
 192 00a2 D0F88020 		ldr	r2, [r0, #128]
 193 00a6 C3F81424 		str	r2, [r3, #1044]
 194              		.loc 1 71 0
 195 00aa D0F88420 		ldr	r2, [r0, #132]
 196 00ae C3F82024 		str	r2, [r3, #1056]
 197              		.loc 1 72 0
 198 00b2 D0F88820 		ldr	r2, [r0, #136]
 199 00b6 C3F82424 		str	r2, [r3, #1060]
 200              		.loc 1 73 0
 201 00ba 026F     		ldr	r2, [r0, #112]
 202 00bc C3F80024 		str	r2, [r3, #1024]
 203              	.LVL6:
 204              	.LBE37:
 205              	.LBE36:
 206              	.LBB38:
 207              	.LBB39:
 208              		.loc 1 67 0
 209 00c0 D0F89020 		ldr	r2, [r0, #144]
 210 00c4 C3F80428 		str	r2, [r3, #2052]
 211              		.loc 1 68 0
 212 00c8 D0F89420 		ldr	r2, [r0, #148]
 213 00cc C3F80828 		str	r2, [r3, #2056]
 214              		.loc 1 69 0
 215 00d0 D0F89820 		ldr	r2, [r0, #152]
 216 00d4 C3F80C28 		str	r2, [r3, #2060]
 217              		.loc 1 70 0
 218 00d8 D0F89C20 		ldr	r2, [r0, #156]
 219 00dc C3F81428 		str	r2, [r3, #2068]
 220              		.loc 1 71 0
 221 00e0 D0F8A020 		ldr	r2, [r0, #160]
 222 00e4 C3F82028 		str	r2, [r3, #2080]
 223              		.loc 1 72 0
 224 00e8 D0F8A420 		ldr	r2, [r0, #164]
 225 00ec C3F82428 		str	r2, [r3, #2084]
 226              		.loc 1 73 0
 227 00f0 D0F88C20 		ldr	r2, [r0, #140]
 228 00f4 C3F80028 		str	r2, [r3, #2048]
ARM GAS  /var/tmp//ccMjob6i.s 			page 5


 229              	.LVL7:
 230              	.LBE39:
 231              	.LBE38:
 232              	.LBB40:
 233              	.LBB41:
 234              		.loc 1 67 0
 235 00f8 03F54063 		add	r3, r3, #3072
 236 00fc D0F8AC20 		ldr	r2, [r0, #172]
 237 0100 5A60     		str	r2, [r3, #4]
 238              		.loc 1 68 0
 239 0102 D0F8B020 		ldr	r2, [r0, #176]
 240 0106 9A60     		str	r2, [r3, #8]
 241              		.loc 1 69 0
 242 0108 D0F8B420 		ldr	r2, [r0, #180]
 243 010c DA60     		str	r2, [r3, #12]
 244              		.loc 1 70 0
 245 010e D0F8B820 		ldr	r2, [r0, #184]
 246 0112 5A61     		str	r2, [r3, #20]
 247              		.loc 1 71 0
 248 0114 D0F8BC20 		ldr	r2, [r0, #188]
 249 0118 1A62     		str	r2, [r3, #32]
 250              		.loc 1 72 0
 251 011a D0F8C020 		ldr	r2, [r0, #192]
 252 011e 5A62     		str	r2, [r3, #36]
 253              		.loc 1 73 0
 254 0120 D0F8A820 		ldr	r2, [r0, #168]
 255 0124 1A60     		str	r2, [r3]
 256              	.LVL8:
 257              	.LBE41:
 258              	.LBE40:
 259              	.LBB42:
 260              	.LBB43:
 261              		.loc 1 67 0
 262 0126 D0F8C820 		ldr	r2, [r0, #200]
 263 012a C3F80424 		str	r2, [r3, #1028]
 264              		.loc 1 68 0
 265 012e D0F8CC20 		ldr	r2, [r0, #204]
 266 0132 C3F80824 		str	r2, [r3, #1032]
 267              		.loc 1 69 0
 268 0136 D0F8D020 		ldr	r2, [r0, #208]
 269 013a C3F80C24 		str	r2, [r3, #1036]
 270              		.loc 1 70 0
 271 013e D0F8D420 		ldr	r2, [r0, #212]
 272 0142 C3F81424 		str	r2, [r3, #1044]
 273              		.loc 1 71 0
 274 0146 D0F8D820 		ldr	r2, [r0, #216]
 275 014a C3F82024 		str	r2, [r3, #1056]
 276              		.loc 1 72 0
 277 014e D0F8DC20 		ldr	r2, [r0, #220]
 278 0152 C3F82424 		str	r2, [r3, #1060]
 279              		.loc 1 73 0
 280 0156 D0F8C420 		ldr	r2, [r0, #196]
 281 015a C3F80024 		str	r2, [r3, #1024]
 282              	.LVL9:
 283              	.LBE43:
 284              	.LBE42:
 285              	.LBB44:
ARM GAS  /var/tmp//ccMjob6i.s 			page 6


 286              	.LBB45:
 287              		.loc 1 67 0
 288 015e D0F8E420 		ldr	r2, [r0, #228]
 289 0162 C3F80428 		str	r2, [r3, #2052]
 290              		.loc 1 68 0
 291 0166 D0F8E820 		ldr	r2, [r0, #232]
 292 016a C3F80828 		str	r2, [r3, #2056]
 293              		.loc 1 69 0
 294 016e D0F8EC20 		ldr	r2, [r0, #236]
 295 0172 C3F80C28 		str	r2, [r3, #2060]
 296              		.loc 1 70 0
 297 0176 D0F8F020 		ldr	r2, [r0, #240]
 298 017a C3F81428 		str	r2, [r3, #2068]
 299              		.loc 1 71 0
 300 017e D0F8F420 		ldr	r2, [r0, #244]
 301 0182 C3F82028 		str	r2, [r3, #2080]
 302              		.loc 1 72 0
 303 0186 D0F8F820 		ldr	r2, [r0, #248]
 304 018a C3F82428 		str	r2, [r3, #2084]
 305              		.loc 1 73 0
 306 018e D0F8E020 		ldr	r2, [r0, #224]
 307 0192 C3F80028 		str	r2, [r3, #2048]
 308              	.LVL10:
 309              		.loc 1 67 0
 310 0196 F0BD     		pop	{r4, r5, r6, r7, pc}
 311              	.L4:
 312              		.align	2
 313              	.L3:
 314 0198 00380240 		.word	1073887232
 315 019c 00000240 		.word	1073872896
 316 01a0 00040240 		.word	1073873920
 317 01a4 00080240 		.word	1073874944
 318 01a8 000C0240 		.word	1073875968
 319              	.LBE45:
 320              	.LBE44:
 321              		.cfi_endproc
 322              	.LFE257:
 323              		.size	_pal_lld_init, .-_pal_lld_init
 324              		.section	.text._pal_lld_setgroupmode,"ax",%progbits
 325              		.align	1
 326              		.p2align 4,,15
 327              		.global	_pal_lld_setgroupmode
 328              		.syntax unified
 329              		.thumb
 330              		.thumb_func
 331              		.fpu fpv4-sp-d16
 332              		.type	_pal_lld_setgroupmode, %function
 333              	_pal_lld_setgroupmode:
 334              	.LFB258:
 335              		.loc 1 157 0
 336              		.cfi_startproc
 337              		@ args = 0, pretend = 0, frame = 0
 338              		@ frame_needed = 0, uses_anonymous_args = 0
 339              	.LVL11:
 340 0000 2DE9F04F 		push	{r4, r5, r6, r7, r8, r9, r10, fp, lr}
 341              		.cfi_def_cfa_offset 36
 342              		.cfi_offset 4, -36
ARM GAS  /var/tmp//ccMjob6i.s 			page 7


 343              		.cfi_offset 5, -32
 344              		.cfi_offset 6, -28
 345              		.cfi_offset 7, -24
 346              		.cfi_offset 8, -20
 347              		.cfi_offset 9, -16
 348              		.cfi_offset 10, -12
 349              		.cfi_offset 11, -8
 350              		.cfi_offset 14, -4
 351              	.LBB46:
 352              		.loc 1 170 0
 353 0004 4FF00F0C 		mov	ip, #15
 354              	.LBE46:
 355              		.loc 1 159 0
 356 0008 02F0030E 		and	lr, r2, #3
 357              	.LVL12:
 358              		.loc 1 160 0
 359 000c C2F38007 		ubfx	r7, r2, #2, #1
 360              	.LVL13:
 361              		.loc 1 161 0
 362 0010 C2F3C106 		ubfx	r6, r2, #3, #2
 363              	.LVL14:
 364              		.loc 1 162 0
 365 0014 C2F34115 		ubfx	r5, r2, #5, #2
 366              	.LVL15:
 367              		.loc 1 164 0
 368 0018 0024     		movs	r4, #0
 369              		.loc 1 163 0
 370 001a C2F3C312 		ubfx	r2, r2, #7, #4
 371              	.LVL16:
 372              	.LBB47:
 373              		.loc 1 175 0
 374 001e 4FF00109 		mov	r9, #1
 375              		.loc 1 177 0
 376 0022 4FF00308 		mov	r8, #3
 377 0026 30E0     		b	.L10
 378              	.LVL17:
 379              	.L16:
 380              		.loc 1 172 0
 381 0028 D0F820B0 		ldr	fp, [r0, #32]
 382 002c 2BEA0303 		bic	r3, fp, r3
 383              	.LVL18:
 384 0030 43EA0A03 		orr	r3, r3, r10
 385 0034 0362     		str	r3, [r0, #32]
 386              	.L8:
 387              	.LVL19:
 388              		.loc 1 176 0
 389 0036 4368     		ldr	r3, [r0, #4]
 390              		.loc 1 175 0
 391 0038 09FA04FA 		lsl	r10, r9, r4
 392              	.LVL20:
 393              		.loc 1 176 0
 394 003c 23EA0A03 		bic	r3, r3, r10
 395 0040 3B43     		orrs	r3, r3, r7
 396 0042 4360     		str	r3, [r0, #4]
 397              	.LVL21:
 398              		.loc 1 177 0
 399 0044 6300     		lsls	r3, r4, #1
ARM GAS  /var/tmp//ccMjob6i.s 			page 8


 400              		.loc 1 178 0
 401 0046 D0F808A0 		ldr	r10, [r0, #8]
 402              		.loc 1 177 0
 403 004a 08FA03F3 		lsl	r3, r8, r3
 404              		.loc 1 178 0
 405 004e DB43     		mvns	r3, r3
 406 0050 0AEA030A 		and	r10, r10, r3
 407 0054 4AEA060A 		orr	r10, r10, r6
 408 0058 C0F808A0 		str	r10, [r0, #8]
 409              		.loc 1 179 0
 410 005c D0F80CA0 		ldr	r10, [r0, #12]
 411 0060 03EA0A0A 		and	r10, r3, r10
 412 0064 4AEA050A 		orr	r10, r10, r5
 413 0068 C0F80CA0 		str	r10, [r0, #12]
 414              		.loc 1 180 0
 415 006c D0F800A0 		ldr	r10, [r0]
 416 0070 03EA0A03 		and	r3, r3, r10
 417 0074 43EA0E03 		orr	r3, r3, lr
 418 0078 0360     		str	r3, [r0]
 419              	.LVL22:
 420              	.L6:
 421              	.LBE47:
 422              		.loc 1 183 0
 423 007a 4908     		lsrs	r1, r1, #1
 424              	.LVL23:
 425 007c 19D0     		beq	.L5
 426              		.loc 1 185 0
 427 007e 7F00     		lsls	r7, r7, #1
 428              	.LVL24:
 429              		.loc 1 186 0
 430 0080 B600     		lsls	r6, r6, #2
 431              	.LVL25:
 432              		.loc 1 187 0
 433 0082 AD00     		lsls	r5, r5, #2
 434              	.LVL26:
 435              		.loc 1 188 0
 436 0084 4FEA8E0E 		lsl	lr, lr, #2
 437              	.LVL27:
 438              		.loc 1 189 0
 439 0088 0134     		adds	r4, r4, #1
 440              	.LVL28:
 441              	.L10:
 442              	.LBB48:
 443              		.loc 1 169 0
 444 008a 04F00703 		and	r3, r4, #7
 445 008e 9B00     		lsls	r3, r3, #2
 446              	.LBE48:
 447              		.loc 1 166 0
 448 0090 11F0010F 		tst	r1, #1
 449              	.LBB49:
 450              		.loc 1 169 0
 451 0094 02FA03FA 		lsl	r10, r2, r3
 452              	.LVL29:
 453              		.loc 1 170 0
 454 0098 0CFA03F3 		lsl	r3, ip, r3
 455              	.LVL30:
 456              	.LBE49:
ARM GAS  /var/tmp//ccMjob6i.s 			page 9


 457              		.loc 1 166 0
 458 009c EDD0     		beq	.L6
 459              	.LBB50:
 460              		.loc 1 171 0
 461 009e 072C     		cmp	r4, #7
 462 00a0 C2D9     		bls	.L16
 463              		.loc 1 174 0
 464 00a2 D0F824B0 		ldr	fp, [r0, #36]
 465 00a6 2BEA0303 		bic	r3, fp, r3
 466              	.LVL31:
 467 00aa 43EA0A03 		orr	r3, r3, r10
 468 00ae 4362     		str	r3, [r0, #36]
 469 00b0 C1E7     		b	.L8
 470              	.LVL32:
 471              	.L5:
 472 00b2 BDE8F08F 		pop	{r4, r5, r6, r7, r8, r9, r10, fp, pc}
 473              	.LBE50:
 474              		.cfi_endproc
 475              	.LFE258:
 476              		.size	_pal_lld_setgroupmode, .-_pal_lld_setgroupmode
 477 00b6 00BF     		.text
 478              	.Letext0:
 479              		.file 2 "/usr/local/gcc_arm/gcc-arm-none-eabi-6-2017-q2-update/lib/gcc/arm-none-eabi/6.3.1/include
 480              		.file 3 "/usr/local/gcc_arm/gcc-arm-none-eabi-6-2017-q2-update/arm-none-eabi/include/machine/_defa
 481              		.file 4 "/usr/local/gcc_arm/gcc-arm-none-eabi-6-2017-q2-update/arm-none-eabi/include/sys/_stdint.h
 482              		.file 5 "ChibiOS_3.0.2/os/rt/ports/ARMCMx/compilers/GCC/chtypes.h"
 483              		.file 6 "ChibiOS_3.0.2/os/rt/include/chsystypes.h"
 484              		.file 7 "ChibiOS_3.0.2/os/rt/include/chschd.h"
 485              		.file 8 "ChibiOS_3.0.2/os/ext/CMSIS/include/core_cm4.h"
 486              		.file 9 "ChibiOS_3.0.2/os/ext/CMSIS/ST/system_stm32f4xx.h"
 487              		.file 10 "ChibiOS_3.0.2/os/ext/CMSIS/ST/stm32f407xx.h"
 488              		.file 11 "ChibiOS_3.0.2/os/rt/ports/ARMCMx/chcore.h"
 489              		.file 12 "ChibiOS_3.0.2/os/rt/ports/ARMCMx/chcore_v7m.h"
 490              		.file 13 "ChibiOS_3.0.2/os/rt/include/chtm.h"
 491              		.file 14 "ChibiOS_3.0.2/os/rt/include/chsem.h"
 492              		.file 15 "ChibiOS_3.0.2/os/rt/include/chmtx.h"
 493              		.file 16 "ChibiOS_3.0.2/os/rt/include/chregistry.h"
 494              		.file 17 "ChibiOS_3.0.2/os/rt/include/chevents.h"
 495              		.file 18 "ChibiOS_3.0.2/os/rt/include/chqueues.h"
 496              		.file 19 "./conf_general.h"
 497              		.file 20 "ChibiOS_3.0.2/os/hal/ports/STM32/STM32F4xx/stm32_dma.h"
 498              		.file 21 "ChibiOS_3.0.2/os/hal/ports/STM32/LLD/GPIOv2/pal_lld.h"
 499              		.file 22 "ChibiOS_3.0.2/os/hal/include/can.h"
 500              		.file 23 "ChibiOS_3.0.2/os/hal/ports/STM32/LLD/can_lld.h"
 501              		.file 24 "ChibiOS_3.0.2/os/hal/include/i2c.h"
 502              		.file 25 "ChibiOS_3.0.2/os/hal/ports/STM32/LLD/I2Cv1/i2c_lld.h"
 503              		.file 26 "ChibiOS_3.0.2/os/hal/include/icu.h"
 504              		.file 27 "ChibiOS_3.0.2/os/hal/ports/STM32/LLD/TIMv1/icu_lld.h"
 505              		.file 28 "ChibiOS_3.0.2/os/hal/ports/STM32/LLD/TIMv1/stm32_tim.h"
 506              		.file 29 "ChibiOS_3.0.2/os/hal/include/spi.h"
 507              		.file 30 "ChibiOS_3.0.2/os/hal/ports/STM32/LLD/SPIv1/spi_lld.h"
 508              		.file 31 "ChibiOS_3.0.2/os/hal/include/uart.h"
 509              		.file 32 "ChibiOS_3.0.2/os/hal/ports/STM32/LLD/USARTv1/uart_lld.h"
 510              		.file 33 "ChibiOS_3.0.2/os/hal/include/usb.h"
 511              		.file 34 "ChibiOS_3.0.2/os/hal/ports/STM32/LLD/OTGv1/usb_lld.h"
 512              		.file 35 "ChibiOS_3.0.2/os/hal/ports/STM32/LLD/OTGv1/stm32_otg.h"