ARM GAS  /var/tmp//cc5p8HO2.s 			page 1


   1              		.cpu cortex-m4
   2              		.eabi_attribute 27, 1
   3              		.eabi_attribute 28, 1
   4              		.eabi_attribute 20, 1
   5              		.eabi_attribute 21, 1
   6              		.eabi_attribute 23, 3
   7              		.eabi_attribute 24, 1
   8              		.eabi_attribute 25, 1
   9              		.eabi_attribute 26, 1
  10              		.eabi_attribute 30, 2
  11              		.eabi_attribute 34, 1
  12              		.eabi_attribute 18, 4
  13              		.file	"rf.c"
  14              		.text
  15              	.Ltext0:
  16              		.cfi_sections	.debug_frame
  17              		.section	.text.rf_init,"ax",%progbits
  18              		.align	1
  19              		.p2align 4,,15
  20              		.global	rf_init
  21              		.syntax unified
  22              		.thumb
  23              		.thumb_func
  24              		.fpu fpv4-sp-d16
  25              		.type	rf_init, %function
  26              	rf_init:
  27              	.LFB256:
  28              		.file 1 "nrf/rf.c"
  29              		.loc 1 25 0
  30              		.cfi_startproc
  31              		@ args = 0, pretend = 0, frame = 0
  32              		@ frame_needed = 0, uses_anonymous_args = 0
  33              		@ link register save eliminated.
  34              		.loc 1 26 0
  35 0000 FFF7FEBF 		b	spi_sw_init
  36              	.LVL0:
  37              		.cfi_endproc
  38              	.LFE256:
  39              		.size	rf_init, .-rf_init
  40              		.section	.text.rf_stop,"ax",%progbits
  41              		.align	1
  42              		.p2align 4,,15
  43              		.global	rf_stop
  44              		.syntax unified
  45              		.thumb
  46              		.thumb_func
  47              		.fpu fpv4-sp-d16
  48              		.type	rf_stop, %function
  49              	rf_stop:
  50              	.LFB257:
  51              		.loc 1 29 0
  52              		.cfi_startproc
  53              		@ args = 0, pretend = 0, frame = 0
  54              		@ frame_needed = 0, uses_anonymous_args = 0
  55              		@ link register save eliminated.
  56              		.loc 1 30 0
  57 0000 FFF7FEBF 		b	spi_sw_stop
ARM GAS  /var/tmp//cc5p8HO2.s 			page 2


  58              	.LVL1:
  59              		.cfi_endproc
  60              	.LFE257:
  61              		.size	rf_stop, .-rf_stop
  62              		.section	.text.rf_write_tx_payload,"ax",%progbits
  63              		.align	1
  64              		.p2align 4,,15
  65              		.global	rf_write_tx_payload
  66              		.syntax unified
  67              		.thumb
  68              		.thumb_func
  69              		.fpu fpv4-sp-d16
  70              		.type	rf_write_tx_payload, %function
  71              	rf_write_tx_payload:
  72              	.LFB266:
  73              		.loc 1 141 0
  74              		.cfi_startproc
  75              		@ args = 0, pretend = 0, frame = 8
  76              		@ frame_needed = 0, uses_anonymous_args = 0
  77              	.LVL2:
  78 0000 70B5     		push	{r4, r5, r6, lr}
  79              		.cfi_def_cfa_offset 16
  80              		.cfi_offset 4, -16
  81              		.cfi_offset 5, -12
  82              		.cfi_offset 6, -8
  83              		.cfi_offset 14, -4
  84 0002 82B0     		sub	sp, sp, #8
  85              		.cfi_def_cfa_offset 24
  86              		.loc 1 142 0
  87 0004 02AC     		add	r4, sp, #8
  88 0006 A023     		movs	r3, #160
  89 0008 04F8013D 		strb	r3, [r4, #-1]!
  90              		.loc 1 141 0
  91 000c 0546     		mov	r5, r0
  92 000e 0E46     		mov	r6, r1
  93              		.loc 1 143 0
  94 0010 FFF7FEFF 		bl	spi_sw_begin
  95              	.LVL3:
  96              		.loc 1 144 0
  97 0014 2146     		mov	r1, r4
  98 0016 0122     		movs	r2, #1
  99 0018 0020     		movs	r0, #0
 100 001a FFF7FEFF 		bl	spi_sw_transfer
 101              	.LVL4:
 102              		.loc 1 145 0
 103 001e 3246     		mov	r2, r6
 104 0020 2946     		mov	r1, r5
 105 0022 0020     		movs	r0, #0
 106 0024 FFF7FEFF 		bl	spi_sw_transfer
 107              	.LVL5:
 108              		.loc 1 146 0
 109 0028 FFF7FEFF 		bl	spi_sw_end
 110              	.LVL6:
 111              		.loc 1 148 0
 112 002c 02B0     		add	sp, sp, #8
 113              		.cfi_def_cfa_offset 16
 114              		@ sp needed
ARM GAS  /var/tmp//cc5p8HO2.s 			page 3


 115 002e 70BD     		pop	{r4, r5, r6, pc}
 116              		.cfi_endproc
 117              	.LFE266:
 118              		.size	rf_write_tx_payload, .-rf_write_tx_payload
 119              		.section	.text.rf_write_tx_payload_no_ack,"ax",%progbits
 120              		.align	1
 121              		.p2align 4,,15
 122              		.global	rf_write_tx_payload_no_ack
 123              		.syntax unified
 124              		.thumb
 125              		.thumb_func
 126              		.fpu fpv4-sp-d16
 127              		.type	rf_write_tx_payload_no_ack, %function
 128              	rf_write_tx_payload_no_ack:
 129              	.LFB267:
 130              		.loc 1 151 0
 131              		.cfi_startproc
 132              		@ args = 0, pretend = 0, frame = 8
 133              		@ frame_needed = 0, uses_anonymous_args = 0
 134              	.LVL7:
 135 0000 70B5     		push	{r4, r5, r6, lr}
 136              		.cfi_def_cfa_offset 16
 137              		.cfi_offset 4, -16
 138              		.cfi_offset 5, -12
 139              		.cfi_offset 6, -8
 140              		.cfi_offset 14, -4
 141 0002 82B0     		sub	sp, sp, #8
 142              		.cfi_def_cfa_offset 24
 143              		.loc 1 152 0
 144 0004 02AC     		add	r4, sp, #8
 145 0006 B023     		movs	r3, #176
 146 0008 04F8013D 		strb	r3, [r4, #-1]!
 147              		.loc 1 151 0
 148 000c 0546     		mov	r5, r0
 149 000e 0E46     		mov	r6, r1
 150              		.loc 1 153 0
 151 0010 FFF7FEFF 		bl	spi_sw_begin
 152              	.LVL8:
 153              		.loc 1 154 0
 154 0014 2146     		mov	r1, r4
 155 0016 0122     		movs	r2, #1
 156 0018 0020     		movs	r0, #0
 157 001a FFF7FEFF 		bl	spi_sw_transfer
 158              	.LVL9:
 159              		.loc 1 155 0
 160 001e 3246     		mov	r2, r6
 161 0020 2946     		mov	r1, r5
 162 0022 0020     		movs	r0, #0
 163 0024 FFF7FEFF 		bl	spi_sw_transfer
 164              	.LVL10:
 165              		.loc 1 156 0
 166 0028 FFF7FEFF 		bl	spi_sw_end
 167              	.LVL11:
 168              		.loc 1 158 0
 169 002c 02B0     		add	sp, sp, #8
 170              		.cfi_def_cfa_offset 16
 171              		@ sp needed
ARM GAS  /var/tmp//cc5p8HO2.s 			page 4


 172 002e 70BD     		pop	{r4, r5, r6, pc}
 173              		.cfi_endproc
 174              	.LFE267:
 175              		.size	rf_write_tx_payload_no_ack, .-rf_write_tx_payload_no_ack
 176              		.section	.text.rf_write_ack_payload,"ax",%progbits
 177              		.align	1
 178              		.p2align 4,,15
 179              		.global	rf_write_ack_payload
 180              		.syntax unified
 181              		.thumb
 182              		.thumb_func
 183              		.fpu fpv4-sp-d16
 184              		.type	rf_write_ack_payload, %function
 185              	rf_write_ack_payload:
 186              	.LFB268:
 187              		.loc 1 161 0
 188              		.cfi_startproc
 189              		@ args = 0, pretend = 0, frame = 8
 190              		@ frame_needed = 0, uses_anonymous_args = 0
 191              	.LVL12:
 192 0000 70B5     		push	{r4, r5, r6, lr}
 193              		.cfi_def_cfa_offset 16
 194              		.cfi_offset 4, -16
 195              		.cfi_offset 5, -12
 196              		.cfi_offset 6, -8
 197              		.cfi_offset 14, -4
 198 0002 82B0     		sub	sp, sp, #8
 199              		.cfi_def_cfa_offset 24
 200              		.loc 1 162 0
 201 0004 02AC     		add	r4, sp, #8
 202 0006 00F00700 		and	r0, r0, #7
 203              	.LVL13:
 204 000a 60F05700 		orn	r0, r0, #87
 205 000e 04F8010D 		strb	r0, [r4, #-1]!
 206              		.loc 1 161 0
 207 0012 0D46     		mov	r5, r1
 208 0014 1646     		mov	r6, r2
 209              		.loc 1 163 0
 210 0016 FFF7FEFF 		bl	spi_sw_begin
 211              	.LVL14:
 212              		.loc 1 164 0
 213 001a 2146     		mov	r1, r4
 214 001c 0122     		movs	r2, #1
 215 001e 0020     		movs	r0, #0
 216 0020 FFF7FEFF 		bl	spi_sw_transfer
 217              	.LVL15:
 218              		.loc 1 165 0
 219 0024 3246     		mov	r2, r6
 220 0026 2946     		mov	r1, r5
 221 0028 0020     		movs	r0, #0
 222 002a FFF7FEFF 		bl	spi_sw_transfer
 223              	.LVL16:
 224              		.loc 1 166 0
 225 002e FFF7FEFF 		bl	spi_sw_end
 226              	.LVL17:
 227              		.loc 1 168 0
 228 0032 02B0     		add	sp, sp, #8
ARM GAS  /var/tmp//cc5p8HO2.s 			page 5


 229              		.cfi_def_cfa_offset 16
 230              		@ sp needed
 231 0034 70BD     		pop	{r4, r5, r6, pc}
 232              		.cfi_endproc
 233              	.LFE268:
 234              		.size	rf_write_ack_payload, .-rf_write_ack_payload
 235 0036 00BF     		.section	.text.rf_read_rx_payload,"ax",%progbits
 236              		.align	1
 237              		.p2align 4,,15
 238              		.global	rf_read_rx_payload
 239              		.syntax unified
 240              		.thumb
 241              		.thumb_func
 242              		.fpu fpv4-sp-d16
 243              		.type	rf_read_rx_payload, %function
 244              	rf_read_rx_payload:
 245              	.LFB269:
 246              		.loc 1 171 0
 247              		.cfi_startproc
 248              		@ args = 0, pretend = 0, frame = 8
 249              		@ frame_needed = 0, uses_anonymous_args = 0
 250              	.LVL18:
 251 0000 70B5     		push	{r4, r5, r6, lr}
 252              		.cfi_def_cfa_offset 16
 253              		.cfi_offset 4, -16
 254              		.cfi_offset 5, -12
 255              		.cfi_offset 6, -8
 256              		.cfi_offset 14, -4
 257 0002 82B0     		sub	sp, sp, #8
 258              		.cfi_def_cfa_offset 24
 259              		.loc 1 172 0
 260 0004 02AC     		add	r4, sp, #8
 261 0006 6123     		movs	r3, #97
 262 0008 04F8013D 		strb	r3, [r4, #-1]!
 263              		.loc 1 171 0
 264 000c 0546     		mov	r5, r0
 265 000e 0E46     		mov	r6, r1
 266              		.loc 1 173 0
 267 0010 FFF7FEFF 		bl	spi_sw_begin
 268              	.LVL19:
 269              		.loc 1 174 0
 270 0014 2146     		mov	r1, r4
 271 0016 0122     		movs	r2, #1
 272 0018 0020     		movs	r0, #0
 273 001a FFF7FEFF 		bl	spi_sw_transfer
 274              	.LVL20:
 275              		.loc 1 175 0
 276 001e 3246     		mov	r2, r6
 277 0020 2846     		mov	r0, r5
 278 0022 0021     		movs	r1, #0
 279 0024 FFF7FEFF 		bl	spi_sw_transfer
 280              	.LVL21:
 281              		.loc 1 176 0
 282 0028 FFF7FEFF 		bl	spi_sw_end
 283              	.LVL22:
 284              		.loc 1 178 0
 285 002c 02B0     		add	sp, sp, #8
ARM GAS  /var/tmp//cc5p8HO2.s 			page 6


 286              		.cfi_def_cfa_offset 16
 287              		@ sp needed
 288 002e 70BD     		pop	{r4, r5, r6, pc}
 289              		.cfi_endproc
 290              	.LFE269:
 291              		.size	rf_read_rx_payload, .-rf_read_rx_payload
 292              		.section	.text.rf_flush_tx,"ax",%progbits
 293              		.align	1
 294              		.p2align 4,,15
 295              		.global	rf_flush_tx
 296              		.syntax unified
 297              		.thumb
 298              		.thumb_func
 299              		.fpu fpv4-sp-d16
 300              		.type	rf_flush_tx, %function
 301              	rf_flush_tx:
 302              	.LFB281:
 303              		.loc 1 268 0
 304              		.cfi_startproc
 305              		@ args = 0, pretend = 0, frame = 8
 306              		@ frame_needed = 0, uses_anonymous_args = 0
 307 0000 10B5     		push	{r4, lr}
 308              		.cfi_def_cfa_offset 8
 309              		.cfi_offset 4, -8
 310              		.cfi_offset 14, -4
 311 0002 82B0     		sub	sp, sp, #8
 312              		.cfi_def_cfa_offset 16
 313              		.loc 1 269 0
 314 0004 02AC     		add	r4, sp, #8
 315 0006 E123     		movs	r3, #225
 316 0008 04F8013D 		strb	r3, [r4, #-1]!
 317              		.loc 1 270 0
 318 000c FFF7FEFF 		bl	spi_sw_begin
 319              	.LVL23:
 320              		.loc 1 271 0
 321 0010 2146     		mov	r1, r4
 322 0012 0122     		movs	r2, #1
 323 0014 0020     		movs	r0, #0
 324 0016 FFF7FEFF 		bl	spi_sw_transfer
 325              	.LVL24:
 326              		.loc 1 272 0
 327 001a FFF7FEFF 		bl	spi_sw_end
 328              	.LVL25:
 329              		.loc 1 273 0
 330 001e 02B0     		add	sp, sp, #8
 331              		.cfi_def_cfa_offset 8
 332              		@ sp needed
 333 0020 10BD     		pop	{r4, pc}
 334              		.cfi_endproc
 335              	.LFE281:
 336              		.size	rf_flush_tx, .-rf_flush_tx
 337 0022 00BF     		.section	.text.rf_flush_rx,"ax",%progbits
 338              		.align	1
 339              		.p2align 4,,15
 340              		.global	rf_flush_rx
 341              		.syntax unified
 342              		.thumb
ARM GAS  /var/tmp//cc5p8HO2.s 			page 7


 343              		.thumb_func
 344              		.fpu fpv4-sp-d16
 345              		.type	rf_flush_rx, %function
 346              	rf_flush_rx:
 347              	.LFB282:
 348              		.loc 1 275 0
 349              		.cfi_startproc
 350              		@ args = 0, pretend = 0, frame = 8
 351              		@ frame_needed = 0, uses_anonymous_args = 0
 352 0000 10B5     		push	{r4, lr}
 353              		.cfi_def_cfa_offset 8
 354              		.cfi_offset 4, -8
 355              		.cfi_offset 14, -4
 356 0002 82B0     		sub	sp, sp, #8
 357              		.cfi_def_cfa_offset 16
 358              		.loc 1 276 0
 359 0004 02AC     		add	r4, sp, #8
 360 0006 E223     		movs	r3, #226
 361 0008 04F8013D 		strb	r3, [r4, #-1]!
 362              		.loc 1 277 0
 363 000c FFF7FEFF 		bl	spi_sw_begin
 364              	.LVL26:
 365              		.loc 1 278 0
 366 0010 2146     		mov	r1, r4
 367 0012 0122     		movs	r2, #1
 368 0014 0020     		movs	r0, #0
 369 0016 FFF7FEFF 		bl	spi_sw_transfer
 370              	.LVL27:
 371              		.loc 1 279 0
 372 001a FFF7FEFF 		bl	spi_sw_end
 373              	.LVL28:
 374              		.loc 1 280 0
 375 001e 02B0     		add	sp, sp, #8
 376              		.cfi_def_cfa_offset 8
 377              		@ sp needed
 378 0020 10BD     		pop	{r4, pc}
 379              		.cfi_endproc
 380              	.LFE282:
 381              		.size	rf_flush_rx, .-rf_flush_rx
 382 0022 00BF     		.section	.text.rf_flush_all,"ax",%progbits
 383              		.align	1
 384              		.p2align 4,,15
 385              		.global	rf_flush_all
 386              		.syntax unified
 387              		.thumb
 388              		.thumb_func
 389              		.fpu fpv4-sp-d16
 390              		.type	rf_flush_all, %function
 391              	rf_flush_all:
 392              	.LFB283:
 393              		.loc 1 282 0
 394              		.cfi_startproc
 395              		@ args = 0, pretend = 0, frame = 0
 396              		@ frame_needed = 0, uses_anonymous_args = 0
 397 0000 08B5     		push	{r3, lr}
 398              		.cfi_def_cfa_offset 8
 399              		.cfi_offset 3, -8
ARM GAS  /var/tmp//cc5p8HO2.s 			page 8


 400              		.cfi_offset 14, -4
 401              		.loc 1 283 0
 402 0002 FFF7FEFF 		bl	rf_flush_rx
 403              	.LVL29:
 404              		.loc 1 285 0
 405 0006 BDE80840 		pop	{r3, lr}
 406              		.cfi_restore 14
 407              		.cfi_restore 3
 408              		.cfi_def_cfa_offset 0
 409              		.loc 1 284 0
 410 000a FFF7FEBF 		b	rf_flush_tx
 411              	.LVL30:
 412              		.cfi_endproc
 413              	.LFE283:
 414              		.size	rf_flush_all, .-rf_flush_all
 415 000e 00BF     		.section	.text.rf_get_payload_width,"ax",%progbits
 416              		.align	1
 417              		.p2align 4,,15
 418              		.global	rf_get_payload_width
 419              		.syntax unified
 420              		.thumb
 421              		.thumb_func
 422              		.fpu fpv4-sp-d16
 423              		.type	rf_get_payload_width, %function
 424              	rf_get_payload_width:
 425              	.LFB288:
 426              		.loc 1 303 0
 427              		.cfi_startproc
 428              		@ args = 0, pretend = 0, frame = 8
 429              		@ frame_needed = 0, uses_anonymous_args = 0
 430 0000 10B5     		push	{r4, lr}
 431              		.cfi_def_cfa_offset 8
 432              		.cfi_offset 4, -8
 433              		.cfi_offset 14, -4
 434 0002 82B0     		sub	sp, sp, #8
 435              		.cfi_def_cfa_offset 16
 436              		.loc 1 305 0
 437 0004 02AC     		add	r4, sp, #8
 438 0006 6023     		movs	r3, #96
 439 0008 04F8013D 		strb	r3, [r4, #-1]!
 440              		.loc 1 306 0
 441 000c FFF7FEFF 		bl	spi_sw_begin
 442              	.LVL31:
 443              		.loc 1 307 0
 444 0010 2146     		mov	r1, r4
 445 0012 0122     		movs	r2, #1
 446 0014 0020     		movs	r0, #0
 447 0016 FFF7FEFF 		bl	spi_sw_transfer
 448              	.LVL32:
 449              		.loc 1 308 0
 450 001a 0DF10600 		add	r0, sp, #6
 451 001e 0122     		movs	r2, #1
 452 0020 0021     		movs	r1, #0
 453 0022 FFF7FEFF 		bl	spi_sw_transfer
 454              	.LVL33:
 455              		.loc 1 309 0
 456 0026 FFF7FEFF 		bl	spi_sw_end
ARM GAS  /var/tmp//cc5p8HO2.s 			page 9


 457              	.LVL34:
 458              		.loc 1 311 0
 459 002a 9DF80600 		ldrb	r0, [sp, #6]	@ zero_extendqisi2
 460 002e 02B0     		add	sp, sp, #8
 461              		.cfi_def_cfa_offset 8
 462              		@ sp needed
 463 0030 10BD     		pop	{r4, pc}
 464              		.cfi_endproc
 465              	.LFE288:
 466              		.size	rf_get_payload_width, .-rf_get_payload_width
 467 0032 00BF     		.section	.text.rf_status,"ax",%progbits
 468              		.align	1
 469              		.p2align 4,,15
 470              		.global	rf_status
 471              		.syntax unified
 472              		.thumb
 473              		.thumb_func
 474              		.fpu fpv4-sp-d16
 475              		.type	rf_status, %function
 476              	rf_status:
 477              	.LFB289:
 478              		.loc 1 313 0
 479              		.cfi_startproc
 480              		@ args = 0, pretend = 0, frame = 8
 481              		@ frame_needed = 0, uses_anonymous_args = 0
 482 0000 10B5     		push	{r4, lr}
 483              		.cfi_def_cfa_offset 8
 484              		.cfi_offset 4, -8
 485              		.cfi_offset 14, -4
 486 0002 82B0     		sub	sp, sp, #8
 487              		.cfi_def_cfa_offset 16
 488              		.loc 1 314 0
 489 0004 02AC     		add	r4, sp, #8
 490 0006 FF23     		movs	r3, #255
 491 0008 04F8013D 		strb	r3, [r4, #-1]!
 492              		.loc 1 315 0
 493 000c FFF7FEFF 		bl	spi_sw_begin
 494              	.LVL35:
 495              		.loc 1 316 0
 496 0010 2046     		mov	r0, r4
 497 0012 2146     		mov	r1, r4
 498 0014 0122     		movs	r2, #1
 499 0016 FFF7FEFF 		bl	spi_sw_transfer
 500              	.LVL36:
 501              		.loc 1 317 0
 502 001a FFF7FEFF 		bl	spi_sw_end
 503              	.LVL37:
 504              		.loc 1 319 0
 505 001e 9DF80700 		ldrb	r0, [sp, #7]	@ zero_extendqisi2
 506 0022 02B0     		add	sp, sp, #8
 507              		.cfi_def_cfa_offset 8
 508              		@ sp needed
 509 0024 10BD     		pop	{r4, pc}
 510              		.cfi_endproc
 511              	.LFE289:
 512              		.size	rf_status, .-rf_status
 513 0026 00BF     		.section	.text.rf_write_reg,"ax",%progbits
ARM GAS  /var/tmp//cc5p8HO2.s 			page 10


 514              		.align	1
 515              		.p2align 4,,15
 516              		.global	rf_write_reg
 517              		.syntax unified
 518              		.thumb
 519              		.thumb_func
 520              		.fpu fpv4-sp-d16
 521              		.type	rf_write_reg, %function
 522              	rf_write_reg:
 523              	.LFB292:
 524              		.loc 1 329 0
 525              		.cfi_startproc
 526              		@ args = 0, pretend = 0, frame = 8
 527              		@ frame_needed = 0, uses_anonymous_args = 0
 528              	.LVL38:
 529 0000 70B5     		push	{r4, r5, r6, lr}
 530              		.cfi_def_cfa_offset 16
 531              		.cfi_offset 4, -16
 532              		.cfi_offset 5, -12
 533              		.cfi_offset 6, -8
 534              		.cfi_offset 14, -4
 535 0002 82B0     		sub	sp, sp, #8
 536              		.cfi_def_cfa_offset 24
 537              		.loc 1 330 0
 538 0004 02AC     		add	r4, sp, #8
 539 0006 40F02000 		orr	r0, r0, #32
 540              	.LVL39:
 541 000a 04F8010D 		strb	r0, [r4, #-1]!
 542              		.loc 1 329 0
 543 000e 0D46     		mov	r5, r1
 544 0010 1646     		mov	r6, r2
 545              		.loc 1 332 0
 546 0012 FFF7FEFF 		bl	spi_sw_begin
 547              	.LVL40:
 548              		.loc 1 333 0
 549 0016 2146     		mov	r1, r4
 550 0018 0122     		movs	r2, #1
 551 001a 0020     		movs	r0, #0
 552 001c FFF7FEFF 		bl	spi_sw_transfer
 553              	.LVL41:
 554              		.loc 1 334 0
 555 0020 3246     		mov	r2, r6
 556 0022 2946     		mov	r1, r5
 557 0024 0020     		movs	r0, #0
 558 0026 FFF7FEFF 		bl	spi_sw_transfer
 559              	.LVL42:
 560              		.loc 1 335 0
 561 002a FFF7FEFF 		bl	spi_sw_end
 562              	.LVL43:
 563              		.loc 1 336 0
 564 002e 02B0     		add	sp, sp, #8
 565              		.cfi_def_cfa_offset 16
 566              		@ sp needed
 567 0030 70BD     		pop	{r4, r5, r6, pc}
 568              		.cfi_endproc
 569              	.LFE292:
 570              		.size	rf_write_reg, .-rf_write_reg
ARM GAS  /var/tmp//cc5p8HO2.s 			page 11


 571 0032 00BF     		.section	.text.rf_set_rx_addr,"ax",%progbits
 572              		.align	1
 573              		.p2align 4,,15
 574              		.global	rf_set_rx_addr
 575              		.syntax unified
 576              		.thumb
 577              		.thumb_func
 578              		.fpu fpv4-sp-d16
 579              		.type	rf_set_rx_addr, %function
 580              	rf_set_rx_addr:
 581              	.LFB264:
 582              		.loc 1 133 0
 583              		.cfi_startproc
 584              		@ args = 0, pretend = 0, frame = 0
 585              		@ frame_needed = 0, uses_anonymous_args = 0
 586              		@ link register save eliminated.
 587              	.LVL44:
 588              		.loc 1 134 0
 589 0000 0A30     		adds	r0, r0, #10
 590              	.LVL45:
 591 0002 FFF7FEBF 		b	rf_write_reg
 592              	.LVL46:
 593              		.cfi_endproc
 594              	.LFE264:
 595              		.size	rf_set_rx_addr, .-rf_set_rx_addr
 596 0006 00BF     		.section	.text.rf_set_tx_addr,"ax",%progbits
 597              		.align	1
 598              		.p2align 4,,15
 599              		.global	rf_set_tx_addr
 600              		.syntax unified
 601              		.thumb
 602              		.thumb_func
 603              		.fpu fpv4-sp-d16
 604              		.type	rf_set_tx_addr, %function
 605              	rf_set_tx_addr:
 606              	.LFB265:
 607              		.loc 1 137 0
 608              		.cfi_startproc
 609              		@ args = 0, pretend = 0, frame = 0
 610              		@ frame_needed = 0, uses_anonymous_args = 0
 611              		@ link register save eliminated.
 612              	.LVL47:
 613              		.loc 1 138 0
 614 0000 0A46     		mov	r2, r1
 615 0002 0146     		mov	r1, r0
 616              	.LVL48:
 617 0004 1020     		movs	r0, #16
 618              	.LVL49:
 619 0006 FFF7FEBF 		b	rf_write_reg
 620              	.LVL50:
 621              		.cfi_endproc
 622              	.LFE265:
 623              		.size	rf_set_tx_addr, .-rf_set_tx_addr
 624 000a 00BF     		.section	.text.rf_set_address_width,"ax",%progbits
 625              		.align	1
 626              		.p2align 4,,15
 627              		.global	rf_set_address_width
ARM GAS  /var/tmp//cc5p8HO2.s 			page 12


 628              		.syntax unified
 629              		.thumb
 630              		.thumb_func
 631              		.fpu fpv4-sp-d16
 632              		.type	rf_set_address_width, %function
 633              	rf_set_address_width:
 634              	.LFB260:
 635              		.loc 1 78 0
 636              		.cfi_startproc
 637              		@ args = 0, pretend = 0, frame = 8
 638              		@ frame_needed = 0, uses_anonymous_args = 0
 639              	.LVL51:
 640 0000 00B5     		push	{lr}
 641              		.cfi_def_cfa_offset 4
 642              		.cfi_offset 14, -4
 643 0002 83B0     		sub	sp, sp, #12
 644              		.cfi_def_cfa_offset 16
 645 0004 02A9     		add	r1, sp, #8
 646              		.loc 1 79 0
 647 0006 0130     		adds	r0, r0, #1
 648              	.LVL52:
 649 0008 01F8010D 		strb	r0, [r1, #-1]!
 650              	.LVL53:
 651              	.LBB74:
 652              	.LBB75:
 653              		.loc 1 339 0
 654 000c 0122     		movs	r2, #1
 655 000e 0320     		movs	r0, #3
 656 0010 FFF7FEFF 		bl	rf_write_reg
 657              	.LVL54:
 658              	.LBE75:
 659              	.LBE74:
 660              		.loc 1 80 0
 661 0014 03B0     		add	sp, sp, #12
 662              		.cfi_def_cfa_offset 4
 663              		@ sp needed
 664 0016 5DF804FB 		ldr	pc, [sp], #4
 665              		.cfi_endproc
 666              	.LFE260:
 667              		.size	rf_set_address_width, .-rf_set_address_width
 668 001a 00BF     		.section	.text.rf_set_frequency,"ax",%progbits
 669              		.align	1
 670              		.p2align 4,,15
 671              		.global	rf_set_frequency
 672              		.syntax unified
 673              		.thumb
 674              		.thumb_func
 675              		.fpu fpv4-sp-d16
 676              		.type	rf_set_frequency, %function
 677              	rf_set_frequency:
 678              	.LFB270:
 679              		.loc 1 181 0
 680              		.cfi_startproc
 681              		@ args = 0, pretend = 0, frame = 8
 682              		@ frame_needed = 0, uses_anonymous_args = 0
 683              	.LVL55:
 684 0000 00B5     		push	{lr}
ARM GAS  /var/tmp//cc5p8HO2.s 			page 13


 685              		.cfi_def_cfa_offset 4
 686              		.cfi_offset 14, -4
 687 0002 83B0     		sub	sp, sp, #12
 688              		.cfi_def_cfa_offset 16
 689 0004 02A9     		add	r1, sp, #8
 690              		.loc 1 182 0
 691 0006 6038     		subs	r0, r0, #96
 692              	.LVL56:
 693 0008 00F07F00 		and	r0, r0, #127
 694              	.LVL57:
 695 000c 01F8010D 		strb	r0, [r1, #-1]!
 696              	.LVL58:
 697              	.LBB76:
 698              	.LBB77:
 699              		.loc 1 339 0
 700 0010 0122     		movs	r2, #1
 701 0012 0520     		movs	r0, #5
 702 0014 FFF7FEFF 		bl	rf_write_reg
 703              	.LVL59:
 704              	.LBE77:
 705              	.LBE76:
 706              		.loc 1 184 0
 707 0018 03B0     		add	sp, sp, #12
 708              		.cfi_def_cfa_offset 4
 709              		@ sp needed
 710 001a 5DF804FB 		ldr	pc, [sp], #4
 711              		.cfi_endproc
 712              	.LFE270:
 713              		.size	rf_set_frequency, .-rf_set_frequency
 714 001e 00BF     		.section	.text.rf_clear_irq,"ax",%progbits
 715              		.align	1
 716              		.p2align 4,,15
 717              		.global	rf_clear_irq
 718              		.syntax unified
 719              		.thumb
 720              		.thumb_func
 721              		.fpu fpv4-sp-d16
 722              		.type	rf_clear_irq, %function
 723              	rf_clear_irq:
 724              	.LFB284:
 725              		.loc 1 287 0
 726              		.cfi_startproc
 727              		@ args = 0, pretend = 0, frame = 8
 728              		@ frame_needed = 0, uses_anonymous_args = 0
 729              	.LVL60:
 730 0000 00B5     		push	{lr}
 731              		.cfi_def_cfa_offset 4
 732              		.cfi_offset 14, -4
 733 0002 83B0     		sub	sp, sp, #12
 734              		.cfi_def_cfa_offset 16
 735 0004 02A9     		add	r1, sp, #8
 736 0006 7023     		movs	r3, #112
 737 0008 01F8013D 		strb	r3, [r1, #-1]!
 738              	.LVL61:
 739              	.LBB78:
 740              	.LBB79:
 741              		.loc 1 339 0
ARM GAS  /var/tmp//cc5p8HO2.s 			page 14


 742 000c 0122     		movs	r2, #1
 743 000e 0720     		movs	r0, #7
 744 0010 FFF7FEFF 		bl	rf_write_reg
 745              	.LVL62:
 746              	.LBE79:
 747              	.LBE78:
 748              		.loc 1 289 0
 749 0014 03B0     		add	sp, sp, #12
 750              		.cfi_def_cfa_offset 4
 751              		@ sp needed
 752 0016 5DF804FB 		ldr	pc, [sp], #4
 753              		.cfi_endproc
 754              	.LFE284:
 755              		.size	rf_clear_irq, .-rf_clear_irq
 756 001a 00BF     		.section	.text.rf_clear_rx_irq,"ax",%progbits
 757              		.align	1
 758              		.p2align 4,,15
 759              		.global	rf_clear_rx_irq
 760              		.syntax unified
 761              		.thumb
 762              		.thumb_func
 763              		.fpu fpv4-sp-d16
 764              		.type	rf_clear_rx_irq, %function
 765              	rf_clear_rx_irq:
 766              	.LFB285:
 767              		.loc 1 291 0
 768              		.cfi_startproc
 769              		@ args = 0, pretend = 0, frame = 8
 770              		@ frame_needed = 0, uses_anonymous_args = 0
 771              	.LVL63:
 772 0000 00B5     		push	{lr}
 773              		.cfi_def_cfa_offset 4
 774              		.cfi_offset 14, -4
 775 0002 83B0     		sub	sp, sp, #12
 776              		.cfi_def_cfa_offset 16
 777 0004 02A9     		add	r1, sp, #8
 778 0006 4023     		movs	r3, #64
 779 0008 01F8013D 		strb	r3, [r1, #-1]!
 780              	.LVL64:
 781              	.LBB80:
 782              	.LBB81:
 783              		.loc 1 339 0
 784 000c 0122     		movs	r2, #1
 785 000e 0720     		movs	r0, #7
 786 0010 FFF7FEFF 		bl	rf_write_reg
 787              	.LVL65:
 788              	.LBE81:
 789              	.LBE80:
 790              		.loc 1 293 0
 791 0014 03B0     		add	sp, sp, #12
 792              		.cfi_def_cfa_offset 4
 793              		@ sp needed
 794 0016 5DF804FB 		ldr	pc, [sp], #4
 795              		.cfi_endproc
 796              	.LFE285:
 797              		.size	rf_clear_rx_irq, .-rf_clear_rx_irq
 798 001a 00BF     		.section	.text.rf_clear_tx_irq,"ax",%progbits
ARM GAS  /var/tmp//cc5p8HO2.s 			page 15


 799              		.align	1
 800              		.p2align 4,,15
 801              		.global	rf_clear_tx_irq
 802              		.syntax unified
 803              		.thumb
 804              		.thumb_func
 805              		.fpu fpv4-sp-d16
 806              		.type	rf_clear_tx_irq, %function
 807              	rf_clear_tx_irq:
 808              	.LFB286:
 809              		.loc 1 295 0
 810              		.cfi_startproc
 811              		@ args = 0, pretend = 0, frame = 8
 812              		@ frame_needed = 0, uses_anonymous_args = 0
 813              	.LVL66:
 814 0000 00B5     		push	{lr}
 815              		.cfi_def_cfa_offset 4
 816              		.cfi_offset 14, -4
 817 0002 83B0     		sub	sp, sp, #12
 818              		.cfi_def_cfa_offset 16
 819 0004 02A9     		add	r1, sp, #8
 820 0006 2023     		movs	r3, #32
 821 0008 01F8013D 		strb	r3, [r1, #-1]!
 822              	.LVL67:
 823              	.LBB82:
 824              	.LBB83:
 825              		.loc 1 339 0
 826 000c 0122     		movs	r2, #1
 827 000e 0720     		movs	r0, #7
 828 0010 FFF7FEFF 		bl	rf_write_reg
 829              	.LVL68:
 830              	.LBE83:
 831              	.LBE82:
 832              		.loc 1 297 0
 833 0014 03B0     		add	sp, sp, #12
 834              		.cfi_def_cfa_offset 4
 835              		@ sp needed
 836 0016 5DF804FB 		ldr	pc, [sp], #4
 837              		.cfi_endproc
 838              	.LFE286:
 839              		.size	rf_clear_tx_irq, .-rf_clear_tx_irq
 840 001a 00BF     		.section	.text.rf_clear_maxrt_irq,"ax",%progbits
 841              		.align	1
 842              		.p2align 4,,15
 843              		.global	rf_clear_maxrt_irq
 844              		.syntax unified
 845              		.thumb
 846              		.thumb_func
 847              		.fpu fpv4-sp-d16
 848              		.type	rf_clear_maxrt_irq, %function
 849              	rf_clear_maxrt_irq:
 850              	.LFB287:
 851              		.loc 1 299 0
 852              		.cfi_startproc
 853              		@ args = 0, pretend = 0, frame = 8
 854              		@ frame_needed = 0, uses_anonymous_args = 0
 855              	.LVL69:
ARM GAS  /var/tmp//cc5p8HO2.s 			page 16


 856 0000 00B5     		push	{lr}
 857              		.cfi_def_cfa_offset 4
 858              		.cfi_offset 14, -4
 859 0002 83B0     		sub	sp, sp, #12
 860              		.cfi_def_cfa_offset 16
 861 0004 02A9     		add	r1, sp, #8
 862 0006 1023     		movs	r3, #16
 863 0008 01F8013D 		strb	r3, [r1, #-1]!
 864              	.LVL70:
 865              	.LBB84:
 866              	.LBB85:
 867              		.loc 1 339 0
 868 000c 0122     		movs	r2, #1
 869 000e 0720     		movs	r0, #7
 870 0010 FFF7FEFF 		bl	rf_write_reg
 871              	.LVL71:
 872              	.LBE85:
 873              	.LBE84:
 874              		.loc 1 301 0
 875 0014 03B0     		add	sp, sp, #12
 876              		.cfi_def_cfa_offset 4
 877              		@ sp needed
 878 0016 5DF804FB 		ldr	pc, [sp], #4
 879              		.cfi_endproc
 880              	.LFE287:
 881              		.size	rf_clear_maxrt_irq, .-rf_clear_maxrt_irq
 882 001a 00BF     		.section	.text.rf_write_reg_byte,"ax",%progbits
 883              		.align	1
 884              		.p2align 4,,15
 885              		.global	rf_write_reg_byte
 886              		.syntax unified
 887              		.thumb
 888              		.thumb_func
 889              		.fpu fpv4-sp-d16
 890              		.type	rf_write_reg_byte, %function
 891              	rf_write_reg_byte:
 892              	.LFB293:
 893              		.loc 1 338 0
 894              		.cfi_startproc
 895              		@ args = 0, pretend = 0, frame = 8
 896              		@ frame_needed = 0, uses_anonymous_args = 0
 897              	.LVL72:
 898 0000 00B5     		push	{lr}
 899              		.cfi_def_cfa_offset 4
 900              		.cfi_offset 14, -4
 901 0002 83B0     		sub	sp, sp, #12
 902              		.cfi_def_cfa_offset 16
 903              		.loc 1 338 0
 904 0004 02AB     		add	r3, sp, #8
 905              		.loc 1 339 0
 906 0006 0122     		movs	r2, #1
 907              		.loc 1 338 0
 908 0008 03F8011D 		strb	r1, [r3, #-1]!
 909              		.loc 1 339 0
 910 000c 1946     		mov	r1, r3
 911              	.LVL73:
 912 000e FFF7FEFF 		bl	rf_write_reg
ARM GAS  /var/tmp//cc5p8HO2.s 			page 17


 913              	.LVL74:
 914              		.loc 1 340 0
 915 0012 03B0     		add	sp, sp, #12
 916              		.cfi_def_cfa_offset 4
 917              		@ sp needed
 918 0014 5DF804FB 		ldr	pc, [sp], #4
 919              		.cfi_endproc
 920              	.LFE293:
 921              		.size	rf_write_reg_byte, .-rf_write_reg_byte
 922              		.section	.text.rf_read_reg,"ax",%progbits
 923              		.align	1
 924              		.p2align 4,,15
 925              		.global	rf_read_reg
 926              		.syntax unified
 927              		.thumb
 928              		.thumb_func
 929              		.fpu fpv4-sp-d16
 930              		.type	rf_read_reg, %function
 931              	rf_read_reg:
 932              	.LFB294:
 933              		.loc 1 342 0
 934              		.cfi_startproc
 935              		@ args = 0, pretend = 0, frame = 8
 936              		@ frame_needed = 0, uses_anonymous_args = 0
 937              	.LVL75:
 938 0000 70B5     		push	{r4, r5, r6, lr}
 939              		.cfi_def_cfa_offset 16
 940              		.cfi_offset 4, -16
 941              		.cfi_offset 5, -12
 942              		.cfi_offset 6, -8
 943              		.cfi_offset 14, -4
 944 0002 82B0     		sub	sp, sp, #8
 945              		.cfi_def_cfa_offset 24
 946              		.loc 1 343 0
 947 0004 02AC     		add	r4, sp, #8
 948              		.loc 1 342 0
 949 0006 0D46     		mov	r5, r1
 950              		.loc 1 343 0
 951 0008 04F8010D 		strb	r0, [r4, #-1]!
 952              		.loc 1 342 0
 953 000c 1646     		mov	r6, r2
 954              		.loc 1 345 0
 955 000e FFF7FEFF 		bl	spi_sw_begin
 956              	.LVL76:
 957              		.loc 1 346 0
 958 0012 2146     		mov	r1, r4
 959 0014 0122     		movs	r2, #1
 960 0016 0020     		movs	r0, #0
 961 0018 FFF7FEFF 		bl	spi_sw_transfer
 962              	.LVL77:
 963              		.loc 1 347 0
 964 001c 3246     		mov	r2, r6
 965 001e 2846     		mov	r0, r5
 966 0020 0021     		movs	r1, #0
 967 0022 FFF7FEFF 		bl	spi_sw_transfer
 968              	.LVL78:
 969              		.loc 1 348 0
ARM GAS  /var/tmp//cc5p8HO2.s 			page 18


 970 0026 FFF7FEFF 		bl	spi_sw_end
 971              	.LVL79:
 972              		.loc 1 349 0
 973 002a 02B0     		add	sp, sp, #8
 974              		.cfi_def_cfa_offset 16
 975              		@ sp needed
 976 002c 70BD     		pop	{r4, r5, r6, pc}
 977              		.cfi_endproc
 978              	.LFE294:
 979              		.size	rf_read_reg, .-rf_read_reg
 980 002e 00BF     		.section	.text.rf_set_speed,"ax",%progbits
 981              		.align	1
 982              		.p2align 4,,15
 983              		.global	rf_set_speed
 984              		.syntax unified
 985              		.thumb
 986              		.thumb_func
 987              		.fpu fpv4-sp-d16
 988              		.type	rf_set_speed, %function
 989              	rf_set_speed:
 990              	.LFB258:
 991              		.loc 1 33 0
 992              		.cfi_startproc
 993              		@ args = 0, pretend = 0, frame = 8
 994              		@ frame_needed = 0, uses_anonymous_args = 0
 995              	.LVL80:
 996 0000 10B5     		push	{r4, lr}
 997              		.cfi_def_cfa_offset 8
 998              		.cfi_offset 4, -8
 999              		.cfi_offset 14, -4
 1000 0002 82B0     		sub	sp, sp, #8
 1001              		.cfi_def_cfa_offset 16
 1002              	.LBB86:
 1003              	.LBB87:
 1004              		.loc 1 353 0
 1005 0004 0122     		movs	r2, #1
 1006              	.LBE87:
 1007              	.LBE86:
 1008              		.loc 1 33 0
 1009 0006 0446     		mov	r4, r0
 1010              	.LBB89:
 1011              	.LBB88:
 1012              		.loc 1 353 0
 1013 0008 0DF10701 		add	r1, sp, #7
 1014 000c 0620     		movs	r0, #6
 1015              	.LVL81:
 1016 000e FFF7FEFF 		bl	rf_read_reg
 1017              	.LVL82:
 1018              		.loc 1 354 0
 1019 0012 9DF80720 		ldrb	r2, [sp, #7]	@ zero_extendqisi2
 1020              	.LVL83:
 1021              	.LBE88:
 1022              	.LBE89:
 1023              		.loc 1 37 0
 1024 0016 02F0D703 		and	r3, r2, #215
 1025              	.LVL84:
 1026              		.loc 1 39 0
ARM GAS  /var/tmp//cc5p8HO2.s 			page 19


 1027 001a 84B1     		cbz	r4, .L43
 1028 001c 022C     		cmp	r4, #2
 1029 001e 0BD0     		beq	.L44
 1030              	.L42:
 1031              		.loc 1 55 0
 1032 0020 9342     		cmp	r3, r2
 1033 0022 07D0     		beq	.L41
 1034              	.LVL85:
 1035              	.LBB90:
 1036              	.LBB91:
 1037              		.loc 1 339 0
 1038 0024 0DF10701 		add	r1, sp, #7
 1039 0028 0122     		movs	r2, #1
 1040 002a 0620     		movs	r0, #6
 1041 002c 8DF80730 		strb	r3, [sp, #7]
 1042              	.LVL86:
 1043 0030 FFF7FEFF 		bl	rf_write_reg
 1044              	.LVL87:
 1045              	.L41:
 1046              	.LBE91:
 1047              	.LBE90:
 1048              		.loc 1 58 0
 1049 0034 02B0     		add	sp, sp, #8
 1050              		.cfi_remember_state
 1051              		.cfi_def_cfa_offset 8
 1052              		@ sp needed
 1053 0036 10BD     		pop	{r4, pc}
 1054              	.LVL88:
 1055              	.L44:
 1056              		.cfi_restore_state
 1057              		.loc 1 48 0
 1058 0038 43F00803 		orr	r3, r3, #8
 1059              	.LVL89:
 1060              		.loc 1 49 0
 1061 003c F0E7     		b	.L42
 1062              	.L43:
 1063              		.loc 1 41 0
 1064 003e 43F02003 		orr	r3, r3, #32
 1065              	.LVL90:
 1066              		.loc 1 42 0
 1067 0042 EDE7     		b	.L42
 1068              		.cfi_endproc
 1069              	.LFE258:
 1070              		.size	rf_set_speed, .-rf_set_speed
 1071              		.section	.text.rf_set_power,"ax",%progbits
 1072              		.align	1
 1073              		.p2align 4,,15
 1074              		.global	rf_set_power
 1075              		.syntax unified
 1076              		.thumb
 1077              		.thumb_func
 1078              		.fpu fpv4-sp-d16
 1079              		.type	rf_set_power, %function
 1080              	rf_set_power:
 1081              	.LFB259:
 1082              		.loc 1 60 0
 1083              		.cfi_startproc
ARM GAS  /var/tmp//cc5p8HO2.s 			page 20


 1084              		@ args = 0, pretend = 0, frame = 8
 1085              		@ frame_needed = 0, uses_anonymous_args = 0
 1086              	.LVL91:
 1087 0000 10B5     		push	{r4, lr}
 1088              		.cfi_def_cfa_offset 8
 1089              		.cfi_offset 4, -8
 1090              		.cfi_offset 14, -4
 1091 0002 82B0     		sub	sp, sp, #8
 1092              		.cfi_def_cfa_offset 16
 1093              		.loc 1 60 0
 1094 0004 0446     		mov	r4, r0
 1095              	.LBB92:
 1096              	.LBB93:
 1097              		.loc 1 353 0
 1098 0006 0122     		movs	r2, #1
 1099 0008 0DF10701 		add	r1, sp, #7
 1100 000c 0620     		movs	r0, #6
 1101              	.LVL92:
 1102 000e FFF7FEFF 		bl	rf_read_reg
 1103              	.LVL93:
 1104              		.loc 1 354 0
 1105 0012 9DF80720 		ldrb	r2, [sp, #7]	@ zero_extendqisi2
 1106              	.LVL94:
 1107              	.LBE93:
 1108              	.LBE92:
 1109              		.loc 1 64 0
 1110 0016 22F00703 		bic	r3, r2, #7
 1111              		.loc 1 65 0
 1112 001a 43EA4403 		orr	r3, r3, r4, lsl #1
 1113 001e 03F0FE03 		and	r3, r3, #254
 1114              	.LVL95:
 1115              		.loc 1 69 0
 1116 0022 032C     		cmp	r4, #3
 1117              		.loc 1 70 0
 1118 0024 08BF     		it	eq
 1119 0026 43F00103 		orreq	r3, r3, #1
 1120              	.LVL96:
 1121              		.loc 1 73 0
 1122 002a 9342     		cmp	r3, r2
 1123 002c 07D0     		beq	.L48
 1124              	.LVL97:
 1125              	.LBB94:
 1126              	.LBB95:
 1127              		.loc 1 339 0
 1128 002e 0DF10701 		add	r1, sp, #7
 1129 0032 0122     		movs	r2, #1
 1130 0034 0620     		movs	r0, #6
 1131 0036 8DF80730 		strb	r3, [sp, #7]
 1132              	.LVL98:
 1133 003a FFF7FEFF 		bl	rf_write_reg
 1134              	.LVL99:
 1135              	.L48:
 1136              	.LBE95:
 1137              	.LBE94:
 1138              		.loc 1 76 0
 1139 003e 02B0     		add	sp, sp, #8
 1140              		.cfi_def_cfa_offset 8
ARM GAS  /var/tmp//cc5p8HO2.s 			page 21


 1141              		@ sp needed
 1142 0040 10BD     		pop	{r4, pc}
 1143              		.cfi_endproc
 1144              	.LFE259:
 1145              		.size	rf_set_power, .-rf_set_power
 1146              		.section	.text.rf_set_crc_type,"ax",%progbits
 1147              		.align	1
 1148              		.p2align 4,,15
 1149              		.global	rf_set_crc_type
 1150              		.syntax unified
 1151              		.thumb
 1152              		.thumb_func
 1153              		.fpu fpv4-sp-d16
 1154              		.type	rf_set_crc_type, %function
 1155              	rf_set_crc_type:
 1156              	.LFB261:
 1157              		.loc 1 82 0
 1158              		.cfi_startproc
 1159              		@ args = 0, pretend = 0, frame = 8
 1160              		@ frame_needed = 0, uses_anonymous_args = 0
 1161              	.LVL100:
 1162 0000 10B5     		push	{r4, lr}
 1163              		.cfi_def_cfa_offset 8
 1164              		.cfi_offset 4, -8
 1165              		.cfi_offset 14, -4
 1166 0002 82B0     		sub	sp, sp, #8
 1167              		.cfi_def_cfa_offset 16
 1168              		.loc 1 82 0
 1169 0004 0446     		mov	r4, r0
 1170              	.LBB96:
 1171              	.LBB97:
 1172              		.loc 1 353 0
 1173 0006 0122     		movs	r2, #1
 1174 0008 0DF10701 		add	r1, sp, #7
 1175 000c 0020     		movs	r0, #0
 1176              	.LVL101:
 1177 000e FFF7FEFF 		bl	rf_read_reg
 1178              	.LVL102:
 1179              		.loc 1 354 0
 1180 0012 9DF80720 		ldrb	r2, [sp, #7]	@ zero_extendqisi2
 1181              	.LVL103:
 1182              	.LBE97:
 1183              	.LBE96:
 1184              		.loc 1 88 0
 1185 0016 012C     		cmp	r4, #1
 1186              		.loc 1 86 0
 1187 0018 02F0F303 		and	r3, r2, #243
 1188              	.LVL104:
 1189              		.loc 1 88 0
 1190 001c 10D0     		beq	.L54
 1191 001e 022C     		cmp	r4, #2
 1192 0020 0BD0     		beq	.L55
 1193              	.L53:
 1194              		.loc 1 104 0
 1195 0022 9342     		cmp	r3, r2
 1196 0024 07D0     		beq	.L52
 1197              	.LVL105:
ARM GAS  /var/tmp//cc5p8HO2.s 			page 22


 1198              	.LBB98:
 1199              	.LBB99:
 1200              		.loc 1 339 0
 1201 0026 0DF10701 		add	r1, sp, #7
 1202 002a 0122     		movs	r2, #1
 1203 002c 0020     		movs	r0, #0
 1204 002e 8DF80730 		strb	r3, [sp, #7]
 1205              	.LVL106:
 1206 0032 FFF7FEFF 		bl	rf_write_reg
 1207              	.LVL107:
 1208              	.L52:
 1209              	.LBE99:
 1210              	.LBE98:
 1211              		.loc 1 107 0
 1212 0036 02B0     		add	sp, sp, #8
 1213              		.cfi_remember_state
 1214              		.cfi_def_cfa_offset 8
 1215              		@ sp needed
 1216 0038 10BD     		pop	{r4, pc}
 1217              	.LVL108:
 1218              	.L55:
 1219              		.cfi_restore_state
 1220              		.loc 1 97 0
 1221 003a 43F00C03 		orr	r3, r3, #12
 1222              	.LVL109:
 1223              		.loc 1 98 0
 1224 003e F0E7     		b	.L53
 1225              	.L54:
 1226              		.loc 1 93 0
 1227 0040 43F00803 		orr	r3, r3, #8
 1228              	.LVL110:
 1229              		.loc 1 94 0
 1230 0044 EDE7     		b	.L53
 1231              		.cfi_endproc
 1232              	.LFE261:
 1233              		.size	rf_set_crc_type, .-rf_set_crc_type
 1234 0046 00BF     		.section	.text.rf_set_retr_retries,"ax",%progbits
 1235              		.align	1
 1236              		.p2align 4,,15
 1237              		.global	rf_set_retr_retries
 1238              		.syntax unified
 1239              		.thumb
 1240              		.thumb_func
 1241              		.fpu fpv4-sp-d16
 1242              		.type	rf_set_retr_retries, %function
 1243              	rf_set_retr_retries:
 1244              	.LFB262:
 1245              		.loc 1 109 0
 1246              		.cfi_startproc
 1247              		@ args = 0, pretend = 0, frame = 8
 1248              		@ frame_needed = 0, uses_anonymous_args = 0
 1249              	.LVL111:
 1250 0000 10B5     		push	{r4, lr}
 1251              		.cfi_def_cfa_offset 8
 1252              		.cfi_offset 4, -8
 1253              		.cfi_offset 14, -4
 1254 0002 82B0     		sub	sp, sp, #8
ARM GAS  /var/tmp//cc5p8HO2.s 			page 23


 1255              		.cfi_def_cfa_offset 16
 1256              		.loc 1 109 0
 1257 0004 0446     		mov	r4, r0
 1258              	.LBB100:
 1259              	.LBB101:
 1260              		.loc 1 353 0
 1261 0006 0DF10701 		add	r1, sp, #7
 1262 000a 0122     		movs	r2, #1
 1263 000c 0420     		movs	r0, #4
 1264              	.LVL112:
 1265 000e FFF7FEFF 		bl	rf_read_reg
 1266              	.LVL113:
 1267              		.loc 1 354 0
 1268 0012 9DF80720 		ldrb	r2, [sp, #7]	@ zero_extendqisi2
 1269              	.LVL114:
 1270              	.LBE101:
 1271              	.LBE100:
 1272              		.loc 1 114 0
 1273 0016 04F00F03 		and	r3, r4, #15
 1274              		.loc 1 113 0
 1275 001a 22F00F01 		bic	r1, r2, #15
 1276              		.loc 1 114 0
 1277 001e 0B43     		orrs	r3, r3, r1
 1278              	.LVL115:
 1279              		.loc 1 116 0
 1280 0020 9342     		cmp	r3, r2
 1281 0022 07D0     		beq	.L58
 1282              	.LVL116:
 1283              	.LBB102:
 1284              	.LBB103:
 1285              		.loc 1 339 0
 1286 0024 0DF10701 		add	r1, sp, #7
 1287 0028 0122     		movs	r2, #1
 1288 002a 0420     		movs	r0, #4
 1289 002c 8DF80730 		strb	r3, [sp, #7]
 1290              	.LVL117:
 1291 0030 FFF7FEFF 		bl	rf_write_reg
 1292              	.LVL118:
 1293              	.L58:
 1294              	.LBE103:
 1295              	.LBE102:
 1296              		.loc 1 119 0
 1297 0034 02B0     		add	sp, sp, #8
 1298              		.cfi_def_cfa_offset 8
 1299              		@ sp needed
 1300 0036 10BD     		pop	{r4, pc}
 1301              		.cfi_endproc
 1302              	.LFE262:
 1303              		.size	rf_set_retr_retries, .-rf_set_retr_retries
 1304              		.section	.text.rf_set_retr_delay,"ax",%progbits
 1305              		.align	1
 1306              		.p2align 4,,15
 1307              		.global	rf_set_retr_delay
 1308              		.syntax unified
 1309              		.thumb
 1310              		.thumb_func
 1311              		.fpu fpv4-sp-d16
ARM GAS  /var/tmp//cc5p8HO2.s 			page 24


 1312              		.type	rf_set_retr_delay, %function
 1313              	rf_set_retr_delay:
 1314              	.LFB263:
 1315              		.loc 1 121 0
 1316              		.cfi_startproc
 1317              		@ args = 0, pretend = 0, frame = 8
 1318              		@ frame_needed = 0, uses_anonymous_args = 0
 1319              	.LVL119:
 1320 0000 10B5     		push	{r4, lr}
 1321              		.cfi_def_cfa_offset 8
 1322              		.cfi_offset 4, -8
 1323              		.cfi_offset 14, -4
 1324 0002 82B0     		sub	sp, sp, #8
 1325              		.cfi_def_cfa_offset 16
 1326              		.loc 1 121 0
 1327 0004 0446     		mov	r4, r0
 1328              	.LBB104:
 1329              	.LBB105:
 1330              		.loc 1 353 0
 1331 0006 0122     		movs	r2, #1
 1332 0008 0DF10701 		add	r1, sp, #7
 1333 000c 0420     		movs	r0, #4
 1334              	.LVL120:
 1335 000e FFF7FEFF 		bl	rf_read_reg
 1336              	.LVL121:
 1337              		.loc 1 354 0
 1338 0012 9DF80720 		ldrb	r2, [sp, #7]	@ zero_extendqisi2
 1339              	.LVL122:
 1340              	.LBE105:
 1341              	.LBE104:
 1342              		.loc 1 125 0
 1343 0016 02F00F03 		and	r3, r2, #15
 1344              		.loc 1 126 0
 1345 001a 43EA0413 		orr	r3, r3, r4, lsl #4
 1346 001e DBB2     		uxtb	r3, r3
 1347              	.LVL123:
 1348              		.loc 1 128 0
 1349 0020 9342     		cmp	r3, r2
 1350 0022 07D0     		beq	.L61
 1351              	.LVL124:
 1352              	.LBB106:
 1353              	.LBB107:
 1354              		.loc 1 339 0
 1355 0024 0DF10701 		add	r1, sp, #7
 1356 0028 0122     		movs	r2, #1
 1357 002a 0420     		movs	r0, #4
 1358 002c 8DF80730 		strb	r3, [sp, #7]
 1359              	.LVL125:
 1360 0030 FFF7FEFF 		bl	rf_write_reg
 1361              	.LVL126:
 1362              	.L61:
 1363              	.LBE107:
 1364              	.LBE106:
 1365              		.loc 1 131 0
 1366 0034 02B0     		add	sp, sp, #8
 1367              		.cfi_def_cfa_offset 8
 1368              		@ sp needed
ARM GAS  /var/tmp//cc5p8HO2.s 			page 25


 1369 0036 10BD     		pop	{r4, pc}
 1370              		.cfi_endproc
 1371              	.LFE263:
 1372              		.size	rf_set_retr_delay, .-rf_set_retr_delay
 1373              		.section	.text.rf_get_frequency,"ax",%progbits
 1374              		.align	1
 1375              		.p2align 4,,15
 1376              		.global	rf_get_frequency
 1377              		.syntax unified
 1378              		.thumb
 1379              		.thumb_func
 1380              		.fpu fpv4-sp-d16
 1381              		.type	rf_get_frequency, %function
 1382              	rf_get_frequency:
 1383              	.LFB271:
 1384              		.loc 1 187 0
 1385              		.cfi_startproc
 1386              		@ args = 0, pretend = 0, frame = 8
 1387              		@ frame_needed = 0, uses_anonymous_args = 0
 1388              	.LVL127:
 1389 0000 00B5     		push	{lr}
 1390              		.cfi_def_cfa_offset 4
 1391              		.cfi_offset 14, -4
 1392 0002 83B0     		sub	sp, sp, #12
 1393              		.cfi_def_cfa_offset 16
 1394              	.LBB108:
 1395              	.LBB109:
 1396              		.loc 1 353 0
 1397 0004 0122     		movs	r2, #1
 1398 0006 0DF10701 		add	r1, sp, #7
 1399 000a 0520     		movs	r0, #5
 1400 000c FFF7FEFF 		bl	rf_read_reg
 1401              	.LVL128:
 1402              		.loc 1 354 0
 1403 0010 9DF80700 		ldrb	r0, [sp, #7]	@ zero_extendqisi2
 1404              	.LVL129:
 1405              	.LBE109:
 1406              	.LBE108:
 1407              		.loc 1 190 0
 1408 0014 00F51660 		add	r0, r0, #2400
 1409 0018 03B0     		add	sp, sp, #12
 1410              		.cfi_def_cfa_offset 4
 1411              		@ sp needed
 1412 001a 5DF804FB 		ldr	pc, [sp], #4
 1413              		.cfi_endproc
 1414              	.LFE271:
 1415              		.size	rf_get_frequency, .-rf_get_frequency
 1416 001e 00BF     		.section	.text.rf_get_address_width,"ax",%progbits
 1417              		.align	1
 1418              		.p2align 4,,15
 1419              		.global	rf_get_address_width
 1420              		.syntax unified
 1421              		.thumb
 1422              		.thumb_func
 1423              		.fpu fpv4-sp-d16
 1424              		.type	rf_get_address_width, %function
 1425              	rf_get_address_width:
ARM GAS  /var/tmp//cc5p8HO2.s 			page 26


 1426              	.LFB272:
 1427              		.loc 1 192 0
 1428              		.cfi_startproc
 1429              		@ args = 0, pretend = 0, frame = 8
 1430              		@ frame_needed = 0, uses_anonymous_args = 0
 1431              	.LVL130:
 1432 0000 00B5     		push	{lr}
 1433              		.cfi_def_cfa_offset 4
 1434              		.cfi_offset 14, -4
 1435 0002 83B0     		sub	sp, sp, #12
 1436              		.cfi_def_cfa_offset 16
 1437              	.LBB110:
 1438              	.LBB111:
 1439              		.loc 1 353 0
 1440 0004 0122     		movs	r2, #1
 1441 0006 0DF10701 		add	r1, sp, #7
 1442 000a 0320     		movs	r0, #3
 1443 000c FFF7FEFF 		bl	rf_read_reg
 1444              	.LVL131:
 1445              		.loc 1 354 0
 1446 0010 9DF80700 		ldrb	r0, [sp, #7]	@ zero_extendqisi2
 1447              	.LVL132:
 1448              	.LBE111:
 1449              	.LBE110:
 1450              		.loc 1 194 0
 1451 0014 0230     		adds	r0, r0, #2
 1452 0016 03B0     		add	sp, sp, #12
 1453              		.cfi_def_cfa_offset 4
 1454              		@ sp needed
 1455 0018 5DF804FB 		ldr	pc, [sp], #4
 1456              		.cfi_endproc
 1457              	.LFE272:
 1458              		.size	rf_get_address_width, .-rf_get_address_width
 1459              		.section	.text.rf_power_up,"ax",%progbits
 1460              		.align	1
 1461              		.p2align 4,,15
 1462              		.global	rf_power_up
 1463              		.syntax unified
 1464              		.thumb
 1465              		.thumb_func
 1466              		.fpu fpv4-sp-d16
 1467              		.type	rf_power_up, %function
 1468              	rf_power_up:
 1469              	.LFB273:
 1470              		.loc 1 197 0
 1471              		.cfi_startproc
 1472              		@ args = 0, pretend = 0, frame = 8
 1473              		@ frame_needed = 0, uses_anonymous_args = 0
 1474              	.LVL133:
 1475 0000 00B5     		push	{lr}
 1476              		.cfi_def_cfa_offset 4
 1477              		.cfi_offset 14, -4
 1478 0002 83B0     		sub	sp, sp, #12
 1479              		.cfi_def_cfa_offset 16
 1480              	.LBB112:
 1481              	.LBB113:
 1482              		.loc 1 353 0
ARM GAS  /var/tmp//cc5p8HO2.s 			page 27


 1483 0004 0020     		movs	r0, #0
 1484 0006 0DF10701 		add	r1, sp, #7
 1485 000a 0122     		movs	r2, #1
 1486 000c FFF7FEFF 		bl	rf_read_reg
 1487              	.LVL134:
 1488              		.loc 1 354 0
 1489 0010 9DF80730 		ldrb	r3, [sp, #7]	@ zero_extendqisi2
 1490              	.LVL135:
 1491              	.LBE113:
 1492              	.LBE112:
 1493              		.loc 1 199 0
 1494 0014 13F00200 		ands	r0, r3, #2
 1495 0018 08D1     		bne	.L68
 1496              	.LVL136:
 1497 001a 43F00203 		orr	r3, r3, #2
 1498              	.LVL137:
 1499              	.LBB114:
 1500              	.LBB115:
 1501              		.loc 1 339 0
 1502 001e 0DF10701 		add	r1, sp, #7
 1503              	.LVL138:
 1504 0022 0122     		movs	r2, #1
 1505 0024 8DF80730 		strb	r3, [sp, #7]
 1506              	.LVL139:
 1507 0028 FFF7FEFF 		bl	rf_write_reg
 1508              	.LVL140:
 1509              	.L68:
 1510              	.LBE115:
 1511              	.LBE114:
 1512              		.loc 1 203 0
 1513 002c 03B0     		add	sp, sp, #12
 1514              		.cfi_def_cfa_offset 4
 1515              		@ sp needed
 1516 002e 5DF804FB 		ldr	pc, [sp], #4
 1517              		.cfi_endproc
 1518              	.LFE273:
 1519              		.size	rf_power_up, .-rf_power_up
 1520 0032 00BF     		.section	.text.rf_power_down,"ax",%progbits
 1521              		.align	1
 1522              		.p2align 4,,15
 1523              		.global	rf_power_down
 1524              		.syntax unified
 1525              		.thumb
 1526              		.thumb_func
 1527              		.fpu fpv4-sp-d16
 1528              		.type	rf_power_down, %function
 1529              	rf_power_down:
 1530              	.LFB274:
 1531              		.loc 1 206 0
 1532              		.cfi_startproc
 1533              		@ args = 0, pretend = 0, frame = 8
 1534              		@ frame_needed = 0, uses_anonymous_args = 0
 1535              	.LVL141:
 1536 0000 00B5     		push	{lr}
 1537              		.cfi_def_cfa_offset 4
 1538              		.cfi_offset 14, -4
 1539 0002 83B0     		sub	sp, sp, #12
ARM GAS  /var/tmp//cc5p8HO2.s 			page 28


 1540              		.cfi_def_cfa_offset 16
 1541              	.LBB116:
 1542              	.LBB117:
 1543              		.loc 1 353 0
 1544 0004 0122     		movs	r2, #1
 1545 0006 0DF10701 		add	r1, sp, #7
 1546 000a 0020     		movs	r0, #0
 1547 000c FFF7FEFF 		bl	rf_read_reg
 1548              	.LVL142:
 1549              		.loc 1 354 0
 1550 0010 9DF80730 		ldrb	r3, [sp, #7]	@ zero_extendqisi2
 1551              	.LVL143:
 1552              	.LBE117:
 1553              	.LBE116:
 1554              		.loc 1 208 0
 1555 0014 9A07     		lsls	r2, r3, #30
 1556 0016 09D5     		bpl	.L71
 1557              	.LVL144:
 1558              		.loc 1 209 0
 1559 0018 23F00203 		bic	r3, r3, #2
 1560              	.LVL145:
 1561              	.LBB118:
 1562              	.LBB119:
 1563              		.loc 1 339 0
 1564 001c 0DF10701 		add	r1, sp, #7
 1565 0020 0122     		movs	r2, #1
 1566 0022 0020     		movs	r0, #0
 1567              	.LBE119:
 1568              	.LBE118:
 1569              		.loc 1 210 0
 1570 0024 8DF80730 		strb	r3, [sp, #7]
 1571              	.LVL146:
 1572              	.LBB121:
 1573              	.LBB120:
 1574              		.loc 1 339 0
 1575 0028 FFF7FEFF 		bl	rf_write_reg
 1576              	.LVL147:
 1577              	.L71:
 1578              	.LBE120:
 1579              	.LBE121:
 1580              		.loc 1 212 0
 1581 002c 03B0     		add	sp, sp, #12
 1582              		.cfi_def_cfa_offset 4
 1583              		@ sp needed
 1584 002e 5DF804FB 		ldr	pc, [sp], #4
 1585              		.cfi_endproc
 1586              	.LFE274:
 1587              		.size	rf_power_down, .-rf_power_down
 1588 0032 00BF     		.section	.text.rf_mode_tx,"ax",%progbits
 1589              		.align	1
 1590              		.p2align 4,,15
 1591              		.global	rf_mode_tx
 1592              		.syntax unified
 1593              		.thumb
 1594              		.thumb_func
 1595              		.fpu fpv4-sp-d16
 1596              		.type	rf_mode_tx, %function
ARM GAS  /var/tmp//cc5p8HO2.s 			page 29


 1597              	rf_mode_tx:
 1598              	.LFB275:
 1599              		.loc 1 215 0
 1600              		.cfi_startproc
 1601              		@ args = 0, pretend = 0, frame = 8
 1602              		@ frame_needed = 0, uses_anonymous_args = 0
 1603              	.LVL148:
 1604 0000 00B5     		push	{lr}
 1605              		.cfi_def_cfa_offset 4
 1606              		.cfi_offset 14, -4
 1607 0002 83B0     		sub	sp, sp, #12
 1608              		.cfi_def_cfa_offset 16
 1609              	.LBB122:
 1610              	.LBB123:
 1611              		.loc 1 353 0
 1612 0004 0122     		movs	r2, #1
 1613 0006 0DF10701 		add	r1, sp, #7
 1614 000a 0020     		movs	r0, #0
 1615 000c FFF7FEFF 		bl	rf_read_reg
 1616              	.LVL149:
 1617              		.loc 1 354 0
 1618 0010 9DF80730 		ldrb	r3, [sp, #7]	@ zero_extendqisi2
 1619              	.LVL150:
 1620              	.LBE123:
 1621              	.LBE122:
 1622              		.loc 1 217 0
 1623 0014 DA07     		lsls	r2, r3, #31
 1624 0016 09D5     		bpl	.L77
 1625              	.LVL151:
 1626              		.loc 1 218 0
 1627 0018 23F00103 		bic	r3, r3, #1
 1628              	.LVL152:
 1629              	.LBB124:
 1630              	.LBB125:
 1631              		.loc 1 339 0
 1632 001c 0DF10701 		add	r1, sp, #7
 1633 0020 0122     		movs	r2, #1
 1634 0022 0020     		movs	r0, #0
 1635              	.LBE125:
 1636              	.LBE124:
 1637              		.loc 1 219 0
 1638 0024 8DF80730 		strb	r3, [sp, #7]
 1639              	.LVL153:
 1640              	.LBB127:
 1641              	.LBB126:
 1642              		.loc 1 339 0
 1643 0028 FFF7FEFF 		bl	rf_write_reg
 1644              	.LVL154:
 1645              	.L77:
 1646              	.LBE126:
 1647              	.LBE127:
 1648              		.loc 1 221 0
 1649 002c 03B0     		add	sp, sp, #12
 1650              		.cfi_def_cfa_offset 4
 1651              		@ sp needed
 1652 002e 5DF804FB 		ldr	pc, [sp], #4
 1653              		.cfi_endproc
ARM GAS  /var/tmp//cc5p8HO2.s 			page 30


 1654              	.LFE275:
 1655              		.size	rf_mode_tx, .-rf_mode_tx
 1656 0032 00BF     		.section	.text.rf_mode_rx,"ax",%progbits
 1657              		.align	1
 1658              		.p2align 4,,15
 1659              		.global	rf_mode_rx
 1660              		.syntax unified
 1661              		.thumb
 1662              		.thumb_func
 1663              		.fpu fpv4-sp-d16
 1664              		.type	rf_mode_rx, %function
 1665              	rf_mode_rx:
 1666              	.LFB276:
 1667              		.loc 1 224 0
 1668              		.cfi_startproc
 1669              		@ args = 0, pretend = 0, frame = 8
 1670              		@ frame_needed = 0, uses_anonymous_args = 0
 1671              	.LVL155:
 1672 0000 00B5     		push	{lr}
 1673              		.cfi_def_cfa_offset 4
 1674              		.cfi_offset 14, -4
 1675 0002 83B0     		sub	sp, sp, #12
 1676              		.cfi_def_cfa_offset 16
 1677              	.LBB128:
 1678              	.LBB129:
 1679              		.loc 1 353 0
 1680 0004 0020     		movs	r0, #0
 1681 0006 0DF10701 		add	r1, sp, #7
 1682 000a 0122     		movs	r2, #1
 1683 000c FFF7FEFF 		bl	rf_read_reg
 1684              	.LVL156:
 1685              		.loc 1 354 0
 1686 0010 9DF80730 		ldrb	r3, [sp, #7]	@ zero_extendqisi2
 1687              	.LVL157:
 1688              	.LBE129:
 1689              	.LBE128:
 1690              		.loc 1 226 0
 1691 0014 13F00100 		ands	r0, r3, #1
 1692 0018 08D1     		bne	.L83
 1693              	.LVL158:
 1694 001a 43F00103 		orr	r3, r3, #1
 1695              	.LVL159:
 1696              	.LBB130:
 1697              	.LBB131:
 1698              		.loc 1 339 0
 1699 001e 0DF10701 		add	r1, sp, #7
 1700              	.LVL160:
 1701 0022 0122     		movs	r2, #1
 1702 0024 8DF80730 		strb	r3, [sp, #7]
 1703              	.LVL161:
 1704 0028 FFF7FEFF 		bl	rf_write_reg
 1705              	.LVL162:
 1706              	.L83:
 1707              	.LBE131:
 1708              	.LBE130:
 1709              		.loc 1 230 0
 1710 002c 03B0     		add	sp, sp, #12
ARM GAS  /var/tmp//cc5p8HO2.s 			page 31


 1711              		.cfi_def_cfa_offset 4
 1712              		@ sp needed
 1713 002e 5DF804FB 		ldr	pc, [sp], #4
 1714              		.cfi_endproc
 1715              	.LFE276:
 1716              		.size	rf_mode_rx, .-rf_mode_rx
 1717 0032 00BF     		.section	.text.rf_enable_pipe_autoack,"ax",%progbits
 1718              		.align	1
 1719              		.p2align 4,,15
 1720              		.global	rf_enable_pipe_autoack
 1721              		.syntax unified
 1722              		.thumb
 1723              		.thumb_func
 1724              		.fpu fpv4-sp-d16
 1725              		.type	rf_enable_pipe_autoack, %function
 1726              	rf_enable_pipe_autoack:
 1727              	.LFB277:
 1728              		.loc 1 233 0
 1729              		.cfi_startproc
 1730              		@ args = 0, pretend = 0, frame = 8
 1731              		@ frame_needed = 0, uses_anonymous_args = 0
 1732              	.LVL163:
 1733 0000 10B5     		push	{r4, lr}
 1734              		.cfi_def_cfa_offset 8
 1735              		.cfi_offset 4, -8
 1736              		.cfi_offset 14, -4
 1737              	.LBB132:
 1738              	.LBB133:
 1739              		.loc 1 353 0
 1740 0002 0122     		movs	r2, #1
 1741              	.LBE133:
 1742              	.LBE132:
 1743              		.loc 1 233 0
 1744 0004 82B0     		sub	sp, sp, #8
 1745              		.cfi_def_cfa_offset 16
 1746              		.loc 1 233 0
 1747 0006 0446     		mov	r4, r0
 1748              	.LBB135:
 1749              	.LBB134:
 1750              		.loc 1 353 0
 1751 0008 0DF10701 		add	r1, sp, #7
 1752 000c 1046     		mov	r0, r2
 1753              	.LVL164:
 1754 000e FFF7FEFF 		bl	rf_read_reg
 1755              	.LVL165:
 1756              		.loc 1 354 0
 1757 0012 9DF80700 		ldrb	r0, [sp, #7]	@ zero_extendqisi2
 1758              	.LVL166:
 1759              	.LBE134:
 1760              	.LBE135:
 1761              		.loc 1 235 0
 1762 0016 34EA0003 		bics	r3, r4, r0
 1763 001a 09D0     		beq	.L86
 1764              	.LVL167:
 1765              	.LBB136:
 1766              	.LBB137:
 1767              		.loc 1 339 0
ARM GAS  /var/tmp//cc5p8HO2.s 			page 32


 1768 001c 0122     		movs	r2, #1
 1769              	.LBE137:
 1770              	.LBE136:
 1771              		.loc 1 236 0
 1772 001e 40EA0403 		orr	r3, r0, r4
 1773              	.LVL168:
 1774              	.LBB140:
 1775              	.LBB138:
 1776              		.loc 1 339 0
 1777 0022 0DF10701 		add	r1, sp, #7
 1778 0026 1046     		mov	r0, r2
 1779              	.LBE138:
 1780              	.LBE140:
 1781              		.loc 1 237 0
 1782 0028 8DF80730 		strb	r3, [sp, #7]
 1783              	.LVL169:
 1784              	.LBB141:
 1785              	.LBB139:
 1786              		.loc 1 339 0
 1787 002c FFF7FEFF 		bl	rf_write_reg
 1788              	.LVL170:
 1789              	.L86:
 1790              	.LBE139:
 1791              	.LBE141:
 1792              		.loc 1 239 0
 1793 0030 02B0     		add	sp, sp, #8
 1794              		.cfi_def_cfa_offset 8
 1795              		@ sp needed
 1796 0032 10BD     		pop	{r4, pc}
 1797              		.cfi_endproc
 1798              	.LFE277:
 1799              		.size	rf_enable_pipe_autoack, .-rf_enable_pipe_autoack
 1800              		.section	.text.rf_enable_pipe_address,"ax",%progbits
 1801              		.align	1
 1802              		.p2align 4,,15
 1803              		.global	rf_enable_pipe_address
 1804              		.syntax unified
 1805              		.thumb
 1806              		.thumb_func
 1807              		.fpu fpv4-sp-d16
 1808              		.type	rf_enable_pipe_address, %function
 1809              	rf_enable_pipe_address:
 1810              	.LFB278:
 1811              		.loc 1 242 0
 1812              		.cfi_startproc
 1813              		@ args = 0, pretend = 0, frame = 8
 1814              		@ frame_needed = 0, uses_anonymous_args = 0
 1815              	.LVL171:
 1816 0000 10B5     		push	{r4, lr}
 1817              		.cfi_def_cfa_offset 8
 1818              		.cfi_offset 4, -8
 1819              		.cfi_offset 14, -4
 1820 0002 82B0     		sub	sp, sp, #8
 1821              		.cfi_def_cfa_offset 16
 1822              		.loc 1 242 0
 1823 0004 0446     		mov	r4, r0
 1824              	.LBB142:
ARM GAS  /var/tmp//cc5p8HO2.s 			page 33


 1825              	.LBB143:
 1826              		.loc 1 353 0
 1827 0006 0DF10701 		add	r1, sp, #7
 1828 000a 0220     		movs	r0, #2
 1829              	.LVL172:
 1830 000c 0122     		movs	r2, #1
 1831 000e FFF7FEFF 		bl	rf_read_reg
 1832              	.LVL173:
 1833              		.loc 1 354 0
 1834 0012 9DF80700 		ldrb	r0, [sp, #7]	@ zero_extendqisi2
 1835              	.LVL174:
 1836              	.LBE143:
 1837              	.LBE142:
 1838              		.loc 1 244 0
 1839 0016 34EA0003 		bics	r3, r4, r0
 1840 001a 09D0     		beq	.L89
 1841              	.LVL175:
 1842              		.loc 1 245 0
 1843 001c 40EA0403 		orr	r3, r0, r4
 1844              	.LVL176:
 1845              	.LBB144:
 1846              	.LBB145:
 1847              		.loc 1 339 0
 1848 0020 0DF10701 		add	r1, sp, #7
 1849 0024 0122     		movs	r2, #1
 1850 0026 0220     		movs	r0, #2
 1851              	.LBE145:
 1852              	.LBE144:
 1853              		.loc 1 246 0
 1854 0028 8DF80730 		strb	r3, [sp, #7]
 1855              	.LVL177:
 1856              	.LBB147:
 1857              	.LBB146:
 1858              		.loc 1 339 0
 1859 002c FFF7FEFF 		bl	rf_write_reg
 1860              	.LVL178:
 1861              	.L89:
 1862              	.LBE146:
 1863              	.LBE147:
 1864              		.loc 1 248 0
 1865 0030 02B0     		add	sp, sp, #8
 1866              		.cfi_def_cfa_offset 8
 1867              		@ sp needed
 1868 0032 10BD     		pop	{r4, pc}
 1869              		.cfi_endproc
 1870              	.LFE278:
 1871              		.size	rf_enable_pipe_address, .-rf_enable_pipe_address
 1872              		.section	.text.rf_enable_pipe_dlp,"ax",%progbits
 1873              		.align	1
 1874              		.p2align 4,,15
 1875              		.global	rf_enable_pipe_dlp
 1876              		.syntax unified
 1877              		.thumb
 1878              		.thumb_func
 1879              		.fpu fpv4-sp-d16
 1880              		.type	rf_enable_pipe_dlp, %function
 1881              	rf_enable_pipe_dlp:
ARM GAS  /var/tmp//cc5p8HO2.s 			page 34


 1882              	.LFB279:
 1883              		.loc 1 251 0
 1884              		.cfi_startproc
 1885              		@ args = 0, pretend = 0, frame = 8
 1886              		@ frame_needed = 0, uses_anonymous_args = 0
 1887              	.LVL179:
 1888 0000 10B5     		push	{r4, lr}
 1889              		.cfi_def_cfa_offset 8
 1890              		.cfi_offset 4, -8
 1891              		.cfi_offset 14, -4
 1892 0002 82B0     		sub	sp, sp, #8
 1893              		.cfi_def_cfa_offset 16
 1894              		.loc 1 251 0
 1895 0004 0446     		mov	r4, r0
 1896              	.LBB148:
 1897              	.LBB149:
 1898              		.loc 1 353 0
 1899 0006 0DF10701 		add	r1, sp, #7
 1900 000a 1C20     		movs	r0, #28
 1901              	.LVL180:
 1902 000c 0122     		movs	r2, #1
 1903 000e FFF7FEFF 		bl	rf_read_reg
 1904              	.LVL181:
 1905              		.loc 1 354 0
 1906 0012 9DF80700 		ldrb	r0, [sp, #7]	@ zero_extendqisi2
 1907              	.LVL182:
 1908              	.LBE149:
 1909              	.LBE148:
 1910              		.loc 1 253 0
 1911 0016 34EA0003 		bics	r3, r4, r0
 1912 001a 09D0     		beq	.L92
 1913              	.LVL183:
 1914              		.loc 1 254 0
 1915 001c 40EA0403 		orr	r3, r0, r4
 1916              	.LVL184:
 1917              	.LBB150:
 1918              	.LBB151:
 1919              		.loc 1 339 0
 1920 0020 0DF10701 		add	r1, sp, #7
 1921 0024 0122     		movs	r2, #1
 1922 0026 1C20     		movs	r0, #28
 1923              	.LBE151:
 1924              	.LBE150:
 1925              		.loc 1 255 0
 1926 0028 8DF80730 		strb	r3, [sp, #7]
 1927              	.LVL185:
 1928              	.LBB153:
 1929              	.LBB152:
 1930              		.loc 1 339 0
 1931 002c FFF7FEFF 		bl	rf_write_reg
 1932              	.LVL186:
 1933              	.L92:
 1934              	.LBE152:
 1935              	.LBE153:
 1936              		.loc 1 257 0
 1937 0030 02B0     		add	sp, sp, #8
 1938              		.cfi_def_cfa_offset 8
ARM GAS  /var/tmp//cc5p8HO2.s 			page 35


 1939              		@ sp needed
 1940 0032 10BD     		pop	{r4, pc}
 1941              		.cfi_endproc
 1942              	.LFE279:
 1943              		.size	rf_enable_pipe_dlp, .-rf_enable_pipe_dlp
 1944              		.section	.text.rf_enable_features,"ax",%progbits
 1945              		.align	1
 1946              		.p2align 4,,15
 1947              		.global	rf_enable_features
 1948              		.syntax unified
 1949              		.thumb
 1950              		.thumb_func
 1951              		.fpu fpv4-sp-d16
 1952              		.type	rf_enable_features, %function
 1953              	rf_enable_features:
 1954              	.LFB280:
 1955              		.loc 1 260 0
 1956              		.cfi_startproc
 1957              		@ args = 0, pretend = 0, frame = 8
 1958              		@ frame_needed = 0, uses_anonymous_args = 0
 1959              	.LVL187:
 1960 0000 10B5     		push	{r4, lr}
 1961              		.cfi_def_cfa_offset 8
 1962              		.cfi_offset 4, -8
 1963              		.cfi_offset 14, -4
 1964 0002 82B0     		sub	sp, sp, #8
 1965              		.cfi_def_cfa_offset 16
 1966              		.loc 1 260 0
 1967 0004 0446     		mov	r4, r0
 1968              	.LBB154:
 1969              	.LBB155:
 1970              		.loc 1 353 0
 1971 0006 0DF10701 		add	r1, sp, #7
 1972 000a 1D20     		movs	r0, #29
 1973              	.LVL188:
 1974 000c 0122     		movs	r2, #1
 1975 000e FFF7FEFF 		bl	rf_read_reg
 1976              	.LVL189:
 1977              		.loc 1 354 0
 1978 0012 9DF80700 		ldrb	r0, [sp, #7]	@ zero_extendqisi2
 1979              	.LVL190:
 1980              	.LBE155:
 1981              	.LBE154:
 1982              		.loc 1 262 0
 1983 0016 34EA0003 		bics	r3, r4, r0
 1984 001a 09D0     		beq	.L95
 1985              	.LVL191:
 1986              		.loc 1 263 0
 1987 001c 40EA0403 		orr	r3, r0, r4
 1988              	.LVL192:
 1989              	.LBB156:
 1990              	.LBB157:
 1991              		.loc 1 339 0
 1992 0020 0DF10701 		add	r1, sp, #7
 1993 0024 0122     		movs	r2, #1
 1994 0026 1D20     		movs	r0, #29
 1995              	.LBE157:
ARM GAS  /var/tmp//cc5p8HO2.s 			page 36


 1996              	.LBE156:
 1997              		.loc 1 264 0
 1998 0028 8DF80730 		strb	r3, [sp, #7]
 1999              	.LVL193:
 2000              	.LBB159:
 2001              	.LBB158:
 2002              		.loc 1 339 0
 2003 002c FFF7FEFF 		bl	rf_write_reg
 2004              	.LVL194:
 2005              	.L95:
 2006              	.LBE158:
 2007              	.LBE159:
 2008              		.loc 1 266 0
 2009 0030 02B0     		add	sp, sp, #8
 2010              		.cfi_def_cfa_offset 8
 2011              		@ sp needed
 2012 0032 10BD     		pop	{r4, pc}
 2013              		.cfi_endproc
 2014              	.LFE280:
 2015              		.size	rf_enable_features, .-rf_enable_features
 2016              		.section	.text.rf_fifo_status,"ax",%progbits
 2017              		.align	1
 2018              		.p2align 4,,15
 2019              		.global	rf_fifo_status
 2020              		.syntax unified
 2021              		.thumb
 2022              		.thumb_func
 2023              		.fpu fpv4-sp-d16
 2024              		.type	rf_fifo_status, %function
 2025              	rf_fifo_status:
 2026              	.LFB290:
 2027              		.loc 1 321 0
 2028              		.cfi_startproc
 2029              		@ args = 0, pretend = 0, frame = 8
 2030              		@ frame_needed = 0, uses_anonymous_args = 0
 2031              	.LVL195:
 2032 0000 00B5     		push	{lr}
 2033              		.cfi_def_cfa_offset 4
 2034              		.cfi_offset 14, -4
 2035 0002 83B0     		sub	sp, sp, #12
 2036              		.cfi_def_cfa_offset 16
 2037              	.LBB160:
 2038              	.LBB161:
 2039              		.loc 1 353 0
 2040 0004 0122     		movs	r2, #1
 2041 0006 0DF10701 		add	r1, sp, #7
 2042 000a 1720     		movs	r0, #23
 2043 000c FFF7FEFF 		bl	rf_read_reg
 2044              	.LVL196:
 2045              	.LBE161:
 2046              	.LBE160:
 2047              		.loc 1 323 0
 2048 0010 9DF80700 		ldrb	r0, [sp, #7]	@ zero_extendqisi2
 2049 0014 03B0     		add	sp, sp, #12
 2050              		.cfi_def_cfa_offset 4
 2051              		@ sp needed
 2052 0016 5DF804FB 		ldr	pc, [sp], #4
ARM GAS  /var/tmp//cc5p8HO2.s 			page 37


 2053              		.cfi_endproc
 2054              	.LFE290:
 2055              		.size	rf_fifo_status, .-rf_fifo_status
 2056 001a 00BF     		.section	.text.rf_rx_power_detect,"ax",%progbits
 2057              		.align	1
 2058              		.p2align 4,,15
 2059              		.global	rf_rx_power_detect
 2060              		.syntax unified
 2061              		.thumb
 2062              		.thumb_func
 2063              		.fpu fpv4-sp-d16
 2064              		.type	rf_rx_power_detect, %function
 2065              	rf_rx_power_detect:
 2066              	.LFB291:
 2067              		.loc 1 325 0
 2068              		.cfi_startproc
 2069              		@ args = 0, pretend = 0, frame = 8
 2070              		@ frame_needed = 0, uses_anonymous_args = 0
 2071              	.LVL197:
 2072 0000 00B5     		push	{lr}
 2073              		.cfi_def_cfa_offset 4
 2074              		.cfi_offset 14, -4
 2075 0002 83B0     		sub	sp, sp, #12
 2076              		.cfi_def_cfa_offset 16
 2077              	.LBB162:
 2078              	.LBB163:
 2079              		.loc 1 353 0
 2080 0004 0122     		movs	r2, #1
 2081 0006 0DF10701 		add	r1, sp, #7
 2082 000a 0920     		movs	r0, #9
 2083 000c FFF7FEFF 		bl	rf_read_reg
 2084              	.LVL198:
 2085              		.loc 1 354 0
 2086 0010 9DF80700 		ldrb	r0, [sp, #7]	@ zero_extendqisi2
 2087              	.LVL199:
 2088              	.LBE163:
 2089              	.LBE162:
 2090              		.loc 1 327 0
 2091 0014 4008     		lsrs	r0, r0, #1
 2092 0016 03B0     		add	sp, sp, #12
 2093              		.cfi_def_cfa_offset 4
 2094              		@ sp needed
 2095 0018 5DF804FB 		ldr	pc, [sp], #4
 2096              		.cfi_endproc
 2097              	.LFE291:
 2098              		.size	rf_rx_power_detect, .-rf_rx_power_detect
 2099              		.section	.text.rf_read_reg_byte,"ax",%progbits
 2100              		.align	1
 2101              		.p2align 4,,15
 2102              		.global	rf_read_reg_byte
 2103              		.syntax unified
 2104              		.thumb
 2105              		.thumb_func
 2106              		.fpu fpv4-sp-d16
 2107              		.type	rf_read_reg_byte, %function
 2108              	rf_read_reg_byte:
 2109              	.LFB295:
ARM GAS  /var/tmp//cc5p8HO2.s 			page 38


 2110              		.loc 1 351 0
 2111              		.cfi_startproc
 2112              		@ args = 0, pretend = 0, frame = 8
 2113              		@ frame_needed = 0, uses_anonymous_args = 0
 2114              	.LVL200:
 2115 0000 00B5     		push	{lr}
 2116              		.cfi_def_cfa_offset 4
 2117              		.cfi_offset 14, -4
 2118 0002 83B0     		sub	sp, sp, #12
 2119              		.cfi_def_cfa_offset 16
 2120              		.loc 1 353 0
 2121 0004 0122     		movs	r2, #1
 2122 0006 0DF10701 		add	r1, sp, #7
 2123 000a FFF7FEFF 		bl	rf_read_reg
 2124              	.LVL201:
 2125              		.loc 1 355 0
 2126 000e 9DF80700 		ldrb	r0, [sp, #7]	@ zero_extendqisi2
 2127 0012 03B0     		add	sp, sp, #12
 2128              		.cfi_def_cfa_offset 4
 2129              		@ sp needed
 2130 0014 5DF804FB 		ldr	pc, [sp], #4
 2131              		.cfi_endproc
 2132              	.LFE295:
 2133              		.size	rf_read_reg_byte, .-rf_read_reg_byte
 2134              		.text
 2135              	.Letext0:
 2136              		.file 2 "/usr/local/gcc_arm/gcc-arm-none-eabi-6-2017-q2-update/arm-none-eabi/include/machine/_defa
 2137              		.file 3 "/usr/local/gcc_arm/gcc-arm-none-eabi-6-2017-q2-update/arm-none-eabi/include/sys/_stdint.h
 2138              		.file 4 "/usr/local/gcc_arm/gcc-arm-none-eabi-6-2017-q2-update/lib/gcc/arm-none-eabi/6.3.1/include
 2139              		.file 5 "ChibiOS_3.0.2/os/rt/ports/ARMCMx/compilers/GCC/chtypes.h"
 2140              		.file 6 "ChibiOS_3.0.2/os/rt/include/chsystypes.h"
 2141              		.file 7 "ChibiOS_3.0.2/os/rt/include/chschd.h"
 2142              		.file 8 "ChibiOS_3.0.2/os/ext/CMSIS/include/core_cm4.h"
 2143              		.file 9 "ChibiOS_3.0.2/os/ext/CMSIS/ST/system_stm32f4xx.h"
 2144              		.file 10 "ChibiOS_3.0.2/os/ext/CMSIS/ST/stm32f407xx.h"
 2145              		.file 11 "ChibiOS_3.0.2/os/rt/ports/ARMCMx/chcore.h"
 2146              		.file 12 "ChibiOS_3.0.2/os/rt/ports/ARMCMx/chcore_v7m.h"
 2147              		.file 13 "ChibiOS_3.0.2/os/rt/include/chtm.h"
 2148              		.file 14 "ChibiOS_3.0.2/os/rt/include/chsem.h"
 2149              		.file 15 "ChibiOS_3.0.2/os/rt/include/chmtx.h"
 2150              		.file 16 "ChibiOS_3.0.2/os/rt/include/chregistry.h"
 2151              		.file 17 "ChibiOS_3.0.2/os/rt/include/chevents.h"
 2152              		.file 18 "ChibiOS_3.0.2/os/rt/include/chqueues.h"
 2153              		.file 19 "./datatypes.h"
 2154              		.file 20 "./conf_general.h"
 2155              		.file 21 "ChibiOS_3.0.2/os/hal/ports/STM32/STM32F4xx/stm32_dma.h"
 2156              		.file 22 "ChibiOS_3.0.2/os/hal/ports/STM32/LLD/GPIOv2/pal_lld.h"
 2157              		.file 23 "ChibiOS_3.0.2/os/hal/include/can.h"
 2158              		.file 24 "ChibiOS_3.0.2/os/hal/ports/STM32/LLD/can_lld.h"
 2159              		.file 25 "ChibiOS_3.0.2/os/hal/include/i2c.h"
 2160              		.file 26 "ChibiOS_3.0.2/os/hal/ports/STM32/LLD/I2Cv1/i2c_lld.h"
 2161              		.file 27 "ChibiOS_3.0.2/os/hal/include/icu.h"
 2162              		.file 28 "ChibiOS_3.0.2/os/hal/ports/STM32/LLD/TIMv1/icu_lld.h"
 2163              		.file 29 "ChibiOS_3.0.2/os/hal/ports/STM32/LLD/TIMv1/stm32_tim.h"
 2164              		.file 30 "ChibiOS_3.0.2/os/hal/include/spi.h"
 2165              		.file 31 "ChibiOS_3.0.2/os/hal/ports/STM32/LLD/SPIv1/spi_lld.h"
 2166              		.file 32 "ChibiOS_3.0.2/os/hal/include/uart.h"
ARM GAS  /var/tmp//cc5p8HO2.s 			page 39


 2167              		.file 33 "ChibiOS_3.0.2/os/hal/ports/STM32/LLD/USARTv1/uart_lld.h"
 2168              		.file 34 "ChibiOS_3.0.2/os/hal/include/usb.h"
 2169              		.file 35 "ChibiOS_3.0.2/os/hal/ports/STM32/LLD/OTGv1/usb_lld.h"
 2170              		.file 36 "ChibiOS_3.0.2/os/hal/ports/STM32/LLD/OTGv1/stm32_otg.h"
 2171              		.file 37 "nrf/spi_sw.h"