ARM GAS  C:\Users\Grillmo\AppData\Local\Temp\cc4IUMAe.s 			page 1


   1              		.cpu cortex-m4
   2              		.eabi_attribute 27, 1
   3              		.eabi_attribute 28, 1
   4              		.eabi_attribute 20, 1
   5              		.eabi_attribute 21, 1
   6              		.eabi_attribute 23, 3
   7              		.eabi_attribute 24, 1
   8              		.eabi_attribute 25, 1
   9              		.eabi_attribute 26, 1
  10              		.eabi_attribute 30, 2
  11              		.eabi_attribute 34, 1
  12              		.eabi_attribute 18, 4
  13              		.file	"rfhelp.c"
  14              		.text
  15              	.Ltext0:
  16              		.cfi_sections	.debug_frame
  17              		.section	.text.rfhelp_init,"ax",%progbits
  18              		.align	1
  19              		.p2align 4,,15
  20              		.global	rfhelp_init
  21              		.syntax unified
  22              		.thumb
  23              		.thumb_func
  24              		.fpu fpv4-sp-d16
  25              		.type	rfhelp_init, %function
  26              	rfhelp_init:
  27              	.LFB256:
  28              		.file 1 "nrf/rfhelp.c"
  29              		.loc 1 45 0
  30              		.cfi_startproc
  31              		@ args = 0, pretend = 0, frame = 16
  32              		@ frame_needed = 0, uses_anonymous_args = 0
  33 0000 70B5     		push	{r4, r5, r6, lr}
  34              		.cfi_def_cfa_offset 16
  35              		.cfi_offset 4, -16
  36              		.cfi_offset 5, -12
  37              		.cfi_offset 6, -8
  38              		.cfi_offset 14, -4
  39              		.loc 1 46 0
  40 0002 2748     		ldr	r0, .L9
  41              		.loc 1 50 0
  42 0004 274E     		ldr	r6, .L9+4
  43              		.loc 1 45 0
  44 0006 84B0     		sub	sp, sp, #16
  45              		.cfi_def_cfa_offset 32
  46              		.loc 1 50 0
  47 0008 0324     		movs	r4, #3
  48              		.loc 1 46 0
  49 000a FFF7FEFF 		bl	chMtxObjectInit
  50              	.LVL0:
  51              		.loc 1 47 0
  52 000e FFF7FEFF 		bl	rf_init
  53              	.LVL1:
  54              		.loc 1 59 0
  55 0012 2246     		mov	r2, r4
  56 0014 01A9     		add	r1, sp, #4
  57 0016 1020     		movs	r0, #16
ARM GAS  C:\Users\Grillmo\AppData\Local\Temp\cc4IUMAe.s 			page 2


  58              		.loc 1 50 0
  59 0018 3460     		str	r4, [r6]
  60              		.loc 1 59 0
  61 001a FFF7FEFF 		bl	rf_read_reg
  62              	.LVL2:
  63              		.loc 1 60 0
  64 001e 224B     		ldr	r3, .L9+8
  65 0020 1B68     		ldr	r3, [r3]
  66 0022 ADF80830 		strh	r3, [sp, #8]	@ movhi
  67              		.loc 1 61 0
  68 0026 2246     		mov	r2, r4
  69              		.loc 1 60 0
  70 0028 1B0C     		lsrs	r3, r3, #16
  71              		.loc 1 61 0
  72 002a 02A9     		add	r1, sp, #8
  73 002c 1020     		movs	r0, #16
  74              		.loc 1 60 0
  75 002e 8DF80A30 		strb	r3, [sp, #10]
  76              		.loc 1 61 0
  77 0032 FFF7FEFF 		bl	rf_write_reg
  78              	.LVL3:
  79              		.loc 1 63 0
  80 0036 2246     		mov	r2, r4
  81 0038 03A9     		add	r1, sp, #12
  82 003a 1020     		movs	r0, #16
  83 003c FFF7FEFF 		bl	rf_read_reg
  84              	.LVL4:
  85              		.loc 1 64 0
  86 0040 2246     		mov	r2, r4
  87 0042 01A9     		add	r1, sp, #4
  88 0044 1020     		movs	r0, #16
  89 0046 FFF7FEFF 		bl	rf_write_reg
  90              	.LVL5:
  91              		.loc 1 66 0
  92 004a 2246     		mov	r2, r4
  93 004c 03A9     		add	r1, sp, #12
  94 004e 02A8     		add	r0, sp, #8
  95 0050 FFF7FEFF 		bl	memcmp
  96              	.LVL6:
  97 0054 F8B9     		cbnz	r0, .L8
  98 0056 154D     		ldr	r5, .L9+12
  99 0058 0A24     		movs	r4, #10
 100              	.L4:
 101              	.LVL7:
 102              	.LBB2:
 103              		.loc 1 72 0 discriminator 3
 104 005a 2946     		mov	r1, r5
 105 005c 2046     		mov	r0, r4
 106 005e 3268     		ldr	r2, [r6]
 107 0060 0134     		adds	r4, r4, #1
 108              	.LVL8:
 109 0062 FFF7FEFF 		bl	rf_read_reg
 110              	.LVL9:
 111              		.loc 1 71 0 discriminator 3
 112 0066 102C     		cmp	r4, #16
 113 0068 05F10505 		add	r5, r5, #5
 114 006c F5D1     		bne	.L4
ARM GAS  C:\Users\Grillmo\AppData\Local\Temp\cc4IUMAe.s 			page 3


 115              	.LBE2:
 116              		.loc 1 76 0
 117 006e 2046     		mov	r0, r4
 118 0070 3268     		ldr	r2, [r6]
 119 0072 0F49     		ldr	r1, .L9+16
 120 0074 FFF7FEFF 		bl	rf_read_reg
 121              	.LVL10:
 122              		.loc 1 77 0
 123 0078 3268     		ldr	r2, [r6]
 124 007a 0D49     		ldr	r1, .L9+16
 125 007c 0B48     		ldr	r0, .L9+12
 126 007e FFF7FEFF 		bl	memcmp
 127              	.LVL11:
 128 0082 0C49     		ldr	r1, .L9+20
 129              		.loc 1 82 0
 130 0084 0C4A     		ldr	r2, .L9+24
 131              		.loc 1 77 0
 132 0086 B0FA80F3 		clz	r3, r0
 133 008a 5B09     		lsrs	r3, r3, #5
 134              		.loc 1 82 0
 135 008c 0120     		movs	r0, #1
 136              		.loc 1 77 0
 137 008e 0B70     		strb	r3, [r1]
 138              		.loc 1 82 0
 139 0090 1070     		strb	r0, [r2]
 140              		.loc 1 85 0
 141 0092 04B0     		add	sp, sp, #16
 142              		.cfi_remember_state
 143              		.cfi_def_cfa_offset 16
 144              		@ sp needed
 145 0094 70BD     		pop	{r4, r5, r6, pc}
 146              	.L8:
 147              		.cfi_restore_state
 148              		.loc 1 67 0
 149 0096 FFF7FEFF 		bl	rf_stop
 150              	.LVL12:
 151              		.loc 1 68 0
 152 009a 0020     		movs	r0, #0
 153              		.loc 1 85 0
 154 009c 04B0     		add	sp, sp, #16
 155              		.cfi_def_cfa_offset 16
 156              		@ sp needed
 157 009e 70BD     		pop	{r4, r5, r6, pc}
 158              	.L10:
 159              		.align	2
 160              	.L9:
 161 00a0 00000000 		.word	.LANCHOR0
 162 00a4 00000000 		.word	.LANCHOR1
 163 00a8 00000000 		.word	.LANCHOR2
 164 00ac 00000000 		.word	.LANCHOR3
 165 00b0 00000000 		.word	.LANCHOR4
 166 00b4 00000000 		.word	.LANCHOR5
 167 00b8 00000000 		.word	.LANCHOR6
 168              		.cfi_endproc
 169              	.LFE256:
 170              		.size	rfhelp_init, .-rfhelp_init
 171              		.section	.text.rfhelp_stop,"ax",%progbits
ARM GAS  C:\Users\Grillmo\AppData\Local\Temp\cc4IUMAe.s 			page 4


 172              		.align	1
 173              		.p2align 4,,15
 174              		.global	rfhelp_stop
 175              		.syntax unified
 176              		.thumb
 177              		.thumb_func
 178              		.fpu fpv4-sp-d16
 179              		.type	rfhelp_stop, %function
 180              	rfhelp_stop:
 181              	.LFB257:
 182              		.loc 1 87 0
 183              		.cfi_startproc
 184              		@ args = 0, pretend = 0, frame = 0
 185              		@ frame_needed = 0, uses_anonymous_args = 0
 186 0000 08B5     		push	{r3, lr}
 187              		.cfi_def_cfa_offset 8
 188              		.cfi_offset 3, -8
 189              		.cfi_offset 14, -4
 190              		.loc 1 88 0
 191 0002 FFF7FEFF 		bl	rf_stop
 192              	.LVL13:
 193              		.loc 1 89 0
 194 0006 024B     		ldr	r3, .L13
 195 0008 0022     		movs	r2, #0
 196 000a 1A70     		strb	r2, [r3]
 197 000c 08BD     		pop	{r3, pc}
 198              	.L14:
 199 000e 00BF     		.align	2
 200              	.L13:
 201 0010 00000000 		.word	.LANCHOR6
 202              		.cfi_endproc
 203              	.LFE257:
 204              		.size	rfhelp_stop, .-rfhelp_stop
 205              		.section	.text.rfhelp_restart,"ax",%progbits
 206              		.align	1
 207              		.p2align 4,,15
 208              		.global	rfhelp_restart
 209              		.syntax unified
 210              		.thumb
 211              		.thumb_func
 212              		.fpu fpv4-sp-d16
 213              		.type	rfhelp_restart, %function
 214              	rfhelp_restart:
 215              	.LFB259:
 216              		.loc 1 103 0
 217              		.cfi_startproc
 218              		@ args = 0, pretend = 0, frame = 0
 219              		@ frame_needed = 0, uses_anonymous_args = 0
 220 0000 F8B5     		push	{r3, r4, r5, r6, r7, lr}
 221              		.cfi_def_cfa_offset 24
 222              		.cfi_offset 3, -24
 223              		.cfi_offset 4, -20
 224              		.cfi_offset 5, -16
 225              		.cfi_offset 6, -12
 226              		.cfi_offset 7, -8
 227              		.cfi_offset 14, -4
 228              		.loc 1 104 0
ARM GAS  C:\Users\Grillmo\AppData\Local\Temp\cc4IUMAe.s 			page 5


 229 0002 2B4E     		ldr	r6, .L17
 230              		.loc 1 114 0
 231 0004 2B4C     		ldr	r4, .L17+4
 232              		.loc 1 128 0
 233 0006 2C4D     		ldr	r5, .L17+8
 234              		.loc 1 131 0
 235 0008 2C4F     		ldr	r7, .L17+12
 236              		.loc 1 104 0
 237 000a 3046     		mov	r0, r6
 238 000c FFF7FEFF 		bl	chMtxLock
 239              	.LVL14:
 240              		.loc 1 106 0
 241 0010 FFF7FEFF 		bl	rf_power_down
 242              	.LVL15:
 243              		.loc 1 111 0
 244 0014 0021     		movs	r1, #0
 245 0016 0220     		movs	r0, #2
 246 0018 FFF7FEFF 		bl	rf_write_reg_byte
 247              	.LVL16:
 248              		.loc 1 112 0
 249 001c 0021     		movs	r1, #0
 250 001e 1C20     		movs	r0, #28
 251 0020 FFF7FEFF 		bl	rf_write_reg_byte
 252              	.LVL17:
 253              		.loc 1 114 0
 254 0024 A078     		ldrb	r0, [r4, #2]	@ zero_extendqisi2
 255 0026 FFF7FEFF 		bl	rf_set_crc_type
 256              	.LVL18:
 257              		.loc 1 115 0
 258 002a 2079     		ldrb	r0, [r4, #4]	@ zero_extendqisi2
 259 002c FFF7FEFF 		bl	rf_set_retr_retries
 260              	.LVL19:
 261              		.loc 1 116 0
 262 0030 E078     		ldrb	r0, [r4, #3]	@ zero_extendqisi2
 263 0032 FFF7FEFF 		bl	rf_set_retr_delay
 264              	.LVL20:
 265              		.loc 1 117 0
 266 0036 6078     		ldrb	r0, [r4, #1]	@ zero_extendqisi2
 267 0038 FFF7FEFF 		bl	rf_set_power
 268              	.LVL21:
 269              		.loc 1 118 0
 270 003c 2078     		ldrb	r0, [r4]	@ zero_extendqisi2
 271 003e FFF7FEFF 		bl	rf_set_speed
 272              	.LVL22:
 273              		.loc 1 119 0
 274 0042 0020     		movs	r0, #0
 275 0044 FFF7FEFF 		bl	rf_set_address_width
 276              	.LVL23:
 277              		.loc 1 120 0
 278 0048 6079     		ldrb	r0, [r4, #5]	@ zero_extendqisi2
 279 004a 00F51660 		add	r0, r0, #2400
 280 004e FFF7FEFF 		bl	rf_set_frequency
 281              	.LVL24:
 282              		.loc 1 121 0
 283 0052 0520     		movs	r0, #5
 284 0054 FFF7FEFF 		bl	rf_enable_features
 285              	.LVL25:
ARM GAS  C:\Users\Grillmo\AppData\Local\Temp\cc4IUMAe.s 			page 6


 286              		.loc 1 123 0
 287 0058 0120     		movs	r0, #1
 288 005a FFF7FEFF 		bl	rf_enable_pipe_autoack
 289              	.LVL26:
 290              		.loc 1 124 0
 291 005e 0120     		movs	r0, #1
 292 0060 FFF7FEFF 		bl	rf_enable_pipe_address
 293              	.LVL27:
 294              		.loc 1 125 0
 295 0064 0120     		movs	r0, #1
 296 0066 FFF7FEFF 		bl	rf_enable_pipe_dlp
 297              	.LVL28:
 298              		.loc 1 127 0
 299 006a 34F8063F 		ldrh	r3, [r4, #6]!	@ unaligned
 300 006e 1448     		ldr	r0, .L17+16
 301              		.loc 1 129 0
 302 0070 DFF850E0 		ldr	lr, .L17+20
 303              		.loc 1 127 0
 304 0074 A278     		ldrb	r2, [r4, #2]	@ zero_extendqisi2
 305 0076 0380     		strh	r3, [r0]	@ unaligned
 306              		.loc 1 131 0
 307 0078 3968     		ldr	r1, [r7]
 308              		.loc 1 127 0
 309 007a 8270     		strb	r2, [r0, #2]
 310              		.loc 1 128 0
 311 007c AA70     		strb	r2, [r5, #2]
 312              		.loc 1 129 0
 313 007e 0122     		movs	r2, #1
 314 0080 8EF80020 		strb	r2, [lr]
 315              		.loc 1 128 0
 316 0084 2B80     		strh	r3, [r5]	@ unaligned
 317              		.loc 1 131 0
 318 0086 FFF7FEFF 		bl	rf_set_tx_addr
 319              	.LVL29:
 320              		.loc 1 132 0
 321 008a 3A68     		ldr	r2, [r7]
 322 008c 2946     		mov	r1, r5
 323 008e 0020     		movs	r0, #0
 324 0090 FFF7FEFF 		bl	rf_set_rx_addr
 325              	.LVL30:
 326              		.loc 1 134 0
 327 0094 FFF7FEFF 		bl	rf_power_up
 328              	.LVL31:
 329              		.loc 1 135 0
 330 0098 FFF7FEFF 		bl	rf_mode_rx
 331              	.LVL32:
 332              		.loc 1 136 0
 333 009c FFF7FEFF 		bl	rf_flush_all
 334              	.LVL33:
 335              		.loc 1 137 0
 336 00a0 FFF7FEFF 		bl	rf_clear_irq
 337              	.LVL34:
 338              		.loc 1 139 0
 339 00a4 3046     		mov	r0, r6
 340              		.loc 1 140 0
 341 00a6 BDE8F840 		pop	{r3, r4, r5, r6, r7, lr}
 342              		.cfi_restore 14
ARM GAS  C:\Users\Grillmo\AppData\Local\Temp\cc4IUMAe.s 			page 7


 343              		.cfi_restore 7
 344              		.cfi_restore 6
 345              		.cfi_restore 5
 346              		.cfi_restore 4
 347              		.cfi_restore 3
 348              		.cfi_def_cfa_offset 0
 349              		.loc 1 139 0
 350 00aa FFF7FEBF 		b	chMtxUnlock
 351              	.LVL35:
 352              	.L18:
 353 00ae 00BF     		.align	2
 354              	.L17:
 355 00b0 00000000 		.word	.LANCHOR0
 356 00b4 00000000 		.word	.LANCHOR7
 357 00b8 00000000 		.word	.LANCHOR3
 358 00bc 00000000 		.word	.LANCHOR1
 359 00c0 00000000 		.word	.LANCHOR4
 360 00c4 00000000 		.word	.LANCHOR5
 361              		.cfi_endproc
 362              	.LFE259:
 363              		.size	rfhelp_restart, .-rfhelp_restart
 364              		.section	.text.rfhelp_update_conf,"ax",%progbits
 365              		.align	1
 366              		.p2align 4,,15
 367              		.global	rfhelp_update_conf
 368              		.syntax unified
 369              		.thumb
 370              		.thumb_func
 371              		.fpu fpv4-sp-d16
 372              		.type	rfhelp_update_conf, %function
 373              	rfhelp_update_conf:
 374              	.LFB258:
 375              		.loc 1 92 0
 376              		.cfi_startproc
 377              		@ args = 0, pretend = 0, frame = 0
 378              		@ frame_needed = 0, uses_anonymous_args = 0
 379              		@ link register save eliminated.
 380              	.LVL36:
 381 0000 0246     		mov	r2, r0
 382              		.loc 1 93 0
 383 0002 074B     		ldr	r3, .L23
 384 0004 5168     		ldr	r1, [r2, #4]	@ unaligned
 385 0006 0068     		ldr	r0, [r0]	@ unaligned
 386              	.LVL37:
 387              		.loc 1 92 0
 388 0008 30B4     		push	{r4, r5}
 389              		.cfi_def_cfa_offset 8
 390              		.cfi_offset 4, -8
 391              		.cfi_offset 5, -4
 392              		.loc 1 95 0
 393 000a 064D     		ldr	r5, .L23+4
 394              		.loc 1 93 0
 395 000c 1489     		ldrh	r4, [r2, #8]	@ unaligned
 396              		.loc 1 95 0
 397 000e 2A78     		ldrb	r2, [r5]	@ zero_extendqisi2
 398              	.LVL38:
 399              		.loc 1 93 0
ARM GAS  C:\Users\Grillmo\AppData\Local\Temp\cc4IUMAe.s 			page 8


 400 0010 03C3     		stmia	r3!, {r0, r1}
 401 0012 1C80     		strh	r4, [r3]	@ unaligned
 402              		.loc 1 95 0
 403 0014 0AB9     		cbnz	r2, .L22
 404              		.loc 1 98 0
 405 0016 30BC     		pop	{r4, r5}
 406              		.cfi_remember_state
 407              		.cfi_restore 5
 408              		.cfi_restore 4
 409              		.cfi_def_cfa_offset 0
 410 0018 7047     		bx	lr
 411              	.L22:
 412              		.cfi_restore_state
 413 001a 30BC     		pop	{r4, r5}
 414              		.cfi_restore 5
 415              		.cfi_restore 4
 416              		.cfi_def_cfa_offset 0
 417              		.loc 1 96 0
 418 001c FFF7FEBF 		b	rfhelp_restart
 419              	.LVL39:
 420              	.L24:
 421              		.align	2
 422              	.L23:
 423 0020 00000000 		.word	.LANCHOR7
 424 0024 00000000 		.word	.LANCHOR6
 425              		.cfi_endproc
 426              	.LFE258:
 427              		.size	rfhelp_update_conf, .-rfhelp_update_conf
 428              		.section	.text.rfhelp_send_data,"ax",%progbits
 429              		.align	1
 430              		.p2align 4,,15
 431              		.global	rfhelp_send_data
 432              		.syntax unified
 433              		.thumb
 434              		.thumb_func
 435              		.fpu fpv4-sp-d16
 436              		.type	rfhelp_send_data, %function
 437              	rfhelp_send_data:
 438              	.LFB260:
 439              		.loc 1 156 0
 440              		.cfi_startproc
 441              		@ args = 0, pretend = 0, frame = 0
 442              		@ frame_needed = 0, uses_anonymous_args = 0
 443              	.LVL40:
 444 0000 F8B5     		push	{r3, r4, r5, r6, r7, lr}
 445              		.cfi_def_cfa_offset 24
 446              		.cfi_offset 3, -24
 447              		.cfi_offset 4, -20
 448              		.cfi_offset 5, -16
 449              		.cfi_offset 6, -12
 450              		.cfi_offset 7, -8
 451              		.cfi_offset 14, -4
 452              		.loc 1 167 0
 453 0002 254E     		ldr	r6, .L50
 454              		.loc 1 156 0
 455 0004 0446     		mov	r4, r0
 456              		.loc 1 160 0
ARM GAS  C:\Users\Grillmo\AppData\Local\Temp\cc4IUMAe.s 			page 9


 457 0006 2548     		ldr	r0, .L50+4
 458              	.LVL41:
 459              		.loc 1 156 0
 460 0008 0D46     		mov	r5, r1
 461 000a 1746     		mov	r7, r2
 462              		.loc 1 160 0
 463 000c FFF7FEFF 		bl	chMtxLock
 464              	.LVL42:
 465              		.loc 1 162 0
 466 0010 FFF7FEFF 		bl	rf_mode_tx
 467              	.LVL43:
 468              		.loc 1 163 0
 469 0014 FFF7FEFF 		bl	rf_clear_irq
 470              	.LVL44:
 471              		.loc 1 164 0
 472 0018 FFF7FEFF 		bl	rf_flush_all
 473              	.LVL45:
 474              		.loc 1 167 0
 475 001c 3078     		ldrb	r0, [r6]	@ zero_extendqisi2
 476 001e 10BB     		cbnz	r0, .L26
 477              		.loc 1 167 0 is_stmt 0 discriminator 1
 478 0020 87BB     		cbnz	r7, .L46
 479              	.L27:
 480              		.loc 1 174 0 is_stmt 1
 481 0022 2946     		mov	r1, r5
 482 0024 2046     		mov	r0, r4
 483 0026 FFF7FEFF 		bl	rf_write_tx_payload_no_ack
 484              	.LVL46:
 485              	.L29:
 486              		.loc 1 156 0
 487 002a 3C25     		movs	r5, #60
 488              	.LVL47:
 489 002c 03E0     		b	.L32
 490              	.LVL48:
 491              	.L49:
 492              	.LBB3:
 493              		.loc 1 186 0
 494 002e E306     		lsls	r3, r4, #27
 495 0030 20D4     		bmi	.L47
 496              		.loc 1 190 0
 497 0032 013D     		subs	r5, r5, #1
 498              	.LVL49:
 499 0034 23D0     		beq	.L48
 500              	.LVL50:
 501              	.L32:
 502              		.loc 1 178 0
 503 0036 FFF7FEFF 		bl	rf_status
 504              	.LVL51:
 505 003a 0446     		mov	r4, r0
 506              	.LVL52:
 507              		.loc 1 180 0
 508 003c 0A20     		movs	r0, #10
 509              	.LVL53:
 510 003e FFF7FEFF 		bl	chThdSleep
 511              	.LVL54:
 512              		.loc 1 183 0
 513 0042 A206     		lsls	r2, r4, #26
ARM GAS  C:\Users\Grillmo\AppData\Local\Temp\cc4IUMAe.s 			page 10


 514 0044 F3D5     		bpl	.L49
 515              		.loc 1 184 0
 516 0046 0024     		movs	r4, #0
 517              	.LVL55:
 518              	.L30:
 519              	.LBE3:
 520              		.loc 1 197 0
 521 0048 3078     		ldrb	r0, [r6]	@ zero_extendqisi2
 522 004a 28B9     		cbnz	r0, .L33
 523              		.loc 1 197 0 is_stmt 0 discriminator 1
 524 004c 27B1     		cbz	r7, .L33
 525              		.loc 1 198 0 is_stmt 1
 526 004e 144B     		ldr	r3, .L50+8
 527 0050 1449     		ldr	r1, .L50+12
 528 0052 1A68     		ldr	r2, [r3]
 529 0054 FFF7FEFF 		bl	rf_set_rx_addr
 530              	.LVL56:
 531              	.L33:
 532              		.loc 1 201 0
 533 0058 FFF7FEFF 		bl	rf_mode_rx
 534              	.LVL57:
 535              		.loc 1 203 0
 536 005c 0F48     		ldr	r0, .L50+4
 537 005e FFF7FEFF 		bl	chMtxUnlock
 538              	.LVL58:
 539              		.loc 1 206 0
 540 0062 2046     		mov	r0, r4
 541 0064 F8BD     		pop	{r3, r4, r5, r6, r7, pc}
 542              	.LVL59:
 543              	.L26:
 544              		.loc 1 171 0
 545 0066 002F     		cmp	r7, #0
 546 0068 DBD0     		beq	.L27
 547              		.loc 1 172 0
 548 006a 2946     		mov	r1, r5
 549 006c 2046     		mov	r0, r4
 550 006e FFF7FEFF 		bl	rf_write_tx_payload
 551              	.LVL60:
 552 0072 DAE7     		b	.L29
 553              	.LVL61:
 554              	.L47:
 555              	.LBB4:
 556              		.loc 1 187 0
 557 0074 FFF7FEFF 		bl	rf_clear_maxrt_irq
 558              	.LVL62:
 559              		.loc 1 188 0
 560 0078 4FF0FF34 		mov	r4, #-1
 561              	.LVL63:
 562              		.loc 1 189 0
 563 007c E4E7     		b	.L30
 564              	.LVL64:
 565              	.L48:
 566              		.loc 1 191 0
 567 007e 6FF00104 		mvn	r4, #1
 568              	.LVL65:
 569 0082 E1E7     		b	.L30
 570              	.LVL66:
ARM GAS  C:\Users\Grillmo\AppData\Local\Temp\cc4IUMAe.s 			page 11


 571              	.L46:
 572              	.LBE4:
 573              		.loc 1 168 0
 574 0084 064B     		ldr	r3, .L50+8
 575 0086 0849     		ldr	r1, .L50+16
 576 0088 1A68     		ldr	r2, [r3]
 577 008a FFF7FEFF 		bl	rf_set_rx_addr
 578              	.LVL67:
 579              		.loc 1 172 0
 580 008e 2946     		mov	r1, r5
 581 0090 2046     		mov	r0, r4
 582 0092 FFF7FEFF 		bl	rf_write_tx_payload
 583              	.LVL68:
 584 0096 C8E7     		b	.L29
 585              	.L51:
 586              		.align	2
 587              	.L50:
 588 0098 00000000 		.word	.LANCHOR5
 589 009c 00000000 		.word	.LANCHOR0
 590 00a0 00000000 		.word	.LANCHOR1
 591 00a4 00000000 		.word	.LANCHOR3
 592 00a8 00000000 		.word	.LANCHOR4
 593              		.cfi_endproc
 594              	.LFE260:
 595              		.size	rfhelp_send_data, .-rfhelp_send_data
 596              		.section	.text.rfhelp_send_data_crc,"ax",%progbits
 597              		.align	1
 598              		.p2align 4,,15
 599              		.global	rfhelp_send_data_crc
 600              		.syntax unified
 601              		.thumb
 602              		.thumb_func
 603              		.fpu fpv4-sp-d16
 604              		.type	rfhelp_send_data_crc, %function
 605              	rfhelp_send_data_crc:
 606              	.LFB261:
 607              		.loc 1 224 0
 608              		.cfi_startproc
 609              		@ args = 0, pretend = 0, frame = 0
 610              		@ frame_needed = 1, uses_anonymous_args = 0
 611              	.LVL69:
 612 0000 F8B5     		push	{r3, r4, r5, r6, r7, lr}
 613              		.cfi_def_cfa_offset 24
 614              		.cfi_offset 3, -24
 615              		.cfi_offset 4, -20
 616              		.cfi_offset 5, -16
 617              		.cfi_offset 6, -12
 618              		.cfi_offset 7, -8
 619              		.cfi_offset 14, -4
 620              		.loc 1 225 0
 621 0002 01F10903 		add	r3, r1, #9
 622 0006 23F00703 		bic	r3, r3, #7
 623              		.loc 1 224 0
 624 000a 00AF     		add	r7, sp, #0
 625              		.cfi_def_cfa_register 7
 626              		.loc 1 225 0
 627 000c ADEB030D 		sub	sp, sp, r3
ARM GAS  C:\Users\Grillmo\AppData\Local\Temp\cc4IUMAe.s 			page 12


 628              		.loc 1 224 0
 629 0010 0C46     		mov	r4, r1
 630 0012 0646     		mov	r6, r0
 631              		.loc 1 226 0
 632 0014 FFF7FEFF 		bl	crc16
 633              	.LVL70:
 634              		.loc 1 228 0
 635 0018 2246     		mov	r2, r4
 636              		.loc 1 226 0
 637 001a 0546     		mov	r5, r0
 638              		.loc 1 228 0
 639 001c 3146     		mov	r1, r6
 640 001e 6846     		mov	r0, sp
 641 0020 FFF7FEFF 		bl	memcpy
 642              	.LVL71:
 643              		.loc 1 230 0
 644 0024 0DEB0403 		add	r3, sp, r4
 645              		.loc 1 232 0
 646 0028 054A     		ldr	r2, .L54
 647              		.loc 1 229 0
 648 002a 2E0A     		lsrs	r6, r5, #8
 649              	.LVL72:
 650 002c 0DF80460 		strb	r6, [sp, r4]
 651              		.loc 1 225 0
 652 0030 A11C     		adds	r1, r4, #2
 653              	.LVL73:
 654              		.loc 1 232 0
 655 0032 6846     		mov	r0, sp
 656 0034 527A     		ldrb	r2, [r2, #9]	@ zero_extendqisi2
 657              		.loc 1 230 0
 658 0036 5D70     		strb	r5, [r3, #1]
 659              		.loc 1 232 0
 660 0038 FFF7FEFF 		bl	rfhelp_send_data
 661              	.LVL74:
 662              		.loc 1 233 0
 663 003c BD46     		mov	sp, r7
 664              		.cfi_def_cfa_register 13
 665              	.LVL75:
 666              		@ sp needed
 667 003e F8BD     		pop	{r3, r4, r5, r6, r7, pc}
 668              	.LVL76:
 669              	.L55:
 670              		.align	2
 671              	.L54:
 672 0040 00000000 		.word	.LANCHOR7
 673              		.cfi_endproc
 674              	.LFE261:
 675              		.size	rfhelp_send_data_crc, .-rfhelp_send_data_crc
 676              		.section	.text.rfhelp_read_rx_data,"ax",%progbits
 677              		.align	1
 678              		.p2align 4,,15
 679              		.global	rfhelp_read_rx_data
 680              		.syntax unified
 681              		.thumb
 682              		.thumb_func
 683              		.fpu fpv4-sp-d16
 684              		.type	rfhelp_read_rx_data, %function
ARM GAS  C:\Users\Grillmo\AppData\Local\Temp\cc4IUMAe.s 			page 13


 685              	rfhelp_read_rx_data:
 686              	.LFB262:
 687              		.loc 1 253 0
 688              		.cfi_startproc
 689              		@ args = 0, pretend = 0, frame = 0
 690              		@ frame_needed = 0, uses_anonymous_args = 0
 691              	.LVL77:
 692 0000 F8B5     		push	{r3, r4, r5, r6, r7, lr}
 693              		.cfi_def_cfa_offset 24
 694              		.cfi_offset 3, -24
 695              		.cfi_offset 4, -20
 696              		.cfi_offset 5, -16
 697              		.cfi_offset 6, -12
 698              		.cfi_offset 7, -8
 699              		.cfi_offset 14, -4
 700              		.loc 1 253 0
 701 0002 0746     		mov	r7, r0
 702              		.loc 1 256 0
 703 0004 1648     		ldr	r0, .L65
 704              	.LVL78:
 705              		.loc 1 253 0
 706 0006 0C46     		mov	r4, r1
 707 0008 1646     		mov	r6, r2
 708              		.loc 1 256 0
 709 000a FFF7FEFF 		bl	chMtxLock
 710              	.LVL79:
 711              		.loc 1 258 0
 712 000e FFF7FEFF 		bl	rf_status
 713              	.LVL80:
 714              		.loc 1 259 0
 715 0012 C0F34205 		ubfx	r5, r0, #1, #3
 716              	.LVL81:
 717              		.loc 1 261 0
 718 0016 072D     		cmp	r5, #7
 719 0018 1ED0     		beq	.L60
 720              		.loc 1 262 0
 721 001a FFF7FEFF 		bl	rf_get_payload_width
 722              	.LVL82:
 723 001e 2060     		str	r0, [r4]
 724              		.loc 1 263 0
 725 0020 0EB1     		cbz	r6, .L58
 726              		.loc 1 264 0
 727 0022 3560     		str	r5, [r6]
 728 0024 2068     		ldr	r0, [r4]
 729              	.L58:
 730              		.loc 1 266 0
 731 0026 2028     		cmp	r0, #32
 732 0028 11D8     		bhi	.L59
 733              		.loc 1 267 0
 734 002a 0146     		mov	r1, r0
 735 002c 3846     		mov	r0, r7
 736 002e FFF7FEFF 		bl	rf_read_rx_payload
 737              	.LVL83:
 738              		.loc 1 268 0
 739 0032 FFF7FEFF 		bl	rf_clear_rx_irq
 740              	.LVL84:
 741              		.loc 1 271 0
ARM GAS  C:\Users\Grillmo\AppData\Local\Temp\cc4IUMAe.s 			page 14


 742 0036 FFF7FEFF 		bl	rf_status
 743              	.LVL85:
 744              		.loc 1 272 0
 745 003a C0F34200 		ubfx	r0, r0, #1, #3
 746              	.LVL86:
 747 003e C41F     		subs	r4, r0, #7
 748              	.LVL87:
 749 0040 18BF     		it	ne
 750 0042 0124     		movne	r4, #1
 751              	.LVL88:
 752              	.L57:
 753              		.loc 1 283 0
 754 0044 0648     		ldr	r0, .L65
 755 0046 FFF7FEFF 		bl	chMtxUnlock
 756              	.LVL89:
 757              		.loc 1 286 0
 758 004a 2046     		mov	r0, r4
 759 004c F8BD     		pop	{r3, r4, r5, r6, r7, pc}
 760              	.LVL90:
 761              	.L59:
 762              		.loc 1 278 0
 763 004e 0023     		movs	r3, #0
 764 0050 2360     		str	r3, [r4]
 765              	.LVL91:
 766              		.loc 1 279 0
 767 0052 6FF00104 		mvn	r4, #1
 768              	.LVL92:
 769 0056 F5E7     		b	.L57
 770              	.LVL93:
 771              	.L60:
 772              		.loc 1 254 0
 773 0058 4FF0FF34 		mov	r4, #-1
 774              	.LVL94:
 775 005c F2E7     		b	.L57
 776              	.L66:
 777 005e 00BF     		.align	2
 778              	.L65:
 779 0060 00000000 		.word	.LANCHOR0
 780              		.cfi_endproc
 781              	.LFE262:
 782              		.size	rfhelp_read_rx_data, .-rfhelp_read_rx_data
 783              		.section	.text.rfhelp_read_rx_data_crc,"ax",%progbits
 784              		.align	1
 785              		.p2align 4,,15
 786              		.global	rfhelp_read_rx_data_crc
 787              		.syntax unified
 788              		.thumb
 789              		.thumb_func
 790              		.fpu fpv4-sp-d16
 791              		.type	rfhelp_read_rx_data_crc, %function
 792              	rfhelp_read_rx_data_crc:
 793              	.LFB263:
 794              		.loc 1 308 0
 795              		.cfi_startproc
 796              		@ args = 0, pretend = 0, frame = 0
 797              		@ frame_needed = 0, uses_anonymous_args = 0
 798              	.LVL95:
ARM GAS  C:\Users\Grillmo\AppData\Local\Temp\cc4IUMAe.s 			page 15


 799 0000 70B5     		push	{r4, r5, r6, lr}
 800              		.cfi_def_cfa_offset 16
 801              		.cfi_offset 4, -16
 802              		.cfi_offset 5, -12
 803              		.cfi_offset 6, -8
 804              		.cfi_offset 14, -4
 805              		.loc 1 308 0
 806 0002 0C46     		mov	r4, r1
 807 0004 0646     		mov	r6, r0
 808              		.loc 1 309 0
 809 0006 FFF7FEFF 		bl	rfhelp_read_rx_data
 810              	.LVL96:
 811              		.loc 1 311 0
 812 000a 051E     		subs	r5, r0, #0
 813 000c 2168     		ldr	r1, [r4]
 814 000e 01DB     		blt	.L69
 815              		.loc 1 311 0 is_stmt 0 discriminator 1
 816 0010 0229     		cmp	r1, #2
 817 0012 03DC     		bgt	.L72
 818              	.L69:
 819              		.loc 1 319 0 is_stmt 1
 820 0014 0239     		subs	r1, r1, #2
 821 0016 2160     		str	r1, [r4]
 822              		.loc 1 322 0
 823 0018 2846     		mov	r0, r5
 824 001a 70BD     		pop	{r4, r5, r6, pc}
 825              	.LVL97:
 826              	.L72:
 827              	.LBB5:
 828              		.loc 1 312 0
 829 001c 0239     		subs	r1, r1, #2
 830 001e 3046     		mov	r0, r6
 831              	.LVL98:
 832 0020 FFF7FEFF 		bl	crc16
 833              	.LVL99:
 834              		.loc 1 314 0
 835 0024 2168     		ldr	r1, [r4]
 836 0026 0E44     		add	r6, r6, r1
 837              	.LVL100:
 838              	.LBE5:
 839              		.loc 1 319 0
 840 0028 0239     		subs	r1, r1, #2
 841              	.LBB6:
 842              		.loc 1 314 0
 843 002a 16F8022C 		ldrb	r2, [r6, #-2]	@ zero_extendqisi2
 844 002e 16F8013C 		ldrb	r3, [r6, #-1]	@ zero_extendqisi2
 845              	.LBE6:
 846              		.loc 1 319 0
 847 0032 2160     		str	r1, [r4]
 848              	.LBB7:
 849              		.loc 1 314 0
 850 0034 43EA0223 		orr	r3, r3, r2, lsl #8
 851 0038 9842     		cmp	r0, r3
 852              		.loc 1 315 0
 853 003a 18BF     		it	ne
 854 003c 6FF00205 		mvnne	r5, #2
 855              	.LVL101:
ARM GAS  C:\Users\Grillmo\AppData\Local\Temp\cc4IUMAe.s 			page 16


 856              	.LBE7:
 857              		.loc 1 322 0
 858 0040 2846     		mov	r0, r5
 859              	.LVL102:
 860 0042 70BD     		pop	{r4, r5, r6, pc}
 861              		.cfi_endproc
 862              	.LFE263:
 863              		.size	rfhelp_read_rx_data_crc, .-rfhelp_read_rx_data_crc
 864              		.section	.text.rfhelp_rf_status,"ax",%progbits
 865              		.align	1
 866              		.p2align 4,,15
 867              		.global	rfhelp_rf_status
 868              		.syntax unified
 869              		.thumb
 870              		.thumb_func
 871              		.fpu fpv4-sp-d16
 872              		.type	rfhelp_rf_status, %function
 873              	rfhelp_rf_status:
 874              	.LFB264:
 875              		.loc 1 324 0
 876              		.cfi_startproc
 877              		@ args = 0, pretend = 0, frame = 0
 878              		@ frame_needed = 0, uses_anonymous_args = 0
 879 0000 38B5     		push	{r3, r4, r5, lr}
 880              		.cfi_def_cfa_offset 16
 881              		.cfi_offset 3, -16
 882              		.cfi_offset 4, -12
 883              		.cfi_offset 5, -8
 884              		.cfi_offset 14, -4
 885              		.loc 1 325 0
 886 0002 064C     		ldr	r4, .L75
 887 0004 2046     		mov	r0, r4
 888 0006 FFF7FEFF 		bl	chMtxLock
 889              	.LVL103:
 890              		.loc 1 326 0
 891 000a FFF7FEFF 		bl	rf_status
 892              	.LVL104:
 893 000e 0546     		mov	r5, r0
 894              	.LVL105:
 895              		.loc 1 327 0
 896 0010 2046     		mov	r0, r4
 897              	.LVL106:
 898 0012 FFF7FEFF 		bl	chMtxUnlock
 899              	.LVL107:
 900              		.loc 1 330 0
 901 0016 2846     		mov	r0, r5
 902 0018 38BD     		pop	{r3, r4, r5, pc}
 903              	.LVL108:
 904              	.L76:
 905 001a 00BF     		.align	2
 906              	.L75:
 907 001c 00000000 		.word	.LANCHOR0
 908              		.cfi_endproc
 909              	.LFE264:
 910              		.size	rfhelp_rf_status, .-rfhelp_rf_status
 911              		.section	.text.rfhelp_set_tx_addr,"ax",%progbits
 912              		.align	1
ARM GAS  C:\Users\Grillmo\AppData\Local\Temp\cc4IUMAe.s 			page 17


 913              		.p2align 4,,15
 914              		.global	rfhelp_set_tx_addr
 915              		.syntax unified
 916              		.thumb
 917              		.thumb_func
 918              		.fpu fpv4-sp-d16
 919              		.type	rfhelp_set_tx_addr, %function
 920              	rfhelp_set_tx_addr:
 921              	.LFB265:
 922              		.loc 1 332 0
 923              		.cfi_startproc
 924              		@ args = 0, pretend = 0, frame = 0
 925              		@ frame_needed = 0, uses_anonymous_args = 0
 926              	.LVL109:
 927 0000 F8B5     		push	{r3, r4, r5, r6, r7, lr}
 928              		.cfi_def_cfa_offset 24
 929              		.cfi_offset 3, -24
 930              		.cfi_offset 4, -20
 931              		.cfi_offset 5, -16
 932              		.cfi_offset 6, -12
 933              		.cfi_offset 7, -8
 934              		.cfi_offset 14, -4
 935              		.loc 1 333 0
 936 0002 104E     		ldr	r6, .L79
 937              		.loc 1 334 0
 938 0004 104D     		ldr	r5, .L79+4
 939              		.loc 1 332 0
 940 0006 0C46     		mov	r4, r1
 941 0008 0746     		mov	r7, r0
 942              		.loc 1 333 0
 943 000a 3046     		mov	r0, r6
 944              	.LVL110:
 945 000c FFF7FEFF 		bl	chMtxLock
 946              	.LVL111:
 947              		.loc 1 334 0
 948 0010 3946     		mov	r1, r7
 949 0012 2246     		mov	r2, r4
 950 0014 2846     		mov	r0, r5
 951 0016 FFF7FEFF 		bl	memcpy
 952              	.LVL112:
 953              		.loc 1 335 0
 954 001a 0C4B     		ldr	r3, .L79+8
 955              		.loc 1 337 0
 956 001c 0C48     		ldr	r0, .L79+12
 957              		.loc 1 335 0
 958 001e 1C60     		str	r4, [r3]
 959              		.loc 1 337 0
 960 0020 2246     		mov	r2, r4
 961 0022 2946     		mov	r1, r5
 962 0024 FFF7FEFF 		bl	memcmp
 963              	.LVL113:
 964 0028 0A4A     		ldr	r2, .L79+16
 965 002a B0FA80F3 		clz	r3, r0
 966 002e 5B09     		lsrs	r3, r3, #5
 967              		.loc 1 339 0
 968 0030 2846     		mov	r0, r5
 969 0032 2146     		mov	r1, r4
ARM GAS  C:\Users\Grillmo\AppData\Local\Temp\cc4IUMAe.s 			page 18


 970              		.loc 1 337 0
 971 0034 1370     		strb	r3, [r2]
 972              		.loc 1 339 0
 973 0036 FFF7FEFF 		bl	rf_set_tx_addr
 974              	.LVL114:
 975              		.loc 1 340 0
 976 003a 3046     		mov	r0, r6
 977              		.loc 1 341 0
 978 003c BDE8F840 		pop	{r3, r4, r5, r6, r7, lr}
 979              		.cfi_restore 14
 980              		.cfi_restore 7
 981              		.cfi_restore 6
 982              		.cfi_restore 5
 983              		.cfi_restore 4
 984              		.cfi_restore 3
 985              		.cfi_def_cfa_offset 0
 986              	.LVL115:
 987              		.loc 1 340 0
 988 0040 FFF7FEBF 		b	chMtxUnlock
 989              	.LVL116:
 990              	.L80:
 991              		.align	2
 992              	.L79:
 993 0044 00000000 		.word	.LANCHOR0
 994 0048 00000000 		.word	.LANCHOR4
 995 004c 00000000 		.word	.LANCHOR1
 996 0050 00000000 		.word	.LANCHOR3
 997 0054 00000000 		.word	.LANCHOR5
 998              		.cfi_endproc
 999              	.LFE265:
 1000              		.size	rfhelp_set_tx_addr, .-rfhelp_set_tx_addr
 1001              		.section	.text.rfhelp_set_rx_addr,"ax",%progbits
 1002              		.align	1
 1003              		.p2align 4,,15
 1004              		.global	rfhelp_set_rx_addr
 1005              		.syntax unified
 1006              		.thumb
 1007              		.thumb_func
 1008              		.fpu fpv4-sp-d16
 1009              		.type	rfhelp_set_rx_addr, %function
 1010              	rfhelp_set_rx_addr:
 1011              	.LFB266:
 1012              		.loc 1 343 0
 1013              		.cfi_startproc
 1014              		@ args = 0, pretend = 0, frame = 0
 1015              		@ frame_needed = 0, uses_anonymous_args = 0
 1016              	.LVL117:
 1017 0000 2DE9F041 		push	{r4, r5, r6, r7, r8, lr}
 1018              		.cfi_def_cfa_offset 24
 1019              		.cfi_offset 4, -24
 1020              		.cfi_offset 5, -20
 1021              		.cfi_offset 6, -16
 1022              		.cfi_offset 7, -12
 1023              		.cfi_offset 8, -8
 1024              		.cfi_offset 14, -4
 1025              		.loc 1 344 0
 1026 0004 134E     		ldr	r6, .L83
ARM GAS  C:\Users\Grillmo\AppData\Local\Temp\cc4IUMAe.s 			page 19


 1027              		.loc 1 345 0
 1028 0006 DFF85880 		ldr	r8, .L83+12
 1029              		.loc 1 343 0
 1030 000a 0546     		mov	r5, r0
 1031              		.loc 1 344 0
 1032 000c 3046     		mov	r0, r6
 1033              	.LVL118:
 1034              		.loc 1 343 0
 1035 000e 1446     		mov	r4, r2
 1036 0010 0F46     		mov	r7, r1
 1037              		.loc 1 344 0
 1038 0012 FFF7FEFF 		bl	chMtxLock
 1039              	.LVL119:
 1040              		.loc 1 345 0
 1041 0016 05EB8500 		add	r0, r5, r5, lsl #2
 1042 001a 2246     		mov	r2, r4
 1043 001c 3946     		mov	r1, r7
 1044 001e 4044     		add	r0, r0, r8
 1045 0020 FFF7FEFF 		bl	memcpy
 1046              	.LVL120:
 1047              		.loc 1 346 0
 1048 0024 0C4B     		ldr	r3, .L83+4
 1049              		.loc 1 348 0
 1050 0026 0D49     		ldr	r1, .L83+8
 1051              		.loc 1 346 0
 1052 0028 1C60     		str	r4, [r3]
 1053              		.loc 1 348 0
 1054 002a 2246     		mov	r2, r4
 1055 002c 4046     		mov	r0, r8
 1056 002e FFF7FEFF 		bl	memcmp
 1057              	.LVL121:
 1058 0032 DFF830E0 		ldr	lr, .L83+16
 1059 0036 B0FA80F3 		clz	r3, r0
 1060 003a 5B09     		lsrs	r3, r3, #5
 1061              		.loc 1 351 0
 1062 003c 2846     		mov	r0, r5
 1063 003e 2246     		mov	r2, r4
 1064 0040 3946     		mov	r1, r7
 1065              		.loc 1 348 0
 1066 0042 8EF80030 		strb	r3, [lr]
 1067              		.loc 1 351 0
 1068 0046 FFF7FEFF 		bl	rf_set_rx_addr
 1069              	.LVL122:
 1070              		.loc 1 352 0
 1071 004a 3046     		mov	r0, r6
 1072              		.loc 1 353 0
 1073 004c BDE8F041 		pop	{r4, r5, r6, r7, r8, lr}
 1074              		.cfi_restore 14
 1075              		.cfi_restore 8
 1076              		.cfi_restore 7
 1077              		.cfi_restore 6
 1078              		.cfi_restore 5
 1079              		.cfi_restore 4
 1080              		.cfi_def_cfa_offset 0
 1081              	.LVL123:
 1082              		.loc 1 352 0
 1083 0050 FFF7FEBF 		b	chMtxUnlock
ARM GAS  C:\Users\Grillmo\AppData\Local\Temp\cc4IUMAe.s 			page 20


 1084              	.LVL124:
 1085              	.L84:
 1086              		.align	2
 1087              	.L83:
 1088 0054 00000000 		.word	.LANCHOR0
 1089 0058 00000000 		.word	.LANCHOR1
 1090 005c 00000000 		.word	.LANCHOR4
 1091 0060 00000000 		.word	.LANCHOR3
 1092 0064 00000000 		.word	.LANCHOR5
 1093              		.cfi_endproc
 1094              	.LFE266:
 1095              		.size	rfhelp_set_rx_addr, .-rfhelp_set_rx_addr
 1096              		.section	.text.rfhelp_power_down,"ax",%progbits
 1097              		.align	1
 1098              		.p2align 4,,15
 1099              		.global	rfhelp_power_down
 1100              		.syntax unified
 1101              		.thumb
 1102              		.thumb_func
 1103              		.fpu fpv4-sp-d16
 1104              		.type	rfhelp_power_down, %function
 1105              	rfhelp_power_down:
 1106              	.LFB267:
 1107              		.loc 1 355 0
 1108              		.cfi_startproc
 1109              		@ args = 0, pretend = 0, frame = 0
 1110              		@ frame_needed = 0, uses_anonymous_args = 0
 1111 0000 10B5     		push	{r4, lr}
 1112              		.cfi_def_cfa_offset 8
 1113              		.cfi_offset 4, -8
 1114              		.cfi_offset 14, -4
 1115              		.loc 1 356 0
 1116 0002 054C     		ldr	r4, .L87
 1117 0004 2046     		mov	r0, r4
 1118 0006 FFF7FEFF 		bl	chMtxLock
 1119              	.LVL125:
 1120              		.loc 1 357 0
 1121 000a FFF7FEFF 		bl	rf_power_down
 1122              	.LVL126:
 1123              		.loc 1 358 0
 1124 000e 2046     		mov	r0, r4
 1125              		.loc 1 359 0
 1126 0010 BDE81040 		pop	{r4, lr}
 1127              		.cfi_restore 14
 1128              		.cfi_restore 4
 1129              		.cfi_def_cfa_offset 0
 1130              		.loc 1 358 0
 1131 0014 FFF7FEBF 		b	chMtxUnlock
 1132              	.LVL127:
 1133              	.L88:
 1134              		.align	2
 1135              	.L87:
 1136 0018 00000000 		.word	.LANCHOR0
 1137              		.cfi_endproc
 1138              	.LFE267:
 1139              		.size	rfhelp_power_down, .-rfhelp_power_down
 1140              		.section	.text.rfhelp_power_up,"ax",%progbits
ARM GAS  C:\Users\Grillmo\AppData\Local\Temp\cc4IUMAe.s 			page 21


 1141              		.align	1
 1142              		.p2align 4,,15
 1143              		.global	rfhelp_power_up
 1144              		.syntax unified
 1145              		.thumb
 1146              		.thumb_func
 1147              		.fpu fpv4-sp-d16
 1148              		.type	rfhelp_power_up, %function
 1149              	rfhelp_power_up:
 1150              	.LFB268:
 1151              		.loc 1 361 0
 1152              		.cfi_startproc
 1153              		@ args = 0, pretend = 0, frame = 0
 1154              		@ frame_needed = 0, uses_anonymous_args = 0
 1155 0000 10B5     		push	{r4, lr}
 1156              		.cfi_def_cfa_offset 8
 1157              		.cfi_offset 4, -8
 1158              		.cfi_offset 14, -4
 1159              		.loc 1 362 0
 1160 0002 054C     		ldr	r4, .L91
 1161 0004 2046     		mov	r0, r4
 1162 0006 FFF7FEFF 		bl	chMtxLock
 1163              	.LVL128:
 1164              		.loc 1 363 0
 1165 000a FFF7FEFF 		bl	rf_power_up
 1166              	.LVL129:
 1167              		.loc 1 364 0
 1168 000e 2046     		mov	r0, r4
 1169              		.loc 1 365 0
 1170 0010 BDE81040 		pop	{r4, lr}
 1171              		.cfi_restore 14
 1172              		.cfi_restore 4
 1173              		.cfi_def_cfa_offset 0
 1174              		.loc 1 364 0
 1175 0014 FFF7FEBF 		b	chMtxUnlock
 1176              	.LVL130:
 1177              	.L92:
 1178              		.align	2
 1179              	.L91:
 1180 0018 00000000 		.word	.LANCHOR0
 1181              		.cfi_endproc
 1182              	.LFE268:
 1183              		.size	rfhelp_power_up, .-rfhelp_power_up
 1184              		.section	.rodata
 1185              		.align	2
 1186              		.set	.LANCHOR2,. + 0
 1187              	.LC0:
 1188 0000 12       		.byte	18
 1189 0001 41       		.byte	65
 1190 0002 F3       		.byte	-13
 1191              		.section	.bss.address_length,"aw",%nobits
 1192              		.align	2
 1193              		.set	.LANCHOR1,. + 0
 1194              		.type	address_length, %object
 1195              		.size	address_length, 4
 1196              	address_length:
 1197 0000 00000000 		.space	4
ARM GAS  C:\Users\Grillmo\AppData\Local\Temp\cc4IUMAe.s 			page 22


 1198              		.section	.bss.init_done,"aw",%nobits
 1199              		.set	.LANCHOR6,. + 0
 1200              		.type	init_done, %object
 1201              		.size	init_done, 1
 1202              	init_done:
 1203 0000 00       		.space	1
 1204              		.section	.bss.nrf_conf,"aw",%nobits
 1205              		.align	2
 1206              		.set	.LANCHOR7,. + 0
 1207              		.type	nrf_conf, %object
 1208              		.size	nrf_conf, 10
 1209              	nrf_conf:
 1210 0000 00000000 		.space	10
 1210      00000000 
 1210      0000
 1211              		.section	.bss.rf_mutex,"aw",%nobits
 1212              		.align	2
 1213              		.set	.LANCHOR0,. + 0
 1214              		.type	rf_mutex, %object
 1215              		.size	rf_mutex, 16
 1216              	rf_mutex:
 1217 0000 00000000 		.space	16
 1217      00000000 
 1217      00000000 
 1217      00000000 
 1218              		.section	.bss.rx_addr,"aw",%nobits
 1219              		.align	2
 1220              		.set	.LANCHOR3,. + 0
 1221              		.type	rx_addr, %object
 1222              		.size	rx_addr, 30
 1223              	rx_addr:
 1224 0000 00000000 		.space	30
 1224      00000000 
 1224      00000000 
 1224      00000000 
 1224      00000000 
 1225              		.section	.bss.tx_addr,"aw",%nobits
 1226              		.align	2
 1227              		.set	.LANCHOR4,. + 0
 1228              		.type	tx_addr, %object
 1229              		.size	tx_addr, 5
 1230              	tx_addr:
 1231 0000 00000000 		.space	5
 1231      00
 1232              		.section	.bss.tx_pipe0_addr_eq,"aw",%nobits
 1233              		.set	.LANCHOR5,. + 0
 1234              		.type	tx_pipe0_addr_eq, %object
 1235              		.size	tx_pipe0_addr_eq, 1
 1236              	tx_pipe0_addr_eq:
 1237 0000 00       		.space	1
 1238              		.text
 1239              	.Letext0:
 1240              		.file 2 "c:\\chibistudio\\tools\\gnu tools arm embedded\\6.3 2017q1\\arm-none-eabi\\include\\machi
 1241              		.file 3 "c:\\chibistudio\\tools\\gnu tools arm embedded\\6.3 2017q1\\arm-none-eabi\\include\\sys\\
 1242              		.file 4 "c:\\chibistudio\\tools\\gnu tools arm embedded\\6.3 2017q1\\lib\\gcc\\arm-none-eabi\\6.3.
 1243              		.file 5 "ChibiOS_3.0.2/os/rt/ports/ARMCMx/compilers/GCC/chtypes.h"
 1244              		.file 6 "ChibiOS_3.0.2/os/rt/include/chsystypes.h"
ARM GAS  C:\Users\Grillmo\AppData\Local\Temp\cc4IUMAe.s 			page 23


 1245              		.file 7 "ChibiOS_3.0.2/os/rt/include/chschd.h"
 1246              		.file 8 "ChibiOS_3.0.2/os/ext/CMSIS/include/core_cm4.h"
 1247              		.file 9 "ChibiOS_3.0.2/os/ext/CMSIS/ST/system_stm32f4xx.h"
 1248              		.file 10 "ChibiOS_3.0.2/os/ext/CMSIS/ST/stm32f407xx.h"
 1249              		.file 11 "ChibiOS_3.0.2/os/rt/ports/ARMCMx/chcore.h"
 1250              		.file 12 "ChibiOS_3.0.2/os/rt/ports/ARMCMx/chcore_v7m.h"
 1251              		.file 13 "ChibiOS_3.0.2/os/rt/include/chtm.h"
 1252              		.file 14 "ChibiOS_3.0.2/os/rt/include/chsem.h"
 1253              		.file 15 "ChibiOS_3.0.2/os/rt/include/chmtx.h"
 1254              		.file 16 "ChibiOS_3.0.2/os/rt/include/chregistry.h"
 1255              		.file 17 "ChibiOS_3.0.2/os/rt/include/chevents.h"
 1256              		.file 18 "ChibiOS_3.0.2/os/rt/include/chqueues.h"
 1257              		.file 19 "./datatypes.h"
 1258              		.file 20 "./conf_general.h"
 1259              		.file 21 "ChibiOS_3.0.2/os/hal/ports/STM32/STM32F4xx/stm32_dma.h"
 1260              		.file 22 "ChibiOS_3.0.2/os/hal/ports/STM32/LLD/GPIOv2/pal_lld.h"
 1261              		.file 23 "ChibiOS_3.0.2/os/hal/include/can.h"
 1262              		.file 24 "ChibiOS_3.0.2/os/hal/ports/STM32/LLD/can_lld.h"
 1263              		.file 25 "ChibiOS_3.0.2/os/hal/include/i2c.h"
 1264              		.file 26 "ChibiOS_3.0.2/os/hal/ports/STM32/LLD/I2Cv1/i2c_lld.h"
 1265              		.file 27 "ChibiOS_3.0.2/os/hal/include/icu.h"
 1266              		.file 28 "ChibiOS_3.0.2/os/hal/ports/STM32/LLD/TIMv1/icu_lld.h"
 1267              		.file 29 "ChibiOS_3.0.2/os/hal/ports/STM32/LLD/TIMv1/stm32_tim.h"
 1268              		.file 30 "ChibiOS_3.0.2/os/hal/include/spi.h"
 1269              		.file 31 "ChibiOS_3.0.2/os/hal/ports/STM32/LLD/SPIv1/spi_lld.h"
 1270              		.file 32 "ChibiOS_3.0.2/os/hal/include/uart.h"
 1271              		.file 33 "ChibiOS_3.0.2/os/hal/ports/STM32/LLD/USARTv1/uart_lld.h"
 1272              		.file 34 "ChibiOS_3.0.2/os/hal/include/usb.h"
 1273              		.file 35 "ChibiOS_3.0.2/os/hal/ports/STM32/LLD/OTGv1/usb_lld.h"
 1274              		.file 36 "ChibiOS_3.0.2/os/hal/ports/STM32/LLD/OTGv1/stm32_otg.h"
 1275              		.file 37 "c:\\chibistudio\\tools\\gnu tools arm embedded\\6.3 2017q1\\arm-none-eabi\\include\\sys\
 1276              		.file 38 "c:\\chibistudio\\tools\\gnu tools arm embedded\\6.3 2017q1\\arm-none-eabi\\include\\sys\
 1277              		.file 39 "c:\\chibistudio\\tools\\gnu tools arm embedded\\6.3 2017q1\\arm-none-eabi\\include\\sys\
 1278              		.file 40 "nrf/rf.h"
 1279              		.file 41 "c:\\chibistudio\\tools\\gnu tools arm embedded\\6.3 2017q1\\arm-none-eabi\\include\\stri
 1280              		.file 42 "./crc.h"
 1281              		.file 43 "ChibiOS_3.0.2/os/rt/include/chthreads.h"