ARM GAS  C:\Users\Grillmo\AppData\Local\Temp\ccQxsvUe.s 			page 1


   1              		.cpu cortex-m4
   2              		.eabi_attribute 27, 1
   3              		.eabi_attribute 28, 1
   4              		.eabi_attribute 20, 1
   5              		.eabi_attribute 21, 1
   6              		.eabi_attribute 23, 3
   7              		.eabi_attribute 24, 1
   8              		.eabi_attribute 25, 1
   9              		.eabi_attribute 26, 1
  10              		.eabi_attribute 30, 2
  11              		.eabi_attribute 34, 1
  12              		.eabi_attribute 18, 4
  13              		.file	"serial_usb.c"
  14              		.text
  15              	.Ltext0:
  16              		.cfi_sections	.debug_frame
  17              		.section	.text.onotify,"ax",%progbits
  18              		.align	1
  19              		.p2align 4,,15
  20              		.syntax unified
  21              		.thumb
  22              		.thumb_func
  23              		.fpu fpv4-sp-d16
  24              		.type	onotify, %function
  25              	onotify:
  26              	.LFB265:
  27              		.file 1 "ChibiOS_3.0.2/os/hal/src/serial_usb.c"
  28              		.loc 1 144 0
  29              		.cfi_startproc
  30              		@ args = 0, pretend = 0, frame = 0
  31              		@ frame_needed = 0, uses_anonymous_args = 0
  32              	.LVL0:
  33 0000 10B5     		push	{r4, lr}
  34              		.cfi_def_cfa_offset 8
  35              		.cfi_offset 4, -8
  36              		.cfi_offset 14, -4
  37              		.loc 1 146 0
  38 0002 046A     		ldr	r4, [r0, #32]
  39              	.LVL1:
  40              		.loc 1 150 0
  41 0004 D4F85422 		ldr	r2, [r4, #596]
  42 0008 1368     		ldr	r3, [r2]
  43 000a 1978     		ldrb	r1, [r3]	@ zero_extendqisi2
  44 000c 0429     		cmp	r1, #4
  45 000e 00D0     		beq	.L8
  46              	.LVL2:
  47              	.L1:
  48 0010 10BD     		pop	{r4, pc}
  49              	.LVL3:
  50              	.L8:
  51              		.loc 1 150 0 is_stmt 0 discriminator 1
  52 0012 217A     		ldrb	r1, [r4, #8]	@ zero_extendqisi2
  53 0014 0229     		cmp	r1, #2
  54 0016 FBD1     		bne	.L1
  55              		.loc 1 157 0 is_stmt 1
  56 0018 1179     		ldrb	r1, [r2, #4]	@ zero_extendqisi2
  57 001a 1A89     		ldrh	r2, [r3, #8]
ARM GAS  C:\Users\Grillmo\AppData\Local\Temp\ccQxsvUe.s 			page 2


  58 001c 0123     		movs	r3, #1
  59 001e 8B40     		lsls	r3, r3, r1
  60 0020 1A40     		ands	r2, r3, r2
  61 0022 F5D1     		bne	.L1
  62              	.LBB200:
  63              	.LBB201:
  64              		.file 2 "ChibiOS_3.0.2/os/rt/include/chqueues.h"
  65              		.loc 2 357 0
  66 0024 236C     		ldr	r3, [r4, #64]
  67 0026 E06B     		ldr	r0, [r4, #60]
  68              	.LVL4:
  69 0028 A16B     		ldr	r1, [r4, #56]
  70 002a 1B1A     		subs	r3, r3, r0
  71              	.LBE201:
  72              	.LBE200:
  73              		.loc 1 158 0
  74 002c 5B1A     		subs	r3, r3, r1
  75 002e EFD0     		beq	.L1
  76              	.LVL5:
  77              	.LBB202:
  78              	.LBB203:
  79              	.LBB204:
  80              	.LBB205:
  81              	.LBB206:
  82              	.LBB207:
  83              		.file 3 "ChibiOS_3.0.2/os/ext/CMSIS/include/core_cmFunc.h"
  84              		.loc 3 546 0
  85              		.syntax unified
  86              	@ 546 "ChibiOS_3.0.2/os/ext/CMSIS/include/core_cmFunc.h" 1
  87 0030 82F31188 		MSR basepri, r2
  88              	@ 0 "" 2
  89              	.LVL6:
  90              		.thumb
  91              		.syntax unified
  92              	.LBE207:
  93              	.LBE206:
  94              	.LBE205:
  95              	.LBE204:
  96              	.LBE203:
  97              	.LBE202:
  98              		.loc 1 161 0
  99 0034 D4F85422 		ldr	r2, [r4, #596]
 100 0038 1179     		ldrb	r1, [r2, #4]	@ zero_extendqisi2
 101 003a 1068     		ldr	r0, [r2]
 102 003c 04F13002 		add	r2, r4, #48
 103 0040 FFF7FEFF 		bl	usbPrepareQueuedTransmit
 104              	.LVL7:
 105              	.LBB208:
 106              	.LBB209:
 107              	.LBB210:
 108              	.LBB211:
 109              	.LBB212:
 110              		.loc 3 546 0
 111 0044 2023     		movs	r3, #32
 112              		.syntax unified
 113              	@ 546 "ChibiOS_3.0.2/os/ext/CMSIS/include/core_cmFunc.h" 1
 114 0046 83F31188 		MSR basepri, r3
ARM GAS  C:\Users\Grillmo\AppData\Local\Temp\ccQxsvUe.s 			page 3


 115              	@ 0 "" 2
 116              	.LVL8:
 117              		.thumb
 118              		.syntax unified
 119              	.LBE212:
 120              	.LBE211:
 121              	.LBE210:
 122              	.LBE209:
 123              	.LBE208:
 124              		.loc 1 166 0
 125 004a D4F85432 		ldr	r3, [r4, #596]
 126              		.loc 1 169 0
 127 004e BDE81040 		pop	{r4, lr}
 128              		.cfi_restore 14
 129              		.cfi_restore 4
 130              		.cfi_def_cfa_offset 0
 131              	.LVL9:
 132              		.loc 1 166 0
 133 0052 1979     		ldrb	r1, [r3, #4]	@ zero_extendqisi2
 134 0054 1868     		ldr	r0, [r3]
 135 0056 FFF7FEBF 		b	usbStartTransmitI
 136              	.LVL10:
 137              		.cfi_endproc
 138              	.LFE265:
 139              		.size	onotify, .-onotify
 140 005a 00BF     		.section	.text.inotify,"ax",%progbits
 141              		.align	1
 142              		.p2align 4,,15
 143              		.syntax unified
 144              		.thumb
 145              		.thumb_func
 146              		.fpu fpv4-sp-d16
 147              		.type	inotify, %function
 148              	inotify:
 149              	.LFB264:
 150              		.loc 1 109 0
 151              		.cfi_startproc
 152              		@ args = 0, pretend = 0, frame = 0
 153              		@ frame_needed = 0, uses_anonymous_args = 0
 154              	.LVL11:
 155 0000 38B5     		push	{r3, r4, r5, lr}
 156              		.cfi_def_cfa_offset 16
 157              		.cfi_offset 3, -16
 158              		.cfi_offset 4, -12
 159              		.cfi_offset 5, -8
 160              		.cfi_offset 14, -4
 161              		.loc 1 111 0
 162 0002 046A     		ldr	r4, [r0, #32]
 163              	.LVL12:
 164              		.loc 1 115 0
 165 0004 D4F85422 		ldr	r2, [r4, #596]
 166 0008 1368     		ldr	r3, [r2]
 167 000a 1978     		ldrb	r1, [r3]	@ zero_extendqisi2
 168 000c 0429     		cmp	r1, #4
 169 000e 00D0     		beq	.L12
 170              	.LVL13:
 171              	.L9:
ARM GAS  C:\Users\Grillmo\AppData\Local\Temp\ccQxsvUe.s 			page 4


 172 0010 38BD     		pop	{r3, r4, r5, pc}
 173              	.LVL14:
 174              	.L12:
 175              		.loc 1 115 0 is_stmt 0 discriminator 1
 176 0012 217A     		ldrb	r1, [r4, #8]	@ zero_extendqisi2
 177 0014 0229     		cmp	r1, #2
 178 0016 FBD1     		bne	.L9
 179              		.loc 1 123 0 is_stmt 1
 180 0018 5079     		ldrb	r0, [r2, #5]	@ zero_extendqisi2
 181              	.LVL15:
 182              		.loc 1 124 0
 183 001a 5989     		ldrh	r1, [r3, #10]
 184 001c 0122     		movs	r2, #1
 185 001e 8240     		lsls	r2, r2, r0
 186 0020 0A40     		ands	r2, r2, r1
 187 0022 F5D1     		bne	.L9
 188              		.loc 1 123 0
 189 0024 03EB8003 		add	r3, r3, r0, lsl #2
 190              	.LVL16:
 191              	.LBB213:
 192              	.LBB214:
 193              		.loc 2 290 0
 194 0028 A169     		ldr	r1, [r4, #24]
 195 002a E069     		ldr	r0, [r4, #28]
 196              	.LVL17:
 197              	.LBE214:
 198              	.LBE213:
 199              		.loc 1 123 0
 200 002c DB68     		ldr	r3, [r3, #12]
 201              	.LBB217:
 202              	.LBB215:
 203              		.loc 2 290 0
 204 002e 6569     		ldr	r5, [r4, #20]
 205              	.LBE215:
 206              	.LBE217:
 207              		.loc 1 123 0
 208 0030 5B8A     		ldrh	r3, [r3, #18]
 209              	.LVL18:
 210              	.LBB218:
 211              	.LBB216:
 212              		.loc 2 290 0
 213 0032 411A     		subs	r1, r0, r1
 214 0034 491B     		subs	r1, r1, r5
 215              	.LVL19:
 216              	.LBE216:
 217              	.LBE218:
 218              		.loc 1 125 0
 219 0036 8B42     		cmp	r3, r1
 220 0038 EAD8     		bhi	.L9
 221              	.LVL20:
 222              	.LBB219:
 223              	.LBB220:
 224              	.LBB221:
 225              	.LBB222:
 226              	.LBB223:
 227              	.LBB224:
 228              		.loc 3 546 0
ARM GAS  C:\Users\Grillmo\AppData\Local\Temp\ccQxsvUe.s 			page 5


 229              		.syntax unified
 230              	@ 546 "ChibiOS_3.0.2/os/ext/CMSIS/include/core_cmFunc.h" 1
 231 003a 82F31188 		MSR basepri, r2
 232              	@ 0 "" 2
 233              	.LVL21:
 234              		.thumb
 235              		.syntax unified
 236              	.LBE224:
 237              	.LBE223:
 238              	.LBE222:
 239              	.LBE221:
 240              	.LBE220:
 241              	.LBE219:
 242              		.loc 1 128 0
 243 003e B1FBF3F1 		udiv	r1, r1, r3
 244              	.LVL22:
 245              		.loc 1 129 0
 246 0042 D4F85422 		ldr	r2, [r4, #596]
 247 0046 03FB01F3 		mul	r3, r3, r1
 248              	.LVL23:
 249 004a 1068     		ldr	r0, [r2]
 250 004c 5179     		ldrb	r1, [r2, #5]	@ zero_extendqisi2
 251 004e 04F10C02 		add	r2, r4, #12
 252 0052 FFF7FEFF 		bl	usbPrepareQueuedReceive
 253              	.LVL24:
 254              	.LBB225:
 255              	.LBB226:
 256              	.LBB227:
 257              	.LBB228:
 258              	.LBB229:
 259              		.loc 3 546 0
 260 0056 2023     		movs	r3, #32
 261              		.syntax unified
 262              	@ 546 "ChibiOS_3.0.2/os/ext/CMSIS/include/core_cmFunc.h" 1
 263 0058 83F31188 		MSR basepri, r3
 264              	@ 0 "" 2
 265              	.LVL25:
 266              		.thumb
 267              		.syntax unified
 268              	.LBE229:
 269              	.LBE228:
 270              	.LBE227:
 271              	.LBE226:
 272              	.LBE225:
 273              		.loc 1 134 0
 274 005c D4F85432 		ldr	r3, [r4, #596]
 275 0060 5979     		ldrb	r1, [r3, #5]	@ zero_extendqisi2
 276 0062 1868     		ldr	r0, [r3]
 277              		.loc 1 137 0
 278 0064 BDE83840 		pop	{r3, r4, r5, lr}
 279              		.cfi_restore 14
 280              		.cfi_restore 5
 281              		.cfi_restore 4
 282              		.cfi_restore 3
 283              		.cfi_def_cfa_offset 0
 284              	.LVL26:
 285              		.loc 1 134 0
ARM GAS  C:\Users\Grillmo\AppData\Local\Temp\ccQxsvUe.s 			page 6


 286 0068 FFF7FEBF 		b	usbStartReceiveI
 287              	.LVL27:
 288              		.cfi_endproc
 289              	.LFE264:
 290              		.size	inotify, .-inotify
 291              		.section	.text.readt,"ax",%progbits
 292              		.align	1
 293              		.p2align 4,,15
 294              		.syntax unified
 295              		.thumb
 296              		.thumb_func
 297              		.fpu fpv4-sp-d16
 298              		.type	readt, %function
 299              	readt:
 300              	.LFB263:
 301              		.loc 1 94 0
 302              		.cfi_startproc
 303              		@ args = 0, pretend = 0, frame = 0
 304              		@ frame_needed = 0, uses_anonymous_args = 0
 305              		@ link register save eliminated.
 306              	.LVL28:
 307              		.loc 1 96 0
 308 0000 0C30     		adds	r0, r0, #12
 309              	.LVL29:
 310 0002 FFF7FEBF 		b	chIQReadTimeout
 311              	.LVL30:
 312              		.cfi_endproc
 313              	.LFE263:
 314              		.size	readt, .-readt
 315              		.section	.text.read,"ax",%progbits
 316              		.align	1
 317              		.p2align 4,,15
 318              		.syntax unified
 319              		.thumb
 320              		.thumb_func
 321              		.fpu fpv4-sp-d16
 322              		.type	read, %function
 323              	read:
 324              	.LFB257:
 325              		.loc 1 63 0
 326              		.cfi_startproc
 327              		@ args = 0, pretend = 0, frame = 0
 328              		@ frame_needed = 0, uses_anonymous_args = 0
 329              		@ link register save eliminated.
 330              	.LVL31:
 331              		.loc 1 65 0
 332 0000 0C30     		adds	r0, r0, #12
 333              	.LVL32:
 334 0002 4FF0FF33 		mov	r3, #-1
 335 0006 FFF7FEBF 		b	chIQReadTimeout
 336              	.LVL33:
 337              		.cfi_endproc
 338              	.LFE257:
 339              		.size	read, .-read
 340 000a 00BF     		.section	.text.writet,"ax",%progbits
 341              		.align	1
 342              		.p2align 4,,15
ARM GAS  C:\Users\Grillmo\AppData\Local\Temp\ccQxsvUe.s 			page 7


 343              		.syntax unified
 344              		.thumb
 345              		.thumb_func
 346              		.fpu fpv4-sp-d16
 347              		.type	writet, %function
 348              	writet:
 349              	.LFB262:
 350              		.loc 1 89 0
 351              		.cfi_startproc
 352              		@ args = 0, pretend = 0, frame = 0
 353              		@ frame_needed = 0, uses_anonymous_args = 0
 354              		@ link register save eliminated.
 355              	.LVL34:
 356              		.loc 1 91 0
 357 0000 3030     		adds	r0, r0, #48
 358              	.LVL35:
 359 0002 FFF7FEBF 		b	chOQWriteTimeout
 360              	.LVL36:
 361              		.cfi_endproc
 362              	.LFE262:
 363              		.size	writet, .-writet
 364              		.section	.text.write,"ax",%progbits
 365              		.align	1
 366              		.p2align 4,,15
 367              		.syntax unified
 368              		.thumb
 369              		.thumb_func
 370              		.fpu fpv4-sp-d16
 371              		.type	write, %function
 372              	write:
 373              	.LFB256:
 374              		.loc 1 57 0
 375              		.cfi_startproc
 376              		@ args = 0, pretend = 0, frame = 0
 377              		@ frame_needed = 0, uses_anonymous_args = 0
 378              		@ link register save eliminated.
 379              	.LVL37:
 380              		.loc 1 59 0
 381 0000 3030     		adds	r0, r0, #48
 382              	.LVL38:
 383 0002 4FF0FF33 		mov	r3, #-1
 384 0006 FFF7FEBF 		b	chOQWriteTimeout
 385              	.LVL39:
 386              		.cfi_endproc
 387              	.LFE256:
 388              		.size	write, .-write
 389 000a 00BF     		.section	.text.gett,"ax",%progbits
 390              		.align	1
 391              		.p2align 4,,15
 392              		.syntax unified
 393              		.thumb
 394              		.thumb_func
 395              		.fpu fpv4-sp-d16
 396              		.type	gett, %function
 397              	gett:
 398              	.LFB261:
 399              		.loc 1 84 0
ARM GAS  C:\Users\Grillmo\AppData\Local\Temp\ccQxsvUe.s 			page 8


 400              		.cfi_startproc
 401              		@ args = 0, pretend = 0, frame = 0
 402              		@ frame_needed = 0, uses_anonymous_args = 0
 403              		@ link register save eliminated.
 404              	.LVL40:
 405              		.loc 1 86 0
 406 0000 0C30     		adds	r0, r0, #12
 407              	.LVL41:
 408 0002 FFF7FEBF 		b	chIQGetTimeout
 409              	.LVL42:
 410              		.cfi_endproc
 411              	.LFE261:
 412              		.size	gett, .-gett
 413              		.section	.text.get,"ax",%progbits
 414              		.align	1
 415              		.p2align 4,,15
 416              		.syntax unified
 417              		.thumb
 418              		.thumb_func
 419              		.fpu fpv4-sp-d16
 420              		.type	get, %function
 421              	get:
 422              	.LFB259:
 423              		.loc 1 74 0
 424              		.cfi_startproc
 425              		@ args = 0, pretend = 0, frame = 0
 426              		@ frame_needed = 0, uses_anonymous_args = 0
 427              		@ link register save eliminated.
 428              	.LVL43:
 429              		.loc 1 76 0
 430 0000 0C30     		adds	r0, r0, #12
 431              	.LVL44:
 432 0002 4FF0FF31 		mov	r1, #-1
 433 0006 FFF7FEBF 		b	chIQGetTimeout
 434              	.LVL45:
 435              		.cfi_endproc
 436              	.LFE259:
 437              		.size	get, .-get
 438 000a 00BF     		.section	.text.putt,"ax",%progbits
 439              		.align	1
 440              		.p2align 4,,15
 441              		.syntax unified
 442              		.thumb
 443              		.thumb_func
 444              		.fpu fpv4-sp-d16
 445              		.type	putt, %function
 446              	putt:
 447              	.LFB260:
 448              		.loc 1 79 0
 449              		.cfi_startproc
 450              		@ args = 0, pretend = 0, frame = 0
 451              		@ frame_needed = 0, uses_anonymous_args = 0
 452              		@ link register save eliminated.
 453              	.LVL46:
 454              		.loc 1 81 0
 455 0000 3030     		adds	r0, r0, #48
 456              	.LVL47:
ARM GAS  C:\Users\Grillmo\AppData\Local\Temp\ccQxsvUe.s 			page 9


 457 0002 FFF7FEBF 		b	chOQPutTimeout
 458              	.LVL48:
 459              		.cfi_endproc
 460              	.LFE260:
 461              		.size	putt, .-putt
 462              		.section	.text.put,"ax",%progbits
 463              		.align	1
 464              		.p2align 4,,15
 465              		.syntax unified
 466              		.thumb
 467              		.thumb_func
 468              		.fpu fpv4-sp-d16
 469              		.type	put, %function
 470              	put:
 471              	.LFB258:
 472              		.loc 1 69 0
 473              		.cfi_startproc
 474              		@ args = 0, pretend = 0, frame = 0
 475              		@ frame_needed = 0, uses_anonymous_args = 0
 476              		@ link register save eliminated.
 477              	.LVL49:
 478              		.loc 1 71 0
 479 0000 3030     		adds	r0, r0, #48
 480              	.LVL50:
 481 0002 4FF0FF32 		mov	r2, #-1
 482 0006 FFF7FEBF 		b	chOQPutTimeout
 483              	.LVL51:
 484              		.cfi_endproc
 485              	.LFE258:
 486              		.size	put, .-put
 487 000a 00BF     		.section	.text.sduInit,"ax",%progbits
 488              		.align	1
 489              		.p2align 4,,15
 490              		.global	sduInit
 491              		.syntax unified
 492              		.thumb
 493              		.thumb_func
 494              		.fpu fpv4-sp-d16
 495              		.type	sduInit, %function
 496              	sduInit:
 497              	.LFB266:
 498              		.loc 1 182 0
 499              		.cfi_startproc
 500              		@ args = 0, pretend = 0, frame = 0
 501              		@ frame_needed = 0, uses_anonymous_args = 0
 502              		@ link register save eliminated.
 503 0000 7047     		bx	lr
 504              		.cfi_endproc
 505              	.LFE266:
 506              		.size	sduInit, .-sduInit
 507 0002 00BF     		.section	.text.sduObjectInit,"ax",%progbits
 508              		.align	1
 509              		.p2align 4,,15
 510              		.global	sduObjectInit
 511              		.syntax unified
 512              		.thumb
 513              		.thumb_func
ARM GAS  C:\Users\Grillmo\AppData\Local\Temp\ccQxsvUe.s 			page 10


 514              		.fpu fpv4-sp-d16
 515              		.type	sduObjectInit, %function
 516              	sduObjectInit:
 517              	.LFB267:
 518              		.loc 1 194 0
 519              		.cfi_startproc
 520              		@ args = 0, pretend = 0, frame = 0
 521              		@ frame_needed = 0, uses_anonymous_args = 0
 522              	.LVL52:
 523              		.loc 1 194 0
 524 0000 10B5     		push	{r4, lr}
 525              		.cfi_def_cfa_offset 8
 526              		.cfi_offset 4, -8
 527              		.cfi_offset 14, -4
 528              		.loc 1 196 0
 529 0002 0346     		mov	r3, r0
 530 0004 0E4A     		ldr	r2, .L24
 531 0006 43F8042B 		str	r2, [r3], #4
 532              	.LVL53:
 533              		.loc 1 194 0
 534 000a 82B0     		sub	sp, sp, #8
 535              		.cfi_def_cfa_offset 16
 536              		.loc 1 198 0
 537 000c 0122     		movs	r2, #1
 538              		.loc 1 194 0
 539 000e 0446     		mov	r4, r0
 540              		.loc 1 199 0
 541 0010 0090     		str	r0, [sp]
 542 0012 00F15401 		add	r1, r0, #84
 543              	.LBB230:
 544              	.LBB231:
 545              	.LBB232:
 546              		.file 4 "ChibiOS_3.0.2/os/rt/include/chevents.h"
 547              		.loc 4 172 0
 548 0016 4360     		str	r3, [r0, #4]
 549              	.LVL54:
 550              	.LBE232:
 551              	.LBE231:
 552              	.LBE230:
 553              		.loc 1 198 0
 554 0018 0272     		strb	r2, [r0, #8]
 555              		.loc 1 199 0
 556 001a 0A4B     		ldr	r3, .L24+4
 557 001c 0C30     		adds	r0, r0, #12
 558              	.LVL55:
 559 001e 4FF48072 		mov	r2, #256
 560 0022 FFF7FEFF 		bl	chIQObjectInit
 561              	.LVL56:
 562              		.loc 1 200 0
 563 0026 0094     		str	r4, [sp]
 564 0028 04F5AA71 		add	r1, r4, #340
 565 002c 04F13000 		add	r0, r4, #48
 566 0030 054B     		ldr	r3, .L24+8
 567 0032 4FF48072 		mov	r2, #256
 568 0036 FFF7FEFF 		bl	chOQObjectInit
 569              	.LVL57:
 570              		.loc 1 201 0
ARM GAS  C:\Users\Grillmo\AppData\Local\Temp\ccQxsvUe.s 			page 11


 571 003a 02B0     		add	sp, sp, #8
 572              		.cfi_def_cfa_offset 8
 573              		@ sp needed
 574 003c 10BD     		pop	{r4, pc}
 575              	.LVL58:
 576              	.L25:
 577 003e 00BF     		.align	2
 578              	.L24:
 579 0040 00000000 		.word	.LANCHOR0
 580 0044 00000000 		.word	inotify
 581 0048 00000000 		.word	onotify
 582              		.cfi_endproc
 583              	.LFE267:
 584              		.size	sduObjectInit, .-sduObjectInit
 585              		.section	.text.sduStart,"ax",%progbits
 586              		.align	1
 587              		.p2align 4,,15
 588              		.global	sduStart
 589              		.syntax unified
 590              		.thumb
 591              		.thumb_func
 592              		.fpu fpv4-sp-d16
 593              		.type	sduStart, %function
 594              	sduStart:
 595              	.LFB268:
 596              		.loc 1 211 0
 597              		.cfi_startproc
 598              		@ args = 0, pretend = 0, frame = 0
 599              		@ frame_needed = 0, uses_anonymous_args = 0
 600              		@ link register save eliminated.
 601              	.LVL59:
 602              		.loc 1 212 0
 603 0000 0B68     		ldr	r3, [r1]
 604              	.LVL60:
 605              	.LBB233:
 606              	.LBB234:
 607              	.LBB235:
 608              	.LBB236:
 609              	.LBB237:
 610              		.loc 3 546 0
 611 0002 2022     		movs	r2, #32
 612              		.syntax unified
 613              	@ 546 "ChibiOS_3.0.2/os/ext/CMSIS/include/core_cmFunc.h" 1
 614 0004 82F31188 		MSR basepri, r2
 615              	@ 0 "" 2
 616              	.LVL61:
 617              		.thumb
 618              		.syntax unified
 619              	.LBE237:
 620              	.LBE236:
 621              	.LBE235:
 622              	.LBE234:
 623              	.LBE233:
 624              		.loc 1 219 0
 625 0008 0A79     		ldrb	r2, [r1, #4]	@ zero_extendqisi2
 626 000a 03EB8202 		add	r2, r3, r2, lsl #2
 627 000e 9061     		str	r0, [r2, #24]
ARM GAS  C:\Users\Grillmo\AppData\Local\Temp\ccQxsvUe.s 			page 12


 628              		.loc 1 220 0
 629 0010 4A79     		ldrb	r2, [r1, #5]	@ zero_extendqisi2
 630 0012 0932     		adds	r2, r2, #9
 631 0014 43F82200 		str	r0, [r3, r2, lsl #2]
 632              		.loc 1 221 0
 633 0018 8A79     		ldrb	r2, [r1, #6]	@ zero_extendqisi2
 634 001a 12B1     		cbz	r2, .L27
 635              		.loc 1 222 0
 636 001c 03EB8203 		add	r3, r3, r2, lsl #2
 637              	.LVL62:
 638 0020 9861     		str	r0, [r3, #24]
 639              	.L27:
 640              		.loc 1 225 0
 641 0022 0223     		movs	r3, #2
 642 0024 0372     		strb	r3, [r0, #8]
 643              	.LVL63:
 644              		.loc 1 224 0
 645 0026 C0F85412 		str	r1, [r0, #596]
 646              	.LBB238:
 647              	.LBB239:
 648              	.LBB240:
 649              	.LBB241:
 650              	.LBB242:
 651              	.LBB243:
 652              		.loc 3 546 0
 653 002a 0023     		movs	r3, #0
 654              		.syntax unified
 655              	@ 546 "ChibiOS_3.0.2/os/ext/CMSIS/include/core_cmFunc.h" 1
 656 002c 83F31188 		MSR basepri, r3
 657              	@ 0 "" 2
 658              	.LVL64:
 659              		.thumb
 660              		.syntax unified
 661 0030 7047     		bx	lr
 662              	.LBE243:
 663              	.LBE242:
 664              	.LBE241:
 665              	.LBE240:
 666              	.LBE239:
 667              	.LBE238:
 668              		.cfi_endproc
 669              	.LFE268:
 670              		.size	sduStart, .-sduStart
 671 0032 00BF     		.section	.text.sduStop,"ax",%progbits
 672              		.align	1
 673              		.p2align 4,,15
 674              		.global	sduStop
 675              		.syntax unified
 676              		.thumb
 677              		.thumb_func
 678              		.fpu fpv4-sp-d16
 679              		.type	sduStop, %function
 680              	sduStop:
 681              	.LFB269:
 682              		.loc 1 238 0
 683              		.cfi_startproc
 684              		@ args = 0, pretend = 0, frame = 0
ARM GAS  C:\Users\Grillmo\AppData\Local\Temp\ccQxsvUe.s 			page 13


 685              		@ frame_needed = 0, uses_anonymous_args = 0
 686              	.LVL65:
 687              		.loc 1 239 0
 688 0000 D0F85422 		ldr	r2, [r0, #596]
 689              		.loc 1 238 0
 690 0004 10B5     		push	{r4, lr}
 691              		.cfi_def_cfa_offset 8
 692              		.cfi_offset 4, -8
 693              		.cfi_offset 14, -4
 694              	.LBB244:
 695              	.LBB245:
 696              	.LBB246:
 697              	.LBB247:
 698              	.LBB248:
 699              		.loc 3 546 0
 700 0006 2023     		movs	r3, #32
 701              	.LBE248:
 702              	.LBE247:
 703              	.LBE246:
 704              	.LBE245:
 705              	.LBE244:
 706              		.loc 1 238 0
 707 0008 0446     		mov	r4, r0
 708              		.loc 1 239 0
 709 000a 1268     		ldr	r2, [r2]
 710              	.LVL66:
 711              	.LBB253:
 712              	.LBB252:
 713              	.LBB251:
 714              	.LBB250:
 715              	.LBB249:
 716              		.loc 3 546 0
 717              		.syntax unified
 718              	@ 546 "ChibiOS_3.0.2/os/ext/CMSIS/include/core_cmFunc.h" 1
 719 000c 83F31188 		MSR basepri, r3
 720              	@ 0 "" 2
 721              	.LVL67:
 722              		.thumb
 723              		.syntax unified
 724              	.LBE249:
 725              	.LBE250:
 726              	.LBE251:
 727              	.LBE252:
 728              	.LBE253:
 729              		.loc 1 248 0
 730 0010 D0F85412 		ldr	r1, [r0, #596]
 731 0014 0B79     		ldrb	r3, [r1, #4]	@ zero_extendqisi2
 732 0016 0533     		adds	r3, r3, #5
 733 0018 02EB8303 		add	r3, r2, r3, lsl #2
 734 001c 0020     		movs	r0, #0
 735              	.LVL68:
 736 001e 5860     		str	r0, [r3, #4]
 737              		.loc 1 249 0
 738 0020 4B79     		ldrb	r3, [r1, #5]	@ zero_extendqisi2
 739 0022 0933     		adds	r3, r3, #9
 740 0024 42F82300 		str	r0, [r2, r3, lsl #2]
 741              		.loc 1 250 0
ARM GAS  C:\Users\Grillmo\AppData\Local\Temp\ccQxsvUe.s 			page 14


 742 0028 8B79     		ldrb	r3, [r1, #6]	@ zero_extendqisi2
 743 002a 1BB1     		cbz	r3, .L32
 744              		.loc 1 251 0
 745 002c 0533     		adds	r3, r3, #5
 746 002e 02EB8302 		add	r2, r2, r3, lsl #2
 747              	.LVL69:
 748 0032 5060     		str	r0, [r2, #4]
 749              	.L32:
 750              		.loc 1 253 0
 751 0034 0123     		movs	r3, #1
 752 0036 2372     		strb	r3, [r4, #8]
 753              	.LVL70:
 754              	.LBB254:
 755              	.LBB255:
 756              		.file 5 "ChibiOS_3.0.2/os/hal/osal/rt/osal.h"
 757              		.loc 5 844 0
 758 0038 0221     		movs	r1, #2
 759 003a 201D     		adds	r0, r4, #4
 760              	.LVL71:
 761 003c FFF7FEFF 		bl	chEvtBroadcastFlagsI
 762              	.LVL72:
 763              	.LBE255:
 764              	.LBE254:
 765              		.loc 1 257 0
 766 0040 04F10C00 		add	r0, r4, #12
 767 0044 FFF7FEFF 		bl	chIQResetI
 768              	.LVL73:
 769              		.loc 1 258 0
 770 0048 04F13000 		add	r0, r4, #48
 771 004c FFF7FEFF 		bl	chIQResetI
 772              	.LVL74:
 773              	.LBB256:
 774              	.LBB257:
 775              		.loc 5 600 0
 776 0050 FFF7FEFF 		bl	chSchRescheduleS
 777              	.LVL75:
 778              	.LBE257:
 779              	.LBE256:
 780              	.LBB258:
 781              	.LBB259:
 782              	.LBB260:
 783              	.LBB261:
 784              	.LBB262:
 785              	.LBB263:
 786              		.loc 3 546 0
 787 0054 0023     		movs	r3, #0
 788              		.syntax unified
 789              	@ 546 "ChibiOS_3.0.2/os/ext/CMSIS/include/core_cmFunc.h" 1
 790 0056 83F31188 		MSR basepri, r3
 791              	@ 0 "" 2
 792              	.LVL76:
 793              		.thumb
 794              		.syntax unified
 795 005a 10BD     		pop	{r4, pc}
 796              	.LBE263:
 797              	.LBE262:
 798              	.LBE261:
ARM GAS  C:\Users\Grillmo\AppData\Local\Temp\ccQxsvUe.s 			page 15


 799              	.LBE260:
 800              	.LBE259:
 801              	.LBE258:
 802              		.cfi_endproc
 803              	.LFE269:
 804              		.size	sduStop, .-sduStop
 805              		.section	.text.sduConfigureHookI,"ax",%progbits
 806              		.align	1
 807              		.p2align 4,,15
 808              		.global	sduConfigureHookI
 809              		.syntax unified
 810              		.thumb
 811              		.thumb_func
 812              		.fpu fpv4-sp-d16
 813              		.type	sduConfigureHookI, %function
 814              	sduConfigureHookI:
 815              	.LFB270:
 816              		.loc 1 270 0
 817              		.cfi_startproc
 818              		@ args = 0, pretend = 0, frame = 0
 819              		@ frame_needed = 0, uses_anonymous_args = 0
 820              	.LVL77:
 821 0000 70B5     		push	{r4, r5, r6, lr}
 822              		.cfi_def_cfa_offset 16
 823              		.cfi_offset 4, -16
 824              		.cfi_offset 5, -12
 825              		.cfi_offset 6, -8
 826              		.cfi_offset 14, -4
 827              		.loc 1 271 0
 828 0002 D0F85432 		ldr	r3, [r0, #596]
 829              		.loc 1 273 0
 830 0006 00F10C06 		add	r6, r0, #12
 831              		.loc 1 270 0
 832 000a 0446     		mov	r4, r0
 833              		.loc 1 273 0
 834 000c 3046     		mov	r0, r6
 835              	.LVL78:
 836              		.loc 1 271 0
 837 000e 1D68     		ldr	r5, [r3]
 838              	.LVL79:
 839              		.loc 1 273 0
 840 0010 FFF7FEFF 		bl	chIQResetI
 841              	.LVL80:
 842              		.loc 1 274 0
 843 0014 04F13000 		add	r0, r4, #48
 844 0018 FFF7FEFF 		bl	chOQResetI
 845              	.LVL81:
 846              	.LBB264:
 847              	.LBB265:
 848              		.loc 5 844 0
 849 001c 201D     		adds	r0, r4, #4
 850              	.LVL82:
 851 001e 0121     		movs	r1, #1
 852 0020 FFF7FEFF 		bl	chEvtBroadcastFlagsI
 853              	.LVL83:
 854              	.LBE265:
 855              	.LBE264:
ARM GAS  C:\Users\Grillmo\AppData\Local\Temp\ccQxsvUe.s 			page 16


 856              		.loc 1 278 0
 857 0024 D4F85432 		ldr	r3, [r4, #596]
 858 0028 5979     		ldrb	r1, [r3, #5]	@ zero_extendqisi2
 859              		.loc 1 279 0
 860 002a 05EB8103 		add	r3, r5, r1, lsl #2
 861              		.loc 1 278 0
 862 002e 2846     		mov	r0, r5
 863              		.loc 1 279 0
 864 0030 DB68     		ldr	r3, [r3, #12]
 865              		.loc 1 278 0
 866 0032 3246     		mov	r2, r6
 867 0034 5B8A     		ldrh	r3, [r3, #18]
 868 0036 FFF7FEFF 		bl	usbPrepareQueuedReceive
 869              	.LVL84:
 870              		.loc 1 280 0
 871 003a D4F85432 		ldr	r3, [r4, #596]
 872 003e 2846     		mov	r0, r5
 873 0040 5979     		ldrb	r1, [r3, #5]	@ zero_extendqisi2
 874              		.loc 1 281 0
 875 0042 BDE87040 		pop	{r4, r5, r6, lr}
 876              		.cfi_restore 14
 877              		.cfi_restore 6
 878              		.cfi_restore 5
 879              		.cfi_restore 4
 880              		.cfi_def_cfa_offset 0
 881              	.LVL85:
 882              		.loc 1 280 0
 883 0046 FFF7FEBF 		b	usbStartReceiveI
 884              	.LVL86:
 885              		.cfi_endproc
 886              	.LFE270:
 887              		.size	sduConfigureHookI, .-sduConfigureHookI
 888 004a 00BF     		.section	.text.sduRequestsHook,"ax",%progbits
 889              		.align	1
 890              		.p2align 4,,15
 891              		.global	sduRequestsHook
 892              		.syntax unified
 893              		.thumb
 894              		.thumb_func
 895              		.fpu fpv4-sp-d16
 896              		.type	sduRequestsHook, %function
 897              	sduRequestsHook:
 898              	.LFB271:
 899              		.loc 1 298 0
 900              		.cfi_startproc
 901              		@ args = 0, pretend = 0, frame = 0
 902              		@ frame_needed = 0, uses_anonymous_args = 0
 903              		@ link register save eliminated.
 904              	.LVL87:
 905              		.loc 1 300 0
 906 0000 90F84430 		ldrb	r3, [r0, #68]	@ zero_extendqisi2
 907 0004 03F06003 		and	r3, r3, #96
 908 0008 202B     		cmp	r3, #32
 909 000a 01D0     		beq	.L47
 910              	.L46:
 911              		.loc 1 313 0
 912 000c 0020     		movs	r0, #0
ARM GAS  C:\Users\Grillmo\AppData\Local\Temp\ccQxsvUe.s 			page 17


 913              	.LVL88:
 914              		.loc 1 317 0
 915 000e 7047     		bx	lr
 916              	.LVL89:
 917              	.L47:
 918              		.loc 1 301 0
 919 0010 90F84530 		ldrb	r3, [r0, #69]	@ zero_extendqisi2
 920 0014 212B     		cmp	r3, #33
 921 0016 03D0     		beq	.L43
 922 0018 222B     		cmp	r3, #34
 923 001a 09D0     		beq	.L42
 924 001c 202B     		cmp	r3, #32
 925 001e F5D1     		bne	.L46
 926              	.L43:
 927              		.loc 1 306 0
 928 0020 064B     		ldr	r3, .L48
 929 0022 8363     		str	r3, [r0, #56]
 930 0024 0722     		movs	r2, #7
 931 0026 0023     		movs	r3, #0
 932 0028 C263     		str	r2, [r0, #60]
 933 002a 0364     		str	r3, [r0, #64]
 934              		.loc 1 307 0
 935 002c 0120     		movs	r0, #1
 936              	.LVL90:
 937 002e 7047     		bx	lr
 938              	.LVL91:
 939              	.L42:
 940              		.loc 1 310 0
 941 0030 0023     		movs	r3, #0
 942 0032 8363     		str	r3, [r0, #56]
 943 0034 C363     		str	r3, [r0, #60]
 944 0036 0364     		str	r3, [r0, #64]
 945              		.loc 1 311 0
 946 0038 0120     		movs	r0, #1
 947              	.LVL92:
 948 003a 7047     		bx	lr
 949              	.L49:
 950              		.align	2
 951              	.L48:
 952 003c 00000000 		.word	.LANCHOR1
 953              		.cfi_endproc
 954              	.LFE271:
 955              		.size	sduRequestsHook, .-sduRequestsHook
 956              		.section	.text.sduDataTransmitted,"ax",%progbits
 957              		.align	1
 958              		.p2align 4,,15
 959              		.global	sduDataTransmitted
 960              		.syntax unified
 961              		.thumb
 962              		.thumb_func
 963              		.fpu fpv4-sp-d16
 964              		.type	sduDataTransmitted, %function
 965              	sduDataTransmitted:
 966              	.LFB272:
 967              		.loc 1 327 0
 968              		.cfi_startproc
 969              		@ args = 0, pretend = 0, frame = 0
ARM GAS  C:\Users\Grillmo\AppData\Local\Temp\ccQxsvUe.s 			page 18


 970              		@ frame_needed = 0, uses_anonymous_args = 0
 971              	.LVL93:
 972 0000 F8B5     		push	{r3, r4, r5, r6, r7, lr}
 973              		.cfi_def_cfa_offset 24
 974              		.cfi_offset 3, -24
 975              		.cfi_offset 4, -20
 976              		.cfi_offset 5, -16
 977              		.cfi_offset 6, -12
 978              		.cfi_offset 7, -8
 979              		.cfi_offset 14, -4
 980              		.loc 1 329 0
 981 0002 00EB8103 		add	r3, r0, r1, lsl #2
 982 0006 9C69     		ldr	r4, [r3, #24]
 983              	.LVL94:
 984              		.loc 1 331 0
 985 0008 BCB1     		cbz	r4, .L50
 986              	.LVL95:
 987 000a 0E46     		mov	r6, r1
 988 000c 0546     		mov	r5, r0
 989              	.LBB266:
 990              	.LBB267:
 991              	.LBB268:
 992              	.LBB269:
 993              	.LBB270:
 994              	.LBB271:
 995              		.loc 3 546 0
 996 000e 2027     		movs	r7, #32
 997              		.syntax unified
 998              	@ 546 "ChibiOS_3.0.2/os/ext/CMSIS/include/core_cmFunc.h" 1
 999 0010 87F31188 		MSR basepri, r7
 1000              	@ 0 "" 2
 1001              	.LVL96:
 1002              		.thumb
 1003              		.syntax unified
 1004              	.LBE271:
 1005              	.LBE270:
 1006              	.LBE269:
 1007              	.LBE268:
 1008              	.LBE267:
 1009              	.LBE266:
 1010              	.LBB272:
 1011              	.LBB273:
 1012              		.loc 5 844 0
 1013 0014 0821     		movs	r1, #8
 1014              	.LVL97:
 1015 0016 201D     		adds	r0, r4, #4
 1016              	.LVL98:
 1017 0018 FFF7FEFF 		bl	chEvtBroadcastFlagsI
 1018              	.LVL99:
 1019              	.LBE273:
 1020              	.LBE272:
 1021              	.LBB274:
 1022              	.LBB275:
 1023              		.loc 2 357 0
 1024 001c 236C     		ldr	r3, [r4, #64]
 1025 001e E16B     		ldr	r1, [r4, #60]
 1026 0020 A26B     		ldr	r2, [r4, #56]
ARM GAS  C:\Users\Grillmo\AppData\Local\Temp\ccQxsvUe.s 			page 19


 1027 0022 5B1A     		subs	r3, r3, r1
 1028              	.LBE275:
 1029              	.LBE274:
 1030              		.loc 1 339 0
 1031 0024 9B1A     		subs	r3, r3, r2
 1032 0026 10D1     		bne	.L62
 1033              		.loc 1 349 0
 1034 0028 05EB8603 		add	r3, r5, r6, lsl #2
 1035 002c DB68     		ldr	r3, [r3, #12]
 1036 002e 5A69     		ldr	r2, [r3, #20]
 1037 0030 5268     		ldr	r2, [r2, #4]
 1038 0032 1AB9     		cbnz	r2, .L63
 1039              	.L53:
 1040              	.LVL100:
 1041              	.LBB276:
 1042              	.LBB277:
 1043              	.LBB278:
 1044              	.LBB279:
 1045              	.LBB280:
 1046              	.LBB281:
 1047              		.loc 3 546 0
 1048 0034 0023     		movs	r3, #0
 1049              		.syntax unified
 1050              	@ 546 "ChibiOS_3.0.2/os/ext/CMSIS/include/core_cmFunc.h" 1
 1051 0036 83F31188 		MSR basepri, r3
 1052              	@ 0 "" 2
 1053              	.LVL101:
 1054              		.thumb
 1055              		.syntax unified
 1056              	.L50:
 1057 003a F8BD     		pop	{r3, r4, r5, r6, r7, pc}
 1058              	.LVL102:
 1059              	.L63:
 1060              	.LBE281:
 1061              	.LBE280:
 1062              	.LBE279:
 1063              	.LBE278:
 1064              	.LBE277:
 1065              	.LBE276:
 1066              		.loc 1 351 0 discriminator 1
 1067 003c 1B8A     		ldrh	r3, [r3, #16]
 1068 003e 013B     		subs	r3, r3, #1
 1069              		.loc 1 349 0 discriminator 1
 1070 0040 1340     		ands	r3, r3, r2
 1071 0042 F7D1     		bne	.L53
 1072              	.LVL103:
 1073              	.LBB282:
 1074              	.LBB283:
 1075              	.LBB284:
 1076              	.LBB285:
 1077              	.LBB286:
 1078              	.LBB287:
 1079              		.loc 3 546 0
 1080              		.syntax unified
 1081              	@ 546 "ChibiOS_3.0.2/os/ext/CMSIS/include/core_cmFunc.h" 1
 1082 0044 83F31188 		MSR basepri, r3
 1083              	@ 0 "" 2
ARM GAS  C:\Users\Grillmo\AppData\Local\Temp\ccQxsvUe.s 			page 20


 1084              		.thumb
 1085              		.syntax unified
 1086 0048 02E0     		b	.L61
 1087              	.LVL104:
 1088              	.L62:
 1089              	.LBE287:
 1090              	.LBE286:
 1091              	.LBE285:
 1092              	.LBE284:
 1093              	.LBE283:
 1094              	.LBE282:
 1095              	.LBB288:
 1096              	.LBB289:
 1097              	.LBB290:
 1098              	.LBB291:
 1099              	.LBB292:
 1100              	.LBB293:
 1101 004a 0022     		movs	r2, #0
 1102              		.syntax unified
 1103              	@ 546 "ChibiOS_3.0.2/os/ext/CMSIS/include/core_cmFunc.h" 1
 1104 004c 82F31188 		MSR basepri, r2
 1105              	@ 0 "" 2
 1106              	.LVL105:
 1107              		.thumb
 1108              		.syntax unified
 1109              	.L61:
 1110              	.LBE293:
 1111              	.LBE292:
 1112              	.LBE291:
 1113              	.LBE290:
 1114              	.LBE289:
 1115              	.LBE288:
 1116              		.loc 1 358 0
 1117 0050 04F13002 		add	r2, r4, #48
 1118 0054 3146     		mov	r1, r6
 1119 0056 2846     		mov	r0, r5
 1120 0058 FFF7FEFF 		bl	usbPrepareQueuedTransmit
 1121              	.LVL106:
 1122              	.LBB294:
 1123              	.LBB295:
 1124              	.LBB296:
 1125              	.LBB297:
 1126              	.LBB298:
 1127              	.LBB299:
 1128              		.loc 3 546 0
 1129              		.syntax unified
 1130              	@ 546 "ChibiOS_3.0.2/os/ext/CMSIS/include/core_cmFunc.h" 1
 1131 005c 87F31188 		MSR basepri, r7
 1132              	@ 0 "" 2
 1133              	.LVL107:
 1134              		.thumb
 1135              		.syntax unified
 1136              	.LBE299:
 1137              	.LBE298:
 1138              	.LBE297:
 1139              	.LBE296:
 1140              	.LBE295:
ARM GAS  C:\Users\Grillmo\AppData\Local\Temp\ccQxsvUe.s 			page 21


 1141              	.LBE294:
 1142              		.loc 1 361 0
 1143 0060 3146     		mov	r1, r6
 1144 0062 2846     		mov	r0, r5
 1145 0064 FFF7FEFF 		bl	usbStartTransmitI
 1146              	.LVL108:
 1147 0068 E4E7     		b	.L53
 1148              		.cfi_endproc
 1149              	.LFE272:
 1150              		.size	sduDataTransmitted, .-sduDataTransmitted
 1151 006a 00BF     		.section	.text.sduDataReceived,"ax",%progbits
 1152              		.align	1
 1153              		.p2align 4,,15
 1154              		.global	sduDataReceived
 1155              		.syntax unified
 1156              		.thumb
 1157              		.thumb_func
 1158              		.fpu fpv4-sp-d16
 1159              		.type	sduDataReceived, %function
 1160              	sduDataReceived:
 1161              	.LFB273:
 1162              		.loc 1 376 0
 1163              		.cfi_startproc
 1164              		@ args = 0, pretend = 0, frame = 0
 1165              		@ frame_needed = 0, uses_anonymous_args = 0
 1166              	.LVL109:
 1167 0000 2DE9F843 		push	{r3, r4, r5, r6, r7, r8, r9, lr}
 1168              		.cfi_def_cfa_offset 32
 1169              		.cfi_offset 3, -32
 1170              		.cfi_offset 4, -28
 1171              		.cfi_offset 5, -24
 1172              		.cfi_offset 6, -20
 1173              		.cfi_offset 7, -16
 1174              		.cfi_offset 8, -12
 1175              		.cfi_offset 9, -8
 1176              		.cfi_offset 14, -4
 1177              		.loc 1 378 0
 1178 0004 01F10903 		add	r3, r1, #9
 1179 0008 50F82360 		ldr	r6, [r0, r3, lsl #2]
 1180              	.LVL110:
 1181              		.loc 1 380 0
 1182 000c BEB1     		cbz	r6, .L64
 1183              	.LVL111:
 1184 000e 8046     		mov	r8, r0
 1185 0010 0F46     		mov	r7, r1
 1186              	.LBB300:
 1187              	.LBB301:
 1188              	.LBB302:
 1189              	.LBB303:
 1190              	.LBB304:
 1191              	.LBB305:
 1192              		.loc 3 546 0
 1193 0012 4FF02009 		mov	r9, #32
 1194              		.syntax unified
 1195              	@ 546 "ChibiOS_3.0.2/os/ext/CMSIS/include/core_cmFunc.h" 1
 1196 0016 89F31188 		MSR basepri, r9
 1197              	@ 0 "" 2
ARM GAS  C:\Users\Grillmo\AppData\Local\Temp\ccQxsvUe.s 			page 22


 1198              	.LVL112:
 1199              		.thumb
 1200              		.syntax unified
 1201              	.LBE305:
 1202              	.LBE304:
 1203              	.LBE303:
 1204              	.LBE302:
 1205              	.LBE301:
 1206              	.LBE300:
 1207              	.LBB306:
 1208              	.LBB307:
 1209              		.loc 5 844 0
 1210 001a 0421     		movs	r1, #4
 1211              	.LVL113:
 1212 001c 7018     		adds	r0, r6, r1
 1213              	.LVL114:
 1214 001e FFF7FEFF 		bl	chEvtBroadcastFlagsI
 1215              	.LVL115:
 1216              	.LBE307:
 1217              	.LBE306:
 1218              		.loc 1 389 0
 1219 0022 08EB8703 		add	r3, r8, r7, lsl #2
 1220              	.LBB308:
 1221              	.LBB309:
 1222              		.loc 2 290 0
 1223 0026 F569     		ldr	r5, [r6, #28]
 1224              	.LBE309:
 1225              	.LBE308:
 1226              		.loc 1 389 0
 1227 0028 DB68     		ldr	r3, [r3, #12]
 1228              	.LBB312:
 1229              	.LBB310:
 1230              		.loc 2 290 0
 1231 002a B469     		ldr	r4, [r6, #24]
 1232 002c 7269     		ldr	r2, [r6, #20]
 1233              	.LBE310:
 1234              	.LBE312:
 1235              		.loc 1 389 0
 1236 002e 5B8A     		ldrh	r3, [r3, #18]
 1237              	.LVL116:
 1238              	.LBB313:
 1239              	.LBB311:
 1240              		.loc 2 290 0
 1241 0030 2C1B     		subs	r4, r5, r4
 1242 0032 A41A     		subs	r4, r4, r2
 1243              	.LVL117:
 1244              	.LBE311:
 1245              	.LBE313:
 1246              		.loc 1 390 0
 1247 0034 A342     		cmp	r3, r4
 1248 0036 04D9     		bls	.L71
 1249              	.LVL118:
 1250              	.L66:
 1251              	.LBB314:
 1252              	.LBB315:
 1253              	.LBB316:
 1254              	.LBB317:
ARM GAS  C:\Users\Grillmo\AppData\Local\Temp\ccQxsvUe.s 			page 23


 1255              	.LBB318:
 1256              	.LBB319:
 1257              		.loc 3 546 0
 1258 0038 0023     		movs	r3, #0
 1259              		.syntax unified
 1260              	@ 546 "ChibiOS_3.0.2/os/ext/CMSIS/include/core_cmFunc.h" 1
 1261 003a 83F31188 		MSR basepri, r3
 1262              	@ 0 "" 2
 1263              	.LVL119:
 1264              		.thumb
 1265              		.syntax unified
 1266              	.L64:
 1267 003e BDE8F883 		pop	{r3, r4, r5, r6, r7, r8, r9, pc}
 1268              	.LVL120:
 1269              	.L71:
 1270              	.LBE319:
 1271              	.LBE318:
 1272              	.LBE317:
 1273              	.LBE316:
 1274              	.LBE315:
 1275              	.LBE314:
 1276              	.LBB320:
 1277              	.LBB321:
 1278              	.LBB322:
 1279              	.LBB323:
 1280              	.LBB324:
 1281              	.LBB325:
 1282 0042 0022     		movs	r2, #0
 1283              		.syntax unified
 1284              	@ 546 "ChibiOS_3.0.2/os/ext/CMSIS/include/core_cmFunc.h" 1
 1285 0044 82F31188 		MSR basepri, r2
 1286              	@ 0 "" 2
 1287              	.LVL121:
 1288              		.thumb
 1289              		.syntax unified
 1290              	.LBE325:
 1291              	.LBE324:
 1292              	.LBE323:
 1293              	.LBE322:
 1294              	.LBE321:
 1295              	.LBE320:
 1296              		.loc 1 395 0
 1297 0048 B4FBF3F4 		udiv	r4, r4, r3
 1298              	.LVL122:
 1299              		.loc 1 396 0
 1300 004c 06F10C02 		add	r2, r6, #12
 1301 0050 03FB04F3 		mul	r3, r3, r4
 1302              	.LVL123:
 1303 0054 3946     		mov	r1, r7
 1304 0056 4046     		mov	r0, r8
 1305 0058 FFF7FEFF 		bl	usbPrepareQueuedReceive
 1306              	.LVL124:
 1307              	.LBB326:
 1308              	.LBB327:
 1309              	.LBB328:
 1310              	.LBB329:
 1311              	.LBB330:
ARM GAS  C:\Users\Grillmo\AppData\Local\Temp\ccQxsvUe.s 			page 24


 1312              	.LBB331:
 1313              		.loc 3 546 0
 1314              		.syntax unified
 1315              	@ 546 "ChibiOS_3.0.2/os/ext/CMSIS/include/core_cmFunc.h" 1
 1316 005c 89F31188 		MSR basepri, r9
 1317              	@ 0 "" 2
 1318              	.LVL125:
 1319              		.thumb
 1320              		.syntax unified
 1321              	.LBE331:
 1322              	.LBE330:
 1323              	.LBE329:
 1324              	.LBE328:
 1325              	.LBE327:
 1326              	.LBE326:
 1327              		.loc 1 399 0
 1328 0060 3946     		mov	r1, r7
 1329 0062 4046     		mov	r0, r8
 1330 0064 FFF7FEFF 		bl	usbStartReceiveI
 1331              	.LVL126:
 1332 0068 E6E7     		b	.L66
 1333              		.cfi_endproc
 1334              	.LFE273:
 1335              		.size	sduDataReceived, .-sduDataReceived
 1336 006a 00BF     		.section	.text.sduInterruptTransmitted,"ax",%progbits
 1337              		.align	1
 1338              		.p2align 4,,15
 1339              		.global	sduInterruptTransmitted
 1340              		.syntax unified
 1341              		.thumb
 1342              		.thumb_func
 1343              		.fpu fpv4-sp-d16
 1344              		.type	sduInterruptTransmitted, %function
 1345              	sduInterruptTransmitted:
 1346              	.LFB274:
 1347              		.loc 1 412 0
 1348              		.cfi_startproc
 1349              		@ args = 0, pretend = 0, frame = 0
 1350              		@ frame_needed = 0, uses_anonymous_args = 0
 1351              		@ link register save eliminated.
 1352              	.LVL127:
 1353 0000 7047     		bx	lr
 1354              		.cfi_endproc
 1355              	.LFE274:
 1356              		.size	sduInterruptTransmitted, .-sduInterruptTransmitted
 1357 0002 00BF     		.section	.data.linecoding,"aw",%progbits
 1358              		.align	2
 1359              		.set	.LANCHOR1,. + 0
 1360              		.type	linecoding, %object
 1361              		.size	linecoding, 7
 1362              	linecoding:
 1363 0000 00       		.byte	0
 1364 0001 96       		.byte	-106
 1365 0002 00       		.byte	0
 1366 0003 00       		.byte	0
 1367 0004 00       		.byte	0
 1368 0005 00       		.byte	0
ARM GAS  C:\Users\Grillmo\AppData\Local\Temp\ccQxsvUe.s 			page 25


 1369 0006 08       		.byte	8
 1370              		.section	.rodata.vmt,"a",%progbits
 1371              		.align	2
 1372              		.set	.LANCHOR0,. + 0
 1373              		.type	vmt, %object
 1374              		.size	vmt, 32
 1375              	vmt:
 1376 0000 00000000 		.word	write
 1377 0004 00000000 		.word	read
 1378 0008 00000000 		.word	put
 1379 000c 00000000 		.word	get
 1380 0010 00000000 		.word	putt
 1381 0014 00000000 		.word	gett
 1382 0018 00000000 		.word	writet
 1383 001c 00000000 		.word	readt
 1384              		.text
 1385              	.Letext0:
 1386              		.file 6 "c:\\chibistudio\\tools\\gnu tools arm embedded\\6.3 2017q1\\lib\\gcc\\arm-none-eabi\\6.3.
 1387              		.file 7 "c:\\chibistudio\\tools\\gnu tools arm embedded\\6.3 2017q1\\arm-none-eabi\\include\\machi
 1388              		.file 8 "c:\\chibistudio\\tools\\gnu tools arm embedded\\6.3 2017q1\\arm-none-eabi\\include\\sys\\
 1389              		.file 9 "ChibiOS_3.0.2/os/rt/ports/ARMCMx/compilers/GCC/chtypes.h"
 1390              		.file 10 "ChibiOS_3.0.2/os/rt/include/chsystypes.h"
 1391              		.file 11 "ChibiOS_3.0.2/os/rt/include/chschd.h"
 1392              		.file 12 "ChibiOS_3.0.2/os/ext/CMSIS/include/core_cm4.h"
 1393              		.file 13 "ChibiOS_3.0.2/os/ext/CMSIS/ST/system_stm32f4xx.h"
 1394              		.file 14 "ChibiOS_3.0.2/os/ext/CMSIS/ST/stm32f407xx.h"
 1395              		.file 15 "ChibiOS_3.0.2/os/rt/ports/ARMCMx/chcore.h"
 1396              		.file 16 "ChibiOS_3.0.2/os/rt/ports/ARMCMx/chcore_v7m.h"
 1397              		.file 17 "ChibiOS_3.0.2/os/rt/include/chtm.h"
 1398              		.file 18 "ChibiOS_3.0.2/os/rt/include/chsem.h"
 1399              		.file 19 "ChibiOS_3.0.2/os/rt/include/chmtx.h"
 1400              		.file 20 "ChibiOS_3.0.2/os/rt/include/chregistry.h"
 1401              		.file 21 "./conf_general.h"
 1402              		.file 22 "ChibiOS_3.0.2/os/hal/ports/STM32/STM32F4xx/stm32_dma.h"
 1403              		.file 23 "ChibiOS_3.0.2/os/hal/ports/STM32/LLD/GPIOv2/pal_lld.h"
 1404              		.file 24 "ChibiOS_3.0.2/os/hal/include/can.h"
 1405              		.file 25 "ChibiOS_3.0.2/os/hal/ports/STM32/LLD/can_lld.h"
 1406              		.file 26 "ChibiOS_3.0.2/os/hal/include/i2c.h"
 1407              		.file 27 "ChibiOS_3.0.2/os/hal/ports/STM32/LLD/I2Cv1/i2c_lld.h"
 1408              		.file 28 "ChibiOS_3.0.2/os/hal/include/icu.h"
 1409              		.file 29 "ChibiOS_3.0.2/os/hal/ports/STM32/LLD/TIMv1/icu_lld.h"
 1410              		.file 30 "ChibiOS_3.0.2/os/hal/ports/STM32/LLD/TIMv1/stm32_tim.h"
 1411              		.file 31 "ChibiOS_3.0.2/os/hal/include/spi.h"
 1412              		.file 32 "ChibiOS_3.0.2/os/hal/ports/STM32/LLD/SPIv1/spi_lld.h"
 1413              		.file 33 "ChibiOS_3.0.2/os/hal/include/uart.h"
 1414              		.file 34 "ChibiOS_3.0.2/os/hal/ports/STM32/LLD/USARTv1/uart_lld.h"
 1415              		.file 35 "ChibiOS_3.0.2/os/hal/include/usb.h"
 1416              		.file 36 "ChibiOS_3.0.2/os/hal/ports/STM32/LLD/OTGv1/usb_lld.h"
 1417              		.file 37 "ChibiOS_3.0.2/os/hal/ports/STM32/LLD/OTGv1/stm32_otg.h"
 1418              		.file 38 "ChibiOS_3.0.2/os/hal/include/serial_usb.h"
 1419              		.file 39 "ChibiOS_3.0.2/os/rt/include/chsys.h"