ARM GAS  /var/tmp//ccZRtMPf.s 			page 1


   1              		.cpu cortex-m4
   2              		.eabi_attribute 27, 1
   3              		.eabi_attribute 28, 1
   4              		.eabi_attribute 20, 1
   5              		.eabi_attribute 21, 1
   6              		.eabi_attribute 23, 3
   7              		.eabi_attribute 24, 1
   8              		.eabi_attribute 25, 1
   9              		.eabi_attribute 26, 1
  10              		.eabi_attribute 30, 2
  11              		.eabi_attribute 34, 1
  12              		.eabi_attribute 18, 4
  13              		.file	"servo_dec.c"
  14              		.text
  15              	.Ltext0:
  16              		.cfi_sections	.debug_frame
  17              		.section	.text.icuperiodcb,"ax",%progbits
  18              		.align	1
  19              		.p2align 4,,15
  20              		.syntax unified
  21              		.thumb
  22              		.thumb_func
  23              		.fpu fpv4-sp-d16
  24              		.type	icuperiodcb, %function
  25              	icuperiodcb:
  26              	.LFB257:
  27              		.file 1 "servo_dec.c"
  28              		.loc 1 89 0
  29              		.cfi_startproc
  30              		@ args = 0, pretend = 0, frame = 0
  31              		@ frame_needed = 0, uses_anonymous_args = 0
  32              		@ link register save eliminated.
  33              	.LVL0:
  34 0000 7047     		bx	lr
  35              		.cfi_endproc
  36              	.LFE257:
  37              		.size	icuperiodcb, .-icuperiodcb
  38 0002 00BF     		.section	.text.icuwidthcb,"ax",%progbits
  39              		.align	1
  40              		.p2align 4,,15
  41              		.syntax unified
  42              		.thumb
  43              		.thumb_func
  44              		.fpu fpv4-sp-d16
  45              		.type	icuwidthcb, %function
  46              	icuwidthcb:
  47              	.LFB256:
  48              		.loc 1 45 0
  49              		.cfi_startproc
  50              		@ args = 0, pretend = 0, frame = 0
  51              		@ frame_needed = 0, uses_anonymous_args = 0
  52              	.LVL1:
  53              		.loc 1 46 0
  54 0000 0369     		ldr	r3, [r0, #16]
  55 0002 DFED416A 		vldr.32	s13, .L28
  56 0006 1B68     		ldr	r3, [r3]
  57 0008 4049     		ldr	r1, .L28+4
ARM GAS  /var/tmp//ccZRtMPf.s 			page 2


  58              		.loc 1 47 0
  59 000a 414A     		ldr	r2, .L28+8
  60              		.loc 1 48 0
  61 000c 4148     		ldr	r0, .L28+12
  62              	.LVL2:
  63              		.loc 1 46 0
  64 000e 0133     		adds	r3, r3, #1
  65 0010 07EE903A 		vmov	s15, r3	@ int
  66 0014 F8EE677A 		vcvt.f32.u32	s15, s15
  67 0018 87EEA67A 		vdiv.f32	s14, s15, s13
  68 001c 81ED007A 		vstr.32	s14, [r1]
  69              		.loc 1 47 0
  70 0020 D1ED007A 		vldr.32	s15, [r1]
  71 0024 92ED006A 		vldr.32	s12, [r2]
  72              		.loc 1 48 0
  73 0028 90ED007A 		vldr.32	s14, [r0]
  74 002c D2ED006A 		vldr.32	s13, [r2]
  75              		.loc 1 47 0
  76 0030 77EEC67A 		vsub.f32	s15, s15, s12
  77              	.LVL3:
  78              		.loc 1 48 0
  79 0034 37EE667A 		vsub.f32	s14, s14, s13
  80              	.LVL4:
  81              		.loc 1 50 0
  82 0038 F4EEC77A 		vcmpe.f32	s15, s14
  83 003c F1EE10FA 		vmrs	APSR_nzcv, FPSCR
  84 0040 30DD     		ble	.L21
  85              		.loc 1 51 0
  86 0042 DFED356A 		vldr.32	s13, .L28+16
  87 0046 67EE266A 		vmul.f32	s13, s14, s13
  88 004a F4EEE67A 		vcmpe.f32	s15, s13
  89 004e F1EE10FA 		vmrs	APSR_nzcv, FPSCR
  90 0052 3CD5     		bpl	.L26
  91              		.loc 1 52 0
  92 0054 F0EE477A 		vmov.f32	s15, s14
  93              	.LVL5:
  94              	.L5:
  95              		.loc 1 66 0
  96 0058 F5EEC07A 		vcmpe.f32	s15, #0
  97 005c F1EE10FA 		vmrs	APSR_nzcv, FPSCR
  98 0060 50DB     		blt	.L23
  99 0062 77EEA77A 		vadd.f32	s15, s15, s15
 100              	.LVL6:
 101              	.L8:
 102              		.loc 1 45 0
 103 0066 70B5     		push	{r4, r5, r6, lr}
 104              		.cfi_def_cfa_offset 16
 105              		.cfi_offset 4, -16
 106              		.cfi_offset 5, -12
 107              		.cfi_offset 6, -8
 108              		.cfi_offset 14, -4
 109              		.loc 1 67 0
 110 0068 2C4B     		ldr	r3, .L28+20
 111 006a 1B78     		ldrb	r3, [r3]	@ zero_extendqisi2
 112              		.loc 1 45 0
 113 006c 2DED028B 		vpush.64	{d8}
 114              		.cfi_def_cfa_offset 24
ARM GAS  /var/tmp//ccZRtMPf.s 			page 3


 115              		.cfi_offset 80, -24
 116              		.cfi_offset 81, -20
 117              	.LBB46:
 118              		.loc 1 68 0
 119 0070 77EEC77A 		vsub.f32	s15, s15, s14
 120              	.LBE46:
 121              		.loc 1 67 0
 122 0074 7BBB     		cbnz	r3, .L27
 123              		.loc 1 78 0
 124 0076 C7EE876A 		vdiv.f32	s13, s15, s14
 125 007a 294B     		ldr	r3, .L28+24
 126 007c C3ED006A 		vstr.32	s13, [r3]
 127              	.LVL7:
 128              	.L12:
 129              	.LBB47:
 130              	.LBB48:
 131              	.LBB49:
 132              	.LBB50:
 133              	.LBB51:
 134              	.LBB52:
 135              		.file 2 "ChibiOS_3.0.2/os/ext/CMSIS/include/core_cmFunc.h"
 136              		.loc 2 546 0
 137 0080 2023     		movs	r3, #32
 138              		.syntax unified
 139              	@ 546 "ChibiOS_3.0.2/os/ext/CMSIS/include/core_cmFunc.h" 1
 140 0082 83F31188 		MSR basepri, r3
 141              	@ 0 "" 2
 142              	.LVL8:
 143              		.thumb
 144              		.syntax unified
 145              	.LBE52:
 146              	.LBE51:
 147              	.LBE50:
 148              	.LBE49:
 149              	.LBB53:
 150              	.LBB54:
 151              		.file 3 "ChibiOS_3.0.2/os/rt/include/chvt.h"
 152              		.loc 3 231 0
 153 0086 274A     		ldr	r2, .L28+28
 154              	.LBE54:
 155              	.LBE53:
 156              	.LBB56:
 157              	.LBB57:
 158              	.LBB58:
 159              	.LBB59:
 160              	.LBB60:
 161              		.loc 2 546 0
 162 0088 0023     		movs	r3, #0
 163              	.LBE60:
 164              	.LBE59:
 165              	.LBE58:
 166              	.LBE57:
 167              	.LBE56:
 168              	.LBB65:
 169              	.LBB55:
 170              		.loc 3 231 0
 171 008a 916A     		ldr	r1, [r2, #40]
ARM GAS  /var/tmp//ccZRtMPf.s 			page 4


 172              	.LVL9:
 173              	.LBE55:
 174              	.LBE65:
 175              	.LBB66:
 176              	.LBB64:
 177              	.LBB63:
 178              	.LBB62:
 179              	.LBB61:
 180              		.loc 2 546 0
 181              		.syntax unified
 182              	@ 546 "ChibiOS_3.0.2/os/ext/CMSIS/include/core_cmFunc.h" 1
 183 008c 83F31188 		MSR basepri, r3
 184              	@ 0 "" 2
 185              	.LVL10:
 186              		.thumb
 187              		.syntax unified
 188              	.LBE61:
 189              	.LBE62:
 190              	.LBE63:
 191              	.LBE64:
 192              	.LBE66:
 193              	.LBE48:
 194              	.LBE47:
 195              		.loc 1 83 0
 196 0090 254B     		ldr	r3, .L28+32
 197              		.loc 1 81 0
 198 0092 264A     		ldr	r2, .L28+36
 199              		.loc 1 83 0
 200 0094 1B68     		ldr	r3, [r3]
 201              		.loc 1 81 0
 202 0096 1160     		str	r1, [r2]
 203              		.loc 1 83 0
 204 0098 D3B1     		cbz	r3, .L2
 205              		.loc 1 87 0
 206 009a BDEC028B 		vldm	sp!, {d8}
 207              		.cfi_restore 80
 208              		.cfi_restore 81
 209              		.cfi_def_cfa_offset 16
 210 009e BDE87040 		pop	{r4, r5, r6, lr}
 211              		.cfi_restore 14
 212              		.cfi_restore 6
 213              		.cfi_restore 5
 214              		.cfi_restore 4
 215              		.cfi_def_cfa_offset 0
 216              		.loc 1 84 0
 217 00a2 1847     		bx	r3	@ indirect register sibling call
 218              	.LVL11:
 219              	.L21:
 220              		.loc 1 57 0
 221 00a4 F5EEC07A 		vcmpe.f32	s15, #0
 222 00a8 F1EE10FA 		vmrs	APSR_nzcv, FPSCR
 223 00ac D4D5     		bpl	.L5
 224              		.loc 1 58 0
 225 00ae D2ED005A 		vldr.32	s11, [r2]
 226 00b2 9FED1F6A 		vldr.32	s12, .L28+40
 227 00b6 D2ED006A 		vldr.32	s13, [r2]
 228 00ba 77EEA57A 		vadd.f32	s15, s15, s11
ARM GAS  /var/tmp//ccZRtMPf.s 			page 5


 229              	.LVL12:
 230 00be 66EE866A 		vmul.f32	s13, s13, s12
 231 00c2 F4EEE67A 		vcmpe.f32	s15, s13
 232 00c6 F1EE10FA 		vmrs	APSR_nzcv, FPSCR
 233 00ca 18DC     		bgt	.L14
 234 00cc 7047     		bx	lr
 235              	.LVL13:
 236              	.L26:
 237 00ce 7047     		bx	lr
 238              	.LVL14:
 239              	.L2:
 240              		.cfi_def_cfa_offset 24
 241              		.cfi_offset 4, -16
 242              		.cfi_offset 5, -12
 243              		.cfi_offset 6, -8
 244              		.cfi_offset 14, -4
 245              		.cfi_offset 80, -24
 246              		.cfi_offset 81, -20
 247              		.loc 1 87 0
 248 00d0 BDEC028B 		vldm	sp!, {d8}
 249              		.cfi_remember_state
 250              		.cfi_restore 80
 251              		.cfi_restore 81
 252              		.cfi_def_cfa_offset 16
 253 00d4 70BD     		pop	{r4, r5, r6, pc}
 254              	.LVL15:
 255              	.L27:
 256              		.cfi_restore_state
 257              	.LBB67:
 258              		.loc 1 68 0
 259 00d6 87EE878A 		vdiv.f32	s16, s15, s14
 260              	.LVL16:
 261              		.loc 1 71 0
 262 00da 164C     		ldr	r4, .L28+44
 263 00dc 164D     		ldr	r5, .L28+48
 264 00de D4ED000A 		vldr.32	s1, [r4]
 265 00e2 95ED001A 		vldr.32	s2, [r5]
 266 00e6 B0EE480A 		vmov.f32	s0, s16
 267 00ea FFF7FEFF 		bl	utils_middle_of_3
 268              	.LVL17:
 269              		.loc 1 76 0
 270 00ee 0C4B     		ldr	r3, .L28+24
 271              		.loc 1 73 0
 272 00f0 2268     		ldr	r2, [r4]	@ float
 273 00f2 2A60     		str	r2, [r5]	@ float
 274              		.loc 1 74 0
 275 00f4 84ED008A 		vstr.32	s16, [r4]
 276              		.loc 1 76 0
 277 00f8 83ED000A 		vstr.32	s0, [r3]
 278              	.LBE67:
 279 00fc C0E7     		b	.L12
 280              	.LVL18:
 281              	.L14:
 282              		.cfi_def_cfa_offset 0
 283              		.cfi_restore 4
 284              		.cfi_restore 5
 285              		.cfi_restore 6
ARM GAS  /var/tmp//ccZRtMPf.s 			page 6


 286              		.cfi_restore 14
 287              		.cfi_restore 80
 288              		.cfi_restore 81
 289 00fe DFED0F7A 		vldr.32	s15, .L28+52
 290 0102 B0E7     		b	.L8
 291              	.LVL19:
 292              	.L23:
 293 0104 7047     		bx	lr
 294              	.L29:
 295 0106 00BF     		.align	2
 296              	.L28:
 297 0108 00007A44 		.word	1148846080
 298 010c 00000000 		.word	.LANCHOR0
 299 0110 00000000 		.word	.LANCHOR1
 300 0114 00000000 		.word	.LANCHOR2
 301 0118 9A99993F 		.word	1067030938
 302 011c 00000000 		.word	.LANCHOR3
 303 0120 00000000 		.word	.LANCHOR6
 304 0124 00000000 		.word	ch
 305 0128 00000000 		.word	.LANCHOR8
 306 012c 00000000 		.word	.LANCHOR7
 307 0130 CDCC4C3F 		.word	1061997773
 308 0134 00000000 		.word	.LANCHOR5
 309 0138 00000000 		.word	.LANCHOR4
 310 013c 00000000 		.word	0
 311              		.cfi_endproc
 312              	.LFE256:
 313              		.size	icuwidthcb, .-icuwidthcb
 314              		.section	.text.servodec_init,"ax",%progbits
 315              		.align	1
 316              		.p2align 4,,15
 317              		.global	servodec_init
 318              		.syntax unified
 319              		.thumb
 320              		.thumb_func
 321              		.fpu fpv4-sp-d16
 322              		.type	servodec_init, %function
 323              	servodec_init:
 324              	.LFB258:
 325              		.loc 1 110 0
 326              		.cfi_startproc
 327              		@ args = 0, pretend = 0, frame = 0
 328              		@ frame_needed = 0, uses_anonymous_args = 0
 329              	.LVL20:
 330 0000 38B5     		push	{r3, r4, r5, lr}
 331              		.cfi_def_cfa_offset 16
 332              		.cfi_offset 3, -16
 333              		.cfi_offset 4, -12
 334              		.cfi_offset 5, -8
 335              		.cfi_offset 14, -4
 336              		.loc 1 111 0
 337 0002 0E4C     		ldr	r4, .L32
 338 0004 0E49     		ldr	r1, .L32+4
 339              		.loc 1 110 0
 340 0006 0546     		mov	r5, r0
 341              		.loc 1 111 0
 342 0008 2046     		mov	r0, r4
ARM GAS  /var/tmp//ccZRtMPf.s 			page 7


 343              	.LVL21:
 344 000a FFF7FEFF 		bl	icuStart
 345              	.LVL22:
 346              		.loc 1 112 0
 347 000e 4FF48172 		mov	r2, #258
 348 0012 2021     		movs	r1, #32
 349 0014 0B48     		ldr	r0, .L32+8
 350 0016 FFF7FEFF 		bl	_pal_lld_setgroupmode
 351              	.LVL23:
 352              		.loc 1 113 0
 353 001a 2046     		mov	r0, r4
 354 001c FFF7FEFF 		bl	icuStartCapture
 355              	.LVL24:
 356              		.loc 1 114 0
 357 0020 2046     		mov	r0, r4
 358 0022 FFF7FEFF 		bl	icuEnableNotifications
 359              	.LVL25:
 360              		.loc 1 122 0
 361 0026 0849     		ldr	r1, .L32+12
 362              	.LBB68:
 363              		.loc 1 117 0
 364 0028 084C     		ldr	r4, .L32+16
 365              		.loc 1 118 0
 366 002a 0948     		ldr	r0, .L32+20
 367              	.LBE68:
 368              		.loc 1 124 0
 369 002c 094A     		ldr	r2, .L32+24
 370              		.loc 1 122 0
 371 002e 0D60     		str	r5, [r1]
 372              	.LBB69:
 373              		.loc 1 117 0
 374 0030 0023     		movs	r3, #0
 375              	.LBE69:
 376              		.loc 1 124 0
 377 0032 0121     		movs	r1, #1
 378              	.LBB70:
 379              		.loc 1 117 0
 380 0034 2360     		str	r3, [r4]	@ float
 381              		.loc 1 118 0
 382 0036 0360     		str	r3, [r0]	@ float
 383              	.LVL26:
 384              	.LBE70:
 385              		.loc 1 124 0
 386 0038 1170     		strb	r1, [r2]
 387 003a 38BD     		pop	{r3, r4, r5, pc}
 388              	.LVL27:
 389              	.L33:
 390              		.align	2
 391              	.L32:
 392 003c 00000000 		.word	ICUD3
 393 0040 00000000 		.word	.LANCHOR9
 394 0044 00040240 		.word	1073873920
 395 0048 00000000 		.word	.LANCHOR8
 396 004c 00000000 		.word	.LANCHOR6
 397 0050 00000000 		.word	.LANCHOR0
 398 0054 00000000 		.word	.LANCHOR10
 399              		.cfi_endproc
ARM GAS  /var/tmp//ccZRtMPf.s 			page 8


 400              	.LFE258:
 401              		.size	servodec_init, .-servodec_init
 402              		.section	.text.servodec_stop,"ax",%progbits
 403              		.align	1
 404              		.p2align 4,,15
 405              		.global	servodec_stop
 406              		.syntax unified
 407              		.thumb
 408              		.thumb_func
 409              		.fpu fpv4-sp-d16
 410              		.type	servodec_stop, %function
 411              	servodec_stop:
 412              	.LFB259:
 413              		.loc 1 130 0
 414              		.cfi_startproc
 415              		@ args = 0, pretend = 0, frame = 0
 416              		@ frame_needed = 0, uses_anonymous_args = 0
 417 0000 F8B5     		push	{r3, r4, r5, r6, r7, lr}
 418              		.cfi_def_cfa_offset 24
 419              		.cfi_offset 3, -24
 420              		.cfi_offset 4, -20
 421              		.cfi_offset 5, -16
 422              		.cfi_offset 6, -12
 423              		.cfi_offset 7, -8
 424              		.cfi_offset 14, -4
 425              		.loc 1 131 0
 426 0002 0D4C     		ldr	r4, .L40
 427 0004 2378     		ldrb	r3, [r4]	@ zero_extendqisi2
 428 0006 A3B1     		cbz	r3, .L35
 429              		.loc 1 132 0
 430 0008 0C48     		ldr	r0, .L40+4
 431              		.loc 1 134 0
 432 000a 0D4E     		ldr	r6, .L40+8
 433              		.loc 1 137 0
 434 000c 0D4D     		ldr	r5, .L40+12
 435              		.loc 1 132 0
 436 000e FFF7FEFF 		bl	icuStop
 437              	.LVL28:
 438              		.loc 1 133 0
 439 0012 0022     		movs	r2, #0
 440 0014 2021     		movs	r1, #32
 441 0016 0C48     		ldr	r0, .L40+16
 442 0018 FFF7FEFF 		bl	_pal_lld_setgroupmode
 443              	.LVL29:
 444              		.loc 1 135 0
 445 001c 0B49     		ldr	r1, .L40+20
 446              		.loc 1 136 0
 447 001e 0C4A     		ldr	r2, .L40+24
 448 0020 0023     		movs	r3, #0
 449              		.loc 1 134 0
 450 0022 4FF07E57 		mov	r7, #1065353216
 451              		.loc 1 135 0
 452 0026 4FF08040 		mov	r0, #1073741824
 453              		.loc 1 134 0
 454 002a 3760     		str	r7, [r6]	@ float
 455              		.loc 1 137 0
 456 002c 2B60     		str	r3, [r5]
ARM GAS  /var/tmp//ccZRtMPf.s 			page 9


 457              		.loc 1 135 0
 458 002e 0860     		str	r0, [r1]	@ float
 459              		.loc 1 136 0
 460 0030 1370     		strb	r3, [r2]
 461              	.L35:
 462              		.loc 1 140 0
 463 0032 0023     		movs	r3, #0
 464 0034 2370     		strb	r3, [r4]
 465 0036 F8BD     		pop	{r3, r4, r5, r6, r7, pc}
 466              	.L41:
 467              		.align	2
 468              	.L40:
 469 0038 00000000 		.word	.LANCHOR10
 470 003c 00000000 		.word	ICUD3
 471 0040 00000000 		.word	.LANCHOR1
 472 0044 00000000 		.word	.LANCHOR8
 473 0048 00040240 		.word	1073873920
 474 004c 00000000 		.word	.LANCHOR2
 475 0050 00000000 		.word	.LANCHOR3
 476              		.cfi_endproc
 477              	.LFE259:
 478              		.size	servodec_stop, .-servodec_stop
 479              		.section	.text.servodec_set_pulse_options,"ax",%progbits
 480              		.align	1
 481              		.p2align 4,,15
 482              		.global	servodec_set_pulse_options
 483              		.syntax unified
 484              		.thumb
 485              		.thumb_func
 486              		.fpu fpv4-sp-d16
 487              		.type	servodec_set_pulse_options, %function
 488              	servodec_set_pulse_options:
 489              	.LFB260:
 490              		.loc 1 152 0
 491              		.cfi_startproc
 492              		@ args = 0, pretend = 0, frame = 0
 493              		@ frame_needed = 0, uses_anonymous_args = 0
 494              		@ link register save eliminated.
 495              	.LVL30:
 496              		.loc 1 153 0
 497 0000 0449     		ldr	r1, .L43
 498              		.loc 1 154 0
 499 0002 054A     		ldr	r2, .L43+4
 500              		.loc 1 155 0
 501 0004 054B     		ldr	r3, .L43+8
 502              		.loc 1 153 0
 503 0006 81ED000A 		vstr.32	s0, [r1]
 504              		.loc 1 154 0
 505 000a C2ED000A 		vstr.32	s1, [r2]
 506              		.loc 1 155 0
 507 000e 1870     		strb	r0, [r3]
 508 0010 7047     		bx	lr
 509              	.L44:
 510 0012 00BF     		.align	2
 511              	.L43:
 512 0014 00000000 		.word	.LANCHOR1
 513 0018 00000000 		.word	.LANCHOR2
ARM GAS  /var/tmp//ccZRtMPf.s 			page 10


 514 001c 00000000 		.word	.LANCHOR3
 515              		.cfi_endproc
 516              	.LFE260:
 517              		.size	servodec_set_pulse_options, .-servodec_set_pulse_options
 518              		.section	.text.servodec_get_servo,"ax",%progbits
 519              		.align	1
 520              		.p2align 4,,15
 521              		.global	servodec_get_servo
 522              		.syntax unified
 523              		.thumb
 524              		.thumb_func
 525              		.fpu fpv4-sp-d16
 526              		.type	servodec_get_servo, %function
 527              	servodec_get_servo:
 528              	.LFB261:
 529              		.loc 1 167 0
 530              		.cfi_startproc
 531              		@ args = 0, pretend = 0, frame = 0
 532              		@ frame_needed = 0, uses_anonymous_args = 0
 533              		@ link register save eliminated.
 534              	.LVL31:
 535              		.loc 1 168 0
 536 0000 0028     		cmp	r0, #0
 537              		.loc 1 169 0
 538 0002 DDBF     		ittte	le
 539 0004 034B     		ldrle	r3, .L48
 540 0006 03EB8000 		addle	r0, r3, r0, lsl #2
 541              	.LVL32:
 542 000a 90ED000A 		vldrle.32	s0, [r0]
 543              		.loc 1 171 0
 544 000e 9FED020A 		vldrgt.32	s0, .L48+4
 545              		.loc 1 173 0
 546 0012 7047     		bx	lr
 547              	.L49:
 548              		.align	2
 549              	.L48:
 550 0014 00000000 		.word	.LANCHOR6
 551 0018 00000000 		.word	0
 552              		.cfi_endproc
 553              	.LFE261:
 554              		.size	servodec_get_servo, .-servodec_get_servo
 555              		.section	.text.servodec_get_time_since_update,"ax",%progbits
 556              		.align	1
 557              		.p2align 4,,15
 558              		.global	servodec_get_time_since_update
 559              		.syntax unified
 560              		.thumb
 561              		.thumb_func
 562              		.fpu fpv4-sp-d16
 563              		.type	servodec_get_time_since_update, %function
 564              	servodec_get_time_since_update:
 565              	.LFB262:
 566              		.loc 1 182 0
 567              		.cfi_startproc
 568              		@ args = 0, pretend = 0, frame = 0
 569              		@ frame_needed = 0, uses_anonymous_args = 0
 570              		@ link register save eliminated.
ARM GAS  /var/tmp//ccZRtMPf.s 			page 11


 571              	.LBB71:
 572              	.LBB72:
 573              	.LBB73:
 574              	.LBB74:
 575              		.loc 3 231 0
 576 0000 044B     		ldr	r3, .L51
 577              	.LBE74:
 578              	.LBE73:
 579              	.LBE72:
 580              	.LBE71:
 581              		.loc 1 183 0
 582 0002 054A     		ldr	r2, .L51+4
 583 0004 1268     		ldr	r2, [r2]
 584              	.LVL33:
 585              	.LBB79:
 586              	.LBB77:
 587              	.LBB76:
 588              	.LBB75:
 589              		.loc 3 231 0
 590 0006 986A     		ldr	r0, [r3, #40]
 591              	.LVL34:
 592              	.LBE75:
 593              	.LBE76:
 594              	.LBE77:
 595              	.LBE79:
 596              		.loc 1 183 0
 597 0008 044B     		ldr	r3, .L51+8
 598              	.LBB80:
 599              	.LBB78:
 600              		.loc 3 267 0
 601 000a 801A     		subs	r0, r0, r2
 602              	.LBE78:
 603              	.LBE80:
 604              		.loc 1 183 0
 605 000c A3FB0030 		umull	r3, r0, r3, r0
 606              		.loc 1 184 0
 607 0010 C008     		lsrs	r0, r0, #3
 608 0012 7047     		bx	lr
 609              	.L52:
 610              		.align	2
 611              	.L51:
 612 0014 00000000 		.word	ch
 613 0018 00000000 		.word	.LANCHOR7
 614 001c CDCCCCCC 		.word	-858993459
 615              		.cfi_endproc
 616              	.LFE262:
 617              		.size	servodec_get_time_since_update, .-servodec_get_time_since_update
 618              		.section	.text.servodec_get_last_pulse_len,"ax",%progbits
 619              		.align	1
 620              		.p2align 4,,15
 621              		.global	servodec_get_last_pulse_len
 622              		.syntax unified
 623              		.thumb
 624              		.thumb_func
 625              		.fpu fpv4-sp-d16
 626              		.type	servodec_get_last_pulse_len, %function
 627              	servodec_get_last_pulse_len:
ARM GAS  /var/tmp//ccZRtMPf.s 			page 12


 628              	.LFB263:
 629              		.loc 1 195 0
 630              		.cfi_startproc
 631              		@ args = 0, pretend = 0, frame = 0
 632              		@ frame_needed = 0, uses_anonymous_args = 0
 633              		@ link register save eliminated.
 634              	.LVL35:
 635              		.loc 1 196 0
 636 0000 0028     		cmp	r0, #0
 637              		.loc 1 197 0
 638 0002 DDBF     		ittte	le
 639 0004 034B     		ldrle	r3, .L56
 640 0006 03EB8000 		addle	r0, r3, r0, lsl #2
 641              	.LVL36:
 642 000a 90ED000A 		vldrle.32	s0, [r0]
 643              		.loc 1 199 0
 644 000e 9FED020A 		vldrgt.32	s0, .L56+4
 645              		.loc 1 201 0
 646 0012 7047     		bx	lr
 647              	.L57:
 648              		.align	2
 649              	.L56:
 650 0014 00000000 		.word	.LANCHOR0
 651 0018 00000000 		.word	0
 652              		.cfi_endproc
 653              	.LFE263:
 654              		.size	servodec_get_last_pulse_len, .-servodec_get_last_pulse_len
 655              		.section	.bss.done_func,"aw",%nobits
 656              		.align	2
 657              		.set	.LANCHOR8,. + 0
 658              		.type	done_func, %object
 659              		.size	done_func, 4
 660              	done_func:
 661 0000 00000000 		.space	4
 662              		.section	.bss.is_running,"aw",%nobits
 663              		.set	.LANCHOR10,. + 0
 664              		.type	is_running, %object
 665              		.size	is_running, 1
 666              	is_running:
 667 0000 00       		.space	1
 668              		.section	.bss.last_len_received,"aw",%nobits
 669              		.align	2
 670              		.set	.LANCHOR0,. + 0
 671              		.type	last_len_received, %object
 672              		.size	last_len_received, 4
 673              	last_len_received:
 674 0000 00000000 		.space	4
 675              		.section	.bss.last_update_time,"aw",%nobits
 676              		.align	2
 677              		.set	.LANCHOR7,. + 0
 678              		.type	last_update_time, %object
 679              		.size	last_update_time, 4
 680              	last_update_time:
 681 0000 00000000 		.space	4
 682              		.section	.bss.servo_pos,"aw",%nobits
 683              		.align	2
 684              		.set	.LANCHOR6,. + 0
ARM GAS  /var/tmp//ccZRtMPf.s 			page 13


 685              		.type	servo_pos, %object
 686              		.size	servo_pos, 4
 687              	servo_pos:
 688 0000 00000000 		.space	4
 689              		.section	.bss.use_median_filter,"aw",%nobits
 690              		.set	.LANCHOR3,. + 0
 691              		.type	use_median_filter, %object
 692              		.size	use_median_filter, 1
 693              	use_median_filter:
 694 0000 00       		.space	1
 695              		.section	.data.c1.10384,"aw",%progbits
 696              		.align	2
 697              		.set	.LANCHOR5,. + 0
 698              		.type	c1.10384, %object
 699              		.size	c1.10384, 4
 700              	c1.10384:
 701 0000 0000003F 		.word	1056964608
 702              		.section	.data.c2.10385,"aw",%progbits
 703              		.align	2
 704              		.set	.LANCHOR4,. + 0
 705              		.type	c2.10385, %object
 706              		.size	c2.10385, 4
 707              	c2.10385:
 708 0000 0000003F 		.word	1056964608
 709              		.section	.data.icucfg,"aw",%progbits
 710              		.align	2
 711              		.set	.LANCHOR9,. + 0
 712              		.type	icucfg, %object
 713              		.size	icucfg, 28
 714              	icucfg:
 715 0000 00       		.byte	0
 716 0001 000000   		.space	3
 717 0004 40420F00 		.word	1000000
 718 0008 00000000 		.word	icuwidthcb
 719 000c 00000000 		.word	icuperiodcb
 720 0010 00000000 		.word	0
 721 0014 01       		.byte	1
 722 0015 000000   		.space	3
 723 0018 00000000 		.word	0
 724              		.section	.data.pulse_end,"aw",%progbits
 725              		.align	2
 726              		.set	.LANCHOR2,. + 0
 727              		.type	pulse_end, %object
 728              		.size	pulse_end, 4
 729              	pulse_end:
 730 0000 00000040 		.word	1073741824
 731              		.section	.data.pulse_start,"aw",%progbits
 732              		.align	2
 733              		.set	.LANCHOR1,. + 0
 734              		.type	pulse_start, %object
 735              		.size	pulse_start, 4
 736              	pulse_start:
 737 0000 0000803F 		.word	1065353216
 738              		.text
 739              	.Letext0:
 740              		.file 4 "/usr/local/gcc_arm/gcc-arm-none-eabi-6-2017-q2-update/arm-none-eabi/include/machine/_defa
 741              		.file 5 "/usr/local/gcc_arm/gcc-arm-none-eabi-6-2017-q2-update/arm-none-eabi/include/sys/_stdint.h
ARM GAS  /var/tmp//ccZRtMPf.s 			page 14


 742              		.file 6 "/usr/local/gcc_arm/gcc-arm-none-eabi-6-2017-q2-update/lib/gcc/arm-none-eabi/6.3.1/include
 743              		.file 7 "ChibiOS_3.0.2/os/rt/ports/ARMCMx/compilers/GCC/chtypes.h"
 744              		.file 8 "ChibiOS_3.0.2/os/rt/include/chsystypes.h"
 745              		.file 9 "ChibiOS_3.0.2/os/rt/include/chschd.h"
 746              		.file 10 "ChibiOS_3.0.2/os/ext/CMSIS/include/core_cm4.h"
 747              		.file 11 "ChibiOS_3.0.2/os/ext/CMSIS/ST/system_stm32f4xx.h"
 748              		.file 12 "ChibiOS_3.0.2/os/ext/CMSIS/ST/stm32f407xx.h"
 749              		.file 13 "ChibiOS_3.0.2/os/rt/ports/ARMCMx/chcore.h"
 750              		.file 14 "ChibiOS_3.0.2/os/rt/ports/ARMCMx/chcore_v7m.h"
 751              		.file 15 "ChibiOS_3.0.2/os/rt/include/chtm.h"
 752              		.file 16 "ChibiOS_3.0.2/os/rt/include/chsem.h"
 753              		.file 17 "ChibiOS_3.0.2/os/rt/include/chmtx.h"
 754              		.file 18 "ChibiOS_3.0.2/os/rt/include/chregistry.h"
 755              		.file 19 "ChibiOS_3.0.2/os/rt/include/chevents.h"
 756              		.file 20 "ChibiOS_3.0.2/os/rt/include/chqueues.h"
 757              		.file 21 "./conf_general.h"
 758              		.file 22 "ChibiOS_3.0.2/os/hal/ports/STM32/STM32F4xx/stm32_dma.h"
 759              		.file 23 "ChibiOS_3.0.2/os/hal/ports/STM32/LLD/GPIOv2/pal_lld.h"
 760              		.file 24 "ChibiOS_3.0.2/os/hal/include/can.h"
 761              		.file 25 "ChibiOS_3.0.2/os/hal/ports/STM32/LLD/can_lld.h"
 762              		.file 26 "ChibiOS_3.0.2/os/hal/include/i2c.h"
 763              		.file 27 "ChibiOS_3.0.2/os/hal/ports/STM32/LLD/I2Cv1/i2c_lld.h"
 764              		.file 28 "ChibiOS_3.0.2/os/hal/include/icu.h"
 765              		.file 29 "ChibiOS_3.0.2/os/hal/ports/STM32/LLD/TIMv1/icu_lld.h"
 766              		.file 30 "ChibiOS_3.0.2/os/hal/ports/STM32/LLD/TIMv1/stm32_tim.h"
 767              		.file 31 "ChibiOS_3.0.2/os/hal/include/spi.h"
 768              		.file 32 "ChibiOS_3.0.2/os/hal/ports/STM32/LLD/SPIv1/spi_lld.h"
 769              		.file 33 "ChibiOS_3.0.2/os/hal/include/uart.h"
 770              		.file 34 "ChibiOS_3.0.2/os/hal/ports/STM32/LLD/USARTv1/uart_lld.h"
 771              		.file 35 "ChibiOS_3.0.2/os/hal/include/usb.h"
 772              		.file 36 "ChibiOS_3.0.2/os/hal/ports/STM32/LLD/OTGv1/usb_lld.h"
 773              		.file 37 "ChibiOS_3.0.2/os/hal/ports/STM32/LLD/OTGv1/stm32_otg.h"
 774              		.file 38 "ChibiOS_3.0.2/os/rt/include/chsys.h"
 775              		.file 39 "utils.h"