ARM GAS  /var/tmp//ccCwo6w2.s 			page 1


   1              		.cpu cortex-m4
   2              		.eabi_attribute 27, 1
   3              		.eabi_attribute 28, 1
   4              		.eabi_attribute 20, 1
   5              		.eabi_attribute 21, 1
   6              		.eabi_attribute 23, 3
   7              		.eabi_attribute 24, 1
   8              		.eabi_attribute 25, 1
   9              		.eabi_attribute 26, 1
  10              		.eabi_attribute 30, 2
  11              		.eabi_attribute 34, 1
  12              		.eabi_attribute 18, 4
  13              		.file	"spi.c"
  14              		.text
  15              	.Ltext0:
  16              		.cfi_sections	.debug_frame
  17              		.section	.text.spiInit,"ax",%progbits
  18              		.align	1
  19              		.p2align 4,,15
  20              		.global	spiInit
  21              		.syntax unified
  22              		.thumb
  23              		.thumb_func
  24              		.fpu fpv4-sp-d16
  25              		.type	spiInit, %function
  26              	spiInit:
  27              	.LFB256:
  28              		.file 1 "ChibiOS_3.0.2/os/hal/src/spi.c"
  29              		.loc 1 56 0
  30              		.cfi_startproc
  31              		@ args = 0, pretend = 0, frame = 0
  32              		@ frame_needed = 0, uses_anonymous_args = 0
  33              		@ link register save eliminated.
  34              		.loc 1 58 0
  35 0000 FFF7FEBF 		b	spi_lld_init
  36              	.LVL0:
  37              		.cfi_endproc
  38              	.LFE256:
  39              		.size	spiInit, .-spiInit
  40              		.section	.text.spiObjectInit,"ax",%progbits
  41              		.align	1
  42              		.p2align 4,,15
  43              		.global	spiObjectInit
  44              		.syntax unified
  45              		.thumb
  46              		.thumb_func
  47              		.fpu fpv4-sp-d16
  48              		.type	spiObjectInit, %function
  49              	spiObjectInit:
  50              	.LFB257:
  51              		.loc 1 68 0
  52              		.cfi_startproc
  53              		@ args = 0, pretend = 0, frame = 0
  54              		@ frame_needed = 0, uses_anonymous_args = 0
  55              		@ link register save eliminated.
  56              	.LVL1:
  57              		.loc 1 71 0
ARM GAS  /var/tmp//ccCwo6w2.s 			page 2


  58 0000 0023     		movs	r3, #0
  59              		.loc 1 70 0
  60 0002 0122     		movs	r2, #1
  61 0004 0270     		strb	r2, [r0]
  62              		.loc 1 71 0
  63 0006 4360     		str	r3, [r0, #4]
  64              		.loc 1 73 0
  65 0008 8360     		str	r3, [r0, #8]
  66              	.LVL2:
  67              	.LBB194:
  68              	.LBB195:
  69              		.file 2 "ChibiOS_3.0.2/os/hal/osal/rt/osal.h"
  70              		.loc 2 887 0
  71 000a 0C30     		adds	r0, r0, #12
  72              	.LVL3:
  73 000c FFF7FEBF 		b	chMtxObjectInit
  74              	.LVL4:
  75              	.LBE195:
  76              	.LBE194:
  77              		.cfi_endproc
  78              	.LFE257:
  79              		.size	spiObjectInit, .-spiObjectInit
  80              		.section	.text.spiStart,"ax",%progbits
  81              		.align	1
  82              		.p2align 4,,15
  83              		.global	spiStart
  84              		.syntax unified
  85              		.thumb
  86              		.thumb_func
  87              		.fpu fpv4-sp-d16
  88              		.type	spiStart, %function
  89              	spiStart:
  90              	.LFB258:
  91              		.loc 1 91 0
  92              		.cfi_startproc
  93              		@ args = 0, pretend = 0, frame = 0
  94              		@ frame_needed = 0, uses_anonymous_args = 0
  95              	.LVL5:
  96 0000 10B5     		push	{r4, lr}
  97              		.cfi_def_cfa_offset 8
  98              		.cfi_offset 4, -8
  99              		.cfi_offset 14, -4
 100              	.LBB196:
 101              	.LBB197:
 102              	.LBB198:
 103              	.LBB199:
 104              	.LBB200:
 105              		.file 3 "ChibiOS_3.0.2/os/ext/CMSIS/include/core_cmFunc.h"
 106              		.loc 3 546 0
 107 0002 2023     		movs	r3, #32
 108              	.LBE200:
 109              	.LBE199:
 110              	.LBE198:
 111              	.LBE197:
 112              	.LBE196:
 113              		.loc 1 91 0
 114 0004 0446     		mov	r4, r0
ARM GAS  /var/tmp//ccCwo6w2.s 			page 3


 115              	.LBB205:
 116              	.LBB204:
 117              	.LBB203:
 118              	.LBB202:
 119              	.LBB201:
 120              		.loc 3 546 0
 121              		.syntax unified
 122              	@ 546 "ChibiOS_3.0.2/os/ext/CMSIS/include/core_cmFunc.h" 1
 123 0006 83F31188 		MSR basepri, r3
 124              	@ 0 "" 2
 125              	.LVL6:
 126              		.thumb
 127              		.syntax unified
 128              	.LBE201:
 129              	.LBE202:
 130              	.LBE203:
 131              	.LBE204:
 132              	.LBE205:
 133              		.loc 1 98 0
 134 000a 4160     		str	r1, [r0, #4]
 135              		.loc 1 99 0
 136 000c FFF7FEFF 		bl	spi_lld_start
 137              	.LVL7:
 138              		.loc 1 100 0
 139 0010 0223     		movs	r3, #2
 140 0012 2370     		strb	r3, [r4]
 141              	.LVL8:
 142              	.LBB206:
 143              	.LBB207:
 144              	.LBB208:
 145              	.LBB209:
 146              	.LBB210:
 147              	.LBB211:
 148              		.loc 3 546 0
 149 0014 0023     		movs	r3, #0
 150              		.syntax unified
 151              	@ 546 "ChibiOS_3.0.2/os/ext/CMSIS/include/core_cmFunc.h" 1
 152 0016 83F31188 		MSR basepri, r3
 153              	@ 0 "" 2
 154              	.LVL9:
 155              		.thumb
 156              		.syntax unified
 157 001a 10BD     		pop	{r4, pc}
 158              	.LBE211:
 159              	.LBE210:
 160              	.LBE209:
 161              	.LBE208:
 162              	.LBE207:
 163              	.LBE206:
 164              		.cfi_endproc
 165              	.LFE258:
 166              		.size	spiStart, .-spiStart
 167              		.section	.text.spiStop,"ax",%progbits
 168              		.align	1
 169              		.p2align 4,,15
 170              		.global	spiStop
 171              		.syntax unified
ARM GAS  /var/tmp//ccCwo6w2.s 			page 4


 172              		.thumb
 173              		.thumb_func
 174              		.fpu fpv4-sp-d16
 175              		.type	spiStop, %function
 176              	spiStop:
 177              	.LFB259:
 178              		.loc 1 113 0
 179              		.cfi_startproc
 180              		@ args = 0, pretend = 0, frame = 0
 181              		@ frame_needed = 0, uses_anonymous_args = 0
 182              	.LVL10:
 183 0000 10B5     		push	{r4, lr}
 184              		.cfi_def_cfa_offset 8
 185              		.cfi_offset 4, -8
 186              		.cfi_offset 14, -4
 187              	.LBB212:
 188              	.LBB213:
 189              	.LBB214:
 190              	.LBB215:
 191              	.LBB216:
 192              		.loc 3 546 0
 193 0002 2023     		movs	r3, #32
 194              	.LBE216:
 195              	.LBE215:
 196              	.LBE214:
 197              	.LBE213:
 198              	.LBE212:
 199              		.loc 1 113 0
 200 0004 0446     		mov	r4, r0
 201              	.LBB221:
 202              	.LBB220:
 203              	.LBB219:
 204              	.LBB218:
 205              	.LBB217:
 206              		.loc 3 546 0
 207              		.syntax unified
 208              	@ 546 "ChibiOS_3.0.2/os/ext/CMSIS/include/core_cmFunc.h" 1
 209 0006 83F31188 		MSR basepri, r3
 210              	@ 0 "" 2
 211              	.LVL11:
 212              		.thumb
 213              		.syntax unified
 214              	.LBE217:
 215              	.LBE218:
 216              	.LBE219:
 217              	.LBE220:
 218              	.LBE221:
 219              		.loc 1 120 0
 220 000a FFF7FEFF 		bl	spi_lld_stop
 221              	.LVL12:
 222              		.loc 1 121 0
 223 000e 0123     		movs	r3, #1
 224 0010 2370     		strb	r3, [r4]
 225              	.LVL13:
 226              	.LBB222:
 227              	.LBB223:
 228              	.LBB224:
ARM GAS  /var/tmp//ccCwo6w2.s 			page 5


 229              	.LBB225:
 230              	.LBB226:
 231              	.LBB227:
 232              		.loc 3 546 0
 233 0012 0023     		movs	r3, #0
 234              		.syntax unified
 235              	@ 546 "ChibiOS_3.0.2/os/ext/CMSIS/include/core_cmFunc.h" 1
 236 0014 83F31188 		MSR basepri, r3
 237              	@ 0 "" 2
 238              	.LVL14:
 239              		.thumb
 240              		.syntax unified
 241 0018 10BD     		pop	{r4, pc}
 242              	.LBE227:
 243              	.LBE226:
 244              	.LBE225:
 245              	.LBE224:
 246              	.LBE223:
 247              	.LBE222:
 248              		.cfi_endproc
 249              	.LFE259:
 250              		.size	spiStop, .-spiStop
 251 001a 00BF     		.section	.text.spiSelect,"ax",%progbits
 252              		.align	1
 253              		.p2align 4,,15
 254              		.global	spiSelect
 255              		.syntax unified
 256              		.thumb
 257              		.thumb_func
 258              		.fpu fpv4-sp-d16
 259              		.type	spiSelect, %function
 260              	spiSelect:
 261              	.LFB260:
 262              		.loc 1 132 0
 263              		.cfi_startproc
 264              		@ args = 0, pretend = 0, frame = 0
 265              		@ frame_needed = 0, uses_anonymous_args = 0
 266              	.LVL15:
 267 0000 08B5     		push	{r3, lr}
 268              		.cfi_def_cfa_offset 8
 269              		.cfi_offset 3, -8
 270              		.cfi_offset 14, -4
 271              	.LBB228:
 272              	.LBB229:
 273              	.LBB230:
 274              	.LBB231:
 275              	.LBB232:
 276              		.loc 3 546 0
 277 0002 2023     		movs	r3, #32
 278              		.syntax unified
 279              	@ 546 "ChibiOS_3.0.2/os/ext/CMSIS/include/core_cmFunc.h" 1
 280 0004 83F31188 		MSR basepri, r3
 281              	@ 0 "" 2
 282              	.LVL16:
 283              		.thumb
 284              		.syntax unified
 285              	.LBE232:
ARM GAS  /var/tmp//ccCwo6w2.s 			page 6


 286              	.LBE231:
 287              	.LBE230:
 288              	.LBE229:
 289              	.LBE228:
 290              		.loc 1 138 0
 291 0008 FFF7FEFF 		bl	spi_lld_select
 292              	.LVL17:
 293              	.LBB233:
 294              	.LBB234:
 295              	.LBB235:
 296              	.LBB236:
 297              	.LBB237:
 298              	.LBB238:
 299              		.loc 3 546 0
 300 000c 0023     		movs	r3, #0
 301              		.syntax unified
 302              	@ 546 "ChibiOS_3.0.2/os/ext/CMSIS/include/core_cmFunc.h" 1
 303 000e 83F31188 		MSR basepri, r3
 304              	@ 0 "" 2
 305              	.LVL18:
 306              		.thumb
 307              		.syntax unified
 308 0012 08BD     		pop	{r3, pc}
 309              	.LBE238:
 310              	.LBE237:
 311              	.LBE236:
 312              	.LBE235:
 313              	.LBE234:
 314              	.LBE233:
 315              		.cfi_endproc
 316              	.LFE260:
 317              		.size	spiSelect, .-spiSelect
 318              		.section	.text.spiUnselect,"ax",%progbits
 319              		.align	1
 320              		.p2align 4,,15
 321              		.global	spiUnselect
 322              		.syntax unified
 323              		.thumb
 324              		.thumb_func
 325              		.fpu fpv4-sp-d16
 326              		.type	spiUnselect, %function
 327              	spiUnselect:
 328              	.LFB261:
 329              		.loc 1 150 0
 330              		.cfi_startproc
 331              		@ args = 0, pretend = 0, frame = 0
 332              		@ frame_needed = 0, uses_anonymous_args = 0
 333              	.LVL19:
 334 0000 08B5     		push	{r3, lr}
 335              		.cfi_def_cfa_offset 8
 336              		.cfi_offset 3, -8
 337              		.cfi_offset 14, -4
 338              	.LBB239:
 339              	.LBB240:
 340              	.LBB241:
 341              	.LBB242:
 342              	.LBB243:
ARM GAS  /var/tmp//ccCwo6w2.s 			page 7


 343              		.loc 3 546 0
 344 0002 2023     		movs	r3, #32
 345              		.syntax unified
 346              	@ 546 "ChibiOS_3.0.2/os/ext/CMSIS/include/core_cmFunc.h" 1
 347 0004 83F31188 		MSR basepri, r3
 348              	@ 0 "" 2
 349              	.LVL20:
 350              		.thumb
 351              		.syntax unified
 352              	.LBE243:
 353              	.LBE242:
 354              	.LBE241:
 355              	.LBE240:
 356              	.LBE239:
 357              		.loc 1 156 0
 358 0008 FFF7FEFF 		bl	spi_lld_unselect
 359              	.LVL21:
 360              	.LBB244:
 361              	.LBB245:
 362              	.LBB246:
 363              	.LBB247:
 364              	.LBB248:
 365              	.LBB249:
 366              		.loc 3 546 0
 367 000c 0023     		movs	r3, #0
 368              		.syntax unified
 369              	@ 546 "ChibiOS_3.0.2/os/ext/CMSIS/include/core_cmFunc.h" 1
 370 000e 83F31188 		MSR basepri, r3
 371              	@ 0 "" 2
 372              	.LVL22:
 373              		.thumb
 374              		.syntax unified
 375 0012 08BD     		pop	{r3, pc}
 376              	.LBE249:
 377              	.LBE248:
 378              	.LBE247:
 379              	.LBE246:
 380              	.LBE245:
 381              	.LBE244:
 382              		.cfi_endproc
 383              	.LFE261:
 384              		.size	spiUnselect, .-spiUnselect
 385              		.section	.text.spiStartIgnore,"ax",%progbits
 386              		.align	1
 387              		.p2align 4,,15
 388              		.global	spiStartIgnore
 389              		.syntax unified
 390              		.thumb
 391              		.thumb_func
 392              		.fpu fpv4-sp-d16
 393              		.type	spiStartIgnore, %function
 394              	spiStartIgnore:
 395              	.LFB262:
 396              		.loc 1 173 0
 397              		.cfi_startproc
 398              		@ args = 0, pretend = 0, frame = 0
 399              		@ frame_needed = 0, uses_anonymous_args = 0
ARM GAS  /var/tmp//ccCwo6w2.s 			page 8


 400              	.LVL23:
 401 0000 08B5     		push	{r3, lr}
 402              		.cfi_def_cfa_offset 8
 403              		.cfi_offset 3, -8
 404              		.cfi_offset 14, -4
 405              	.LBB250:
 406              	.LBB251:
 407              	.LBB252:
 408              	.LBB253:
 409              	.LBB254:
 410              		.loc 3 546 0
 411 0002 2022     		movs	r2, #32
 412              		.syntax unified
 413              	@ 546 "ChibiOS_3.0.2/os/ext/CMSIS/include/core_cmFunc.h" 1
 414 0004 82F31188 		MSR basepri, r2
 415              	@ 0 "" 2
 416              	.LVL24:
 417              		.thumb
 418              		.syntax unified
 419              	.LBE254:
 420              	.LBE253:
 421              	.LBE252:
 422              	.LBE251:
 423              	.LBE250:
 424              		.loc 1 179 0
 425 0008 0322     		movs	r2, #3
 426 000a 0270     		strb	r2, [r0]
 427 000c FFF7FEFF 		bl	spi_lld_ignore
 428              	.LVL25:
 429              	.LBB255:
 430              	.LBB256:
 431              	.LBB257:
 432              	.LBB258:
 433              	.LBB259:
 434              	.LBB260:
 435              		.loc 3 546 0
 436 0010 0023     		movs	r3, #0
 437              		.syntax unified
 438              	@ 546 "ChibiOS_3.0.2/os/ext/CMSIS/include/core_cmFunc.h" 1
 439 0012 83F31188 		MSR basepri, r3
 440              	@ 0 "" 2
 441              	.LVL26:
 442              		.thumb
 443              		.syntax unified
 444 0016 08BD     		pop	{r3, pc}
 445              	.LBE260:
 446              	.LBE259:
 447              	.LBE258:
 448              	.LBE257:
 449              	.LBE256:
 450              	.LBE255:
 451              		.cfi_endproc
 452              	.LFE262:
 453              		.size	spiStartIgnore, .-spiStartIgnore
 454              		.section	.text.spiStartExchange,"ax",%progbits
 455              		.align	1
 456              		.p2align 4,,15
ARM GAS  /var/tmp//ccCwo6w2.s 			page 9


 457              		.global	spiStartExchange
 458              		.syntax unified
 459              		.thumb
 460              		.thumb_func
 461              		.fpu fpv4-sp-d16
 462              		.type	spiStartExchange, %function
 463              	spiStartExchange:
 464              	.LFB263:
 465              		.loc 1 201 0
 466              		.cfi_startproc
 467              		@ args = 0, pretend = 0, frame = 0
 468              		@ frame_needed = 0, uses_anonymous_args = 0
 469              	.LVL27:
 470 0000 38B5     		push	{r3, r4, r5, lr}
 471              		.cfi_def_cfa_offset 16
 472              		.cfi_offset 3, -16
 473              		.cfi_offset 4, -12
 474              		.cfi_offset 5, -8
 475              		.cfi_offset 14, -4
 476              	.LBB261:
 477              	.LBB262:
 478              	.LBB263:
 479              	.LBB264:
 480              	.LBB265:
 481              		.loc 3 546 0
 482 0002 2025     		movs	r5, #32
 483              		.syntax unified
 484              	@ 546 "ChibiOS_3.0.2/os/ext/CMSIS/include/core_cmFunc.h" 1
 485 0004 85F31188 		MSR basepri, r5
 486              	@ 0 "" 2
 487              	.LVL28:
 488              		.thumb
 489              		.syntax unified
 490              	.LBE265:
 491              	.LBE264:
 492              	.LBE263:
 493              	.LBE262:
 494              	.LBE261:
 495              		.loc 1 208 0
 496 0008 0325     		movs	r5, #3
 497 000a 0570     		strb	r5, [r0]
 498 000c FFF7FEFF 		bl	spi_lld_exchange
 499              	.LVL29:
 500              	.LBB266:
 501              	.LBB267:
 502              	.LBB268:
 503              	.LBB269:
 504              	.LBB270:
 505              	.LBB271:
 506              		.loc 3 546 0
 507 0010 0023     		movs	r3, #0
 508              		.syntax unified
 509              	@ 546 "ChibiOS_3.0.2/os/ext/CMSIS/include/core_cmFunc.h" 1
 510 0012 83F31188 		MSR basepri, r3
 511              	@ 0 "" 2
 512              	.LVL30:
 513              		.thumb
ARM GAS  /var/tmp//ccCwo6w2.s 			page 10


 514              		.syntax unified
 515 0016 38BD     		pop	{r3, r4, r5, pc}
 516              	.LBE271:
 517              	.LBE270:
 518              	.LBE269:
 519              	.LBE268:
 520              	.LBE267:
 521              	.LBE266:
 522              		.cfi_endproc
 523              	.LFE263:
 524              		.size	spiStartExchange, .-spiStartExchange
 525              		.section	.text.spiStartSend,"ax",%progbits
 526              		.align	1
 527              		.p2align 4,,15
 528              		.global	spiStartSend
 529              		.syntax unified
 530              		.thumb
 531              		.thumb_func
 532              		.fpu fpv4-sp-d16
 533              		.type	spiStartSend, %function
 534              	spiStartSend:
 535              	.LFB264:
 536              		.loc 1 227 0
 537              		.cfi_startproc
 538              		@ args = 0, pretend = 0, frame = 0
 539              		@ frame_needed = 0, uses_anonymous_args = 0
 540              	.LVL31:
 541 0000 10B5     		push	{r4, lr}
 542              		.cfi_def_cfa_offset 8
 543              		.cfi_offset 4, -8
 544              		.cfi_offset 14, -4
 545              	.LBB272:
 546              	.LBB273:
 547              	.LBB274:
 548              	.LBB275:
 549              	.LBB276:
 550              		.loc 3 546 0
 551 0002 2024     		movs	r4, #32
 552              		.syntax unified
 553              	@ 546 "ChibiOS_3.0.2/os/ext/CMSIS/include/core_cmFunc.h" 1
 554 0004 84F31188 		MSR basepri, r4
 555              	@ 0 "" 2
 556              	.LVL32:
 557              		.thumb
 558              		.syntax unified
 559              	.LBE276:
 560              	.LBE275:
 561              	.LBE274:
 562              	.LBE273:
 563              	.LBE272:
 564              		.loc 1 233 0
 565 0008 0324     		movs	r4, #3
 566 000a 0470     		strb	r4, [r0]
 567 000c FFF7FEFF 		bl	spi_lld_send
 568              	.LVL33:
 569              	.LBB277:
 570              	.LBB278:
ARM GAS  /var/tmp//ccCwo6w2.s 			page 11


 571              	.LBB279:
 572              	.LBB280:
 573              	.LBB281:
 574              	.LBB282:
 575              		.loc 3 546 0
 576 0010 0023     		movs	r3, #0
 577              		.syntax unified
 578              	@ 546 "ChibiOS_3.0.2/os/ext/CMSIS/include/core_cmFunc.h" 1
 579 0012 83F31188 		MSR basepri, r3
 580              	@ 0 "" 2
 581              	.LVL34:
 582              		.thumb
 583              		.syntax unified
 584 0016 10BD     		pop	{r4, pc}
 585              	.LBE282:
 586              	.LBE281:
 587              	.LBE280:
 588              	.LBE279:
 589              	.LBE278:
 590              	.LBE277:
 591              		.cfi_endproc
 592              	.LFE264:
 593              		.size	spiStartSend, .-spiStartSend
 594              		.section	.text.spiStartReceive,"ax",%progbits
 595              		.align	1
 596              		.p2align 4,,15
 597              		.global	spiStartReceive
 598              		.syntax unified
 599              		.thumb
 600              		.thumb_func
 601              		.fpu fpv4-sp-d16
 602              		.type	spiStartReceive, %function
 603              	spiStartReceive:
 604              	.LFB265:
 605              		.loc 1 252 0
 606              		.cfi_startproc
 607              		@ args = 0, pretend = 0, frame = 0
 608              		@ frame_needed = 0, uses_anonymous_args = 0
 609              	.LVL35:
 610 0000 10B5     		push	{r4, lr}
 611              		.cfi_def_cfa_offset 8
 612              		.cfi_offset 4, -8
 613              		.cfi_offset 14, -4
 614              	.LBB283:
 615              	.LBB284:
 616              	.LBB285:
 617              	.LBB286:
 618              	.LBB287:
 619              		.loc 3 546 0
 620 0002 2024     		movs	r4, #32
 621              		.syntax unified
 622              	@ 546 "ChibiOS_3.0.2/os/ext/CMSIS/include/core_cmFunc.h" 1
 623 0004 84F31188 		MSR basepri, r4
 624              	@ 0 "" 2
 625              	.LVL36:
 626              		.thumb
 627              		.syntax unified
ARM GAS  /var/tmp//ccCwo6w2.s 			page 12


 628              	.LBE287:
 629              	.LBE286:
 630              	.LBE285:
 631              	.LBE284:
 632              	.LBE283:
 633              		.loc 1 258 0
 634 0008 0324     		movs	r4, #3
 635 000a 0470     		strb	r4, [r0]
 636 000c FFF7FEFF 		bl	spi_lld_receive
 637              	.LVL37:
 638              	.LBB288:
 639              	.LBB289:
 640              	.LBB290:
 641              	.LBB291:
 642              	.LBB292:
 643              	.LBB293:
 644              		.loc 3 546 0
 645 0010 0023     		movs	r3, #0
 646              		.syntax unified
 647              	@ 546 "ChibiOS_3.0.2/os/ext/CMSIS/include/core_cmFunc.h" 1
 648 0012 83F31188 		MSR basepri, r3
 649              	@ 0 "" 2
 650              	.LVL38:
 651              		.thumb
 652              		.syntax unified
 653 0016 10BD     		pop	{r4, pc}
 654              	.LBE293:
 655              	.LBE292:
 656              	.LBE291:
 657              	.LBE290:
 658              	.LBE289:
 659              	.LBE288:
 660              		.cfi_endproc
 661              	.LFE265:
 662              		.size	spiStartReceive, .-spiStartReceive
 663              		.section	.text.spiIgnore,"ax",%progbits
 664              		.align	1
 665              		.p2align 4,,15
 666              		.global	spiIgnore
 667              		.syntax unified
 668              		.thumb
 669              		.thumb_func
 670              		.fpu fpv4-sp-d16
 671              		.type	spiIgnore, %function
 672              	spiIgnore:
 673              	.LFB266:
 674              		.loc 1 277 0
 675              		.cfi_startproc
 676              		@ args = 0, pretend = 0, frame = 0
 677              		@ frame_needed = 0, uses_anonymous_args = 0
 678              	.LVL39:
 679 0000 10B5     		push	{r4, lr}
 680              		.cfi_def_cfa_offset 8
 681              		.cfi_offset 4, -8
 682              		.cfi_offset 14, -4
 683              	.LBB294:
 684              	.LBB295:
ARM GAS  /var/tmp//ccCwo6w2.s 			page 13


 685              	.LBB296:
 686              	.LBB297:
 687              	.LBB298:
 688              		.loc 3 546 0
 689 0002 2023     		movs	r3, #32
 690              	.LBE298:
 691              	.LBE297:
 692              	.LBE296:
 693              	.LBE295:
 694              	.LBE294:
 695              		.loc 1 277 0
 696 0004 0446     		mov	r4, r0
 697              	.LBB303:
 698              	.LBB302:
 699              	.LBB301:
 700              	.LBB300:
 701              	.LBB299:
 702              		.loc 3 546 0
 703              		.syntax unified
 704              	@ 546 "ChibiOS_3.0.2/os/ext/CMSIS/include/core_cmFunc.h" 1
 705 0006 83F31188 		MSR basepri, r3
 706              	@ 0 "" 2
 707              	.LVL40:
 708              		.thumb
 709              		.syntax unified
 710              	.LBE299:
 711              	.LBE300:
 712              	.LBE301:
 713              	.LBE302:
 714              	.LBE303:
 715              		.loc 1 284 0
 716 000a 0323     		movs	r3, #3
 717 000c 04F8083B 		strb	r3, [r4], #8
 718 0010 FFF7FEFF 		bl	spi_lld_ignore
 719              	.LVL41:
 720              	.LBB304:
 721              	.LBB305:
 722              		.loc 2 688 0
 723 0014 2046     		mov	r0, r4
 724 0016 FFF7FEFF 		bl	chThdSuspendS
 725              	.LVL42:
 726              	.LBE305:
 727              	.LBE304:
 728              	.LBB306:
 729              	.LBB307:
 730              	.LBB308:
 731              	.LBB309:
 732              	.LBB310:
 733              	.LBB311:
 734              		.loc 3 546 0
 735 001a 0023     		movs	r3, #0
 736              		.syntax unified
 737              	@ 546 "ChibiOS_3.0.2/os/ext/CMSIS/include/core_cmFunc.h" 1
 738 001c 83F31188 		MSR basepri, r3
 739              	@ 0 "" 2
 740              	.LVL43:
 741              		.thumb
ARM GAS  /var/tmp//ccCwo6w2.s 			page 14


 742              		.syntax unified
 743 0020 10BD     		pop	{r4, pc}
 744              	.LBE311:
 745              	.LBE310:
 746              	.LBE309:
 747              	.LBE308:
 748              	.LBE307:
 749              	.LBE306:
 750              		.cfi_endproc
 751              	.LFE266:
 752              		.size	spiIgnore, .-spiIgnore
 753 0022 00BF     		.section	.text.spiExchange,"ax",%progbits
 754              		.align	1
 755              		.p2align 4,,15
 756              		.global	spiExchange
 757              		.syntax unified
 758              		.thumb
 759              		.thumb_func
 760              		.fpu fpv4-sp-d16
 761              		.type	spiExchange, %function
 762              	spiExchange:
 763              	.LFB267:
 764              		.loc 1 308 0
 765              		.cfi_startproc
 766              		@ args = 0, pretend = 0, frame = 0
 767              		@ frame_needed = 0, uses_anonymous_args = 0
 768              	.LVL44:
 769 0000 38B5     		push	{r3, r4, r5, lr}
 770              		.cfi_def_cfa_offset 16
 771              		.cfi_offset 3, -16
 772              		.cfi_offset 4, -12
 773              		.cfi_offset 5, -8
 774              		.cfi_offset 14, -4
 775              		.loc 1 308 0
 776 0002 0446     		mov	r4, r0
 777              	.LBB312:
 778              	.LBB313:
 779              	.LBB314:
 780              	.LBB315:
 781              	.LBB316:
 782              		.loc 3 546 0
 783 0004 2025     		movs	r5, #32
 784              		.syntax unified
 785              	@ 546 "ChibiOS_3.0.2/os/ext/CMSIS/include/core_cmFunc.h" 1
 786 0006 85F31188 		MSR basepri, r5
 787              	@ 0 "" 2
 788              	.LVL45:
 789              		.thumb
 790              		.syntax unified
 791              	.LBE316:
 792              	.LBE315:
 793              	.LBE314:
 794              	.LBE313:
 795              	.LBE312:
 796              		.loc 1 316 0
 797 000a 0325     		movs	r5, #3
 798 000c 04F8085B 		strb	r5, [r4], #8
ARM GAS  /var/tmp//ccCwo6w2.s 			page 15


 799 0010 FFF7FEFF 		bl	spi_lld_exchange
 800              	.LVL46:
 801              	.LBB317:
 802              	.LBB318:
 803              		.loc 2 688 0
 804 0014 2046     		mov	r0, r4
 805 0016 FFF7FEFF 		bl	chThdSuspendS
 806              	.LVL47:
 807              	.LBE318:
 808              	.LBE317:
 809              	.LBB319:
 810              	.LBB320:
 811              	.LBB321:
 812              	.LBB322:
 813              	.LBB323:
 814              	.LBB324:
 815              		.loc 3 546 0
 816 001a 0023     		movs	r3, #0
 817              		.syntax unified
 818              	@ 546 "ChibiOS_3.0.2/os/ext/CMSIS/include/core_cmFunc.h" 1
 819 001c 83F31188 		MSR basepri, r3
 820              	@ 0 "" 2
 821              	.LVL48:
 822              		.thumb
 823              		.syntax unified
 824 0020 38BD     		pop	{r3, r4, r5, pc}
 825              	.LBE324:
 826              	.LBE323:
 827              	.LBE322:
 828              	.LBE321:
 829              	.LBE320:
 830              	.LBE319:
 831              		.cfi_endproc
 832              	.LFE267:
 833              		.size	spiExchange, .-spiExchange
 834 0022 00BF     		.section	.text.spiSend,"ax",%progbits
 835              		.align	1
 836              		.p2align 4,,15
 837              		.global	spiSend
 838              		.syntax unified
 839              		.thumb
 840              		.thumb_func
 841              		.fpu fpv4-sp-d16
 842              		.type	spiSend, %function
 843              	spiSend:
 844              	.LFB268:
 845              		.loc 1 337 0
 846              		.cfi_startproc
 847              		@ args = 0, pretend = 0, frame = 0
 848              		@ frame_needed = 0, uses_anonymous_args = 0
 849              	.LVL49:
 850 0000 10B5     		push	{r4, lr}
 851              		.cfi_def_cfa_offset 8
 852              		.cfi_offset 4, -8
 853              		.cfi_offset 14, -4
 854              	.LBB325:
 855              	.LBB326:
ARM GAS  /var/tmp//ccCwo6w2.s 			page 16


 856              	.LBB327:
 857              	.LBB328:
 858              	.LBB329:
 859              		.loc 3 546 0
 860 0002 2023     		movs	r3, #32
 861              	.LBE329:
 862              	.LBE328:
 863              	.LBE327:
 864              	.LBE326:
 865              	.LBE325:
 866              		.loc 1 337 0
 867 0004 0446     		mov	r4, r0
 868              	.LBB334:
 869              	.LBB333:
 870              	.LBB332:
 871              	.LBB331:
 872              	.LBB330:
 873              		.loc 3 546 0
 874              		.syntax unified
 875              	@ 546 "ChibiOS_3.0.2/os/ext/CMSIS/include/core_cmFunc.h" 1
 876 0006 83F31188 		MSR basepri, r3
 877              	@ 0 "" 2
 878              	.LVL50:
 879              		.thumb
 880              		.syntax unified
 881              	.LBE330:
 882              	.LBE331:
 883              	.LBE332:
 884              	.LBE333:
 885              	.LBE334:
 886              		.loc 1 344 0
 887 000a 0323     		movs	r3, #3
 888 000c 04F8083B 		strb	r3, [r4], #8
 889 0010 FFF7FEFF 		bl	spi_lld_send
 890              	.LVL51:
 891              	.LBB335:
 892              	.LBB336:
 893              		.loc 2 688 0
 894 0014 2046     		mov	r0, r4
 895 0016 FFF7FEFF 		bl	chThdSuspendS
 896              	.LVL52:
 897              	.LBE336:
 898              	.LBE335:
 899              	.LBB337:
 900              	.LBB338:
 901              	.LBB339:
 902              	.LBB340:
 903              	.LBB341:
 904              	.LBB342:
 905              		.loc 3 546 0
 906 001a 0023     		movs	r3, #0
 907              		.syntax unified
 908              	@ 546 "ChibiOS_3.0.2/os/ext/CMSIS/include/core_cmFunc.h" 1
 909 001c 83F31188 		MSR basepri, r3
 910              	@ 0 "" 2
 911              	.LVL53:
 912              		.thumb
ARM GAS  /var/tmp//ccCwo6w2.s 			page 17


 913              		.syntax unified
 914 0020 10BD     		pop	{r4, pc}
 915              	.LBE342:
 916              	.LBE341:
 917              	.LBE340:
 918              	.LBE339:
 919              	.LBE338:
 920              	.LBE337:
 921              		.cfi_endproc
 922              	.LFE268:
 923              		.size	spiSend, .-spiSend
 924 0022 00BF     		.section	.text.spiReceive,"ax",%progbits
 925              		.align	1
 926              		.p2align 4,,15
 927              		.global	spiReceive
 928              		.syntax unified
 929              		.thumb
 930              		.thumb_func
 931              		.fpu fpv4-sp-d16
 932              		.type	spiReceive, %function
 933              	spiReceive:
 934              	.LFB269:
 935              		.loc 1 365 0
 936              		.cfi_startproc
 937              		@ args = 0, pretend = 0, frame = 0
 938              		@ frame_needed = 0, uses_anonymous_args = 0
 939              	.LVL54:
 940 0000 10B5     		push	{r4, lr}
 941              		.cfi_def_cfa_offset 8
 942              		.cfi_offset 4, -8
 943              		.cfi_offset 14, -4
 944              	.LBB343:
 945              	.LBB344:
 946              	.LBB345:
 947              	.LBB346:
 948              	.LBB347:
 949              		.loc 3 546 0
 950 0002 2023     		movs	r3, #32
 951              	.LBE347:
 952              	.LBE346:
 953              	.LBE345:
 954              	.LBE344:
 955              	.LBE343:
 956              		.loc 1 365 0
 957 0004 0446     		mov	r4, r0
 958              	.LBB352:
 959              	.LBB351:
 960              	.LBB350:
 961              	.LBB349:
 962              	.LBB348:
 963              		.loc 3 546 0
 964              		.syntax unified
 965              	@ 546 "ChibiOS_3.0.2/os/ext/CMSIS/include/core_cmFunc.h" 1
 966 0006 83F31188 		MSR basepri, r3
 967              	@ 0 "" 2
 968              	.LVL55:
 969              		.thumb
ARM GAS  /var/tmp//ccCwo6w2.s 			page 18


 970              		.syntax unified
 971              	.LBE348:
 972              	.LBE349:
 973              	.LBE350:
 974              	.LBE351:
 975              	.LBE352:
 976              		.loc 1 372 0
 977 000a 0323     		movs	r3, #3
 978 000c 04F8083B 		strb	r3, [r4], #8
 979 0010 FFF7FEFF 		bl	spi_lld_receive
 980              	.LVL56:
 981              	.LBB353:
 982              	.LBB354:
 983              		.loc 2 688 0
 984 0014 2046     		mov	r0, r4
 985 0016 FFF7FEFF 		bl	chThdSuspendS
 986              	.LVL57:
 987              	.LBE354:
 988              	.LBE353:
 989              	.LBB355:
 990              	.LBB356:
 991              	.LBB357:
 992              	.LBB358:
 993              	.LBB359:
 994              	.LBB360:
 995              		.loc 3 546 0
 996 001a 0023     		movs	r3, #0
 997              		.syntax unified
 998              	@ 546 "ChibiOS_3.0.2/os/ext/CMSIS/include/core_cmFunc.h" 1
 999 001c 83F31188 		MSR basepri, r3
 1000              	@ 0 "" 2
 1001              	.LVL58:
 1002              		.thumb
 1003              		.syntax unified
 1004 0020 10BD     		pop	{r4, pc}
 1005              	.LBE360:
 1006              	.LBE359:
 1007              	.LBE358:
 1008              	.LBE357:
 1009              	.LBE356:
 1010              	.LBE355:
 1011              		.cfi_endproc
 1012              	.LFE269:
 1013              		.size	spiReceive, .-spiReceive
 1014 0022 00BF     		.section	.text.spiAcquireBus,"ax",%progbits
 1015              		.align	1
 1016              		.p2align 4,,15
 1017              		.global	spiAcquireBus
 1018              		.syntax unified
 1019              		.thumb
 1020              		.thumb_func
 1021              		.fpu fpv4-sp-d16
 1022              		.type	spiAcquireBus, %function
 1023              	spiAcquireBus:
 1024              	.LFB270:
 1025              		.loc 1 390 0
 1026              		.cfi_startproc
ARM GAS  /var/tmp//ccCwo6w2.s 			page 19


 1027              		@ args = 0, pretend = 0, frame = 0
 1028              		@ frame_needed = 0, uses_anonymous_args = 0
 1029              		@ link register save eliminated.
 1030              	.LVL59:
 1031              	.LBB361:
 1032              	.LBB362:
 1033              		.loc 2 907 0
 1034 0000 0C30     		adds	r0, r0, #12
 1035              	.LVL60:
 1036 0002 FFF7FEBF 		b	chMtxLock
 1037              	.LVL61:
 1038              	.LBE362:
 1039              	.LBE361:
 1040              		.cfi_endproc
 1041              	.LFE270:
 1042              		.size	spiAcquireBus, .-spiAcquireBus
 1043 0006 00BF     		.section	.text.spiReleaseBus,"ax",%progbits
 1044              		.align	1
 1045              		.p2align 4,,15
 1046              		.global	spiReleaseBus
 1047              		.syntax unified
 1048              		.thumb
 1049              		.thumb_func
 1050              		.fpu fpv4-sp-d16
 1051              		.type	spiReleaseBus, %function
 1052              	spiReleaseBus:
 1053              	.LFB271:
 1054              		.loc 1 406 0
 1055              		.cfi_startproc
 1056              		@ args = 0, pretend = 0, frame = 0
 1057              		@ frame_needed = 0, uses_anonymous_args = 0
 1058              		@ link register save eliminated.
 1059              	.LVL62:
 1060              	.LBB363:
 1061              	.LBB364:
 1062              		.loc 2 931 0
 1063 0000 0C30     		adds	r0, r0, #12
 1064              	.LVL63:
 1065 0002 FFF7FEBF 		b	chMtxUnlock
 1066              	.LVL64:
 1067              	.LBE364:
 1068              	.LBE363:
 1069              		.cfi_endproc
 1070              	.LFE271:
 1071              		.size	spiReleaseBus, .-spiReleaseBus
 1072 0006 00BF     		.text
 1073              	.Letext0:
 1074              		.file 4 "/usr/local/gcc_arm/gcc-arm-none-eabi-6-2017-q2-update/lib/gcc/arm-none-eabi/6.3.1/include
 1075              		.file 5 "/usr/local/gcc_arm/gcc-arm-none-eabi-6-2017-q2-update/arm-none-eabi/include/machine/_defa
 1076              		.file 6 "/usr/local/gcc_arm/gcc-arm-none-eabi-6-2017-q2-update/arm-none-eabi/include/sys/_stdint.h
 1077              		.file 7 "ChibiOS_3.0.2/os/rt/ports/ARMCMx/compilers/GCC/chtypes.h"
 1078              		.file 8 "ChibiOS_3.0.2/os/rt/include/chsystypes.h"
 1079              		.file 9 "ChibiOS_3.0.2/os/rt/include/chschd.h"
 1080              		.file 10 "ChibiOS_3.0.2/os/ext/CMSIS/include/core_cm4.h"
 1081              		.file 11 "ChibiOS_3.0.2/os/ext/CMSIS/ST/system_stm32f4xx.h"
 1082              		.file 12 "ChibiOS_3.0.2/os/ext/CMSIS/ST/stm32f407xx.h"
 1083              		.file 13 "ChibiOS_3.0.2/os/rt/ports/ARMCMx/chcore.h"
ARM GAS  /var/tmp//ccCwo6w2.s 			page 20


 1084              		.file 14 "ChibiOS_3.0.2/os/rt/ports/ARMCMx/chcore_v7m.h"
 1085              		.file 15 "ChibiOS_3.0.2/os/rt/include/chtm.h"
 1086              		.file 16 "ChibiOS_3.0.2/os/rt/include/chsem.h"
 1087              		.file 17 "ChibiOS_3.0.2/os/rt/include/chmtx.h"
 1088              		.file 18 "ChibiOS_3.0.2/os/rt/include/chregistry.h"
 1089              		.file 19 "ChibiOS_3.0.2/os/rt/include/chevents.h"
 1090              		.file 20 "ChibiOS_3.0.2/os/rt/include/chqueues.h"
 1091              		.file 21 "./conf_general.h"
 1092              		.file 22 "ChibiOS_3.0.2/os/hal/ports/STM32/STM32F4xx/stm32_dma.h"
 1093              		.file 23 "ChibiOS_3.0.2/os/hal/ports/STM32/LLD/GPIOv2/pal_lld.h"
 1094              		.file 24 "ChibiOS_3.0.2/os/hal/include/can.h"
 1095              		.file 25 "ChibiOS_3.0.2/os/hal/ports/STM32/LLD/can_lld.h"
 1096              		.file 26 "ChibiOS_3.0.2/os/hal/include/i2c.h"
 1097              		.file 27 "ChibiOS_3.0.2/os/hal/ports/STM32/LLD/I2Cv1/i2c_lld.h"
 1098              		.file 28 "ChibiOS_3.0.2/os/hal/include/icu.h"
 1099              		.file 29 "ChibiOS_3.0.2/os/hal/ports/STM32/LLD/TIMv1/icu_lld.h"
 1100              		.file 30 "ChibiOS_3.0.2/os/hal/ports/STM32/LLD/TIMv1/stm32_tim.h"
 1101              		.file 31 "ChibiOS_3.0.2/os/hal/include/spi.h"
 1102              		.file 32 "ChibiOS_3.0.2/os/hal/ports/STM32/LLD/SPIv1/spi_lld.h"
 1103              		.file 33 "ChibiOS_3.0.2/os/hal/include/uart.h"
 1104              		.file 34 "ChibiOS_3.0.2/os/hal/ports/STM32/LLD/USARTv1/uart_lld.h"
 1105              		.file 35 "ChibiOS_3.0.2/os/hal/include/usb.h"
 1106              		.file 36 "ChibiOS_3.0.2/os/hal/ports/STM32/LLD/OTGv1/usb_lld.h"
 1107              		.file 37 "ChibiOS_3.0.2/os/hal/ports/STM32/LLD/OTGv1/stm32_otg.h"
 1108              		.file 38 "ChibiOS_3.0.2/os/rt/include/chsys.h"
 1109              		.file 39 "ChibiOS_3.0.2/os/rt/include/chthreads.h"