ARM GAS  C:\Users\Grillmo\AppData\Local\Temp\cco5R2Yx.s 			page 1


   1              		.cpu cortex-m4
   2              		.eabi_attribute 27, 1
   3              		.eabi_attribute 28, 1
   4              		.eabi_attribute 20, 1
   5              		.eabi_attribute 21, 1
   6              		.eabi_attribute 23, 3
   7              		.eabi_attribute 24, 1
   8              		.eabi_attribute 25, 1
   9              		.eabi_attribute 26, 1
  10              		.eabi_attribute 30, 2
  11              		.eabi_attribute 34, 1
  12              		.eabi_attribute 18, 4
  13              		.file	"spi_sw.c"
  14              		.text
  15              	.Ltext0:
  16              		.cfi_sections	.debug_frame
  17              		.section	.text.spi_sw_init.part.0,"ax",%progbits
  18              		.align	1
  19              		.p2align 4,,15
  20              		.syntax unified
  21              		.thumb
  22              		.thumb_func
  23              		.fpu fpv4-sp-d16
  24              		.type	spi_sw_init.part.0, %function
  25              	spi_sw_init.part.0:
  26              	.LFB263:
  27              		.file 1 "nrf/spi_sw.c"
  28              		.loc 1 38 0
  29              		.cfi_startproc
  30              		@ args = 0, pretend = 0, frame = 0
  31              		@ frame_needed = 0, uses_anonymous_args = 0
  32              		.loc 1 40 0
  33 0000 1C4A     		ldr	r2, .L3
  34 0002 1D4B     		ldr	r3, .L3+4
  35 0004 1168     		ldr	r1, [r2]
  36 0006 1868     		ldr	r0, [r3]
  37              		.loc 1 38 0
  38 0008 2DE9F041 		push	{r4, r5, r6, r7, r8, lr}
  39              		.cfi_def_cfa_offset 24
  40              		.cfi_offset 4, -24
  41              		.cfi_offset 5, -20
  42              		.cfi_offset 6, -16
  43              		.cfi_offset 7, -12
  44              		.cfi_offset 8, -8
  45              		.cfi_offset 14, -4
  46              		.loc 1 40 0
  47 000c 0124     		movs	r4, #1
  48              		.loc 1 41 0
  49 000e DFF88480 		ldr	r8, .L3+32
  50 0012 1A4E     		ldr	r6, .L3+8
  51              		.loc 1 42 0
  52 0014 1A4F     		ldr	r7, .L3+12
  53 0016 1B4D     		ldr	r5, .L3+16
  54              		.loc 1 40 0
  55 0018 04FA01F1 		lsl	r1, r4, r1
  56 001c 0022     		movs	r2, #0
  57 001e FFF7FEFF 		bl	_pal_lld_setgroupmode
ARM GAS  C:\Users\Grillmo\AppData\Local\Temp\cco5R2Yx.s 			page 2


  58              	.LVL0:
  59              		.loc 1 41 0
  60 0022 D8F80010 		ldr	r1, [r8]
  61 0026 3068     		ldr	r0, [r6]
  62 0028 04FA01F1 		lsl	r1, r4, r1
  63 002c 2246     		mov	r2, r4
  64 002e FFF7FEFF 		bl	_pal_lld_setgroupmode
  65              	.LVL1:
  66              		.loc 1 42 0
  67 0032 3968     		ldr	r1, [r7]
  68 0034 2868     		ldr	r0, [r5]
  69 0036 04FA01F1 		lsl	r1, r4, r1
  70 003a 2246     		mov	r2, r4
  71 003c FFF7FEFF 		bl	_pal_lld_setgroupmode
  72              	.LVL2:
  73              		.loc 1 43 0
  74 0040 114A     		ldr	r2, .L3+20
  75 0042 124B     		ldr	r3, .L3+24
  76 0044 1168     		ldr	r1, [r2]
  77 0046 1868     		ldr	r0, [r3]
  78 0048 04FA01F1 		lsl	r1, r4, r1
  79 004c 2246     		mov	r2, r4
  80 004e FFF7FEFF 		bl	_pal_lld_setgroupmode
  81              	.LVL3:
  82              		.loc 1 45 0
  83 0052 D8F80020 		ldr	r2, [r8]
  84              		.loc 1 46 0
  85 0056 3B68     		ldr	r3, [r7]
  86              		.loc 1 45 0
  87 0058 3668     		ldr	r6, [r6]
  88              		.loc 1 46 0
  89 005a 2968     		ldr	r1, [r5]
  90              		.loc 1 47 0
  91 005c 0C48     		ldr	r0, .L3+28
  92              		.loc 1 45 0
  93 005e 04FA02F2 		lsl	r2, r4, r2
  94              		.loc 1 46 0
  95 0062 04FA03F3 		lsl	r3, r4, r3
  96              		.loc 1 45 0
  97 0066 92B2     		uxth	r2, r2
  98              		.loc 1 46 0
  99 0068 9BB2     		uxth	r3, r3
 100              		.loc 1 45 0
 101 006a 3283     		strh	r2, [r6, #24]	@ movhi
 102              		.loc 1 46 0
 103 006c 4B83     		strh	r3, [r1, #26]	@ movhi
 104              		.loc 1 47 0
 105 006e 0470     		strb	r4, [r0]
 106              		.loc 1 46 0
 107 0070 BDE8F081 		pop	{r4, r5, r6, r7, r8, pc}
 108              	.L4:
 109              		.align	2
 110              	.L3:
 111 0074 00000000 		.word	.LANCHOR0
 112 0078 00000000 		.word	.LANCHOR1
 113 007c 00000000 		.word	.LANCHOR3
 114 0080 00000000 		.word	.LANCHOR4
ARM GAS  C:\Users\Grillmo\AppData\Local\Temp\cco5R2Yx.s 			page 3


 115 0084 00000000 		.word	.LANCHOR5
 116 0088 00000000 		.word	.LANCHOR6
 117 008c 00000000 		.word	.LANCHOR7
 118 0090 00000000 		.word	.LANCHOR8
 119 0094 00000000 		.word	.LANCHOR2
 120              		.cfi_endproc
 121              	.LFE263:
 122              		.size	spi_sw_init.part.0, .-spi_sw_init.part.0
 123              		.section	.text.spi_sw_init,"ax",%progbits
 124              		.align	1
 125              		.p2align 4,,15
 126              		.global	spi_sw_init
 127              		.syntax unified
 128              		.thumb
 129              		.thumb_func
 130              		.fpu fpv4-sp-d16
 131              		.type	spi_sw_init, %function
 132              	spi_sw_init:
 133              	.LFB256:
 134              		.loc 1 38 0
 135              		.cfi_startproc
 136              		@ args = 0, pretend = 0, frame = 0
 137              		@ frame_needed = 0, uses_anonymous_args = 0
 138              		@ link register save eliminated.
 139              		.loc 1 39 0
 140 0000 024B     		ldr	r3, .L9
 141 0002 1B78     		ldrb	r3, [r3]	@ zero_extendqisi2
 142 0004 03B1     		cbz	r3, .L8
 143 0006 7047     		bx	lr
 144              	.L8:
 145 0008 FFF7FEBF 		b	spi_sw_init.part.0
 146              	.LVL4:
 147              	.L10:
 148              		.align	2
 149              	.L9:
 150 000c 00000000 		.word	.LANCHOR8
 151              		.cfi_endproc
 152              	.LFE256:
 153              		.size	spi_sw_init, .-spi_sw_init
 154              		.section	.text.spi_sw_stop,"ax",%progbits
 155              		.align	1
 156              		.p2align 4,,15
 157              		.global	spi_sw_stop
 158              		.syntax unified
 159              		.thumb
 160              		.thumb_func
 161              		.fpu fpv4-sp-d16
 162              		.type	spi_sw_stop, %function
 163              	spi_sw_stop:
 164              	.LFB257:
 165              		.loc 1 51 0
 166              		.cfi_startproc
 167              		@ args = 0, pretend = 0, frame = 0
 168              		@ frame_needed = 0, uses_anonymous_args = 0
 169              		.loc 1 52 0
 170 0000 144A     		ldr	r2, .L13
 171 0002 154B     		ldr	r3, .L13+4
ARM GAS  C:\Users\Grillmo\AppData\Local\Temp\cco5R2Yx.s 			page 4


 172 0004 1168     		ldr	r1, [r2]
 173 0006 1868     		ldr	r0, [r3]
 174              		.loc 1 51 0
 175 0008 10B5     		push	{r4, lr}
 176              		.cfi_def_cfa_offset 8
 177              		.cfi_offset 4, -8
 178              		.cfi_offset 14, -4
 179              		.loc 1 52 0
 180 000a 0124     		movs	r4, #1
 181 000c 04FA01F1 		lsl	r1, r4, r1
 182 0010 0022     		movs	r2, #0
 183 0012 FFF7FEFF 		bl	_pal_lld_setgroupmode
 184              	.LVL5:
 185              		.loc 1 53 0
 186 0016 114A     		ldr	r2, .L13+8
 187 0018 114B     		ldr	r3, .L13+12
 188 001a 1168     		ldr	r1, [r2]
 189 001c 1868     		ldr	r0, [r3]
 190 001e 04FA01F1 		lsl	r1, r4, r1
 191 0022 0022     		movs	r2, #0
 192 0024 FFF7FEFF 		bl	_pal_lld_setgroupmode
 193              	.LVL6:
 194              		.loc 1 54 0
 195 0028 0E4A     		ldr	r2, .L13+16
 196 002a 0F4B     		ldr	r3, .L13+20
 197 002c 1168     		ldr	r1, [r2]
 198 002e 1868     		ldr	r0, [r3]
 199 0030 04FA01F1 		lsl	r1, r4, r1
 200 0034 0022     		movs	r2, #0
 201 0036 FFF7FEFF 		bl	_pal_lld_setgroupmode
 202              	.LVL7:
 203              		.loc 1 55 0
 204 003a 0C4A     		ldr	r2, .L13+24
 205 003c 0C4B     		ldr	r3, .L13+28
 206 003e 1168     		ldr	r1, [r2]
 207 0040 1868     		ldr	r0, [r3]
 208 0042 0022     		movs	r2, #0
 209 0044 04FA01F1 		lsl	r1, r4, r1
 210 0048 FFF7FEFF 		bl	_pal_lld_setgroupmode
 211              	.LVL8:
 212              		.loc 1 56 0
 213 004c 094B     		ldr	r3, .L13+32
 214 004e 0022     		movs	r2, #0
 215 0050 1A70     		strb	r2, [r3]
 216 0052 10BD     		pop	{r4, pc}
 217              	.L14:
 218              		.align	2
 219              	.L13:
 220 0054 00000000 		.word	.LANCHOR0
 221 0058 00000000 		.word	.LANCHOR1
 222 005c 00000000 		.word	.LANCHOR2
 223 0060 00000000 		.word	.LANCHOR3
 224 0064 00000000 		.word	.LANCHOR4
 225 0068 00000000 		.word	.LANCHOR5
 226 006c 00000000 		.word	.LANCHOR6
 227 0070 00000000 		.word	.LANCHOR7
 228 0074 00000000 		.word	.LANCHOR8
ARM GAS  C:\Users\Grillmo\AppData\Local\Temp\cco5R2Yx.s 			page 5


 229              		.cfi_endproc
 230              	.LFE257:
 231              		.size	spi_sw_stop, .-spi_sw_stop
 232              		.section	.text.spi_sw_change_pins,"ax",%progbits
 233              		.align	1
 234              		.p2align 4,,15
 235              		.global	spi_sw_change_pins
 236              		.syntax unified
 237              		.thumb
 238              		.thumb_func
 239              		.fpu fpv4-sp-d16
 240              		.type	spi_sw_change_pins, %function
 241              	spi_sw_change_pins:
 242              	.LFB258:
 243              		.loc 1 63 0
 244              		.cfi_startproc
 245              		@ args = 16, pretend = 0, frame = 8
 246              		@ frame_needed = 0, uses_anonymous_args = 0
 247              	.LVL9:
 248 0000 2DE9F04F 		push	{r4, r5, r6, r7, r8, r9, r10, fp, lr}
 249              		.cfi_def_cfa_offset 36
 250              		.cfi_offset 4, -36
 251              		.cfi_offset 5, -32
 252              		.cfi_offset 6, -28
 253              		.cfi_offset 7, -24
 254              		.cfi_offset 8, -20
 255              		.cfi_offset 9, -16
 256              		.cfi_offset 10, -12
 257              		.cfi_offset 11, -8
 258              		.cfi_offset 14, -4
 259              		.loc 1 65 0
 260 0004 224F     		ldr	r7, .L20
 261              		.loc 1 63 0
 262 0006 83B0     		sub	sp, sp, #12
 263              		.cfi_def_cfa_offset 48
 264              		.loc 1 67 0
 265 0008 3C78     		ldrb	r4, [r7]	@ zero_extendqisi2
 266              		.loc 1 63 0
 267 000a DDF830B0 		ldr	fp, [sp, #48]
 268 000e DDF834A0 		ldr	r10, [sp, #52]
 269 0012 DDF83890 		ldr	r9, [sp, #56]
 270 0016 DDF83C80 		ldr	r8, [sp, #60]
 271              		.loc 1 67 0
 272 001a B4B9     		cbnz	r4, .L19
 273              		.loc 1 71 0
 274 001c 1D4D     		ldr	r5, .L20+4
 275              		.loc 1 72 0
 276 001e 1E4C     		ldr	r4, .L20+8
 277              		.loc 1 73 0
 278 0020 1E4E     		ldr	r6, .L20+12
 279              		.loc 1 71 0
 280 0022 2860     		str	r0, [r5]
 281              		.loc 1 72 0
 282 0024 2160     		str	r1, [r4]
 283              		.loc 1 74 0
 284 0026 1E4D     		ldr	r5, .L20+16
 285              		.loc 1 75 0
ARM GAS  C:\Users\Grillmo\AppData\Local\Temp\cco5R2Yx.s 			page 6


 286 0028 1E4C     		ldr	r4, .L20+20
 287              		.loc 1 76 0
 288 002a 1F48     		ldr	r0, .L20+24
 289              	.LVL10:
 290              		.loc 1 73 0
 291 002c 3260     		str	r2, [r6]
 292              		.loc 1 77 0
 293 002e 1F49     		ldr	r1, .L20+28
 294              	.LVL11:
 295              		.loc 1 78 0
 296 0030 1F4A     		ldr	r2, .L20+32
 297              	.LVL12:
 298              		.loc 1 74 0
 299 0032 2B60     		str	r3, [r5]
 300              		.loc 1 75 0
 301 0034 C4F800B0 		str	fp, [r4]
 302              		.loc 1 76 0
 303 0038 C0F800A0 		str	r10, [r0]
 304              		.loc 1 77 0
 305 003c C1F80090 		str	r9, [r1]
 306              		.loc 1 78 0
 307 0040 C2F80080 		str	r8, [r2]
 308              	.LVL13:
 309              	.L15:
 310              		.loc 1 83 0
 311 0044 03B0     		add	sp, sp, #12
 312              		.cfi_remember_state
 313              		.cfi_def_cfa_offset 36
 314              		@ sp needed
 315 0046 BDE8F08F 		pop	{r4, r5, r6, r7, r8, r9, r10, fp, pc}
 316              	.LVL14:
 317              	.L19:
 318              		.cfi_restore_state
 319 004a 1446     		mov	r4, r2
 320 004c 0D46     		mov	r5, r1
 321 004e 0646     		mov	r6, r0
 322 0050 0193     		str	r3, [sp, #4]
 323              		.loc 1 68 0
 324 0052 FFF7FEFF 		bl	spi_sw_stop
 325              	.LVL15:
 326              		.loc 1 71 0
 327 0056 0F4A     		ldr	r2, .L20+4
 328              		.loc 1 72 0
 329 0058 0F49     		ldr	r1, .L20+8
 330              		.loc 1 71 0
 331 005a 1660     		str	r6, [r2]
 332              		.loc 1 73 0
 333 005c 0F4A     		ldr	r2, .L20+12
 334              		.loc 1 72 0
 335 005e 0D60     		str	r5, [r1]
 336              		.loc 1 73 0
 337 0060 1460     		str	r4, [r2]
 338              		.loc 1 74 0
 339 0062 0F4E     		ldr	r6, .L20+16
 340              	.LVL16:
 341              		.loc 1 75 0
 342 0064 0F4D     		ldr	r5, .L20+20
ARM GAS  C:\Users\Grillmo\AppData\Local\Temp\cco5R2Yx.s 			page 7


 343              	.LVL17:
 344              		.loc 1 76 0
 345 0066 1048     		ldr	r0, .L20+24
 346              		.loc 1 77 0
 347 0068 1049     		ldr	r1, .L20+28
 348              		.loc 1 78 0
 349 006a 114A     		ldr	r2, .L20+32
 350              	.LBB48:
 351              	.LBB49:
 352              		.loc 1 39 0
 353 006c 3B78     		ldrb	r3, [r7]	@ zero_extendqisi2
 354              	.LBE49:
 355              	.LBE48:
 356              		.loc 1 74 0
 357 006e 019C     		ldr	r4, [sp, #4]
 358              	.LVL18:
 359 0070 3460     		str	r4, [r6]
 360              		.loc 1 75 0
 361 0072 C5F800B0 		str	fp, [r5]
 362              		.loc 1 76 0
 363 0076 C0F800A0 		str	r10, [r0]
 364              		.loc 1 77 0
 365 007a C1F80090 		str	r9, [r1]
 366              		.loc 1 78 0
 367 007e C2F80080 		str	r8, [r2]
 368              	.LBB52:
 369              	.LBB50:
 370              		.loc 1 39 0
 371 0082 002B     		cmp	r3, #0
 372 0084 DED1     		bne	.L15
 373              	.LBE50:
 374              	.LBE52:
 375              		.loc 1 83 0
 376 0086 03B0     		add	sp, sp, #12
 377              		.cfi_def_cfa_offset 36
 378              		@ sp needed
 379 0088 BDE8F04F 		pop	{r4, r5, r6, r7, r8, r9, r10, fp, lr}
 380              		.cfi_restore 14
 381              		.cfi_restore 11
 382              		.cfi_restore 10
 383              		.cfi_restore 9
 384              		.cfi_restore 8
 385              		.cfi_restore 7
 386              		.cfi_restore 6
 387              		.cfi_restore 5
 388              		.cfi_restore 4
 389              		.cfi_def_cfa_offset 0
 390              	.LVL19:
 391              	.LBB53:
 392              	.LBB51:
 393 008c FFF7FEBF 		b	spi_sw_init.part.0
 394              	.LVL20:
 395              	.L21:
 396              		.align	2
 397              	.L20:
 398 0090 00000000 		.word	.LANCHOR8
 399 0094 00000000 		.word	.LANCHOR3
ARM GAS  C:\Users\Grillmo\AppData\Local\Temp\cco5R2Yx.s 			page 8


 400 0098 00000000 		.word	.LANCHOR2
 401 009c 00000000 		.word	.LANCHOR5
 402 00a0 00000000 		.word	.LANCHOR4
 403 00a4 00000000 		.word	.LANCHOR7
 404 00a8 00000000 		.word	.LANCHOR6
 405 00ac 00000000 		.word	.LANCHOR1
 406 00b0 00000000 		.word	.LANCHOR0
 407              	.LBE51:
 408              	.LBE53:
 409              		.cfi_endproc
 410              	.LFE258:
 411              		.size	spi_sw_change_pins, .-spi_sw_change_pins
 412              		.section	.text.spi_sw_transfer,"ax",%progbits
 413              		.align	1
 414              		.p2align 4,,15
 415              		.global	spi_sw_transfer
 416              		.syntax unified
 417              		.thumb
 418              		.thumb_func
 419              		.fpu fpv4-sp-d16
 420              		.type	spi_sw_transfer, %function
 421              	spi_sw_transfer:
 422              	.LFB259:
 423              		.loc 1 85 0
 424              		.cfi_startproc
 425              		@ args = 0, pretend = 0, frame = 40
 426              		@ frame_needed = 0, uses_anonymous_args = 0
 427              	.LVL21:
 428 0000 2DE9F04F 		push	{r4, r5, r6, r7, r8, r9, r10, fp, lr}
 429              		.cfi_def_cfa_offset 36
 430              		.cfi_offset 4, -36
 431              		.cfi_offset 5, -32
 432              		.cfi_offset 6, -28
 433              		.cfi_offset 7, -24
 434              		.cfi_offset 8, -20
 435              		.cfi_offset 9, -16
 436              		.cfi_offset 10, -12
 437              		.cfi_offset 11, -8
 438              		.cfi_offset 14, -4
 439              		.loc 1 86 0
 440 0004 DFF81881 		ldr	r8, .L56+8
 441 0008 434B     		ldr	r3, .L56
 442 000a D8F80050 		ldr	r5, [r8]
 443 000e 1C68     		ldr	r4, [r3]
 444 0010 0123     		movs	r3, #1
 445              		.loc 1 85 0
 446 0012 8BB0     		sub	sp, sp, #44
 447              		.cfi_def_cfa_offset 80
 448              		.loc 1 86 0
 449 0014 AB40     		lsls	r3, r3, r5
 450 0016 9BB2     		uxth	r3, r3
 451              	.LBB54:
 452              	.LBB55:
 453              		.loc 1 133 0
 454 0018 0025     		movs	r5, #0
 455              	.LBE55:
 456              	.LBE54:
ARM GAS  C:\Users\Grillmo\AppData\Local\Temp\cco5R2Yx.s 			page 9


 457              		.loc 1 86 0
 458 001a 6383     		strh	r3, [r4, #26]	@ movhi
 459              	.LBB59:
 460              	.LBB58:
 461              		.loc 1 133 0
 462 001c 0795     		str	r5, [sp, #28]
 463 001e 079B     		ldr	r3, [sp, #28]
 464 0020 042B     		cmp	r3, #4
 465 0022 06DC     		bgt	.L26
 466              	.L43:
 467              	.LBB56:
 468              	.LBB57:
 469              		.file 2 "ChibiOS_3.0.2/os/ext/CMSIS/include/core_cmInstr.h"
 470              		.loc 2 327 0
 471              		.syntax unified
 472              	@ 327 "ChibiOS_3.0.2/os/ext/CMSIS/include/core_cmInstr.h" 1
 473 0024 00BF     		nop
 474              	@ 0 "" 2
 475              		.thumb
 476              		.syntax unified
 477              	.LBE57:
 478              	.LBE56:
 479              		.loc 1 133 0
 480 0026 079B     		ldr	r3, [sp, #28]
 481 0028 0133     		adds	r3, r3, #1
 482 002a 0793     		str	r3, [sp, #28]
 483 002c 079B     		ldr	r3, [sp, #28]
 484 002e 042B     		cmp	r3, #4
 485 0030 F8DD     		ble	.L43
 486              	.L26:
 487              	.LVL22:
 488              	.LBE58:
 489              	.LBE59:
 490              	.LBB60:
 491              		.loc 1 89 0
 492 0032 002A     		cmp	r2, #0
 493 0034 6BDD     		ble	.L22
 494 0036 8218     		adds	r2, r0, r2
 495              	.LVL23:
 496 0038 DFF8E8B0 		ldr	fp, .L56+12
 497 003c DFF8E8A0 		ldr	r10, .L56+16
 498 0040 DFF8E890 		ldr	r9, .L56+20
 499 0044 0391     		str	r1, [sp, #12]
 500 0046 0590     		str	r0, [sp, #20]
 501 0048 0492     		str	r2, [sp, #16]
 502 004a 0190     		str	r0, [sp, #4]
 503 004c 0291     		str	r1, [sp, #8]
 504              	.LBB61:
 505              		.loc 1 90 0
 506 004e 0027     		movs	r7, #0
 507              	.LVL24:
 508              	.L37:
 509 0050 039B     		ldr	r3, [sp, #12]
 510 0052 002B     		cmp	r3, #0
 511 0054 5ED0     		beq	.L38
 512              		.loc 1 90 0 is_stmt 0 discriminator 1
 513 0056 029B     		ldr	r3, [sp, #8]
ARM GAS  C:\Users\Grillmo\AppData\Local\Temp\cco5R2Yx.s 			page 10


 514 0058 1D78     		ldrb	r5, [r3]	@ zero_extendqisi2
 515              	.L27:
 516              		.loc 1 90 0
 517 005a 0826     		movs	r6, #8
 518 005c 0024     		movs	r4, #0
 519              	.L33:
 520              	.LVL25:
 521              	.LBB62:
 522              	.LBB63:
 523              		.loc 1 94 0 is_stmt 1
 524 005e 2F4B     		ldr	r3, .L56+4
 525 0060 DBF80010 		ldr	r1, [fp]
 526 0064 1A68     		ldr	r2, [r3]
 527 0066 EB09     		lsrs	r3, r5, #7
 528 0068 01F11000 		add	r0, r1, #16
 529 006c 03FA01F1 		lsl	r1, r3, r1
 530 0070 83F00103 		eor	r3, r3, #1
 531 0074 8340     		lsls	r3, r3, r0
 532 0076 0B43     		orrs	r3, r3, r1
 533 0078 9361     		str	r3, [r2, #24]
 534              	.LBB64:
 535              	.LBB65:
 536              		.loc 1 133 0
 537 007a 0897     		str	r7, [sp, #32]
 538 007c 089B     		ldr	r3, [sp, #32]
 539              	.LBE65:
 540              	.LBE64:
 541              		.loc 1 95 0
 542 007e 6D00     		lsls	r5, r5, #1
 543              	.LVL26:
 544              	.LBB70:
 545              	.LBB68:
 546              		.loc 1 133 0
 547 0080 042B     		cmp	r3, #4
 548              	.LBE68:
 549              	.LBE70:
 550              		.loc 1 95 0
 551 0082 EDB2     		uxtb	r5, r5
 552              	.LVL27:
 553              	.LBB71:
 554              	.LBB69:
 555              		.loc 1 133 0
 556 0084 06DC     		bgt	.L31
 557              	.L42:
 558              	.LBB66:
 559              	.LBB67:
 560              		.loc 2 327 0
 561              		.syntax unified
 562              	@ 327 "ChibiOS_3.0.2/os/ext/CMSIS/include/core_cmInstr.h" 1
 563 0086 00BF     		nop
 564              	@ 0 "" 2
 565              		.thumb
 566              		.syntax unified
 567              	.LBE67:
 568              	.LBE66:
 569              		.loc 1 133 0
 570 0088 089B     		ldr	r3, [sp, #32]
ARM GAS  C:\Users\Grillmo\AppData\Local\Temp\cco5R2Yx.s 			page 11


 571 008a 0133     		adds	r3, r3, #1
 572 008c 0893     		str	r3, [sp, #32]
 573 008e 089B     		ldr	r3, [sp, #32]
 574 0090 042B     		cmp	r3, #4
 575 0092 F8DD     		ble	.L42
 576              	.L31:
 577              	.LBE69:
 578              	.LBE71:
 579              		.loc 1 100 0
 580 0094 DAF80020 		ldr	r2, [r10]
 581 0098 D9F80030 		ldr	r3, [r9]
 582 009c 1069     		ldr	r0, [r2, #16]
 583              	.LVL28:
 584              	.LBB72:
 585              	.LBB73:
 586              		.loc 2 327 0
 587              		.syntax unified
 588              	@ 327 "ChibiOS_3.0.2/os/ext/CMSIS/include/core_cmInstr.h" 1
 589 009e 00BF     		nop
 590              	@ 0 "" 2
 591              		.thumb
 592              		.syntax unified
 593              	.LBE73:
 594              	.LBE72:
 595              		.loc 1 102 0
 596 00a0 1169     		ldr	r1, [r2, #16]
 597              	.LVL29:
 598              	.LBB74:
 599              	.LBB75:
 600              		.loc 2 327 0
 601              		.syntax unified
 602              	@ 327 "ChibiOS_3.0.2/os/ext/CMSIS/include/core_cmInstr.h" 1
 603 00a2 00BF     		nop
 604              	@ 0 "" 2
 605              		.thumb
 606              		.syntax unified
 607              	.LBE75:
 608              	.LBE74:
 609              		.loc 1 104 0
 610 00a4 1269     		ldr	r2, [r2, #16]
 611              	.LVL30:
 612              		.loc 1 102 0
 613 00a6 D940     		lsrs	r1, r1, r3
 614              	.LVL31:
 615              		.loc 1 104 0
 616 00a8 DA40     		lsrs	r2, r2, r3
 617              	.LVL32:
 618              		.loc 1 100 0
 619 00aa D840     		lsrs	r0, r0, r3
 620              	.LVL33:
 621              		.loc 1 106 0
 622 00ac 6400     		lsls	r4, r4, #1
 623              	.LVL34:
 624              		.loc 1 107 0
 625 00ae 02F00102 		and	r2, r2, #1
 626              	.LVL35:
 627 00b2 01F00101 		and	r1, r1, #1
ARM GAS  C:\Users\Grillmo\AppData\Local\Temp\cco5R2Yx.s 			page 12


 628              	.LVL36:
 629 00b6 00F00100 		and	r0, r0, #1
 630              	.LVL37:
 631              		.loc 1 106 0
 632 00ba E4B2     		uxtb	r4, r4
 633              	.LVL38:
 634              		.loc 1 107 0
 635 00bc FFF7FEFF 		bl	utils_middle_of_3_int
 636              	.LVL39:
 637 00c0 08B1     		cbz	r0, .L30
 638              		.loc 1 108 0
 639 00c2 44F00104 		orr	r4, r4, #1
 640              	.LVL40:
 641              	.L30:
 642              		.loc 1 111 0 discriminator 2
 643 00c6 144B     		ldr	r3, .L56
 644 00c8 D8F80020 		ldr	r2, [r8]
 645 00cc 1968     		ldr	r1, [r3]
 646 00ce 0123     		movs	r3, #1
 647 00d0 03FA02F2 		lsl	r2, r3, r2
 648 00d4 92B2     		uxth	r2, r2
 649 00d6 0A83     		strh	r2, [r1, #24]	@ movhi
 650              	.LBB76:
 651              	.LBB77:
 652              		.loc 1 133 0 discriminator 2
 653 00d8 0997     		str	r7, [sp, #36]
 654 00da 099B     		ldr	r3, [sp, #36]
 655 00dc 042B     		cmp	r3, #4
 656 00de 06DC     		bgt	.L35
 657              	.L41:
 658              	.LBB78:
 659              	.LBB79:
 660              		.loc 2 327 0
 661              		.syntax unified
 662              	@ 327 "ChibiOS_3.0.2/os/ext/CMSIS/include/core_cmInstr.h" 1
 663 00e0 00BF     		nop
 664              	@ 0 "" 2
 665              		.thumb
 666              		.syntax unified
 667              	.LBE79:
 668              	.LBE78:
 669              		.loc 1 133 0
 670 00e2 099B     		ldr	r3, [sp, #36]
 671 00e4 0133     		adds	r3, r3, #1
 672 00e6 0993     		str	r3, [sp, #36]
 673 00e8 099B     		ldr	r3, [sp, #36]
 674 00ea 042B     		cmp	r3, #4
 675 00ec F8DD     		ble	.L41
 676              	.L35:
 677              	.LBE77:
 678              	.LBE76:
 679              	.LBE63:
 680              		.loc 1 93 0
 681 00ee 013E     		subs	r6, r6, #1
 682              	.LVL41:
 683              	.LBB80:
 684              		.loc 1 113 0
ARM GAS  C:\Users\Grillmo\AppData\Local\Temp\cco5R2Yx.s 			page 13


 685 00f0 4A83     		strh	r2, [r1, #26]	@ movhi
 686              	.LVL42:
 687              	.LBE80:
 688              		.loc 1 93 0
 689 00f2 B4D1     		bne	.L33
 690              	.LBE62:
 691              		.loc 1 116 0
 692 00f4 059B     		ldr	r3, [sp, #20]
 693 00f6 0BB1     		cbz	r3, .L36
 694              		.loc 1 117 0
 695 00f8 019B     		ldr	r3, [sp, #4]
 696 00fa 1C70     		strb	r4, [r3]
 697              	.L36:
 698 00fc 029A     		ldr	r2, [sp, #8]
 699 00fe 019B     		ldr	r3, [sp, #4]
 700 0100 0132     		adds	r2, r2, #1
 701 0102 0292     		str	r2, [sp, #8]
 702              	.LBE61:
 703              		.loc 1 89 0 discriminator 2
 704 0104 049A     		ldr	r2, [sp, #16]
 705 0106 0133     		adds	r3, r3, #1
 706 0108 9A42     		cmp	r2, r3
 707 010a 0193     		str	r3, [sp, #4]
 708 010c A0D1     		bne	.L37
 709              	.LVL43:
 710              	.L22:
 711              	.LBE60:
 712              		.loc 1 120 0
 713 010e 0BB0     		add	sp, sp, #44
 714              		.cfi_remember_state
 715              		.cfi_def_cfa_offset 36
 716              		@ sp needed
 717 0110 BDE8F08F 		pop	{r4, r5, r6, r7, r8, r9, r10, fp, pc}
 718              	.LVL44:
 719              	.L38:
 720              		.cfi_restore_state
 721              	.LBB82:
 722              	.LBB81:
 723              		.loc 1 90 0
 724 0114 039D     		ldr	r5, [sp, #12]
 725 0116 A0E7     		b	.L27
 726              	.L57:
 727              		.align	2
 728              	.L56:
 729 0118 00000000 		.word	.LANCHOR5
 730 011c 00000000 		.word	.LANCHOR7
 731 0120 00000000 		.word	.LANCHOR4
 732 0124 00000000 		.word	.LANCHOR6
 733 0128 00000000 		.word	.LANCHOR1
 734 012c 00000000 		.word	.LANCHOR0
 735              	.LBE81:
 736              	.LBE82:
 737              		.cfi_endproc
 738              	.LFE259:
 739              		.size	spi_sw_transfer, .-spi_sw_transfer
 740              		.section	.text.spi_sw_begin,"ax",%progbits
 741              		.align	1
ARM GAS  C:\Users\Grillmo\AppData\Local\Temp\cco5R2Yx.s 			page 14


 742              		.p2align 4,,15
 743              		.global	spi_sw_begin
 744              		.syntax unified
 745              		.thumb
 746              		.thumb_func
 747              		.fpu fpv4-sp-d16
 748              		.type	spi_sw_begin, %function
 749              	spi_sw_begin:
 750              	.LFB260:
 751              		.loc 1 122 0
 752              		.cfi_startproc
 753              		@ args = 0, pretend = 0, frame = 8
 754              		@ frame_needed = 0, uses_anonymous_args = 0
 755              		@ link register save eliminated.
 756              		.loc 1 123 0
 757 0000 0B4A     		ldr	r2, .L64
 758 0002 0C4B     		ldr	r3, .L64+4
 759 0004 1268     		ldr	r2, [r2]
 760 0006 1968     		ldr	r1, [r3]
 761 0008 0123     		movs	r3, #1
 762              		.loc 1 122 0
 763 000a 82B0     		sub	sp, sp, #8
 764              		.cfi_def_cfa_offset 8
 765              		.loc 1 123 0
 766 000c 9340     		lsls	r3, r3, r2
 767 000e 9BB2     		uxth	r3, r3
 768              	.LBB83:
 769              	.LBB84:
 770              		.loc 1 133 0
 771 0010 0022     		movs	r2, #0
 772              	.LBE84:
 773              	.LBE83:
 774              		.loc 1 123 0
 775 0012 4B83     		strh	r3, [r1, #26]	@ movhi
 776              	.LBB88:
 777              	.LBB87:
 778              		.loc 1 133 0
 779 0014 0192     		str	r2, [sp, #4]
 780 0016 019B     		ldr	r3, [sp, #4]
 781 0018 042B     		cmp	r3, #4
 782 001a 06DC     		bgt	.L58
 783              	.L61:
 784              	.LBB85:
 785              	.LBB86:
 786              		.loc 2 327 0
 787              		.syntax unified
 788              	@ 327 "ChibiOS_3.0.2/os/ext/CMSIS/include/core_cmInstr.h" 1
 789 001c 00BF     		nop
 790              	@ 0 "" 2
 791              		.thumb
 792              		.syntax unified
 793              	.LBE86:
 794              	.LBE85:
 795              		.loc 1 133 0
 796 001e 019B     		ldr	r3, [sp, #4]
 797 0020 0133     		adds	r3, r3, #1
 798 0022 0193     		str	r3, [sp, #4]
ARM GAS  C:\Users\Grillmo\AppData\Local\Temp\cco5R2Yx.s 			page 15


 799 0024 019B     		ldr	r3, [sp, #4]
 800 0026 042B     		cmp	r3, #4
 801 0028 F8DD     		ble	.L61
 802              	.L58:
 803              	.LBE87:
 804              	.LBE88:
 805              		.loc 1 125 0
 806 002a 02B0     		add	sp, sp, #8
 807              		.cfi_def_cfa_offset 0
 808              		@ sp needed
 809 002c 7047     		bx	lr
 810              	.L65:
 811 002e 00BF     		.align	2
 812              	.L64:
 813 0030 00000000 		.word	.LANCHOR2
 814 0034 00000000 		.word	.LANCHOR3
 815              		.cfi_endproc
 816              	.LFE260:
 817              		.size	spi_sw_begin, .-spi_sw_begin
 818              		.section	.text.spi_sw_end,"ax",%progbits
 819              		.align	1
 820              		.p2align 4,,15
 821              		.global	spi_sw_end
 822              		.syntax unified
 823              		.thumb
 824              		.thumb_func
 825              		.fpu fpv4-sp-d16
 826              		.type	spi_sw_end, %function
 827              	spi_sw_end:
 828              	.LFB261:
 829              		.loc 1 127 0
 830              		.cfi_startproc
 831              		@ args = 0, pretend = 0, frame = 8
 832              		@ frame_needed = 0, uses_anonymous_args = 0
 833              		@ link register save eliminated.
 834 0000 82B0     		sub	sp, sp, #8
 835              		.cfi_def_cfa_offset 8
 836              	.LBB89:
 837              	.LBB90:
 838              		.loc 1 133 0
 839 0002 0023     		movs	r3, #0
 840 0004 0193     		str	r3, [sp, #4]
 841 0006 019B     		ldr	r3, [sp, #4]
 842 0008 042B     		cmp	r3, #4
 843 000a 06DC     		bgt	.L68
 844              	.L69:
 845              	.LBB91:
 846              	.LBB92:
 847              		.loc 2 327 0
 848              		.syntax unified
 849              	@ 327 "ChibiOS_3.0.2/os/ext/CMSIS/include/core_cmInstr.h" 1
 850 000c 00BF     		nop
 851              	@ 0 "" 2
 852              		.thumb
 853              		.syntax unified
 854              	.LBE92:
 855              	.LBE91:
ARM GAS  C:\Users\Grillmo\AppData\Local\Temp\cco5R2Yx.s 			page 16


 856              		.loc 1 133 0
 857 000e 019B     		ldr	r3, [sp, #4]
 858 0010 0133     		adds	r3, r3, #1
 859 0012 0193     		str	r3, [sp, #4]
 860 0014 019B     		ldr	r3, [sp, #4]
 861 0016 042B     		cmp	r3, #4
 862 0018 F8DD     		ble	.L69
 863              	.L68:
 864              	.LBE90:
 865              	.LBE89:
 866              		.loc 1 129 0
 867 001a 054A     		ldr	r2, .L73
 868 001c 054B     		ldr	r3, .L73+4
 869 001e 1168     		ldr	r1, [r2]
 870 0020 1A68     		ldr	r2, [r3]
 871 0022 0123     		movs	r3, #1
 872 0024 8B40     		lsls	r3, r3, r1
 873 0026 9BB2     		uxth	r3, r3
 874 0028 1383     		strh	r3, [r2, #24]	@ movhi
 875              		.loc 1 130 0
 876 002a 02B0     		add	sp, sp, #8
 877              		.cfi_def_cfa_offset 0
 878              		@ sp needed
 879 002c 7047     		bx	lr
 880              	.L74:
 881 002e 00BF     		.align	2
 882              	.L73:
 883 0030 00000000 		.word	.LANCHOR2
 884 0034 00000000 		.word	.LANCHOR3
 885              		.cfi_endproc
 886              	.LFE261:
 887              		.size	spi_sw_end, .-spi_sw_end
 888              		.section	.bss.m_init_done,"aw",%nobits
 889              		.set	.LANCHOR8,. + 0
 890              		.type	m_init_done, %object
 891              		.size	m_init_done, 1
 892              	m_init_done:
 893 0000 00       		.space	1
 894              		.section	.data.m_pin_csn,"aw",%progbits
 895              		.align	2
 896              		.set	.LANCHOR2,. + 0
 897              		.type	m_pin_csn, %object
 898              		.size	m_pin_csn, 4
 899              	m_pin_csn:
 900 0000 04000000 		.word	4
 901              		.section	.data.m_pin_miso,"aw",%progbits
 902              		.align	2
 903              		.set	.LANCHOR0,. + 0
 904              		.type	m_pin_miso, %object
 905              		.size	m_pin_miso, 4
 906              	m_pin_miso:
 907 0000 06000000 		.word	6
 908              		.section	.data.m_pin_mosi,"aw",%progbits
 909              		.align	2
 910              		.set	.LANCHOR6,. + 0
 911              		.type	m_pin_mosi, %object
 912              		.size	m_pin_mosi, 4
ARM GAS  C:\Users\Grillmo\AppData\Local\Temp\cco5R2Yx.s 			page 17


 913              	m_pin_mosi:
 914 0000 07000000 		.word	7
 915              		.section	.data.m_pin_sck,"aw",%progbits
 916              		.align	2
 917              		.set	.LANCHOR4,. + 0
 918              		.type	m_pin_sck, %object
 919              		.size	m_pin_sck, 4
 920              	m_pin_sck:
 921 0000 05000000 		.word	5
 922              		.section	.data.m_port_csn,"aw",%progbits
 923              		.align	2
 924              		.set	.LANCHOR3,. + 0
 925              		.type	m_port_csn, %object
 926              		.size	m_port_csn, 4
 927              	m_port_csn:
 928 0000 00000240 		.word	1073872896
 929              		.section	.data.m_port_miso,"aw",%progbits
 930              		.align	2
 931              		.set	.LANCHOR1,. + 0
 932              		.type	m_port_miso, %object
 933              		.size	m_port_miso, 4
 934              	m_port_miso:
 935 0000 00000240 		.word	1073872896
 936              		.section	.data.m_port_mosi,"aw",%progbits
 937              		.align	2
 938              		.set	.LANCHOR7,. + 0
 939              		.type	m_port_mosi, %object
 940              		.size	m_port_mosi, 4
 941              	m_port_mosi:
 942 0000 00000240 		.word	1073872896
 943              		.section	.data.m_port_sck,"aw",%progbits
 944              		.align	2
 945              		.set	.LANCHOR5,. + 0
 946              		.type	m_port_sck, %object
 947              		.size	m_port_sck, 4
 948              	m_port_sck:
 949 0000 00000240 		.word	1073872896
 950              		.text
 951              	.Letext0:
 952              		.file 3 "c:\\chibistudio\\tools\\gnu tools arm embedded\\6.3 2017q1\\arm-none-eabi\\include\\machi
 953              		.file 4 "c:\\chibistudio\\tools\\gnu tools arm embedded\\6.3 2017q1\\arm-none-eabi\\include\\sys\\
 954              		.file 5 "c:\\chibistudio\\tools\\gnu tools arm embedded\\6.3 2017q1\\lib\\gcc\\arm-none-eabi\\6.3.
 955              		.file 6 "ChibiOS_3.0.2/os/rt/ports/ARMCMx/compilers/GCC/chtypes.h"
 956              		.file 7 "ChibiOS_3.0.2/os/rt/include/chsystypes.h"
 957              		.file 8 "ChibiOS_3.0.2/os/rt/include/chschd.h"
 958              		.file 9 "ChibiOS_3.0.2/os/ext/CMSIS/include/core_cm4.h"
 959              		.file 10 "ChibiOS_3.0.2/os/ext/CMSIS/ST/system_stm32f4xx.h"
 960              		.file 11 "ChibiOS_3.0.2/os/ext/CMSIS/ST/stm32f407xx.h"
 961              		.file 12 "ChibiOS_3.0.2/os/rt/ports/ARMCMx/chcore.h"
 962              		.file 13 "ChibiOS_3.0.2/os/rt/ports/ARMCMx/chcore_v7m.h"
 963              		.file 14 "ChibiOS_3.0.2/os/rt/include/chtm.h"
 964              		.file 15 "ChibiOS_3.0.2/os/rt/include/chsem.h"
 965              		.file 16 "ChibiOS_3.0.2/os/rt/include/chmtx.h"
 966              		.file 17 "ChibiOS_3.0.2/os/rt/include/chregistry.h"
 967              		.file 18 "ChibiOS_3.0.2/os/rt/include/chevents.h"
 968              		.file 19 "ChibiOS_3.0.2/os/rt/include/chqueues.h"
 969              		.file 20 "./conf_general.h"
ARM GAS  C:\Users\Grillmo\AppData\Local\Temp\cco5R2Yx.s 			page 18


 970              		.file 21 "ChibiOS_3.0.2/os/hal/ports/STM32/STM32F4xx/stm32_dma.h"
 971              		.file 22 "ChibiOS_3.0.2/os/hal/ports/STM32/LLD/GPIOv2/pal_lld.h"
 972              		.file 23 "ChibiOS_3.0.2/os/hal/include/can.h"
 973              		.file 24 "ChibiOS_3.0.2/os/hal/ports/STM32/LLD/can_lld.h"
 974              		.file 25 "ChibiOS_3.0.2/os/hal/include/i2c.h"
 975              		.file 26 "ChibiOS_3.0.2/os/hal/ports/STM32/LLD/I2Cv1/i2c_lld.h"
 976              		.file 27 "ChibiOS_3.0.2/os/hal/include/icu.h"
 977              		.file 28 "ChibiOS_3.0.2/os/hal/ports/STM32/LLD/TIMv1/icu_lld.h"
 978              		.file 29 "ChibiOS_3.0.2/os/hal/ports/STM32/LLD/TIMv1/stm32_tim.h"
 979              		.file 30 "ChibiOS_3.0.2/os/hal/include/spi.h"
 980              		.file 31 "ChibiOS_3.0.2/os/hal/ports/STM32/LLD/SPIv1/spi_lld.h"
 981              		.file 32 "ChibiOS_3.0.2/os/hal/include/uart.h"
 982              		.file 33 "ChibiOS_3.0.2/os/hal/ports/STM32/LLD/USARTv1/uart_lld.h"
 983              		.file 34 "ChibiOS_3.0.2/os/hal/include/usb.h"
 984              		.file 35 "ChibiOS_3.0.2/os/hal/ports/STM32/LLD/OTGv1/usb_lld.h"
 985              		.file 36 "ChibiOS_3.0.2/os/hal/ports/STM32/LLD/OTGv1/stm32_otg.h"
 986              		.file 37 "./utils.h"