ARM GAS  /var/tmp//cc7QU2Th.s 			page 1


   1              		.cpu cortex-m4
   2              		.eabi_attribute 27, 1
   3              		.eabi_attribute 28, 1
   4              		.eabi_attribute 20, 1
   5              		.eabi_attribute 21, 1
   6              		.eabi_attribute 23, 3
   7              		.eabi_attribute 24, 1
   8              		.eabi_attribute 25, 1
   9              		.eabi_attribute 26, 1
  10              		.eabi_attribute 30, 2
  11              		.eabi_attribute 34, 1
  12              		.eabi_attribute 18, 4
  13              		.file	"spi_lld.c"
  14              		.text
  15              	.Ltext0:
  16              		.cfi_sections	.debug_frame
  17              		.section	.text.spi_lld_serve_tx_interrupt,"ax",%progbits
  18              		.align	1
  19              		.p2align 4,,15
  20              		.syntax unified
  21              		.thumb
  22              		.thumb_func
  23              		.fpu fpv4-sp-d16
  24              		.type	spi_lld_serve_tx_interrupt, %function
  25              	spi_lld_serve_tx_interrupt:
  26              	.LFB257:
  27              		.file 1 "ChibiOS_3.0.2/os/hal/ports/STM32/LLD/SPIv1/spi_lld.c"
  28              		.loc 1 158 0
  29              		.cfi_startproc
  30              		@ args = 0, pretend = 0, frame = 0
  31              		@ frame_needed = 0, uses_anonymous_args = 0
  32              		@ link register save eliminated.
  33              	.LVL0:
  34              		.loc 1 163 0
  35 0000 11F00C0F 		tst	r1, #12
  36 0004 00D1     		bne	.L4
  37 0006 7047     		bx	lr
  38              	.L4:
  39              	.LVL1:
  40              	.LBB56:
  41              	.LBB57:
  42              		.file 2 "ChibiOS_3.0.2/os/hal/osal/rt/osal.h"
  43              		.loc 2 462 0
  44 0008 0148     		ldr	r0, .L5
  45              	.LVL2:
  46 000a FFF7FEBF 		b	chSysHalt
  47              	.LVL3:
  48              	.L6:
  49 000e 00BF     		.align	2
  50              	.L5:
  51 0010 00000000 		.word	.LC0
  52              	.LBE57:
  53              	.LBE56:
  54              		.cfi_endproc
  55              	.LFE257:
  56              		.size	spi_lld_serve_tx_interrupt, .-spi_lld_serve_tx_interrupt
  57              		.section	.text.spi_lld_serve_rx_interrupt,"ax",%progbits
ARM GAS  /var/tmp//cc7QU2Th.s 			page 2


  58              		.align	1
  59              		.p2align 4,,15
  60              		.syntax unified
  61              		.thumb
  62              		.thumb_func
  63              		.fpu fpv4-sp-d16
  64              		.type	spi_lld_serve_rx_interrupt, %function
  65              	spi_lld_serve_rx_interrupt:
  66              	.LFB256:
  67              		.loc 1 132 0
  68              		.cfi_startproc
  69              		@ args = 0, pretend = 0, frame = 0
  70              		@ frame_needed = 0, uses_anonymous_args = 0
  71              	.LVL4:
  72              		.loc 1 136 0
  73 0000 11F00C0F 		tst	r1, #12
  74              		.loc 1 132 0
  75 0004 38B5     		push	{r3, r4, r5, lr}
  76              		.cfi_def_cfa_offset 16
  77              		.cfi_offset 3, -16
  78              		.cfi_offset 4, -12
  79              		.cfi_offset 5, -8
  80              		.cfi_offset 14, -4
  81              		.loc 1 132 0
  82 0006 0446     		mov	r4, r0
  83              		.loc 1 136 0
  84 0008 34D1     		bne	.L22
  85              	.LVL5:
  86              	.L8:
  87              		.loc 1 144 0
  88 000a 606A     		ldr	r0, [r4, #36]
  89 000c 0268     		ldr	r2, [r0]
  90 000e 1368     		ldr	r3, [r2]
  91 0010 23F01F03 		bic	r3, r3, #31
  92 0014 1360     		str	r3, [r2]
  93              	.L9:
  94              		.loc 1 144 0 is_stmt 0 discriminator 2
  95 0016 1368     		ldr	r3, [r2]
  96 0018 D907     		lsls	r1, r3, #31
  97 001a FCD4     		bmi	.L9
  98              		.loc 1 144 0 discriminator 3
  99 001c 057A     		ldrb	r5, [r0, #8]	@ zero_extendqisi2
 100              		.loc 1 145 0 is_stmt 1 discriminator 3
 101 001e 216A     		ldr	r1, [r4, #32]
 102              		.loc 1 144 0 discriminator 3
 103 0020 4068     		ldr	r0, [r0, #4]
 104              		.loc 1 145 0 discriminator 3
 105 0022 0A68     		ldr	r2, [r1]
 106              		.loc 1 144 0 discriminator 3
 107 0024 3D23     		movs	r3, #61
 108 0026 AB40     		lsls	r3, r3, r5
 109 0028 0360     		str	r3, [r0]
 110              		.loc 1 145 0 discriminator 3
 111 002a 1368     		ldr	r3, [r2]
 112 002c 23F01F03 		bic	r3, r3, #31
 113 0030 1360     		str	r3, [r2]
 114              	.L10:
ARM GAS  /var/tmp//cc7QU2Th.s 			page 3


 115              		.loc 1 145 0 is_stmt 0 discriminator 2
 116 0032 1368     		ldr	r3, [r2]
 117 0034 DB07     		lsls	r3, r3, #31
 118 0036 FCD4     		bmi	.L10
 119              		.loc 1 149 0 is_stmt 1 discriminator 3
 120 0038 6368     		ldr	r3, [r4, #4]
 121              		.loc 1 145 0 discriminator 3
 122 003a 087A     		ldrb	r0, [r1, #8]	@ zero_extendqisi2
 123              		.loc 1 149 0 discriminator 3
 124 003c 1A68     		ldr	r2, [r3]
 125              		.loc 1 145 0 discriminator 3
 126 003e 4968     		ldr	r1, [r1, #4]
 127 0040 3D23     		movs	r3, #61
 128 0042 8340     		lsls	r3, r3, r0
 129 0044 0B60     		str	r3, [r1]
 130              		.loc 1 149 0 discriminator 3
 131 0046 92B1     		cbz	r2, .L11
 132              		.loc 1 149 0 is_stmt 0 discriminator 1
 133 0048 0423     		movs	r3, #4
 134 004a 2370     		strb	r3, [r4]
 135 004c 2046     		mov	r0, r4
 136 004e 9047     		blx	r2
 137              	.LVL6:
 138 0050 2378     		ldrb	r3, [r4]	@ zero_extendqisi2
 139 0052 042B     		cmp	r3, #4
 140 0054 0BD0     		beq	.L11
 141              	.L12:
 142              	.LVL7:
 143              	.LBB58:
 144              	.LBB59:
 145              	.LBB60:
 146              	.LBB61:
 147              	.LBB62:
 148              	.LBB63:
 149              		.file 3 "ChibiOS_3.0.2/os/ext/CMSIS/include/core_cmFunc.h"
 150              		.loc 3 546 0 is_stmt 1 discriminator 4
 151 0056 2023     		movs	r3, #32
 152              		.syntax unified
 153              	@ 546 "ChibiOS_3.0.2/os/ext/CMSIS/include/core_cmFunc.h" 1
 154 0058 83F31188 		MSR basepri, r3
 155              	@ 0 "" 2
 156              	.LVL8:
 157              		.thumb
 158              		.syntax unified
 159              	.LBE63:
 160              	.LBE62:
 161              	.LBE61:
 162              	.LBE60:
 163              	.LBE59:
 164              	.LBE58:
 165              	.LBB64:
 166              	.LBB65:
 167              		.loc 2 728 0 discriminator 4
 168 005c 0021     		movs	r1, #0
 169 005e 04F10800 		add	r0, r4, #8
 170              	.LVL9:
 171 0062 FFF7FEFF 		bl	chThdResumeI
ARM GAS  /var/tmp//cc7QU2Th.s 			page 4


 172              	.LVL10:
 173              	.LBE65:
 174              	.LBE64:
 175              	.LBB66:
 176              	.LBB67:
 177              	.LBB68:
 178              	.LBB69:
 179              	.LBB70:
 180              	.LBB71:
 181              		.loc 3 546 0 discriminator 4
 182 0066 0023     		movs	r3, #0
 183              		.syntax unified
 184              	@ 546 "ChibiOS_3.0.2/os/ext/CMSIS/include/core_cmFunc.h" 1
 185 0068 83F31188 		MSR basepri, r3
 186              	@ 0 "" 2
 187              	.LVL11:
 188              		.thumb
 189              		.syntax unified
 190 006c 38BD     		pop	{r3, r4, r5, pc}
 191              	.LVL12:
 192              	.L11:
 193              	.LBE71:
 194              	.LBE70:
 195              	.LBE69:
 196              	.LBE68:
 197              	.LBE67:
 198              	.LBE66:
 199              		.loc 1 149 0 discriminator 3
 200 006e 0223     		movs	r3, #2
 201 0070 2370     		strb	r3, [r4]
 202 0072 F0E7     		b	.L12
 203              	.LVL13:
 204              	.L22:
 205              	.LBB72:
 206              	.LBB73:
 207              		.loc 2 462 0
 208 0074 0148     		ldr	r0, .L23
 209              	.LVL14:
 210 0076 FFF7FEFF 		bl	chSysHalt
 211              	.LVL15:
 212 007a C6E7     		b	.L8
 213              	.L24:
 214              		.align	2
 215              	.L23:
 216 007c 00000000 		.word	.LC0
 217              	.LBE73:
 218              	.LBE72:
 219              		.cfi_endproc
 220              	.LFE256:
 221              		.size	spi_lld_serve_rx_interrupt, .-spi_lld_serve_rx_interrupt
 222              		.section	.text.spi_lld_init,"ax",%progbits
 223              		.align	1
 224              		.p2align 4,,15
 225              		.global	spi_lld_init
 226              		.syntax unified
 227              		.thumb
 228              		.thumb_func
ARM GAS  /var/tmp//cc7QU2Th.s 			page 5


 229              		.fpu fpv4-sp-d16
 230              		.type	spi_lld_init, %function
 231              	spi_lld_init:
 232              	.LFB258:
 233              		.loc 1 185 0
 234              		.cfi_startproc
 235              		@ args = 0, pretend = 0, frame = 0
 236              		@ frame_needed = 0, uses_anonymous_args = 0
 237 0000 10B5     		push	{r4, lr}
 238              		.cfi_def_cfa_offset 8
 239              		.cfi_offset 4, -8
 240              		.cfi_offset 14, -4
 241              		.loc 1 190 0
 242 0002 0A4C     		ldr	r4, .L27
 243              		.loc 1 187 0
 244 0004 0A4B     		ldr	r3, .L27+4
 245 0006 4FF6FF72 		movw	r2, #65535
 246              		.loc 1 190 0
 247 000a 2046     		mov	r0, r4
 248              		.loc 1 187 0
 249 000c 1A80     		strh	r2, [r3]	@ movhi
 250              		.loc 1 190 0
 251 000e FFF7FEFF 		bl	spiObjectInit
 252              	.LVL16:
 253              		.loc 1 192 0
 254 0012 084B     		ldr	r3, .L27+8
 255              		.loc 1 191 0
 256 0014 0848     		ldr	r0, .L27+12
 257              		.loc 1 194 0
 258 0016 0949     		ldr	r1, .L27+16
 259              		.loc 1 200 0
 260 0018 094A     		ldr	r2, .L27+20
 261              		.loc 1 191 0
 262 001a E061     		str	r0, [r4, #28]
 263              		.loc 1 193 0
 264 001c 03F12400 		add	r0, r3, #36
 265              		.loc 1 192 0
 266 0020 2362     		str	r3, [r4, #32]
 267              		.loc 1 193 0
 268 0022 6062     		str	r0, [r4, #36]
 269              		.loc 1 194 0
 270 0024 A162     		str	r1, [r4, #40]
 271              		.loc 1 200 0
 272 0026 E262     		str	r2, [r4, #44]
 273 0028 10BD     		pop	{r4, pc}
 274              	.L28:
 275 002a 00BF     		.align	2
 276              	.L27:
 277 002c 00000000 		.word	.LANCHOR1
 278 0030 00000000 		.word	.LANCHOR0
 279 0034 60000000 		.word	_stm32_dma_streams+96
 280 0038 00300140 		.word	1073819648
 281 003c 16000106 		.word	100728854
 282 0040 46000106 		.word	100728902
 283              		.cfi_endproc
 284              	.LFE258:
 285              		.size	spi_lld_init, .-spi_lld_init
ARM GAS  /var/tmp//cc7QU2Th.s 			page 6


 286              		.section	.text.spi_lld_start,"ax",%progbits
 287              		.align	1
 288              		.p2align 4,,15
 289              		.global	spi_lld_start
 290              		.syntax unified
 291              		.thumb
 292              		.thumb_func
 293              		.fpu fpv4-sp-d16
 294              		.type	spi_lld_start, %function
 295              	spi_lld_start:
 296              	.LFB259:
 297              		.loc 1 305 0
 298              		.cfi_startproc
 299              		@ args = 0, pretend = 0, frame = 0
 300              		@ frame_needed = 0, uses_anonymous_args = 0
 301              	.LVL17:
 302              		.loc 1 308 0
 303 0000 0378     		ldrb	r3, [r0]	@ zero_extendqisi2
 304 0002 012B     		cmp	r3, #1
 305              		.loc 1 305 0
 306 0004 10B5     		push	{r4, lr}
 307              		.cfi_def_cfa_offset 8
 308              		.cfi_offset 4, -8
 309              		.cfi_offset 14, -4
 310              		.loc 1 305 0
 311 0006 0446     		mov	r4, r0
 312              		.loc 1 308 0
 313 0008 1DD0     		beq	.L35
 314 000a C369     		ldr	r3, [r0, #28]
 315              	.LVL18:
 316              	.L30:
 317              		.loc 1 412 0
 318 000c 6268     		ldr	r2, [r4, #4]
 319              		.loc 1 415 0
 320 000e A06A     		ldr	r0, [r4, #40]
 321              		.loc 1 412 0
 322 0010 5289     		ldrh	r2, [r2, #10]
 323              		.loc 1 417 0
 324 0012 E16A     		ldr	r1, [r4, #44]
 325              		.loc 1 415 0
 326 0014 20F4F040 		bic	r0, r0, #30720
 327              		.loc 1 417 0
 328 0018 21F4F041 		bic	r1, r1, #30720
 329              		.loc 1 412 0
 330 001c 12F4006F 		tst	r2, #2048
 331              		.loc 1 422 0
 332 0020 1CBF     		itt	ne
 333 0022 40F42050 		orrne	r0, r0, #10240
 334              		.loc 1 424 0
 335 0026 41F42051 		orrne	r1, r1, #10240
 336              		.loc 1 421 0
 337 002a A062     		str	r0, [r4, #40]
 338              		.loc 1 423 0
 339 002c E162     		str	r1, [r4, #44]
 340              		.loc 1 428 0
 341 002e 42F44172 		orr	r2, r2, #772
 342              		.loc 1 427 0
ARM GAS  /var/tmp//cc7QU2Th.s 			page 7


 343 0032 0020     		movs	r0, #0
 344              		.loc 1 430 0
 345 0034 0721     		movs	r1, #7
 346              		.loc 1 427 0
 347 0036 1860     		str	r0, [r3]
 348              		.loc 1 428 0
 349 0038 1A60     		str	r2, [r3]
 350              		.loc 1 430 0
 351 003a 5960     		str	r1, [r3, #4]
 352              		.loc 1 431 0
 353 003c 1A68     		ldr	r2, [r3]
 354 003e 42F04002 		orr	r2, r2, #64
 355 0042 1A60     		str	r2, [r3]
 356 0044 10BD     		pop	{r4, pc}
 357              	.LVL19:
 358              	.L35:
 359              		.loc 1 310 0
 360 0046 0F4B     		ldr	r3, .L39
 361 0048 9842     		cmp	r0, r3
 362 004a 09D0     		beq	.L38
 363              	.LVL20:
 364              	.L31:
 365              		.loc 1 407 0
 366 004c 216A     		ldr	r1, [r4, #32]
 367              		.loc 1 408 0
 368 004e 626A     		ldr	r2, [r4, #36]
 369              		.loc 1 407 0
 370 0050 E369     		ldr	r3, [r4, #28]
 371 0052 0868     		ldr	r0, [r1]
 372              		.loc 1 408 0
 373 0054 1168     		ldr	r1, [r2]
 374              		.loc 1 407 0
 375 0056 03F10C02 		add	r2, r3, #12
 376 005a 8260     		str	r2, [r0, #8]
 377              		.loc 1 408 0
 378 005c 8A60     		str	r2, [r1, #8]
 379 005e D5E7     		b	.L30
 380              	.LVL21:
 381              	.L38:
 382              	.LBB74:
 383              		.loc 1 312 0
 384 0060 0346     		mov	r3, r0
 385 0062 094A     		ldr	r2, .L39+4
 386 0064 006A     		ldr	r0, [r0, #32]
 387              	.LVL22:
 388 0066 0A21     		movs	r1, #10
 389 0068 FFF7FEFF 		bl	dmaStreamAllocate
 390              	.LVL23:
 391              		.loc 1 317 0
 392 006c 2346     		mov	r3, r4
 393 006e 074A     		ldr	r2, .L39+8
 394 0070 606A     		ldr	r0, [r4, #36]
 395 0072 0A21     		movs	r1, #10
 396 0074 FFF7FEFF 		bl	dmaStreamAllocate
 397              	.LVL24:
 398              		.loc 1 322 0
 399 0078 054A     		ldr	r2, .L39+12
ARM GAS  /var/tmp//cc7QU2Th.s 			page 8


 400 007a 536C     		ldr	r3, [r2, #68]
 401 007c 43F48053 		orr	r3, r3, #4096
 402 0080 5364     		str	r3, [r2, #68]
 403 0082 E3E7     		b	.L31
 404              	.L40:
 405              		.align	2
 406              	.L39:
 407 0084 00000000 		.word	.LANCHOR1
 408 0088 00000000 		.word	spi_lld_serve_rx_interrupt
 409 008c 00000000 		.word	spi_lld_serve_tx_interrupt
 410 0090 00380240 		.word	1073887232
 411              	.LBE74:
 412              		.cfi_endproc
 413              	.LFE259:
 414              		.size	spi_lld_start, .-spi_lld_start
 415              		.section	.text.spi_lld_stop,"ax",%progbits
 416              		.align	1
 417              		.p2align 4,,15
 418              		.global	spi_lld_stop
 419              		.syntax unified
 420              		.thumb
 421              		.thumb_func
 422              		.fpu fpv4-sp-d16
 423              		.type	spi_lld_stop, %function
 424              	spi_lld_stop:
 425              	.LFB260:
 426              		.loc 1 441 0
 427              		.cfi_startproc
 428              		@ args = 0, pretend = 0, frame = 0
 429              		@ frame_needed = 0, uses_anonymous_args = 0
 430              	.LVL25:
 431              		.loc 1 444 0
 432 0000 0378     		ldrb	r3, [r0]	@ zero_extendqisi2
 433 0002 022B     		cmp	r3, #2
 434 0004 00D0     		beq	.L49
 435 0006 7047     		bx	lr
 436              	.L49:
 437              		.loc 1 447 0
 438 0008 C369     		ldr	r3, [r0, #28]
 439              		.loc 1 441 0
 440 000a 10B5     		push	{r4, lr}
 441              		.cfi_def_cfa_offset 8
 442              		.cfi_offset 4, -8
 443              		.cfi_offset 14, -4
 444              		.loc 1 447 0
 445 000c 0022     		movs	r2, #0
 446 000e 0446     		mov	r4, r0
 447              		.loc 1 449 0
 448 0010 006A     		ldr	r0, [r0, #32]
 449              	.LVL26:
 450              		.loc 1 447 0
 451 0012 1A60     		str	r2, [r3]
 452              		.loc 1 448 0
 453 0014 5A60     		str	r2, [r3, #4]
 454              		.loc 1 449 0
 455 0016 FFF7FEFF 		bl	dmaStreamRelease
 456              	.LVL27:
ARM GAS  /var/tmp//cc7QU2Th.s 			page 9


 457              		.loc 1 450 0
 458 001a 606A     		ldr	r0, [r4, #36]
 459 001c FFF7FEFF 		bl	dmaStreamRelease
 460              	.LVL28:
 461              		.loc 1 453 0
 462 0020 044B     		ldr	r3, .L51
 463 0022 9C42     		cmp	r4, r3
 464 0024 00D0     		beq	.L50
 465              	.L41:
 466 0026 10BD     		pop	{r4, pc}
 467              	.LVL29:
 468              	.L50:
 469              		.loc 1 454 0
 470 0028 034A     		ldr	r2, .L51+4
 471 002a 536C     		ldr	r3, [r2, #68]
 472 002c 23F48053 		bic	r3, r3, #4096
 473 0030 5364     		str	r3, [r2, #68]
 474              		.loc 1 477 0
 475 0032 F8E7     		b	.L41
 476              	.L52:
 477              		.align	2
 478              	.L51:
 479 0034 00000000 		.word	.LANCHOR1
 480 0038 00380240 		.word	1073887232
 481              		.cfi_endproc
 482              	.LFE260:
 483              		.size	spi_lld_stop, .-spi_lld_stop
 484              		.section	.text.spi_lld_select,"ax",%progbits
 485              		.align	1
 486              		.p2align 4,,15
 487              		.global	spi_lld_select
 488              		.syntax unified
 489              		.thumb
 490              		.thumb_func
 491              		.fpu fpv4-sp-d16
 492              		.type	spi_lld_select, %function
 493              	spi_lld_select:
 494              	.LFB261:
 495              		.loc 1 486 0
 496              		.cfi_startproc
 497              		@ args = 0, pretend = 0, frame = 0
 498              		@ frame_needed = 0, uses_anonymous_args = 0
 499              		@ link register save eliminated.
 500              	.LVL30:
 501              		.loc 1 488 0
 502 0000 4268     		ldr	r2, [r0, #4]
 503 0002 1189     		ldrh	r1, [r2, #8]
 504 0004 5268     		ldr	r2, [r2, #4]
 505 0006 0123     		movs	r3, #1
 506 0008 8B40     		lsls	r3, r3, r1
 507 000a 9BB2     		uxth	r3, r3
 508 000c 5383     		strh	r3, [r2, #26]	@ movhi
 509 000e 7047     		bx	lr
 510              		.cfi_endproc
 511              	.LFE261:
 512              		.size	spi_lld_select, .-spi_lld_select
 513              		.section	.text.spi_lld_unselect,"ax",%progbits
ARM GAS  /var/tmp//cc7QU2Th.s 			page 10


 514              		.align	1
 515              		.p2align 4,,15
 516              		.global	spi_lld_unselect
 517              		.syntax unified
 518              		.thumb
 519              		.thumb_func
 520              		.fpu fpv4-sp-d16
 521              		.type	spi_lld_unselect, %function
 522              	spi_lld_unselect:
 523              	.LFB262:
 524              		.loc 1 499 0
 525              		.cfi_startproc
 526              		@ args = 0, pretend = 0, frame = 0
 527              		@ frame_needed = 0, uses_anonymous_args = 0
 528              		@ link register save eliminated.
 529              	.LVL31:
 530              		.loc 1 501 0
 531 0000 4268     		ldr	r2, [r0, #4]
 532 0002 1189     		ldrh	r1, [r2, #8]
 533 0004 5268     		ldr	r2, [r2, #4]
 534 0006 0123     		movs	r3, #1
 535 0008 8B40     		lsls	r3, r3, r1
 536 000a 9BB2     		uxth	r3, r3
 537 000c 1383     		strh	r3, [r2, #24]	@ movhi
 538 000e 7047     		bx	lr
 539              		.cfi_endproc
 540              	.LFE262:
 541              		.size	spi_lld_unselect, .-spi_lld_unselect
 542              		.section	.text.spi_lld_ignore,"ax",%progbits
 543              		.align	1
 544              		.p2align 4,,15
 545              		.global	spi_lld_ignore
 546              		.syntax unified
 547              		.thumb
 548              		.thumb_func
 549              		.fpu fpv4-sp-d16
 550              		.type	spi_lld_ignore, %function
 551              	spi_lld_ignore:
 552              	.LFB263:
 553              		.loc 1 515 0
 554              		.cfi_startproc
 555              		@ args = 0, pretend = 0, frame = 0
 556              		@ frame_needed = 0, uses_anonymous_args = 0
 557              		@ link register save eliminated.
 558              	.LVL32:
 559              		.loc 1 517 0
 560 0000 026A     		ldr	r2, [r0, #32]
 561              		.loc 1 521 0
 562 0002 436A     		ldr	r3, [r0, #36]
 563              		.loc 1 517 0
 564 0004 1268     		ldr	r2, [r2]
 565              		.loc 1 521 0
 566 0006 1B68     		ldr	r3, [r3]
 567              		.loc 1 515 0
 568 0008 70B4     		push	{r4, r5, r6}
 569              		.cfi_def_cfa_offset 12
 570              		.cfi_offset 4, -12
ARM GAS  /var/tmp//cc7QU2Th.s 			page 11


 571              		.cfi_offset 5, -8
 572              		.cfi_offset 6, -4
 573              		.loc 1 519 0
 574 000a 856A     		ldr	r5, [r0, #40]
 575              		.loc 1 517 0
 576 000c 094E     		ldr	r6, .L57
 577              		.loc 1 523 0
 578 000e C06A     		ldr	r0, [r0, #44]
 579              	.LVL33:
 580              		.loc 1 521 0
 581 0010 094C     		ldr	r4, .L57+4
 582              		.loc 1 517 0
 583 0012 D660     		str	r6, [r2, #12]
 584              		.loc 1 518 0
 585 0014 5160     		str	r1, [r2, #4]
 586              		.loc 1 519 0
 587 0016 1560     		str	r5, [r2]
 588              		.loc 1 521 0
 589 0018 DC60     		str	r4, [r3, #12]
 590              		.loc 1 522 0
 591 001a 5960     		str	r1, [r3, #4]
 592              		.loc 1 523 0
 593 001c 1860     		str	r0, [r3]
 594              		.loc 1 525 0
 595 001e 1168     		ldr	r1, [r2]
 596              	.LVL34:
 597 0020 41F00101 		orr	r1, r1, #1
 598 0024 1160     		str	r1, [r2]
 599              		.loc 1 526 0
 600 0026 1A68     		ldr	r2, [r3]
 601 0028 42F00102 		orr	r2, r2, #1
 602 002c 1A60     		str	r2, [r3]
 603              		.loc 1 527 0
 604 002e 70BC     		pop	{r4, r5, r6}
 605              		.cfi_restore 6
 606              		.cfi_restore 5
 607              		.cfi_restore 4
 608              		.cfi_def_cfa_offset 0
 609 0030 7047     		bx	lr
 610              	.L58:
 611 0032 00BF     		.align	2
 612              	.L57:
 613 0034 00000000 		.word	.LANCHOR2
 614 0038 00000000 		.word	.LANCHOR0
 615              		.cfi_endproc
 616              	.LFE263:
 617              		.size	spi_lld_ignore, .-spi_lld_ignore
 618              		.section	.text.spi_lld_exchange,"ax",%progbits
 619              		.align	1
 620              		.p2align 4,,15
 621              		.global	spi_lld_exchange
 622              		.syntax unified
 623              		.thumb
 624              		.thumb_func
 625              		.fpu fpv4-sp-d16
 626              		.type	spi_lld_exchange, %function
 627              	spi_lld_exchange:
ARM GAS  /var/tmp//cc7QU2Th.s 			page 12


 628              	.LFB264:
 629              		.loc 1 545 0
 630              		.cfi_startproc
 631              		@ args = 0, pretend = 0, frame = 0
 632              		@ frame_needed = 0, uses_anonymous_args = 0
 633              		@ link register save eliminated.
 634              	.LVL35:
 635 0000 F0B4     		push	{r4, r5, r6, r7}
 636              		.cfi_def_cfa_offset 16
 637              		.cfi_offset 4, -16
 638              		.cfi_offset 5, -12
 639              		.cfi_offset 6, -8
 640              		.cfi_offset 7, -4
 641              		.loc 1 547 0
 642 0002 046A     		ldr	r4, [r0, #32]
 643              		.loc 1 551 0
 644 0004 476A     		ldr	r7, [r0, #36]
 645              		.loc 1 549 0
 646 0006 866A     		ldr	r6, [r0, #40]
 647              		.loc 1 553 0
 648 0008 C56A     		ldr	r5, [r0, #44]
 649              		.loc 1 547 0
 650 000a 2468     		ldr	r4, [r4]
 651              		.loc 1 551 0
 652 000c 3868     		ldr	r0, [r7]
 653              	.LVL36:
 654              		.loc 1 547 0
 655 000e E360     		str	r3, [r4, #12]
 656              		.loc 1 549 0
 657 0010 46F48066 		orr	r6, r6, #1024
 658              		.loc 1 553 0
 659 0014 45F48065 		orr	r5, r5, #1024
 660              		.loc 1 548 0
 661 0018 6160     		str	r1, [r4, #4]
 662              		.loc 1 549 0
 663 001a 2660     		str	r6, [r4]
 664              		.loc 1 551 0
 665 001c C260     		str	r2, [r0, #12]
 666              		.loc 1 552 0
 667 001e 4160     		str	r1, [r0, #4]
 668              		.loc 1 553 0
 669 0020 0560     		str	r5, [r0]
 670              		.loc 1 555 0
 671 0022 2368     		ldr	r3, [r4]
 672              	.LVL37:
 673 0024 43F00103 		orr	r3, r3, #1
 674 0028 2360     		str	r3, [r4]
 675              		.loc 1 556 0
 676 002a 0368     		ldr	r3, [r0]
 677 002c 43F00103 		orr	r3, r3, #1
 678 0030 0360     		str	r3, [r0]
 679              		.loc 1 557 0
 680 0032 F0BC     		pop	{r4, r5, r6, r7}
 681              		.cfi_restore 7
 682              		.cfi_restore 6
 683              		.cfi_restore 5
 684              		.cfi_restore 4
ARM GAS  /var/tmp//cc7QU2Th.s 			page 13


 685              		.cfi_def_cfa_offset 0
 686 0034 7047     		bx	lr
 687              		.cfi_endproc
 688              	.LFE264:
 689              		.size	spi_lld_exchange, .-spi_lld_exchange
 690 0036 00BF     		.section	.text.spi_lld_send,"ax",%progbits
 691              		.align	1
 692              		.p2align 4,,15
 693              		.global	spi_lld_send
 694              		.syntax unified
 695              		.thumb
 696              		.thumb_func
 697              		.fpu fpv4-sp-d16
 698              		.type	spi_lld_send, %function
 699              	spi_lld_send:
 700              	.LFB265:
 701              		.loc 1 572 0
 702              		.cfi_startproc
 703              		@ args = 0, pretend = 0, frame = 0
 704              		@ frame_needed = 0, uses_anonymous_args = 0
 705              		@ link register save eliminated.
 706              	.LVL38:
 707 0000 70B4     		push	{r4, r5, r6}
 708              		.cfi_def_cfa_offset 12
 709              		.cfi_offset 4, -12
 710              		.cfi_offset 5, -8
 711              		.cfi_offset 6, -4
 712              		.loc 1 578 0
 713 0002 436A     		ldr	r3, [r0, #36]
 714              		.loc 1 574 0
 715 0004 046A     		ldr	r4, [r0, #32]
 716              		.loc 1 580 0
 717 0006 C56A     		ldr	r5, [r0, #44]
 718              		.loc 1 574 0
 719 0008 2468     		ldr	r4, [r4]
 720              		.loc 1 578 0
 721 000a 1B68     		ldr	r3, [r3]
 722              		.loc 1 576 0
 723 000c 806A     		ldr	r0, [r0, #40]
 724              	.LVL39:
 725              		.loc 1 574 0
 726 000e 094E     		ldr	r6, .L63
 727 0010 E660     		str	r6, [r4, #12]
 728              		.loc 1 580 0
 729 0012 45F48065 		orr	r5, r5, #1024
 730              		.loc 1 575 0
 731 0016 6160     		str	r1, [r4, #4]
 732              		.loc 1 576 0
 733 0018 2060     		str	r0, [r4]
 734              		.loc 1 578 0
 735 001a DA60     		str	r2, [r3, #12]
 736              		.loc 1 579 0
 737 001c 5960     		str	r1, [r3, #4]
 738              		.loc 1 580 0
 739 001e 1D60     		str	r5, [r3]
 740              		.loc 1 582 0
 741 0020 2268     		ldr	r2, [r4]
ARM GAS  /var/tmp//cc7QU2Th.s 			page 14


 742              	.LVL40:
 743 0022 42F00102 		orr	r2, r2, #1
 744 0026 2260     		str	r2, [r4]
 745              		.loc 1 583 0
 746 0028 1A68     		ldr	r2, [r3]
 747 002a 42F00102 		orr	r2, r2, #1
 748 002e 1A60     		str	r2, [r3]
 749              		.loc 1 584 0
 750 0030 70BC     		pop	{r4, r5, r6}
 751              		.cfi_restore 6
 752              		.cfi_restore 5
 753              		.cfi_restore 4
 754              		.cfi_def_cfa_offset 0
 755 0032 7047     		bx	lr
 756              	.L64:
 757              		.align	2
 758              	.L63:
 759 0034 00000000 		.word	.LANCHOR2
 760              		.cfi_endproc
 761              	.LFE265:
 762              		.size	spi_lld_send, .-spi_lld_send
 763              		.section	.text.spi_lld_receive,"ax",%progbits
 764              		.align	1
 765              		.p2align 4,,15
 766              		.global	spi_lld_receive
 767              		.syntax unified
 768              		.thumb
 769              		.thumb_func
 770              		.fpu fpv4-sp-d16
 771              		.type	spi_lld_receive, %function
 772              	spi_lld_receive:
 773              	.LFB266:
 774              		.loc 1 599 0
 775              		.cfi_startproc
 776              		@ args = 0, pretend = 0, frame = 0
 777              		@ frame_needed = 0, uses_anonymous_args = 0
 778              		@ link register save eliminated.
 779              	.LVL41:
 780 0000 70B4     		push	{r4, r5, r6}
 781              		.cfi_def_cfa_offset 12
 782              		.cfi_offset 4, -12
 783              		.cfi_offset 5, -8
 784              		.cfi_offset 6, -4
 785              		.loc 1 605 0
 786 0002 436A     		ldr	r3, [r0, #36]
 787              		.loc 1 601 0
 788 0004 046A     		ldr	r4, [r0, #32]
 789              		.loc 1 603 0
 790 0006 856A     		ldr	r5, [r0, #40]
 791              		.loc 1 601 0
 792 0008 2468     		ldr	r4, [r4]
 793              		.loc 1 605 0
 794 000a 1B68     		ldr	r3, [r3]
 795              		.loc 1 607 0
 796 000c C06A     		ldr	r0, [r0, #44]
 797              	.LVL42:
 798              		.loc 1 605 0
ARM GAS  /var/tmp//cc7QU2Th.s 			page 15


 799 000e 094E     		ldr	r6, .L67
 800              		.loc 1 601 0
 801 0010 E260     		str	r2, [r4, #12]
 802              		.loc 1 603 0
 803 0012 45F48065 		orr	r5, r5, #1024
 804              		.loc 1 602 0
 805 0016 6160     		str	r1, [r4, #4]
 806              		.loc 1 603 0
 807 0018 2560     		str	r5, [r4]
 808              		.loc 1 605 0
 809 001a DE60     		str	r6, [r3, #12]
 810              		.loc 1 606 0
 811 001c 5960     		str	r1, [r3, #4]
 812              		.loc 1 607 0
 813 001e 1860     		str	r0, [r3]
 814              		.loc 1 609 0
 815 0020 2268     		ldr	r2, [r4]
 816              	.LVL43:
 817 0022 42F00102 		orr	r2, r2, #1
 818 0026 2260     		str	r2, [r4]
 819              		.loc 1 610 0
 820 0028 1A68     		ldr	r2, [r3]
 821 002a 42F00102 		orr	r2, r2, #1
 822 002e 1A60     		str	r2, [r3]
 823              		.loc 1 611 0
 824 0030 70BC     		pop	{r4, r5, r6}
 825              		.cfi_restore 6
 826              		.cfi_restore 5
 827              		.cfi_restore 4
 828              		.cfi_def_cfa_offset 0
 829 0032 7047     		bx	lr
 830              	.L68:
 831              		.align	2
 832              	.L67:
 833 0034 00000000 		.word	.LANCHOR0
 834              		.cfi_endproc
 835              	.LFE266:
 836              		.size	spi_lld_receive, .-spi_lld_receive
 837              		.section	.text.spi_lld_polled_exchange,"ax",%progbits
 838              		.align	1
 839              		.p2align 4,,15
 840              		.global	spi_lld_polled_exchange
 841              		.syntax unified
 842              		.thumb
 843              		.thumb_func
 844              		.fpu fpv4-sp-d16
 845              		.type	spi_lld_polled_exchange, %function
 846              	spi_lld_polled_exchange:
 847              	.LFB267:
 848              		.loc 1 625 0
 849              		.cfi_startproc
 850              		@ args = 0, pretend = 0, frame = 0
 851              		@ frame_needed = 0, uses_anonymous_args = 0
 852              		@ link register save eliminated.
 853              	.LVL44:
 854              		.loc 1 627 0
 855 0000 C269     		ldr	r2, [r0, #28]
ARM GAS  /var/tmp//cc7QU2Th.s 			page 16


 856 0002 D160     		str	r1, [r2, #12]
 857              	.L70:
 858              		.loc 1 628 0 discriminator 1
 859 0004 9368     		ldr	r3, [r2, #8]
 860 0006 DB07     		lsls	r3, r3, #31
 861 0008 FCD5     		bpl	.L70
 862              		.loc 1 630 0
 863 000a D068     		ldr	r0, [r2, #12]
 864              	.LVL45:
 865              		.loc 1 631 0
 866 000c 80B2     		uxth	r0, r0
 867 000e 7047     		bx	lr
 868              		.cfi_endproc
 869              	.LFE267:
 870              		.size	spi_lld_polled_exchange, .-spi_lld_polled_exchange
 871              		.global	SPID1
 872              		.section	.bss.SPID1,"aw",%nobits
 873              		.align	2
 874              		.set	.LANCHOR1,. + 0
 875              		.type	SPID1, %object
 876              		.size	SPID1, 48
 877              	SPID1:
 878 0000 00000000 		.space	48
 878      00000000 
 878      00000000 
 878      00000000 
 878      00000000 
 879              		.section	.bss.dummyrx,"aw",%nobits
 880              		.align	1
 881              		.set	.LANCHOR2,. + 0
 882              		.type	dummyrx, %object
 883              		.size	dummyrx, 2
 884              	dummyrx:
 885 0000 0000     		.space	2
 886              		.section	.bss.dummytx,"aw",%nobits
 887              		.align	1
 888              		.set	.LANCHOR0,. + 0
 889              		.type	dummytx, %object
 890              		.size	dummytx, 2
 891              	dummytx:
 892 0000 0000     		.space	2
 893              		.section	.rodata.spi_lld_serve_tx_interrupt.str1.4,"aMS",%progbits,1
 894              		.align	2
 895              	.LC0:
 896 0000 444D4120 		.ascii	"DMA failure\000"
 896      6661696C 
 896      75726500 
 897              		.text
 898              	.Letext0:
 899              		.file 4 "/usr/local/gcc_arm/gcc-arm-none-eabi-6-2017-q2-update/lib/gcc/arm-none-eabi/6.3.1/include
 900              		.file 5 "/usr/local/gcc_arm/gcc-arm-none-eabi-6-2017-q2-update/arm-none-eabi/include/machine/_defa
 901              		.file 6 "/usr/local/gcc_arm/gcc-arm-none-eabi-6-2017-q2-update/arm-none-eabi/include/sys/_stdint.h
 902              		.file 7 "ChibiOS_3.0.2/os/rt/ports/ARMCMx/compilers/GCC/chtypes.h"
 903              		.file 8 "ChibiOS_3.0.2/os/rt/include/chsystypes.h"
 904              		.file 9 "ChibiOS_3.0.2/os/rt/include/chschd.h"
 905              		.file 10 "ChibiOS_3.0.2/os/ext/CMSIS/include/core_cm4.h"
 906              		.file 11 "ChibiOS_3.0.2/os/ext/CMSIS/ST/system_stm32f4xx.h"
ARM GAS  /var/tmp//cc7QU2Th.s 			page 17


 907              		.file 12 "ChibiOS_3.0.2/os/ext/CMSIS/ST/stm32f407xx.h"
 908              		.file 13 "ChibiOS_3.0.2/os/rt/ports/ARMCMx/chcore.h"
 909              		.file 14 "ChibiOS_3.0.2/os/rt/ports/ARMCMx/chcore_v7m.h"
 910              		.file 15 "ChibiOS_3.0.2/os/rt/include/chtm.h"
 911              		.file 16 "ChibiOS_3.0.2/os/rt/include/chsem.h"
 912              		.file 17 "ChibiOS_3.0.2/os/rt/include/chmtx.h"
 913              		.file 18 "ChibiOS_3.0.2/os/rt/include/chregistry.h"
 914              		.file 19 "ChibiOS_3.0.2/os/rt/include/chevents.h"
 915              		.file 20 "ChibiOS_3.0.2/os/rt/include/chqueues.h"
 916              		.file 21 "./conf_general.h"
 917              		.file 22 "ChibiOS_3.0.2/os/hal/ports/STM32/STM32F4xx/stm32_dma.h"
 918              		.file 23 "ChibiOS_3.0.2/os/hal/ports/STM32/LLD/GPIOv2/pal_lld.h"
 919              		.file 24 "ChibiOS_3.0.2/os/hal/include/can.h"
 920              		.file 25 "ChibiOS_3.0.2/os/hal/ports/STM32/LLD/can_lld.h"
 921              		.file 26 "ChibiOS_3.0.2/os/hal/include/i2c.h"
 922              		.file 27 "ChibiOS_3.0.2/os/hal/ports/STM32/LLD/I2Cv1/i2c_lld.h"
 923              		.file 28 "ChibiOS_3.0.2/os/hal/include/icu.h"
 924              		.file 29 "ChibiOS_3.0.2/os/hal/ports/STM32/LLD/TIMv1/icu_lld.h"
 925              		.file 30 "ChibiOS_3.0.2/os/hal/ports/STM32/LLD/TIMv1/stm32_tim.h"
 926              		.file 31 "ChibiOS_3.0.2/os/hal/include/spi.h"
 927              		.file 32 "ChibiOS_3.0.2/os/hal/ports/STM32/LLD/SPIv1/spi_lld.h"
 928              		.file 33 "ChibiOS_3.0.2/os/hal/include/uart.h"
 929              		.file 34 "ChibiOS_3.0.2/os/hal/ports/STM32/LLD/USARTv1/uart_lld.h"
 930              		.file 35 "ChibiOS_3.0.2/os/hal/include/usb.h"
 931              		.file 36 "ChibiOS_3.0.2/os/hal/ports/STM32/LLD/OTGv1/usb_lld.h"
 932              		.file 37 "ChibiOS_3.0.2/os/hal/ports/STM32/LLD/OTGv1/stm32_otg.h"
 933              		.file 38 "ChibiOS_3.0.2/os/rt/include/chsys.h"
 934              		.file 39 "ChibiOS_3.0.2/os/rt/include/chthreads.h"