ARM GAS  C:\Users\Grillmo\AppData\Local\Temp\ccN7xt8j.s 			page 1


   1              		.cpu cortex-m4
   2              		.eabi_attribute 27, 1
   3              		.eabi_attribute 28, 1
   4              		.eabi_attribute 20, 1
   5              		.eabi_attribute 21, 1
   6              		.eabi_attribute 23, 3
   7              		.eabi_attribute 24, 1
   8              		.eabi_attribute 25, 1
   9              		.eabi_attribute 26, 1
  10              		.eabi_attribute 30, 2
  11              		.eabi_attribute 34, 1
  12              		.eabi_attribute 18, 4
  13              		.file	"stm32f4xx_tim.c"
  14              		.text
  15              	.Ltext0:
  16              		.cfi_sections	.debug_frame
  17              		.section	.text.TIM_DeInit,"ax",%progbits
  18              		.align	1
  19              		.p2align 4,,15
  20              		.global	TIM_DeInit
  21              		.syntax unified
  22              		.thumb
  23              		.thumb_func
  24              		.fpu fpv4-sp-d16
  25              		.type	TIM_DeInit, %function
  26              	TIM_DeInit:
  27              	.LFB112:
  28              		.file 1 "ChibiOS_3.0.2/ext/stdperiph_stm32f4/src/stm32f4xx_tim.c"
  29              		.loc 1 205 0
  30              		.cfi_startproc
  31              		@ args = 0, pretend = 0, frame = 0
  32              		@ frame_needed = 0, uses_anonymous_args = 0
  33              	.LVL0:
  34 0000 08B5     		push	{r3, lr}
  35              		.cfi_def_cfa_offset 8
  36              		.cfi_offset 3, -8
  37              		.cfi_offset 14, -4
  38              		.loc 1 209 0
  39 0002 604B     		ldr	r3, .L32
  40 0004 9842     		cmp	r0, r3
  41 0006 35D0     		beq	.L18
  42              		.loc 1 214 0
  43 0008 B0F1804F 		cmp	r0, #1073741824
  44 000c 3CD0     		beq	.L19
  45              		.loc 1 219 0
  46 000e 5E4B     		ldr	r3, .L32+4
  47 0010 9842     		cmp	r0, r3
  48 0012 43D0     		beq	.L20
  49              		.loc 1 224 0
  50 0014 5D4B     		ldr	r3, .L32+8
  51 0016 9842     		cmp	r0, r3
  52 0018 4AD0     		beq	.L21
  53              		.loc 1 229 0
  54 001a 5D4B     		ldr	r3, .L32+12
  55 001c 9842     		cmp	r0, r3
  56 001e 51D0     		beq	.L22
  57              		.loc 1 234 0
ARM GAS  C:\Users\Grillmo\AppData\Local\Temp\ccN7xt8j.s 			page 2


  58 0020 5C4B     		ldr	r3, .L32+16
  59 0022 9842     		cmp	r0, r3
  60 0024 58D0     		beq	.L23
  61              		.loc 1 239 0
  62 0026 5C4B     		ldr	r3, .L32+20
  63 0028 9842     		cmp	r0, r3
  64 002a 5FD0     		beq	.L24
  65              		.loc 1 244 0
  66 002c 5B4B     		ldr	r3, .L32+24
  67 002e 9842     		cmp	r0, r3
  68 0030 66D0     		beq	.L25
  69              		.loc 1 249 0
  70 0032 5B4B     		ldr	r3, .L32+28
  71 0034 9842     		cmp	r0, r3
  72 0036 6DD0     		beq	.L26
  73              		.loc 1 254 0
  74 0038 5A4B     		ldr	r3, .L32+32
  75 003a 9842     		cmp	r0, r3
  76 003c 76D0     		beq	.L27
  77              		.loc 1 259 0
  78 003e 5A4B     		ldr	r3, .L32+36
  79 0040 9842     		cmp	r0, r3
  80 0042 7FD0     		beq	.L28
  81              		.loc 1 264 0
  82 0044 594B     		ldr	r3, .L32+40
  83 0046 9842     		cmp	r0, r3
  84 0048 00F08880 		beq	.L29
  85              		.loc 1 269 0
  86 004c 584B     		ldr	r3, .L32+44
  87 004e 9842     		cmp	r0, r3
  88 0050 00F08E80 		beq	.L30
  89              		.loc 1 276 0
  90 0054 574B     		ldr	r3, .L32+48
  91 0056 9842     		cmp	r0, r3
  92 0058 00D0     		beq	.L31
  93 005a 08BD     		pop	{r3, pc}
  94              	.L31:
  95              		.loc 1 278 0
  96 005c 0121     		movs	r1, #1
  97 005e 4FF48070 		mov	r0, #256
  98              	.LVL1:
  99 0062 FFF7FEFF 		bl	RCC_APB1PeriphResetCmd
 100              	.LVL2:
 101              		.loc 1 279 0
 102 0066 0021     		movs	r1, #0
 103 0068 4FF48070 		mov	r0, #256
 104              		.loc 1 282 0
 105 006c BDE80840 		pop	{r3, lr}
 106              		.cfi_remember_state
 107              		.cfi_restore 14
 108              		.cfi_restore 3
 109              		.cfi_def_cfa_offset 0
 110              		.loc 1 279 0
 111 0070 FFF7FEBF 		b	RCC_APB1PeriphResetCmd
 112              	.LVL3:
 113              	.L18:
 114              		.cfi_restore_state
ARM GAS  C:\Users\Grillmo\AppData\Local\Temp\ccN7xt8j.s 			page 3


 115              		.loc 1 211 0
 116 0074 0121     		movs	r1, #1
 117 0076 0846     		mov	r0, r1
 118              	.LVL4:
 119 0078 FFF7FEFF 		bl	RCC_APB2PeriphResetCmd
 120              	.LVL5:
 121              		.loc 1 212 0
 122 007c 0021     		movs	r1, #0
 123 007e 0120     		movs	r0, #1
 124              		.loc 1 282 0
 125 0080 BDE80840 		pop	{r3, lr}
 126              		.cfi_remember_state
 127              		.cfi_restore 14
 128              		.cfi_restore 3
 129              		.cfi_def_cfa_offset 0
 130              		.loc 1 212 0
 131 0084 FFF7FEBF 		b	RCC_APB2PeriphResetCmd
 132              	.LVL6:
 133              	.L19:
 134              		.cfi_restore_state
 135              		.loc 1 216 0
 136 0088 0121     		movs	r1, #1
 137 008a 0846     		mov	r0, r1
 138              	.LVL7:
 139 008c FFF7FEFF 		bl	RCC_APB1PeriphResetCmd
 140              	.LVL8:
 141              		.loc 1 217 0
 142 0090 0021     		movs	r1, #0
 143 0092 0120     		movs	r0, #1
 144              		.loc 1 282 0
 145 0094 BDE80840 		pop	{r3, lr}
 146              		.cfi_remember_state
 147              		.cfi_restore 14
 148              		.cfi_restore 3
 149              		.cfi_def_cfa_offset 0
 150              		.loc 1 217 0
 151 0098 FFF7FEBF 		b	RCC_APB1PeriphResetCmd
 152              	.LVL9:
 153              	.L20:
 154              		.cfi_restore_state
 155              		.loc 1 221 0
 156 009c 0121     		movs	r1, #1
 157 009e 0220     		movs	r0, #2
 158              	.LVL10:
 159 00a0 FFF7FEFF 		bl	RCC_APB1PeriphResetCmd
 160              	.LVL11:
 161              		.loc 1 222 0
 162 00a4 0021     		movs	r1, #0
 163 00a6 0220     		movs	r0, #2
 164              		.loc 1 282 0
 165 00a8 BDE80840 		pop	{r3, lr}
 166              		.cfi_remember_state
 167              		.cfi_restore 14
 168              		.cfi_restore 3
 169              		.cfi_def_cfa_offset 0
 170              		.loc 1 222 0
 171 00ac FFF7FEBF 		b	RCC_APB1PeriphResetCmd
ARM GAS  C:\Users\Grillmo\AppData\Local\Temp\ccN7xt8j.s 			page 4


 172              	.LVL12:
 173              	.L21:
 174              		.cfi_restore_state
 175              		.loc 1 226 0
 176 00b0 0121     		movs	r1, #1
 177 00b2 0420     		movs	r0, #4
 178              	.LVL13:
 179 00b4 FFF7FEFF 		bl	RCC_APB1PeriphResetCmd
 180              	.LVL14:
 181              		.loc 1 227 0
 182 00b8 0021     		movs	r1, #0
 183 00ba 0420     		movs	r0, #4
 184              		.loc 1 282 0
 185 00bc BDE80840 		pop	{r3, lr}
 186              		.cfi_remember_state
 187              		.cfi_restore 14
 188              		.cfi_restore 3
 189              		.cfi_def_cfa_offset 0
 190              		.loc 1 227 0
 191 00c0 FFF7FEBF 		b	RCC_APB1PeriphResetCmd
 192              	.LVL15:
 193              	.L22:
 194              		.cfi_restore_state
 195              		.loc 1 231 0
 196 00c4 0121     		movs	r1, #1
 197 00c6 0820     		movs	r0, #8
 198              	.LVL16:
 199 00c8 FFF7FEFF 		bl	RCC_APB1PeriphResetCmd
 200              	.LVL17:
 201              		.loc 1 232 0
 202 00cc 0021     		movs	r1, #0
 203 00ce 0820     		movs	r0, #8
 204              		.loc 1 282 0
 205 00d0 BDE80840 		pop	{r3, lr}
 206              		.cfi_remember_state
 207              		.cfi_restore 14
 208              		.cfi_restore 3
 209              		.cfi_def_cfa_offset 0
 210              		.loc 1 232 0
 211 00d4 FFF7FEBF 		b	RCC_APB1PeriphResetCmd
 212              	.LVL18:
 213              	.L23:
 214              		.cfi_restore_state
 215              		.loc 1 236 0
 216 00d8 0121     		movs	r1, #1
 217 00da 1020     		movs	r0, #16
 218              	.LVL19:
 219 00dc FFF7FEFF 		bl	RCC_APB1PeriphResetCmd
 220              	.LVL20:
 221              		.loc 1 237 0
 222 00e0 0021     		movs	r1, #0
 223 00e2 1020     		movs	r0, #16
 224              		.loc 1 282 0
 225 00e4 BDE80840 		pop	{r3, lr}
 226              		.cfi_remember_state
 227              		.cfi_restore 14
 228              		.cfi_restore 3
ARM GAS  C:\Users\Grillmo\AppData\Local\Temp\ccN7xt8j.s 			page 5


 229              		.cfi_def_cfa_offset 0
 230              		.loc 1 237 0
 231 00e8 FFF7FEBF 		b	RCC_APB1PeriphResetCmd
 232              	.LVL21:
 233              	.L24:
 234              		.cfi_restore_state
 235              		.loc 1 241 0
 236 00ec 0121     		movs	r1, #1
 237 00ee 2020     		movs	r0, #32
 238              	.LVL22:
 239 00f0 FFF7FEFF 		bl	RCC_APB1PeriphResetCmd
 240              	.LVL23:
 241              		.loc 1 242 0
 242 00f4 0021     		movs	r1, #0
 243 00f6 2020     		movs	r0, #32
 244              		.loc 1 282 0
 245 00f8 BDE80840 		pop	{r3, lr}
 246              		.cfi_remember_state
 247              		.cfi_restore 14
 248              		.cfi_restore 3
 249              		.cfi_def_cfa_offset 0
 250              		.loc 1 242 0
 251 00fc FFF7FEBF 		b	RCC_APB1PeriphResetCmd
 252              	.LVL24:
 253              	.L25:
 254              		.cfi_restore_state
 255              		.loc 1 246 0
 256 0100 0121     		movs	r1, #1
 257 0102 0220     		movs	r0, #2
 258              	.LVL25:
 259 0104 FFF7FEFF 		bl	RCC_APB2PeriphResetCmd
 260              	.LVL26:
 261              		.loc 1 247 0
 262 0108 0021     		movs	r1, #0
 263 010a 0220     		movs	r0, #2
 264              		.loc 1 282 0
 265 010c BDE80840 		pop	{r3, lr}
 266              		.cfi_remember_state
 267              		.cfi_restore 14
 268              		.cfi_restore 3
 269              		.cfi_def_cfa_offset 0
 270              		.loc 1 247 0
 271 0110 FFF7FEBF 		b	RCC_APB2PeriphResetCmd
 272              	.LVL27:
 273              	.L26:
 274              		.cfi_restore_state
 275              		.loc 1 251 0
 276 0114 0121     		movs	r1, #1
 277 0116 4FF48030 		mov	r0, #65536
 278              	.LVL28:
 279 011a FFF7FEFF 		bl	RCC_APB2PeriphResetCmd
 280              	.LVL29:
 281              		.loc 1 252 0
 282 011e 0021     		movs	r1, #0
 283 0120 4FF48030 		mov	r0, #65536
 284              		.loc 1 282 0
 285 0124 BDE80840 		pop	{r3, lr}
ARM GAS  C:\Users\Grillmo\AppData\Local\Temp\ccN7xt8j.s 			page 6


 286              		.cfi_remember_state
 287              		.cfi_restore 14
 288              		.cfi_restore 3
 289              		.cfi_def_cfa_offset 0
 290              		.loc 1 252 0
 291 0128 FFF7FEBF 		b	RCC_APB2PeriphResetCmd
 292              	.LVL30:
 293              	.L27:
 294              		.cfi_restore_state
 295              		.loc 1 256 0
 296 012c 0121     		movs	r1, #1
 297 012e 4FF40030 		mov	r0, #131072
 298              	.LVL31:
 299 0132 FFF7FEFF 		bl	RCC_APB2PeriphResetCmd
 300              	.LVL32:
 301              		.loc 1 257 0
 302 0136 0021     		movs	r1, #0
 303 0138 4FF40030 		mov	r0, #131072
 304              		.loc 1 282 0
 305 013c BDE80840 		pop	{r3, lr}
 306              		.cfi_remember_state
 307              		.cfi_restore 14
 308              		.cfi_restore 3
 309              		.cfi_def_cfa_offset 0
 310              		.loc 1 257 0
 311 0140 FFF7FEBF 		b	RCC_APB2PeriphResetCmd
 312              	.LVL33:
 313              	.L28:
 314              		.cfi_restore_state
 315              		.loc 1 261 0
 316 0144 0121     		movs	r1, #1
 317 0146 4FF48020 		mov	r0, #262144
 318              	.LVL34:
 319 014a FFF7FEFF 		bl	RCC_APB2PeriphResetCmd
 320              	.LVL35:
 321              		.loc 1 262 0
 322 014e 0021     		movs	r1, #0
 323 0150 4FF48020 		mov	r0, #262144
 324              		.loc 1 282 0
 325 0154 BDE80840 		pop	{r3, lr}
 326              		.cfi_remember_state
 327              		.cfi_restore 14
 328              		.cfi_restore 3
 329              		.cfi_def_cfa_offset 0
 330              		.loc 1 262 0
 331 0158 FFF7FEBF 		b	RCC_APB2PeriphResetCmd
 332              	.LVL36:
 333              	.L29:
 334              		.cfi_restore_state
 335              		.loc 1 266 0
 336 015c 0121     		movs	r1, #1
 337 015e 4020     		movs	r0, #64
 338              	.LVL37:
 339 0160 FFF7FEFF 		bl	RCC_APB1PeriphResetCmd
 340              	.LVL38:
 341              		.loc 1 267 0
 342 0164 0021     		movs	r1, #0
ARM GAS  C:\Users\Grillmo\AppData\Local\Temp\ccN7xt8j.s 			page 7


 343 0166 4020     		movs	r0, #64
 344              		.loc 1 282 0
 345 0168 BDE80840 		pop	{r3, lr}
 346              		.cfi_remember_state
 347              		.cfi_restore 14
 348              		.cfi_restore 3
 349              		.cfi_def_cfa_offset 0
 350              		.loc 1 267 0
 351 016c FFF7FEBF 		b	RCC_APB1PeriphResetCmd
 352              	.LVL39:
 353              	.L30:
 354              		.cfi_restore_state
 355              		.loc 1 271 0
 356 0170 0121     		movs	r1, #1
 357 0172 8020     		movs	r0, #128
 358              	.LVL40:
 359 0174 FFF7FEFF 		bl	RCC_APB1PeriphResetCmd
 360              	.LVL41:
 361              		.loc 1 272 0
 362 0178 0021     		movs	r1, #0
 363 017a 8020     		movs	r0, #128
 364              		.loc 1 282 0
 365 017c BDE80840 		pop	{r3, lr}
 366              		.cfi_restore 14
 367              		.cfi_restore 3
 368              		.cfi_def_cfa_offset 0
 369              		.loc 1 272 0
 370 0180 FFF7FEBF 		b	RCC_APB1PeriphResetCmd
 371              	.LVL42:
 372              	.L33:
 373              		.align	2
 374              	.L32:
 375 0184 00000140 		.word	1073807360
 376 0188 00040040 		.word	1073742848
 377 018c 00080040 		.word	1073743872
 378 0190 000C0040 		.word	1073744896
 379 0194 00100040 		.word	1073745920
 380 0198 00140040 		.word	1073746944
 381 019c 00040140 		.word	1073808384
 382 01a0 00400140 		.word	1073823744
 383 01a4 00440140 		.word	1073824768
 384 01a8 00480140 		.word	1073825792
 385 01ac 00180040 		.word	1073747968
 386 01b0 001C0040 		.word	1073748992
 387 01b4 00200040 		.word	1073750016
 388              		.cfi_endproc
 389              	.LFE112:
 390              		.size	TIM_DeInit, .-TIM_DeInit
 391              		.section	.text.TIM_TimeBaseInit,"ax",%progbits
 392              		.align	1
 393              		.p2align 4,,15
 394              		.global	TIM_TimeBaseInit
 395              		.syntax unified
 396              		.thumb
 397              		.thumb_func
 398              		.fpu fpv4-sp-d16
 399              		.type	TIM_TimeBaseInit, %function
ARM GAS  C:\Users\Grillmo\AppData\Local\Temp\ccN7xt8j.s 			page 8


 400              	TIM_TimeBaseInit:
 401              	.LFB113:
 402              		.loc 1 293 0
 403              		.cfi_startproc
 404              		@ args = 0, pretend = 0, frame = 0
 405              		@ frame_needed = 0, uses_anonymous_args = 0
 406              		@ link register save eliminated.
 407              	.LVL43:
 408              		.loc 1 303 0
 409 0000 234A     		ldr	r2, .L50
 410              		.loc 1 301 0
 411 0002 0368     		ldr	r3, [r0]
 412              		.loc 1 303 0
 413 0004 9042     		cmp	r0, r2
 414              		.loc 1 301 0
 415 0006 9BB2     		uxth	r3, r3
 416              	.LVL44:
 417              		.loc 1 303 0
 418 0008 12D0     		beq	.L35
 419              		.loc 1 303 0 is_stmt 0 discriminator 1
 420 000a 02F58062 		add	r2, r2, #1024
 421 000e 9042     		cmp	r0, r2
 422 0010 0ED0     		beq	.L35
 423              		.loc 1 303 0 discriminator 2
 424 0012 B0F1804F 		cmp	r0, #1073741824
 425 0016 0BD0     		beq	.L35
 426              		.loc 1 304 0 is_stmt 1
 427 0018 A2F58032 		sub	r2, r2, #65536
 428 001c 9042     		cmp	r0, r2
 429 001e 07D0     		beq	.L35
 430              		.loc 1 304 0 is_stmt 0 discriminator 1
 431 0020 02F58062 		add	r2, r2, #1024
 432 0024 9042     		cmp	r0, r2
 433 0026 03D0     		beq	.L35
 434              		.loc 1 305 0 is_stmt 1
 435 0028 02F58062 		add	r2, r2, #1024
 436 002c 9042     		cmp	r0, r2
 437 002e 03D1     		bne	.L36
 438              	.L35:
 439              		.loc 1 309 0
 440 0030 4A88     		ldrh	r2, [r1, #2]
 441              		.loc 1 308 0
 442 0032 23F07003 		bic	r3, r3, #112
 443              	.LVL45:
 444              		.loc 1 309 0
 445 0036 1343     		orrs	r3, r3, r2
 446              	.LVL46:
 447              	.L36:
 448              		.loc 1 312 0
 449 0038 164A     		ldr	r2, .L50+4
 450 003a 9042     		cmp	r0, r2
 451 003c 1FD0     		beq	.L38
 452              		.loc 1 312 0 is_stmt 0 discriminator 1
 453 003e 02F58062 		add	r2, r2, #1024
 454 0042 9042     		cmp	r0, r2
 455 0044 1BD0     		beq	.L38
 456              		.loc 1 293 0 is_stmt 1
ARM GAS  C:\Users\Grillmo\AppData\Local\Temp\ccN7xt8j.s 			page 9


 457 0046 70B4     		push	{r4, r5, r6}
 458              		.cfi_def_cfa_offset 12
 459              		.cfi_offset 4, -12
 460              		.cfi_offset 5, -8
 461              		.cfi_offset 6, -4
 462              		.loc 1 315 0
 463 0048 23F44073 		bic	r3, r3, #768
 464              	.LVL47:
 465              		.loc 1 316 0
 466 004c 0E89     		ldrh	r6, [r1, #8]
 467              		.loc 1 322 0
 468 004e 4D68     		ldr	r5, [r1, #4]
 469              		.loc 1 325 0
 470 0050 0C88     		ldrh	r4, [r1]
 471              		.loc 1 327 0
 472 0052 02F56C42 		add	r2, r2, #60416
 473              		.loc 1 315 0
 474 0056 9BB2     		uxth	r3, r3
 475              	.LVL48:
 476              		.loc 1 319 0
 477 0058 3343     		orrs	r3, r3, r6
 478              	.LVL49:
 479              		.loc 1 327 0
 480 005a 9042     		cmp	r0, r2
 481              		.loc 1 319 0
 482 005c 0360     		str	r3, [r0]
 483              		.loc 1 322 0
 484 005e C562     		str	r5, [r0, #44]
 485              		.loc 1 325 0
 486 0060 8462     		str	r4, [r0, #40]
 487              		.loc 1 327 0
 488 0062 06D0     		beq	.L41
 489              		.loc 1 327 0 is_stmt 0 discriminator 1
 490 0064 0C4B     		ldr	r3, .L50+8
 491 0066 9842     		cmp	r0, r3
 492 0068 03D0     		beq	.L41
 493              		.loc 1 335 0 is_stmt 1
 494 006a 0123     		movs	r3, #1
 495 006c 4361     		str	r3, [r0, #20]
 496              		.loc 1 336 0
 497 006e 70BC     		pop	{r4, r5, r6}
 498              		.cfi_remember_state
 499              		.cfi_restore 6
 500              		.cfi_restore 5
 501              		.cfi_restore 4
 502              		.cfi_def_cfa_offset 0
 503 0070 7047     		bx	lr
 504              	.L41:
 505              		.cfi_restore_state
 506              		.loc 1 330 0
 507 0072 8B7A     		ldrb	r3, [r1, #10]	@ zero_extendqisi2
 508 0074 0363     		str	r3, [r0, #48]
 509              		.loc 1 335 0
 510 0076 0123     		movs	r3, #1
 511 0078 4361     		str	r3, [r0, #20]
 512              		.loc 1 336 0
 513 007a 70BC     		pop	{r4, r5, r6}
ARM GAS  C:\Users\Grillmo\AppData\Local\Temp\ccN7xt8j.s 			page 10


 514              		.cfi_restore 4
 515              		.cfi_restore 5
 516              		.cfi_restore 6
 517              		.cfi_def_cfa_offset 0
 518 007c 7047     		bx	lr
 519              	.LVL50:
 520              	.L38:
 521              		.loc 1 319 0
 522 007e 0360     		str	r3, [r0]
 523              		.loc 1 322 0
 524 0080 4A68     		ldr	r2, [r1, #4]
 525              		.loc 1 325 0
 526 0082 0B88     		ldrh	r3, [r1]
 527              	.LVL51:
 528              		.loc 1 322 0
 529 0084 C262     		str	r2, [r0, #44]
 530              		.loc 1 325 0
 531 0086 8362     		str	r3, [r0, #40]
 532              		.loc 1 335 0
 533 0088 0123     		movs	r3, #1
 534 008a 4361     		str	r3, [r0, #20]
 535 008c 7047     		bx	lr
 536              	.L51:
 537 008e 00BF     		.align	2
 538              	.L50:
 539 0090 00000140 		.word	1073807360
 540 0094 00100040 		.word	1073745920
 541 0098 00040140 		.word	1073808384
 542              		.cfi_endproc
 543              	.LFE113:
 544              		.size	TIM_TimeBaseInit, .-TIM_TimeBaseInit
 545              		.section	.text.TIM_TimeBaseStructInit,"ax",%progbits
 546              		.align	1
 547              		.p2align 4,,15
 548              		.global	TIM_TimeBaseStructInit
 549              		.syntax unified
 550              		.thumb
 551              		.thumb_func
 552              		.fpu fpv4-sp-d16
 553              		.type	TIM_TimeBaseStructInit, %function
 554              	TIM_TimeBaseStructInit:
 555              	.LFB114:
 556              		.loc 1 345 0
 557              		.cfi_startproc
 558              		@ args = 0, pretend = 0, frame = 0
 559              		@ frame_needed = 0, uses_anonymous_args = 0
 560              		@ link register save eliminated.
 561              	.LVL52:
 562              		.loc 1 348 0
 563 0000 0023     		movs	r3, #0
 564              		.loc 1 347 0
 565 0002 4FF0FF32 		mov	r2, #-1
 566 0006 4260     		str	r2, [r0, #4]
 567              		.loc 1 348 0
 568 0008 0380     		strh	r3, [r0]	@ movhi
 569              		.loc 1 349 0
 570 000a 0381     		strh	r3, [r0, #8]	@ movhi
ARM GAS  C:\Users\Grillmo\AppData\Local\Temp\ccN7xt8j.s 			page 11


 571              		.loc 1 350 0
 572 000c 4380     		strh	r3, [r0, #2]	@ movhi
 573              		.loc 1 351 0
 574 000e 8372     		strb	r3, [r0, #10]
 575 0010 7047     		bx	lr
 576              		.cfi_endproc
 577              	.LFE114:
 578              		.size	TIM_TimeBaseStructInit, .-TIM_TimeBaseStructInit
 579 0012 00BF     		.section	.text.TIM_PrescalerConfig,"ax",%progbits
 580              		.align	1
 581              		.p2align 4,,15
 582              		.global	TIM_PrescalerConfig
 583              		.syntax unified
 584              		.thumb
 585              		.thumb_func
 586              		.fpu fpv4-sp-d16
 587              		.type	TIM_PrescalerConfig, %function
 588              	TIM_PrescalerConfig:
 589              	.LFB115:
 590              		.loc 1 365 0
 591              		.cfi_startproc
 592              		@ args = 0, pretend = 0, frame = 0
 593              		@ frame_needed = 0, uses_anonymous_args = 0
 594              		@ link register save eliminated.
 595              	.LVL53:
 596              		.loc 1 370 0
 597 0000 8162     		str	r1, [r0, #40]
 598              		.loc 1 372 0
 599 0002 4261     		str	r2, [r0, #20]
 600 0004 7047     		bx	lr
 601              		.cfi_endproc
 602              	.LFE115:
 603              		.size	TIM_PrescalerConfig, .-TIM_PrescalerConfig
 604 0006 00BF     		.section	.text.TIM_CounterModeConfig,"ax",%progbits
 605              		.align	1
 606              		.p2align 4,,15
 607              		.global	TIM_CounterModeConfig
 608              		.syntax unified
 609              		.thumb
 610              		.thumb_func
 611              		.fpu fpv4-sp-d16
 612              		.type	TIM_CounterModeConfig, %function
 613              	TIM_CounterModeConfig:
 614              	.LFB116:
 615              		.loc 1 388 0
 616              		.cfi_startproc
 617              		@ args = 0, pretend = 0, frame = 0
 618              		@ frame_needed = 0, uses_anonymous_args = 0
 619              		@ link register save eliminated.
 620              	.LVL54:
 621              		.loc 1 395 0
 622 0000 0268     		ldr	r2, [r0]
 623              	.LVL55:
 624              		.loc 1 398 0
 625 0002 4FF68F73 		movw	r3, #65423
 626 0006 1340     		ands	r3, r3, r2
 627              	.LVL56:
ARM GAS  C:\Users\Grillmo\AppData\Local\Temp\ccN7xt8j.s 			page 12


 628              		.loc 1 404 0
 629 0008 1943     		orrs	r1, r1, r3
 630              	.LVL57:
 631 000a 0160     		str	r1, [r0]
 632 000c 7047     		bx	lr
 633              		.cfi_endproc
 634              	.LFE116:
 635              		.size	TIM_CounterModeConfig, .-TIM_CounterModeConfig
 636 000e 00BF     		.section	.text.TIM_SetCounter,"ax",%progbits
 637              		.align	1
 638              		.p2align 4,,15
 639              		.global	TIM_SetCounter
 640              		.syntax unified
 641              		.thumb
 642              		.thumb_func
 643              		.fpu fpv4-sp-d16
 644              		.type	TIM_SetCounter, %function
 645              	TIM_SetCounter:
 646              	.LFB117:
 647              		.loc 1 414 0
 648              		.cfi_startproc
 649              		@ args = 0, pretend = 0, frame = 0
 650              		@ frame_needed = 0, uses_anonymous_args = 0
 651              		@ link register save eliminated.
 652              	.LVL58:
 653              		.loc 1 419 0
 654 0000 4162     		str	r1, [r0, #36]
 655 0002 7047     		bx	lr
 656              		.cfi_endproc
 657              	.LFE117:
 658              		.size	TIM_SetCounter, .-TIM_SetCounter
 659              		.section	.text.TIM_SetAutoreload,"ax",%progbits
 660              		.align	1
 661              		.p2align 4,,15
 662              		.global	TIM_SetAutoreload
 663              		.syntax unified
 664              		.thumb
 665              		.thumb_func
 666              		.fpu fpv4-sp-d16
 667              		.type	TIM_SetAutoreload, %function
 668              	TIM_SetAutoreload:
 669              	.LFB118:
 670              		.loc 1 429 0
 671              		.cfi_startproc
 672              		@ args = 0, pretend = 0, frame = 0
 673              		@ frame_needed = 0, uses_anonymous_args = 0
 674              		@ link register save eliminated.
 675              	.LVL59:
 676              		.loc 1 434 0
 677 0000 C162     		str	r1, [r0, #44]
 678 0002 7047     		bx	lr
 679              		.cfi_endproc
 680              	.LFE118:
 681              		.size	TIM_SetAutoreload, .-TIM_SetAutoreload
 682              		.section	.text.TIM_GetCounter,"ax",%progbits
 683              		.align	1
 684              		.p2align 4,,15
ARM GAS  C:\Users\Grillmo\AppData\Local\Temp\ccN7xt8j.s 			page 13


 685              		.global	TIM_GetCounter
 686              		.syntax unified
 687              		.thumb
 688              		.thumb_func
 689              		.fpu fpv4-sp-d16
 690              		.type	TIM_GetCounter, %function
 691              	TIM_GetCounter:
 692              	.LFB119:
 693              		.loc 1 443 0
 694              		.cfi_startproc
 695              		@ args = 0, pretend = 0, frame = 0
 696              		@ frame_needed = 0, uses_anonymous_args = 0
 697              		@ link register save eliminated.
 698              	.LVL60:
 699              		.loc 1 448 0
 700 0000 406A     		ldr	r0, [r0, #36]
 701              	.LVL61:
 702              		.loc 1 449 0
 703 0002 7047     		bx	lr
 704              		.cfi_endproc
 705              	.LFE119:
 706              		.size	TIM_GetCounter, .-TIM_GetCounter
 707              		.section	.text.TIM_GetPrescaler,"ax",%progbits
 708              		.align	1
 709              		.p2align 4,,15
 710              		.global	TIM_GetPrescaler
 711              		.syntax unified
 712              		.thumb
 713              		.thumb_func
 714              		.fpu fpv4-sp-d16
 715              		.type	TIM_GetPrescaler, %function
 716              	TIM_GetPrescaler:
 717              	.LFB120:
 718              		.loc 1 457 0
 719              		.cfi_startproc
 720              		@ args = 0, pretend = 0, frame = 0
 721              		@ frame_needed = 0, uses_anonymous_args = 0
 722              		@ link register save eliminated.
 723              	.LVL62:
 724              		.loc 1 462 0
 725 0000 806A     		ldr	r0, [r0, #40]
 726              	.LVL63:
 727              		.loc 1 463 0
 728 0002 80B2     		uxth	r0, r0
 729 0004 7047     		bx	lr
 730              		.cfi_endproc
 731              	.LFE120:
 732              		.size	TIM_GetPrescaler, .-TIM_GetPrescaler
 733 0006 00BF     		.section	.text.TIM_UpdateDisableConfig,"ax",%progbits
 734              		.align	1
 735              		.p2align 4,,15
 736              		.global	TIM_UpdateDisableConfig
 737              		.syntax unified
 738              		.thumb
 739              		.thumb_func
 740              		.fpu fpv4-sp-d16
 741              		.type	TIM_UpdateDisableConfig, %function
ARM GAS  C:\Users\Grillmo\AppData\Local\Temp\ccN7xt8j.s 			page 14


 742              	TIM_UpdateDisableConfig:
 743              	.LFB121:
 744              		.loc 1 473 0
 745              		.cfi_startproc
 746              		@ args = 0, pretend = 0, frame = 0
 747              		@ frame_needed = 0, uses_anonymous_args = 0
 748              		@ link register save eliminated.
 749              	.LVL64:
 750              		.loc 1 481 0
 751 0000 0368     		ldr	r3, [r0]
 752              		.loc 1 478 0
 753 0002 21B9     		cbnz	r1, .L62
 754              		.loc 1 486 0
 755 0004 4FF6FD72 		movw	r2, #65533
 756 0008 1340     		ands	r3, r3, r2
 757 000a 0360     		str	r3, [r0]
 758 000c 7047     		bx	lr
 759              	.L62:
 760              		.loc 1 481 0
 761 000e 43F00203 		orr	r3, r3, #2
 762 0012 0360     		str	r3, [r0]
 763 0014 7047     		bx	lr
 764              		.cfi_endproc
 765              	.LFE121:
 766              		.size	TIM_UpdateDisableConfig, .-TIM_UpdateDisableConfig
 767 0016 00BF     		.section	.text.TIM_UpdateRequestConfig,"ax",%progbits
 768              		.align	1
 769              		.p2align 4,,15
 770              		.global	TIM_UpdateRequestConfig
 771              		.syntax unified
 772              		.thumb
 773              		.thumb_func
 774              		.fpu fpv4-sp-d16
 775              		.type	TIM_UpdateRequestConfig, %function
 776              	TIM_UpdateRequestConfig:
 777              	.LFB122:
 778              		.loc 1 502 0
 779              		.cfi_startproc
 780              		@ args = 0, pretend = 0, frame = 0
 781              		@ frame_needed = 0, uses_anonymous_args = 0
 782              		@ link register save eliminated.
 783              	.LVL65:
 784              		.loc 1 510 0
 785 0000 0368     		ldr	r3, [r0]
 786              		.loc 1 507 0
 787 0002 21B9     		cbnz	r1, .L66
 788              		.loc 1 515 0
 789 0004 4FF6FB72 		movw	r2, #65531
 790 0008 1340     		ands	r3, r3, r2
 791 000a 0360     		str	r3, [r0]
 792 000c 7047     		bx	lr
 793              	.L66:
 794              		.loc 1 510 0
 795 000e 43F00403 		orr	r3, r3, #4
 796 0012 0360     		str	r3, [r0]
 797 0014 7047     		bx	lr
 798              		.cfi_endproc
ARM GAS  C:\Users\Grillmo\AppData\Local\Temp\ccN7xt8j.s 			page 15


 799              	.LFE122:
 800              		.size	TIM_UpdateRequestConfig, .-TIM_UpdateRequestConfig
 801 0016 00BF     		.section	.text.TIM_ARRPreloadConfig,"ax",%progbits
 802              		.align	1
 803              		.p2align 4,,15
 804              		.global	TIM_ARRPreloadConfig
 805              		.syntax unified
 806              		.thumb
 807              		.thumb_func
 808              		.fpu fpv4-sp-d16
 809              		.type	TIM_ARRPreloadConfig, %function
 810              	TIM_ARRPreloadConfig:
 811              	.LFB123:
 812              		.loc 1 527 0
 813              		.cfi_startproc
 814              		@ args = 0, pretend = 0, frame = 0
 815              		@ frame_needed = 0, uses_anonymous_args = 0
 816              		@ link register save eliminated.
 817              	.LVL66:
 818              		.loc 1 535 0
 819 0000 0368     		ldr	r3, [r0]
 820              		.loc 1 532 0
 821 0002 21B9     		cbnz	r1, .L70
 822              		.loc 1 540 0
 823 0004 4FF67F72 		movw	r2, #65407
 824 0008 1340     		ands	r3, r3, r2
 825 000a 0360     		str	r3, [r0]
 826 000c 7047     		bx	lr
 827              	.L70:
 828              		.loc 1 535 0
 829 000e 43F08003 		orr	r3, r3, #128
 830 0012 0360     		str	r3, [r0]
 831 0014 7047     		bx	lr
 832              		.cfi_endproc
 833              	.LFE123:
 834              		.size	TIM_ARRPreloadConfig, .-TIM_ARRPreloadConfig
 835 0016 00BF     		.section	.text.TIM_SelectOnePulseMode,"ax",%progbits
 836              		.align	1
 837              		.p2align 4,,15
 838              		.global	TIM_SelectOnePulseMode
 839              		.syntax unified
 840              		.thumb
 841              		.thumb_func
 842              		.fpu fpv4-sp-d16
 843              		.type	TIM_SelectOnePulseMode, %function
 844              	TIM_SelectOnePulseMode:
 845              	.LFB124:
 846              		.loc 1 554 0
 847              		.cfi_startproc
 848              		@ args = 0, pretend = 0, frame = 0
 849              		@ frame_needed = 0, uses_anonymous_args = 0
 850              		@ link register save eliminated.
 851              	.LVL67:
 852              		.loc 1 560 0
 853 0000 0368     		ldr	r3, [r0]
 854 0002 4FF6F772 		movw	r2, #65527
 855 0006 1340     		ands	r3, r3, r2
ARM GAS  C:\Users\Grillmo\AppData\Local\Temp\ccN7xt8j.s 			page 16


 856 0008 0360     		str	r3, [r0]
 857              		.loc 1 563 0
 858 000a 0368     		ldr	r3, [r0]
 859 000c 1943     		orrs	r1, r1, r3
 860              	.LVL68:
 861 000e 0160     		str	r1, [r0]
 862 0010 7047     		bx	lr
 863              		.cfi_endproc
 864              	.LFE124:
 865              		.size	TIM_SelectOnePulseMode, .-TIM_SelectOnePulseMode
 866 0012 00BF     		.section	.text.TIM_SetClockDivision,"ax",%progbits
 867              		.align	1
 868              		.p2align 4,,15
 869              		.global	TIM_SetClockDivision
 870              		.syntax unified
 871              		.thumb
 872              		.thumb_func
 873              		.fpu fpv4-sp-d16
 874              		.type	TIM_SetClockDivision, %function
 875              	TIM_SetClockDivision:
 876              	.LFB125:
 877              		.loc 1 577 0
 878              		.cfi_startproc
 879              		@ args = 0, pretend = 0, frame = 0
 880              		@ frame_needed = 0, uses_anonymous_args = 0
 881              		@ link register save eliminated.
 882              	.LVL69:
 883              		.loc 1 583 0
 884 0000 0368     		ldr	r3, [r0]
 885 0002 4FF6FF42 		movw	r2, #64767
 886 0006 1340     		ands	r3, r3, r2
 887 0008 0360     		str	r3, [r0]
 888              		.loc 1 586 0
 889 000a 0368     		ldr	r3, [r0]
 890 000c 1943     		orrs	r1, r1, r3
 891              	.LVL70:
 892 000e 0160     		str	r1, [r0]
 893 0010 7047     		bx	lr
 894              		.cfi_endproc
 895              	.LFE125:
 896              		.size	TIM_SetClockDivision, .-TIM_SetClockDivision
 897 0012 00BF     		.section	.text.TIM_Cmd,"ax",%progbits
 898              		.align	1
 899              		.p2align 4,,15
 900              		.global	TIM_Cmd
 901              		.syntax unified
 902              		.thumb
 903              		.thumb_func
 904              		.fpu fpv4-sp-d16
 905              		.type	TIM_Cmd, %function
 906              	TIM_Cmd:
 907              	.LFB126:
 908              		.loc 1 597 0
 909              		.cfi_startproc
 910              		@ args = 0, pretend = 0, frame = 0
 911              		@ frame_needed = 0, uses_anonymous_args = 0
 912              		@ link register save eliminated.
ARM GAS  C:\Users\Grillmo\AppData\Local\Temp\ccN7xt8j.s 			page 17


 913              	.LVL71:
 914              		.loc 1 605 0
 915 0000 0368     		ldr	r3, [r0]
 916              		.loc 1 602 0
 917 0002 21B9     		cbnz	r1, .L76
 918              		.loc 1 610 0
 919 0004 4FF6FE72 		movw	r2, #65534
 920 0008 1340     		ands	r3, r3, r2
 921 000a 0360     		str	r3, [r0]
 922 000c 7047     		bx	lr
 923              	.L76:
 924              		.loc 1 605 0
 925 000e 43F00103 		orr	r3, r3, #1
 926 0012 0360     		str	r3, [r0]
 927 0014 7047     		bx	lr
 928              		.cfi_endproc
 929              	.LFE126:
 930              		.size	TIM_Cmd, .-TIM_Cmd
 931 0016 00BF     		.section	.text.TIM_OC1Init,"ax",%progbits
 932              		.align	1
 933              		.p2align 4,,15
 934              		.global	TIM_OC1Init
 935              		.syntax unified
 936              		.thumb
 937              		.thumb_func
 938              		.fpu fpv4-sp-d16
 939              		.type	TIM_OC1Init, %function
 940              	TIM_OC1Init:
 941              	.LFB127:
 942              		.loc 1 678 0
 943              		.cfi_startproc
 944              		@ args = 0, pretend = 0, frame = 0
 945              		@ frame_needed = 0, uses_anonymous_args = 0
 946              	.LVL72:
 947              		.loc 1 688 0
 948 0000 036A     		ldr	r3, [r0, #32]
 949 0002 4FF6FE72 		movw	r2, #65534
 950 0006 1340     		ands	r3, r3, r2
 951 0008 0362     		str	r3, [r0, #32]
 952              		.loc 1 678 0
 953 000a F0B5     		push	{r4, r5, r6, r7, lr}
 954              		.cfi_def_cfa_offset 20
 955              		.cfi_offset 4, -20
 956              		.cfi_offset 5, -16
 957              		.cfi_offset 6, -12
 958              		.cfi_offset 7, -8
 959              		.cfi_offset 14, -4
 960              		.loc 1 691 0
 961 000c D0F820E0 		ldr	lr, [r0, #32]
 962              	.LVL73:
 963              		.loc 1 710 0
 964 0010 4C88     		ldrh	r4, [r1, #2]
 965 0012 8D89     		ldrh	r5, [r1, #12]
 966              		.loc 1 693 0
 967 0014 4268     		ldr	r2, [r0, #4]
 968              		.loc 1 712 0
 969 0016 154E     		ldr	r6, .L81
ARM GAS  C:\Users\Grillmo\AppData\Local\Temp\ccN7xt8j.s 			page 18


 970              		.loc 1 696 0
 971 0018 8769     		ldr	r7, [r0, #24]
 972              		.loc 1 705 0
 973 001a 4FF6FD73 		movw	r3, #65533
 974              		.loc 1 710 0
 975 001e 2543     		orrs	r5, r5, r4
 976              		.loc 1 705 0
 977 0020 0EEA0303 		and	r3, lr, r3
 978              		.loc 1 710 0
 979 0024 2B43     		orrs	r3, r3, r5
 980              		.loc 1 700 0
 981 0026 4FF68C74 		movw	r4, #65420
 982              		.loc 1 702 0
 983 002a 0D88     		ldrh	r5, [r1]
 984              		.loc 1 700 0
 985 002c 3C40     		ands	r4, r4, r7
 986              		.loc 1 712 0
 987 002e B042     		cmp	r0, r6
 988              		.loc 1 710 0
 989 0030 9BB2     		uxth	r3, r3
 990              		.loc 1 693 0
 991 0032 92B2     		uxth	r2, r2
 992              	.LVL74:
 993              		.loc 1 702 0
 994 0034 44EA0504 		orr	r4, r4, r5
 995              	.LVL75:
 996              		.loc 1 712 0
 997 0038 08D0     		beq	.L78
 998              		.loc 1 712 0 is_stmt 0 discriminator 1
 999 003a 0D4D     		ldr	r5, .L81+4
 1000 003c A842     		cmp	r0, r5
 1001 003e 05D0     		beq	.L78
 1002              	.L79:
 1003              		.loc 1 743 0 is_stmt 1
 1004 0040 8968     		ldr	r1, [r1, #8]
 1005              	.LVL76:
 1006              		.loc 1 737 0
 1007 0042 4260     		str	r2, [r0, #4]
 1008              		.loc 1 740 0
 1009 0044 8461     		str	r4, [r0, #24]
 1010              		.loc 1 743 0
 1011 0046 4163     		str	r1, [r0, #52]
 1012              		.loc 1 746 0
 1013 0048 0362     		str	r3, [r0, #32]
 1014 004a F0BD     		pop	{r4, r5, r6, r7, pc}
 1015              	.LVL77:
 1016              	.L78:
 1017              		.loc 1 722 0
 1018 004c CE89     		ldrh	r6, [r1, #14]
 1019              		.loc 1 734 0
 1020 004e 0D8A     		ldrh	r5, [r1, #16]
 1021 0050 4F8A     		ldrh	r7, [r1, #18]
 1022              		.loc 1 720 0
 1023 0052 23F00803 		bic	r3, r3, #8
 1024              	.LVL78:
 1025              		.loc 1 722 0
 1026 0056 3343     		orrs	r3, r3, r6
ARM GAS  C:\Users\Grillmo\AppData\Local\Temp\ccN7xt8j.s 			page 19


 1027              	.LVL79:
 1028              		.loc 1 730 0
 1029 0058 22F44072 		bic	r2, r2, #768
 1030              	.LVL80:
 1031              		.loc 1 727 0
 1032 005c 8E88     		ldrh	r6, [r1, #4]
 1033              		.loc 1 734 0
 1034 005e 3D43     		orrs	r5, r5, r7
 1035              		.loc 1 724 0
 1036 0060 23F00403 		bic	r3, r3, #4
 1037              	.LVL81:
 1038              		.loc 1 734 0
 1039 0064 2A43     		orrs	r2, r2, r5
 1040              		.loc 1 727 0
 1041 0066 3343     		orrs	r3, r3, r6
 1042              	.LVL82:
 1043              		.loc 1 734 0
 1044 0068 92B2     		uxth	r2, r2
 1045              	.LVL83:
 1046 006a E9E7     		b	.L79
 1047              	.L82:
 1048              		.align	2
 1049              	.L81:
 1050 006c 00000140 		.word	1073807360
 1051 0070 00040140 		.word	1073808384
 1052              		.cfi_endproc
 1053              	.LFE127:
 1054              		.size	TIM_OC1Init, .-TIM_OC1Init
 1055              		.section	.text.TIM_OC2Init,"ax",%progbits
 1056              		.align	1
 1057              		.p2align 4,,15
 1058              		.global	TIM_OC2Init
 1059              		.syntax unified
 1060              		.thumb
 1061              		.thumb_func
 1062              		.fpu fpv4-sp-d16
 1063              		.type	TIM_OC2Init, %function
 1064              	TIM_OC2Init:
 1065              	.LFB128:
 1066              		.loc 1 759 0
 1067              		.cfi_startproc
 1068              		@ args = 0, pretend = 0, frame = 0
 1069              		@ frame_needed = 0, uses_anonymous_args = 0
 1070              	.LVL84:
 1071              		.loc 1 769 0
 1072 0000 036A     		ldr	r3, [r0, #32]
 1073 0002 4FF6EF72 		movw	r2, #65519
 1074 0006 1340     		ands	r3, r3, r2
 1075              		.loc 1 759 0
 1076 0008 F0B5     		push	{r4, r5, r6, r7, lr}
 1077              		.cfi_def_cfa_offset 20
 1078              		.cfi_offset 4, -20
 1079              		.cfi_offset 5, -16
 1080              		.cfi_offset 6, -12
 1081              		.cfi_offset 7, -8
 1082              		.cfi_offset 14, -4
 1083              		.loc 1 769 0
ARM GAS  C:\Users\Grillmo\AppData\Local\Temp\ccN7xt8j.s 			page 20


 1084 000a 0362     		str	r3, [r0, #32]
 1085              		.loc 1 792 0
 1086 000c 4A88     		ldrh	r2, [r1, #2]
 1087              		.loc 1 789 0
 1088 000e 8C89     		ldrh	r4, [r1, #12]
 1089              		.loc 1 772 0
 1090 0010 D0F820E0 		ldr	lr, [r0, #32]
 1091              	.LVL85:
 1092              		.loc 1 774 0
 1093 0014 4668     		ldr	r6, [r0, #4]
 1094              		.loc 1 777 0
 1095 0016 8769     		ldr	r7, [r0, #24]
 1096              		.loc 1 794 0
 1097 0018 184D     		ldr	r5, .L87
 1098              		.loc 1 792 0
 1099 001a 1443     		orrs	r4, r4, r2
 1100              		.loc 1 781 0
 1101 001c 48F6FF42 		movw	r2, #36095
 1102 0020 3A40     		ands	r2, r2, r7
 1103              		.loc 1 787 0
 1104 0022 4FF6DF73 		movw	r3, #65503
 1105              		.loc 1 784 0
 1106 0026 0F88     		ldrh	r7, [r1]
 1107              		.loc 1 787 0
 1108 0028 0EEA0303 		and	r3, lr, r3
 1109              		.loc 1 792 0
 1110 002c 43EA0413 		orr	r3, r3, r4, lsl #4
 1111              		.loc 1 784 0
 1112 0030 42EA0722 		orr	r2, r2, r7, lsl #8
 1113              		.loc 1 794 0
 1114 0034 A842     		cmp	r0, r5
 1115              		.loc 1 792 0
 1116 0036 9BB2     		uxth	r3, r3
 1117              		.loc 1 774 0
 1118 0038 B4B2     		uxth	r4, r6
 1119              	.LVL86:
 1120              		.loc 1 784 0
 1121 003a 92B2     		uxth	r2, r2
 1122              	.LVL87:
 1123              		.loc 1 794 0
 1124 003c 09D0     		beq	.L84
 1125              		.loc 1 794 0 is_stmt 0 discriminator 1
 1126 003e 05F58065 		add	r5, r5, #1024
 1127 0042 A842     		cmp	r0, r5
 1128 0044 05D0     		beq	.L84
 1129              	.L85:
 1130              		.loc 1 825 0 is_stmt 1
 1131 0046 8968     		ldr	r1, [r1, #8]
 1132              	.LVL88:
 1133              		.loc 1 819 0
 1134 0048 4460     		str	r4, [r0, #4]
 1135              		.loc 1 822 0
 1136 004a 8261     		str	r2, [r0, #24]
 1137              		.loc 1 825 0
 1138 004c 8163     		str	r1, [r0, #56]
 1139              		.loc 1 828 0
 1140 004e 0362     		str	r3, [r0, #32]
ARM GAS  C:\Users\Grillmo\AppData\Local\Temp\ccN7xt8j.s 			page 21


 1141 0050 F0BD     		pop	{r4, r5, r6, r7, pc}
 1142              	.LVL89:
 1143              	.L84:
 1144              		.loc 1 804 0
 1145 0052 CD89     		ldrh	r5, [r1, #14]
 1146              		.loc 1 814 0
 1147 0054 0E8A     		ldrh	r6, [r1, #16]
 1148              		.loc 1 816 0
 1149 0056 4F8A     		ldrh	r7, [r1, #18]
 1150              		.loc 1 802 0
 1151 0058 23F08003 		bic	r3, r3, #128
 1152              	.LVL90:
 1153              		.loc 1 804 0
 1154 005c 43EA0513 		orr	r3, r3, r5, lsl #4
 1155              	.LVL91:
 1156              		.loc 1 806 0
 1157 0060 4FF6BF75 		movw	r5, #65471
 1158 0064 1D40     		ands	r5, r5, r3
 1159              	.LVL92:
 1160              		.loc 1 809 0
 1161 0066 8B88     		ldrh	r3, [r1, #4]
 1162              		.loc 1 812 0
 1163 0068 24F44064 		bic	r4, r4, #3072
 1164              	.LVL93:
 1165              		.loc 1 816 0
 1166 006c 3E43     		orrs	r6, r6, r7
 1167              		.loc 1 809 0
 1168 006e 45EA0313 		orr	r3, r5, r3, lsl #4
 1169              		.loc 1 816 0
 1170 0072 44EA8604 		orr	r4, r4, r6, lsl #2
 1171              		.loc 1 809 0
 1172 0076 9BB2     		uxth	r3, r3
 1173              	.LVL94:
 1174              		.loc 1 816 0
 1175 0078 A4B2     		uxth	r4, r4
 1176              	.LVL95:
 1177 007a E4E7     		b	.L85
 1178              	.L88:
 1179              		.align	2
 1180              	.L87:
 1181 007c 00000140 		.word	1073807360
 1182              		.cfi_endproc
 1183              	.LFE128:
 1184              		.size	TIM_OC2Init, .-TIM_OC2Init
 1185              		.section	.text.TIM_OC3Init,"ax",%progbits
 1186              		.align	1
 1187              		.p2align 4,,15
 1188              		.global	TIM_OC3Init
 1189              		.syntax unified
 1190              		.thumb
 1191              		.thumb_func
 1192              		.fpu fpv4-sp-d16
 1193              		.type	TIM_OC3Init, %function
 1194              	TIM_OC3Init:
 1195              	.LFB129:
 1196              		.loc 1 840 0
 1197              		.cfi_startproc
ARM GAS  C:\Users\Grillmo\AppData\Local\Temp\ccN7xt8j.s 			page 22


 1198              		@ args = 0, pretend = 0, frame = 0
 1199              		@ frame_needed = 0, uses_anonymous_args = 0
 1200              	.LVL96:
 1201              		.loc 1 850 0
 1202 0000 036A     		ldr	r3, [r0, #32]
 1203 0002 4FF6FF62 		movw	r2, #65279
 1204 0006 1340     		ands	r3, r3, r2
 1205 0008 0362     		str	r3, [r0, #32]
 1206              		.loc 1 840 0
 1207 000a F0B5     		push	{r4, r5, r6, r7, lr}
 1208              		.cfi_def_cfa_offset 20
 1209              		.cfi_offset 4, -20
 1210              		.cfi_offset 5, -16
 1211              		.cfi_offset 6, -12
 1212              		.cfi_offset 7, -8
 1213              		.cfi_offset 14, -4
 1214              		.loc 1 872 0
 1215 000c 4A88     		ldrh	r2, [r1, #2]
 1216              		.loc 1 853 0
 1217 000e D0F820E0 		ldr	lr, [r0, #32]
 1218              	.LVL97:
 1219              		.loc 1 869 0
 1220 0012 8C89     		ldrh	r4, [r1, #12]
 1221              		.loc 1 855 0
 1222 0014 4568     		ldr	r5, [r0, #4]
 1223              		.loc 1 874 0
 1224 0016 194E     		ldr	r6, .L93
 1225              		.loc 1 858 0
 1226 0018 C769     		ldr	r7, [r0, #28]
 1227              		.loc 1 867 0
 1228 001a 4FF6FF53 		movw	r3, #65023
 1229              		.loc 1 872 0
 1230 001e 1443     		orrs	r4, r4, r2
 1231              		.loc 1 867 0
 1232 0020 0EEA0303 		and	r3, lr, r3
 1233              		.loc 1 872 0
 1234 0024 43EA0423 		orr	r3, r3, r4, lsl #8
 1235              		.loc 1 862 0
 1236 0028 4FF68C72 		movw	r2, #65420
 1237              		.loc 1 864 0
 1238 002c 0C88     		ldrh	r4, [r1]
 1239              		.loc 1 862 0
 1240 002e 3A40     		ands	r2, r2, r7
 1241              		.loc 1 874 0
 1242 0030 B042     		cmp	r0, r6
 1243              		.loc 1 872 0
 1244 0032 9BB2     		uxth	r3, r3
 1245              		.loc 1 855 0
 1246 0034 ADB2     		uxth	r5, r5
 1247              	.LVL98:
 1248              		.loc 1 864 0
 1249 0036 42EA0402 		orr	r2, r2, r4
 1250              	.LVL99:
 1251              		.loc 1 874 0
 1252 003a 09D0     		beq	.L90
 1253              		.loc 1 874 0 is_stmt 0 discriminator 1
 1254 003c 06F58066 		add	r6, r6, #1024
ARM GAS  C:\Users\Grillmo\AppData\Local\Temp\ccN7xt8j.s 			page 23


 1255 0040 B042     		cmp	r0, r6
 1256 0042 05D0     		beq	.L90
 1257              	.L91:
 1258              		.loc 1 905 0 is_stmt 1
 1259 0044 8968     		ldr	r1, [r1, #8]
 1260              	.LVL100:
 1261              		.loc 1 899 0
 1262 0046 4560     		str	r5, [r0, #4]
 1263              		.loc 1 902 0
 1264 0048 C261     		str	r2, [r0, #28]
 1265              		.loc 1 905 0
 1266 004a C163     		str	r1, [r0, #60]
 1267              		.loc 1 908 0
 1268 004c 0362     		str	r3, [r0, #32]
 1269 004e F0BD     		pop	{r4, r5, r6, r7, pc}
 1270              	.LVL101:
 1271              	.L90:
 1272              		.loc 1 884 0
 1273 0050 CE89     		ldrh	r6, [r1, #14]
 1274              		.loc 1 894 0
 1275 0052 0F8A     		ldrh	r7, [r1, #16]
 1276              		.loc 1 896 0
 1277 0054 4C8A     		ldrh	r4, [r1, #18]
 1278              		.loc 1 882 0
 1279 0056 23F40063 		bic	r3, r3, #2048
 1280              	.LVL102:
 1281              		.loc 1 884 0
 1282 005a 43EA0623 		orr	r3, r3, r6, lsl #8
 1283              	.LVL103:
 1284              		.loc 1 886 0
 1285 005e 4FF6FF36 		movw	r6, #64511
 1286 0062 1E40     		ands	r6, r6, r3
 1287              	.LVL104:
 1288              		.loc 1 889 0
 1289 0064 8B88     		ldrh	r3, [r1, #4]
 1290              		.loc 1 892 0
 1291 0066 25F44055 		bic	r5, r5, #12288
 1292              	.LVL105:
 1293              		.loc 1 896 0
 1294 006a 2743     		orrs	r7, r7, r4
 1295              		.loc 1 889 0
 1296 006c 46EA0323 		orr	r3, r6, r3, lsl #8
 1297              		.loc 1 896 0
 1298 0070 45EA0715 		orr	r5, r5, r7, lsl #4
 1299              		.loc 1 889 0
 1300 0074 9BB2     		uxth	r3, r3
 1301              	.LVL106:
 1302              		.loc 1 896 0
 1303 0076 ADB2     		uxth	r5, r5
 1304              	.LVL107:
 1305 0078 E4E7     		b	.L91
 1306              	.L94:
 1307 007a 00BF     		.align	2
 1308              	.L93:
 1309 007c 00000140 		.word	1073807360
 1310              		.cfi_endproc
 1311              	.LFE129:
ARM GAS  C:\Users\Grillmo\AppData\Local\Temp\ccN7xt8j.s 			page 24


 1312              		.size	TIM_OC3Init, .-TIM_OC3Init
 1313              		.section	.text.TIM_OC4Init,"ax",%progbits
 1314              		.align	1
 1315              		.p2align 4,,15
 1316              		.global	TIM_OC4Init
 1317              		.syntax unified
 1318              		.thumb
 1319              		.thumb_func
 1320              		.fpu fpv4-sp-d16
 1321              		.type	TIM_OC4Init, %function
 1322              	TIM_OC4Init:
 1323              	.LFB130:
 1324              		.loc 1 920 0
 1325              		.cfi_startproc
 1326              		@ args = 0, pretend = 0, frame = 0
 1327              		@ frame_needed = 0, uses_anonymous_args = 0
 1328              	.LVL108:
 1329              		.loc 1 930 0
 1330 0000 036A     		ldr	r3, [r0, #32]
 1331 0002 4EF6FF72 		movw	r2, #61439
 1332 0006 1340     		ands	r3, r3, r2
 1333              		.loc 1 920 0
 1334 0008 F0B5     		push	{r4, r5, r6, r7, lr}
 1335              		.cfi_def_cfa_offset 20
 1336              		.cfi_offset 4, -20
 1337              		.cfi_offset 5, -16
 1338              		.cfi_offset 6, -12
 1339              		.cfi_offset 7, -8
 1340              		.cfi_offset 14, -4
 1341              		.loc 1 930 0
 1342 000a 0362     		str	r3, [r0, #32]
 1343              		.loc 1 953 0
 1344 000c 4A88     		ldrh	r2, [r1, #2]
 1345              		.loc 1 950 0
 1346 000e 8D89     		ldrh	r5, [r1, #12]
 1347              		.loc 1 933 0
 1348 0010 D0F820E0 		ldr	lr, [r0, #32]
 1349              	.LVL109:
 1350              		.loc 1 935 0
 1351 0014 4468     		ldr	r4, [r0, #4]
 1352              		.loc 1 938 0
 1353 0016 C769     		ldr	r7, [r0, #28]
 1354              		.loc 1 955 0
 1355 0018 114E     		ldr	r6, .L99
 1356              		.loc 1 953 0
 1357 001a 1543     		orrs	r5, r5, r2
 1358              		.loc 1 942 0
 1359 001c 48F6FF42 		movw	r2, #36095
 1360 0020 3A40     		ands	r2, r2, r7
 1361              		.loc 1 948 0
 1362 0022 4DF6FF73 		movw	r3, #57343
 1363              		.loc 1 945 0
 1364 0026 0F88     		ldrh	r7, [r1]
 1365              		.loc 1 948 0
 1366 0028 0EEA0303 		and	r3, lr, r3
 1367              		.loc 1 953 0
 1368 002c 43EA0533 		orr	r3, r3, r5, lsl #12
ARM GAS  C:\Users\Grillmo\AppData\Local\Temp\ccN7xt8j.s 			page 25


 1369              		.loc 1 945 0
 1370 0030 42EA0722 		orr	r2, r2, r7, lsl #8
 1371              		.loc 1 955 0
 1372 0034 B042     		cmp	r0, r6
 1373              		.loc 1 953 0
 1374 0036 9BB2     		uxth	r3, r3
 1375              		.loc 1 935 0
 1376 0038 A4B2     		uxth	r4, r4
 1377              	.LVL110:
 1378              		.loc 1 945 0
 1379 003a 92B2     		uxth	r2, r2
 1380              	.LVL111:
 1381              		.loc 1 955 0
 1382 003c 08D0     		beq	.L96
 1383              		.loc 1 955 0 is_stmt 0 discriminator 1
 1384 003e 094D     		ldr	r5, .L99+4
 1385 0040 A842     		cmp	r0, r5
 1386 0042 05D0     		beq	.L96
 1387              	.L97:
 1388              		.loc 1 970 0 is_stmt 1
 1389 0044 8968     		ldr	r1, [r1, #8]
 1390              	.LVL112:
 1391              		.loc 1 964 0
 1392 0046 4460     		str	r4, [r0, #4]
 1393              		.loc 1 967 0
 1394 0048 C261     		str	r2, [r0, #28]
 1395              		.loc 1 970 0
 1396 004a 0164     		str	r1, [r0, #64]
 1397              		.loc 1 973 0
 1398 004c 0362     		str	r3, [r0, #32]
 1399 004e F0BD     		pop	{r4, r5, r6, r7, pc}
 1400              	.LVL113:
 1401              	.L96:
 1402              		.loc 1 961 0
 1403 0050 0D8A     		ldrh	r5, [r1, #16]
 1404              		.loc 1 959 0
 1405 0052 24F48044 		bic	r4, r4, #16384
 1406              	.LVL114:
 1407              		.loc 1 961 0
 1408 0056 44EA8514 		orr	r4, r4, r5, lsl #6
 1409              	.LVL115:
 1410 005a A4B2     		uxth	r4, r4
 1411              	.LVL116:
 1412 005c F2E7     		b	.L97
 1413              	.L100:
 1414 005e 00BF     		.align	2
 1415              	.L99:
 1416 0060 00000140 		.word	1073807360
 1417 0064 00040140 		.word	1073808384
 1418              		.cfi_endproc
 1419              	.LFE130:
 1420              		.size	TIM_OC4Init, .-TIM_OC4Init
 1421              		.section	.text.TIM_OCStructInit,"ax",%progbits
 1422              		.align	1
 1423              		.p2align 4,,15
 1424              		.global	TIM_OCStructInit
 1425              		.syntax unified
ARM GAS  C:\Users\Grillmo\AppData\Local\Temp\ccN7xt8j.s 			page 26


 1426              		.thumb
 1427              		.thumb_func
 1428              		.fpu fpv4-sp-d16
 1429              		.type	TIM_OCStructInit, %function
 1430              	TIM_OCStructInit:
 1431              	.LFB131:
 1432              		.loc 1 983 0
 1433              		.cfi_startproc
 1434              		@ args = 0, pretend = 0, frame = 0
 1435              		@ frame_needed = 0, uses_anonymous_args = 0
 1436              		@ link register save eliminated.
 1437              	.LVL117:
 1438              		.loc 1 985 0
 1439 0000 0023     		movs	r3, #0
 1440 0002 0380     		strh	r3, [r0]	@ movhi
 1441              		.loc 1 986 0
 1442 0004 4380     		strh	r3, [r0, #2]	@ movhi
 1443              		.loc 1 987 0
 1444 0006 8380     		strh	r3, [r0, #4]	@ movhi
 1445              		.loc 1 988 0
 1446 0008 8360     		str	r3, [r0, #8]
 1447              		.loc 1 989 0
 1448 000a 8381     		strh	r3, [r0, #12]	@ movhi
 1449              		.loc 1 990 0
 1450 000c C381     		strh	r3, [r0, #14]	@ movhi
 1451              		.loc 1 991 0
 1452 000e 0382     		strh	r3, [r0, #16]	@ movhi
 1453              		.loc 1 992 0
 1454 0010 4382     		strh	r3, [r0, #18]	@ movhi
 1455 0012 7047     		bx	lr
 1456              		.cfi_endproc
 1457              	.LFE131:
 1458              		.size	TIM_OCStructInit, .-TIM_OCStructInit
 1459              		.section	.text.TIM_SelectOCxM,"ax",%progbits
 1460              		.align	1
 1461              		.p2align 4,,15
 1462              		.global	TIM_SelectOCxM
 1463              		.syntax unified
 1464              		.thumb
 1465              		.thumb_func
 1466              		.fpu fpv4-sp-d16
 1467              		.type	TIM_SelectOCxM, %function
 1468              	TIM_SelectOCxM:
 1469              	.LFB132:
 1470              		.loc 1 1019 0
 1471              		.cfi_startproc
 1472              		@ args = 0, pretend = 0, frame = 0
 1473              		@ frame_needed = 0, uses_anonymous_args = 0
 1474              		@ link register save eliminated.
 1475              	.LVL118:
 1476              		.loc 1 1031 0
 1477 0000 0123     		movs	r3, #1
 1478 0002 8B40     		lsls	r3, r3, r1
 1479              		.loc 1 1019 0
 1480 0004 10B4     		push	{r4}
 1481              		.cfi_def_cfa_offset 4
 1482              		.cfi_offset 4, -4
ARM GAS  C:\Users\Grillmo\AppData\Local\Temp\ccN7xt8j.s 			page 27


 1483              		.loc 1 1034 0
 1484 0006 DB43     		mvns	r3, r3
 1485 0008 046A     		ldr	r4, [r0, #32]
 1486 000a 9BB2     		uxth	r3, r3
 1487 000c 2340     		ands	r3, r3, r4
 1488              		.loc 1 1036 0
 1489 000e 21F00804 		bic	r4, r1, #8
 1490              		.loc 1 1034 0
 1491 0012 0362     		str	r3, [r0, #32]
 1492              		.loc 1 1029 0
 1493 0014 1830     		adds	r0, r0, #24
 1494              	.LVL119:
 1495              		.loc 1 1036 0
 1496 0016 7CB1     		cbz	r4, .L106
 1497              	.LVL120:
 1498              		.loc 1 1048 0
 1499 0018 0439     		subs	r1, r1, #4
 1500              	.LVL121:
 1501 001a C1F34E01 		ubfx	r1, r1, #1, #15
 1502              		.loc 1 1051 0
 1503 001e 48F6FF74 		movw	r4, #36863
 1504 0022 0B58     		ldr	r3, [r1, r0]
 1505 0024 2340     		ands	r3, r3, r4
 1506 0026 0B50     		str	r3, [r1, r0]
 1507              		.loc 1 1054 0
 1508 0028 1202     		lsls	r2, r2, #8
 1509              	.LVL122:
 1510 002a 0B58     		ldr	r3, [r1, r0]
 1511              		.loc 1 1056 0
 1512 002c 5DF8044B 		ldr	r4, [sp], #4
 1513              		.cfi_remember_state
 1514              		.cfi_restore 4
 1515              		.cfi_def_cfa_offset 0
 1516              		.loc 1 1054 0
 1517 0030 92B2     		uxth	r2, r2
 1518 0032 1A43     		orrs	r2, r2, r3
 1519 0034 0A50     		str	r2, [r1, r0]
 1520              		.loc 1 1056 0
 1521 0036 7047     		bx	lr
 1522              	.LVL123:
 1523              	.L106:
 1524              		.cfi_restore_state
 1525              		.loc 1 1038 0
 1526 0038 4908     		lsrs	r1, r1, #1
 1527              	.LVL124:
 1528              		.loc 1 1041 0
 1529 003a 4FF68F74 		movw	r4, #65423
 1530 003e 0B58     		ldr	r3, [r1, r0]
 1531 0040 2340     		ands	r3, r3, r4
 1532 0042 0B50     		str	r3, [r1, r0]
 1533              		.loc 1 1044 0
 1534 0044 0B58     		ldr	r3, [r1, r0]
 1535              		.loc 1 1056 0
 1536 0046 5DF8044B 		ldr	r4, [sp], #4
 1537              		.cfi_restore 4
 1538              		.cfi_def_cfa_offset 0
 1539              		.loc 1 1044 0
ARM GAS  C:\Users\Grillmo\AppData\Local\Temp\ccN7xt8j.s 			page 28


 1540 004a 1A43     		orrs	r2, r2, r3
 1541              	.LVL125:
 1542 004c 0A50     		str	r2, [r1, r0]
 1543              		.loc 1 1056 0
 1544 004e 7047     		bx	lr
 1545              		.cfi_endproc
 1546              	.LFE132:
 1547              		.size	TIM_SelectOCxM, .-TIM_SelectOCxM
 1548              		.section	.text.TIM_SetCompare1,"ax",%progbits
 1549              		.align	1
 1550              		.p2align 4,,15
 1551              		.global	TIM_SetCompare1
 1552              		.syntax unified
 1553              		.thumb
 1554              		.thumb_func
 1555              		.fpu fpv4-sp-d16
 1556              		.type	TIM_SetCompare1, %function
 1557              	TIM_SetCompare1:
 1558              	.LFB133:
 1559              		.loc 1 1065 0
 1560              		.cfi_startproc
 1561              		@ args = 0, pretend = 0, frame = 0
 1562              		@ frame_needed = 0, uses_anonymous_args = 0
 1563              		@ link register save eliminated.
 1564              	.LVL126:
 1565              		.loc 1 1070 0
 1566 0000 4163     		str	r1, [r0, #52]
 1567 0002 7047     		bx	lr
 1568              		.cfi_endproc
 1569              	.LFE133:
 1570              		.size	TIM_SetCompare1, .-TIM_SetCompare1
 1571              		.section	.text.TIM_SetCompare2,"ax",%progbits
 1572              		.align	1
 1573              		.p2align 4,,15
 1574              		.global	TIM_SetCompare2
 1575              		.syntax unified
 1576              		.thumb
 1577              		.thumb_func
 1578              		.fpu fpv4-sp-d16
 1579              		.type	TIM_SetCompare2, %function
 1580              	TIM_SetCompare2:
 1581              	.LFB134:
 1582              		.loc 1 1081 0
 1583              		.cfi_startproc
 1584              		@ args = 0, pretend = 0, frame = 0
 1585              		@ frame_needed = 0, uses_anonymous_args = 0
 1586              		@ link register save eliminated.
 1587              	.LVL127:
 1588              		.loc 1 1086 0
 1589 0000 8163     		str	r1, [r0, #56]
 1590 0002 7047     		bx	lr
 1591              		.cfi_endproc
 1592              	.LFE134:
 1593              		.size	TIM_SetCompare2, .-TIM_SetCompare2
 1594              		.section	.text.TIM_SetCompare3,"ax",%progbits
 1595              		.align	1
 1596              		.p2align 4,,15
ARM GAS  C:\Users\Grillmo\AppData\Local\Temp\ccN7xt8j.s 			page 29


 1597              		.global	TIM_SetCompare3
 1598              		.syntax unified
 1599              		.thumb
 1600              		.thumb_func
 1601              		.fpu fpv4-sp-d16
 1602              		.type	TIM_SetCompare3, %function
 1603              	TIM_SetCompare3:
 1604              	.LFB135:
 1605              		.loc 1 1096 0
 1606              		.cfi_startproc
 1607              		@ args = 0, pretend = 0, frame = 0
 1608              		@ frame_needed = 0, uses_anonymous_args = 0
 1609              		@ link register save eliminated.
 1610              	.LVL128:
 1611              		.loc 1 1101 0
 1612 0000 C163     		str	r1, [r0, #60]
 1613 0002 7047     		bx	lr
 1614              		.cfi_endproc
 1615              	.LFE135:
 1616              		.size	TIM_SetCompare3, .-TIM_SetCompare3
 1617              		.section	.text.TIM_SetCompare4,"ax",%progbits
 1618              		.align	1
 1619              		.p2align 4,,15
 1620              		.global	TIM_SetCompare4
 1621              		.syntax unified
 1622              		.thumb
 1623              		.thumb_func
 1624              		.fpu fpv4-sp-d16
 1625              		.type	TIM_SetCompare4, %function
 1626              	TIM_SetCompare4:
 1627              	.LFB136:
 1628              		.loc 1 1111 0
 1629              		.cfi_startproc
 1630              		@ args = 0, pretend = 0, frame = 0
 1631              		@ frame_needed = 0, uses_anonymous_args = 0
 1632              		@ link register save eliminated.
 1633              	.LVL129:
 1634              		.loc 1 1116 0
 1635 0000 0164     		str	r1, [r0, #64]
 1636 0002 7047     		bx	lr
 1637              		.cfi_endproc
 1638              	.LFE136:
 1639              		.size	TIM_SetCompare4, .-TIM_SetCompare4
 1640              		.section	.text.TIM_ForcedOC1Config,"ax",%progbits
 1641              		.align	1
 1642              		.p2align 4,,15
 1643              		.global	TIM_ForcedOC1Config
 1644              		.syntax unified
 1645              		.thumb
 1646              		.thumb_func
 1647              		.fpu fpv4-sp-d16
 1648              		.type	TIM_ForcedOC1Config, %function
 1649              	TIM_ForcedOC1Config:
 1650              	.LFB137:
 1651              		.loc 1 1129 0
 1652              		.cfi_startproc
 1653              		@ args = 0, pretend = 0, frame = 0
ARM GAS  C:\Users\Grillmo\AppData\Local\Temp\ccN7xt8j.s 			page 30


 1654              		@ frame_needed = 0, uses_anonymous_args = 0
 1655              		@ link register save eliminated.
 1656              	.LVL130:
 1657              		.loc 1 1135 0
 1658 0000 8269     		ldr	r2, [r0, #24]
 1659              	.LVL131:
 1660              		.loc 1 1138 0
 1661 0002 4FF68F73 		movw	r3, #65423
 1662 0006 1340     		ands	r3, r3, r2
 1663              	.LVL132:
 1664              		.loc 1 1144 0
 1665 0008 1943     		orrs	r1, r1, r3
 1666              	.LVL133:
 1667 000a 8161     		str	r1, [r0, #24]
 1668 000c 7047     		bx	lr
 1669              		.cfi_endproc
 1670              	.LFE137:
 1671              		.size	TIM_ForcedOC1Config, .-TIM_ForcedOC1Config
 1672 000e 00BF     		.section	.text.TIM_ForcedOC2Config,"ax",%progbits
 1673              		.align	1
 1674              		.p2align 4,,15
 1675              		.global	TIM_ForcedOC2Config
 1676              		.syntax unified
 1677              		.thumb
 1678              		.thumb_func
 1679              		.fpu fpv4-sp-d16
 1680              		.type	TIM_ForcedOC2Config, %function
 1681              	TIM_ForcedOC2Config:
 1682              	.LFB138:
 1683              		.loc 1 1158 0
 1684              		.cfi_startproc
 1685              		@ args = 0, pretend = 0, frame = 0
 1686              		@ frame_needed = 0, uses_anonymous_args = 0
 1687              		@ link register save eliminated.
 1688              	.LVL134:
 1689              		.loc 1 1164 0
 1690 0000 8269     		ldr	r2, [r0, #24]
 1691              	.LVL135:
 1692              		.loc 1 1167 0
 1693 0002 48F6FF73 		movw	r3, #36863
 1694 0006 1340     		ands	r3, r3, r2
 1695              	.LVL136:
 1696              		.loc 1 1170 0
 1697 0008 43EA0121 		orr	r1, r3, r1, lsl #8
 1698              	.LVL137:
 1699              		.loc 1 1173 0
 1700 000c 89B2     		uxth	r1, r1
 1701 000e 8161     		str	r1, [r0, #24]
 1702 0010 7047     		bx	lr
 1703              		.cfi_endproc
 1704              	.LFE138:
 1705              		.size	TIM_ForcedOC2Config, .-TIM_ForcedOC2Config
 1706 0012 00BF     		.section	.text.TIM_ForcedOC3Config,"ax",%progbits
 1707              		.align	1
 1708              		.p2align 4,,15
 1709              		.global	TIM_ForcedOC3Config
 1710              		.syntax unified
ARM GAS  C:\Users\Grillmo\AppData\Local\Temp\ccN7xt8j.s 			page 31


 1711              		.thumb
 1712              		.thumb_func
 1713              		.fpu fpv4-sp-d16
 1714              		.type	TIM_ForcedOC3Config, %function
 1715              	TIM_ForcedOC3Config:
 1716              	.LFB139:
 1717              		.loc 1 1186 0
 1718              		.cfi_startproc
 1719              		@ args = 0, pretend = 0, frame = 0
 1720              		@ frame_needed = 0, uses_anonymous_args = 0
 1721              		@ link register save eliminated.
 1722              	.LVL138:
 1723              		.loc 1 1193 0
 1724 0000 C269     		ldr	r2, [r0, #28]
 1725              	.LVL139:
 1726              		.loc 1 1196 0
 1727 0002 4FF68F73 		movw	r3, #65423
 1728 0006 1340     		ands	r3, r3, r2
 1729              	.LVL140:
 1730              		.loc 1 1202 0
 1731 0008 1943     		orrs	r1, r1, r3
 1732              	.LVL141:
 1733 000a C161     		str	r1, [r0, #28]
 1734 000c 7047     		bx	lr
 1735              		.cfi_endproc
 1736              	.LFE139:
 1737              		.size	TIM_ForcedOC3Config, .-TIM_ForcedOC3Config
 1738 000e 00BF     		.section	.text.TIM_ForcedOC4Config,"ax",%progbits
 1739              		.align	1
 1740              		.p2align 4,,15
 1741              		.global	TIM_ForcedOC4Config
 1742              		.syntax unified
 1743              		.thumb
 1744              		.thumb_func
 1745              		.fpu fpv4-sp-d16
 1746              		.type	TIM_ForcedOC4Config, %function
 1747              	TIM_ForcedOC4Config:
 1748              	.LFB140:
 1749              		.loc 1 1215 0
 1750              		.cfi_startproc
 1751              		@ args = 0, pretend = 0, frame = 0
 1752              		@ frame_needed = 0, uses_anonymous_args = 0
 1753              		@ link register save eliminated.
 1754              	.LVL142:
 1755              		.loc 1 1221 0
 1756 0000 C269     		ldr	r2, [r0, #28]
 1757              	.LVL143:
 1758              		.loc 1 1224 0
 1759 0002 48F6FF73 		movw	r3, #36863
 1760 0006 1340     		ands	r3, r3, r2
 1761              	.LVL144:
 1762              		.loc 1 1227 0
 1763 0008 43EA0121 		orr	r1, r3, r1, lsl #8
 1764              	.LVL145:
 1765              		.loc 1 1230 0
 1766 000c 89B2     		uxth	r1, r1
 1767 000e C161     		str	r1, [r0, #28]
ARM GAS  C:\Users\Grillmo\AppData\Local\Temp\ccN7xt8j.s 			page 32


 1768 0010 7047     		bx	lr
 1769              		.cfi_endproc
 1770              	.LFE140:
 1771              		.size	TIM_ForcedOC4Config, .-TIM_ForcedOC4Config
 1772 0012 00BF     		.section	.text.TIM_OC1PreloadConfig,"ax",%progbits
 1773              		.align	1
 1774              		.p2align 4,,15
 1775              		.global	TIM_OC1PreloadConfig
 1776              		.syntax unified
 1777              		.thumb
 1778              		.thumb_func
 1779              		.fpu fpv4-sp-d16
 1780              		.type	TIM_OC1PreloadConfig, %function
 1781              	TIM_OC1PreloadConfig:
 1782              	.LFB141:
 1783              		.loc 1 1243 0
 1784              		.cfi_startproc
 1785              		@ args = 0, pretend = 0, frame = 0
 1786              		@ frame_needed = 0, uses_anonymous_args = 0
 1787              		@ link register save eliminated.
 1788              	.LVL146:
 1789              		.loc 1 1250 0
 1790 0000 8269     		ldr	r2, [r0, #24]
 1791              	.LVL147:
 1792              		.loc 1 1253 0
 1793 0002 4FF6F773 		movw	r3, #65527
 1794 0006 1340     		ands	r3, r3, r2
 1795              	.LVL148:
 1796              		.loc 1 1259 0
 1797 0008 1943     		orrs	r1, r1, r3
 1798              	.LVL149:
 1799 000a 8161     		str	r1, [r0, #24]
 1800 000c 7047     		bx	lr
 1801              		.cfi_endproc
 1802              	.LFE141:
 1803              		.size	TIM_OC1PreloadConfig, .-TIM_OC1PreloadConfig
 1804 000e 00BF     		.section	.text.TIM_OC2PreloadConfig,"ax",%progbits
 1805              		.align	1
 1806              		.p2align 4,,15
 1807              		.global	TIM_OC2PreloadConfig
 1808              		.syntax unified
 1809              		.thumb
 1810              		.thumb_func
 1811              		.fpu fpv4-sp-d16
 1812              		.type	TIM_OC2PreloadConfig, %function
 1813              	TIM_OC2PreloadConfig:
 1814              	.LFB142:
 1815              		.loc 1 1273 0
 1816              		.cfi_startproc
 1817              		@ args = 0, pretend = 0, frame = 0
 1818              		@ frame_needed = 0, uses_anonymous_args = 0
 1819              		@ link register save eliminated.
 1820              	.LVL150:
 1821              		.loc 1 1280 0
 1822 0000 8269     		ldr	r2, [r0, #24]
 1823              	.LVL151:
 1824              		.loc 1 1283 0
ARM GAS  C:\Users\Grillmo\AppData\Local\Temp\ccN7xt8j.s 			page 33


 1825 0002 4FF2FF73 		movw	r3, #63487
 1826 0006 1340     		ands	r3, r3, r2
 1827              	.LVL152:
 1828              		.loc 1 1286 0
 1829 0008 43EA0121 		orr	r1, r3, r1, lsl #8
 1830              	.LVL153:
 1831              		.loc 1 1289 0
 1832 000c 89B2     		uxth	r1, r1
 1833 000e 8161     		str	r1, [r0, #24]
 1834 0010 7047     		bx	lr
 1835              		.cfi_endproc
 1836              	.LFE142:
 1837              		.size	TIM_OC2PreloadConfig, .-TIM_OC2PreloadConfig
 1838 0012 00BF     		.section	.text.TIM_OC3PreloadConfig,"ax",%progbits
 1839              		.align	1
 1840              		.p2align 4,,15
 1841              		.global	TIM_OC3PreloadConfig
 1842              		.syntax unified
 1843              		.thumb
 1844              		.thumb_func
 1845              		.fpu fpv4-sp-d16
 1846              		.type	TIM_OC3PreloadConfig, %function
 1847              	TIM_OC3PreloadConfig:
 1848              	.LFB143:
 1849              		.loc 1 1302 0
 1850              		.cfi_startproc
 1851              		@ args = 0, pretend = 0, frame = 0
 1852              		@ frame_needed = 0, uses_anonymous_args = 0
 1853              		@ link register save eliminated.
 1854              	.LVL154:
 1855              		.loc 1 1309 0
 1856 0000 C269     		ldr	r2, [r0, #28]
 1857              	.LVL155:
 1858              		.loc 1 1312 0
 1859 0002 4FF6F773 		movw	r3, #65527
 1860 0006 1340     		ands	r3, r3, r2
 1861              	.LVL156:
 1862              		.loc 1 1318 0
 1863 0008 1943     		orrs	r1, r1, r3
 1864              	.LVL157:
 1865 000a C161     		str	r1, [r0, #28]
 1866 000c 7047     		bx	lr
 1867              		.cfi_endproc
 1868              	.LFE143:
 1869              		.size	TIM_OC3PreloadConfig, .-TIM_OC3PreloadConfig
 1870 000e 00BF     		.section	.text.TIM_OC4PreloadConfig,"ax",%progbits
 1871              		.align	1
 1872              		.p2align 4,,15
 1873              		.global	TIM_OC4PreloadConfig
 1874              		.syntax unified
 1875              		.thumb
 1876              		.thumb_func
 1877              		.fpu fpv4-sp-d16
 1878              		.type	TIM_OC4PreloadConfig, %function
 1879              	TIM_OC4PreloadConfig:
 1880              	.LFB144:
 1881              		.loc 1 1331 0
ARM GAS  C:\Users\Grillmo\AppData\Local\Temp\ccN7xt8j.s 			page 34


 1882              		.cfi_startproc
 1883              		@ args = 0, pretend = 0, frame = 0
 1884              		@ frame_needed = 0, uses_anonymous_args = 0
 1885              		@ link register save eliminated.
 1886              	.LVL158:
 1887              		.loc 1 1338 0
 1888 0000 C269     		ldr	r2, [r0, #28]
 1889              	.LVL159:
 1890              		.loc 1 1341 0
 1891 0002 4FF2FF73 		movw	r3, #63487
 1892 0006 1340     		ands	r3, r3, r2
 1893              	.LVL160:
 1894              		.loc 1 1344 0
 1895 0008 43EA0121 		orr	r1, r3, r1, lsl #8
 1896              	.LVL161:
 1897              		.loc 1 1347 0
 1898 000c 89B2     		uxth	r1, r1
 1899 000e C161     		str	r1, [r0, #28]
 1900 0010 7047     		bx	lr
 1901              		.cfi_endproc
 1902              	.LFE144:
 1903              		.size	TIM_OC4PreloadConfig, .-TIM_OC4PreloadConfig
 1904 0012 00BF     		.section	.text.TIM_OC1FastConfig,"ax",%progbits
 1905              		.align	1
 1906              		.p2align 4,,15
 1907              		.global	TIM_OC1FastConfig
 1908              		.syntax unified
 1909              		.thumb
 1910              		.thumb_func
 1911              		.fpu fpv4-sp-d16
 1912              		.type	TIM_OC1FastConfig, %function
 1913              	TIM_OC1FastConfig:
 1914              	.LFB145:
 1915              		.loc 1 1360 0
 1916              		.cfi_startproc
 1917              		@ args = 0, pretend = 0, frame = 0
 1918              		@ frame_needed = 0, uses_anonymous_args = 0
 1919              		@ link register save eliminated.
 1920              	.LVL162:
 1921              		.loc 1 1368 0
 1922 0000 8269     		ldr	r2, [r0, #24]
 1923              	.LVL163:
 1924              		.loc 1 1371 0
 1925 0002 4FF6FB73 		movw	r3, #65531
 1926 0006 1340     		ands	r3, r3, r2
 1927              	.LVL164:
 1928              		.loc 1 1377 0
 1929 0008 1943     		orrs	r1, r1, r3
 1930              	.LVL165:
 1931 000a 8161     		str	r1, [r0, #24]
 1932 000c 7047     		bx	lr
 1933              		.cfi_endproc
 1934              	.LFE145:
 1935              		.size	TIM_OC1FastConfig, .-TIM_OC1FastConfig
 1936 000e 00BF     		.section	.text.TIM_OC2FastConfig,"ax",%progbits
 1937              		.align	1
 1938              		.p2align 4,,15
ARM GAS  C:\Users\Grillmo\AppData\Local\Temp\ccN7xt8j.s 			page 35


 1939              		.global	TIM_OC2FastConfig
 1940              		.syntax unified
 1941              		.thumb
 1942              		.thumb_func
 1943              		.fpu fpv4-sp-d16
 1944              		.type	TIM_OC2FastConfig, %function
 1945              	TIM_OC2FastConfig:
 1946              	.LFB146:
 1947              		.loc 1 1391 0
 1948              		.cfi_startproc
 1949              		@ args = 0, pretend = 0, frame = 0
 1950              		@ frame_needed = 0, uses_anonymous_args = 0
 1951              		@ link register save eliminated.
 1952              	.LVL166:
 1953              		.loc 1 1399 0
 1954 0000 8269     		ldr	r2, [r0, #24]
 1955              	.LVL167:
 1956              		.loc 1 1402 0
 1957 0002 4FF6FF33 		movw	r3, #64511
 1958 0006 1340     		ands	r3, r3, r2
 1959              	.LVL168:
 1960              		.loc 1 1405 0
 1961 0008 43EA0121 		orr	r1, r3, r1, lsl #8
 1962              	.LVL169:
 1963              		.loc 1 1408 0
 1964 000c 89B2     		uxth	r1, r1
 1965 000e 8161     		str	r1, [r0, #24]
 1966 0010 7047     		bx	lr
 1967              		.cfi_endproc
 1968              	.LFE146:
 1969              		.size	TIM_OC2FastConfig, .-TIM_OC2FastConfig
 1970 0012 00BF     		.section	.text.TIM_OC3FastConfig,"ax",%progbits
 1971              		.align	1
 1972              		.p2align 4,,15
 1973              		.global	TIM_OC3FastConfig
 1974              		.syntax unified
 1975              		.thumb
 1976              		.thumb_func
 1977              		.fpu fpv4-sp-d16
 1978              		.type	TIM_OC3FastConfig, %function
 1979              	TIM_OC3FastConfig:
 1980              	.LFB147:
 1981              		.loc 1 1421 0
 1982              		.cfi_startproc
 1983              		@ args = 0, pretend = 0, frame = 0
 1984              		@ frame_needed = 0, uses_anonymous_args = 0
 1985              		@ link register save eliminated.
 1986              	.LVL170:
 1987              		.loc 1 1429 0
 1988 0000 C269     		ldr	r2, [r0, #28]
 1989              	.LVL171:
 1990              		.loc 1 1432 0
 1991 0002 4FF6FB73 		movw	r3, #65531
 1992 0006 1340     		ands	r3, r3, r2
 1993              	.LVL172:
 1994              		.loc 1 1438 0
 1995 0008 1943     		orrs	r1, r1, r3
ARM GAS  C:\Users\Grillmo\AppData\Local\Temp\ccN7xt8j.s 			page 36


 1996              	.LVL173:
 1997 000a C161     		str	r1, [r0, #28]
 1998 000c 7047     		bx	lr
 1999              		.cfi_endproc
 2000              	.LFE147:
 2001              		.size	TIM_OC3FastConfig, .-TIM_OC3FastConfig
 2002 000e 00BF     		.section	.text.TIM_OC4FastConfig,"ax",%progbits
 2003              		.align	1
 2004              		.p2align 4,,15
 2005              		.global	TIM_OC4FastConfig
 2006              		.syntax unified
 2007              		.thumb
 2008              		.thumb_func
 2009              		.fpu fpv4-sp-d16
 2010              		.type	TIM_OC4FastConfig, %function
 2011              	TIM_OC4FastConfig:
 2012              	.LFB148:
 2013              		.loc 1 1451 0
 2014              		.cfi_startproc
 2015              		@ args = 0, pretend = 0, frame = 0
 2016              		@ frame_needed = 0, uses_anonymous_args = 0
 2017              		@ link register save eliminated.
 2018              	.LVL174:
 2019              		.loc 1 1459 0
 2020 0000 C269     		ldr	r2, [r0, #28]
 2021              	.LVL175:
 2022              		.loc 1 1462 0
 2023 0002 4FF6FF33 		movw	r3, #64511
 2024 0006 1340     		ands	r3, r3, r2
 2025              	.LVL176:
 2026              		.loc 1 1465 0
 2027 0008 43EA0121 		orr	r1, r3, r1, lsl #8
 2028              	.LVL177:
 2029              		.loc 1 1468 0
 2030 000c 89B2     		uxth	r1, r1
 2031 000e C161     		str	r1, [r0, #28]
 2032 0010 7047     		bx	lr
 2033              		.cfi_endproc
 2034              	.LFE148:
 2035              		.size	TIM_OC4FastConfig, .-TIM_OC4FastConfig
 2036 0012 00BF     		.section	.text.TIM_ClearOC1Ref,"ax",%progbits
 2037              		.align	1
 2038              		.p2align 4,,15
 2039              		.global	TIM_ClearOC1Ref
 2040              		.syntax unified
 2041              		.thumb
 2042              		.thumb_func
 2043              		.fpu fpv4-sp-d16
 2044              		.type	TIM_ClearOC1Ref, %function
 2045              	TIM_ClearOC1Ref:
 2046              	.LFB149:
 2047              		.loc 1 1481 0
 2048              		.cfi_startproc
 2049              		@ args = 0, pretend = 0, frame = 0
 2050              		@ frame_needed = 0, uses_anonymous_args = 0
 2051              		@ link register save eliminated.
 2052              	.LVL178:
ARM GAS  C:\Users\Grillmo\AppData\Local\Temp\ccN7xt8j.s 			page 37


 2053              		.loc 1 1488 0
 2054 0000 8269     		ldr	r2, [r0, #24]
 2055              	.LVL179:
 2056              		.loc 1 1491 0
 2057 0002 4FF67F73 		movw	r3, #65407
 2058 0006 1340     		ands	r3, r3, r2
 2059              	.LVL180:
 2060              		.loc 1 1497 0
 2061 0008 1943     		orrs	r1, r1, r3
 2062              	.LVL181:
 2063 000a 8161     		str	r1, [r0, #24]
 2064 000c 7047     		bx	lr
 2065              		.cfi_endproc
 2066              	.LFE149:
 2067              		.size	TIM_ClearOC1Ref, .-TIM_ClearOC1Ref
 2068 000e 00BF     		.section	.text.TIM_ClearOC2Ref,"ax",%progbits
 2069              		.align	1
 2070              		.p2align 4,,15
 2071              		.global	TIM_ClearOC2Ref
 2072              		.syntax unified
 2073              		.thumb
 2074              		.thumb_func
 2075              		.fpu fpv4-sp-d16
 2076              		.type	TIM_ClearOC2Ref, %function
 2077              	TIM_ClearOC2Ref:
 2078              	.LFB150:
 2079              		.loc 1 1511 0
 2080              		.cfi_startproc
 2081              		@ args = 0, pretend = 0, frame = 0
 2082              		@ frame_needed = 0, uses_anonymous_args = 0
 2083              		@ link register save eliminated.
 2084              	.LVL182:
 2085              		.loc 1 1518 0
 2086 0000 8369     		ldr	r3, [r0, #24]
 2087              	.LVL183:
 2088              		.loc 1 1521 0
 2089 0002 C3F30E03 		ubfx	r3, r3, #0, #15
 2090              	.LVL184:
 2091              		.loc 1 1524 0
 2092 0006 43EA0121 		orr	r1, r3, r1, lsl #8
 2093              	.LVL185:
 2094              		.loc 1 1527 0
 2095 000a 89B2     		uxth	r1, r1
 2096 000c 8161     		str	r1, [r0, #24]
 2097 000e 7047     		bx	lr
 2098              		.cfi_endproc
 2099              	.LFE150:
 2100              		.size	TIM_ClearOC2Ref, .-TIM_ClearOC2Ref
 2101              		.section	.text.TIM_ClearOC3Ref,"ax",%progbits
 2102              		.align	1
 2103              		.p2align 4,,15
 2104              		.global	TIM_ClearOC3Ref
 2105              		.syntax unified
 2106              		.thumb
 2107              		.thumb_func
 2108              		.fpu fpv4-sp-d16
 2109              		.type	TIM_ClearOC3Ref, %function
ARM GAS  C:\Users\Grillmo\AppData\Local\Temp\ccN7xt8j.s 			page 38


 2110              	TIM_ClearOC3Ref:
 2111              	.LFB151:
 2112              		.loc 1 1540 0
 2113              		.cfi_startproc
 2114              		@ args = 0, pretend = 0, frame = 0
 2115              		@ frame_needed = 0, uses_anonymous_args = 0
 2116              		@ link register save eliminated.
 2117              	.LVL186:
 2118              		.loc 1 1547 0
 2119 0000 C269     		ldr	r2, [r0, #28]
 2120              	.LVL187:
 2121              		.loc 1 1550 0
 2122 0002 4FF67F73 		movw	r3, #65407
 2123 0006 1340     		ands	r3, r3, r2
 2124              	.LVL188:
 2125              		.loc 1 1556 0
 2126 0008 1943     		orrs	r1, r1, r3
 2127              	.LVL189:
 2128 000a C161     		str	r1, [r0, #28]
 2129 000c 7047     		bx	lr
 2130              		.cfi_endproc
 2131              	.LFE151:
 2132              		.size	TIM_ClearOC3Ref, .-TIM_ClearOC3Ref
 2133 000e 00BF     		.section	.text.TIM_ClearOC4Ref,"ax",%progbits
 2134              		.align	1
 2135              		.p2align 4,,15
 2136              		.global	TIM_ClearOC4Ref
 2137              		.syntax unified
 2138              		.thumb
 2139              		.thumb_func
 2140              		.fpu fpv4-sp-d16
 2141              		.type	TIM_ClearOC4Ref, %function
 2142              	TIM_ClearOC4Ref:
 2143              	.LFB152:
 2144              		.loc 1 1569 0
 2145              		.cfi_startproc
 2146              		@ args = 0, pretend = 0, frame = 0
 2147              		@ frame_needed = 0, uses_anonymous_args = 0
 2148              		@ link register save eliminated.
 2149              	.LVL190:
 2150              		.loc 1 1576 0
 2151 0000 C369     		ldr	r3, [r0, #28]
 2152              	.LVL191:
 2153              		.loc 1 1579 0
 2154 0002 C3F30E03 		ubfx	r3, r3, #0, #15
 2155              	.LVL192:
 2156              		.loc 1 1582 0
 2157 0006 43EA0121 		orr	r1, r3, r1, lsl #8
 2158              	.LVL193:
 2159              		.loc 1 1585 0
 2160 000a 89B2     		uxth	r1, r1
 2161 000c C161     		str	r1, [r0, #28]
 2162 000e 7047     		bx	lr
 2163              		.cfi_endproc
 2164              	.LFE152:
 2165              		.size	TIM_ClearOC4Ref, .-TIM_ClearOC4Ref
 2166              		.section	.text.TIM_OC1PolarityConfig,"ax",%progbits
ARM GAS  C:\Users\Grillmo\AppData\Local\Temp\ccN7xt8j.s 			page 39


 2167              		.align	1
 2168              		.p2align 4,,15
 2169              		.global	TIM_OC1PolarityConfig
 2170              		.syntax unified
 2171              		.thumb
 2172              		.thumb_func
 2173              		.fpu fpv4-sp-d16
 2174              		.type	TIM_OC1PolarityConfig, %function
 2175              	TIM_OC1PolarityConfig:
 2176              	.LFB153:
 2177              		.loc 1 1598 0
 2178              		.cfi_startproc
 2179              		@ args = 0, pretend = 0, frame = 0
 2180              		@ frame_needed = 0, uses_anonymous_args = 0
 2181              		@ link register save eliminated.
 2182              	.LVL194:
 2183              		.loc 1 1605 0
 2184 0000 026A     		ldr	r2, [r0, #32]
 2185              	.LVL195:
 2186              		.loc 1 1608 0
 2187 0002 4FF6FD73 		movw	r3, #65533
 2188 0006 1340     		ands	r3, r3, r2
 2189              	.LVL196:
 2190              		.loc 1 1612 0
 2191 0008 1943     		orrs	r1, r1, r3
 2192              	.LVL197:
 2193 000a 0162     		str	r1, [r0, #32]
 2194 000c 7047     		bx	lr
 2195              		.cfi_endproc
 2196              	.LFE153:
 2197              		.size	TIM_OC1PolarityConfig, .-TIM_OC1PolarityConfig
 2198 000e 00BF     		.section	.text.TIM_OC1NPolarityConfig,"ax",%progbits
 2199              		.align	1
 2200              		.p2align 4,,15
 2201              		.global	TIM_OC1NPolarityConfig
 2202              		.syntax unified
 2203              		.thumb
 2204              		.thumb_func
 2205              		.fpu fpv4-sp-d16
 2206              		.type	TIM_OC1NPolarityConfig, %function
 2207              	TIM_OC1NPolarityConfig:
 2208              	.LFB154:
 2209              		.loc 1 1625 0
 2210              		.cfi_startproc
 2211              		@ args = 0, pretend = 0, frame = 0
 2212              		@ frame_needed = 0, uses_anonymous_args = 0
 2213              		@ link register save eliminated.
 2214              	.LVL198:
 2215              		.loc 1 1631 0
 2216 0000 026A     		ldr	r2, [r0, #32]
 2217              	.LVL199:
 2218              		.loc 1 1634 0
 2219 0002 4FF6F773 		movw	r3, #65527
 2220 0006 1340     		ands	r3, r3, r2
 2221              	.LVL200:
 2222              		.loc 1 1638 0
 2223 0008 1943     		orrs	r1, r1, r3
ARM GAS  C:\Users\Grillmo\AppData\Local\Temp\ccN7xt8j.s 			page 40


 2224              	.LVL201:
 2225 000a 0162     		str	r1, [r0, #32]
 2226 000c 7047     		bx	lr
 2227              		.cfi_endproc
 2228              	.LFE154:
 2229              		.size	TIM_OC1NPolarityConfig, .-TIM_OC1NPolarityConfig
 2230 000e 00BF     		.section	.text.TIM_OC2PolarityConfig,"ax",%progbits
 2231              		.align	1
 2232              		.p2align 4,,15
 2233              		.global	TIM_OC2PolarityConfig
 2234              		.syntax unified
 2235              		.thumb
 2236              		.thumb_func
 2237              		.fpu fpv4-sp-d16
 2238              		.type	TIM_OC2PolarityConfig, %function
 2239              	TIM_OC2PolarityConfig:
 2240              	.LFB155:
 2241              		.loc 1 1652 0
 2242              		.cfi_startproc
 2243              		@ args = 0, pretend = 0, frame = 0
 2244              		@ frame_needed = 0, uses_anonymous_args = 0
 2245              		@ link register save eliminated.
 2246              	.LVL202:
 2247              		.loc 1 1659 0
 2248 0000 026A     		ldr	r2, [r0, #32]
 2249              	.LVL203:
 2250              		.loc 1 1662 0
 2251 0002 4FF6DF73 		movw	r3, #65503
 2252 0006 1340     		ands	r3, r3, r2
 2253              	.LVL204:
 2254              		.loc 1 1663 0
 2255 0008 43EA0111 		orr	r1, r3, r1, lsl #4
 2256              	.LVL205:
 2257              		.loc 1 1666 0
 2258 000c 89B2     		uxth	r1, r1
 2259 000e 0162     		str	r1, [r0, #32]
 2260 0010 7047     		bx	lr
 2261              		.cfi_endproc
 2262              	.LFE155:
 2263              		.size	TIM_OC2PolarityConfig, .-TIM_OC2PolarityConfig
 2264 0012 00BF     		.section	.text.TIM_OC2NPolarityConfig,"ax",%progbits
 2265              		.align	1
 2266              		.p2align 4,,15
 2267              		.global	TIM_OC2NPolarityConfig
 2268              		.syntax unified
 2269              		.thumb
 2270              		.thumb_func
 2271              		.fpu fpv4-sp-d16
 2272              		.type	TIM_OC2NPolarityConfig, %function
 2273              	TIM_OC2NPolarityConfig:
 2274              	.LFB156:
 2275              		.loc 1 1679 0
 2276              		.cfi_startproc
 2277              		@ args = 0, pretend = 0, frame = 0
 2278              		@ frame_needed = 0, uses_anonymous_args = 0
 2279              		@ link register save eliminated.
 2280              	.LVL206:
ARM GAS  C:\Users\Grillmo\AppData\Local\Temp\ccN7xt8j.s 			page 41


 2281              		.loc 1 1686 0
 2282 0000 026A     		ldr	r2, [r0, #32]
 2283              	.LVL207:
 2284              		.loc 1 1689 0
 2285 0002 4FF67F73 		movw	r3, #65407
 2286 0006 1340     		ands	r3, r3, r2
 2287              	.LVL208:
 2288              		.loc 1 1690 0
 2289 0008 43EA0111 		orr	r1, r3, r1, lsl #4
 2290              	.LVL209:
 2291              		.loc 1 1693 0
 2292 000c 89B2     		uxth	r1, r1
 2293 000e 0162     		str	r1, [r0, #32]
 2294 0010 7047     		bx	lr
 2295              		.cfi_endproc
 2296              	.LFE156:
 2297              		.size	TIM_OC2NPolarityConfig, .-TIM_OC2NPolarityConfig
 2298 0012 00BF     		.section	.text.TIM_OC3PolarityConfig,"ax",%progbits
 2299              		.align	1
 2300              		.p2align 4,,15
 2301              		.global	TIM_OC3PolarityConfig
 2302              		.syntax unified
 2303              		.thumb
 2304              		.thumb_func
 2305              		.fpu fpv4-sp-d16
 2306              		.type	TIM_OC3PolarityConfig, %function
 2307              	TIM_OC3PolarityConfig:
 2308              	.LFB157:
 2309              		.loc 1 1706 0
 2310              		.cfi_startproc
 2311              		@ args = 0, pretend = 0, frame = 0
 2312              		@ frame_needed = 0, uses_anonymous_args = 0
 2313              		@ link register save eliminated.
 2314              	.LVL210:
 2315              		.loc 1 1713 0
 2316 0000 026A     		ldr	r2, [r0, #32]
 2317              	.LVL211:
 2318              		.loc 1 1716 0
 2319 0002 4FF6FF53 		movw	r3, #65023
 2320 0006 1340     		ands	r3, r3, r2
 2321              	.LVL212:
 2322              		.loc 1 1717 0
 2323 0008 43EA0121 		orr	r1, r3, r1, lsl #8
 2324              	.LVL213:
 2325              		.loc 1 1720 0
 2326 000c 89B2     		uxth	r1, r1
 2327 000e 0162     		str	r1, [r0, #32]
 2328 0010 7047     		bx	lr
 2329              		.cfi_endproc
 2330              	.LFE157:
 2331              		.size	TIM_OC3PolarityConfig, .-TIM_OC3PolarityConfig
 2332 0012 00BF     		.section	.text.TIM_OC3NPolarityConfig,"ax",%progbits
 2333              		.align	1
 2334              		.p2align 4,,15
 2335              		.global	TIM_OC3NPolarityConfig
 2336              		.syntax unified
 2337              		.thumb
ARM GAS  C:\Users\Grillmo\AppData\Local\Temp\ccN7xt8j.s 			page 42


 2338              		.thumb_func
 2339              		.fpu fpv4-sp-d16
 2340              		.type	TIM_OC3NPolarityConfig, %function
 2341              	TIM_OC3NPolarityConfig:
 2342              	.LFB158:
 2343              		.loc 1 1733 0
 2344              		.cfi_startproc
 2345              		@ args = 0, pretend = 0, frame = 0
 2346              		@ frame_needed = 0, uses_anonymous_args = 0
 2347              		@ link register save eliminated.
 2348              	.LVL214:
 2349              		.loc 1 1740 0
 2350 0000 026A     		ldr	r2, [r0, #32]
 2351              	.LVL215:
 2352              		.loc 1 1743 0
 2353 0002 4FF2FF73 		movw	r3, #63487
 2354 0006 1340     		ands	r3, r3, r2
 2355              	.LVL216:
 2356              		.loc 1 1744 0
 2357 0008 43EA0121 		orr	r1, r3, r1, lsl #8
 2358              	.LVL217:
 2359              		.loc 1 1747 0
 2360 000c 89B2     		uxth	r1, r1
 2361 000e 0162     		str	r1, [r0, #32]
 2362 0010 7047     		bx	lr
 2363              		.cfi_endproc
 2364              	.LFE158:
 2365              		.size	TIM_OC3NPolarityConfig, .-TIM_OC3NPolarityConfig
 2366 0012 00BF     		.section	.text.TIM_OC4PolarityConfig,"ax",%progbits
 2367              		.align	1
 2368              		.p2align 4,,15
 2369              		.global	TIM_OC4PolarityConfig
 2370              		.syntax unified
 2371              		.thumb
 2372              		.thumb_func
 2373              		.fpu fpv4-sp-d16
 2374              		.type	TIM_OC4PolarityConfig, %function
 2375              	TIM_OC4PolarityConfig:
 2376              	.LFB159:
 2377              		.loc 1 1760 0
 2378              		.cfi_startproc
 2379              		@ args = 0, pretend = 0, frame = 0
 2380              		@ frame_needed = 0, uses_anonymous_args = 0
 2381              		@ link register save eliminated.
 2382              	.LVL218:
 2383              		.loc 1 1767 0
 2384 0000 026A     		ldr	r2, [r0, #32]
 2385              	.LVL219:
 2386              		.loc 1 1770 0
 2387 0002 4DF6FF73 		movw	r3, #57343
 2388 0006 1340     		ands	r3, r3, r2
 2389              	.LVL220:
 2390              		.loc 1 1771 0
 2391 0008 43EA0131 		orr	r1, r3, r1, lsl #12
 2392              	.LVL221:
 2393              		.loc 1 1774 0
 2394 000c 89B2     		uxth	r1, r1
ARM GAS  C:\Users\Grillmo\AppData\Local\Temp\ccN7xt8j.s 			page 43


 2395 000e 0162     		str	r1, [r0, #32]
 2396 0010 7047     		bx	lr
 2397              		.cfi_endproc
 2398              	.LFE159:
 2399              		.size	TIM_OC4PolarityConfig, .-TIM_OC4PolarityConfig
 2400 0012 00BF     		.section	.text.TIM_CCxCmd,"ax",%progbits
 2401              		.align	1
 2402              		.p2align 4,,15
 2403              		.global	TIM_CCxCmd
 2404              		.syntax unified
 2405              		.thumb
 2406              		.thumb_func
 2407              		.fpu fpv4-sp-d16
 2408              		.type	TIM_CCxCmd, %function
 2409              	TIM_CCxCmd:
 2410              	.LFB160:
 2411              		.loc 1 1791 0
 2412              		.cfi_startproc
 2413              		@ args = 0, pretend = 0, frame = 0
 2414              		@ frame_needed = 0, uses_anonymous_args = 0
 2415              		@ link register save eliminated.
 2416              	.LVL222:
 2417              		.loc 1 1799 0
 2418 0000 0123     		movs	r3, #1
 2419 0002 8B40     		lsls	r3, r3, r1
 2420              		.loc 1 1791 0
 2421 0004 10B4     		push	{r4}
 2422              		.cfi_def_cfa_offset 4
 2423              		.cfi_offset 4, -4
 2424              		.loc 1 1802 0
 2425 0006 DB43     		mvns	r3, r3
 2426 0008 046A     		ldr	r4, [r0, #32]
 2427 000a 9BB2     		uxth	r3, r3
 2428 000c 2340     		ands	r3, r3, r4
 2429 000e 0362     		str	r3, [r0, #32]
 2430              		.loc 1 1805 0
 2431 0010 02FA01F1 		lsl	r1, r2, r1
 2432              	.LVL223:
 2433 0014 026A     		ldr	r2, [r0, #32]
 2434              	.LVL224:
 2435              		.loc 1 1806 0
 2436 0016 5DF8044B 		ldr	r4, [sp], #4
 2437              		.cfi_restore 4
 2438              		.cfi_def_cfa_offset 0
 2439              		.loc 1 1805 0
 2440 001a 89B2     		uxth	r1, r1
 2441 001c 1143     		orrs	r1, r1, r2
 2442 001e 0162     		str	r1, [r0, #32]
 2443              		.loc 1 1806 0
 2444 0020 7047     		bx	lr
 2445              		.cfi_endproc
 2446              	.LFE160:
 2447              		.size	TIM_CCxCmd, .-TIM_CCxCmd
 2448 0022 00BF     		.section	.text.TIM_CCxNCmd,"ax",%progbits
 2449              		.align	1
 2450              		.p2align 4,,15
 2451              		.global	TIM_CCxNCmd
ARM GAS  C:\Users\Grillmo\AppData\Local\Temp\ccN7xt8j.s 			page 44


 2452              		.syntax unified
 2453              		.thumb
 2454              		.thumb_func
 2455              		.fpu fpv4-sp-d16
 2456              		.type	TIM_CCxNCmd, %function
 2457              	TIM_CCxNCmd:
 2458              	.LFB161:
 2459              		.loc 1 1821 0
 2460              		.cfi_startproc
 2461              		@ args = 0, pretend = 0, frame = 0
 2462              		@ frame_needed = 0, uses_anonymous_args = 0
 2463              		@ link register save eliminated.
 2464              	.LVL225:
 2465              		.loc 1 1829 0
 2466 0000 0423     		movs	r3, #4
 2467 0002 8B40     		lsls	r3, r3, r1
 2468              		.loc 1 1821 0
 2469 0004 10B4     		push	{r4}
 2470              		.cfi_def_cfa_offset 4
 2471              		.cfi_offset 4, -4
 2472              		.loc 1 1832 0
 2473 0006 DB43     		mvns	r3, r3
 2474 0008 046A     		ldr	r4, [r0, #32]
 2475 000a 9BB2     		uxth	r3, r3
 2476 000c 2340     		ands	r3, r3, r4
 2477 000e 0362     		str	r3, [r0, #32]
 2478              		.loc 1 1835 0
 2479 0010 02FA01F1 		lsl	r1, r2, r1
 2480              	.LVL226:
 2481 0014 026A     		ldr	r2, [r0, #32]
 2482              	.LVL227:
 2483              		.loc 1 1836 0
 2484 0016 5DF8044B 		ldr	r4, [sp], #4
 2485              		.cfi_restore 4
 2486              		.cfi_def_cfa_offset 0
 2487              		.loc 1 1835 0
 2488 001a 89B2     		uxth	r1, r1
 2489 001c 1143     		orrs	r1, r1, r2
 2490 001e 0162     		str	r1, [r0, #32]
 2491              		.loc 1 1836 0
 2492 0020 7047     		bx	lr
 2493              		.cfi_endproc
 2494              	.LFE161:
 2495              		.size	TIM_CCxNCmd, .-TIM_CCxNCmd
 2496 0022 00BF     		.section	.text.TIM_ICInit,"ax",%progbits
 2497              		.align	1
 2498              		.p2align 4,,15
 2499              		.global	TIM_ICInit
 2500              		.syntax unified
 2501              		.thumb
 2502              		.thumb_func
 2503              		.fpu fpv4-sp-d16
 2504              		.type	TIM_ICInit, %function
 2505              	TIM_ICInit:
 2506              	.LFB162:
 2507              		.loc 1 1905 0
 2508              		.cfi_startproc
ARM GAS  C:\Users\Grillmo\AppData\Local\Temp\ccN7xt8j.s 			page 45


 2509              		@ args = 0, pretend = 0, frame = 0
 2510              		@ frame_needed = 0, uses_anonymous_args = 0
 2511              		@ link register save eliminated.
 2512              	.LVL228:
 2513              		.loc 1 1913 0
 2514 0000 0B88     		ldrh	r3, [r1]
 2515              		.loc 1 1905 0
 2516 0002 F0B4     		push	{r4, r5, r6, r7}
 2517              		.cfi_def_cfa_offset 16
 2518              		.cfi_offset 4, -16
 2519              		.cfi_offset 5, -12
 2520              		.cfi_offset 6, -8
 2521              		.cfi_offset 7, -4
 2522              		.loc 1 1913 0
 2523 0004 002B     		cmp	r3, #0
 2524 0006 2CD0     		beq	.L144
 2525              		.loc 1 1922 0
 2526 0008 042B     		cmp	r3, #4
 2527 000a 4ED0     		beq	.L145
 2528              		.loc 1 1932 0
 2529 000c 082B     		cmp	r3, #8
 2530 000e 76D0     		beq	.L146
 2531              	.LBB46:
 2532              	.LBB47:
 2533              		.loc 1 3338 0
 2534 0010 046A     		ldr	r4, [r0, #32]
 2535              	.LBE47:
 2536              	.LBE46:
 2537              		.loc 1 1946 0
 2538 0012 4E88     		ldrh	r6, [r1, #2]
 2539 0014 8F88     		ldrh	r7, [r1, #4]
 2540 0016 0D89     		ldrh	r5, [r1, #8]
 2541              	.LVL229:
 2542              		.loc 1 1950 0
 2543 0018 C988     		ldrh	r1, [r1, #6]
 2544              	.LVL230:
 2545              	.LBB49:
 2546              	.LBB48:
 2547              		.loc 1 3338 0
 2548 001a 4EF6FF73 		movw	r3, #61439
 2549 001e 1C40     		ands	r4, r4, r3
 2550 0020 0462     		str	r4, [r0, #32]
 2551              		.loc 1 3339 0
 2552 0022 C269     		ldr	r2, [r0, #28]
 2553              	.LVL231:
 2554              		.loc 1 3340 0
 2555 0024 036A     		ldr	r3, [r0, #32]
 2556              	.LVL232:
 2557              		.loc 1 3344 0
 2558 0026 40F6FF44 		movw	r4, #3327
 2559 002a 2240     		ands	r2, r2, r4
 2560              	.LVL233:
 2561              		.loc 1 3349 0
 2562 002c 45F6FF74 		movw	r4, #24575
 2563 0030 2340     		ands	r3, r3, r4
 2564              	.LVL234:
 2565              		.loc 1 3345 0
ARM GAS  C:\Users\Grillmo\AppData\Local\Temp\ccN7xt8j.s 			page 46


 2566 0032 42EA0722 		orr	r2, r2, r7, lsl #8
 2567              	.LVL235:
 2568              		.loc 1 3350 0
 2569 0036 43EA0633 		orr	r3, r3, r6, lsl #12
 2570              		.loc 1 3346 0
 2571 003a 42EA0532 		orr	r2, r2, r5, lsl #12
 2572              	.LVL236:
 2573              		.loc 1 3350 0
 2574 003e 9BB2     		uxth	r3, r3
 2575              	.LVL237:
 2576              		.loc 1 3353 0
 2577 0040 92B2     		uxth	r2, r2
 2578              		.loc 1 3354 0
 2579 0042 43F48053 		orr	r3, r3, #4096
 2580              	.LVL238:
 2581              		.loc 1 3353 0
 2582 0046 C261     		str	r2, [r0, #28]
 2583              		.loc 1 3354 0
 2584 0048 0362     		str	r3, [r0, #32]
 2585              	.LVL239:
 2586              	.LBE48:
 2587              	.LBE49:
 2588              	.LBB50:
 2589              	.LBB51:
 2590              		.loc 1 2179 0
 2591 004a C369     		ldr	r3, [r0, #28]
 2592 004c 4FF2FF32 		movw	r2, #62463
 2593 0050 1340     		ands	r3, r3, r2
 2594 0052 C361     		str	r3, [r0, #28]
 2595              		.loc 1 2182 0
 2596 0054 C269     		ldr	r2, [r0, #28]
 2597 0056 0B02     		lsls	r3, r1, #8
 2598 0058 9BB2     		uxth	r3, r3
 2599 005a 1343     		orrs	r3, r3, r2
 2600 005c C361     		str	r3, [r0, #28]
 2601              	.LVL240:
 2602              	.L138:
 2603              	.LBE51:
 2604              	.LBE50:
 2605              		.loc 1 1952 0
 2606 005e F0BC     		pop	{r4, r5, r6, r7}
 2607              		.cfi_remember_state
 2608              		.cfi_restore 7
 2609              		.cfi_restore 6
 2610              		.cfi_restore 5
 2611              		.cfi_restore 4
 2612              		.cfi_def_cfa_offset 0
 2613 0060 7047     		bx	lr
 2614              	.LVL241:
 2615              	.L144:
 2616              		.cfi_restore_state
 2617              	.LBB52:
 2618              	.LBB53:
 2619              		.loc 1 3214 0
 2620 0062 026A     		ldr	r2, [r0, #32]
 2621              	.LBE53:
 2622              	.LBE52:
ARM GAS  C:\Users\Grillmo\AppData\Local\Temp\ccN7xt8j.s 			page 47


 2623              		.loc 1 1916 0
 2624 0064 8C88     		ldrh	r4, [r1, #4]
 2625 0066 0F89     		ldrh	r7, [r1, #8]
 2626              	.LVL242:
 2627 0068 4D88     		ldrh	r5, [r1, #2]
 2628              	.LVL243:
 2629              		.loc 1 1920 0
 2630 006a C988     		ldrh	r1, [r1, #6]
 2631              	.LVL244:
 2632              	.LBB55:
 2633              	.LBB54:
 2634              		.loc 1 3214 0
 2635 006c 4FF6FE73 		movw	r3, #65534
 2636 0070 1A40     		ands	r2, r2, r3
 2637 0072 0262     		str	r2, [r0, #32]
 2638              		.loc 1 3215 0
 2639 0074 8369     		ldr	r3, [r0, #24]
 2640              		.loc 1 3216 0
 2641 0076 066A     		ldr	r6, [r0, #32]
 2642              		.loc 1 3215 0
 2643 0078 9BB2     		uxth	r3, r3
 2644              	.LVL245:
 2645              		.loc 1 3219 0
 2646 007a 23F0F303 		bic	r3, r3, #243
 2647              	.LVL246:
 2648 007e 43EA0713 		orr	r3, r3, r7, lsl #4
 2649              		.loc 1 3223 0
 2650 0082 4FF6F572 		movw	r2, #65525
 2651              		.loc 1 3224 0
 2652 0086 45F00105 		orr	r5, r5, #1
 2653              	.LVL247:
 2654              		.loc 1 3223 0
 2655 008a 3240     		ands	r2, r2, r6
 2656 008c 9BB2     		uxth	r3, r3
 2657              	.LVL248:
 2658              		.loc 1 3227 0
 2659 008e 2343     		orrs	r3, r3, r4
 2660              	.LVL249:
 2661              		.loc 1 3228 0
 2662 0090 2A43     		orrs	r2, r2, r5
 2663              	.LVL250:
 2664              		.loc 1 3227 0
 2665 0092 8361     		str	r3, [r0, #24]
 2666              		.loc 1 3228 0
 2667 0094 0262     		str	r2, [r0, #32]
 2668              	.LVL251:
 2669              	.LBE54:
 2670              	.LBE55:
 2671              	.LBB56:
 2672              	.LBB57:
 2673              		.loc 1 2106 0
 2674 0096 8369     		ldr	r3, [r0, #24]
 2675 0098 4FF6F372 		movw	r2, #65523
 2676 009c 1340     		ands	r3, r3, r2
 2677 009e 8361     		str	r3, [r0, #24]
 2678              		.loc 1 2109 0
 2679 00a0 8369     		ldr	r3, [r0, #24]
ARM GAS  C:\Users\Grillmo\AppData\Local\Temp\ccN7xt8j.s 			page 48


 2680 00a2 0B43     		orrs	r3, r3, r1
 2681 00a4 8361     		str	r3, [r0, #24]
 2682              	.LBE57:
 2683              	.LBE56:
 2684              		.loc 1 1952 0
 2685 00a6 F0BC     		pop	{r4, r5, r6, r7}
 2686              		.cfi_remember_state
 2687              		.cfi_restore 4
 2688              		.cfi_restore 5
 2689              		.cfi_restore 6
 2690              		.cfi_restore 7
 2691              		.cfi_def_cfa_offset 0
 2692 00a8 7047     		bx	lr
 2693              	.LVL252:
 2694              	.L145:
 2695              		.cfi_restore_state
 2696              	.LBB58:
 2697              	.LBB59:
 2698              		.loc 1 3255 0
 2699 00aa 046A     		ldr	r4, [r0, #32]
 2700              	.LBE59:
 2701              	.LBE58:
 2702              		.loc 1 1926 0
 2703 00ac 4E88     		ldrh	r6, [r1, #2]
 2704 00ae 8D88     		ldrh	r5, [r1, #4]
 2705 00b0 0F89     		ldrh	r7, [r1, #8]
 2706              	.LVL253:
 2707              		.loc 1 1930 0
 2708 00b2 C988     		ldrh	r1, [r1, #6]
 2709              	.LVL254:
 2710              	.LBB61:
 2711              	.LBB60:
 2712              		.loc 1 3255 0
 2713 00b4 4FF6EF73 		movw	r3, #65519
 2714 00b8 1C40     		ands	r4, r4, r3
 2715 00ba 0462     		str	r4, [r0, #32]
 2716              		.loc 1 3256 0
 2717 00bc 8269     		ldr	r2, [r0, #24]
 2718              	.LVL255:
 2719              		.loc 1 3257 0
 2720 00be 036A     		ldr	r3, [r0, #32]
 2721              		.loc 1 3261 0
 2722 00c0 40F6FF44 		movw	r4, #3327
 2723 00c4 2240     		ands	r2, r2, r4
 2724              	.LVL256:
 2725              		.loc 1 3257 0
 2726 00c6 9BB2     		uxth	r3, r3
 2727              	.LVL257:
 2728              		.loc 1 3262 0
 2729 00c8 42EA0732 		orr	r2, r2, r7, lsl #12
 2730              	.LVL258:
 2731              		.loc 1 3266 0
 2732 00cc 23F0A003 		bic	r3, r3, #160
 2733              	.LVL259:
 2734              		.loc 1 3267 0
 2735 00d0 43EA0613 		orr	r3, r3, r6, lsl #4
 2736              		.loc 1 3262 0
ARM GAS  C:\Users\Grillmo\AppData\Local\Temp\ccN7xt8j.s 			page 49


 2737 00d4 92B2     		uxth	r2, r2
 2738              	.LVL260:
 2739              		.loc 1 3263 0
 2740 00d6 42EA0522 		orr	r2, r2, r5, lsl #8
 2741              	.LVL261:
 2742              		.loc 1 3267 0
 2743 00da 9BB2     		uxth	r3, r3
 2744              	.LVL262:
 2745              		.loc 1 3270 0
 2746 00dc 92B2     		uxth	r2, r2
 2747              		.loc 1 3271 0
 2748 00de 43F01003 		orr	r3, r3, #16
 2749              	.LVL263:
 2750              		.loc 1 3270 0
 2751 00e2 8261     		str	r2, [r0, #24]
 2752              		.loc 1 3271 0
 2753 00e4 0362     		str	r3, [r0, #32]
 2754              	.LVL264:
 2755              	.LBE60:
 2756              	.LBE61:
 2757              	.LBB62:
 2758              	.LBB63:
 2759              		.loc 1 2131 0
 2760 00e6 8369     		ldr	r3, [r0, #24]
 2761 00e8 4FF2FF32 		movw	r2, #62463
 2762 00ec 1340     		ands	r3, r3, r2
 2763 00ee 8361     		str	r3, [r0, #24]
 2764              		.loc 1 2134 0
 2765 00f0 8269     		ldr	r2, [r0, #24]
 2766 00f2 0B02     		lsls	r3, r1, #8
 2767 00f4 9BB2     		uxth	r3, r3
 2768 00f6 1343     		orrs	r3, r3, r2
 2769 00f8 8361     		str	r3, [r0, #24]
 2770              	.LBE63:
 2771              	.LBE62:
 2772              		.loc 1 1952 0
 2773 00fa F0BC     		pop	{r4, r5, r6, r7}
 2774              		.cfi_remember_state
 2775              		.cfi_restore 4
 2776              		.cfi_restore 5
 2777              		.cfi_restore 6
 2778              		.cfi_restore 7
 2779              		.cfi_def_cfa_offset 0
 2780 00fc 7047     		bx	lr
 2781              	.LVL265:
 2782              	.L146:
 2783              		.cfi_restore_state
 2784              	.LBB64:
 2785              	.LBB65:
 2786              		.loc 1 3297 0
 2787 00fe 056A     		ldr	r5, [r0, #32]
 2788              	.LBE65:
 2789              	.LBE64:
 2790              		.loc 1 1936 0
 2791 0100 4E88     		ldrh	r6, [r1, #2]
 2792 0102 8C88     		ldrh	r4, [r1, #4]
 2793 0104 0F89     		ldrh	r7, [r1, #8]
ARM GAS  C:\Users\Grillmo\AppData\Local\Temp\ccN7xt8j.s 			page 50


 2794              	.LVL266:
 2795              		.loc 1 1940 0
 2796 0106 C988     		ldrh	r1, [r1, #6]
 2797              	.LVL267:
 2798              	.LBB67:
 2799              	.LBB66:
 2800              		.loc 1 3297 0
 2801 0108 4FF6FF63 		movw	r3, #65279
 2802 010c 1D40     		ands	r5, r5, r3
 2803 010e 0562     		str	r5, [r0, #32]
 2804              		.loc 1 3298 0
 2805 0110 C269     		ldr	r2, [r0, #28]
 2806              		.loc 1 3299 0
 2807 0112 036A     		ldr	r3, [r0, #32]
 2808              		.loc 1 3298 0
 2809 0114 92B2     		uxth	r2, r2
 2810              	.LVL268:
 2811              		.loc 1 3299 0
 2812 0116 9BB2     		uxth	r3, r3
 2813              	.LVL269:
 2814              		.loc 1 3303 0
 2815 0118 22F0F302 		bic	r2, r2, #243
 2816              	.LVL270:
 2817              		.loc 1 3307 0
 2818 011c 23F42063 		bic	r3, r3, #2560
 2819              	.LVL271:
 2820 0120 42EA0712 		orr	r2, r2, r7, lsl #4
 2821              		.loc 1 3308 0
 2822 0124 43EA0623 		orr	r3, r3, r6, lsl #8
 2823 0128 92B2     		uxth	r2, r2
 2824              	.LVL272:
 2825 012a 9BB2     		uxth	r3, r3
 2826              	.LVL273:
 2827              		.loc 1 3311 0
 2828 012c 2243     		orrs	r2, r2, r4
 2829              	.LVL274:
 2830              		.loc 1 3312 0
 2831 012e 43F48073 		orr	r3, r3, #256
 2832              	.LVL275:
 2833              		.loc 1 3311 0
 2834 0132 C261     		str	r2, [r0, #28]
 2835              		.loc 1 3312 0
 2836 0134 0362     		str	r3, [r0, #32]
 2837              	.LVL276:
 2838              	.LBE66:
 2839              	.LBE67:
 2840              	.LBB68:
 2841              	.LBB69:
 2842              		.loc 1 2155 0
 2843 0136 C369     		ldr	r3, [r0, #28]
 2844 0138 4FF6F372 		movw	r2, #65523
 2845 013c 1340     		ands	r3, r3, r2
 2846 013e C361     		str	r3, [r0, #28]
 2847              		.loc 1 2158 0
 2848 0140 C369     		ldr	r3, [r0, #28]
 2849 0142 0B43     		orrs	r3, r3, r1
 2850 0144 C361     		str	r3, [r0, #28]
ARM GAS  C:\Users\Grillmo\AppData\Local\Temp\ccN7xt8j.s 			page 51


 2851 0146 8AE7     		b	.L138
 2852              	.LBE69:
 2853              	.LBE68:
 2854              		.cfi_endproc
 2855              	.LFE162:
 2856              		.size	TIM_ICInit, .-TIM_ICInit
 2857              		.section	.text.TIM_ICStructInit,"ax",%progbits
 2858              		.align	1
 2859              		.p2align 4,,15
 2860              		.global	TIM_ICStructInit
 2861              		.syntax unified
 2862              		.thumb
 2863              		.thumb_func
 2864              		.fpu fpv4-sp-d16
 2865              		.type	TIM_ICStructInit, %function
 2866              	TIM_ICStructInit:
 2867              	.LFB163:
 2868              		.loc 1 1961 0
 2869              		.cfi_startproc
 2870              		@ args = 0, pretend = 0, frame = 0
 2871              		@ frame_needed = 0, uses_anonymous_args = 0
 2872              		@ link register save eliminated.
 2873              	.LVL277:
 2874              		.loc 1 1963 0
 2875 0000 0023     		movs	r3, #0
 2876              		.loc 1 1965 0
 2877 0002 0122     		movs	r2, #1
 2878 0004 8280     		strh	r2, [r0, #4]	@ movhi
 2879              		.loc 1 1963 0
 2880 0006 0380     		strh	r3, [r0]	@ movhi
 2881              		.loc 1 1964 0
 2882 0008 4380     		strh	r3, [r0, #2]	@ movhi
 2883              		.loc 1 1966 0
 2884 000a C380     		strh	r3, [r0, #6]	@ movhi
 2885              		.loc 1 1967 0
 2886 000c 0381     		strh	r3, [r0, #8]	@ movhi
 2887 000e 7047     		bx	lr
 2888              		.cfi_endproc
 2889              	.LFE163:
 2890              		.size	TIM_ICStructInit, .-TIM_ICStructInit
 2891              		.section	.text.TIM_PWMIConfig,"ax",%progbits
 2892              		.align	1
 2893              		.p2align 4,,15
 2894              		.global	TIM_PWMIConfig
 2895              		.syntax unified
 2896              		.thumb
 2897              		.thumb_func
 2898              		.fpu fpv4-sp-d16
 2899              		.type	TIM_PWMIConfig, %function
 2900              	TIM_PWMIConfig:
 2901              	.LFB164:
 2902              		.loc 1 1980 0
 2903              		.cfi_startproc
 2904              		@ args = 0, pretend = 0, frame = 0
 2905              		@ frame_needed = 0, uses_anonymous_args = 0
 2906              	.LVL278:
 2907 0000 F0B5     		push	{r4, r5, r6, r7, lr}
ARM GAS  C:\Users\Grillmo\AppData\Local\Temp\ccN7xt8j.s 			page 52


 2908              		.cfi_def_cfa_offset 20
 2909              		.cfi_offset 4, -20
 2910              		.cfi_offset 5, -16
 2911              		.cfi_offset 6, -12
 2912              		.cfi_offset 7, -8
 2913              		.cfi_offset 14, -4
 2914              		.loc 1 1988 0
 2915 0002 B1F802E0 		ldrh	lr, [r1, #2]
 2916              		.loc 1 1997 0
 2917 0006 8F88     		ldrh	r7, [r1, #4]
 2918              		.loc 1 2005 0
 2919 0008 0B88     		ldrh	r3, [r1]
 2920              		.loc 1 1988 0
 2921 000a BEF1000F 		cmp	lr, #0
 2922              		.loc 1 1994 0
 2923 000e 0CBF     		ite	eq
 2924 0010 0224     		moveq	r4, #2
 2925 0012 0024     		movne	r4, #0
 2926              	.LVL279:
 2927              		.loc 1 1997 0
 2928 0014 012F     		cmp	r7, #1
 2929              		.loc 1 2003 0
 2930 0016 0CBF     		ite	eq
 2931 0018 0225     		moveq	r5, #2
 2932 001a 0125     		movne	r5, #1
 2933              	.LVL280:
 2934              		.loc 1 2005 0
 2935 001c 002B     		cmp	r3, #0
 2936 001e 45D0     		beq	.L156
 2937              	.LBB70:
 2938              	.LBB71:
 2939              		.loc 1 3255 0
 2940 0020 036A     		ldr	r3, [r0, #32]
 2941              	.LBE71:
 2942              	.LBE70:
 2943              		.loc 1 2020 0
 2944 0022 0E89     		ldrh	r6, [r1, #8]
 2945              	.LVL281:
 2946              		.loc 1 2023 0
 2947 0024 C988     		ldrh	r1, [r1, #6]
 2948              	.LVL282:
 2949              	.LBB73:
 2950              	.LBB72:
 2951              		.loc 1 3255 0
 2952 0026 4FF6EF72 		movw	r2, #65519
 2953 002a 1340     		ands	r3, r3, r2
 2954 002c 0362     		str	r3, [r0, #32]
 2955              		.loc 1 3256 0
 2956 002e 8269     		ldr	r2, [r0, #24]
 2957              	.LVL283:
 2958              		.loc 1 3257 0
 2959 0030 036A     		ldr	r3, [r0, #32]
 2960              		.loc 1 3261 0
 2961 0032 40F6FF4C 		movw	ip, #3327
 2962 0036 02EA0C02 		and	r2, r2, ip
 2963              	.LVL284:
 2964              		.loc 1 3257 0
ARM GAS  C:\Users\Grillmo\AppData\Local\Temp\ccN7xt8j.s 			page 53


 2965 003a 9BB2     		uxth	r3, r3
 2966              	.LVL285:
 2967              		.loc 1 3262 0
 2968 003c 42EA0632 		orr	r2, r2, r6, lsl #12
 2969              	.LVL286:
 2970              		.loc 1 3266 0
 2971 0040 23F0A003 		bic	r3, r3, #160
 2972              	.LVL287:
 2973              		.loc 1 3262 0
 2974 0044 92B2     		uxth	r2, r2
 2975              	.LVL288:
 2976              		.loc 1 3267 0
 2977 0046 43EA0E13 		orr	r3, r3, lr, lsl #4
 2978              		.loc 1 3263 0
 2979 004a 42EA0722 		orr	r2, r2, r7, lsl #8
 2980              	.LVL289:
 2981              		.loc 1 3267 0
 2982 004e 9BB2     		uxth	r3, r3
 2983              	.LVL290:
 2984              		.loc 1 3270 0
 2985 0050 92B2     		uxth	r2, r2
 2986              		.loc 1 3271 0
 2987 0052 43F01003 		orr	r3, r3, #16
 2988              	.LVL291:
 2989              		.loc 1 3270 0
 2990 0056 8261     		str	r2, [r0, #24]
 2991              		.loc 1 3271 0
 2992 0058 0362     		str	r3, [r0, #32]
 2993              	.LVL292:
 2994              	.LBE72:
 2995              	.LBE73:
 2996              	.LBB74:
 2997              	.LBB75:
 2998              		.loc 1 2131 0
 2999 005a 8369     		ldr	r3, [r0, #24]
 3000 005c 4FF2FF32 		movw	r2, #62463
 3001 0060 1340     		ands	r3, r3, r2
 3002 0062 8361     		str	r3, [r0, #24]
 3003              		.loc 1 2134 0
 3004 0064 8269     		ldr	r2, [r0, #24]
 3005 0066 0B02     		lsls	r3, r1, #8
 3006 0068 9BB2     		uxth	r3, r3
 3007 006a 1343     		orrs	r3, r3, r2
 3008 006c 8361     		str	r3, [r0, #24]
 3009              	.LVL293:
 3010              	.LBE75:
 3011              	.LBE74:
 3012              	.LBB76:
 3013              	.LBB77:
 3014              		.loc 1 3214 0
 3015 006e 036A     		ldr	r3, [r0, #32]
 3016 0070 4FF6FE72 		movw	r2, #65534
 3017 0074 1340     		ands	r3, r3, r2
 3018 0076 0362     		str	r3, [r0, #32]
 3019              		.loc 1 3215 0
 3020 0078 8369     		ldr	r3, [r0, #24]
 3021              		.loc 1 3216 0
ARM GAS  C:\Users\Grillmo\AppData\Local\Temp\ccN7xt8j.s 			page 54


 3022 007a 026A     		ldr	r2, [r0, #32]
 3023              		.loc 1 3215 0
 3024 007c 9BB2     		uxth	r3, r3
 3025              	.LVL294:
 3026              		.loc 1 3219 0
 3027 007e 23F0F303 		bic	r3, r3, #243
 3028              	.LVL295:
 3029              		.loc 1 3216 0
 3030 0082 92B2     		uxth	r2, r2
 3031              	.LVL296:
 3032 0084 43EA0616 		orr	r6, r3, r6, lsl #4
 3033              	.LVL297:
 3034              		.loc 1 3223 0
 3035 0088 22F00A03 		bic	r3, r2, #10
 3036 008c 43F00103 		orr	r3, r3, #1
 3037 0090 B6B2     		uxth	r6, r6
 3038              	.LVL298:
 3039              		.loc 1 3228 0
 3040 0092 1C43     		orrs	r4, r4, r3
 3041              	.LVL299:
 3042              		.loc 1 3227 0
 3043 0094 2E43     		orrs	r6, r6, r5
 3044              	.LVL300:
 3045 0096 8661     		str	r6, [r0, #24]
 3046              		.loc 1 3228 0
 3047 0098 0462     		str	r4, [r0, #32]
 3048              	.LVL301:
 3049              	.LBE77:
 3050              	.LBE76:
 3051              	.LBB78:
 3052              	.LBB79:
 3053              		.loc 1 2106 0
 3054 009a 8369     		ldr	r3, [r0, #24]
 3055 009c 4FF6F372 		movw	r2, #65523
 3056 00a0 1340     		ands	r3, r3, r2
 3057 00a2 8361     		str	r3, [r0, #24]
 3058              		.loc 1 2109 0
 3059 00a4 8369     		ldr	r3, [r0, #24]
 3060 00a6 1943     		orrs	r1, r1, r3
 3061              	.LVL302:
 3062 00a8 8161     		str	r1, [r0, #24]
 3063 00aa F0BD     		pop	{r4, r5, r6, r7, pc}
 3064              	.LVL303:
 3065              	.L156:
 3066              	.LBE79:
 3067              	.LBE78:
 3068              	.LBB80:
 3069              	.LBB81:
 3070              		.loc 1 3214 0
 3071 00ac 036A     		ldr	r3, [r0, #32]
 3072              	.LBE81:
 3073              	.LBE80:
 3074              		.loc 1 2008 0
 3075 00ae 0E89     		ldrh	r6, [r1, #8]
 3076              	.LVL304:
 3077              		.loc 1 2011 0
 3078 00b0 C988     		ldrh	r1, [r1, #6]
ARM GAS  C:\Users\Grillmo\AppData\Local\Temp\ccN7xt8j.s 			page 55


 3079              	.LVL305:
 3080              	.LBB83:
 3081              	.LBB82:
 3082              		.loc 1 3214 0
 3083 00b2 4FF6FE72 		movw	r2, #65534
 3084 00b6 1340     		ands	r3, r3, r2
 3085 00b8 0362     		str	r3, [r0, #32]
 3086              		.loc 1 3215 0
 3087 00ba 8269     		ldr	r2, [r0, #24]
 3088              		.loc 1 3216 0
 3089 00bc 036A     		ldr	r3, [r0, #32]
 3090              		.loc 1 3215 0
 3091 00be 92B2     		uxth	r2, r2
 3092              	.LVL306:
 3093              		.loc 1 3219 0
 3094 00c0 22F0F302 		bic	r2, r2, #243
 3095              	.LVL307:
 3096 00c4 42EA0612 		orr	r2, r2, r6, lsl #4
 3097 00c8 92B2     		uxth	r2, r2
 3098              	.LVL308:
 3099              		.loc 1 3227 0
 3100 00ca 3A43     		orrs	r2, r2, r7
 3101              	.LVL309:
 3102              		.loc 1 3223 0
 3103 00cc 4FF6F577 		movw	r7, #65525
 3104              	.LVL310:
 3105 00d0 1F40     		ands	r7, r7, r3
 3106              	.LVL311:
 3107              		.loc 1 3224 0
 3108 00d2 4EF0010E 		orr	lr, lr, #1
 3109              	.LVL312:
 3110              		.loc 1 3228 0
 3111 00d6 47EA0E07 		orr	r7, r7, lr
 3112              	.LVL313:
 3113              		.loc 1 3227 0
 3114 00da 8261     		str	r2, [r0, #24]
 3115              		.loc 1 3228 0
 3116 00dc 0762     		str	r7, [r0, #32]
 3117              	.LVL314:
 3118              	.LBE82:
 3119              	.LBE83:
 3120              	.LBB84:
 3121              	.LBB85:
 3122              		.loc 1 2106 0
 3123 00de 8369     		ldr	r3, [r0, #24]
 3124 00e0 4FF6F372 		movw	r2, #65523
 3125 00e4 1340     		ands	r3, r3, r2
 3126 00e6 8361     		str	r3, [r0, #24]
 3127              		.loc 1 2109 0
 3128 00e8 8369     		ldr	r3, [r0, #24]
 3129 00ea 0B43     		orrs	r3, r3, r1
 3130 00ec 8361     		str	r3, [r0, #24]
 3131              	.LVL315:
 3132              	.LBE85:
 3133              	.LBE84:
 3134              	.LBB86:
 3135              	.LBB87:
ARM GAS  C:\Users\Grillmo\AppData\Local\Temp\ccN7xt8j.s 			page 56


 3136              		.loc 1 3255 0
 3137 00ee 036A     		ldr	r3, [r0, #32]
 3138 00f0 4FF6EF72 		movw	r2, #65519
 3139 00f4 1340     		ands	r3, r3, r2
 3140 00f6 0362     		str	r3, [r0, #32]
 3141              		.loc 1 3256 0
 3142 00f8 8269     		ldr	r2, [r0, #24]
 3143              	.LVL316:
 3144              		.loc 1 3257 0
 3145 00fa 036A     		ldr	r3, [r0, #32]
 3146              		.loc 1 3261 0
 3147 00fc 40F6FF47 		movw	r7, #3327
 3148 0100 3A40     		ands	r2, r2, r7
 3149              	.LVL317:
 3150              		.loc 1 3257 0
 3151 0102 9BB2     		uxth	r3, r3
 3152              	.LVL318:
 3153              		.loc 1 3262 0
 3154 0104 42EA0636 		orr	r6, r2, r6, lsl #12
 3155              	.LVL319:
 3156              		.loc 1 3266 0
 3157 0108 23F0A003 		bic	r3, r3, #160
 3158              	.LVL320:
 3159 010c 43F01003 		orr	r3, r3, #16
 3160              		.loc 1 3262 0
 3161 0110 B6B2     		uxth	r6, r6
 3162              	.LVL321:
 3163              		.loc 1 3271 0
 3164 0112 43EA0414 		orr	r4, r3, r4, lsl #4
 3165              	.LVL322:
 3166              		.loc 1 3270 0
 3167 0116 46EA0525 		orr	r5, r6, r5, lsl #8
 3168              	.LVL323:
 3169 011a 8561     		str	r5, [r0, #24]
 3170              		.loc 1 3271 0
 3171 011c 0462     		str	r4, [r0, #32]
 3172              	.LVL324:
 3173              	.LBE87:
 3174              	.LBE86:
 3175              	.LBB88:
 3176              	.LBB89:
 3177              		.loc 1 2131 0
 3178 011e 8369     		ldr	r3, [r0, #24]
 3179 0120 4FF2FF32 		movw	r2, #62463
 3180 0124 1340     		ands	r3, r3, r2
 3181 0126 8361     		str	r3, [r0, #24]
 3182              		.loc 1 2134 0
 3183 0128 8369     		ldr	r3, [r0, #24]
 3184 012a 0902     		lsls	r1, r1, #8
 3185              	.LVL325:
 3186 012c 89B2     		uxth	r1, r1
 3187 012e 1943     		orrs	r1, r1, r3
 3188 0130 8161     		str	r1, [r0, #24]
 3189 0132 F0BD     		pop	{r4, r5, r6, r7, pc}
 3190              	.LBE89:
 3191              	.LBE88:
 3192              		.cfi_endproc
ARM GAS  C:\Users\Grillmo\AppData\Local\Temp\ccN7xt8j.s 			page 57


 3193              	.LFE164:
 3194              		.size	TIM_PWMIConfig, .-TIM_PWMIConfig
 3195              		.section	.text.TIM_GetCapture1,"ax",%progbits
 3196              		.align	1
 3197              		.p2align 4,,15
 3198              		.global	TIM_GetCapture1
 3199              		.syntax unified
 3200              		.thumb
 3201              		.thumb_func
 3202              		.fpu fpv4-sp-d16
 3203              		.type	TIM_GetCapture1, %function
 3204              	TIM_GetCapture1:
 3205              	.LFB165:
 3206              		.loc 1 2037 0
 3207              		.cfi_startproc
 3208              		@ args = 0, pretend = 0, frame = 0
 3209              		@ frame_needed = 0, uses_anonymous_args = 0
 3210              		@ link register save eliminated.
 3211              	.LVL326:
 3212              		.loc 1 2042 0
 3213 0000 406B     		ldr	r0, [r0, #52]
 3214              	.LVL327:
 3215              		.loc 1 2043 0
 3216 0002 7047     		bx	lr
 3217              		.cfi_endproc
 3218              	.LFE165:
 3219              		.size	TIM_GetCapture1, .-TIM_GetCapture1
 3220              		.section	.text.TIM_GetCapture2,"ax",%progbits
 3221              		.align	1
 3222              		.p2align 4,,15
 3223              		.global	TIM_GetCapture2
 3224              		.syntax unified
 3225              		.thumb
 3226              		.thumb_func
 3227              		.fpu fpv4-sp-d16
 3228              		.type	TIM_GetCapture2, %function
 3229              	TIM_GetCapture2:
 3230              	.LFB166:
 3231              		.loc 1 2052 0
 3232              		.cfi_startproc
 3233              		@ args = 0, pretend = 0, frame = 0
 3234              		@ frame_needed = 0, uses_anonymous_args = 0
 3235              		@ link register save eliminated.
 3236              	.LVL328:
 3237              		.loc 1 2057 0
 3238 0000 806B     		ldr	r0, [r0, #56]
 3239              	.LVL329:
 3240              		.loc 1 2058 0
 3241 0002 7047     		bx	lr
 3242              		.cfi_endproc
 3243              	.LFE166:
 3244              		.size	TIM_GetCapture2, .-TIM_GetCapture2
 3245              		.section	.text.TIM_GetCapture3,"ax",%progbits
 3246              		.align	1
 3247              		.p2align 4,,15
 3248              		.global	TIM_GetCapture3
 3249              		.syntax unified
ARM GAS  C:\Users\Grillmo\AppData\Local\Temp\ccN7xt8j.s 			page 58


 3250              		.thumb
 3251              		.thumb_func
 3252              		.fpu fpv4-sp-d16
 3253              		.type	TIM_GetCapture3, %function
 3254              	TIM_GetCapture3:
 3255              	.LFB167:
 3256              		.loc 1 2066 0
 3257              		.cfi_startproc
 3258              		@ args = 0, pretend = 0, frame = 0
 3259              		@ frame_needed = 0, uses_anonymous_args = 0
 3260              		@ link register save eliminated.
 3261              	.LVL330:
 3262              		.loc 1 2071 0
 3263 0000 C06B     		ldr	r0, [r0, #60]
 3264              	.LVL331:
 3265              		.loc 1 2072 0
 3266 0002 7047     		bx	lr
 3267              		.cfi_endproc
 3268              	.LFE167:
 3269              		.size	TIM_GetCapture3, .-TIM_GetCapture3
 3270              		.section	.text.TIM_GetCapture4,"ax",%progbits
 3271              		.align	1
 3272              		.p2align 4,,15
 3273              		.global	TIM_GetCapture4
 3274              		.syntax unified
 3275              		.thumb
 3276              		.thumb_func
 3277              		.fpu fpv4-sp-d16
 3278              		.type	TIM_GetCapture4, %function
 3279              	TIM_GetCapture4:
 3280              	.LFB168:
 3281              		.loc 1 2080 0
 3282              		.cfi_startproc
 3283              		@ args = 0, pretend = 0, frame = 0
 3284              		@ frame_needed = 0, uses_anonymous_args = 0
 3285              		@ link register save eliminated.
 3286              	.LVL332:
 3287              		.loc 1 2085 0
 3288 0000 006C     		ldr	r0, [r0, #64]
 3289              	.LVL333:
 3290              		.loc 1 2086 0
 3291 0002 7047     		bx	lr
 3292              		.cfi_endproc
 3293              	.LFE168:
 3294              		.size	TIM_GetCapture4, .-TIM_GetCapture4
 3295              		.section	.text.TIM_SetIC1Prescaler,"ax",%progbits
 3296              		.align	1
 3297              		.p2align 4,,15
 3298              		.global	TIM_SetIC1Prescaler
 3299              		.syntax unified
 3300              		.thumb
 3301              		.thumb_func
 3302              		.fpu fpv4-sp-d16
 3303              		.type	TIM_SetIC1Prescaler, %function
 3304              	TIM_SetIC1Prescaler:
 3305              	.LFB169:
 3306              		.loc 1 2100 0
ARM GAS  C:\Users\Grillmo\AppData\Local\Temp\ccN7xt8j.s 			page 59


 3307              		.cfi_startproc
 3308              		@ args = 0, pretend = 0, frame = 0
 3309              		@ frame_needed = 0, uses_anonymous_args = 0
 3310              		@ link register save eliminated.
 3311              	.LVL334:
 3312              		.loc 1 2106 0
 3313 0000 8369     		ldr	r3, [r0, #24]
 3314 0002 4FF6F372 		movw	r2, #65523
 3315 0006 1340     		ands	r3, r3, r2
 3316 0008 8361     		str	r3, [r0, #24]
 3317              		.loc 1 2109 0
 3318 000a 8369     		ldr	r3, [r0, #24]
 3319 000c 1943     		orrs	r1, r1, r3
 3320              	.LVL335:
 3321 000e 8161     		str	r1, [r0, #24]
 3322 0010 7047     		bx	lr
 3323              		.cfi_endproc
 3324              	.LFE169:
 3325              		.size	TIM_SetIC1Prescaler, .-TIM_SetIC1Prescaler
 3326 0012 00BF     		.section	.text.TIM_SetIC2Prescaler,"ax",%progbits
 3327              		.align	1
 3328              		.p2align 4,,15
 3329              		.global	TIM_SetIC2Prescaler
 3330              		.syntax unified
 3331              		.thumb
 3332              		.thumb_func
 3333              		.fpu fpv4-sp-d16
 3334              		.type	TIM_SetIC2Prescaler, %function
 3335              	TIM_SetIC2Prescaler:
 3336              	.LFB170:
 3337              		.loc 1 2125 0
 3338              		.cfi_startproc
 3339              		@ args = 0, pretend = 0, frame = 0
 3340              		@ frame_needed = 0, uses_anonymous_args = 0
 3341              		@ link register save eliminated.
 3342              	.LVL336:
 3343              		.loc 1 2131 0
 3344 0000 8369     		ldr	r3, [r0, #24]
 3345 0002 4FF2FF32 		movw	r2, #62463
 3346 0006 1340     		ands	r3, r3, r2
 3347 0008 8361     		str	r3, [r0, #24]
 3348              		.loc 1 2134 0
 3349 000a 8369     		ldr	r3, [r0, #24]
 3350 000c 0902     		lsls	r1, r1, #8
 3351              	.LVL337:
 3352 000e 89B2     		uxth	r1, r1
 3353 0010 1943     		orrs	r1, r1, r3
 3354 0012 8161     		str	r1, [r0, #24]
 3355 0014 7047     		bx	lr
 3356              		.cfi_endproc
 3357              	.LFE170:
 3358              		.size	TIM_SetIC2Prescaler, .-TIM_SetIC2Prescaler
 3359 0016 00BF     		.section	.text.TIM_SetIC3Prescaler,"ax",%progbits
 3360              		.align	1
 3361              		.p2align 4,,15
 3362              		.global	TIM_SetIC3Prescaler
 3363              		.syntax unified
ARM GAS  C:\Users\Grillmo\AppData\Local\Temp\ccN7xt8j.s 			page 60


 3364              		.thumb
 3365              		.thumb_func
 3366              		.fpu fpv4-sp-d16
 3367              		.type	TIM_SetIC3Prescaler, %function
 3368              	TIM_SetIC3Prescaler:
 3369              	.LFB171:
 3370              		.loc 1 2149 0
 3371              		.cfi_startproc
 3372              		@ args = 0, pretend = 0, frame = 0
 3373              		@ frame_needed = 0, uses_anonymous_args = 0
 3374              		@ link register save eliminated.
 3375              	.LVL338:
 3376              		.loc 1 2155 0
 3377 0000 C369     		ldr	r3, [r0, #28]
 3378 0002 4FF6F372 		movw	r2, #65523
 3379 0006 1340     		ands	r3, r3, r2
 3380 0008 C361     		str	r3, [r0, #28]
 3381              		.loc 1 2158 0
 3382 000a C369     		ldr	r3, [r0, #28]
 3383 000c 1943     		orrs	r1, r1, r3
 3384              	.LVL339:
 3385 000e C161     		str	r1, [r0, #28]
 3386 0010 7047     		bx	lr
 3387              		.cfi_endproc
 3388              	.LFE171:
 3389              		.size	TIM_SetIC3Prescaler, .-TIM_SetIC3Prescaler
 3390 0012 00BF     		.section	.text.TIM_SetIC4Prescaler,"ax",%progbits
 3391              		.align	1
 3392              		.p2align 4,,15
 3393              		.global	TIM_SetIC4Prescaler
 3394              		.syntax unified
 3395              		.thumb
 3396              		.thumb_func
 3397              		.fpu fpv4-sp-d16
 3398              		.type	TIM_SetIC4Prescaler, %function
 3399              	TIM_SetIC4Prescaler:
 3400              	.LFB172:
 3401              		.loc 1 2173 0
 3402              		.cfi_startproc
 3403              		@ args = 0, pretend = 0, frame = 0
 3404              		@ frame_needed = 0, uses_anonymous_args = 0
 3405              		@ link register save eliminated.
 3406              	.LVL340:
 3407              		.loc 1 2179 0
 3408 0000 C369     		ldr	r3, [r0, #28]
 3409 0002 4FF2FF32 		movw	r2, #62463
 3410 0006 1340     		ands	r3, r3, r2
 3411 0008 C361     		str	r3, [r0, #28]
 3412              		.loc 1 2182 0
 3413 000a C369     		ldr	r3, [r0, #28]
 3414 000c 0902     		lsls	r1, r1, #8
 3415              	.LVL341:
 3416 000e 89B2     		uxth	r1, r1
 3417 0010 1943     		orrs	r1, r1, r3
 3418 0012 C161     		str	r1, [r0, #28]
 3419 0014 7047     		bx	lr
 3420              		.cfi_endproc
ARM GAS  C:\Users\Grillmo\AppData\Local\Temp\ccN7xt8j.s 			page 61


 3421              	.LFE172:
 3422              		.size	TIM_SetIC4Prescaler, .-TIM_SetIC4Prescaler
 3423 0016 00BF     		.section	.text.TIM_BDTRConfig,"ax",%progbits
 3424              		.align	1
 3425              		.p2align 4,,15
 3426              		.global	TIM_BDTRConfig
 3427              		.syntax unified
 3428              		.thumb
 3429              		.thumb_func
 3430              		.fpu fpv4-sp-d16
 3431              		.type	TIM_BDTRConfig, %function
 3432              	TIM_BDTRConfig:
 3433              	.LFB173:
 3434              		.loc 1 2226 0
 3435              		.cfi_startproc
 3436              		@ args = 0, pretend = 0, frame = 0
 3437              		@ frame_needed = 0, uses_anonymous_args = 0
 3438              		@ link register save eliminated.
 3439              	.LVL342:
 3440 0000 F0B4     		push	{r4, r5, r6, r7}
 3441              		.cfi_def_cfa_offset 16
 3442              		.cfi_offset 4, -16
 3443              		.cfi_offset 5, -12
 3444              		.cfi_offset 6, -8
 3445              		.cfi_offset 7, -4
 3446              		.loc 1 2240 0
 3447 0002 0A88     		ldrh	r2, [r1]
 3448 0004 4F88     		ldrh	r7, [r1, #2]
 3449 0006 8B88     		ldrh	r3, [r1, #4]
 3450 0008 CE88     		ldrh	r6, [r1, #6]
 3451 000a 0D89     		ldrh	r5, [r1, #8]
 3452 000c 4C89     		ldrh	r4, [r1, #10]
 3453 000e 8989     		ldrh	r1, [r1, #12]
 3454              	.LVL343:
 3455 0010 3A43     		orrs	r2, r2, r7
 3456 0012 1343     		orrs	r3, r3, r2
 3457 0014 3343     		orrs	r3, r3, r6
 3458 0016 2B43     		orrs	r3, r3, r5
 3459 0018 2343     		orrs	r3, r3, r4
 3460 001a 0B43     		orrs	r3, r3, r1
 3461 001c 9BB2     		uxth	r3, r3
 3462              		.loc 1 2238 0
 3463 001e 4364     		str	r3, [r0, #68]
 3464              		.loc 1 2242 0
 3465 0020 F0BC     		pop	{r4, r5, r6, r7}
 3466              		.cfi_restore 7
 3467              		.cfi_restore 6
 3468              		.cfi_restore 5
 3469              		.cfi_restore 4
 3470              		.cfi_def_cfa_offset 0
 3471 0022 7047     		bx	lr
 3472              		.cfi_endproc
 3473              	.LFE173:
 3474              		.size	TIM_BDTRConfig, .-TIM_BDTRConfig
 3475              		.section	.text.TIM_BDTRStructInit,"ax",%progbits
 3476              		.align	1
 3477              		.p2align 4,,15
ARM GAS  C:\Users\Grillmo\AppData\Local\Temp\ccN7xt8j.s 			page 62


 3478              		.global	TIM_BDTRStructInit
 3479              		.syntax unified
 3480              		.thumb
 3481              		.thumb_func
 3482              		.fpu fpv4-sp-d16
 3483              		.type	TIM_BDTRStructInit, %function
 3484              	TIM_BDTRStructInit:
 3485              	.LFB174:
 3486              		.loc 1 2251 0
 3487              		.cfi_startproc
 3488              		@ args = 0, pretend = 0, frame = 0
 3489              		@ frame_needed = 0, uses_anonymous_args = 0
 3490              		@ link register save eliminated.
 3491              	.LVL344:
 3492              		.loc 1 2253 0
 3493 0000 0023     		movs	r3, #0
 3494 0002 0380     		strh	r3, [r0]	@ movhi
 3495              		.loc 1 2254 0
 3496 0004 4380     		strh	r3, [r0, #2]	@ movhi
 3497              		.loc 1 2255 0
 3498 0006 8380     		strh	r3, [r0, #4]	@ movhi
 3499              		.loc 1 2256 0
 3500 0008 C380     		strh	r3, [r0, #6]	@ movhi
 3501              		.loc 1 2257 0
 3502 000a 0381     		strh	r3, [r0, #8]	@ movhi
 3503              		.loc 1 2258 0
 3504 000c 4381     		strh	r3, [r0, #10]	@ movhi
 3505              		.loc 1 2259 0
 3506 000e 8381     		strh	r3, [r0, #12]	@ movhi
 3507 0010 7047     		bx	lr
 3508              		.cfi_endproc
 3509              	.LFE174:
 3510              		.size	TIM_BDTRStructInit, .-TIM_BDTRStructInit
 3511 0012 00BF     		.section	.text.TIM_CtrlPWMOutputs,"ax",%progbits
 3512              		.align	1
 3513              		.p2align 4,,15
 3514              		.global	TIM_CtrlPWMOutputs
 3515              		.syntax unified
 3516              		.thumb
 3517              		.thumb_func
 3518              		.fpu fpv4-sp-d16
 3519              		.type	TIM_CtrlPWMOutputs, %function
 3520              	TIM_CtrlPWMOutputs:
 3521              	.LFB175:
 3522              		.loc 1 2270 0
 3523              		.cfi_startproc
 3524              		@ args = 0, pretend = 0, frame = 0
 3525              		@ frame_needed = 0, uses_anonymous_args = 0
 3526              		@ link register save eliminated.
 3527              	.LVL345:
 3528              		.loc 1 2278 0
 3529 0000 436C     		ldr	r3, [r0, #68]
 3530              		.loc 1 2275 0
 3531 0002 19B9     		cbnz	r1, .L171
 3532              		.loc 1 2283 0
 3533 0004 C3F30E03 		ubfx	r3, r3, #0, #15
 3534 0008 4364     		str	r3, [r0, #68]
ARM GAS  C:\Users\Grillmo\AppData\Local\Temp\ccN7xt8j.s 			page 63


 3535 000a 7047     		bx	lr
 3536              	.L171:
 3537              		.loc 1 2278 0
 3538 000c 43F40043 		orr	r3, r3, #32768
 3539 0010 4364     		str	r3, [r0, #68]
 3540 0012 7047     		bx	lr
 3541              		.cfi_endproc
 3542              	.LFE175:
 3543              		.size	TIM_CtrlPWMOutputs, .-TIM_CtrlPWMOutputs
 3544              		.section	.text.TIM_SelectCOM,"ax",%progbits
 3545              		.align	1
 3546              		.p2align 4,,15
 3547              		.global	TIM_SelectCOM
 3548              		.syntax unified
 3549              		.thumb
 3550              		.thumb_func
 3551              		.fpu fpv4-sp-d16
 3552              		.type	TIM_SelectCOM, %function
 3553              	TIM_SelectCOM:
 3554              	.LFB176:
 3555              		.loc 1 2295 0
 3556              		.cfi_startproc
 3557              		@ args = 0, pretend = 0, frame = 0
 3558              		@ frame_needed = 0, uses_anonymous_args = 0
 3559              		@ link register save eliminated.
 3560              	.LVL346:
 3561              		.loc 1 2303 0
 3562 0000 4368     		ldr	r3, [r0, #4]
 3563              		.loc 1 2300 0
 3564 0002 21B9     		cbnz	r1, .L175
 3565              		.loc 1 2308 0
 3566 0004 4FF6FB72 		movw	r2, #65531
 3567 0008 1340     		ands	r3, r3, r2
 3568 000a 4360     		str	r3, [r0, #4]
 3569 000c 7047     		bx	lr
 3570              	.L175:
 3571              		.loc 1 2303 0
 3572 000e 43F00403 		orr	r3, r3, #4
 3573 0012 4360     		str	r3, [r0, #4]
 3574 0014 7047     		bx	lr
 3575              		.cfi_endproc
 3576              	.LFE176:
 3577              		.size	TIM_SelectCOM, .-TIM_SelectCOM
 3578 0016 00BF     		.section	.text.TIM_CCPreloadControl,"ax",%progbits
 3579              		.align	1
 3580              		.p2align 4,,15
 3581              		.global	TIM_CCPreloadControl
 3582              		.syntax unified
 3583              		.thumb
 3584              		.thumb_func
 3585              		.fpu fpv4-sp-d16
 3586              		.type	TIM_CCPreloadControl, %function
 3587              	TIM_CCPreloadControl:
 3588              	.LFB177:
 3589              		.loc 1 2320 0
 3590              		.cfi_startproc
 3591              		@ args = 0, pretend = 0, frame = 0
ARM GAS  C:\Users\Grillmo\AppData\Local\Temp\ccN7xt8j.s 			page 64


 3592              		@ frame_needed = 0, uses_anonymous_args = 0
 3593              		@ link register save eliminated.
 3594              	.LVL347:
 3595              		.loc 1 2327 0
 3596 0000 4368     		ldr	r3, [r0, #4]
 3597              		.loc 1 2324 0
 3598 0002 21B9     		cbnz	r1, .L179
 3599              		.loc 1 2332 0
 3600 0004 4FF6FE72 		movw	r2, #65534
 3601 0008 1340     		ands	r3, r3, r2
 3602 000a 4360     		str	r3, [r0, #4]
 3603 000c 7047     		bx	lr
 3604              	.L179:
 3605              		.loc 1 2327 0
 3606 000e 43F00103 		orr	r3, r3, #1
 3607 0012 4360     		str	r3, [r0, #4]
 3608 0014 7047     		bx	lr
 3609              		.cfi_endproc
 3610              	.LFE177:
 3611              		.size	TIM_CCPreloadControl, .-TIM_CCPreloadControl
 3612 0016 00BF     		.section	.text.TIM_GenerateEvent,"ax",%progbits
 3613              		.align	1
 3614              		.p2align 4,,15
 3615              		.global	TIM_GenerateEvent
 3616              		.syntax unified
 3617              		.thumb
 3618              		.thumb_func
 3619              		.fpu fpv4-sp-d16
 3620              		.type	TIM_GenerateEvent, %function
 3621              	TIM_GenerateEvent:
 3622              	.LFB179:
 3623              		.loc 1 2415 0
 3624              		.cfi_startproc
 3625              		@ args = 0, pretend = 0, frame = 0
 3626              		@ frame_needed = 0, uses_anonymous_args = 0
 3627              		@ link register save eliminated.
 3628              	.LVL348:
 3629              		.loc 1 2421 0
 3630 0000 4161     		str	r1, [r0, #20]
 3631 0002 7047     		bx	lr
 3632              		.cfi_endproc
 3633              	.LFE179:
 3634              		.size	TIM_GenerateEvent, .-TIM_GenerateEvent
 3635              		.section	.text.TIM_GetFlagStatus,"ax",%progbits
 3636              		.align	1
 3637              		.p2align 4,,15
 3638              		.global	TIM_GetFlagStatus
 3639              		.syntax unified
 3640              		.thumb
 3641              		.thumb_func
 3642              		.fpu fpv4-sp-d16
 3643              		.type	TIM_GetFlagStatus, %function
 3644              	TIM_GetFlagStatus:
 3645              	.LFB180:
 3646              		.loc 1 2448 0
 3647              		.cfi_startproc
 3648              		@ args = 0, pretend = 0, frame = 0
ARM GAS  C:\Users\Grillmo\AppData\Local\Temp\ccN7xt8j.s 			page 65


 3649              		@ frame_needed = 0, uses_anonymous_args = 0
 3650              		@ link register save eliminated.
 3651              	.LVL349:
 3652              		.loc 1 2455 0
 3653 0000 0369     		ldr	r3, [r0, #16]
 3654              	.LVL350:
 3655 0002 1942     		tst	r1, r3
 3656              		.loc 1 2464 0
 3657 0004 14BF     		ite	ne
 3658 0006 0120     		movne	r0, #1
 3659              	.LVL351:
 3660 0008 0020     		moveq	r0, #0
 3661 000a 7047     		bx	lr
 3662              		.cfi_endproc
 3663              	.LFE180:
 3664              		.size	TIM_GetFlagStatus, .-TIM_GetFlagStatus
 3665              		.section	.text.TIM_ClearFlag,"ax",%progbits
 3666              		.align	1
 3667              		.p2align 4,,15
 3668              		.global	TIM_ClearFlag
 3669              		.syntax unified
 3670              		.thumb
 3671              		.thumb_func
 3672              		.fpu fpv4-sp-d16
 3673              		.type	TIM_ClearFlag, %function
 3674              	TIM_ClearFlag:
 3675              	.LFB205:
 3676              		.cfi_startproc
 3677              		@ args = 0, pretend = 0, frame = 0
 3678              		@ frame_needed = 0, uses_anonymous_args = 0
 3679              		@ link register save eliminated.
 3680 0000 C943     		mvns	r1, r1
 3681 0002 89B2     		uxth	r1, r1
 3682 0004 0161     		str	r1, [r0, #16]
 3683 0006 7047     		bx	lr
 3684              		.cfi_endproc
 3685              	.LFE205:
 3686              		.size	TIM_ClearFlag, .-TIM_ClearFlag
 3687              		.section	.text.TIM_GetITStatus,"ax",%progbits
 3688              		.align	1
 3689              		.p2align 4,,15
 3690              		.global	TIM_GetITStatus
 3691              		.syntax unified
 3692              		.thumb
 3693              		.thumb_func
 3694              		.fpu fpv4-sp-d16
 3695              		.type	TIM_GetITStatus, %function
 3696              	TIM_GetITStatus:
 3697              	.LFB182:
 3698              		.loc 1 2518 0
 3699              		.cfi_startproc
 3700              		@ args = 0, pretend = 0, frame = 0
 3701              		@ frame_needed = 0, uses_anonymous_args = 0
 3702              		@ link register save eliminated.
 3703              	.LVL352:
 3704              		.loc 1 2525 0
 3705 0000 0369     		ldr	r3, [r0, #16]
ARM GAS  C:\Users\Grillmo\AppData\Local\Temp\ccN7xt8j.s 			page 66


 3706              	.LVL353:
 3707              		.loc 1 2527 0
 3708 0002 C268     		ldr	r2, [r0, #12]
 3709              	.LVL354:
 3710              		.loc 1 2528 0
 3711 0004 11EA0300 		ands	r0, r1, r3
 3712              	.LVL355:
 3713 0008 03D0     		beq	.L184
 3714              		.loc 1 2528 0 is_stmt 0 discriminator 1
 3715 000a 1142     		tst	r1, r2
 3716 000c 14BF     		ite	ne
 3717 000e 0120     		movne	r0, #1
 3718 0010 0020     		moveq	r0, #0
 3719              	.L184:
 3720              	.LVL356:
 3721              		.loc 1 2537 0 is_stmt 1
 3722 0012 7047     		bx	lr
 3723              		.cfi_endproc
 3724              	.LFE182:
 3725              		.size	TIM_GetITStatus, .-TIM_GetITStatus
 3726              		.section	.text.TIM_ClearITPendingBit,"ax",%progbits
 3727              		.align	1
 3728              		.p2align 4,,15
 3729              		.global	TIM_ClearITPendingBit
 3730              		.syntax unified
 3731              		.thumb
 3732              		.thumb_func
 3733              		.fpu fpv4-sp-d16
 3734              		.type	TIM_ClearITPendingBit, %function
 3735              	TIM_ClearITPendingBit:
 3736              	.LFB183:
 3737              		.loc 1 2559 0
 3738              		.cfi_startproc
 3739              		@ args = 0, pretend = 0, frame = 0
 3740              		@ frame_needed = 0, uses_anonymous_args = 0
 3741              		@ link register save eliminated.
 3742              	.LVL357:
 3743              		.loc 1 2564 0
 3744 0000 C943     		mvns	r1, r1
 3745              	.LVL358:
 3746 0002 89B2     		uxth	r1, r1
 3747 0004 0161     		str	r1, [r0, #16]
 3748 0006 7047     		bx	lr
 3749              		.cfi_endproc
 3750              	.LFE183:
 3751              		.size	TIM_ClearITPendingBit, .-TIM_ClearITPendingBit
 3752              		.section	.text.TIM_DMAConfig,"ax",%progbits
 3753              		.align	1
 3754              		.p2align 4,,15
 3755              		.global	TIM_DMAConfig
 3756              		.syntax unified
 3757              		.thumb
 3758              		.thumb_func
 3759              		.fpu fpv4-sp-d16
 3760              		.type	TIM_DMAConfig, %function
 3761              	TIM_DMAConfig:
 3762              	.LFB184:
ARM GAS  C:\Users\Grillmo\AppData\Local\Temp\ccN7xt8j.s 			page 67


 3763              		.loc 1 2596 0
 3764              		.cfi_startproc
 3765              		@ args = 0, pretend = 0, frame = 0
 3766              		@ frame_needed = 0, uses_anonymous_args = 0
 3767              		@ link register save eliminated.
 3768              	.LVL359:
 3769              		.loc 1 2603 0
 3770 0000 0A43     		orrs	r2, r2, r1
 3771              	.LVL360:
 3772 0002 8264     		str	r2, [r0, #72]
 3773 0004 7047     		bx	lr
 3774              		.cfi_endproc
 3775              	.LFE184:
 3776              		.size	TIM_DMAConfig, .-TIM_DMAConfig
 3777 0006 00BF     		.section	.text.TIM_DMACmd,"ax",%progbits
 3778              		.align	1
 3779              		.p2align 4,,15
 3780              		.global	TIM_DMACmd
 3781              		.syntax unified
 3782              		.thumb
 3783              		.thumb_func
 3784              		.fpu fpv4-sp-d16
 3785              		.type	TIM_DMACmd, %function
 3786              	TIM_DMACmd:
 3787              	.LFB185:
 3788              		.loc 1 2623 0
 3789              		.cfi_startproc
 3790              		@ args = 0, pretend = 0, frame = 0
 3791              		@ frame_needed = 0, uses_anonymous_args = 0
 3792              		@ link register save eliminated.
 3793              	.LVL361:
 3794              		.loc 1 2629 0
 3795 0000 2AB9     		cbnz	r2, .L191
 3796              		.loc 1 2637 0
 3797 0002 C368     		ldr	r3, [r0, #12]
 3798 0004 C943     		mvns	r1, r1
 3799              	.LVL362:
 3800 0006 89B2     		uxth	r1, r1
 3801 0008 1940     		ands	r1, r1, r3
 3802 000a C160     		str	r1, [r0, #12]
 3803 000c 7047     		bx	lr
 3804              	.LVL363:
 3805              	.L191:
 3806              		.loc 1 2632 0
 3807 000e C368     		ldr	r3, [r0, #12]
 3808 0010 1943     		orrs	r1, r1, r3
 3809              	.LVL364:
 3810 0012 C160     		str	r1, [r0, #12]
 3811 0014 7047     		bx	lr
 3812              		.cfi_endproc
 3813              	.LFE185:
 3814              		.size	TIM_DMACmd, .-TIM_DMACmd
 3815 0016 00BF     		.section	.text.TIM_ITConfig,"ax",%progbits
 3816              		.align	1
 3817              		.p2align 4,,15
 3818              		.global	TIM_ITConfig
 3819              		.syntax unified
ARM GAS  C:\Users\Grillmo\AppData\Local\Temp\ccN7xt8j.s 			page 68


 3820              		.thumb
 3821              		.thumb_func
 3822              		.fpu fpv4-sp-d16
 3823              		.type	TIM_ITConfig, %function
 3824              	TIM_ITConfig:
 3825              	.LFB207:
 3826              		.cfi_startproc
 3827              		@ args = 0, pretend = 0, frame = 0
 3828              		@ frame_needed = 0, uses_anonymous_args = 0
 3829              		@ link register save eliminated.
 3830 0000 FFF7FEBF 		b	TIM_DMACmd
 3831              		.cfi_endproc
 3832              	.LFE207:
 3833              		.size	TIM_ITConfig, .-TIM_ITConfig
 3834              		.section	.text.TIM_SelectCCDMA,"ax",%progbits
 3835              		.align	1
 3836              		.p2align 4,,15
 3837              		.global	TIM_SelectCCDMA
 3838              		.syntax unified
 3839              		.thumb
 3840              		.thumb_func
 3841              		.fpu fpv4-sp-d16
 3842              		.type	TIM_SelectCCDMA, %function
 3843              	TIM_SelectCCDMA:
 3844              	.LFB186:
 3845              		.loc 1 2649 0
 3846              		.cfi_startproc
 3847              		@ args = 0, pretend = 0, frame = 0
 3848              		@ frame_needed = 0, uses_anonymous_args = 0
 3849              		@ link register save eliminated.
 3850              	.LVL365:
 3851              		.loc 1 2657 0
 3852 0000 4368     		ldr	r3, [r0, #4]
 3853              		.loc 1 2654 0
 3854 0002 21B9     		cbnz	r1, .L196
 3855              		.loc 1 2662 0
 3856 0004 4FF6F772 		movw	r2, #65527
 3857 0008 1340     		ands	r3, r3, r2
 3858 000a 4360     		str	r3, [r0, #4]
 3859 000c 7047     		bx	lr
 3860              	.L196:
 3861              		.loc 1 2657 0
 3862 000e 43F00803 		orr	r3, r3, #8
 3863 0012 4360     		str	r3, [r0, #4]
 3864 0014 7047     		bx	lr
 3865              		.cfi_endproc
 3866              	.LFE186:
 3867              		.size	TIM_SelectCCDMA, .-TIM_SelectCCDMA
 3868 0016 00BF     		.section	.text.TIM_InternalClockConfig,"ax",%progbits
 3869              		.align	1
 3870              		.p2align 4,,15
 3871              		.global	TIM_InternalClockConfig
 3872              		.syntax unified
 3873              		.thumb
 3874              		.thumb_func
 3875              		.fpu fpv4-sp-d16
 3876              		.type	TIM_InternalClockConfig, %function
ARM GAS  C:\Users\Grillmo\AppData\Local\Temp\ccN7xt8j.s 			page 69


 3877              	TIM_InternalClockConfig:
 3878              	.LFB187:
 3879              		.loc 1 2688 0
 3880              		.cfi_startproc
 3881              		@ args = 0, pretend = 0, frame = 0
 3882              		@ frame_needed = 0, uses_anonymous_args = 0
 3883              		@ link register save eliminated.
 3884              	.LVL366:
 3885              		.loc 1 2693 0
 3886 0000 8368     		ldr	r3, [r0, #8]
 3887 0002 4FF6F872 		movw	r2, #65528
 3888 0006 1340     		ands	r3, r3, r2
 3889 0008 8360     		str	r3, [r0, #8]
 3890 000a 7047     		bx	lr
 3891              		.cfi_endproc
 3892              	.LFE187:
 3893              		.size	TIM_InternalClockConfig, .-TIM_InternalClockConfig
 3894              		.section	.text.TIM_ITRxExternalClockConfig,"ax",%progbits
 3895              		.align	1
 3896              		.p2align 4,,15
 3897              		.global	TIM_ITRxExternalClockConfig
 3898              		.syntax unified
 3899              		.thumb
 3900              		.thumb_func
 3901              		.fpu fpv4-sp-d16
 3902              		.type	TIM_ITRxExternalClockConfig, %function
 3903              	TIM_ITRxExternalClockConfig:
 3904              	.LFB188:
 3905              		.loc 1 2709 0
 3906              		.cfi_startproc
 3907              		@ args = 0, pretend = 0, frame = 0
 3908              		@ frame_needed = 0, uses_anonymous_args = 0
 3909              		@ link register save eliminated.
 3910              	.LVL367:
 3911              	.LBB90:
 3912              	.LBB91:
 3913              		.loc 1 2905 0
 3914 0000 8268     		ldr	r2, [r0, #8]
 3915              	.LVL368:
 3916              		.loc 1 2908 0
 3917 0002 4FF68F73 		movw	r3, #65423
 3918 0006 1340     		ands	r3, r3, r2
 3919              	.LVL369:
 3920              		.loc 1 2914 0
 3921 0008 1943     		orrs	r1, r1, r3
 3922              	.LVL370:
 3923 000a 8160     		str	r1, [r0, #8]
 3924              	.LVL371:
 3925              	.LBE91:
 3926              	.LBE90:
 3927              		.loc 1 2718 0
 3928 000c 8368     		ldr	r3, [r0, #8]
 3929 000e 43F00703 		orr	r3, r3, #7
 3930 0012 8360     		str	r3, [r0, #8]
 3931 0014 7047     		bx	lr
 3932              		.cfi_endproc
 3933              	.LFE188:
ARM GAS  C:\Users\Grillmo\AppData\Local\Temp\ccN7xt8j.s 			page 70


 3934              		.size	TIM_ITRxExternalClockConfig, .-TIM_ITRxExternalClockConfig
 3935 0016 00BF     		.section	.text.TIM_TIxExternalClockConfig,"ax",%progbits
 3936              		.align	1
 3937              		.p2align 4,,15
 3938              		.global	TIM_TIxExternalClockConfig
 3939              		.syntax unified
 3940              		.thumb
 3941              		.thumb_func
 3942              		.fpu fpv4-sp-d16
 3943              		.type	TIM_TIxExternalClockConfig, %function
 3944              	TIM_TIxExternalClockConfig:
 3945              	.LFB189:
 3946              		.loc 1 2740 0
 3947              		.cfi_startproc
 3948              		@ args = 0, pretend = 0, frame = 0
 3949              		@ frame_needed = 0, uses_anonymous_args = 0
 3950              		@ link register save eliminated.
 3951              	.LVL372:
 3952              		.loc 1 2747 0
 3953 0000 6029     		cmp	r1, #96
 3954              		.loc 1 2740 0
 3955 0002 F0B4     		push	{r4, r5, r6, r7}
 3956              		.cfi_def_cfa_offset 16
 3957              		.cfi_offset 4, -16
 3958              		.cfi_offset 5, -12
 3959              		.cfi_offset 6, -8
 3960              		.cfi_offset 7, -4
 3961              		.loc 1 2747 0
 3962 0004 22D0     		beq	.L203
 3963              	.LVL373:
 3964              	.LBB92:
 3965              	.LBB93:
 3966              		.loc 1 3214 0
 3967 0006 056A     		ldr	r5, [r0, #32]
 3968 0008 4FF6FE74 		movw	r4, #65534
 3969 000c 2540     		ands	r5, r5, r4
 3970 000e 0562     		str	r5, [r0, #32]
 3971              		.loc 1 3215 0
 3972 0010 8569     		ldr	r5, [r0, #24]
 3973              	.LVL374:
 3974              		.loc 1 3216 0
 3975 0012 066A     		ldr	r6, [r0, #32]
 3976              	.LVL375:
 3977              		.loc 1 3219 0
 3978 0014 4FF60C74 		movw	r4, #65292
 3979 0018 2C40     		ands	r4, r4, r5
 3980              	.LVL376:
 3981              		.loc 1 3220 0
 3982 001a 44EA0314 		orr	r4, r4, r3, lsl #4
 3983              	.LVL377:
 3984              		.loc 1 3223 0
 3985 001e 4FF6F575 		movw	r5, #65525
 3986              	.LVL378:
 3987              		.loc 1 3224 0
 3988 0022 42F00102 		orr	r2, r2, #1
 3989              	.LVL379:
 3990              		.loc 1 3223 0
ARM GAS  C:\Users\Grillmo\AppData\Local\Temp\ccN7xt8j.s 			page 71


 3991 0026 3540     		ands	r5, r5, r6
 3992              	.LVL380:
 3993              		.loc 1 3220 0
 3994 0028 44F00104 		orr	r4, r4, #1
 3995              		.loc 1 3228 0
 3996 002c 1543     		orrs	r5, r5, r2
 3997              		.loc 1 3227 0
 3998 002e A4B2     		uxth	r4, r4
 3999 0030 8461     		str	r4, [r0, #24]
 4000              		.loc 1 3228 0
 4001 0032 0562     		str	r5, [r0, #32]
 4002              	.LVL381:
 4003              	.L201:
 4004              	.LBE93:
 4005              	.LBE92:
 4006              	.LBB94:
 4007              	.LBB95:
 4008              		.loc 1 2905 0
 4009 0034 8268     		ldr	r2, [r0, #8]
 4010              	.LVL382:
 4011              		.loc 1 2908 0
 4012 0036 4FF68F73 		movw	r3, #65423
 4013 003a 1340     		ands	r3, r3, r2
 4014              	.LVL383:
 4015              		.loc 1 2914 0
 4016 003c 1943     		orrs	r1, r1, r3
 4017              	.LVL384:
 4018 003e 8160     		str	r1, [r0, #8]
 4019              	.LVL385:
 4020              	.LBE95:
 4021              	.LBE94:
 4022              		.loc 1 2758 0
 4023 0040 8368     		ldr	r3, [r0, #8]
 4024 0042 43F00703 		orr	r3, r3, #7
 4025 0046 8360     		str	r3, [r0, #8]
 4026              		.loc 1 2759 0
 4027 0048 F0BC     		pop	{r4, r5, r6, r7}
 4028              		.cfi_remember_state
 4029              		.cfi_restore 7
 4030              		.cfi_restore 6
 4031              		.cfi_restore 5
 4032              		.cfi_restore 4
 4033              		.cfi_def_cfa_offset 0
 4034 004a 7047     		bx	lr
 4035              	.LVL386:
 4036              	.L203:
 4037              		.cfi_restore_state
 4038              	.LBB96:
 4039              	.LBB97:
 4040              		.loc 1 3255 0
 4041 004c 046A     		ldr	r4, [r0, #32]
 4042 004e 4FF6EF75 		movw	r5, #65519
 4043 0052 2C40     		ands	r4, r4, r5
 4044 0054 0462     		str	r4, [r0, #32]
 4045              		.loc 1 3256 0
 4046 0056 8469     		ldr	r4, [r0, #24]
 4047              	.LVL387:
ARM GAS  C:\Users\Grillmo\AppData\Local\Temp\ccN7xt8j.s 			page 72


 4048              		.loc 1 3257 0
 4049 0058 066A     		ldr	r6, [r0, #32]
 4050              	.LVL388:
 4051              		.loc 1 3261 0
 4052 005a 40F6FF47 		movw	r7, #3327
 4053              		.loc 1 3266 0
 4054 005e 4FF65F75 		movw	r5, #65375
 4055              		.loc 1 3261 0
 4056 0062 3C40     		ands	r4, r4, r7
 4057              	.LVL389:
 4058              		.loc 1 3266 0
 4059 0064 3540     		ands	r5, r5, r6
 4060              	.LVL390:
 4061              		.loc 1 3263 0
 4062 0066 44EA0333 		orr	r3, r4, r3, lsl #12
 4063              	.LVL391:
 4064              		.loc 1 3267 0
 4065 006a 45EA0212 		orr	r2, r5, r2, lsl #4
 4066              	.LVL392:
 4067              		.loc 1 3263 0
 4068 006e 43F48073 		orr	r3, r3, #256
 4069              		.loc 1 3267 0
 4070 0072 42F01002 		orr	r2, r2, #16
 4071              		.loc 1 3270 0
 4072 0076 9BB2     		uxth	r3, r3
 4073              		.loc 1 3271 0
 4074 0078 92B2     		uxth	r2, r2
 4075              		.loc 1 3270 0
 4076 007a 8361     		str	r3, [r0, #24]
 4077              		.loc 1 3271 0
 4078 007c 0262     		str	r2, [r0, #32]
 4079 007e D9E7     		b	.L201
 4080              	.LBE97:
 4081              	.LBE96:
 4082              		.cfi_endproc
 4083              	.LFE189:
 4084              		.size	TIM_TIxExternalClockConfig, .-TIM_TIxExternalClockConfig
 4085              		.section	.text.TIM_ETRClockMode1Config,"ax",%progbits
 4086              		.align	1
 4087              		.p2align 4,,15
 4088              		.global	TIM_ETRClockMode1Config
 4089              		.syntax unified
 4090              		.thumb
 4091              		.thumb_func
 4092              		.fpu fpv4-sp-d16
 4093              		.type	TIM_ETRClockMode1Config, %function
 4094              	TIM_ETRClockMode1Config:
 4095              	.LFB190:
 4096              		.loc 1 2780 0
 4097              		.cfi_startproc
 4098              		@ args = 0, pretend = 0, frame = 0
 4099              		@ frame_needed = 0, uses_anonymous_args = 0
 4100              		@ link register save eliminated.
 4101              	.LVL393:
 4102 0000 10B4     		push	{r4}
 4103              		.cfi_def_cfa_offset 4
 4104              		.cfi_offset 4, -4
ARM GAS  C:\Users\Grillmo\AppData\Local\Temp\ccN7xt8j.s 			page 73


 4105              	.LBB98:
 4106              	.LBB99:
 4107              		.loc 1 3027 0
 4108 0002 8468     		ldr	r4, [r0, #8]
 4109              	.LVL394:
 4110              		.loc 1 3033 0
 4111 0004 42EA0323 		orr	r3, r2, r3, lsl #8
 4112              	.LVL395:
 4113 0008 1943     		orrs	r1, r1, r3
 4114              	.LVL396:
 4115              		.loc 1 3030 0
 4116 000a E4B2     		uxtb	r4, r4
 4117              	.LVL397:
 4118              		.loc 1 3033 0
 4119 000c 2143     		orrs	r1, r1, r4
 4120              		.loc 1 3036 0
 4121 000e 89B2     		uxth	r1, r1
 4122 0010 8160     		str	r1, [r0, #8]
 4123              	.LVL398:
 4124              	.LBE99:
 4125              	.LBE98:
 4126              		.loc 1 2792 0
 4127 0012 8368     		ldr	r3, [r0, #8]
 4128              	.LVL399:
 4129              		.loc 1 2806 0
 4130 0014 5DF8044B 		ldr	r4, [sp], #4
 4131              		.cfi_restore 4
 4132              		.cfi_def_cfa_offset 0
 4133 0018 23F07703 		bic	r3, r3, #119
 4134              	.LVL400:
 4135 001c 9BB2     		uxth	r3, r3
 4136              	.LVL401:
 4137              		.loc 1 2805 0
 4138 001e 43F07703 		orr	r3, r3, #119
 4139              	.LVL402:
 4140 0022 8360     		str	r3, [r0, #8]
 4141              		.loc 1 2806 0
 4142 0024 7047     		bx	lr
 4143              		.cfi_endproc
 4144              	.LFE190:
 4145              		.size	TIM_ETRClockMode1Config, .-TIM_ETRClockMode1Config
 4146 0026 00BF     		.section	.text.TIM_ETRClockMode2Config,"ax",%progbits
 4147              		.align	1
 4148              		.p2align 4,,15
 4149              		.global	TIM_ETRClockMode2Config
 4150              		.syntax unified
 4151              		.thumb
 4152              		.thumb_func
 4153              		.fpu fpv4-sp-d16
 4154              		.type	TIM_ETRClockMode2Config, %function
 4155              	TIM_ETRClockMode2Config:
 4156              	.LFB191:
 4157              		.loc 1 2827 0
 4158              		.cfi_startproc
 4159              		@ args = 0, pretend = 0, frame = 0
 4160              		@ frame_needed = 0, uses_anonymous_args = 0
 4161              		@ link register save eliminated.
ARM GAS  C:\Users\Grillmo\AppData\Local\Temp\ccN7xt8j.s 			page 74


 4162              	.LVL403:
 4163 0000 10B4     		push	{r4}
 4164              		.cfi_def_cfa_offset 4
 4165              		.cfi_offset 4, -4
 4166              	.LBB100:
 4167              	.LBB101:
 4168              		.loc 1 3027 0
 4169 0002 8468     		ldr	r4, [r0, #8]
 4170              	.LVL404:
 4171              		.loc 1 3033 0
 4172 0004 42EA0323 		orr	r3, r2, r3, lsl #8
 4173              	.LVL405:
 4174 0008 1943     		orrs	r1, r1, r3
 4175              	.LVL406:
 4176              		.loc 1 3030 0
 4177 000a E4B2     		uxtb	r4, r4
 4178              	.LVL407:
 4179              		.loc 1 3033 0
 4180 000c 2143     		orrs	r1, r1, r4
 4181              		.loc 1 3036 0
 4182 000e 89B2     		uxth	r1, r1
 4183 0010 8160     		str	r1, [r0, #8]
 4184              	.LVL408:
 4185              	.LBE101:
 4186              	.LBE100:
 4187              		.loc 1 2838 0
 4188 0012 8368     		ldr	r3, [r0, #8]
 4189              		.loc 1 2839 0
 4190 0014 5DF8044B 		ldr	r4, [sp], #4
 4191              		.cfi_restore 4
 4192              		.cfi_def_cfa_offset 0
 4193              		.loc 1 2838 0
 4194 0018 43F48043 		orr	r3, r3, #16384
 4195 001c 8360     		str	r3, [r0, #8]
 4196              		.loc 1 2839 0
 4197 001e 7047     		bx	lr
 4198              		.cfi_endproc
 4199              	.LFE191:
 4200              		.size	TIM_ETRClockMode2Config, .-TIM_ETRClockMode2Config
 4201              		.section	.text.TIM_SelectInputTrigger,"ax",%progbits
 4202              		.align	1
 4203              		.p2align 4,,15
 4204              		.global	TIM_SelectInputTrigger
 4205              		.syntax unified
 4206              		.thumb
 4207              		.thumb_func
 4208              		.fpu fpv4-sp-d16
 4209              		.type	TIM_SelectInputTrigger, %function
 4210              	TIM_SelectInputTrigger:
 4211              	.LFB192:
 4212              		.loc 1 2897 0
 4213              		.cfi_startproc
 4214              		@ args = 0, pretend = 0, frame = 0
 4215              		@ frame_needed = 0, uses_anonymous_args = 0
 4216              		@ link register save eliminated.
 4217              	.LVL409:
 4218              		.loc 1 2905 0
ARM GAS  C:\Users\Grillmo\AppData\Local\Temp\ccN7xt8j.s 			page 75


 4219 0000 8268     		ldr	r2, [r0, #8]
 4220              	.LVL410:
 4221              		.loc 1 2908 0
 4222 0002 4FF68F73 		movw	r3, #65423
 4223 0006 1340     		ands	r3, r3, r2
 4224              	.LVL411:
 4225              		.loc 1 2914 0
 4226 0008 1943     		orrs	r1, r1, r3
 4227              	.LVL412:
 4228 000a 8160     		str	r1, [r0, #8]
 4229 000c 7047     		bx	lr
 4230              		.cfi_endproc
 4231              	.LFE192:
 4232              		.size	TIM_SelectInputTrigger, .-TIM_SelectInputTrigger
 4233 000e 00BF     		.section	.text.TIM_SelectOutputTrigger,"ax",%progbits
 4234              		.align	1
 4235              		.p2align 4,,15
 4236              		.global	TIM_SelectOutputTrigger
 4237              		.syntax unified
 4238              		.thumb
 4239              		.thumb_func
 4240              		.fpu fpv4-sp-d16
 4241              		.type	TIM_SelectOutputTrigger, %function
 4242              	TIM_SelectOutputTrigger:
 4243              	.LFB193:
 4244              		.loc 1 2940 0
 4245              		.cfi_startproc
 4246              		@ args = 0, pretend = 0, frame = 0
 4247              		@ frame_needed = 0, uses_anonymous_args = 0
 4248              		@ link register save eliminated.
 4249              	.LVL413:
 4250              		.loc 1 2946 0
 4251 0000 4368     		ldr	r3, [r0, #4]
 4252 0002 4FF68F72 		movw	r2, #65423
 4253 0006 1340     		ands	r3, r3, r2
 4254 0008 4360     		str	r3, [r0, #4]
 4255              		.loc 1 2948 0
 4256 000a 4368     		ldr	r3, [r0, #4]
 4257 000c 1943     		orrs	r1, r1, r3
 4258              	.LVL414:
 4259 000e 4160     		str	r1, [r0, #4]
 4260 0010 7047     		bx	lr
 4261              		.cfi_endproc
 4262              	.LFE193:
 4263              		.size	TIM_SelectOutputTrigger, .-TIM_SelectOutputTrigger
 4264 0012 00BF     		.section	.text.TIM_SelectSlaveMode,"ax",%progbits
 4265              		.align	1
 4266              		.p2align 4,,15
 4267              		.global	TIM_SelectSlaveMode
 4268              		.syntax unified
 4269              		.thumb
 4270              		.thumb_func
 4271              		.fpu fpv4-sp-d16
 4272              		.type	TIM_SelectSlaveMode, %function
 4273              	TIM_SelectSlaveMode:
 4274              	.LFB194:
 4275              		.loc 1 2964 0
ARM GAS  C:\Users\Grillmo\AppData\Local\Temp\ccN7xt8j.s 			page 76


 4276              		.cfi_startproc
 4277              		@ args = 0, pretend = 0, frame = 0
 4278              		@ frame_needed = 0, uses_anonymous_args = 0
 4279              		@ link register save eliminated.
 4280              	.LVL415:
 4281              		.loc 1 2970 0
 4282 0000 8368     		ldr	r3, [r0, #8]
 4283 0002 4FF6F872 		movw	r2, #65528
 4284 0006 1340     		ands	r3, r3, r2
 4285 0008 8360     		str	r3, [r0, #8]
 4286              		.loc 1 2973 0
 4287 000a 8368     		ldr	r3, [r0, #8]
 4288 000c 1943     		orrs	r1, r1, r3
 4289              	.LVL416:
 4290 000e 8160     		str	r1, [r0, #8]
 4291 0010 7047     		bx	lr
 4292              		.cfi_endproc
 4293              	.LFE194:
 4294              		.size	TIM_SelectSlaveMode, .-TIM_SelectSlaveMode
 4295 0012 00BF     		.section	.text.TIM_SelectMasterSlaveMode,"ax",%progbits
 4296              		.align	1
 4297              		.p2align 4,,15
 4298              		.global	TIM_SelectMasterSlaveMode
 4299              		.syntax unified
 4300              		.thumb
 4301              		.thumb_func
 4302              		.fpu fpv4-sp-d16
 4303              		.type	TIM_SelectMasterSlaveMode, %function
 4304              	TIM_SelectMasterSlaveMode:
 4305              	.LFB195:
 4306              		.loc 1 2987 0
 4307              		.cfi_startproc
 4308              		@ args = 0, pretend = 0, frame = 0
 4309              		@ frame_needed = 0, uses_anonymous_args = 0
 4310              		@ link register save eliminated.
 4311              	.LVL417:
 4312              		.loc 1 2993 0
 4313 0000 8368     		ldr	r3, [r0, #8]
 4314 0002 4FF67F72 		movw	r2, #65407
 4315 0006 1340     		ands	r3, r3, r2
 4316 0008 8360     		str	r3, [r0, #8]
 4317              		.loc 1 2996 0
 4318 000a 8368     		ldr	r3, [r0, #8]
 4319 000c 1943     		orrs	r1, r1, r3
 4320              	.LVL418:
 4321 000e 8160     		str	r1, [r0, #8]
 4322 0010 7047     		bx	lr
 4323              		.cfi_endproc
 4324              	.LFE195:
 4325              		.size	TIM_SelectMasterSlaveMode, .-TIM_SelectMasterSlaveMode
 4326 0012 00BF     		.section	.text.TIM_ETRConfig,"ax",%progbits
 4327              		.align	1
 4328              		.p2align 4,,15
 4329              		.global	TIM_ETRConfig
 4330              		.syntax unified
 4331              		.thumb
 4332              		.thumb_func
ARM GAS  C:\Users\Grillmo\AppData\Local\Temp\ccN7xt8j.s 			page 77


 4333              		.fpu fpv4-sp-d16
 4334              		.type	TIM_ETRConfig, %function
 4335              	TIM_ETRConfig:
 4336              	.LFB196:
 4337              		.loc 1 3018 0
 4338              		.cfi_startproc
 4339              		@ args = 0, pretend = 0, frame = 0
 4340              		@ frame_needed = 0, uses_anonymous_args = 0
 4341              		@ link register save eliminated.
 4342              	.LVL419:
 4343 0000 10B4     		push	{r4}
 4344              		.cfi_def_cfa_offset 4
 4345              		.cfi_offset 4, -4
 4346              		.loc 1 3027 0
 4347 0002 8468     		ldr	r4, [r0, #8]
 4348              	.LVL420:
 4349              		.loc 1 3033 0
 4350 0004 0A43     		orrs	r2, r2, r1
 4351              	.LVL421:
 4352              		.loc 1 3030 0
 4353 0006 E4B2     		uxtb	r4, r4
 4354              	.LVL422:
 4355              		.loc 1 3033 0
 4356 0008 42EA0323 		orr	r3, r2, r3, lsl #8
 4357              	.LVL423:
 4358 000c 2343     		orrs	r3, r3, r4
 4359              		.loc 1 3036 0
 4360 000e 9BB2     		uxth	r3, r3
 4361 0010 8360     		str	r3, [r0, #8]
 4362              		.loc 1 3037 0
 4363 0012 5DF8044B 		ldr	r4, [sp], #4
 4364              		.cfi_restore 4
 4365              		.cfi_def_cfa_offset 0
 4366              	.LVL424:
 4367 0016 7047     		bx	lr
 4368              		.cfi_endproc
 4369              	.LFE196:
 4370              		.size	TIM_ETRConfig, .-TIM_ETRConfig
 4371              		.section	.text.TIM_EncoderInterfaceConfig,"ax",%progbits
 4372              		.align	1
 4373              		.p2align 4,,15
 4374              		.global	TIM_EncoderInterfaceConfig
 4375              		.syntax unified
 4376              		.thumb
 4377              		.thumb_func
 4378              		.fpu fpv4-sp-d16
 4379              		.type	TIM_EncoderInterfaceConfig, %function
 4380              	TIM_EncoderInterfaceConfig:
 4381              	.LFB197:
 4382              		.loc 1 3076 0
 4383              		.cfi_startproc
 4384              		@ args = 0, pretend = 0, frame = 0
 4385              		@ frame_needed = 0, uses_anonymous_args = 0
 4386              	.LVL425:
 4387 0000 F0B5     		push	{r4, r5, r6, r7, lr}
 4388              		.cfi_def_cfa_offset 20
 4389              		.cfi_offset 4, -20
ARM GAS  C:\Users\Grillmo\AppData\Local\Temp\ccN7xt8j.s 			page 78


 4390              		.cfi_offset 5, -16
 4391              		.cfi_offset 6, -12
 4392              		.cfi_offset 7, -8
 4393              		.cfi_offset 14, -4
 4394              		.loc 1 3088 0
 4395 0002 8768     		ldr	r7, [r0, #8]
 4396              	.LVL426:
 4397              		.loc 1 3091 0
 4398 0004 8669     		ldr	r6, [r0, #24]
 4399              	.LVL427:
 4400              		.loc 1 3094 0
 4401 0006 D0F820E0 		ldr	lr, [r0, #32]
 4402              	.LVL428:
 4403              		.loc 1 3105 0
 4404 000a 4FF6DD74 		movw	r4, #65501
 4405              		.loc 1 3101 0
 4406 000e 4FF6FC45 		movw	r5, #64764
 4407 0012 3540     		ands	r5, r5, r6
 4408              		.loc 1 3106 0
 4409 0014 42EA0313 		orr	r3, r2, r3, lsl #4
 4410              	.LVL429:
 4411              		.loc 1 3105 0
 4412 0018 0EEA0404 		and	r4, lr, r4
 4413              		.loc 1 3097 0
 4414 001c 4FF6F876 		movw	r6, #65528
 4415              	.LVL430:
 4416              		.loc 1 3106 0
 4417 0020 1C43     		orrs	r4, r4, r3
 4418              		.loc 1 3112 0
 4419 0022 45F48075 		orr	r5, r5, #256
 4420              		.loc 1 3097 0
 4421 0026 3E40     		ands	r6, r6, r7
 4422              	.LVL431:
 4423              		.loc 1 3115 0
 4424 0028 A4B2     		uxth	r4, r4
 4425              		.loc 1 3112 0
 4426 002a 45F00105 		orr	r5, r5, #1
 4427              		.loc 1 3109 0
 4428 002e 3143     		orrs	r1, r1, r6
 4429              	.LVL432:
 4430 0030 8160     		str	r1, [r0, #8]
 4431              		.loc 1 3112 0
 4432 0032 8561     		str	r5, [r0, #24]
 4433              		.loc 1 3115 0
 4434 0034 0462     		str	r4, [r0, #32]
 4435 0036 F0BD     		pop	{r4, r5, r6, r7, pc}
 4436              		.cfi_endproc
 4437              	.LFE197:
 4438              		.size	TIM_EncoderInterfaceConfig, .-TIM_EncoderInterfaceConfig
 4439              		.section	.text.TIM_SelectHallSensor,"ax",%progbits
 4440              		.align	1
 4441              		.p2align 4,,15
 4442              		.global	TIM_SelectHallSensor
 4443              		.syntax unified
 4444              		.thumb
 4445              		.thumb_func
 4446              		.fpu fpv4-sp-d16
ARM GAS  C:\Users\Grillmo\AppData\Local\Temp\ccN7xt8j.s 			page 79


 4447              		.type	TIM_SelectHallSensor, %function
 4448              	TIM_SelectHallSensor:
 4449              	.LFB198:
 4450              		.loc 1 3127 0
 4451              		.cfi_startproc
 4452              		@ args = 0, pretend = 0, frame = 0
 4453              		@ frame_needed = 0, uses_anonymous_args = 0
 4454              		@ link register save eliminated.
 4455              	.LVL433:
 4456              		.loc 1 3135 0
 4457 0000 4368     		ldr	r3, [r0, #4]
 4458              		.loc 1 3132 0
 4459 0002 21B9     		cbnz	r1, .L219
 4460              		.loc 1 3140 0
 4461 0004 4FF67F72 		movw	r2, #65407
 4462 0008 1340     		ands	r3, r3, r2
 4463 000a 4360     		str	r3, [r0, #4]
 4464 000c 7047     		bx	lr
 4465              	.L219:
 4466              		.loc 1 3135 0
 4467 000e 43F08003 		orr	r3, r3, #128
 4468 0012 4360     		str	r3, [r0, #4]
 4469 0014 7047     		bx	lr
 4470              		.cfi_endproc
 4471              	.LFE198:
 4472              		.size	TIM_SelectHallSensor, .-TIM_SelectHallSensor
 4473 0016 00BF     		.section	.text.TIM_RemapConfig,"ax",%progbits
 4474              		.align	1
 4475              		.p2align 4,,15
 4476              		.global	TIM_RemapConfig
 4477              		.syntax unified
 4478              		.thumb
 4479              		.thumb_func
 4480              		.fpu fpv4-sp-d16
 4481              		.type	TIM_RemapConfig, %function
 4482              	TIM_RemapConfig:
 4483              	.LFB199:
 4484              		.loc 1 3178 0
 4485              		.cfi_startproc
 4486              		@ args = 0, pretend = 0, frame = 0
 4487              		@ frame_needed = 0, uses_anonymous_args = 0
 4488              		@ link register save eliminated.
 4489              	.LVL434:
 4490              		.loc 1 3184 0
 4491 0000 0165     		str	r1, [r0, #80]
 4492 0002 7047     		bx	lr
 4493              		.cfi_endproc
 4494              	.LFE199:
 4495              		.size	TIM_RemapConfig, .-TIM_RemapConfig
 4496              		.text
 4497              	.Letext0:
 4498              		.file 2 "c:\\chibistudio\\tools\\gnu tools arm embedded\\6.3 2017q1\\arm-none-eabi\\include\\machi
 4499              		.file 3 "c:\\chibistudio\\tools\\gnu tools arm embedded\\6.3 2017q1\\arm-none-eabi\\include\\sys\\
 4500              		.file 4 "ChibiOS_3.0.2/os/ext/CMSIS/include/core_cm4.h"
 4501              		.file 5 "ChibiOS_3.0.2/os/ext/CMSIS/ST/system_stm32f4xx.h"
 4502              		.file 6 "ChibiOS_3.0.2/os/ext/CMSIS/ST/stm32f407xx.h"
 4503              		.file 7 "ChibiOS_3.0.2/os/ext/CMSIS/ST/stm32f4xx.h"
ARM GAS  C:\Users\Grillmo\AppData\Local\Temp\ccN7xt8j.s 			page 80


 4504              		.file 8 "ChibiOS_3.0.2/ext/stdperiph_stm32f4/inc/stm32f4xx_tim.h"
 4505              		.file 9 "ChibiOS_3.0.2/ext/stdperiph_stm32f4/inc/stm32f4xx_rcc.h"