ARM GAS  /var/tmp//ccM7fHpp.s 			page 1


   1              		.cpu cortex-m4
   2              		.eabi_attribute 27, 1
   3              		.eabi_attribute 28, 1
   4              		.eabi_attribute 20, 1
   5              		.eabi_attribute 21, 1
   6              		.eabi_attribute 23, 3
   7              		.eabi_attribute 24, 1
   8              		.eabi_attribute 25, 1
   9              		.eabi_attribute 26, 1
  10              		.eabi_attribute 30, 2
  11              		.eabi_attribute 34, 1
  12              		.eabi_attribute 18, 4
  13              		.file	"stm32f4xx_dma.c"
  14              		.text
  15              	.Ltext0:
  16              		.cfi_sections	.debug_frame
  17              		.section	.text.DMA_DeInit,"ax",%progbits
  18              		.align	1
  19              		.p2align 4,,15
  20              		.global	DMA_DeInit
  21              		.syntax unified
  22              		.thumb
  23              		.thumb_func
  24              		.fpu fpv4-sp-d16
  25              		.type	DMA_DeInit, %function
  26              	DMA_DeInit:
  27              	.LFB112:
  28              		.file 1 "ChibiOS_3.0.2/ext/stdperiph_stm32f4/src/stm32f4xx_dma.c"
  29              		.loc 1 201 0
  30              		.cfi_startproc
  31              		@ args = 0, pretend = 0, frame = 0
  32              		@ frame_needed = 0, uses_anonymous_args = 0
  33              		@ link register save eliminated.
  34              	.LVL0:
  35              		.loc 1 206 0
  36 0000 0268     		ldr	r2, [r0]
  37              		.loc 1 227 0
  38 0002 3749     		ldr	r1, .L29
  39              		.loc 1 209 0
  40 0004 0023     		movs	r3, #0
  41              		.loc 1 201 0
  42 0006 10B4     		push	{r4}
  43              		.cfi_def_cfa_offset 4
  44              		.cfi_offset 4, -4
  45              		.loc 1 206 0
  46 0008 22F00102 		bic	r2, r2, #1
  47              		.loc 1 224 0
  48 000c 2124     		movs	r4, #33
  49              		.loc 1 227 0
  50 000e 8842     		cmp	r0, r1
  51              		.loc 1 206 0
  52 0010 0260     		str	r2, [r0]
  53              		.loc 1 209 0
  54 0012 0360     		str	r3, [r0]
  55              		.loc 1 212 0
  56 0014 4360     		str	r3, [r0, #4]
  57              		.loc 1 215 0
ARM GAS  /var/tmp//ccM7fHpp.s 			page 2


  58 0016 8360     		str	r3, [r0, #8]
  59              		.loc 1 218 0
  60 0018 C360     		str	r3, [r0, #12]
  61              		.loc 1 221 0
  62 001a 0361     		str	r3, [r0, #16]
  63              		.loc 1 224 0
  64 001c 4461     		str	r4, [r0, #20]
  65              		.loc 1 227 0
  66 001e 4DD0     		beq	.L27
  67              		.loc 1 232 0
  68 0020 304B     		ldr	r3, .L29+4
  69 0022 9842     		cmp	r0, r3
  70 0024 35D0     		beq	.L19
  71              		.loc 1 237 0
  72 0026 304B     		ldr	r3, .L29+8
  73 0028 9842     		cmp	r0, r3
  74 002a 39D0     		beq	.L20
  75              		.loc 1 242 0
  76 002c 2F4B     		ldr	r3, .L29+12
  77 002e 9842     		cmp	r0, r3
  78 0030 3DD0     		beq	.L21
  79              		.loc 1 247 0
  80 0032 2F4B     		ldr	r3, .L29+16
  81 0034 9842     		cmp	r0, r3
  82 0036 47D0     		beq	.L22
  83              		.loc 1 252 0
  84 0038 2E4B     		ldr	r3, .L29+20
  85 003a 9842     		cmp	r0, r3
  86 003c 48D0     		beq	.L23
  87              		.loc 1 257 0
  88 003e 2E4B     		ldr	r3, .L29+24
  89 0040 9842     		cmp	r0, r3
  90 0042 1DD0     		beq	.L24
  91              		.loc 1 262 0
  92 0044 2D4B     		ldr	r3, .L29+28
  93 0046 9842     		cmp	r0, r3
  94 0048 1ED0     		beq	.L25
  95              		.loc 1 267 0
  96 004a 2D4B     		ldr	r3, .L29+32
  97 004c 9842     		cmp	r0, r3
  98 004e 43D0     		beq	.L28
  99              		.loc 1 272 0
 100 0050 2C4B     		ldr	r3, .L29+36
 101 0052 9842     		cmp	r0, r3
 102 0054 1DD0     		beq	.L19
 103              		.loc 1 277 0
 104 0056 2C4B     		ldr	r3, .L29+40
 105 0058 9842     		cmp	r0, r3
 106 005a 21D0     		beq	.L20
 107              		.loc 1 282 0
 108 005c 2B4B     		ldr	r3, .L29+44
 109 005e 9842     		cmp	r0, r3
 110 0060 25D0     		beq	.L21
 111              		.loc 1 287 0
 112 0062 2B4B     		ldr	r3, .L29+48
 113 0064 9842     		cmp	r0, r3
 114 0066 2FD0     		beq	.L22
ARM GAS  /var/tmp//ccM7fHpp.s 			page 3


 115              		.loc 1 292 0
 116 0068 2A4B     		ldr	r3, .L29+52
 117 006a 9842     		cmp	r0, r3
 118 006c 30D0     		beq	.L23
 119              		.loc 1 297 0
 120 006e 2A4B     		ldr	r3, .L29+56
 121 0070 9842     		cmp	r0, r3
 122 0072 05D0     		beq	.L24
 123              		.loc 1 304 0
 124 0074 294B     		ldr	r3, .L29+60
 125 0076 9842     		cmp	r0, r3
 126 0078 06D0     		beq	.L25
 127              	.L1:
 128              		.loc 1 310 0
 129 007a 5DF8044B 		ldr	r4, [sp], #4
 130              		.cfi_remember_state
 131              		.cfi_restore 4
 132              		.cfi_def_cfa_offset 0
 133 007e 7047     		bx	lr
 134              	.L24:
 135              		.cfi_restore_state
 136              		.loc 1 300 0
 137 0080 274A     		ldr	r2, .L29+64
 138 0082 43F8942C 		str	r2, [r3, #-148]
 139 0086 F8E7     		b	.L1
 140              	.L25:
 141              		.loc 1 307 0
 142 0088 4FF03D52 		mov	r2, #792723456
 143 008c 43F8AC2C 		str	r2, [r3, #-172]
 144              		.loc 1 310 0
 145 0090 F3E7     		b	.L1
 146              	.L19:
 147              		.loc 1 275 0
 148 0092 4FF47462 		mov	r2, #3904
 149 0096 43F8202C 		str	r2, [r3, #-32]
 150              		.loc 1 310 0
 151 009a 5DF8044B 		ldr	r4, [sp], #4
 152              		.cfi_remember_state
 153              		.cfi_restore 4
 154              		.cfi_def_cfa_offset 0
 155 009e 7047     		bx	lr
 156              	.L20:
 157              		.cfi_restore_state
 158              		.loc 1 280 0
 159 00a0 4FF47412 		mov	r2, #3997696
 160 00a4 43F8382C 		str	r2, [r3, #-56]
 161              		.loc 1 310 0
 162 00a8 5DF8044B 		ldr	r4, [sp], #4
 163              		.cfi_remember_state
 164              		.cfi_restore 4
 165              		.cfi_def_cfa_offset 0
 166 00ac 7047     		bx	lr
 167              	.L21:
 168              		.cfi_restore_state
 169              		.loc 1 285 0
 170 00ae 4FF07462 		mov	r2, #255852544
 171 00b2 43F8502C 		str	r2, [r3, #-80]
ARM GAS  /var/tmp//ccM7fHpp.s 			page 4


 172              		.loc 1 310 0
 173 00b6 5DF8044B 		ldr	r4, [sp], #4
 174              		.cfi_remember_state
 175              		.cfi_restore 4
 176              		.cfi_def_cfa_offset 0
 177 00ba 7047     		bx	lr
 178              	.L27:
 179              		.cfi_restore_state
 180              		.loc 1 230 0
 181 00bc 194B     		ldr	r3, .L29+68
 182              		.loc 1 310 0
 183 00be 5DF8044B 		ldr	r4, [sp], #4
 184              		.cfi_remember_state
 185              		.cfi_restore 4
 186              		.cfi_def_cfa_offset 0
 187              		.loc 1 230 0
 188 00c2 3D22     		movs	r2, #61
 189 00c4 9A60     		str	r2, [r3, #8]
 190              		.loc 1 310 0
 191 00c6 7047     		bx	lr
 192              	.L22:
 193              		.cfi_restore_state
 194              		.loc 1 290 0
 195 00c8 174A     		ldr	r2, .L29+72
 196 00ca 43F8642C 		str	r2, [r3, #-100]
 197 00ce D4E7     		b	.L1
 198              	.L23:
 199              		.loc 1 295 0
 200 00d0 164A     		ldr	r2, .L29+76
 201 00d2 43F87C2C 		str	r2, [r3, #-124]
 202 00d6 D0E7     		b	.L1
 203              	.L28:
 204              		.loc 1 270 0
 205 00d8 3D22     		movs	r2, #61
 206 00da 43F8082C 		str	r2, [r3, #-8]
 207 00de CCE7     		b	.L1
 208              	.L30:
 209              		.align	2
 210              	.L29:
 211 00e0 10600240 		.word	1073897488
 212 00e4 28600240 		.word	1073897512
 213 00e8 40600240 		.word	1073897536
 214 00ec 58600240 		.word	1073897560
 215 00f0 70600240 		.word	1073897584
 216 00f4 88600240 		.word	1073897608
 217 00f8 A0600240 		.word	1073897632
 218 00fc B8600240 		.word	1073897656
 219 0100 10640240 		.word	1073898512
 220 0104 28640240 		.word	1073898536
 221 0108 40640240 		.word	1073898560
 222 010c 58640240 		.word	1073898584
 223 0110 70640240 		.word	1073898608
 224 0114 88640240 		.word	1073898632
 225 0118 A0640240 		.word	1073898656
 226 011c B8640240 		.word	1073898680
 227 0120 00003D20 		.word	540868608
 228 0124 00600240 		.word	1073897472
ARM GAS  /var/tmp//ccM7fHpp.s 			page 5


 229 0128 3D000020 		.word	536870973
 230 012c 400F0020 		.word	536874816
 231              		.cfi_endproc
 232              	.LFE112:
 233              		.size	DMA_DeInit, .-DMA_DeInit
 234              		.section	.text.DMA_Init,"ax",%progbits
 235              		.align	1
 236              		.p2align 4,,15
 237              		.global	DMA_Init
 238              		.syntax unified
 239              		.thumb
 240              		.thumb_func
 241              		.fpu fpv4-sp-d16
 242              		.type	DMA_Init, %function
 243              	DMA_Init:
 244              	.LFB113:
 245              		.loc 1 324 0
 246              		.cfi_startproc
 247              		@ args = 0, pretend = 0, frame = 0
 248              		@ frame_needed = 0, uses_anonymous_args = 0
 249              		@ link register save eliminated.
 250              	.LVL1:
 251              		.loc 1 364 0
 252 0000 0B68     		ldr	r3, [r1]
 253              		.loc 1 365 0
 254 0002 CA69     		ldr	r2, [r1, #28]
 255              		.loc 1 324 0
 256 0004 F0B4     		push	{r4, r5, r6, r7}
 257              		.cfi_def_cfa_offset 16
 258              		.cfi_offset 4, -16
 259              		.cfi_offset 5, -12
 260              		.cfi_offset 6, -8
 261              		.cfi_offset 7, -4
 262              		.loc 1 364 0
 263 0006 CE68     		ldr	r6, [r1, #12]
 264 0008 4D69     		ldr	r5, [r1, #20]
 265              		.loc 1 365 0
 266 000a 8C69     		ldr	r4, [r1, #24]
 267              		.loc 1 366 0
 268 000c 0F6A     		ldr	r7, [r1, #32]
 269              		.loc 1 364 0
 270 000e 3343     		orrs	r3, r3, r6
 271 0010 2B43     		orrs	r3, r3, r5
 272              		.loc 1 365 0
 273 0012 2343     		orrs	r3, r3, r4
 274              		.loc 1 366 0
 275 0014 4E6A     		ldr	r6, [r1, #36]
 276              		.loc 1 367 0
 277 0016 8D6A     		ldr	r5, [r1, #40]
 278 0018 4C6B     		ldr	r4, [r1, #52]
 279              		.loc 1 365 0
 280 001a 1343     		orrs	r3, r3, r2
 281              		.loc 1 366 0
 282 001c 3B43     		orrs	r3, r3, r7
 283 001e 3343     		orrs	r3, r3, r6
 284              		.loc 1 368 0
 285 0020 8A6B     		ldr	r2, [r1, #56]
ARM GAS  /var/tmp//ccM7fHpp.s 			page 6


 286              		.loc 1 345 0
 287 0022 0768     		ldr	r7, [r0]
 288              	.LVL2:
 289              		.loc 1 348 0
 290 0024 0B4E     		ldr	r6, .L33
 291              		.loc 1 367 0
 292 0026 2B43     		orrs	r3, r3, r5
 293 0028 2343     		orrs	r3, r3, r4
 294              		.loc 1 348 0
 295 002a 3E40     		ands	r6, r6, r7
 296              	.LVL3:
 297              		.loc 1 368 0
 298 002c 1343     		orrs	r3, r3, r2
 299              		.loc 1 364 0
 300 002e 3343     		orrs	r3, r3, r6
 301              	.LVL4:
 302              		.loc 1 383 0
 303 0030 CD6A     		ldr	r5, [r1, #44]
 304              		.loc 1 371 0
 305 0032 0360     		str	r3, [r0]
 306              		.loc 1 375 0
 307 0034 4269     		ldr	r2, [r0, #20]
 308              	.LVL5:
 309              		.loc 1 383 0
 310 0036 0B6B     		ldr	r3, [r1, #48]
 311              		.loc 1 390 0
 312 0038 0E69     		ldr	r6, [r1, #16]
 313              		.loc 1 394 0
 314 003a 4C68     		ldr	r4, [r1, #4]
 315              		.loc 1 398 0
 316 003c 8968     		ldr	r1, [r1, #8]
 317              	.LVL6:
 318              		.loc 1 383 0
 319 003e 2B43     		orrs	r3, r3, r5
 320              		.loc 1 378 0
 321 0040 22F00702 		bic	r2, r2, #7
 322              	.LVL7:
 323              		.loc 1 383 0
 324 0044 1343     		orrs	r3, r3, r2
 325              	.LVL8:
 326              		.loc 1 386 0
 327 0046 4361     		str	r3, [r0, #20]
 328              		.loc 1 390 0
 329 0048 4660     		str	r6, [r0, #4]
 330              		.loc 1 394 0
 331 004a 8460     		str	r4, [r0, #8]
 332              		.loc 1 398 0
 333 004c C160     		str	r1, [r0, #12]
 334              		.loc 1 399 0
 335 004e F0BC     		pop	{r4, r5, r6, r7}
 336              		.cfi_restore 7
 337              		.cfi_restore 6
 338              		.cfi_restore 5
 339              		.cfi_restore 4
 340              		.cfi_def_cfa_offset 0
 341 0050 7047     		bx	lr
 342              	.L34:
ARM GAS  /var/tmp//ccM7fHpp.s 			page 7


 343 0052 00BF     		.align	2
 344              	.L33:
 345 0054 3F801CF0 		.word	-266567617
 346              		.cfi_endproc
 347              	.LFE113:
 348              		.size	DMA_Init, .-DMA_Init
 349              		.section	.text.DMA_StructInit,"ax",%progbits
 350              		.align	1
 351              		.p2align 4,,15
 352              		.global	DMA_StructInit
 353              		.syntax unified
 354              		.thumb
 355              		.thumb_func
 356              		.fpu fpv4-sp-d16
 357              		.type	DMA_StructInit, %function
 358              	DMA_StructInit:
 359              	.LFB114:
 360              		.loc 1 408 0
 361              		.cfi_startproc
 362              		@ args = 0, pretend = 0, frame = 0
 363              		@ frame_needed = 0, uses_anonymous_args = 0
 364              		@ link register save eliminated.
 365              	.LVL9:
 366              		.loc 1 411 0
 367 0000 0023     		movs	r3, #0
 368 0002 0360     		str	r3, [r0]
 369              		.loc 1 414 0
 370 0004 4360     		str	r3, [r0, #4]
 371              		.loc 1 417 0
 372 0006 8360     		str	r3, [r0, #8]
 373              		.loc 1 420 0
 374 0008 C360     		str	r3, [r0, #12]
 375              		.loc 1 423 0
 376 000a 0361     		str	r3, [r0, #16]
 377              		.loc 1 426 0
 378 000c 4361     		str	r3, [r0, #20]
 379              		.loc 1 429 0
 380 000e 8361     		str	r3, [r0, #24]
 381              		.loc 1 432 0
 382 0010 C361     		str	r3, [r0, #28]
 383              		.loc 1 435 0
 384 0012 0362     		str	r3, [r0, #32]
 385              		.loc 1 438 0
 386 0014 4362     		str	r3, [r0, #36]
 387              		.loc 1 441 0
 388 0016 8362     		str	r3, [r0, #40]
 389              		.loc 1 444 0
 390 0018 C362     		str	r3, [r0, #44]
 391              		.loc 1 447 0
 392 001a 0363     		str	r3, [r0, #48]
 393              		.loc 1 450 0
 394 001c 4363     		str	r3, [r0, #52]
 395              		.loc 1 453 0
 396 001e 8363     		str	r3, [r0, #56]
 397 0020 7047     		bx	lr
 398              		.cfi_endproc
 399              	.LFE114:
ARM GAS  /var/tmp//ccM7fHpp.s 			page 8


 400              		.size	DMA_StructInit, .-DMA_StructInit
 401 0022 00BF     		.section	.text.DMA_Cmd,"ax",%progbits
 402              		.align	1
 403              		.p2align 4,,15
 404              		.global	DMA_Cmd
 405              		.syntax unified
 406              		.thumb
 407              		.thumb_func
 408              		.fpu fpv4-sp-d16
 409              		.type	DMA_Cmd, %function
 410              	DMA_Cmd:
 411              	.LFB115:
 412              		.loc 1 483 0
 413              		.cfi_startproc
 414              		@ args = 0, pretend = 0, frame = 0
 415              		@ frame_needed = 0, uses_anonymous_args = 0
 416              		@ link register save eliminated.
 417              	.LVL10:
 418              		.loc 1 491 0
 419 0000 0368     		ldr	r3, [r0]
 420              		.loc 1 488 0
 421 0002 19B9     		cbnz	r1, .L39
 422              		.loc 1 496 0
 423 0004 23F00103 		bic	r3, r3, #1
 424 0008 0360     		str	r3, [r0]
 425 000a 7047     		bx	lr
 426              	.L39:
 427              		.loc 1 491 0
 428 000c 43F00103 		orr	r3, r3, #1
 429 0010 0360     		str	r3, [r0]
 430 0012 7047     		bx	lr
 431              		.cfi_endproc
 432              	.LFE115:
 433              		.size	DMA_Cmd, .-DMA_Cmd
 434              		.section	.text.DMA_PeriphIncOffsetSizeConfig,"ax",%progbits
 435              		.align	1
 436              		.p2align 4,,15
 437              		.global	DMA_PeriphIncOffsetSizeConfig
 438              		.syntax unified
 439              		.thumb
 440              		.thumb_func
 441              		.fpu fpv4-sp-d16
 442              		.type	DMA_PeriphIncOffsetSizeConfig, %function
 443              	DMA_PeriphIncOffsetSizeConfig:
 444              	.LFB116:
 445              		.loc 1 519 0
 446              		.cfi_startproc
 447              		@ args = 0, pretend = 0, frame = 0
 448              		@ frame_needed = 0, uses_anonymous_args = 0
 449              		@ link register save eliminated.
 450              	.LVL11:
 451              		.loc 1 528 0
 452 0000 0368     		ldr	r3, [r0]
 453              		.loc 1 525 0
 454 0002 19B9     		cbnz	r1, .L43
 455              		.loc 1 533 0
 456 0004 23F40043 		bic	r3, r3, #32768
ARM GAS  /var/tmp//ccM7fHpp.s 			page 9


 457 0008 0360     		str	r3, [r0]
 458 000a 7047     		bx	lr
 459              	.L43:
 460              		.loc 1 528 0
 461 000c 43F40043 		orr	r3, r3, #32768
 462 0010 0360     		str	r3, [r0]
 463 0012 7047     		bx	lr
 464              		.cfi_endproc
 465              	.LFE116:
 466              		.size	DMA_PeriphIncOffsetSizeConfig, .-DMA_PeriphIncOffsetSizeConfig
 467              		.section	.text.DMA_FlowControllerConfig,"ax",%progbits
 468              		.align	1
 469              		.p2align 4,,15
 470              		.global	DMA_FlowControllerConfig
 471              		.syntax unified
 472              		.thumb
 473              		.thumb_func
 474              		.fpu fpv4-sp-d16
 475              		.type	DMA_FlowControllerConfig, %function
 476              	DMA_FlowControllerConfig:
 477              	.LFB117:
 478              		.loc 1 555 0
 479              		.cfi_startproc
 480              		@ args = 0, pretend = 0, frame = 0
 481              		@ frame_needed = 0, uses_anonymous_args = 0
 482              		@ link register save eliminated.
 483              	.LVL12:
 484              		.loc 1 564 0
 485 0000 0368     		ldr	r3, [r0]
 486              		.loc 1 561 0
 487 0002 19B9     		cbnz	r1, .L47
 488              		.loc 1 569 0
 489 0004 23F02003 		bic	r3, r3, #32
 490 0008 0360     		str	r3, [r0]
 491 000a 7047     		bx	lr
 492              	.L47:
 493              		.loc 1 564 0
 494 000c 43F02003 		orr	r3, r3, #32
 495 0010 0360     		str	r3, [r0]
 496 0012 7047     		bx	lr
 497              		.cfi_endproc
 498              	.LFE117:
 499              		.size	DMA_FlowControllerConfig, .-DMA_FlowControllerConfig
 500              		.section	.text.DMA_SetCurrDataCounter,"ax",%progbits
 501              		.align	1
 502              		.p2align 4,,15
 503              		.global	DMA_SetCurrDataCounter
 504              		.syntax unified
 505              		.thumb
 506              		.thumb_func
 507              		.fpu fpv4-sp-d16
 508              		.type	DMA_SetCurrDataCounter, %function
 509              	DMA_SetCurrDataCounter:
 510              	.LFB118:
 511              		.loc 1 637 0
 512              		.cfi_startproc
 513              		@ args = 0, pretend = 0, frame = 0
ARM GAS  /var/tmp//ccM7fHpp.s 			page 10


 514              		@ frame_needed = 0, uses_anonymous_args = 0
 515              		@ link register save eliminated.
 516              	.LVL13:
 517              		.loc 1 642 0
 518 0000 4160     		str	r1, [r0, #4]
 519 0002 7047     		bx	lr
 520              		.cfi_endproc
 521              	.LFE118:
 522              		.size	DMA_SetCurrDataCounter, .-DMA_SetCurrDataCounter
 523              		.section	.text.DMA_GetCurrDataCounter,"ax",%progbits
 524              		.align	1
 525              		.p2align 4,,15
 526              		.global	DMA_GetCurrDataCounter
 527              		.syntax unified
 528              		.thumb
 529              		.thumb_func
 530              		.fpu fpv4-sp-d16
 531              		.type	DMA_GetCurrDataCounter, %function
 532              	DMA_GetCurrDataCounter:
 533              	.LFB119:
 534              		.loc 1 652 0
 535              		.cfi_startproc
 536              		@ args = 0, pretend = 0, frame = 0
 537              		@ frame_needed = 0, uses_anonymous_args = 0
 538              		@ link register save eliminated.
 539              	.LVL14:
 540              		.loc 1 657 0
 541 0000 4068     		ldr	r0, [r0, #4]
 542              	.LVL15:
 543              		.loc 1 658 0
 544 0002 80B2     		uxth	r0, r0
 545 0004 7047     		bx	lr
 546              		.cfi_endproc
 547              	.LFE119:
 548              		.size	DMA_GetCurrDataCounter, .-DMA_GetCurrDataCounter
 549 0006 00BF     		.section	.text.DMA_DoubleBufferModeConfig,"ax",%progbits
 550              		.align	1
 551              		.p2align 4,,15
 552              		.global	DMA_DoubleBufferModeConfig
 553              		.syntax unified
 554              		.thumb
 555              		.thumb_func
 556              		.fpu fpv4-sp-d16
 557              		.type	DMA_DoubleBufferModeConfig, %function
 558              	DMA_DoubleBufferModeConfig:
 559              	.LFB120:
 560              		.loc 1 736 0
 561              		.cfi_startproc
 562              		@ args = 0, pretend = 0, frame = 0
 563              		@ frame_needed = 0, uses_anonymous_args = 0
 564              		@ link register save eliminated.
 565              	.LVL16:
 566              		.loc 1 744 0
 567 0000 0368     		ldr	r3, [r0]
 568              		.loc 1 741 0
 569 0002 22B9     		cbnz	r2, .L53
 570              		.loc 1 749 0
ARM GAS  /var/tmp//ccM7fHpp.s 			page 11


 571 0004 23F40023 		bic	r3, r3, #524288
 572 0008 0360     		str	r3, [r0]
 573              		.loc 1 753 0
 574 000a 0161     		str	r1, [r0, #16]
 575 000c 7047     		bx	lr
 576              	.L53:
 577              		.loc 1 744 0
 578 000e 43F40023 		orr	r3, r3, #524288
 579 0012 0360     		str	r3, [r0]
 580              		.loc 1 753 0
 581 0014 0161     		str	r1, [r0, #16]
 582 0016 7047     		bx	lr
 583              		.cfi_endproc
 584              	.LFE120:
 585              		.size	DMA_DoubleBufferModeConfig, .-DMA_DoubleBufferModeConfig
 586              		.section	.text.DMA_DoubleBufferModeCmd,"ax",%progbits
 587              		.align	1
 588              		.p2align 4,,15
 589              		.global	DMA_DoubleBufferModeCmd
 590              		.syntax unified
 591              		.thumb
 592              		.thumb_func
 593              		.fpu fpv4-sp-d16
 594              		.type	DMA_DoubleBufferModeCmd, %function
 595              	DMA_DoubleBufferModeCmd:
 596              	.LFB121:
 597              		.loc 1 766 0
 598              		.cfi_startproc
 599              		@ args = 0, pretend = 0, frame = 0
 600              		@ frame_needed = 0, uses_anonymous_args = 0
 601              		@ link register save eliminated.
 602              	.LVL17:
 603              		.loc 1 775 0
 604 0000 0368     		ldr	r3, [r0]
 605              		.loc 1 772 0
 606 0002 19B9     		cbnz	r1, .L57
 607              		.loc 1 780 0
 608 0004 23F48023 		bic	r3, r3, #262144
 609 0008 0360     		str	r3, [r0]
 610 000a 7047     		bx	lr
 611              	.L57:
 612              		.loc 1 775 0
 613 000c 43F48023 		orr	r3, r3, #262144
 614 0010 0360     		str	r3, [r0]
 615 0012 7047     		bx	lr
 616              		.cfi_endproc
 617              	.LFE121:
 618              		.size	DMA_DoubleBufferModeCmd, .-DMA_DoubleBufferModeCmd
 619              		.section	.text.DMA_MemoryTargetConfig,"ax",%progbits
 620              		.align	1
 621              		.p2align 4,,15
 622              		.global	DMA_MemoryTargetConfig
 623              		.syntax unified
 624              		.thumb
 625              		.thumb_func
 626              		.fpu fpv4-sp-d16
 627              		.type	DMA_MemoryTargetConfig, %function
ARM GAS  /var/tmp//ccM7fHpp.s 			page 12


 628              	DMA_MemoryTargetConfig:
 629              	.LFB122:
 630              		.loc 1 808 0
 631              		.cfi_startproc
 632              		@ args = 0, pretend = 0, frame = 0
 633              		@ frame_needed = 0, uses_anonymous_args = 0
 634              		@ link register save eliminated.
 635              	.LVL18:
 636              		.loc 1 814 0
 637 0000 0AB9     		cbnz	r2, .L61
 638              		.loc 1 822 0
 639 0002 C160     		str	r1, [r0, #12]
 640 0004 7047     		bx	lr
 641              	.L61:
 642              		.loc 1 817 0
 643 0006 0161     		str	r1, [r0, #16]
 644 0008 7047     		bx	lr
 645              		.cfi_endproc
 646              	.LFE122:
 647              		.size	DMA_MemoryTargetConfig, .-DMA_MemoryTargetConfig
 648 000a 00BF     		.section	.text.DMA_GetCurrentMemoryTarget,"ax",%progbits
 649              		.align	1
 650              		.p2align 4,,15
 651              		.global	DMA_GetCurrentMemoryTarget
 652              		.syntax unified
 653              		.thumb
 654              		.thumb_func
 655              		.fpu fpv4-sp-d16
 656              		.type	DMA_GetCurrentMemoryTarget, %function
 657              	DMA_GetCurrentMemoryTarget:
 658              	.LFB123:
 659              		.loc 1 833 0
 660              		.cfi_startproc
 661              		@ args = 0, pretend = 0, frame = 0
 662              		@ frame_needed = 0, uses_anonymous_args = 0
 663              		@ link register save eliminated.
 664              	.LVL19:
 665              		.loc 1 840 0
 666 0000 0068     		ldr	r0, [r0]
 667              	.LVL20:
 668              		.loc 1 851 0
 669 0002 C0F3C040 		ubfx	r0, r0, #19, #1
 670              	.LVL21:
 671 0006 7047     		bx	lr
 672              		.cfi_endproc
 673              	.LFE123:
 674              		.size	DMA_GetCurrentMemoryTarget, .-DMA_GetCurrentMemoryTarget
 675              		.section	.text.DMA_GetCmdStatus,"ax",%progbits
 676              		.align	1
 677              		.p2align 4,,15
 678              		.global	DMA_GetCmdStatus
 679              		.syntax unified
 680              		.thumb
 681              		.thumb_func
 682              		.fpu fpv4-sp-d16
 683              		.type	DMA_GetCmdStatus, %function
 684              	DMA_GetCmdStatus:
ARM GAS  /var/tmp//ccM7fHpp.s 			page 13


 685              	.LFB124:
 686              		.loc 1 948 0
 687              		.cfi_startproc
 688              		@ args = 0, pretend = 0, frame = 0
 689              		@ frame_needed = 0, uses_anonymous_args = 0
 690              		@ link register save eliminated.
 691              	.LVL22:
 692              		.loc 1 954 0
 693 0000 0068     		ldr	r0, [r0]
 694              	.LVL23:
 695              		.loc 1 966 0
 696 0002 00F00100 		and	r0, r0, #1
 697              	.LVL24:
 698 0006 7047     		bx	lr
 699              		.cfi_endproc
 700              	.LFE124:
 701              		.size	DMA_GetCmdStatus, .-DMA_GetCmdStatus
 702              		.section	.text.DMA_GetFIFOStatus,"ax",%progbits
 703              		.align	1
 704              		.p2align 4,,15
 705              		.global	DMA_GetFIFOStatus
 706              		.syntax unified
 707              		.thumb
 708              		.thumb_func
 709              		.fpu fpv4-sp-d16
 710              		.type	DMA_GetFIFOStatus, %function
 711              	DMA_GetFIFOStatus:
 712              	.LFB125:
 713              		.loc 1 982 0
 714              		.cfi_startproc
 715              		@ args = 0, pretend = 0, frame = 0
 716              		@ frame_needed = 0, uses_anonymous_args = 0
 717              		@ link register save eliminated.
 718              	.LVL25:
 719              		.loc 1 989 0
 720 0000 4069     		ldr	r0, [r0, #20]
 721              	.LVL26:
 722              		.loc 1 992 0
 723 0002 00F03800 		and	r0, r0, #56
 724              	.LVL27:
 725 0006 7047     		bx	lr
 726              		.cfi_endproc
 727              	.LFE125:
 728              		.size	DMA_GetFIFOStatus, .-DMA_GetFIFOStatus
 729              		.section	.text.DMA_GetFlagStatus,"ax",%progbits
 730              		.align	1
 731              		.p2align 4,,15
 732              		.global	DMA_GetFlagStatus
 733              		.syntax unified
 734              		.thumb
 735              		.thumb_func
 736              		.fpu fpv4-sp-d16
 737              		.type	DMA_GetFlagStatus, %function
 738              	DMA_GetFlagStatus:
 739              	.LFB126:
 740              		.loc 1 1009 0
 741              		.cfi_startproc
ARM GAS  /var/tmp//ccM7fHpp.s 			page 14


 742              		@ args = 0, pretend = 0, frame = 0
 743              		@ frame_needed = 0, uses_anonymous_args = 0
 744              		@ link register save eliminated.
 745              	.LVL28:
 746              		.loc 1 1027 0
 747 0000 0B4B     		ldr	r3, .L71
 748 0002 0C4A     		ldr	r2, .L71+4
 749              		.loc 1 1009 0
 750 0004 10B4     		push	{r4}
 751              		.cfi_def_cfa_offset 4
 752              		.cfi_offset 4, -4
 753              		.loc 1 1019 0
 754 0006 0C4C     		ldr	r4, .L71+8
 755              		.loc 1 1027 0
 756 0008 A042     		cmp	r0, r4
 757 000a 94BF     		ite	ls
 758 000c 1846     		movls	r0, r3
 759 000e 1046     		movhi	r0, r2
 760              	.LVL29:
 761              		.loc 1 1031 0
 762 0010 8B00     		lsls	r3, r1, #2
 763              		.loc 1 1034 0
 764 0012 4CBF     		ite	mi
 765 0014 4368     		ldrmi	r3, [r0, #4]
 766              	.LVL30:
 767              		.loc 1 1039 0
 768 0016 0368     		ldrpl	r3, [r0]
 769              	.LVL31:
 770              		.loc 1 1059 0
 771 0018 5DF8044B 		ldr	r4, [sp], #4
 772              		.cfi_restore 4
 773              		.cfi_def_cfa_offset 0
 774              		.loc 1 1046 0
 775 001c 21F0F021 		bic	r1, r1, #-268374016
 776              	.LVL32:
 777 0020 21F08211 		bic	r1, r1, #8519810
 778 0024 1942     		tst	r1, r3
 779              		.loc 1 1059 0
 780 0026 14BF     		ite	ne
 781 0028 0120     		movne	r0, #1
 782              	.LVL33:
 783 002a 0020     		moveq	r0, #0
 784 002c 7047     		bx	lr
 785              	.L72:
 786 002e 00BF     		.align	2
 787              	.L71:
 788 0030 00600240 		.word	1073897472
 789 0034 00640240 		.word	1073898496
 790 0038 0F640240 		.word	1073898511
 791              		.cfi_endproc
 792              	.LFE126:
 793              		.size	DMA_GetFlagStatus, .-DMA_GetFlagStatus
 794              		.section	.text.DMA_ITConfig,"ax",%progbits
 795              		.align	1
 796              		.p2align 4,,15
 797              		.global	DMA_ITConfig
 798              		.syntax unified
ARM GAS  /var/tmp//ccM7fHpp.s 			page 15


 799              		.thumb
 800              		.thumb_func
 801              		.fpu fpv4-sp-d16
 802              		.type	DMA_ITConfig, %function
 803              	DMA_ITConfig:
 804              	.LFB128:
 805              		.loc 1 1123 0
 806              		.cfi_startproc
 807              		@ args = 0, pretend = 0, frame = 0
 808              		@ frame_needed = 0, uses_anonymous_args = 0
 809              		@ link register save eliminated.
 810              	.LVL34:
 811              		.loc 1 1130 0
 812 0000 0B06     		lsls	r3, r1, #24
 813 0002 0CD5     		bpl	.L74
 814              		.loc 1 1135 0
 815 0004 4369     		ldr	r3, [r0, #20]
 816              		.loc 1 1132 0
 817 0006 AAB1     		cbz	r2, .L75
 818              		.loc 1 1135 0
 819 0008 43F08003 		orr	r3, r3, #128
 820              		.loc 1 1145 0
 821 000c 8029     		cmp	r1, #128
 822              		.loc 1 1135 0
 823 000e 4361     		str	r3, [r0, #20]
 824              		.loc 1 1145 0
 825 0010 0FD0     		beq	.L73
 826              	.L76:
 827              		.loc 1 1150 0
 828 0012 0368     		ldr	r3, [r0]
 829 0014 01F01E01 		and	r1, r1, #30
 830              	.LVL35:
 831 0018 1943     		orrs	r1, r1, r3
 832 001a 0160     		str	r1, [r0]
 833 001c 7047     		bx	lr
 834              	.LVL36:
 835              	.L74:
 836              		.loc 1 1145 0
 837 001e 8029     		cmp	r1, #128
 838 0020 07D0     		beq	.L73
 839              		.loc 1 1147 0
 840 0022 002A     		cmp	r2, #0
 841 0024 F5D1     		bne	.L76
 842              	.L78:
 843              		.loc 1 1155 0
 844 0026 0368     		ldr	r3, [r0]
 845 0028 01F01E01 		and	r1, r1, #30
 846              	.LVL37:
 847 002c 23EA0101 		bic	r1, r3, r1
 848 0030 0160     		str	r1, [r0]
 849              	.L73:
 850 0032 7047     		bx	lr
 851              	.LVL38:
 852              	.L75:
 853              		.loc 1 1140 0
 854 0034 23F08003 		bic	r3, r3, #128
 855              		.loc 1 1145 0
ARM GAS  /var/tmp//ccM7fHpp.s 			page 16


 856 0038 8029     		cmp	r1, #128
 857              		.loc 1 1140 0
 858 003a 4361     		str	r3, [r0, #20]
 859              		.loc 1 1145 0
 860 003c F3D1     		bne	.L78
 861 003e 7047     		bx	lr
 862              		.cfi_endproc
 863              	.LFE128:
 864              		.size	DMA_ITConfig, .-DMA_ITConfig
 865              		.section	.text.DMA_GetITStatus,"ax",%progbits
 866              		.align	1
 867              		.p2align 4,,15
 868              		.global	DMA_GetITStatus
 869              		.syntax unified
 870              		.thumb
 871              		.thumb_func
 872              		.fpu fpv4-sp-d16
 873              		.type	DMA_GetITStatus, %function
 874              	DMA_GetITStatus:
 875              	.LFB129:
 876              		.loc 1 1175 0
 877              		.cfi_startproc
 878              		@ args = 0, pretend = 0, frame = 0
 879              		@ frame_needed = 0, uses_anonymous_args = 0
 880              		@ link register save eliminated.
 881              	.LVL39:
 882 0000 30B4     		push	{r4, r5}
 883              		.cfi_def_cfa_offset 8
 884              		.cfi_offset 4, -8
 885              		.cfi_offset 5, -4
 886              		.loc 1 1193 0
 887 0002 114B     		ldr	r3, .L93
 888              		.loc 1 1185 0
 889 0004 114D     		ldr	r5, .L93+4
 890              		.loc 1 1193 0
 891 0006 124A     		ldr	r2, .L93+8
 892              		.loc 1 1197 0
 893 0008 21F0F024 		bic	r4, r1, #-268374016
 894 000c 24F0C314 		bic	r4, r4, #12779715
 895              		.loc 1 1193 0
 896 0010 A842     		cmp	r0, r5
 897 0012 98BF     		it	ls
 898 0014 1A46     		movls	r2, r3
 899              	.LVL40:
 900              		.loc 1 1197 0
 901 0016 9CB1     		cbz	r4, .L85
 902              	.LVL41:
 903              		.loc 1 1203 0
 904 0018 0068     		ldr	r0, [r0]
 905              	.LVL42:
 906              		.loc 1 1200 0
 907 001a 00EAD120 		and	r0, r0, r1, lsr #11
 908              		.loc 1 1203 0
 909 001e 00F01E03 		and	r3, r0, #30
 910              	.LVL43:
 911              	.L86:
 912              		.loc 1 1212 0
ARM GAS  /var/tmp//ccM7fHpp.s 			page 17


 913 0022 8800     		lsls	r0, r1, #2
 914              		.loc 1 1215 0
 915 0024 4CBF     		ite	mi
 916 0026 5068     		ldrmi	r0, [r2, #4]
 917              	.LVL44:
 918              		.loc 1 1220 0
 919 0028 1068     		ldrpl	r0, [r2]
 920              	.LVL45:
 921              		.loc 1 1227 0
 922 002a 21F0F021 		bic	r1, r1, #-268374016
 923              	.LVL46:
 924 002e 21F08211 		bic	r1, r1, #8519810
 925 0032 0840     		ands	r0, r1, r0
 926              	.LVL47:
 927 0034 02D0     		beq	.L89
 928              		.loc 1 1227 0 is_stmt 0 discriminator 1
 929 0036 181C     		adds	r0, r3, #0
 930 0038 18BF     		it	ne
 931 003a 0120     		movne	r0, #1
 932              	.L89:
 933              	.LVL48:
 934              		.loc 1 1240 0 is_stmt 1
 935 003c 30BC     		pop	{r4, r5}
 936              		.cfi_remember_state
 937              		.cfi_restore 5
 938              		.cfi_restore 4
 939              		.cfi_def_cfa_offset 0
 940 003e 7047     		bx	lr
 941              	.LVL49:
 942              	.L85:
 943              		.cfi_restore_state
 944              		.loc 1 1208 0
 945 0040 4369     		ldr	r3, [r0, #20]
 946 0042 03F08003 		and	r3, r3, #128
 947              	.LVL50:
 948 0046 ECE7     		b	.L86
 949              	.L94:
 950              		.align	2
 951              	.L93:
 952 0048 00600240 		.word	1073897472
 953 004c 0F640240 		.word	1073898511
 954 0050 00640240 		.word	1073898496
 955              		.cfi_endproc
 956              	.LFE129:
 957              		.size	DMA_GetITStatus, .-DMA_GetITStatus
 958              		.section	.text.DMA_ClearITPendingBit,"ax",%progbits
 959              		.align	1
 960              		.p2align 4,,15
 961              		.global	DMA_ClearITPendingBit
 962              		.syntax unified
 963              		.thumb
 964              		.thumb_func
 965              		.fpu fpv4-sp-d16
 966              		.type	DMA_ClearITPendingBit, %function
 967              	DMA_ClearITPendingBit:
 968              	.LFB130:
 969              		.loc 1 1257 0
ARM GAS  /var/tmp//ccM7fHpp.s 			page 18


 970              		.cfi_startproc
 971              		@ args = 0, pretend = 0, frame = 0
 972              		@ frame_needed = 0, uses_anonymous_args = 0
 973              		@ link register save eliminated.
 974              	.LVL51:
 975 0000 10B4     		push	{r4}
 976              		.cfi_def_cfa_offset 4
 977              		.cfi_offset 4, -4
 978              		.loc 1 1273 0
 979 0002 094B     		ldr	r3, .L101
 980              		.loc 1 1265 0
 981 0004 094C     		ldr	r4, .L101+4
 982              		.loc 1 1273 0
 983 0006 0A4A     		ldr	r2, .L101+8
 984 0008 A042     		cmp	r0, r4
 985 000a 94BF     		ite	ls
 986 000c 1846     		movls	r0, r3
 987 000e 1046     		movhi	r0, r2
 988              	.LVL52:
 989              		.loc 1 1277 0
 990 0010 11F0005F 		tst	r1, #536870912
 991              		.loc 1 1280 0
 992 0014 21F0F021 		bic	r1, r1, #-268374016
 993              	.LVL53:
 994 0018 21F08211 		bic	r1, r1, #8519810
 995 001c 14BF     		ite	ne
 996 001e C160     		strne	r1, [r0, #12]
 997              		.loc 1 1285 0
 998 0020 8160     		streq	r1, [r0, #8]
 999              		.loc 1 1287 0
 1000 0022 5DF8044B 		ldr	r4, [sp], #4
 1001              		.cfi_restore 4
 1002              		.cfi_def_cfa_offset 0
 1003 0026 7047     		bx	lr
 1004              	.L102:
 1005              		.align	2
 1006              	.L101:
 1007 0028 00600240 		.word	1073897472
 1008 002c 0F640240 		.word	1073898511
 1009 0030 00640240 		.word	1073898496
 1010              		.cfi_endproc
 1011              	.LFE130:
 1012              		.size	DMA_ClearITPendingBit, .-DMA_ClearITPendingBit
 1013              		.section	.text.DMA_ClearFlag,"ax",%progbits
 1014              		.align	1
 1015              		.p2align 4,,15
 1016              		.global	DMA_ClearFlag
 1017              		.syntax unified
 1018              		.thumb
 1019              		.thumb_func
 1020              		.fpu fpv4-sp-d16
 1021              		.type	DMA_ClearFlag, %function
 1022              	DMA_ClearFlag:
 1023              	.LFB132:
 1024              		.cfi_startproc
 1025              		@ args = 0, pretend = 0, frame = 0
 1026              		@ frame_needed = 0, uses_anonymous_args = 0
ARM GAS  /var/tmp//ccM7fHpp.s 			page 19


 1027              		@ link register save eliminated.
 1028 0000 FFF7FEBF 		b	DMA_ClearITPendingBit
 1029              		.cfi_endproc
 1030              	.LFE132:
 1031              		.size	DMA_ClearFlag, .-DMA_ClearFlag
 1032              		.text
 1033              	.Letext0:
 1034              		.file 2 "/usr/local/gcc_arm/gcc-arm-none-eabi-6-2017-q2-update/arm-none-eabi/include/machine/_defa
 1035              		.file 3 "/usr/local/gcc_arm/gcc-arm-none-eabi-6-2017-q2-update/arm-none-eabi/include/sys/_stdint.h
 1036              		.file 4 "ChibiOS_3.0.2/os/ext/CMSIS/include/core_cm4.h"
 1037              		.file 5 "ChibiOS_3.0.2/os/ext/CMSIS/ST/system_stm32f4xx.h"
 1038              		.file 6 "ChibiOS_3.0.2/os/ext/CMSIS/ST/stm32f407xx.h"
 1039              		.file 7 "ChibiOS_3.0.2/os/ext/CMSIS/ST/stm32f4xx.h"
 1040              		.file 8 "ChibiOS_3.0.2/ext/stdperiph_stm32f4/inc/stm32f4xx_dma.h"
 1041              		.section	.debug_info,"",%progbits
 1042              	.Ldebug_info0:
 1043 0000 2F070000 		.4byte	0x72f
 1044 0004 0400     		.2byte	0x4
 1045 0006 00000000 		.4byte	.Ldebug_abbrev0
 1046 000a 04       		.byte	0x4
 1047 000b 01       		.uleb128 0x1
 1048 000c 64020000 		.4byte	.LASF83
 1049 0010 0C       		.byte	0xc
 1050 0011 24010000 		.4byte	.LASF84
 1051 0015 C2050000 		.4byte	.LASF85
 1052 0019 00000000 		.4byte	.Ldebug_ranges0+0
 1053 001d 00000000 		.4byte	0
 1054 0021 00000000 		.4byte	.Ldebug_line0
 1055 0025 02       		.uleb128 0x2
 1056 0026 01       		.byte	0x1
 1057 0027 06       		.byte	0x6
 1058 0028 29000000 		.4byte	.LASF0
 1059 002c 02       		.uleb128 0x2
 1060 002d 01       		.byte	0x1
 1061 002e 08       		.byte	0x8
 1062 002f 56020000 		.4byte	.LASF1
 1063 0033 02       		.uleb128 0x2
 1064 0034 02       		.byte	0x2
 1065 0035 05       		.byte	0x5
 1066 0036 1A010000 		.4byte	.LASF2
 1067 003a 03       		.uleb128 0x3
 1068 003b AC000000 		.4byte	.LASF4
 1069 003f 02       		.byte	0x2
 1070 0040 39       		.byte	0x39
 1071 0041 45000000 		.4byte	0x45
 1072 0045 02       		.uleb128 0x2
 1073 0046 02       		.byte	0x2
 1074 0047 07       		.byte	0x7
 1075 0048 31040000 		.4byte	.LASF3
 1076 004c 03       		.uleb128 0x3
 1077 004d 31050000 		.4byte	.LASF5
 1078 0051 02       		.byte	0x2
 1079 0052 4D       		.byte	0x4d
 1080 0053 57000000 		.4byte	0x57
 1081 0057 02       		.uleb128 0x2
 1082 0058 04       		.byte	0x4
 1083 0059 05       		.byte	0x5
ARM GAS  /var/tmp//ccM7fHpp.s 			page 20


 1084 005a DB010000 		.4byte	.LASF6
 1085 005e 03       		.uleb128 0x3
 1086 005f 8F000000 		.4byte	.LASF7
 1087 0063 02       		.byte	0x2
 1088 0064 4F       		.byte	0x4f
 1089 0065 69000000 		.4byte	0x69
 1090 0069 02       		.uleb128 0x2
 1091 006a 04       		.byte	0x4
 1092 006b 07       		.byte	0x7
 1093 006c 05040000 		.4byte	.LASF8
 1094 0070 02       		.uleb128 0x2
 1095 0071 08       		.byte	0x8
 1096 0072 05       		.byte	0x5
 1097 0073 7D010000 		.4byte	.LASF9
 1098 0077 02       		.uleb128 0x2
 1099 0078 08       		.byte	0x8
 1100 0079 07       		.byte	0x7
 1101 007a B2030000 		.4byte	.LASF10
 1102 007e 04       		.uleb128 0x4
 1103 007f 04       		.byte	0x4
 1104 0080 05       		.byte	0x5
 1105 0081 696E7400 		.ascii	"int\000"
 1106 0085 02       		.uleb128 0x2
 1107 0086 04       		.byte	0x4
 1108 0087 07       		.byte	0x7
 1109 0088 DF030000 		.4byte	.LASF11
 1110 008c 03       		.uleb128 0x3
 1111 008d FC030000 		.4byte	.LASF12
 1112 0091 03       		.byte	0x3
 1113 0092 24       		.byte	0x24
 1114 0093 3A000000 		.4byte	0x3a
 1115 0097 03       		.uleb128 0x3
 1116 0098 66040000 		.4byte	.LASF13
 1117 009c 03       		.byte	0x3
 1118 009d 2C       		.byte	0x2c
 1119 009e 4C000000 		.4byte	0x4c
 1120 00a2 05       		.uleb128 0x5
 1121 00a3 97000000 		.4byte	0x97
 1122 00a7 03       		.uleb128 0x3
 1123 00a8 D6030000 		.4byte	.LASF14
 1124 00ac 03       		.byte	0x3
 1125 00ad 30       		.byte	0x30
 1126 00ae 5E000000 		.4byte	0x5e
 1127 00b2 05       		.uleb128 0x5
 1128 00b3 A7000000 		.4byte	0xa7
 1129 00b7 02       		.uleb128 0x2
 1130 00b8 04       		.byte	0x4
 1131 00b9 07       		.byte	0x7
 1132 00ba 5B000000 		.4byte	.LASF15
 1133 00be 06       		.uleb128 0x6
 1134 00bf 98050000 		.4byte	.LASF16
 1135 00c3 04       		.byte	0x4
 1136 00c4 A706     		.2byte	0x6a7
 1137 00c6 A2000000 		.4byte	0xa2
 1138 00ca 07       		.uleb128 0x7
 1139 00cb 8D040000 		.4byte	.LASF17
 1140 00cf 05       		.byte	0x5
ARM GAS  /var/tmp//ccM7fHpp.s 			page 21


 1141 00d0 4C       		.byte	0x4c
 1142 00d1 A7000000 		.4byte	0xa7
 1143 00d5 08       		.uleb128 0x8
 1144 00d6 18       		.byte	0x18
 1145 00d7 06       		.byte	0x6
 1146 00d8 6B01     		.2byte	0x16b
 1147 00da 2C010000 		.4byte	0x12c
 1148 00de 09       		.uleb128 0x9
 1149 00df 435200   		.ascii	"CR\000"
 1150 00e2 06       		.byte	0x6
 1151 00e3 6D01     		.2byte	0x16d
 1152 00e5 B2000000 		.4byte	0xb2
 1153 00e9 00       		.byte	0
 1154 00ea 0A       		.uleb128 0xa
 1155 00eb F3040000 		.4byte	.LASF18
 1156 00ef 06       		.byte	0x6
 1157 00f0 6E01     		.2byte	0x16e
 1158 00f2 B2000000 		.4byte	0xb2
 1159 00f6 04       		.byte	0x4
 1160 00f7 09       		.uleb128 0x9
 1161 00f8 50415200 		.ascii	"PAR\000"
 1162 00fc 06       		.byte	0x6
 1163 00fd 6F01     		.2byte	0x16f
 1164 00ff B2000000 		.4byte	0xb2
 1165 0103 08       		.byte	0x8
 1166 0104 0A       		.uleb128 0xa
 1167 0105 D3040000 		.4byte	.LASF19
 1168 0109 06       		.byte	0x6
 1169 010a 7001     		.2byte	0x170
 1170 010c B2000000 		.4byte	0xb2
 1171 0110 0C       		.byte	0xc
 1172 0111 0A       		.uleb128 0xa
 1173 0112 44040000 		.4byte	.LASF20
 1174 0116 06       		.byte	0x6
 1175 0117 7101     		.2byte	0x171
 1176 0119 B2000000 		.4byte	0xb2
 1177 011d 10       		.byte	0x10
 1178 011e 09       		.uleb128 0x9
 1179 011f 46435200 		.ascii	"FCR\000"
 1180 0123 06       		.byte	0x6
 1181 0124 7201     		.2byte	0x172
 1182 0126 B2000000 		.4byte	0xb2
 1183 012a 14       		.byte	0x14
 1184 012b 00       		.byte	0
 1185 012c 0B       		.uleb128 0xb
 1186 012d 35000000 		.4byte	.LASF21
 1187 0131 06       		.byte	0x6
 1188 0132 7301     		.2byte	0x173
 1189 0134 D5000000 		.4byte	0xd5
 1190 0138 08       		.uleb128 0x8
 1191 0139 10       		.byte	0x10
 1192 013a 06       		.byte	0x6
 1193 013b 7501     		.2byte	0x175
 1194 013d 76010000 		.4byte	0x176
 1195 0141 0A       		.uleb128 0xa
 1196 0142 ED010000 		.4byte	.LASF22
 1197 0146 06       		.byte	0x6
ARM GAS  /var/tmp//ccM7fHpp.s 			page 22


 1198 0147 7701     		.2byte	0x177
 1199 0149 B2000000 		.4byte	0xb2
 1200 014d 00       		.byte	0
 1201 014e 0A       		.uleb128 0xa
 1202 014f D6010000 		.4byte	.LASF23
 1203 0153 06       		.byte	0x6
 1204 0154 7801     		.2byte	0x178
 1205 0156 B2000000 		.4byte	0xb2
 1206 015a 04       		.byte	0x4
 1207 015b 0A       		.uleb128 0xa
 1208 015c CD040000 		.4byte	.LASF24
 1209 0160 06       		.byte	0x6
 1210 0161 7901     		.2byte	0x179
 1211 0163 B2000000 		.4byte	0xb2
 1212 0167 08       		.byte	0x8
 1213 0168 0A       		.uleb128 0xa
 1214 0169 77010000 		.4byte	.LASF25
 1215 016d 06       		.byte	0x6
 1216 016e 7A01     		.2byte	0x17a
 1217 0170 B2000000 		.4byte	0xb2
 1218 0174 0C       		.byte	0xc
 1219 0175 00       		.byte	0
 1220 0176 0B       		.uleb128 0xb
 1221 0177 D9000000 		.4byte	.LASF26
 1222 017b 06       		.byte	0x6
 1223 017c 7B01     		.2byte	0x17b
 1224 017e 38010000 		.4byte	0x138
 1225 0182 0C       		.uleb128 0xc
 1226 0183 01       		.byte	0x1
 1227 0184 2C000000 		.4byte	0x2c
 1228 0188 07       		.byte	0x7
 1229 0189 A2       		.byte	0xa2
 1230 018a 9B010000 		.4byte	0x19b
 1231 018e 0D       		.uleb128 0xd
 1232 018f 46050000 		.4byte	.LASF27
 1233 0193 00       		.byte	0
 1234 0194 0E       		.uleb128 0xe
 1235 0195 53455400 		.ascii	"SET\000"
 1236 0199 01       		.byte	0x1
 1237 019a 00       		.byte	0
 1238 019b 03       		.uleb128 0x3
 1239 019c B7050000 		.4byte	.LASF28
 1240 01a0 07       		.byte	0x7
 1241 01a1 A5       		.byte	0xa5
 1242 01a2 82010000 		.4byte	0x182
 1243 01a6 03       		.uleb128 0x3
 1244 01a7 CD010000 		.4byte	.LASF29
 1245 01ab 07       		.byte	0x7
 1246 01ac A5       		.byte	0xa5
 1247 01ad 82010000 		.4byte	0x182
 1248 01b1 0C       		.uleb128 0xc
 1249 01b2 01       		.byte	0x1
 1250 01b3 2C000000 		.4byte	0x2c
 1251 01b7 07       		.byte	0x7
 1252 01b8 A8       		.byte	0xa8
 1253 01b9 CA010000 		.4byte	0x1ca
 1254 01bd 0D       		.uleb128 0xd
ARM GAS  /var/tmp//ccM7fHpp.s 			page 23


 1255 01be 12010000 		.4byte	.LASF30
 1256 01c2 00       		.byte	0
 1257 01c3 0D       		.uleb128 0xd
 1258 01c4 0D060000 		.4byte	.LASF31
 1259 01c8 01       		.byte	0x1
 1260 01c9 00       		.byte	0
 1261 01ca 03       		.uleb128 0x3
 1262 01cb F8040000 		.4byte	.LASF32
 1263 01cf 07       		.byte	0x7
 1264 01d0 AB       		.byte	0xab
 1265 01d1 B1010000 		.4byte	0x1b1
 1266 01d5 0F       		.uleb128 0xf
 1267 01d6 3C       		.byte	0x3c
 1268 01d7 08       		.byte	0x8
 1269 01d8 36       		.byte	0x36
 1270 01d9 92020000 		.4byte	0x292
 1271 01dd 10       		.uleb128 0x10
 1272 01de 25050000 		.4byte	.LASF33
 1273 01e2 08       		.byte	0x8
 1274 01e3 38       		.byte	0x38
 1275 01e4 A7000000 		.4byte	0xa7
 1276 01e8 00       		.byte	0
 1277 01e9 10       		.uleb128 0x10
 1278 01ea FB000000 		.4byte	.LASF34
 1279 01ee 08       		.byte	0x8
 1280 01ef 3B       		.byte	0x3b
 1281 01f0 A7000000 		.4byte	0xa7
 1282 01f4 04       		.byte	0x4
 1283 01f5 10       		.uleb128 0x10
 1284 01f6 4C050000 		.4byte	.LASF35
 1285 01fa 08       		.byte	0x8
 1286 01fb 3D       		.byte	0x3d
 1287 01fc A7000000 		.4byte	0xa7
 1288 0200 08       		.byte	0x8
 1289 0201 10       		.uleb128 0x10
 1290 0202 EA000000 		.4byte	.LASF36
 1291 0206 08       		.byte	0x8
 1292 0207 41       		.byte	0x41
 1293 0208 A7000000 		.4byte	0xa7
 1294 020c 0C       		.byte	0xc
 1295 020d 10       		.uleb128 0x10
 1296 020e 88030000 		.4byte	.LASF37
 1297 0212 08       		.byte	0x8
 1298 0213 45       		.byte	0x45
 1299 0214 A7000000 		.4byte	0xa7
 1300 0218 10       		.byte	0x10
 1301 0219 10       		.uleb128 0x10
 1302 021a BB010000 		.4byte	.LASF38
 1303 021e 08       		.byte	0x8
 1304 021f 49       		.byte	0x49
 1305 0220 A7000000 		.4byte	0xa7
 1306 0224 14       		.byte	0x14
 1307 0225 10       		.uleb128 0x10
 1308 0226 5C010000 		.4byte	.LASF39
 1309 022a 08       		.byte	0x8
 1310 022b 4C       		.byte	0x4c
 1311 022c A7000000 		.4byte	0xa7
ARM GAS  /var/tmp//ccM7fHpp.s 			page 24


 1312 0230 18       		.byte	0x18
 1313 0231 10       		.uleb128 0x10
 1314 0232 2F020000 		.4byte	.LASF40
 1315 0236 08       		.byte	0x8
 1316 0237 4F       		.byte	0x4f
 1317 0238 A7000000 		.4byte	0xa7
 1318 023c 1C       		.byte	0x1c
 1319 023d 10       		.uleb128 0x10
 1320 023e 21060000 		.4byte	.LASF41
 1321 0242 08       		.byte	0x8
 1322 0243 52       		.byte	0x52
 1323 0244 A7000000 		.4byte	0xa7
 1324 0248 20       		.byte	0x20
 1325 0249 10       		.uleb128 0x10
 1326 024a 78050000 		.4byte	.LASF42
 1327 024e 08       		.byte	0x8
 1328 024f 55       		.byte	0x55
 1329 0250 A7000000 		.4byte	0xa7
 1330 0254 24       		.byte	0x24
 1331 0255 10       		.uleb128 0x10
 1332 0256 4E000000 		.4byte	.LASF43
 1333 025a 08       		.byte	0x8
 1334 025b 5A       		.byte	0x5a
 1335 025c A7000000 		.4byte	0xa7
 1336 0260 28       		.byte	0x28
 1337 0261 10       		.uleb128 0x10
 1338 0262 18050000 		.4byte	.LASF44
 1339 0266 08       		.byte	0x8
 1340 0267 5D       		.byte	0x5d
 1341 0268 A7000000 		.4byte	0xa7
 1342 026c 2C       		.byte	0x2c
 1343 026d 10       		.uleb128 0x10
 1344 026e A5050000 		.4byte	.LASF45
 1345 0272 08       		.byte	0x8
 1346 0273 62       		.byte	0x62
 1347 0274 A7000000 		.4byte	0xa7
 1348 0278 30       		.byte	0x30
 1349 0279 10       		.uleb128 0x10
 1350 027a 49040000 		.4byte	.LASF46
 1351 027e 08       		.byte	0x8
 1352 027f 65       		.byte	0x65
 1353 0280 A7000000 		.4byte	0xa7
 1354 0284 34       		.byte	0x34
 1355 0285 10       		.uleb128 0x10
 1356 0286 7B000000 		.4byte	.LASF47
 1357 028a 08       		.byte	0x8
 1358 028b 6A       		.byte	0x6a
 1359 028c A7000000 		.4byte	0xa7
 1360 0290 38       		.byte	0x38
 1361 0291 00       		.byte	0
 1362 0292 03       		.uleb128 0x3
 1363 0293 46020000 		.4byte	.LASF48
 1364 0297 08       		.byte	0x8
 1365 0298 6E       		.byte	0x6e
 1366 0299 D5010000 		.4byte	0x1d5
 1367 029d 11       		.uleb128 0x11
 1368 029e 77040000 		.4byte	.LASF55
ARM GAS  /var/tmp//ccM7fHpp.s 			page 25


 1369 02a2 01       		.byte	0x1
 1370 02a3 E804     		.2byte	0x4e8
 1371 02a5 00000000 		.4byte	.LFB130
 1372 02a9 34000000 		.4byte	.LFE130-.LFB130
 1373 02ad 01       		.uleb128 0x1
 1374 02ae 9C       		.byte	0x9c
 1375 02af E2020000 		.4byte	0x2e2
 1376 02b3 12       		.uleb128 0x12
 1377 02b4 C9030000 		.4byte	.LASF49
 1378 02b8 01       		.byte	0x1
 1379 02b9 E804     		.2byte	0x4e8
 1380 02bb E2020000 		.4byte	0x2e2
 1381 02bf 00000000 		.4byte	.LLST20
 1382 02c3 12       		.uleb128 0x12
 1383 02c4 17020000 		.4byte	.LASF50
 1384 02c8 01       		.byte	0x1
 1385 02c9 E804     		.2byte	0x4e8
 1386 02cb A7000000 		.4byte	0xa7
 1387 02cf 21000000 		.4byte	.LLST21
 1388 02d3 13       		.uleb128 0x13
 1389 02d4 E5000000 		.4byte	.LASF51
 1390 02d8 01       		.byte	0x1
 1391 02d9 EA04     		.2byte	0x4ea
 1392 02db E8020000 		.4byte	0x2e8
 1393 02df 01       		.uleb128 0x1
 1394 02e0 50       		.byte	0x50
 1395 02e1 00       		.byte	0
 1396 02e2 14       		.uleb128 0x14
 1397 02e3 04       		.byte	0x4
 1398 02e4 2C010000 		.4byte	0x12c
 1399 02e8 14       		.uleb128 0x14
 1400 02e9 04       		.byte	0x4
 1401 02ea 76010000 		.4byte	0x176
 1402 02ee 15       		.uleb128 0x15
 1403 02ef EC030000 		.4byte	.LASF59
 1404 02f3 01       		.byte	0x1
 1405 02f4 9604     		.2byte	0x496
 1406 02f6 A6010000 		.4byte	0x1a6
 1407 02fa 00000000 		.4byte	.LFB129
 1408 02fe 54000000 		.4byte	.LFE129-.LFB129
 1409 0302 01       		.uleb128 0x1
 1410 0303 9C       		.byte	0x9c
 1411 0304 67030000 		.4byte	0x367
 1412 0308 12       		.uleb128 0x12
 1413 0309 C9030000 		.4byte	.LASF49
 1414 030d 01       		.byte	0x1
 1415 030e 9604     		.2byte	0x496
 1416 0310 E2020000 		.4byte	0x2e2
 1417 0314 42000000 		.4byte	.LLST15
 1418 0318 12       		.uleb128 0x12
 1419 0319 17020000 		.4byte	.LASF50
 1420 031d 01       		.byte	0x1
 1421 031e 9604     		.2byte	0x496
 1422 0320 A7000000 		.4byte	0xa7
 1423 0324 6E000000 		.4byte	.LLST16
 1424 0328 16       		.uleb128 0x16
 1425 0329 25020000 		.4byte	.LASF52
ARM GAS  /var/tmp//ccM7fHpp.s 			page 26


 1426 032d 01       		.byte	0x1
 1427 032e 9804     		.2byte	0x498
 1428 0330 A6010000 		.4byte	0x1a6
 1429 0334 9A000000 		.4byte	.LLST17
 1430 0338 13       		.uleb128 0x13
 1431 0339 E5000000 		.4byte	.LASF51
 1432 033d 01       		.byte	0x1
 1433 033e 9904     		.2byte	0x499
 1434 0340 E8020000 		.4byte	0x2e8
 1435 0344 01       		.uleb128 0x1
 1436 0345 52       		.byte	0x52
 1437 0346 16       		.uleb128 0x16
 1438 0347 1E020000 		.4byte	.LASF53
 1439 034b 01       		.byte	0x1
 1440 034c 9A04     		.2byte	0x49a
 1441 034e A7000000 		.4byte	0xa7
 1442 0352 C5000000 		.4byte	.LLST18
 1443 0356 16       		.uleb128 0x16
 1444 0357 6A010000 		.4byte	.LASF54
 1445 035b 01       		.byte	0x1
 1446 035c 9A04     		.2byte	0x49a
 1447 035e A7000000 		.4byte	0xa7
 1448 0362 14010000 		.4byte	.LLST19
 1449 0366 00       		.byte	0
 1450 0367 11       		.uleb128 0x11
 1451 0368 14060000 		.4byte	.LASF56
 1452 036c 01       		.byte	0x1
 1453 036d 6204     		.2byte	0x462
 1454 036f 00000000 		.4byte	.LFB128
 1455 0373 40000000 		.4byte	.LFE128-.LFB128
 1456 0377 01       		.uleb128 0x1
 1457 0378 9C       		.byte	0x9c
 1458 0379 AA030000 		.4byte	0x3aa
 1459 037d 17       		.uleb128 0x17
 1460 037e C9030000 		.4byte	.LASF49
 1461 0382 01       		.byte	0x1
 1462 0383 6204     		.2byte	0x462
 1463 0385 E2020000 		.4byte	0x2e2
 1464 0389 01       		.uleb128 0x1
 1465 038a 50       		.byte	0x50
 1466 038b 12       		.uleb128 0x12
 1467 038c 17020000 		.4byte	.LASF50
 1468 0390 01       		.byte	0x1
 1469 0391 6204     		.2byte	0x462
 1470 0393 A7000000 		.4byte	0xa7
 1471 0397 4A010000 		.4byte	.LLST14
 1472 039b 17       		.uleb128 0x17
 1473 039c F2000000 		.4byte	.LASF57
 1474 03a0 01       		.byte	0x1
 1475 03a1 6204     		.2byte	0x462
 1476 03a3 CA010000 		.4byte	0x1ca
 1477 03a7 01       		.uleb128 0x1
 1478 03a8 52       		.byte	0x52
 1479 03a9 00       		.byte	0
 1480 03aa 18       		.uleb128 0x18
 1481 03ab F2010000 		.4byte	.LASF86
 1482 03af 01       		.byte	0x1
ARM GAS  /var/tmp//ccM7fHpp.s 			page 27


 1483 03b0 3304     		.2byte	0x433
 1484 03b2 DB030000 		.4byte	0x3db
 1485 03b6 19       		.uleb128 0x19
 1486 03b7 C9030000 		.4byte	.LASF49
 1487 03bb 01       		.byte	0x1
 1488 03bc 3304     		.2byte	0x433
 1489 03be E2020000 		.4byte	0x2e2
 1490 03c2 19       		.uleb128 0x19
 1491 03c3 6E040000 		.4byte	.LASF58
 1492 03c7 01       		.byte	0x1
 1493 03c8 3304     		.2byte	0x433
 1494 03ca A7000000 		.4byte	0xa7
 1495 03ce 1A       		.uleb128 0x1a
 1496 03cf E5000000 		.4byte	.LASF51
 1497 03d3 01       		.byte	0x1
 1498 03d4 3504     		.2byte	0x435
 1499 03d6 E8020000 		.4byte	0x2e8
 1500 03da 00       		.byte	0
 1501 03db 15       		.uleb128 0x15
 1502 03dc BB040000 		.4byte	.LASF60
 1503 03e0 01       		.byte	0x1
 1504 03e1 F003     		.2byte	0x3f0
 1505 03e3 9B010000 		.4byte	0x19b
 1506 03e7 00000000 		.4byte	.LFB126
 1507 03eb 3C000000 		.4byte	.LFE126-.LFB126
 1508 03ef 01       		.uleb128 0x1
 1509 03f0 9C       		.byte	0x9c
 1510 03f1 46040000 		.4byte	0x446
 1511 03f5 12       		.uleb128 0x12
 1512 03f6 C9030000 		.4byte	.LASF49
 1513 03fa 01       		.byte	0x1
 1514 03fb F003     		.2byte	0x3f0
 1515 03fd E2020000 		.4byte	0x2e2
 1516 0401 8F010000 		.4byte	.LLST9
 1517 0405 12       		.uleb128 0x12
 1518 0406 6E040000 		.4byte	.LASF58
 1519 040a 01       		.byte	0x1
 1520 040b F003     		.2byte	0x3f0
 1521 040d A7000000 		.4byte	0xa7
 1522 0411 B0010000 		.4byte	.LLST10
 1523 0415 16       		.uleb128 0x16
 1524 0416 25020000 		.4byte	.LASF52
 1525 041a 01       		.byte	0x1
 1526 041b F203     		.2byte	0x3f2
 1527 041d 9B010000 		.4byte	0x19b
 1528 0421 D1010000 		.4byte	.LLST11
 1529 0425 16       		.uleb128 0x16
 1530 0426 E5000000 		.4byte	.LASF51
 1531 042a 01       		.byte	0x1
 1532 042b F303     		.2byte	0x3f3
 1533 042d E8020000 		.4byte	0x2e8
 1534 0431 16020000 		.4byte	.LLST12
 1535 0435 16       		.uleb128 0x16
 1536 0436 1E020000 		.4byte	.LASF53
 1537 043a 01       		.byte	0x1
 1538 043b F403     		.2byte	0x3f4
 1539 043d A7000000 		.4byte	0xa7
ARM GAS  /var/tmp//ccM7fHpp.s 			page 28


 1540 0441 4D020000 		.4byte	.LLST13
 1541 0445 00       		.byte	0
 1542 0446 15       		.uleb128 0x15
 1543 0447 9A000000 		.4byte	.LASF61
 1544 044b 01       		.byte	0x1
 1545 044c D503     		.2byte	0x3d5
 1546 044e A7000000 		.4byte	0xa7
 1547 0452 00000000 		.4byte	.LFB125
 1548 0456 08000000 		.4byte	.LFE125-.LFB125
 1549 045a 01       		.uleb128 0x1
 1550 045b 9C       		.byte	0x9c
 1551 045c 81040000 		.4byte	0x481
 1552 0460 12       		.uleb128 0x12
 1553 0461 C9030000 		.4byte	.LASF49
 1554 0465 01       		.byte	0x1
 1555 0466 D503     		.2byte	0x3d5
 1556 0468 E2020000 		.4byte	0x2e2
 1557 046c 7F020000 		.4byte	.LLST7
 1558 0470 16       		.uleb128 0x16
 1559 0471 1E020000 		.4byte	.LASF53
 1560 0475 01       		.byte	0x1
 1561 0476 D703     		.2byte	0x3d7
 1562 0478 A7000000 		.4byte	0xa7
 1563 047c A0020000 		.4byte	.LLST8
 1564 0480 00       		.byte	0
 1565 0481 15       		.uleb128 0x15
 1566 0482 B7000000 		.4byte	.LASF62
 1567 0486 01       		.byte	0x1
 1568 0487 B303     		.2byte	0x3b3
 1569 0489 CA010000 		.4byte	0x1ca
 1570 048d 00000000 		.4byte	.LFB124
 1571 0491 08000000 		.4byte	.LFE124-.LFB124
 1572 0495 01       		.uleb128 0x1
 1573 0496 9C       		.byte	0x9c
 1574 0497 BC040000 		.4byte	0x4bc
 1575 049b 12       		.uleb128 0x12
 1576 049c C9030000 		.4byte	.LASF49
 1577 04a0 01       		.byte	0x1
 1578 04a1 B303     		.2byte	0x3b3
 1579 04a3 E2020000 		.4byte	0x2e2
 1580 04a7 CF020000 		.4byte	.LLST5
 1581 04ab 16       		.uleb128 0x16
 1582 04ac 48000000 		.4byte	.LASF63
 1583 04b0 01       		.byte	0x1
 1584 04b1 B503     		.2byte	0x3b5
 1585 04b3 CA010000 		.4byte	0x1ca
 1586 04b7 F0020000 		.4byte	.LLST6
 1587 04bb 00       		.byte	0
 1588 04bc 15       		.uleb128 0x15
 1589 04bd D8040000 		.4byte	.LASF64
 1590 04c1 01       		.byte	0x1
 1591 04c2 4003     		.2byte	0x340
 1592 04c4 A7000000 		.4byte	0xa7
 1593 04c8 00000000 		.4byte	.LFB123
 1594 04cc 08000000 		.4byte	.LFE123-.LFB123
 1595 04d0 01       		.uleb128 0x1
 1596 04d1 9C       		.byte	0x9c
ARM GAS  /var/tmp//ccM7fHpp.s 			page 29


 1597 04d2 F7040000 		.4byte	0x4f7
 1598 04d6 12       		.uleb128 0x12
 1599 04d7 C9030000 		.4byte	.LASF49
 1600 04db 01       		.byte	0x1
 1601 04dc 4003     		.2byte	0x340
 1602 04de E2020000 		.4byte	0x2e2
 1603 04e2 0F030000 		.4byte	.LLST3
 1604 04e6 1B       		.uleb128 0x1b
 1605 04e7 746D7000 		.ascii	"tmp\000"
 1606 04eb 01       		.byte	0x1
 1607 04ec 4203     		.2byte	0x342
 1608 04ee A7000000 		.4byte	0xa7
 1609 04f2 30030000 		.4byte	.LLST4
 1610 04f6 00       		.byte	0
 1611 04f7 11       		.uleb128 0x11
 1612 04f8 A4010000 		.4byte	.LASF65
 1613 04fc 01       		.byte	0x1
 1614 04fd 2603     		.2byte	0x326
 1615 04ff 00000000 		.4byte	.LFB122
 1616 0503 0A000000 		.4byte	.LFE122-.LFB122
 1617 0507 01       		.uleb128 0x1
 1618 0508 9C       		.byte	0x9c
 1619 0509 38050000 		.4byte	0x538
 1620 050d 17       		.uleb128 0x17
 1621 050e C9030000 		.4byte	.LASF49
 1622 0512 01       		.byte	0x1
 1623 0513 2603     		.2byte	0x326
 1624 0515 E2020000 		.4byte	0x2e2
 1625 0519 01       		.uleb128 0x1
 1626 051a 50       		.byte	0x50
 1627 051b 17       		.uleb128 0x17
 1628 051c 1A000000 		.4byte	.LASF66
 1629 0520 01       		.byte	0x1
 1630 0521 2603     		.2byte	0x326
 1631 0523 A7000000 		.4byte	0xa7
 1632 0527 01       		.uleb128 0x1
 1633 0528 51       		.byte	0x51
 1634 0529 17       		.uleb128 0x17
 1635 052a C8000000 		.4byte	.LASF67
 1636 052e 01       		.byte	0x1
 1637 052f 2703     		.2byte	0x327
 1638 0531 A7000000 		.4byte	0xa7
 1639 0535 01       		.uleb128 0x1
 1640 0536 52       		.byte	0x52
 1641 0537 00       		.byte	0
 1642 0538 11       		.uleb128 0x11
 1643 0539 60050000 		.4byte	.LASF68
 1644 053d 01       		.byte	0x1
 1645 053e FD02     		.2byte	0x2fd
 1646 0540 00000000 		.4byte	.LFB121
 1647 0544 14000000 		.4byte	.LFE121-.LFB121
 1648 0548 01       		.uleb128 0x1
 1649 0549 9C       		.byte	0x9c
 1650 054a 6B050000 		.4byte	0x56b
 1651 054e 17       		.uleb128 0x17
 1652 054f C9030000 		.4byte	.LASF49
 1653 0553 01       		.byte	0x1
ARM GAS  /var/tmp//ccM7fHpp.s 			page 30


 1654 0554 FD02     		.2byte	0x2fd
 1655 0556 E2020000 		.4byte	0x2e2
 1656 055a 01       		.uleb128 0x1
 1657 055b 50       		.byte	0x50
 1658 055c 17       		.uleb128 0x17
 1659 055d F2000000 		.4byte	.LASF57
 1660 0561 01       		.byte	0x1
 1661 0562 FD02     		.2byte	0x2fd
 1662 0564 CA010000 		.4byte	0x1ca
 1663 0568 01       		.uleb128 0x1
 1664 0569 51       		.byte	0x51
 1665 056a 00       		.byte	0
 1666 056b 11       		.uleb128 0x11
 1667 056c 97030000 		.4byte	.LASF69
 1668 0570 01       		.byte	0x1
 1669 0571 DE02     		.2byte	0x2de
 1670 0573 00000000 		.4byte	.LFB120
 1671 0577 18000000 		.4byte	.LFE120-.LFB120
 1672 057b 01       		.uleb128 0x1
 1673 057c 9C       		.byte	0x9c
 1674 057d AC050000 		.4byte	0x5ac
 1675 0581 17       		.uleb128 0x17
 1676 0582 C9030000 		.4byte	.LASF49
 1677 0586 01       		.byte	0x1
 1678 0587 DE02     		.2byte	0x2de
 1679 0589 E2020000 		.4byte	0x2e2
 1680 058d 01       		.uleb128 0x1
 1681 058e 50       		.byte	0x50
 1682 058f 17       		.uleb128 0x17
 1683 0590 08050000 		.4byte	.LASF70
 1684 0594 01       		.byte	0x1
 1685 0595 DE02     		.2byte	0x2de
 1686 0597 A7000000 		.4byte	0xa7
 1687 059b 01       		.uleb128 0x1
 1688 059c 51       		.byte	0x51
 1689 059d 17       		.uleb128 0x17
 1690 059e 00000000 		.4byte	.LASF71
 1691 05a2 01       		.byte	0x1
 1692 05a3 DF02     		.2byte	0x2df
 1693 05a5 A7000000 		.4byte	0xa7
 1694 05a9 01       		.uleb128 0x1
 1695 05aa 52       		.byte	0x52
 1696 05ab 00       		.byte	0
 1697 05ac 15       		.uleb128 0x15
 1698 05ad 81050000 		.4byte	.LASF72
 1699 05b1 01       		.byte	0x1
 1700 05b2 8B02     		.2byte	0x28b
 1701 05b4 8C000000 		.4byte	0x8c
 1702 05b8 00000000 		.4byte	.LFB119
 1703 05bc 06000000 		.4byte	.LFE119-.LFB119
 1704 05c0 01       		.uleb128 0x1
 1705 05c1 9C       		.byte	0x9c
 1706 05c2 D7050000 		.4byte	0x5d7
 1707 05c6 12       		.uleb128 0x12
 1708 05c7 C9030000 		.4byte	.LASF49
 1709 05cb 01       		.byte	0x1
 1710 05cc 8B02     		.2byte	0x28b
ARM GAS  /var/tmp//ccM7fHpp.s 			page 31


 1711 05ce E2020000 		.4byte	0x2e2
 1712 05d2 5A030000 		.4byte	.LLST2
 1713 05d6 00       		.byte	0
 1714 05d7 11       		.uleb128 0x11
 1715 05d8 00020000 		.4byte	.LASF73
 1716 05dc 01       		.byte	0x1
 1717 05dd 7C02     		.2byte	0x27c
 1718 05df 00000000 		.4byte	.LFB118
 1719 05e3 04000000 		.4byte	.LFE118-.LFB118
 1720 05e7 01       		.uleb128 0x1
 1721 05e8 9C       		.byte	0x9c
 1722 05e9 0A060000 		.4byte	0x60a
 1723 05ed 17       		.uleb128 0x17
 1724 05ee C9030000 		.4byte	.LASF49
 1725 05f2 01       		.byte	0x1
 1726 05f3 7C02     		.2byte	0x27c
 1727 05f5 E2020000 		.4byte	0x2e2
 1728 05f9 01       		.uleb128 0x1
 1729 05fa 50       		.byte	0x50
 1730 05fb 17       		.uleb128 0x17
 1731 05fc 64000000 		.4byte	.LASF74
 1732 0600 01       		.byte	0x1
 1733 0601 7C02     		.2byte	0x27c
 1734 0603 8C000000 		.4byte	0x8c
 1735 0607 01       		.uleb128 0x1
 1736 0608 51       		.byte	0x51
 1737 0609 00       		.byte	0
 1738 060a 11       		.uleb128 0x11
 1739 060b 8B010000 		.4byte	.LASF75
 1740 060f 01       		.byte	0x1
 1741 0610 2A02     		.2byte	0x22a
 1742 0612 00000000 		.4byte	.LFB117
 1743 0616 14000000 		.4byte	.LFE117-.LFB117
 1744 061a 01       		.uleb128 0x1
 1745 061b 9C       		.byte	0x9c
 1746 061c 3D060000 		.4byte	0x63d
 1747 0620 17       		.uleb128 0x17
 1748 0621 C9030000 		.4byte	.LASF49
 1749 0625 01       		.byte	0x1
 1750 0626 2A02     		.2byte	0x22a
 1751 0628 E2020000 		.4byte	0x2e2
 1752 062c 01       		.uleb128 0x1
 1753 062d 50       		.byte	0x50
 1754 062e 17       		.uleb128 0x17
 1755 062f 59040000 		.4byte	.LASF76
 1756 0633 01       		.byte	0x1
 1757 0634 2A02     		.2byte	0x22a
 1758 0636 A7000000 		.4byte	0xa7
 1759 063a 01       		.uleb128 0x1
 1760 063b 51       		.byte	0x51
 1761 063c 00       		.byte	0
 1762 063d 11       		.uleb128 0x11
 1763 063e 9D040000 		.4byte	.LASF77
 1764 0642 01       		.byte	0x1
 1765 0643 0602     		.2byte	0x206
 1766 0645 00000000 		.4byte	.LFB116
 1767 0649 14000000 		.4byte	.LFE116-.LFB116
ARM GAS  /var/tmp//ccM7fHpp.s 			page 32


 1768 064d 01       		.uleb128 0x1
 1769 064e 9C       		.byte	0x9c
 1770 064f 70060000 		.4byte	0x670
 1771 0653 17       		.uleb128 0x17
 1772 0654 C9030000 		.4byte	.LASF49
 1773 0658 01       		.byte	0x1
 1774 0659 0602     		.2byte	0x206
 1775 065b E2020000 		.4byte	0x2e2
 1776 065f 01       		.uleb128 0x1
 1777 0660 50       		.byte	0x50
 1778 0661 17       		.uleb128 0x17
 1779 0662 26040000 		.4byte	.LASF78
 1780 0666 01       		.byte	0x1
 1781 0667 0602     		.2byte	0x206
 1782 0669 A7000000 		.4byte	0xa7
 1783 066d 01       		.uleb128 0x1
 1784 066e 51       		.byte	0x51
 1785 066f 00       		.byte	0
 1786 0670 11       		.uleb128 0x11
 1787 0671 12000000 		.4byte	.LASF79
 1788 0675 01       		.byte	0x1
 1789 0676 E201     		.2byte	0x1e2
 1790 0678 00000000 		.4byte	.LFB115
 1791 067c 14000000 		.4byte	.LFE115-.LFB115
 1792 0680 01       		.uleb128 0x1
 1793 0681 9C       		.byte	0x9c
 1794 0682 A3060000 		.4byte	0x6a3
 1795 0686 17       		.uleb128 0x17
 1796 0687 C9030000 		.4byte	.LASF49
 1797 068b 01       		.byte	0x1
 1798 068c E201     		.2byte	0x1e2
 1799 068e E2020000 		.4byte	0x2e2
 1800 0692 01       		.uleb128 0x1
 1801 0693 50       		.byte	0x50
 1802 0694 17       		.uleb128 0x17
 1803 0695 F2000000 		.4byte	.LASF57
 1804 0699 01       		.byte	0x1
 1805 069a E201     		.2byte	0x1e2
 1806 069c CA010000 		.4byte	0x1ca
 1807 06a0 01       		.uleb128 0x1
 1808 06a1 51       		.byte	0x51
 1809 06a2 00       		.byte	0
 1810 06a3 11       		.uleb128 0x11
 1811 06a4 6C000000 		.4byte	.LASF80
 1812 06a8 01       		.byte	0x1
 1813 06a9 9701     		.2byte	0x197
 1814 06ab 00000000 		.4byte	.LFB114
 1815 06af 22000000 		.4byte	.LFE114-.LFB114
 1816 06b3 01       		.uleb128 0x1
 1817 06b4 9C       		.byte	0x9c
 1818 06b5 C8060000 		.4byte	0x6c8
 1819 06b9 17       		.uleb128 0x17
 1820 06ba 17040000 		.4byte	.LASF81
 1821 06be 01       		.byte	0x1
 1822 06bf 9701     		.2byte	0x197
 1823 06c1 C8060000 		.4byte	0x6c8
 1824 06c5 01       		.uleb128 0x1
ARM GAS  /var/tmp//ccM7fHpp.s 			page 33


 1825 06c6 50       		.byte	0x50
 1826 06c7 00       		.byte	0
 1827 06c8 14       		.uleb128 0x14
 1828 06c9 04       		.byte	0x4
 1829 06ca 92020000 		.4byte	0x292
 1830 06ce 11       		.uleb128 0x11
 1831 06cf E4010000 		.4byte	.LASF82
 1832 06d3 01       		.byte	0x1
 1833 06d4 4301     		.2byte	0x143
 1834 06d6 00000000 		.4byte	.LFB113
 1835 06da 58000000 		.4byte	.LFE113-.LFB113
 1836 06de 01       		.uleb128 0x1
 1837 06df 9C       		.byte	0x9c
 1838 06e0 13070000 		.4byte	0x713
 1839 06e4 17       		.uleb128 0x17
 1840 06e5 C9030000 		.4byte	.LASF49
 1841 06e9 01       		.byte	0x1
 1842 06ea 4301     		.2byte	0x143
 1843 06ec E2020000 		.4byte	0x2e2
 1844 06f0 01       		.uleb128 0x1
 1845 06f1 50       		.byte	0x50
 1846 06f2 12       		.uleb128 0x12
 1847 06f3 17040000 		.4byte	.LASF81
 1848 06f7 01       		.byte	0x1
 1849 06f8 4301     		.2byte	0x143
 1850 06fa C8060000 		.4byte	0x6c8
 1851 06fe 7B030000 		.4byte	.LLST0
 1852 0702 16       		.uleb128 0x16
 1853 0703 1E020000 		.4byte	.LASF53
 1854 0707 01       		.byte	0x1
 1855 0708 4501     		.2byte	0x145
 1856 070a A7000000 		.4byte	0xa7
 1857 070e 9C030000 		.4byte	.LLST1
 1858 0712 00       		.byte	0
 1859 0713 1C       		.uleb128 0x1c
 1860 0714 3B050000 		.4byte	.LASF87
 1861 0718 01       		.byte	0x1
 1862 0719 C8       		.byte	0xc8
 1863 071a 00000000 		.4byte	.LFB112
 1864 071e 30010000 		.4byte	.LFE112-.LFB112
 1865 0722 01       		.uleb128 0x1
 1866 0723 9C       		.byte	0x9c
 1867 0724 1D       		.uleb128 0x1d
 1868 0725 C9030000 		.4byte	.LASF49
 1869 0729 01       		.byte	0x1
 1870 072a C8       		.byte	0xc8
 1871 072b E2020000 		.4byte	0x2e2
 1872 072f 01       		.uleb128 0x1
 1873 0730 50       		.byte	0x50
 1874 0731 00       		.byte	0
 1875 0732 00       		.byte	0
 1876              		.section	.debug_abbrev,"",%progbits
 1877              	.Ldebug_abbrev0:
 1878 0000 01       		.uleb128 0x1
 1879 0001 11       		.uleb128 0x11
 1880 0002 01       		.byte	0x1
 1881 0003 25       		.uleb128 0x25
ARM GAS  /var/tmp//ccM7fHpp.s 			page 34


 1882 0004 0E       		.uleb128 0xe
 1883 0005 13       		.uleb128 0x13
 1884 0006 0B       		.uleb128 0xb
 1885 0007 03       		.uleb128 0x3
 1886 0008 0E       		.uleb128 0xe
 1887 0009 1B       		.uleb128 0x1b
 1888 000a 0E       		.uleb128 0xe
 1889 000b 55       		.uleb128 0x55
 1890 000c 17       		.uleb128 0x17
 1891 000d 11       		.uleb128 0x11
 1892 000e 01       		.uleb128 0x1
 1893 000f 10       		.uleb128 0x10
 1894 0010 17       		.uleb128 0x17
 1895 0011 00       		.byte	0
 1896 0012 00       		.byte	0
 1897 0013 02       		.uleb128 0x2
 1898 0014 24       		.uleb128 0x24
 1899 0015 00       		.byte	0
 1900 0016 0B       		.uleb128 0xb
 1901 0017 0B       		.uleb128 0xb
 1902 0018 3E       		.uleb128 0x3e
 1903 0019 0B       		.uleb128 0xb
 1904 001a 03       		.uleb128 0x3
 1905 001b 0E       		.uleb128 0xe
 1906 001c 00       		.byte	0
 1907 001d 00       		.byte	0
 1908 001e 03       		.uleb128 0x3
 1909 001f 16       		.uleb128 0x16
 1910 0020 00       		.byte	0
 1911 0021 03       		.uleb128 0x3
 1912 0022 0E       		.uleb128 0xe
 1913 0023 3A       		.uleb128 0x3a
 1914 0024 0B       		.uleb128 0xb
 1915 0025 3B       		.uleb128 0x3b
 1916 0026 0B       		.uleb128 0xb
 1917 0027 49       		.uleb128 0x49
 1918 0028 13       		.uleb128 0x13
 1919 0029 00       		.byte	0
 1920 002a 00       		.byte	0
 1921 002b 04       		.uleb128 0x4
 1922 002c 24       		.uleb128 0x24
 1923 002d 00       		.byte	0
 1924 002e 0B       		.uleb128 0xb
 1925 002f 0B       		.uleb128 0xb
 1926 0030 3E       		.uleb128 0x3e
 1927 0031 0B       		.uleb128 0xb
 1928 0032 03       		.uleb128 0x3
 1929 0033 08       		.uleb128 0x8
 1930 0034 00       		.byte	0
 1931 0035 00       		.byte	0
 1932 0036 05       		.uleb128 0x5
 1933 0037 35       		.uleb128 0x35
 1934 0038 00       		.byte	0
 1935 0039 49       		.uleb128 0x49
 1936 003a 13       		.uleb128 0x13
 1937 003b 00       		.byte	0
 1938 003c 00       		.byte	0
ARM GAS  /var/tmp//ccM7fHpp.s 			page 35


 1939 003d 06       		.uleb128 0x6
 1940 003e 34       		.uleb128 0x34
 1941 003f 00       		.byte	0
 1942 0040 03       		.uleb128 0x3
 1943 0041 0E       		.uleb128 0xe
 1944 0042 3A       		.uleb128 0x3a
 1945 0043 0B       		.uleb128 0xb
 1946 0044 3B       		.uleb128 0x3b
 1947 0045 05       		.uleb128 0x5
 1948 0046 49       		.uleb128 0x49
 1949 0047 13       		.uleb128 0x13
 1950 0048 3F       		.uleb128 0x3f
 1951 0049 19       		.uleb128 0x19
 1952 004a 3C       		.uleb128 0x3c
 1953 004b 19       		.uleb128 0x19
 1954 004c 00       		.byte	0
 1955 004d 00       		.byte	0
 1956 004e 07       		.uleb128 0x7
 1957 004f 34       		.uleb128 0x34
 1958 0050 00       		.byte	0
 1959 0051 03       		.uleb128 0x3
 1960 0052 0E       		.uleb128 0xe
 1961 0053 3A       		.uleb128 0x3a
 1962 0054 0B       		.uleb128 0xb
 1963 0055 3B       		.uleb128 0x3b
 1964 0056 0B       		.uleb128 0xb
 1965 0057 49       		.uleb128 0x49
 1966 0058 13       		.uleb128 0x13
 1967 0059 3F       		.uleb128 0x3f
 1968 005a 19       		.uleb128 0x19
 1969 005b 3C       		.uleb128 0x3c
 1970 005c 19       		.uleb128 0x19
 1971 005d 00       		.byte	0
 1972 005e 00       		.byte	0
 1973 005f 08       		.uleb128 0x8
 1974 0060 13       		.uleb128 0x13
 1975 0061 01       		.byte	0x1
 1976 0062 0B       		.uleb128 0xb
 1977 0063 0B       		.uleb128 0xb
 1978 0064 3A       		.uleb128 0x3a
 1979 0065 0B       		.uleb128 0xb
 1980 0066 3B       		.uleb128 0x3b
 1981 0067 05       		.uleb128 0x5
 1982 0068 01       		.uleb128 0x1
 1983 0069 13       		.uleb128 0x13
 1984 006a 00       		.byte	0
 1985 006b 00       		.byte	0
 1986 006c 09       		.uleb128 0x9
 1987 006d 0D       		.uleb128 0xd
 1988 006e 00       		.byte	0
 1989 006f 03       		.uleb128 0x3
 1990 0070 08       		.uleb128 0x8
 1991 0071 3A       		.uleb128 0x3a
 1992 0072 0B       		.uleb128 0xb
 1993 0073 3B       		.uleb128 0x3b
 1994 0074 05       		.uleb128 0x5
 1995 0075 49       		.uleb128 0x49
ARM GAS  /var/tmp//ccM7fHpp.s 			page 36


 1996 0076 13       		.uleb128 0x13
 1997 0077 38       		.uleb128 0x38
 1998 0078 0B       		.uleb128 0xb
 1999 0079 00       		.byte	0
 2000 007a 00       		.byte	0
 2001 007b 0A       		.uleb128 0xa
 2002 007c 0D       		.uleb128 0xd
 2003 007d 00       		.byte	0
 2004 007e 03       		.uleb128 0x3
 2005 007f 0E       		.uleb128 0xe
 2006 0080 3A       		.uleb128 0x3a
 2007 0081 0B       		.uleb128 0xb
 2008 0082 3B       		.uleb128 0x3b
 2009 0083 05       		.uleb128 0x5
 2010 0084 49       		.uleb128 0x49
 2011 0085 13       		.uleb128 0x13
 2012 0086 38       		.uleb128 0x38
 2013 0087 0B       		.uleb128 0xb
 2014 0088 00       		.byte	0
 2015 0089 00       		.byte	0
 2016 008a 0B       		.uleb128 0xb
 2017 008b 16       		.uleb128 0x16
 2018 008c 00       		.byte	0
 2019 008d 03       		.uleb128 0x3
 2020 008e 0E       		.uleb128 0xe
 2021 008f 3A       		.uleb128 0x3a
 2022 0090 0B       		.uleb128 0xb
 2023 0091 3B       		.uleb128 0x3b
 2024 0092 05       		.uleb128 0x5
 2025 0093 49       		.uleb128 0x49
 2026 0094 13       		.uleb128 0x13
 2027 0095 00       		.byte	0
 2028 0096 00       		.byte	0
 2029 0097 0C       		.uleb128 0xc
 2030 0098 04       		.uleb128 0x4
 2031 0099 01       		.byte	0x1
 2032 009a 0B       		.uleb128 0xb
 2033 009b 0B       		.uleb128 0xb
 2034 009c 49       		.uleb128 0x49
 2035 009d 13       		.uleb128 0x13
 2036 009e 3A       		.uleb128 0x3a
 2037 009f 0B       		.uleb128 0xb
 2038 00a0 3B       		.uleb128 0x3b
 2039 00a1 0B       		.uleb128 0xb
 2040 00a2 01       		.uleb128 0x1
 2041 00a3 13       		.uleb128 0x13
 2042 00a4 00       		.byte	0
 2043 00a5 00       		.byte	0
 2044 00a6 0D       		.uleb128 0xd
 2045 00a7 28       		.uleb128 0x28
 2046 00a8 00       		.byte	0
 2047 00a9 03       		.uleb128 0x3
 2048 00aa 0E       		.uleb128 0xe
 2049 00ab 1C       		.uleb128 0x1c
 2050 00ac 0B       		.uleb128 0xb
 2051 00ad 00       		.byte	0
 2052 00ae 00       		.byte	0
ARM GAS  /var/tmp//ccM7fHpp.s 			page 37


 2053 00af 0E       		.uleb128 0xe
 2054 00b0 28       		.uleb128 0x28
 2055 00b1 00       		.byte	0
 2056 00b2 03       		.uleb128 0x3
 2057 00b3 08       		.uleb128 0x8
 2058 00b4 1C       		.uleb128 0x1c
 2059 00b5 0B       		.uleb128 0xb
 2060 00b6 00       		.byte	0
 2061 00b7 00       		.byte	0
 2062 00b8 0F       		.uleb128 0xf
 2063 00b9 13       		.uleb128 0x13
 2064 00ba 01       		.byte	0x1
 2065 00bb 0B       		.uleb128 0xb
 2066 00bc 0B       		.uleb128 0xb
 2067 00bd 3A       		.uleb128 0x3a
 2068 00be 0B       		.uleb128 0xb
 2069 00bf 3B       		.uleb128 0x3b
 2070 00c0 0B       		.uleb128 0xb
 2071 00c1 01       		.uleb128 0x1
 2072 00c2 13       		.uleb128 0x13
 2073 00c3 00       		.byte	0
 2074 00c4 00       		.byte	0
 2075 00c5 10       		.uleb128 0x10
 2076 00c6 0D       		.uleb128 0xd
 2077 00c7 00       		.byte	0
 2078 00c8 03       		.uleb128 0x3
 2079 00c9 0E       		.uleb128 0xe
 2080 00ca 3A       		.uleb128 0x3a
 2081 00cb 0B       		.uleb128 0xb
 2082 00cc 3B       		.uleb128 0x3b
 2083 00cd 0B       		.uleb128 0xb
 2084 00ce 49       		.uleb128 0x49
 2085 00cf 13       		.uleb128 0x13
 2086 00d0 38       		.uleb128 0x38
 2087 00d1 0B       		.uleb128 0xb
 2088 00d2 00       		.byte	0
 2089 00d3 00       		.byte	0
 2090 00d4 11       		.uleb128 0x11
 2091 00d5 2E       		.uleb128 0x2e
 2092 00d6 01       		.byte	0x1
 2093 00d7 3F       		.uleb128 0x3f
 2094 00d8 19       		.uleb128 0x19
 2095 00d9 03       		.uleb128 0x3
 2096 00da 0E       		.uleb128 0xe
 2097 00db 3A       		.uleb128 0x3a
 2098 00dc 0B       		.uleb128 0xb
 2099 00dd 3B       		.uleb128 0x3b
 2100 00de 05       		.uleb128 0x5
 2101 00df 27       		.uleb128 0x27
 2102 00e0 19       		.uleb128 0x19
 2103 00e1 11       		.uleb128 0x11
 2104 00e2 01       		.uleb128 0x1
 2105 00e3 12       		.uleb128 0x12
 2106 00e4 06       		.uleb128 0x6
 2107 00e5 40       		.uleb128 0x40
 2108 00e6 18       		.uleb128 0x18
 2109 00e7 9742     		.uleb128 0x2117
ARM GAS  /var/tmp//ccM7fHpp.s 			page 38


 2110 00e9 19       		.uleb128 0x19
 2111 00ea 01       		.uleb128 0x1
 2112 00eb 13       		.uleb128 0x13
 2113 00ec 00       		.byte	0
 2114 00ed 00       		.byte	0
 2115 00ee 12       		.uleb128 0x12
 2116 00ef 05       		.uleb128 0x5
 2117 00f0 00       		.byte	0
 2118 00f1 03       		.uleb128 0x3
 2119 00f2 0E       		.uleb128 0xe
 2120 00f3 3A       		.uleb128 0x3a
 2121 00f4 0B       		.uleb128 0xb
 2122 00f5 3B       		.uleb128 0x3b
 2123 00f6 05       		.uleb128 0x5
 2124 00f7 49       		.uleb128 0x49
 2125 00f8 13       		.uleb128 0x13
 2126 00f9 02       		.uleb128 0x2
 2127 00fa 17       		.uleb128 0x17
 2128 00fb 00       		.byte	0
 2129 00fc 00       		.byte	0
 2130 00fd 13       		.uleb128 0x13
 2131 00fe 34       		.uleb128 0x34
 2132 00ff 00       		.byte	0
 2133 0100 03       		.uleb128 0x3
 2134 0101 0E       		.uleb128 0xe
 2135 0102 3A       		.uleb128 0x3a
 2136 0103 0B       		.uleb128 0xb
 2137 0104 3B       		.uleb128 0x3b
 2138 0105 05       		.uleb128 0x5
 2139 0106 49       		.uleb128 0x49
 2140 0107 13       		.uleb128 0x13
 2141 0108 02       		.uleb128 0x2
 2142 0109 18       		.uleb128 0x18
 2143 010a 00       		.byte	0
 2144 010b 00       		.byte	0
 2145 010c 14       		.uleb128 0x14
 2146 010d 0F       		.uleb128 0xf
 2147 010e 00       		.byte	0
 2148 010f 0B       		.uleb128 0xb
 2149 0110 0B       		.uleb128 0xb
 2150 0111 49       		.uleb128 0x49
 2151 0112 13       		.uleb128 0x13
 2152 0113 00       		.byte	0
 2153 0114 00       		.byte	0
 2154 0115 15       		.uleb128 0x15
 2155 0116 2E       		.uleb128 0x2e
 2156 0117 01       		.byte	0x1
 2157 0118 3F       		.uleb128 0x3f
 2158 0119 19       		.uleb128 0x19
 2159 011a 03       		.uleb128 0x3
 2160 011b 0E       		.uleb128 0xe
 2161 011c 3A       		.uleb128 0x3a
 2162 011d 0B       		.uleb128 0xb
 2163 011e 3B       		.uleb128 0x3b
 2164 011f 05       		.uleb128 0x5
 2165 0120 27       		.uleb128 0x27
 2166 0121 19       		.uleb128 0x19
ARM GAS  /var/tmp//ccM7fHpp.s 			page 39


 2167 0122 49       		.uleb128 0x49
 2168 0123 13       		.uleb128 0x13
 2169 0124 11       		.uleb128 0x11
 2170 0125 01       		.uleb128 0x1
 2171 0126 12       		.uleb128 0x12
 2172 0127 06       		.uleb128 0x6
 2173 0128 40       		.uleb128 0x40
 2174 0129 18       		.uleb128 0x18
 2175 012a 9742     		.uleb128 0x2117
 2176 012c 19       		.uleb128 0x19
 2177 012d 01       		.uleb128 0x1
 2178 012e 13       		.uleb128 0x13
 2179 012f 00       		.byte	0
 2180 0130 00       		.byte	0
 2181 0131 16       		.uleb128 0x16
 2182 0132 34       		.uleb128 0x34
 2183 0133 00       		.byte	0
 2184 0134 03       		.uleb128 0x3
 2185 0135 0E       		.uleb128 0xe
 2186 0136 3A       		.uleb128 0x3a
 2187 0137 0B       		.uleb128 0xb
 2188 0138 3B       		.uleb128 0x3b
 2189 0139 05       		.uleb128 0x5
 2190 013a 49       		.uleb128 0x49
 2191 013b 13       		.uleb128 0x13
 2192 013c 02       		.uleb128 0x2
 2193 013d 17       		.uleb128 0x17
 2194 013e 00       		.byte	0
 2195 013f 00       		.byte	0
 2196 0140 17       		.uleb128 0x17
 2197 0141 05       		.uleb128 0x5
 2198 0142 00       		.byte	0
 2199 0143 03       		.uleb128 0x3
 2200 0144 0E       		.uleb128 0xe
 2201 0145 3A       		.uleb128 0x3a
 2202 0146 0B       		.uleb128 0xb
 2203 0147 3B       		.uleb128 0x3b
 2204 0148 05       		.uleb128 0x5
 2205 0149 49       		.uleb128 0x49
 2206 014a 13       		.uleb128 0x13
 2207 014b 02       		.uleb128 0x2
 2208 014c 18       		.uleb128 0x18
 2209 014d 00       		.byte	0
 2210 014e 00       		.byte	0
 2211 014f 18       		.uleb128 0x18
 2212 0150 2E       		.uleb128 0x2e
 2213 0151 01       		.byte	0x1
 2214 0152 3F       		.uleb128 0x3f
 2215 0153 19       		.uleb128 0x19
 2216 0154 03       		.uleb128 0x3
 2217 0155 0E       		.uleb128 0xe
 2218 0156 3A       		.uleb128 0x3a
 2219 0157 0B       		.uleb128 0xb
 2220 0158 3B       		.uleb128 0x3b
 2221 0159 05       		.uleb128 0x5
 2222 015a 27       		.uleb128 0x27
 2223 015b 19       		.uleb128 0x19
ARM GAS  /var/tmp//ccM7fHpp.s 			page 40


 2224 015c 01       		.uleb128 0x1
 2225 015d 13       		.uleb128 0x13
 2226 015e 00       		.byte	0
 2227 015f 00       		.byte	0
 2228 0160 19       		.uleb128 0x19
 2229 0161 05       		.uleb128 0x5
 2230 0162 00       		.byte	0
 2231 0163 03       		.uleb128 0x3
 2232 0164 0E       		.uleb128 0xe
 2233 0165 3A       		.uleb128 0x3a
 2234 0166 0B       		.uleb128 0xb
 2235 0167 3B       		.uleb128 0x3b
 2236 0168 05       		.uleb128 0x5
 2237 0169 49       		.uleb128 0x49
 2238 016a 13       		.uleb128 0x13
 2239 016b 00       		.byte	0
 2240 016c 00       		.byte	0
 2241 016d 1A       		.uleb128 0x1a
 2242 016e 34       		.uleb128 0x34
 2243 016f 00       		.byte	0
 2244 0170 03       		.uleb128 0x3
 2245 0171 0E       		.uleb128 0xe
 2246 0172 3A       		.uleb128 0x3a
 2247 0173 0B       		.uleb128 0xb
 2248 0174 3B       		.uleb128 0x3b
 2249 0175 05       		.uleb128 0x5
 2250 0176 49       		.uleb128 0x49
 2251 0177 13       		.uleb128 0x13
 2252 0178 00       		.byte	0
 2253 0179 00       		.byte	0
 2254 017a 1B       		.uleb128 0x1b
 2255 017b 34       		.uleb128 0x34
 2256 017c 00       		.byte	0
 2257 017d 03       		.uleb128 0x3
 2258 017e 08       		.uleb128 0x8
 2259 017f 3A       		.uleb128 0x3a
 2260 0180 0B       		.uleb128 0xb
 2261 0181 3B       		.uleb128 0x3b
 2262 0182 05       		.uleb128 0x5
 2263 0183 49       		.uleb128 0x49
 2264 0184 13       		.uleb128 0x13
 2265 0185 02       		.uleb128 0x2
 2266 0186 17       		.uleb128 0x17
 2267 0187 00       		.byte	0
 2268 0188 00       		.byte	0
 2269 0189 1C       		.uleb128 0x1c
 2270 018a 2E       		.uleb128 0x2e
 2271 018b 01       		.byte	0x1
 2272 018c 3F       		.uleb128 0x3f
 2273 018d 19       		.uleb128 0x19
 2274 018e 03       		.uleb128 0x3
 2275 018f 0E       		.uleb128 0xe
 2276 0190 3A       		.uleb128 0x3a
 2277 0191 0B       		.uleb128 0xb
 2278 0192 3B       		.uleb128 0x3b
 2279 0193 0B       		.uleb128 0xb
 2280 0194 27       		.uleb128 0x27
ARM GAS  /var/tmp//ccM7fHpp.s 			page 41


 2281 0195 19       		.uleb128 0x19
 2282 0196 11       		.uleb128 0x11
 2283 0197 01       		.uleb128 0x1
 2284 0198 12       		.uleb128 0x12
 2285 0199 06       		.uleb128 0x6
 2286 019a 40       		.uleb128 0x40
 2287 019b 18       		.uleb128 0x18
 2288 019c 9742     		.uleb128 0x2117
 2289 019e 19       		.uleb128 0x19
 2290 019f 00       		.byte	0
 2291 01a0 00       		.byte	0
 2292 01a1 1D       		.uleb128 0x1d
 2293 01a2 05       		.uleb128 0x5
 2294 01a3 00       		.byte	0
 2295 01a4 03       		.uleb128 0x3
 2296 01a5 0E       		.uleb128 0xe
 2297 01a6 3A       		.uleb128 0x3a
 2298 01a7 0B       		.uleb128 0xb
 2299 01a8 3B       		.uleb128 0x3b
 2300 01a9 0B       		.uleb128 0xb
 2301 01aa 49       		.uleb128 0x49
 2302 01ab 13       		.uleb128 0x13
 2303 01ac 02       		.uleb128 0x2
 2304 01ad 18       		.uleb128 0x18
 2305 01ae 00       		.byte	0
 2306 01af 00       		.byte	0
 2307 01b0 00       		.byte	0
 2308              		.section	.debug_loc,"",%progbits
 2309              	.Ldebug_loc0:
 2310              	.LLST20:
 2311 0000 00000000 		.4byte	.LVL51
 2312 0004 10000000 		.4byte	.LVL52
 2313 0008 0100     		.2byte	0x1
 2314 000a 50       		.byte	0x50
 2315 000b 10000000 		.4byte	.LVL52
 2316 000f 34000000 		.4byte	.LFE130
 2317 0013 0400     		.2byte	0x4
 2318 0015 F3       		.byte	0xf3
 2319 0016 01       		.uleb128 0x1
 2320 0017 50       		.byte	0x50
 2321 0018 9F       		.byte	0x9f
 2322 0019 00000000 		.4byte	0
 2323 001d 00000000 		.4byte	0
 2324              	.LLST21:
 2325 0021 00000000 		.4byte	.LVL51
 2326 0025 18000000 		.4byte	.LVL53
 2327 0029 0100     		.2byte	0x1
 2328 002b 51       		.byte	0x51
 2329 002c 18000000 		.4byte	.LVL53
 2330 0030 34000000 		.4byte	.LFE130
 2331 0034 0400     		.2byte	0x4
 2332 0036 F3       		.byte	0xf3
 2333 0037 01       		.uleb128 0x1
 2334 0038 51       		.byte	0x51
 2335 0039 9F       		.byte	0x9f
 2336 003a 00000000 		.4byte	0
 2337 003e 00000000 		.4byte	0
ARM GAS  /var/tmp//ccM7fHpp.s 			page 42


 2338              	.LLST15:
 2339 0042 00000000 		.4byte	.LVL39
 2340 0046 1A000000 		.4byte	.LVL42
 2341 004a 0100     		.2byte	0x1
 2342 004c 50       		.byte	0x50
 2343 004d 1A000000 		.4byte	.LVL42
 2344 0051 40000000 		.4byte	.LVL49
 2345 0055 0400     		.2byte	0x4
 2346 0057 F3       		.byte	0xf3
 2347 0058 01       		.uleb128 0x1
 2348 0059 50       		.byte	0x50
 2349 005a 9F       		.byte	0x9f
 2350 005b 40000000 		.4byte	.LVL49
 2351 005f 54000000 		.4byte	.LFE129
 2352 0063 0100     		.2byte	0x1
 2353 0065 50       		.byte	0x50
 2354 0066 00000000 		.4byte	0
 2355 006a 00000000 		.4byte	0
 2356              	.LLST16:
 2357 006e 00000000 		.4byte	.LVL39
 2358 0072 2E000000 		.4byte	.LVL46
 2359 0076 0100     		.2byte	0x1
 2360 0078 51       		.byte	0x51
 2361 0079 2E000000 		.4byte	.LVL46
 2362 007d 40000000 		.4byte	.LVL49
 2363 0081 0400     		.2byte	0x4
 2364 0083 F3       		.byte	0xf3
 2365 0084 01       		.uleb128 0x1
 2366 0085 51       		.byte	0x51
 2367 0086 9F       		.byte	0x9f
 2368 0087 40000000 		.4byte	.LVL49
 2369 008b 54000000 		.4byte	.LFE129
 2370 008f 0100     		.2byte	0x1
 2371 0091 51       		.byte	0x51
 2372 0092 00000000 		.4byte	0
 2373 0096 00000000 		.4byte	0
 2374              	.LLST17:
 2375 009a 00000000 		.4byte	.LVL39
 2376 009e 3C000000 		.4byte	.LVL48
 2377 00a2 0200     		.2byte	0x2
 2378 00a4 30       		.byte	0x30
 2379 00a5 9F       		.byte	0x9f
 2380 00a6 3C000000 		.4byte	.LVL48
 2381 00aa 40000000 		.4byte	.LVL49
 2382 00ae 0100     		.2byte	0x1
 2383 00b0 50       		.byte	0x50
 2384 00b1 40000000 		.4byte	.LVL49
 2385 00b5 54000000 		.4byte	.LFE129
 2386 00b9 0200     		.2byte	0x2
 2387 00bb 30       		.byte	0x30
 2388 00bc 9F       		.byte	0x9f
 2389 00bd 00000000 		.4byte	0
 2390 00c1 00000000 		.4byte	0
 2391              	.LLST18:
 2392 00c5 00000000 		.4byte	.LVL39
 2393 00c9 18000000 		.4byte	.LVL41
 2394 00cd 0200     		.2byte	0x2
ARM GAS  /var/tmp//ccM7fHpp.s 			page 43


 2395 00cf 30       		.byte	0x30
 2396 00d0 9F       		.byte	0x9f
 2397 00d1 18000000 		.4byte	.LVL41
 2398 00d5 22000000 		.4byte	.LVL43
 2399 00d9 0700     		.2byte	0x7
 2400 00db 71       		.byte	0x71
 2401 00dc 00       		.sleb128 0
 2402 00dd 3B       		.byte	0x3b
 2403 00de 25       		.byte	0x25
 2404 00df 4E       		.byte	0x4e
 2405 00e0 1A       		.byte	0x1a
 2406 00e1 9F       		.byte	0x9f
 2407 00e2 28000000 		.4byte	.LVL44
 2408 00e6 2A000000 		.4byte	.LVL45
 2409 00ea 0100     		.2byte	0x1
 2410 00ec 50       		.byte	0x50
 2411 00ed 2A000000 		.4byte	.LVL45
 2412 00f1 34000000 		.4byte	.LVL47
 2413 00f5 0900     		.2byte	0x9
 2414 00f7 70       		.byte	0x70
 2415 00f8 00       		.sleb128 0
 2416 00f9 0C       		.byte	0xc
 2417 00fa 7D0F7D0F 		.4byte	0xf7d0f7d
 2418 00fe 1A       		.byte	0x1a
 2419 00ff 9F       		.byte	0x9f
 2420 0100 40000000 		.4byte	.LVL49
 2421 0104 54000000 		.4byte	.LFE129
 2422 0108 0200     		.2byte	0x2
 2423 010a 30       		.byte	0x30
 2424 010b 9F       		.byte	0x9f
 2425 010c 00000000 		.4byte	0
 2426 0110 00000000 		.4byte	0
 2427              	.LLST19:
 2428 0114 00000000 		.4byte	.LVL39
 2429 0118 22000000 		.4byte	.LVL43
 2430 011c 0200     		.2byte	0x2
 2431 011e 30       		.byte	0x30
 2432 011f 9F       		.byte	0x9f
 2433 0120 22000000 		.4byte	.LVL43
 2434 0124 40000000 		.4byte	.LVL49
 2435 0128 0100     		.2byte	0x1
 2436 012a 53       		.byte	0x53
 2437 012b 40000000 		.4byte	.LVL49
 2438 012f 46000000 		.4byte	.LVL50
 2439 0133 0200     		.2byte	0x2
 2440 0135 30       		.byte	0x30
 2441 0136 9F       		.byte	0x9f
 2442 0137 46000000 		.4byte	.LVL50
 2443 013b 54000000 		.4byte	.LFE129
 2444 013f 0100     		.2byte	0x1
 2445 0141 53       		.byte	0x53
 2446 0142 00000000 		.4byte	0
 2447 0146 00000000 		.4byte	0
 2448              	.LLST14:
 2449 014a 00000000 		.4byte	.LVL34
 2450 014e 18000000 		.4byte	.LVL35
 2451 0152 0100     		.2byte	0x1
ARM GAS  /var/tmp//ccM7fHpp.s 			page 44


 2452 0154 51       		.byte	0x51
 2453 0155 18000000 		.4byte	.LVL35
 2454 0159 1E000000 		.4byte	.LVL36
 2455 015d 0400     		.2byte	0x4
 2456 015f F3       		.byte	0xf3
 2457 0160 01       		.uleb128 0x1
 2458 0161 51       		.byte	0x51
 2459 0162 9F       		.byte	0x9f
 2460 0163 1E000000 		.4byte	.LVL36
 2461 0167 2C000000 		.4byte	.LVL37
 2462 016b 0100     		.2byte	0x1
 2463 016d 51       		.byte	0x51
 2464 016e 2C000000 		.4byte	.LVL37
 2465 0172 34000000 		.4byte	.LVL38
 2466 0176 0400     		.2byte	0x4
 2467 0178 F3       		.byte	0xf3
 2468 0179 01       		.uleb128 0x1
 2469 017a 51       		.byte	0x51
 2470 017b 9F       		.byte	0x9f
 2471 017c 34000000 		.4byte	.LVL38
 2472 0180 40000000 		.4byte	.LFE128
 2473 0184 0100     		.2byte	0x1
 2474 0186 51       		.byte	0x51
 2475 0187 00000000 		.4byte	0
 2476 018b 00000000 		.4byte	0
 2477              	.LLST9:
 2478 018f 00000000 		.4byte	.LVL28
 2479 0193 10000000 		.4byte	.LVL29
 2480 0197 0100     		.2byte	0x1
 2481 0199 50       		.byte	0x50
 2482 019a 10000000 		.4byte	.LVL29
 2483 019e 3C000000 		.4byte	.LFE126
 2484 01a2 0400     		.2byte	0x4
 2485 01a4 F3       		.byte	0xf3
 2486 01a5 01       		.uleb128 0x1
 2487 01a6 50       		.byte	0x50
 2488 01a7 9F       		.byte	0x9f
 2489 01a8 00000000 		.4byte	0
 2490 01ac 00000000 		.4byte	0
 2491              	.LLST10:
 2492 01b0 00000000 		.4byte	.LVL28
 2493 01b4 20000000 		.4byte	.LVL32
 2494 01b8 0100     		.2byte	0x1
 2495 01ba 51       		.byte	0x51
 2496 01bb 20000000 		.4byte	.LVL32
 2497 01bf 3C000000 		.4byte	.LFE126
 2498 01c3 0400     		.2byte	0x4
 2499 01c5 F3       		.byte	0xf3
 2500 01c6 01       		.uleb128 0x1
 2501 01c7 51       		.byte	0x51
 2502 01c8 9F       		.byte	0x9f
 2503 01c9 00000000 		.4byte	0
 2504 01cd 00000000 		.4byte	0
 2505              	.LLST11:
 2506 01d1 00000000 		.4byte	.LVL28
 2507 01d5 18000000 		.4byte	.LVL31
 2508 01d9 0200     		.2byte	0x2
ARM GAS  /var/tmp//ccM7fHpp.s 			page 45


 2509 01db 30       		.byte	0x30
 2510 01dc 9F       		.byte	0x9f
 2511 01dd 18000000 		.4byte	.LVL31
 2512 01e1 20000000 		.4byte	.LVL32
 2513 01e5 0E00     		.2byte	0xe
 2514 01e7 71       		.byte	0x71
 2515 01e8 00       		.sleb128 0
 2516 01e9 73       		.byte	0x73
 2517 01ea 00       		.sleb128 0
 2518 01eb 1A       		.byte	0x1a
 2519 01ec 0C       		.byte	0xc
 2520 01ed 7D0F7D0F 		.4byte	0xf7d0f7d
 2521 01f1 1A       		.byte	0x1a
 2522 01f2 30       		.byte	0x30
 2523 01f3 2E       		.byte	0x2e
 2524 01f4 9F       		.byte	0x9f
 2525 01f5 20000000 		.4byte	.LVL32
 2526 01f9 3C000000 		.4byte	.LFE126
 2527 01fd 0F00     		.2byte	0xf
 2528 01ff F3       		.byte	0xf3
 2529 0200 01       		.uleb128 0x1
 2530 0201 51       		.byte	0x51
 2531 0202 73       		.byte	0x73
 2532 0203 00       		.sleb128 0
 2533 0204 1A       		.byte	0x1a
 2534 0205 0C       		.byte	0xc
 2535 0206 7D0F7D0F 		.4byte	0xf7d0f7d
 2536 020a 1A       		.byte	0x1a
 2537 020b 30       		.byte	0x30
 2538 020c 2E       		.byte	0x2e
 2539 020d 9F       		.byte	0x9f
 2540 020e 00000000 		.4byte	0
 2541 0212 00000000 		.4byte	0
 2542              	.LLST12:
 2543 0216 10000000 		.4byte	.LVL29
 2544 021a 2A000000 		.4byte	.LVL33
 2545 021e 0100     		.2byte	0x1
 2546 0220 50       		.byte	0x50
 2547 0221 2A000000 		.4byte	.LVL33
 2548 0225 3C000000 		.4byte	.LFE126
 2549 0229 1A00     		.2byte	0x1a
 2550 022b 0C       		.byte	0xc
 2551 022c 00600240 		.4byte	0x40026000
 2552 0230 72       		.byte	0x72
 2553 0231 00       		.sleb128 0
 2554 0232 F3       		.byte	0xf3
 2555 0233 01       		.uleb128 0x1
 2556 0234 50       		.byte	0x50
 2557 0235 40       		.byte	0x40
 2558 0236 4B       		.byte	0x4b
 2559 0237 24       		.byte	0x24
 2560 0238 22       		.byte	0x22
 2561 0239 0C       		.byte	0xc
 2562 023a 0F6402C0 		.4byte	0xc002640f
 2563 023e 2C       		.byte	0x2c
 2564 023f 28       		.byte	0x28
 2565 0240 0100     		.2byte	0x1
ARM GAS  /var/tmp//ccM7fHpp.s 			page 46


 2566 0242 16       		.byte	0x16
 2567 0243 13       		.byte	0x13
 2568 0244 9F       		.byte	0x9f
 2569 0245 00000000 		.4byte	0
 2570 0249 00000000 		.4byte	0
 2571              	.LLST13:
 2572 024d 00000000 		.4byte	.LVL28
 2573 0251 16000000 		.4byte	.LVL30
 2574 0255 0200     		.2byte	0x2
 2575 0257 30       		.byte	0x30
 2576 0258 9F       		.byte	0x9f
 2577 0259 16000000 		.4byte	.LVL30
 2578 025d 18000000 		.4byte	.LVL31
 2579 0261 0100     		.2byte	0x1
 2580 0263 53       		.byte	0x53
 2581 0264 18000000 		.4byte	.LVL31
 2582 0268 3C000000 		.4byte	.LFE126
 2583 026c 0900     		.2byte	0x9
 2584 026e 73       		.byte	0x73
 2585 026f 00       		.sleb128 0
 2586 0270 0C       		.byte	0xc
 2587 0271 7D0F7D0F 		.4byte	0xf7d0f7d
 2588 0275 1A       		.byte	0x1a
 2589 0276 9F       		.byte	0x9f
 2590 0277 00000000 		.4byte	0
 2591 027b 00000000 		.4byte	0
 2592              	.LLST7:
 2593 027f 00000000 		.4byte	.LVL25
 2594 0283 02000000 		.4byte	.LVL26
 2595 0287 0100     		.2byte	0x1
 2596 0289 50       		.byte	0x50
 2597 028a 02000000 		.4byte	.LVL26
 2598 028e 08000000 		.4byte	.LFE125
 2599 0292 0400     		.2byte	0x4
 2600 0294 F3       		.byte	0xf3
 2601 0295 01       		.uleb128 0x1
 2602 0296 50       		.byte	0x50
 2603 0297 9F       		.byte	0x9f
 2604 0298 00000000 		.4byte	0
 2605 029c 00000000 		.4byte	0
 2606              	.LLST8:
 2607 02a0 00000000 		.4byte	.LVL25
 2608 02a4 02000000 		.4byte	.LVL26
 2609 02a8 0200     		.2byte	0x2
 2610 02aa 30       		.byte	0x30
 2611 02ab 9F       		.byte	0x9f
 2612 02ac 02000000 		.4byte	.LVL26
 2613 02b0 06000000 		.4byte	.LVL27
 2614 02b4 0600     		.2byte	0x6
 2615 02b6 70       		.byte	0x70
 2616 02b7 00       		.sleb128 0
 2617 02b8 08       		.byte	0x8
 2618 02b9 38       		.byte	0x38
 2619 02ba 1A       		.byte	0x1a
 2620 02bb 9F       		.byte	0x9f
 2621 02bc 06000000 		.4byte	.LVL27
 2622 02c0 08000000 		.4byte	.LFE125
ARM GAS  /var/tmp//ccM7fHpp.s 			page 47


 2623 02c4 0100     		.2byte	0x1
 2624 02c6 50       		.byte	0x50
 2625 02c7 00000000 		.4byte	0
 2626 02cb 00000000 		.4byte	0
 2627              	.LLST5:
 2628 02cf 00000000 		.4byte	.LVL22
 2629 02d3 02000000 		.4byte	.LVL23
 2630 02d7 0100     		.2byte	0x1
 2631 02d9 50       		.byte	0x50
 2632 02da 02000000 		.4byte	.LVL23
 2633 02de 08000000 		.4byte	.LFE124
 2634 02e2 0400     		.2byte	0x4
 2635 02e4 F3       		.byte	0xf3
 2636 02e5 01       		.uleb128 0x1
 2637 02e6 50       		.byte	0x50
 2638 02e7 9F       		.byte	0x9f
 2639 02e8 00000000 		.4byte	0
 2640 02ec 00000000 		.4byte	0
 2641              	.LLST6:
 2642 02f0 00000000 		.4byte	.LVL22
 2643 02f4 02000000 		.4byte	.LVL23
 2644 02f8 0200     		.2byte	0x2
 2645 02fa 30       		.byte	0x30
 2646 02fb 9F       		.byte	0x9f
 2647 02fc 02000000 		.4byte	.LVL23
 2648 0300 06000000 		.4byte	.LVL24
 2649 0304 0100     		.2byte	0x1
 2650 0306 50       		.byte	0x50
 2651 0307 00000000 		.4byte	0
 2652 030b 00000000 		.4byte	0
 2653              	.LLST3:
 2654 030f 00000000 		.4byte	.LVL19
 2655 0313 02000000 		.4byte	.LVL20
 2656 0317 0100     		.2byte	0x1
 2657 0319 50       		.byte	0x50
 2658 031a 02000000 		.4byte	.LVL20
 2659 031e 08000000 		.4byte	.LFE123
 2660 0322 0400     		.2byte	0x4
 2661 0324 F3       		.byte	0xf3
 2662 0325 01       		.uleb128 0x1
 2663 0326 50       		.byte	0x50
 2664 0327 9F       		.byte	0x9f
 2665 0328 00000000 		.4byte	0
 2666 032c 00000000 		.4byte	0
 2667              	.LLST4:
 2668 0330 00000000 		.4byte	.LVL19
 2669 0334 02000000 		.4byte	.LVL20
 2670 0338 0200     		.2byte	0x2
 2671 033a 30       		.byte	0x30
 2672 033b 9F       		.byte	0x9f
 2673 033c 02000000 		.4byte	.LVL20
 2674 0340 06000000 		.4byte	.LVL21
 2675 0344 0C00     		.2byte	0xc
 2676 0346 70       		.byte	0x70
 2677 0347 00       		.sleb128 0
 2678 0348 40       		.byte	0x40
 2679 0349 3F       		.byte	0x3f
ARM GAS  /var/tmp//ccM7fHpp.s 			page 48


 2680 034a 24       		.byte	0x24
 2681 034b 1A       		.byte	0x1a
 2682 034c 30       		.byte	0x30
 2683 034d 2E       		.byte	0x2e
 2684 034e 08       		.byte	0x8
 2685 034f FF       		.byte	0xff
 2686 0350 1A       		.byte	0x1a
 2687 0351 9F       		.byte	0x9f
 2688 0352 00000000 		.4byte	0
 2689 0356 00000000 		.4byte	0
 2690              	.LLST2:
 2691 035a 00000000 		.4byte	.LVL14
 2692 035e 02000000 		.4byte	.LVL15
 2693 0362 0100     		.2byte	0x1
 2694 0364 50       		.byte	0x50
 2695 0365 02000000 		.4byte	.LVL15
 2696 0369 06000000 		.4byte	.LFE119
 2697 036d 0400     		.2byte	0x4
 2698 036f F3       		.byte	0xf3
 2699 0370 01       		.uleb128 0x1
 2700 0371 50       		.byte	0x50
 2701 0372 9F       		.byte	0x9f
 2702 0373 00000000 		.4byte	0
 2703 0377 00000000 		.4byte	0
 2704              	.LLST0:
 2705 037b 00000000 		.4byte	.LVL1
 2706 037f 3E000000 		.4byte	.LVL6
 2707 0383 0100     		.2byte	0x1
 2708 0385 51       		.byte	0x51
 2709 0386 3E000000 		.4byte	.LVL6
 2710 038a 58000000 		.4byte	.LFE113
 2711 038e 0400     		.2byte	0x4
 2712 0390 F3       		.byte	0xf3
 2713 0391 01       		.uleb128 0x1
 2714 0392 51       		.byte	0x51
 2715 0393 9F       		.byte	0x9f
 2716 0394 00000000 		.4byte	0
 2717 0398 00000000 		.4byte	0
 2718              	.LLST1:
 2719 039c 00000000 		.4byte	.LVL1
 2720 03a0 24000000 		.4byte	.LVL2
 2721 03a4 0200     		.2byte	0x2
 2722 03a6 30       		.byte	0x30
 2723 03a7 9F       		.byte	0x9f
 2724 03a8 24000000 		.4byte	.LVL2
 2725 03ac 2C000000 		.4byte	.LVL3
 2726 03b0 0100     		.2byte	0x1
 2727 03b2 57       		.byte	0x57
 2728 03b3 2C000000 		.4byte	.LVL3
 2729 03b7 30000000 		.4byte	.LVL4
 2730 03bb 0100     		.2byte	0x1
 2731 03bd 56       		.byte	0x56
 2732 03be 30000000 		.4byte	.LVL4
 2733 03c2 36000000 		.4byte	.LVL5
 2734 03c6 0100     		.2byte	0x1
 2735 03c8 53       		.byte	0x53
 2736 03c9 36000000 		.4byte	.LVL5
ARM GAS  /var/tmp//ccM7fHpp.s 			page 49


 2737 03cd 46000000 		.4byte	.LVL8
 2738 03d1 0100     		.2byte	0x1
 2739 03d3 52       		.byte	0x52
 2740 03d4 46000000 		.4byte	.LVL8
 2741 03d8 58000000 		.4byte	.LFE113
 2742 03dc 0100     		.2byte	0x1
 2743 03de 53       		.byte	0x53
 2744 03df 00000000 		.4byte	0
 2745 03e3 00000000 		.4byte	0
 2746              		.section	.debug_aranges,"",%progbits
 2747 0000 A4000000 		.4byte	0xa4
 2748 0004 0200     		.2byte	0x2
 2749 0006 00000000 		.4byte	.Ldebug_info0
 2750 000a 04       		.byte	0x4
 2751 000b 00       		.byte	0
 2752 000c 0000     		.2byte	0
 2753 000e 0000     		.2byte	0
 2754 0010 00000000 		.4byte	.LFB112
 2755 0014 30010000 		.4byte	.LFE112-.LFB112
 2756 0018 00000000 		.4byte	.LFB113
 2757 001c 58000000 		.4byte	.LFE113-.LFB113
 2758 0020 00000000 		.4byte	.LFB114
 2759 0024 22000000 		.4byte	.LFE114-.LFB114
 2760 0028 00000000 		.4byte	.LFB115
 2761 002c 14000000 		.4byte	.LFE115-.LFB115
 2762 0030 00000000 		.4byte	.LFB116
 2763 0034 14000000 		.4byte	.LFE116-.LFB116
 2764 0038 00000000 		.4byte	.LFB117
 2765 003c 14000000 		.4byte	.LFE117-.LFB117
 2766 0040 00000000 		.4byte	.LFB118
 2767 0044 04000000 		.4byte	.LFE118-.LFB118
 2768 0048 00000000 		.4byte	.LFB119
 2769 004c 06000000 		.4byte	.LFE119-.LFB119
 2770 0050 00000000 		.4byte	.LFB120
 2771 0054 18000000 		.4byte	.LFE120-.LFB120
 2772 0058 00000000 		.4byte	.LFB121
 2773 005c 14000000 		.4byte	.LFE121-.LFB121
 2774 0060 00000000 		.4byte	.LFB122
 2775 0064 0A000000 		.4byte	.LFE122-.LFB122
 2776 0068 00000000 		.4byte	.LFB123
 2777 006c 08000000 		.4byte	.LFE123-.LFB123
 2778 0070 00000000 		.4byte	.LFB124
 2779 0074 08000000 		.4byte	.LFE124-.LFB124
 2780 0078 00000000 		.4byte	.LFB125
 2781 007c 08000000 		.4byte	.LFE125-.LFB125
 2782 0080 00000000 		.4byte	.LFB126
 2783 0084 3C000000 		.4byte	.LFE126-.LFB126
 2784 0088 00000000 		.4byte	.LFB128
 2785 008c 40000000 		.4byte	.LFE128-.LFB128
 2786 0090 00000000 		.4byte	.LFB129
 2787 0094 54000000 		.4byte	.LFE129-.LFB129
 2788 0098 00000000 		.4byte	.LFB130
 2789 009c 34000000 		.4byte	.LFE130-.LFB130
 2790 00a0 00000000 		.4byte	0
 2791 00a4 00000000 		.4byte	0
 2792              		.section	.debug_ranges,"",%progbits
 2793              	.Ldebug_ranges0:
ARM GAS  /var/tmp//ccM7fHpp.s 			page 50


 2794 0000 00000000 		.4byte	.LFB112
 2795 0004 30010000 		.4byte	.LFE112
 2796 0008 00000000 		.4byte	.LFB113
 2797 000c 58000000 		.4byte	.LFE113
 2798 0010 00000000 		.4byte	.LFB114
 2799 0014 22000000 		.4byte	.LFE114
 2800 0018 00000000 		.4byte	.LFB115
 2801 001c 14000000 		.4byte	.LFE115
 2802 0020 00000000 		.4byte	.LFB116
 2803 0024 14000000 		.4byte	.LFE116
 2804 0028 00000000 		.4byte	.LFB117
 2805 002c 14000000 		.4byte	.LFE117
 2806 0030 00000000 		.4byte	.LFB118
 2807 0034 04000000 		.4byte	.LFE118
 2808 0038 00000000 		.4byte	.LFB119
 2809 003c 06000000 		.4byte	.LFE119
 2810 0040 00000000 		.4byte	.LFB120
 2811 0044 18000000 		.4byte	.LFE120
 2812 0048 00000000 		.4byte	.LFB121
 2813 004c 14000000 		.4byte	.LFE121
 2814 0050 00000000 		.4byte	.LFB122
 2815 0054 0A000000 		.4byte	.LFE122
 2816 0058 00000000 		.4byte	.LFB123
 2817 005c 08000000 		.4byte	.LFE123
 2818 0060 00000000 		.4byte	.LFB124
 2819 0064 08000000 		.4byte	.LFE124
 2820 0068 00000000 		.4byte	.LFB125
 2821 006c 08000000 		.4byte	.LFE125
 2822 0070 00000000 		.4byte	.LFB126
 2823 0074 3C000000 		.4byte	.LFE126
 2824 0078 00000000 		.4byte	.LFB128
 2825 007c 40000000 		.4byte	.LFE128
 2826 0080 00000000 		.4byte	.LFB129
 2827 0084 54000000 		.4byte	.LFE129
 2828 0088 00000000 		.4byte	.LFB130
 2829 008c 34000000 		.4byte	.LFE130
 2830 0090 00000000 		.4byte	0
 2831 0094 00000000 		.4byte	0
 2832              		.section	.debug_line,"",%progbits
 2833              	.Ldebug_line0:
 2834 0000 1D040000 		.section	.debug_str,"MS",%progbits,1
 2834      0200D301 
 2834      00000201 
 2834      FB0E0D00 
 2834      01010101 
 2835              	.LASF71:
 2836 0000 444D415F 		.ascii	"DMA_CurrentMemory\000"
 2836      43757272 
 2836      656E744D 
 2836      656D6F72 
 2836      7900
 2837              	.LASF79:
 2838 0012 444D415F 		.ascii	"DMA_Cmd\000"
 2838      436D6400 
 2839              	.LASF66:
 2840 001a 4D656D6F 		.ascii	"MemoryBaseAddr\000"
 2840      72794261 
ARM GAS  /var/tmp//ccM7fHpp.s 			page 51


 2840      73654164 
 2840      647200
 2841              	.LASF0:
 2842 0029 7369676E 		.ascii	"signed char\000"
 2842      65642063 
 2842      68617200 
 2843              	.LASF21:
 2844 0035 444D415F 		.ascii	"DMA_Stream_TypeDef\000"
 2844      53747265 
 2844      616D5F54 
 2844      79706544 
 2844      656600
 2845              	.LASF63:
 2846 0048 73746174 		.ascii	"state\000"
 2846      6500
 2847              	.LASF43:
 2848 004e 444D415F 		.ascii	"DMA_Priority\000"
 2848      5072696F 
 2848      72697479 
 2848      00
 2849              	.LASF15:
 2850 005b 73697A65 		.ascii	"sizetype\000"
 2850      74797065 
 2850      00
 2851              	.LASF74:
 2852 0064 436F756E 		.ascii	"Counter\000"
 2852      74657200 
 2853              	.LASF80:
 2854 006c 444D415F 		.ascii	"DMA_StructInit\000"
 2854      53747275 
 2854      6374496E 
 2854      697400
 2855              	.LASF47:
 2856 007b 444D415F 		.ascii	"DMA_PeripheralBurst\000"
 2856      50657269 
 2856      70686572 
 2856      616C4275 
 2856      72737400 
 2857              	.LASF7:
 2858 008f 5F5F7569 		.ascii	"__uint32_t\000"
 2858      6E743332 
 2858      5F7400
 2859              	.LASF61:
 2860 009a 444D415F 		.ascii	"DMA_GetFIFOStatus\000"
 2860      47657446 
 2860      49464F53 
 2860      74617475 
 2860      7300
 2861              	.LASF4:
 2862 00ac 5F5F7569 		.ascii	"__uint16_t\000"
 2862      6E743136 
 2862      5F7400
 2863              	.LASF62:
 2864 00b7 444D415F 		.ascii	"DMA_GetCmdStatus\000"
 2864      47657443 
 2864      6D645374 
 2864      61747573 
ARM GAS  /var/tmp//ccM7fHpp.s 			page 52


 2864      00
 2865              	.LASF67:
 2866 00c8 444D415F 		.ascii	"DMA_MemoryTarget\000"
 2866      4D656D6F 
 2866      72795461 
 2866      72676574 
 2866      00
 2867              	.LASF26:
 2868 00d9 444D415F 		.ascii	"DMA_TypeDef\000"
 2868      54797065 
 2868      44656600 
 2869              	.LASF51:
 2870 00e5 444D4179 		.ascii	"DMAy\000"
 2870      00
 2871              	.LASF36:
 2872 00ea 444D415F 		.ascii	"DMA_DIR\000"
 2872      44495200 
 2873              	.LASF57:
 2874 00f2 4E657753 		.ascii	"NewState\000"
 2874      74617465 
 2874      00
 2875              	.LASF34:
 2876 00fb 444D415F 		.ascii	"DMA_PeripheralBaseAddr\000"
 2876      50657269 
 2876      70686572 
 2876      616C4261 
 2876      73654164 
 2877              	.LASF30:
 2878 0112 44495341 		.ascii	"DISABLE\000"
 2878      424C4500 
 2879              	.LASF2:
 2880 011a 73686F72 		.ascii	"short int\000"
 2880      7420696E 
 2880      7400
 2881              	.LASF84:
 2882 0124 43686962 		.ascii	"ChibiOS_3.0.2/ext/stdperiph_stm32f4/src/stm32f4xx_d"
 2882      694F535F 
 2882      332E302E 
 2882      322F6578 
 2882      742F7374 
 2883 0157 6D612E63 		.ascii	"ma.c\000"
 2883      00
 2884              	.LASF39:
 2885 015c 444D415F 		.ascii	"DMA_MemoryInc\000"
 2885      4D656D6F 
 2885      7279496E 
 2885      6300
 2886              	.LASF54:
 2887 016a 656E6162 		.ascii	"enablestatus\000"
 2887      6C657374 
 2887      61747573 
 2887      00
 2888              	.LASF25:
 2889 0177 48494643 		.ascii	"HIFCR\000"
 2889      5200
 2890              	.LASF9:
 2891 017d 6C6F6E67 		.ascii	"long long int\000"
ARM GAS  /var/tmp//ccM7fHpp.s 			page 53


 2891      206C6F6E 
 2891      6720696E 
 2891      7400
 2892              	.LASF75:
 2893 018b 444D415F 		.ascii	"DMA_FlowControllerConfig\000"
 2893      466C6F77 
 2893      436F6E74 
 2893      726F6C6C 
 2893      6572436F 
 2894              	.LASF65:
 2895 01a4 444D415F 		.ascii	"DMA_MemoryTargetConfig\000"
 2895      4D656D6F 
 2895      72795461 
 2895      72676574 
 2895      436F6E66 
 2896              	.LASF38:
 2897 01bb 444D415F 		.ascii	"DMA_PeripheralInc\000"
 2897      50657269 
 2897      70686572 
 2897      616C496E 
 2897      6300
 2898              	.LASF29:
 2899 01cd 49545374 		.ascii	"ITStatus\000"
 2899      61747573 
 2899      00
 2900              	.LASF23:
 2901 01d6 48495352 		.ascii	"HISR\000"
 2901      00
 2902              	.LASF6:
 2903 01db 6C6F6E67 		.ascii	"long int\000"
 2903      20696E74 
 2903      00
 2904              	.LASF82:
 2905 01e4 444D415F 		.ascii	"DMA_Init\000"
 2905      496E6974 
 2905      00
 2906              	.LASF22:
 2907 01ed 4C495352 		.ascii	"LISR\000"
 2907      00
 2908              	.LASF86:
 2909 01f2 444D415F 		.ascii	"DMA_ClearFlag\000"
 2909      436C6561 
 2909      72466C61 
 2909      6700
 2910              	.LASF73:
 2911 0200 444D415F 		.ascii	"DMA_SetCurrDataCounter\000"
 2911      53657443 
 2911      75727244 
 2911      61746143 
 2911      6F756E74 
 2912              	.LASF50:
 2913 0217 444D415F 		.ascii	"DMA_IT\000"
 2913      495400
 2914              	.LASF53:
 2915 021e 746D7072 		.ascii	"tmpreg\000"
 2915      656700
 2916              	.LASF52:
ARM GAS  /var/tmp//ccM7fHpp.s 			page 54


 2917 0225 62697473 		.ascii	"bitstatus\000"
 2917      74617475 
 2917      7300
 2918              	.LASF40:
 2919 022f 444D415F 		.ascii	"DMA_PeripheralDataSize\000"
 2919      50657269 
 2919      70686572 
 2919      616C4461 
 2919      74615369 
 2920              	.LASF48:
 2921 0246 444D415F 		.ascii	"DMA_InitTypeDef\000"
 2921      496E6974 
 2921      54797065 
 2921      44656600 
 2922              	.LASF1:
 2923 0256 756E7369 		.ascii	"unsigned char\000"
 2923      676E6564 
 2923      20636861 
 2923      7200
 2924              	.LASF83:
 2925 0264 474E5520 		.ascii	"GNU C99 6.3.1 20170620 (release) [ARM/embedded-6-br"
 2925      43393920 
 2925      362E332E 
 2925      31203230 
 2925      31373036 
 2926 0297 616E6368 		.ascii	"anch revision 249437] -mcpu=cortex-m4 -mfloat-abi=h"
 2926      20726576 
 2926      6973696F 
 2926      6E203234 
 2926      39343337 
 2927 02ca 61726420 		.ascii	"ard -mfpu=fpv4-sp-d16 -mno-thumb-interwork -mthumb "
 2927      2D6D6670 
 2927      753D6670 
 2927      76342D73 
 2927      702D6431 
 2928 02fd 2D676764 		.ascii	"-ggdb -O2 -std=gnu99 -fomit-frame-pointer -falign-f"
 2928      62202D4F 
 2928      32202D73 
 2928      74643D67 
 2928      6E753939 
 2929 0330 756E6374 		.ascii	"unctions=16 -ffunction-sections -fdata-sections -fn"
 2929      696F6E73 
 2929      3D313620 
 2929      2D666675 
 2929      6E637469 
 2930 0363 6F2D636F 		.ascii	"o-common -fsingle-precision-constant\000"
 2930      6D6D6F6E 
 2930      202D6673 
 2930      696E676C 
 2930      652D7072 
 2931              	.LASF37:
 2932 0388 444D415F 		.ascii	"DMA_BufferSize\000"
 2932      42756666 
 2932      65725369 
 2932      7A6500
 2933              	.LASF69:
 2934 0397 444D415F 		.ascii	"DMA_DoubleBufferModeConfig\000"
ARM GAS  /var/tmp//ccM7fHpp.s 			page 55


 2934      446F7562 
 2934      6C654275 
 2934      66666572 
 2934      4D6F6465 
 2935              	.LASF10:
 2936 03b2 6C6F6E67 		.ascii	"long long unsigned int\000"
 2936      206C6F6E 
 2936      6720756E 
 2936      7369676E 
 2936      65642069 
 2937              	.LASF49:
 2938 03c9 444D4179 		.ascii	"DMAy_Streamx\000"
 2938      5F537472 
 2938      65616D78 
 2938      00
 2939              	.LASF14:
 2940 03d6 75696E74 		.ascii	"uint32_t\000"
 2940      33325F74 
 2940      00
 2941              	.LASF11:
 2942 03df 756E7369 		.ascii	"unsigned int\000"
 2942      676E6564 
 2942      20696E74 
 2942      00
 2943              	.LASF59:
 2944 03ec 444D415F 		.ascii	"DMA_GetITStatus\000"
 2944      47657449 
 2944      54537461 
 2944      74757300 
 2945              	.LASF12:
 2946 03fc 75696E74 		.ascii	"uint16_t\000"
 2946      31365F74 
 2946      00
 2947              	.LASF8:
 2948 0405 6C6F6E67 		.ascii	"long unsigned int\000"
 2948      20756E73 
 2948      69676E65 
 2948      6420696E 
 2948      7400
 2949              	.LASF81:
 2950 0417 444D415F 		.ascii	"DMA_InitStruct\000"
 2950      496E6974 
 2950      53747275 
 2950      637400
 2951              	.LASF78:
 2952 0426 444D415F 		.ascii	"DMA_Pincos\000"
 2952      50696E63 
 2952      6F7300
 2953              	.LASF3:
 2954 0431 73686F72 		.ascii	"short unsigned int\000"
 2954      7420756E 
 2954      7369676E 
 2954      65642069 
 2954      6E7400
 2955              	.LASF20:
 2956 0444 4D314152 		.ascii	"M1AR\000"
 2956      00
ARM GAS  /var/tmp//ccM7fHpp.s 			page 56


 2957              	.LASF46:
 2958 0449 444D415F 		.ascii	"DMA_MemoryBurst\000"
 2958      4D656D6F 
 2958      72794275 
 2958      72737400 
 2959              	.LASF76:
 2960 0459 444D415F 		.ascii	"DMA_FlowCtrl\000"
 2960      466C6F77 
 2960      4374726C 
 2960      00
 2961              	.LASF13:
 2962 0466 696E7433 		.ascii	"int32_t\000"
 2962      325F7400 
 2963              	.LASF58:
 2964 046e 444D415F 		.ascii	"DMA_FLAG\000"
 2964      464C4147 
 2964      00
 2965              	.LASF55:
 2966 0477 444D415F 		.ascii	"DMA_ClearITPendingBit\000"
 2966      436C6561 
 2966      72495450 
 2966      656E6469 
 2966      6E674269 
 2967              	.LASF17:
 2968 048d 53797374 		.ascii	"SystemCoreClock\000"
 2968      656D436F 
 2968      7265436C 
 2968      6F636B00 
 2969              	.LASF77:
 2970 049d 444D415F 		.ascii	"DMA_PeriphIncOffsetSizeConfig\000"
 2970      50657269 
 2970      7068496E 
 2970      634F6666 
 2970      73657453 
 2971              	.LASF60:
 2972 04bb 444D415F 		.ascii	"DMA_GetFlagStatus\000"
 2972      47657446 
 2972      6C616753 
 2972      74617475 
 2972      7300
 2973              	.LASF24:
 2974 04cd 4C494643 		.ascii	"LIFCR\000"
 2974      5200
 2975              	.LASF19:
 2976 04d3 4D304152 		.ascii	"M0AR\000"
 2976      00
 2977              	.LASF64:
 2978 04d8 444D415F 		.ascii	"DMA_GetCurrentMemoryTarget\000"
 2978      47657443 
 2978      75727265 
 2978      6E744D65 
 2978      6D6F7279 
 2979              	.LASF18:
 2980 04f3 4E445452 		.ascii	"NDTR\000"
 2980      00
 2981              	.LASF32:
 2982 04f8 46756E63 		.ascii	"FunctionalState\000"
ARM GAS  /var/tmp//ccM7fHpp.s 			page 57


 2982      74696F6E 
 2982      616C5374 
 2982      61746500 
 2983              	.LASF70:
 2984 0508 4D656D6F 		.ascii	"Memory1BaseAddr\000"
 2984      72793142 
 2984      61736541 
 2984      64647200 
 2985              	.LASF44:
 2986 0518 444D415F 		.ascii	"DMA_FIFOMode\000"
 2986      4649464F 
 2986      4D6F6465 
 2986      00
 2987              	.LASF33:
 2988 0525 444D415F 		.ascii	"DMA_Channel\000"
 2988      4368616E 
 2988      6E656C00 
 2989              	.LASF5:
 2990 0531 5F5F696E 		.ascii	"__int32_t\000"
 2990      7433325F 
 2990      7400
 2991              	.LASF87:
 2992 053b 444D415F 		.ascii	"DMA_DeInit\000"
 2992      4465496E 
 2992      697400
 2993              	.LASF27:
 2994 0546 52455345 		.ascii	"RESET\000"
 2994      5400
 2995              	.LASF35:
 2996 054c 444D415F 		.ascii	"DMA_Memory0BaseAddr\000"
 2996      4D656D6F 
 2996      72793042 
 2996      61736541 
 2996      64647200 
 2997              	.LASF68:
 2998 0560 444D415F 		.ascii	"DMA_DoubleBufferModeCmd\000"
 2998      446F7562 
 2998      6C654275 
 2998      66666572 
 2998      4D6F6465 
 2999              	.LASF42:
 3000 0578 444D415F 		.ascii	"DMA_Mode\000"
 3000      4D6F6465 
 3000      00
 3001              	.LASF72:
 3002 0581 444D415F 		.ascii	"DMA_GetCurrDataCounter\000"
 3002      47657443 
 3002      75727244 
 3002      61746143 
 3002      6F756E74 
 3003              	.LASF16:
 3004 0598 49544D5F 		.ascii	"ITM_RxBuffer\000"
 3004      52784275 
 3004      66666572 
 3004      00
 3005              	.LASF45:
 3006 05a5 444D415F 		.ascii	"DMA_FIFOThreshold\000"
ARM GAS  /var/tmp//ccM7fHpp.s 			page 58


 3006      4649464F 
 3006      54687265 
 3006      73686F6C 
 3006      6400
 3007              	.LASF28:
 3008 05b7 466C6167 		.ascii	"FlagStatus\000"
 3008      53746174 
 3008      757300
 3009              	.LASF85:
 3010 05c2 2F557365 		.ascii	"/Users/yanrudall/Documents/eBike/eBikeTestApplicati"
 3010      72732F79 
 3010      616E7275 
 3010      64616C6C 
 3010      2F446F63 
 3011 05f5 6F6E2F65 		.ascii	"on/eBikeTestApplication\000"
 3011      42696B65 
 3011      54657374 
 3011      4170706C 
 3011      69636174 
 3012              	.LASF31:
 3013 060d 454E4142 		.ascii	"ENABLE\000"
 3013      4C4500
 3014              	.LASF56:
 3015 0614 444D415F 		.ascii	"DMA_ITConfig\000"
 3015      4954436F 
 3015      6E666967 
 3015      00
 3016              	.LASF41:
 3017 0621 444D415F 		.ascii	"DMA_MemoryDataSize\000"
 3017      4D656D6F 
 3017      72794461 
 3017      74615369 
 3017      7A6500
 3018              		.ident	"GCC: (GNU Tools for ARM Embedded Processors 6-2017-q2-update) 6.3.1 20170620 (release) [AR
ARM GAS  /var/tmp//ccM7fHpp.s 			page 59


DEFINED SYMBOLS
                            *ABS*:0000000000000000 stm32f4xx_dma.c
/var/tmp//ccM7fHpp.s:18     .text.DMA_DeInit:0000000000000000 $t
/var/tmp//ccM7fHpp.s:26     .text.DMA_DeInit:0000000000000000 DMA_DeInit
/var/tmp//ccM7fHpp.s:211    .text.DMA_DeInit:00000000000000e0 $d
/var/tmp//ccM7fHpp.s:235    .text.DMA_Init:0000000000000000 $t
/var/tmp//ccM7fHpp.s:243    .text.DMA_Init:0000000000000000 DMA_Init
/var/tmp//ccM7fHpp.s:345    .text.DMA_Init:0000000000000054 $d
/var/tmp//ccM7fHpp.s:350    .text.DMA_StructInit:0000000000000000 $t
/var/tmp//ccM7fHpp.s:358    .text.DMA_StructInit:0000000000000000 DMA_StructInit
/var/tmp//ccM7fHpp.s:402    .text.DMA_Cmd:0000000000000000 $t
/var/tmp//ccM7fHpp.s:410    .text.DMA_Cmd:0000000000000000 DMA_Cmd
/var/tmp//ccM7fHpp.s:435    .text.DMA_PeriphIncOffsetSizeConfig:0000000000000000 $t
/var/tmp//ccM7fHpp.s:443    .text.DMA_PeriphIncOffsetSizeConfig:0000000000000000 DMA_PeriphIncOffsetSizeConfig
/var/tmp//ccM7fHpp.s:468    .text.DMA_FlowControllerConfig:0000000000000000 $t
/var/tmp//ccM7fHpp.s:476    .text.DMA_FlowControllerConfig:0000000000000000 DMA_FlowControllerConfig
/var/tmp//ccM7fHpp.s:501    .text.DMA_SetCurrDataCounter:0000000000000000 $t
/var/tmp//ccM7fHpp.s:509    .text.DMA_SetCurrDataCounter:0000000000000000 DMA_SetCurrDataCounter
/var/tmp//ccM7fHpp.s:524    .text.DMA_GetCurrDataCounter:0000000000000000 $t
/var/tmp//ccM7fHpp.s:532    .text.DMA_GetCurrDataCounter:0000000000000000 DMA_GetCurrDataCounter
/var/tmp//ccM7fHpp.s:550    .text.DMA_DoubleBufferModeConfig:0000000000000000 $t
/var/tmp//ccM7fHpp.s:558    .text.DMA_DoubleBufferModeConfig:0000000000000000 DMA_DoubleBufferModeConfig
/var/tmp//ccM7fHpp.s:587    .text.DMA_DoubleBufferModeCmd:0000000000000000 $t
/var/tmp//ccM7fHpp.s:595    .text.DMA_DoubleBufferModeCmd:0000000000000000 DMA_DoubleBufferModeCmd
/var/tmp//ccM7fHpp.s:620    .text.DMA_MemoryTargetConfig:0000000000000000 $t
/var/tmp//ccM7fHpp.s:628    .text.DMA_MemoryTargetConfig:0000000000000000 DMA_MemoryTargetConfig
/var/tmp//ccM7fHpp.s:649    .text.DMA_GetCurrentMemoryTarget:0000000000000000 $t
/var/tmp//ccM7fHpp.s:657    .text.DMA_GetCurrentMemoryTarget:0000000000000000 DMA_GetCurrentMemoryTarget
/var/tmp//ccM7fHpp.s:676    .text.DMA_GetCmdStatus:0000000000000000 $t
/var/tmp//ccM7fHpp.s:684    .text.DMA_GetCmdStatus:0000000000000000 DMA_GetCmdStatus
/var/tmp//ccM7fHpp.s:703    .text.DMA_GetFIFOStatus:0000000000000000 $t
/var/tmp//ccM7fHpp.s:711    .text.DMA_GetFIFOStatus:0000000000000000 DMA_GetFIFOStatus
/var/tmp//ccM7fHpp.s:730    .text.DMA_GetFlagStatus:0000000000000000 $t
/var/tmp//ccM7fHpp.s:738    .text.DMA_GetFlagStatus:0000000000000000 DMA_GetFlagStatus
/var/tmp//ccM7fHpp.s:788    .text.DMA_GetFlagStatus:0000000000000030 $d
/var/tmp//ccM7fHpp.s:795    .text.DMA_ITConfig:0000000000000000 $t
/var/tmp//ccM7fHpp.s:803    .text.DMA_ITConfig:0000000000000000 DMA_ITConfig
/var/tmp//ccM7fHpp.s:866    .text.DMA_GetITStatus:0000000000000000 $t
/var/tmp//ccM7fHpp.s:874    .text.DMA_GetITStatus:0000000000000000 DMA_GetITStatus
/var/tmp//ccM7fHpp.s:952    .text.DMA_GetITStatus:0000000000000048 $d
/var/tmp//ccM7fHpp.s:959    .text.DMA_ClearITPendingBit:0000000000000000 $t
/var/tmp//ccM7fHpp.s:967    .text.DMA_ClearITPendingBit:0000000000000000 DMA_ClearITPendingBit
/var/tmp//ccM7fHpp.s:1007   .text.DMA_ClearITPendingBit:0000000000000028 $d
/var/tmp//ccM7fHpp.s:1014   .text.DMA_ClearFlag:0000000000000000 $t
/var/tmp//ccM7fHpp.s:1022   .text.DMA_ClearFlag:0000000000000000 DMA_ClearFlag
                     .debug_frame:0000000000000010 $d

NO UNDEFINED SYMBOLS
