ARM GAS  C:\Users\Grillmo\AppData\Local\Temp\ccN7xt8j.s 			page 1


   1              		.cpu cortex-m4
   2              		.eabi_attribute 27, 1
   3              		.eabi_attribute 28, 1
   4              		.eabi_attribute 20, 1
   5              		.eabi_attribute 21, 1
   6              		.eabi_attribute 23, 3
   7              		.eabi_attribute 24, 1
   8              		.eabi_attribute 25, 1
   9              		.eabi_attribute 26, 1
  10              		.eabi_attribute 30, 2
  11              		.eabi_attribute 34, 1
  12              		.eabi_attribute 18, 4
  13              		.file	"stm32f4xx_tim.c"
  14              		.text
  15              	.Ltext0:
  16              		.cfi_sections	.debug_frame
  17              		.section	.text.TIM_DeInit,"ax",%progbits
  18              		.align	1
  19              		.p2align 4,,15
  20              		.global	TIM_DeInit
  21              		.syntax unified
  22              		.thumb
  23              		.thumb_func
  24              		.fpu fpv4-sp-d16
  25              		.type	TIM_DeInit, %function
  26              	TIM_DeInit:
  27              	.LFB112:
  28              		.file 1 "ChibiOS_3.0.2/ext/stdperiph_stm32f4/src/stm32f4xx_tim.c"
  29              		.loc 1 205 0
  30              		.cfi_startproc
  31              		@ args = 0, pretend = 0, frame = 0
  32              		@ frame_needed = 0, uses_anonymous_args = 0
  33              	.LVL0:
  34 0000 08B5     		push	{r3, lr}
  35              		.cfi_def_cfa_offset 8
  36              		.cfi_offset 3, -8
  37              		.cfi_offset 14, -4
  38              		.loc 1 209 0
  39 0002 604B     		ldr	r3, .L32
  40 0004 9842     		cmp	r0, r3
  41 0006 35D0     		beq	.L18
  42              		.loc 1 214 0
  43 0008 B0F1804F 		cmp	r0, #1073741824
  44 000c 3CD0     		beq	.L19
  45              		.loc 1 219 0
  46 000e 5E4B     		ldr	r3, .L32+4
  47 0010 9842     		cmp	r0, r3
  48 0012 43D0     		beq	.L20
  49              		.loc 1 224 0
  50 0014 5D4B     		ldr	r3, .L32+8
  51 0016 9842     		cmp	r0, r3
  52 0018 4AD0     		beq	.L21
  53              		.loc 1 229 0
  54 001a 5D4B     		ldr	r3, .L32+12
  55 001c 9842     		cmp	r0, r3
  56 001e 51D0     		beq	.L22
  57              		.loc 1 234 0
ARM GAS  C:\Users\Grillmo\AppData\Local\Temp\ccN7xt8j.s 			page 2


  58 0020 5C4B     		ldr	r3, .L32+16
  59 0022 9842     		cmp	r0, r3
  60 0024 58D0     		beq	.L23
  61              		.loc 1 239 0
  62 0026 5C4B     		ldr	r3, .L32+20
  63 0028 9842     		cmp	r0, r3
  64 002a 5FD0     		beq	.L24
  65              		.loc 1 244 0
  66 002c 5B4B     		ldr	r3, .L32+24
  67 002e 9842     		cmp	r0, r3
  68 0030 66D0     		beq	.L25
  69              		.loc 1 249 0
  70 0032 5B4B     		ldr	r3, .L32+28
  71 0034 9842     		cmp	r0, r3
  72 0036 6DD0     		beq	.L26
  73              		.loc 1 254 0
  74 0038 5A4B     		ldr	r3, .L32+32
  75 003a 9842     		cmp	r0, r3
  76 003c 76D0     		beq	.L27
  77              		.loc 1 259 0
  78 003e 5A4B     		ldr	r3, .L32+36
  79 0040 9842     		cmp	r0, r3
  80 0042 7FD0     		beq	.L28
  81              		.loc 1 264 0
  82 0044 594B     		ldr	r3, .L32+40
  83 0046 9842     		cmp	r0, r3
  84 0048 00F08880 		beq	.L29
  85              		.loc 1 269 0
  86 004c 584B     		ldr	r3, .L32+44
  87 004e 9842     		cmp	r0, r3
  88 0050 00F08E80 		beq	.L30
  89              		.loc 1 276 0
  90 0054 574B     		ldr	r3, .L32+48
  91 0056 9842     		cmp	r0, r3
  92 0058 00D0     		beq	.L31
  93 005a 08BD     		pop	{r3, pc}
  94              	.L31:
  95              		.loc 1 278 0
  96 005c 0121     		movs	r1, #1
  97 005e 4FF48070 		mov	r0, #256
  98              	.LVL1:
  99 0062 FFF7FEFF 		bl	RCC_APB1PeriphResetCmd
 100              	.LVL2:
 101              		.loc 1 279 0
 102 0066 0021     		movs	r1, #0
 103 0068 4FF48070 		mov	r0, #256
 104              		.loc 1 282 0
 105 006c BDE80840 		pop	{r3, lr}
 106              		.cfi_remember_state
 107              		.cfi_restore 14
 108              		.cfi_restore 3
 109              		.cfi_def_cfa_offset 0
 110              		.loc 1 279 0
 111 0070 FFF7FEBF 		b	RCC_APB1PeriphResetCmd
 112              	.LVL3:
 113              	.L18:
 114              		.cfi_restore_state
ARM GAS  C:\Users\Grillmo\AppData\Local\Temp\ccN7xt8j.s 			page 3


 115              		.loc 1 211 0
 116 0074 0121     		movs	r1, #1
 117 0076 0846     		mov	r0, r1
 118              	.LVL4:
 119 0078 FFF7FEFF 		bl	RCC_APB2PeriphResetCmd
 120              	.LVL5:
 121              		.loc 1 212 0
 122 007c 0021     		movs	r1, #0
 123 007e 0120     		movs	r0, #1
 124              		.loc 1 282 0
 125 0080 BDE80840 		pop	{r3, lr}
 126              		.cfi_remember_state
 127              		.cfi_restore 14
 128              		.cfi_restore 3
 129              		.cfi_def_cfa_offset 0
 130              		.loc 1 212 0
 131 0084 FFF7FEBF 		b	RCC_APB2PeriphResetCmd
 132              	.LVL6:
 133              	.L19:
 134              		.cfi_restore_state
 135              		.loc 1 216 0
 136 0088 0121     		movs	r1, #1
 137 008a 0846     		mov	r0, r1
 138              	.LVL7:
 139 008c FFF7FEFF 		bl	RCC_APB1PeriphResetCmd
 140              	.LVL8:
 141              		.loc 1 217 0
 142 0090 0021     		movs	r1, #0
 143 0092 0120     		movs	r0, #1
 144              		.loc 1 282 0
 145 0094 BDE80840 		pop	{r3, lr}
 146              		.cfi_remember_state
 147              		.cfi_restore 14
 148              		.cfi_restore 3
 149              		.cfi_def_cfa_offset 0
 150              		.loc 1 217 0
 151 0098 FFF7FEBF 		b	RCC_APB1PeriphResetCmd
 152              	.LVL9:
 153              	.L20:
 154              		.cfi_restore_state
 155              		.loc 1 221 0
 156 009c 0121     		movs	r1, #1
 157 009e 0220     		movs	r0, #2
 158              	.LVL10:
 159 00a0 FFF7FEFF 		bl	RCC_APB1PeriphResetCmd
 160              	.LVL11:
 161              		.loc 1 222 0
 162 00a4 0021     		movs	r1, #0
 163 00a6 0220     		movs	r0, #2
 164              		.loc 1 282 0
 165 00a8 BDE80840 		pop	{r3, lr}
 166              		.cfi_remember_state
 167              		.cfi_restore 14
 168              		.cfi_restore 3
 169              		.cfi_def_cfa_offset 0
 170              		.loc 1 222 0
 171 00ac FFF7FEBF 		b	RCC_APB1PeriphResetCmd
ARM GAS  C:\Users\Grillmo\AppData\Local\Temp\ccN7xt8j.s 			page 4


 172              	.LVL12:
 173              	.L21:
 174              		.cfi_restore_state
 175              		.loc 1 226 0
 176 00b0 0121     		movs	r1, #1
 177 00b2 0420     		movs	r0, #4
 178              	.LVL13:
 179 00b4 FFF7FEFF 		bl	RCC_APB1PeriphResetCmd
 180              	.LVL14:
 181              		.loc 1 227 0
 182 00b8 0021     		movs	r1, #0
 183 00ba 0420     		movs	r0, #4
 184              		.loc 1 282 0
 185 00bc BDE80840 		pop	{r3, lr}
 186              		.cfi_remember_state
 187              		.cfi_restore 14
 188              		.cfi_restore 3
 189              		.cfi_def_cfa_offset 0
 190              		.loc 1 227 0
 191 00c0 FFF7FEBF 		b	RCC_APB1PeriphResetCmd
 192              	.LVL15:
 193              	.L22:
 194              		.cfi_restore_state
 195              		.loc 1 231 0
 196 00c4 0121     		movs	r1, #1
 197 00c6 0820     		movs	r0, #8
 198              	.LVL16:
 199 00c8 FFF7FEFF 		bl	RCC_APB1PeriphResetCmd
 200              	.LVL17:
 201              		.loc 1 232 0
 202 00cc 0021     		movs	r1, #0
 203 00ce 0820     		movs	r0, #8
 204              		.loc 1 282 0
 205 00d0 BDE80840 		pop	{r3, lr}
 206              		.cfi_remember_state
 207              		.cfi_restore 14
 208              		.cfi_restore 3
 209              		.cfi_def_cfa_offset 0
 210              		.loc 1 232 0
 211 00d4 FFF7FEBF 		b	RCC_APB1PeriphResetCmd
 212              	.LVL18:
 213              	.L23:
 214              		.cfi_restore_state
 215              		.loc 1 236 0
 216 00d8 0121     		movs	r1, #1
 217 00da 1020     		movs	r0, #16
 218              	.LVL19:
 219 00dc FFF7FEFF 		bl	RCC_APB1PeriphResetCmd
 220              	.LVL20:
 221              		.loc 1 237 0
 222 00e0 0021     		movs	r1, #0
 223 00e2 1020     		movs	r0, #16
 224              		.loc 1 282 0
 225 00e4 BDE80840 		pop	{r3, lr}
 226              		.cfi_remember_state
 227              		.cfi_restore 14
 228              		.cfi_restore 3
ARM GAS  C:\Users\Grillmo\AppData\Local\Temp\ccN7xt8j.s 			page 5


 229              		.cfi_def_cfa_offset 0
 230              		.loc 1 237 0
 231 00e8 FFF7FEBF 		b	RCC_APB1PeriphResetCmd
 232              	.LVL21:
 233              	.L24:
 234              		.cfi_restore_state
 235              		.loc 1 241 0
 236 00ec 0121     		movs	r1, #1
 237 00ee 2020     		movs	r0, #32
 238              	.LVL22:
 239 00f0 FFF7FEFF 		bl	RCC_APB1PeriphResetCmd
 240              	.LVL23:
 241              		.loc 1 242 0
 242 00f4 0021     		movs	r1, #0
 243 00f6 2020     		movs	r0, #32
 244              		.loc 1 282 0
 245 00f8 BDE80840 		pop	{r3, lr}
 246              		.cfi_remember_state
 247              		.cfi_restore 14
 248              		.cfi_restore 3
 249              		.cfi_def_cfa_offset 0
 250              		.loc 1 242 0
 251 00fc FFF7FEBF 		b	RCC_APB1PeriphResetCmd
 252              	.LVL24:
 253              	.L25:
 254              		.cfi_restore_state
 255              		.loc 1 246 0
 256 0100 0121     		movs	r1, #1
 257 0102 0220     		movs	r0, #2
 258              	.LVL25:
 259 0104 FFF7FEFF 		bl	RCC_APB2PeriphResetCmd
 260              	.LVL26:
 261              		.loc 1 247 0
 262 0108 0021     		movs	r1, #0
 263 010a 0220     		movs	r0, #2
 264              		.loc 1 282 0
 265 010c BDE80840 		pop	{r3, lr}
 266              		.cfi_remember_state
 267              		.cfi_restore 14
 268              		.cfi_restore 3
 269              		.cfi_def_cfa_offset 0
 270              		.loc 1 247 0
 271 0110 FFF7FEBF 		b	RCC_APB2PeriphResetCmd
 272              	.LVL27:
 273              	.L26:
 274              		.cfi_restore_state
 275              		.loc 1 251 0
 276 0114 0121     		movs	r1, #1
 277 0116 4FF48030 		mov	r0, #65536
 278              	.LVL28:
 279 011a FFF7FEFF 		bl	RCC_APB2PeriphResetCmd
 280              	.LVL29:
 281              		.loc 1 252 0
 282 011e 0021     		movs	r1, #0
 283 0120 4FF48030 		mov	r0, #65536
 284              		.loc 1 282 0
 285 0124 BDE80840 		pop	{r3, lr}
ARM GAS  C:\Users\Grillmo\AppData\Local\Temp\ccN7xt8j.s 			page 6


 286              		.cfi_remember_state
 287              		.cfi_restore 14
 288              		.cfi_restore 3
 289              		.cfi_def_cfa_offset 0
 290              		.loc 1 252 0
 291 0128 FFF7FEBF 		b	RCC_APB2PeriphResetCmd
 292              	.LVL30:
 293              	.L27:
 294              		.cfi_restore_state
 295              		.loc 1 256 0
 296 012c 0121     		movs	r1, #1
 297 012e 4FF40030 		mov	r0, #131072
 298              	.LVL31:
 299 0132 FFF7FEFF 		bl	RCC_APB2PeriphResetCmd
 300              	.LVL32:
 301              		.loc 1 257 0
 302 0136 0021     		movs	r1, #0
 303 0138 4FF40030 		mov	r0, #131072
 304              		.loc 1 282 0
 305 013c BDE80840 		pop	{r3, lr}
 306              		.cfi_remember_state
 307              		.cfi_restore 14
 308              		.cfi_restore 3
 309              		.cfi_def_cfa_offset 0
 310              		.loc 1 257 0
 311 0140 FFF7FEBF 		b	RCC_APB2PeriphResetCmd
 312              	.LVL33:
 313              	.L28:
 314              		.cfi_restore_state
 315              		.loc 1 261 0
 316 0144 0121     		movs	r1, #1
 317 0146 4FF48020 		mov	r0, #262144
 318              	.LVL34:
 319 014a FFF7FEFF 		bl	RCC_APB2PeriphResetCmd
 320              	.LVL35:
 321              		.loc 1 262 0
 322 014e 0021     		movs	r1, #0
 323 0150 4FF48020 		mov	r0, #262144
 324              		.loc 1 282 0
 325 0154 BDE80840 		pop	{r3, lr}
 326              		.cfi_remember_state
 327              		.cfi_restore 14
 328              		.cfi_restore 3
 329              		.cfi_def_cfa_offset 0
 330              		.loc 1 262 0
 331 0158 FFF7FEBF 		b	RCC_APB2PeriphResetCmd
 332              	.LVL36:
 333              	.L29:
 334              		.cfi_restore_state
 335              		.loc 1 266 0
 336 015c 0121     		movs	r1, #1
 337 015e 4020     		movs	r0, #64
 338              	.LVL37:
 339 0160 FFF7FEFF 		bl	RCC_APB1PeriphResetCmd
 340              	.LVL38:
 341              		.loc 1 267 0
 342 0164 0021     		movs	r1, #0
ARM GAS  C:\Users\Grillmo\AppData\Local\Temp\ccN7xt8j.s 			page 7


 343 0166 4020     		movs	r0, #64
 344              		.loc 1 282 0
 345 0168 BDE80840 		pop	{r3, lr}
 346              		.cfi_remember_state
 347              		.cfi_restore 14
 348              		.cfi_restore 3
 349              		.cfi_def_cfa_offset 0
 350              		.loc 1 267 0
 351 016c FFF7FEBF 		b	RCC_APB1PeriphResetCmd
 352              	.LVL39:
 353              	.L30:
 354              		.cfi_restore_state
 355              		.loc 1 271 0
 356 0170 0121     		movs	r1, #1
 357 0172 8020     		movs	r0, #128
 358              	.LVL40:
 359 0174 FFF7FEFF 		bl	RCC_APB1PeriphResetCmd
 360              	.LVL41:
 361              		.loc 1 272 0
 362 0178 0021     		movs	r1, #0
 363 017a 8020     		movs	r0, #128
 364              		.loc 1 282 0
 365 017c BDE80840 		pop	{r3, lr}
 366              		.cfi_restore 14
 367              		.cfi_restore 3
 368              		.cfi_def_cfa_offset 0
 369              		.loc 1 272 0
 370 0180 FFF7FEBF 		b	RCC_APB1PeriphResetCmd
 371              	.LVL42:
 372              	.L33:
 373              		.align	2
 374              	.L32:
 375 0184 00000140 		.word	1073807360
 376 0188 00040040 		.word	1073742848
 377 018c 00080040 		.word	1073743872
 378 0190 000C0040 		.word	1073744896
 379 0194 00100040 		.word	1073745920
 380 0198 00140040 		.word	1073746944
 381 019c 00040140 		.word	1073808384
 382 01a0 00400140 		.word	1073823744
 383 01a4 00440140 		.word	1073824768
 384 01a8 00480140 		.word	1073825792
 385 01ac 00180040 		.word	1073747968
 386 01b0 001C0040 		.word	1073748992
 387 01b4 00200040 		.word	1073750016
 388              		.cfi_endproc
 389              	.LFE112:
 390              		.size	TIM_DeInit, .-TIM_DeInit
 391              		.section	.text.TIM_TimeBaseInit,"ax",%progbits
 392              		.align	1
 393              		.p2align 4,,15
 394              		.global	TIM_TimeBaseInit
 395              		.syntax unified
 396              		.thumb
 397              		.thumb_func
 398              		.fpu fpv4-sp-d16
 399              		.type	TIM_TimeBaseInit, %function
ARM GAS  C:\Users\Grillmo\AppData\Local\Temp\ccN7xt8j.s 			page 8


 400              	TIM_TimeBaseInit:
 401              	.LFB113:
 402              		.loc 1 293 0
 403              		.cfi_startproc
 404              		@ args = 0, pretend = 0, frame = 0
 405              		@ frame_needed = 0, uses_anonymous_args = 0
 406              		@ link register save eliminated.
 407              	.LVL43:
 408              		.loc 1 303 0
 409 0000 234A     		ldr	r2, .L50
 410              		.loc 1 301 0
 411 0002 0368     		ldr	r3, [r0]
 412              		.loc 1 303 0
 413 0004 9042     		cmp	r0, r2
 414              		.loc 1 301 0
 415 0006 9BB2     		uxth	r3, r3
 416              	.LVL44:
 417              		.loc 1 303 0
 418 0008 12D0     		beq	.L35
 419              		.loc 1 303 0 is_stmt 0 discriminator 1
 420 000a 02F58062 		add	r2, r2, #1024
 421 000e 9042     		cmp	r0, r2
 422 0010 0ED0     		beq	.L35
 423              		.loc 1 303 0 discriminator 2
 424 0012 B0F1804F 		cmp	r0, #1073741824
 425 0016 0BD0     		beq	.L35
 426              		.loc 1 304 0 is_stmt 1
 427 0018 A2F58032 		sub	r2, r2, #65536
 428 001c 9042     		cmp	r0, r2
 429 001e 07D0     		beq	.L35
 430              		.loc 1 304 0 is_stmt 0 discriminator 1
 431 0020 02F58062 		add	r2, r2, #1024
 432 0024 9042     		cmp	r0, r2
 433 0026 03D0     		beq	.L35
 434              		.loc 1 305 0 is_stmt 1
 435 0028 02F58062 		add	r2, r2, #1024
 436 002c 9042     		cmp	r0, r2
 437 002e 03D1     		bne	.L36
 438              	.L35:
 439              		.loc 1 309 0
 440 0030 4A88     		ldrh	r2, [r1, #2]
 441              		.loc 1 308 0
 442 0032 23F07003 		bic	r3, r3, #112
 443              	.LVL45:
 444              		.loc 1 309 0
 445 0036 1343     		orrs	r3, r3, r2
 446              	.LVL46:
 447              	.L36:
 448              		.loc 1 312 0
 449 0038 164A     		ldr	r2, .L50+4
 450 003a 9042     		cmp	r0, r2
 451 003c 1FD0     		beq	.L38
 452              		.loc 1 312 0 is_stmt 0 discriminator 1
 453 003e 02F58062 		add	r2, r2, #1024
 454 0042 9042     		cmp	r0, r2
 455 0044 1BD0     		beq	.L38
 456              		.loc 1 293 0 is_stmt 1
ARM GAS  C:\Users\Grillmo\AppData\Local\Temp\ccN7xt8j.s 			page 9


 457 0046 70B4     		push	{r4, r5, r6}
 458              		.cfi_def_cfa_offset 12
 459              		.cfi_offset 4, -12
 460              		.cfi_offset 5, -8
 461              		.cfi_offset 6, -4
 462              		.loc 1 315 0
 463 0048 23F44073 		bic	r3, r3, #768
 464              	.LVL47:
 465              		.loc 1 316 0
 466 004c 0E89     		ldrh	r6, [r1, #8]
 467              		.loc 1 322 0
 468 004e 4D68     		ldr	r5, [r1, #4]
 469              		.loc 1 325 0
 470 0050 0C88     		ldrh	r4, [r1]
 471              		.loc 1 327 0
 472 0052 02F56C42 		add	r2, r2, #60416
 473              		.loc 1 315 0
 474 0056 9BB2     		uxth	r3, r3
 475              	.LVL48:
 476              		.loc 1 319 0
 477 0058 3343     		orrs	r3, r3, r6
 478              	.LVL49:
 479              		.loc 1 327 0
 480 005a 9042     		cmp	r0, r2
 481              		.loc 1 319 0
 482 005c 0360     		str	r3, [r0]
 483              		.loc 1 322 0
 484 005e C562     		str	r5, [r0, #44]
 485              		.loc 1 325 0
 486 0060 8462     		str	r4, [r0, #40]
 487              		.loc 1 327 0
 488 0062 06D0     		beq	.L41
 489              		.loc 1 327 0 is_stmt 0 discriminator 1
 490 0064 0C4B     		ldr	r3, .L50+8
 491 0066 9842     		cmp	r0, r3
 492 0068 03D0     		beq	.L41
 493              		.loc 1 335 0 is_stmt 1
 494 006a 0123     		movs	r3, #1
 495 006c 4361     		str	r3, [r0, #20]
 496              		.loc 1 336 0
 497 006e 70BC     		pop	{r4, r5, r6}
 498              		.cfi_remember_state
 499              		.cfi_restore 6
 500              		.cfi_restore 5
 501              		.cfi_restore 4
 502              		.cfi_def_cfa_offset 0
 503 0070 7047     		bx	lr
 504              	.L41:
 505              		.cfi_restore_state
 506              		.loc 1 330 0
 507 0072 8B7A     		ldrb	r3, [r1, #10]	@ zero_extendqisi2
 508 0074 0363     		str	r3, [r0, #48]
 509              		.loc 1 335 0
 510 0076 0123     		movs	r3, #1
 511 0078 4361     		str	r3, [r0, #20]
 512              		.loc 1 336 0
 513 007a 70BC     		pop	{r4, r5, r6}
ARM GAS  C:\Users\Grillmo\AppData\Local\Temp\ccN7xt8j.s 			page 10


 514              		.cfi_restore 4
 515              		.cfi_restore 5
 516              		.cfi_restore 6
 517              		.cfi_def_cfa_offset 0
 518 007c 7047     		bx	lr
 519              	.LVL50:
 520              	.L38:
 521              		.loc 1 319 0
 522 007e 0360     		str	r3, [r0]
 523              		.loc 1 322 0
 524 0080 4A68     		ldr	r2, [r1, #4]
 525              		.loc 1 325 0
 526 0082 0B88     		ldrh	r3, [r1]
 527              	.LVL51:
 528              		.loc 1 322 0
 529 0084 C262     		str	r2, [r0, #44]
 530              		.loc 1 325 0
 531 0086 8362     		str	r3, [r0, #40]
 532              		.loc 1 335 0
 533 0088 0123     		movs	r3, #1
 534 008a 4361     		str	r3, [r0, #20]
 535 008c 7047     		bx	lr
 536              	.L51:
 537 008e 00BF     		.align	2
 538              	.L50:
 539 0090 00000140 		.word	1073807360
 540 0094 00100040 		.word	1073745920
 541 0098 00040140 		.word	1073808384
 542              		.cfi_endproc
 543              	.LFE113:
 544              		.size	TIM_TimeBaseInit, .-TIM_TimeBaseInit
 545              		.section	.text.TIM_TimeBaseStructInit,"ax",%progbits
 546              		.align	1
 547              		.p2align 4,,15
 548              		.global	TIM_TimeBaseStructInit
 549              		.syntax unified
 550              		.thumb
 551              		.thumb_func
 552              		.fpu fpv4-sp-d16
 553              		.type	TIM_TimeBaseStructInit, %function
 554              	TIM_TimeBaseStructInit:
 555              	.LFB114:
 556              		.loc 1 345 0
 557              		.cfi_startproc
 558              		@ args = 0, pretend = 0, frame = 0
 559              		@ frame_needed = 0, uses_anonymous_args = 0
 560              		@ link register save eliminated.
 561              	.LVL52:
 562              		.loc 1 348 0
 563 0000 0023     		movs	r3, #0
 564              		.loc 1 347 0
 565 0002 4FF0FF32 		mov	r2, #-1
 566 0006 4260     		str	r2, [r0, #4]
 567              		.loc 1 348 0
 568 0008 0380     		strh	r3, [r0]	@ movhi
 569              		.loc 1 349 0
 570 000a 0381     		strh	r3, [r0, #8]	@ movhi
ARM GAS  C:\Users\Grillmo\AppData\Local\Temp\ccN7xt8j.s 			page 11


 571              		.loc 1 350 0
 572 000c 4380     		strh	r3, [r0, #2]	@ movhi
 573              		.loc 1 351 0
 574 000e 8372     		strb	r3, [r0, #10]
 575 0010 7047     		bx	lr
 576              		.cfi_endproc
 577              	.LFE114:
 578              		.size	TIM_TimeBaseStructInit, .-TIM_TimeBaseStructInit
 579 0012 00BF     		.section	.text.TIM_PrescalerConfig,"ax",%progbits
 580              		.align	1
 581              		.p2align 4,,15
 582              		.global	TIM_PrescalerConfig
 583              		.syntax unified
 584              		.thumb
 585              		.thumb_func
 586              		.fpu fpv4-sp-d16
 587              		.type	TIM_PrescalerConfig, %function
 588              	TIM_PrescalerConfig:
 589              	.LFB115:
 590              		.loc 1 365 0
 591              		.cfi_startproc
 592              		@ args = 0, pretend = 0, frame = 0
 593              		@ frame_needed = 0, uses_anonymous_args = 0
 594              		@ link register save eliminated.
 595              	.LVL53:
 596              		.loc 1 370 0
 597 0000 8162     		str	r1, [r0, #40]
 598              		.loc 1 372 0
 599 0002 4261     		str	r2, [r0, #20]
 600 0004 7047     		bx	lr
 601              		.cfi_endproc
 602              	.LFE115:
 603              		.size	TIM_PrescalerConfig, .-TIM_PrescalerConfig
 604 0006 00BF     		.section	.text.TIM_CounterModeConfig,"ax",%progbits
 605              		.align	1
 606              		.p2align 4,,15
 607              		.global	TIM_CounterModeConfig
 608              		.syntax unified
 609              		.thumb
 610              		.thumb_func
 611              		.fpu fpv4-sp-d16
 612              		.type	TIM_CounterModeConfig, %function
 613              	TIM_CounterModeConfig:
 614              	.LFB116:
 615              		.loc 1 388 0
 616              		.cfi_startproc
 617              		@ args = 0, pretend = 0, frame = 0
 618              		@ frame_needed = 0, uses_anonymous_args = 0
 619              		@ link register save eliminated.
 620              	.LVL54:
 621              		.loc 1 395 0
 622 0000 0268     		ldr	r2, [r0]
 623              	.LVL55:
 624              		.loc 1 398 0
 625 0002 4FF68F73 		movw	r3, #65423
 626 0006 1340     		ands	r3, r3, r2
 627              	.LVL56:
ARM GAS  C:\Users\Grillmo\AppData\Local\Temp\ccN7xt8j.s 			page 12


 628              		.loc 1 404 0
 629 0008 1943     		orrs	r1, r1, r3
 630              	.LVL57:
 631 000a 0160     		str	r1, [r0]
 632 000c 7047     		bx	lr
 633              		.cfi_endproc
 634              	.LFE116:
 635              		.size	TIM_CounterModeConfig, .-TIM_CounterModeConfig
 636 000e 00BF     		.section	.text.TIM_SetCounter,"ax",%progbits
 637              		.align	1
 638              		.p2align 4,,15
 639              		.global	TIM_SetCounter
 640              		.syntax unified
 641              		.thumb
 642              		.thumb_func
 643              		.fpu fpv4-sp-d16
 644              		.type	TIM_SetCounter, %function
 645              	TIM_SetCounter:
 646              	.LFB117:
 647              		.loc 1 414 0
 648              		.cfi_startproc
 649              		@ args = 0, pretend = 0, frame = 0
 650              		@ frame_needed = 0, uses_anonymous_args = 0
 651              		@ link register save eliminated.
 652              	.LVL58:
 653              		.loc 1 419 0
 654 0000 4162     		str	r1, [r0, #36]
 655 0002 7047     		bx	lr
 656              		.cfi_endproc
 657              	.LFE117:
 658              		.size	TIM_SetCounter, .-TIM_SetCounter
 659              		.section	.text.TIM_SetAutoreload,"ax",%progbits
 660              		.align	1
 661              		.p2align 4,,15
 662              		.global	TIM_SetAutoreload
 663              		.syntax unified
 664              		.thumb
 665              		.thumb_func
 666              		.fpu fpv4-sp-d16
 667              		.type	TIM_SetAutoreload, %function
 668              	TIM_SetAutoreload:
 669              	.LFB118:
 670              		.loc 1 429 0
 671              		.cfi_startproc
 672              		@ args = 0, pretend = 0, frame = 0
 673              		@ frame_needed = 0, uses_anonymous_args = 0
 674              		@ link register save eliminated.
 675              	.LVL59:
 676              		.loc 1 434 0
 677 0000 C162     		str	r1, [r0, #44]
 678 0002 7047     		bx	lr
 679              		.cfi_endproc
 680              	.LFE118:
 681              		.size	TIM_SetAutoreload, .-TIM_SetAutoreload
 682              		.section	.text.TIM_GetCounter,"ax",%progbits
 683              		.align	1
 684              		.p2align 4,,15
ARM GAS  C:\Users\Grillmo\AppData\Local\Temp\ccN7xt8j.s 			page 13


 685              		.global	TIM_GetCounter
 686              		.syntax unified
 687              		.thumb
 688              		.thumb_func
 689              		.fpu fpv4-sp-d16
 690              		.type	TIM_GetCounter, %function
 691              	TIM_GetCounter:
 692              	.LFB119:
 693              		.loc 1 443 0
 694              		.cfi_startproc
 695              		@ args = 0, pretend = 0, frame = 0
 696              		@ frame_needed = 0, uses_anonymous_args = 0
 697              		@ link register save eliminated.
 698              	.LVL60:
 699              		.loc 1 448 0
 700 0000 406A     		ldr	r0, [r0, #36]
 701              	.LVL61:
 702              		.loc 1 449 0
 703 0002 7047     		bx	lr
 704              		.cfi_endproc
 705              	.LFE119:
 706              		.size	TIM_GetCounter, .-TIM_GetCounter
 707              		.section	.text.TIM_GetPrescaler,"ax",%progbits
 708              		.align	1
 709              		.p2align 4,,15
 710              		.global	TIM_GetPrescaler
 711              		.syntax unified
 712              		.thumb
 713              		.thumb_func
 714              		.fpu fpv4-sp-d16
 715              		.type	TIM_GetPrescaler, %function
 716              	TIM_GetPrescaler:
 717              	.LFB120:
 718              		.loc 1 457 0
 719              		.cfi_startproc
 720              		@ args = 0, pretend = 0, frame = 0
 721              		@ frame_needed = 0, uses_anonymous_args = 0
 722              		@ link register save eliminated.
 723              	.LVL62:
 724              		.loc 1 462 0
 725 0000 806A     		ldr	r0, [r0, #40]
 726              	.LVL63:
 727              		.loc 1 463 0
 728 0002 80B2     		uxth	r0, r0
 729 0004 7047     		bx	lr
 730              		.cfi_endproc
 731              	.LFE120:
 732              		.size	TIM_GetPrescaler, .-TIM_GetPrescaler
 733 0006 00BF     		.section	.text.TIM_UpdateDisableConfig,"ax",%progbits
 734              		.align	1
 735              		.p2align 4,,15
 736              		.global	TIM_UpdateDisableConfig
 737              		.syntax unified
 738              		.thumb
 739              		.thumb_func
 740              		.fpu fpv4-sp-d16
 741              		.type	TIM_UpdateDisableConfig, %function
ARM GAS  C:\Users\Grillmo\AppData\Local\Temp\ccN7xt8j.s 			page 14


 742              	TIM_UpdateDisableConfig:
 743              	.LFB121:
 744              		.loc 1 473 0
 745              		.cfi_startproc
 746              		@ args = 0, pretend = 0, frame = 0
 747              		@ frame_needed = 0, uses_anonymous_args = 0
 748              		@ link register save eliminated.
 749              	.LVL64:
 750              		.loc 1 481 0
 751 0000 0368     		ldr	r3, [r0]
 752              		.loc 1 478 0
 753 0002 21B9     		cbnz	r1, .L62
 754              		.loc 1 486 0
 755 0004 4FF6FD72 		movw	r2, #65533
 756 0008 1340     		ands	r3, r3, r2
 757 000a 0360     		str	r3, [r0]
 758 000c 7047     		bx	lr
 759              	.L62:
 760              		.loc 1 481 0
 761 000e 43F00203 		orr	r3, r3, #2
 762 0012 0360     		str	r3, [r0]
 763 0014 7047     		bx	lr
 764              		.cfi_endproc
 765              	.LFE121:
 766              		.size	TIM_UpdateDisableConfig, .-TIM_UpdateDisableConfig
 767 0016 00BF     		.section	.text.TIM_UpdateRequestConfig,"ax",%progbits
 768              		.align	1
 769              		.p2align 4,,15
 770              		.global	TIM_UpdateRequestConfig
 771              		.syntax unified
 772              		.thumb
 773              		.thumb_func
 774              		.fpu fpv4-sp-d16
 775              		.type	TIM_UpdateRequestConfig, %function
 776              	TIM_UpdateRequestConfig:
 777              	.LFB122:
 778              		.loc 1 502 0
 779              		.cfi_startproc
 780              		@ args = 0, pretend = 0, frame = 0
 781              		@ frame_needed = 0, uses_anonymous_args = 0
 782              		@ link register save eliminated.
 783              	.LVL65:
 784              		.loc 1 510 0
 785 0000 0368     		ldr	r3, [r0]
 786              		.loc 1 507 0
 787 0002 21B9     		cbnz	r1, .L66
 788              		.loc 1 515 0
 789 0004 4FF6FB72 		movw	r2, #65531
 790 0008 1340     		ands	r3, r3, r2
 791 000a 0360     		str	r3, [r0]
 792 000c 7047     		bx	lr
 793              	.L66:
 794              		.loc 1 510 0
 795 000e 43F00403 		orr	r3, r3, #4
 796 0012 0360     		str	r3, [r0]
 797 0014 7047     		bx	lr
 798              		.cfi_endproc
ARM GAS  C:\Users\Grillmo\AppData\Local\Temp\ccN7xt8j.s 			page 15


 799              	.LFE122:
 800              		.size	TIM_UpdateRequestConfig, .-TIM_UpdateRequestConfig
 801 0016 00BF     		.section	.text.TIM_ARRPreloadConfig,"ax",%progbits
 802              		.align	1
 803              		.p2align 4,,15
 804              		.global	TIM_ARRPreloadConfig
 805              		.syntax unified
 806              		.thumb
 807              		.thumb_func
 808              		.fpu fpv4-sp-d16
 809              		.type	TIM_ARRPreloadConfig, %function
 810              	TIM_ARRPreloadConfig:
 811              	.LFB123:
 812              		.loc 1 527 0
 813              		.cfi_startproc
 814              		@ args = 0, pretend = 0, frame = 0
 815              		@ frame_needed = 0, uses_anonymous_args = 0
 816              		@ link register save eliminated.
 817              	.LVL66:
 818              		.loc 1 535 0
 819 0000 0368     		ldr	r3, [r0]
 820              		.loc 1 532 0
 821 0002 21B9     		cbnz	r1, .L70
 822              		.loc 1 540 0
 823 0004 4FF67F72 		movw	r2, #65407
 824 0008 1340     		ands	r3, r3, r2
 825 000a 0360     		str	r3, [r0]
 826 000c 7047     		bx	lr
 827              	.L70:
 828              		.loc 1 535 0
 829 000e 43F08003 		orr	r3, r3, #128
 830 0012 0360     		str	r3, [r0]
 831 0014 7047     		bx	lr
 832              		.cfi_endproc
 833              	.LFE123:
 834              		.size	TIM_ARRPreloadConfig, .-TIM_ARRPreloadConfig
 835 0016 00BF     		.section	.text.TIM_SelectOnePulseMode,"ax",%progbits
 836              		.align	1
 837              		.p2align 4,,15
 838              		.global	TIM_SelectOnePulseMode
 839              		.syntax unified
 840              		.thumb
 841              		.thumb_func
 842              		.fpu fpv4-sp-d16
 843              		.type	TIM_SelectOnePulseMode, %function
 844              	TIM_SelectOnePulseMode:
 845              	.LFB124:
 846              		.loc 1 554 0
 847              		.cfi_startproc
 848              		@ args = 0, pretend = 0, frame = 0
 849              		@ frame_needed = 0, uses_anonymous_args = 0
 850              		@ link register save eliminated.
 851              	.LVL67:
 852              		.loc 1 560 0
 853 0000 0368     		ldr	r3, [r0]
 854 0002 4FF6F772 		movw	r2, #65527
 855 0006 1340     		ands	r3, r3, r2
ARM GAS  C:\Users\Grillmo\AppData\Local\Temp\ccN7xt8j.s 			page 16


 856 0008 0360     		str	r3, [r0]
 857              		.loc 1 563 0
 858 000a 0368     		ldr	r3, [r0]
 859 000c 1943     		orrs	r1, r1, r3
 860              	.LVL68:
 861 000e 0160     		str	r1, [r0]
 862 0010 7047     		bx	lr
 863              		.cfi_endproc
 864              	.LFE124:
 865              		.size	TIM_SelectOnePulseMode, .-TIM_SelectOnePulseMode
 866 0012 00BF     		.section	.text.TIM_SetClockDivision,"ax",%progbits
 867              		.align	1
 868              		.p2align 4,,15
 869              		.global	TIM_SetClockDivision
 870              		.syntax unified
 871              		.thumb
 872              		.thumb_func
 873              		.fpu fpv4-sp-d16
 874              		.type	TIM_SetClockDivision, %function
 875              	TIM_SetClockDivision:
 876              	.LFB125:
 877              		.loc 1 577 0
 878              		.cfi_startproc
 879              		@ args = 0, pretend = 0, frame = 0
 880              		@ frame_needed = 0, uses_anonymous_args = 0
 881              		@ link register save eliminated.
 882              	.LVL69:
 883              		.loc 1 583 0
 884 0000 0368     		ldr	r3, [r0]
 885 0002 4FF6FF42 		movw	r2, #64767
 886 0006 1340     		ands	r3, r3, r2
 887 0008 0360     		str	r3, [r0]
 888              		.loc 1 586 0
 889 000a 0368     		ldr	r3, [r0]
 890 000c 1943     		orrs	r1, r1, r3
 891              	.LVL70:
 892 000e 0160     		str	r1, [r0]
 893 0010 7047     		bx	lr
 894              		.cfi_endproc
 895              	.LFE125:
 896              		.size	TIM_SetClockDivision, .-TIM_SetClockDivision
 897 0012 00BF     		.section	.text.TIM_Cmd,"ax",%progbits
 898              		.align	1
 899              		.p2align 4,,15
 900              		.global	TIM_Cmd
 901              		.syntax unified
 902              		.thumb
 903              		.thumb_func
 904              		.fpu fpv4-sp-d16
 905              		.type	TIM_Cmd, %function
 906              	TIM_Cmd:
 907              	.LFB126:
 908              		.loc 1 597 0
 909              		.cfi_startproc
 910              		@ args = 0, pretend = 0, frame = 0
 911              		@ frame_needed = 0, uses_anonymous_args = 0
 912              		@ link register save eliminated.
ARM GAS  C:\Users\Grillmo\AppData\Local\Temp\ccN7xt8j.s 			page 17


 913              	.LVL71:
 914              		.loc 1 605 0
 915 0000 0368     		ldr	r3, [r0]
 916              		.loc 1 602 0
 917 0002 21B9     		cbnz	r1, .L76
 918              		.loc 1 610 0
 919 0004 4FF6FE72 		movw	r2, #65534
 920 0008 1340     		ands	r3, r3, r2
 921 000a 0360     		str	r3, [r0]
 922 000c 7047     		bx	lr
 923              	.L76:
 924              		.loc 1 605 0
 925 000e 43F00103 		orr	r3, r3, #1
 926 0012 0360     		str	r3, [r0]
 927 0014 7047     		bx	lr
 928              		.cfi_endproc
 929              	.LFE126:
 930              		.size	TIM_Cmd, .-TIM_Cmd
 931 0016 00BF     		.section	.text.TIM_OC1Init,"ax",%progbits
 932              		.align	1
 933              		.p2align 4,,15
 934              		.global	TIM_OC1Init
 935              		.syntax unified
 936              		.thumb
 937              		.thumb_func
 938              		.fpu fpv4-sp-d16
 939              		.type	TIM_OC1Init, %function
 940              	TIM_OC1Init:
 941              	.LFB127:
 942              		.loc 1 678 0
 943              		.cfi_startproc
 944              		@ args = 0, pretend = 0, frame = 0
 945              		@ frame_needed = 0, uses_anonymous_args = 0
 946              	.LVL72:
 947              		.loc 1 688 0
 948 0000 036A     		ldr	r3, [r0, #32]
 949 0002 4FF6FE72 		movw	r2, #65534
 950 0006 1340     		ands	r3, r3, r2
 951 0008 0362     		str	r3, [r0, #32]
 952              		.loc 1 678 0
 953 000a F0B5     		push	{r4, r5, r6, r7, lr}
 954              		.cfi_def_cfa_offset 20
 955              		.cfi_offset 4, -20
 956              		.cfi_offset 5, -16
 957              		.cfi_offset 6, -12
 958              		.cfi_offset 7, -8
 959              		.cfi_offset 14, -4
 960              		.loc 1 691 0
 961 000c D0F820E0 		ldr	lr, [r0, #32]
 962              	.LVL73:
 963              		.loc 1 710 0
 964 0010 4C88     		ldrh	r4, [r1, #2]
 965 0012 8D89     		ldrh	r5, [r1, #12]
 966              		.loc 1 693 0
 967 0014 4268     		ldr	r2, [r0, #4]
 968              		.loc 1 712 0
 969 0016 154E     		ldr	r6, .L81
ARM GAS  C:\Users\Grillmo\AppData\Local\Temp\ccN7xt8j.s 			page 18


 970              		.loc 1 696 0
 971 0018 8769     		ldr	r7, [r0, #24]
 972              		.loc 1 705 0
 973 001a 4FF6FD73 		movw	r3, #65533
 974              		.loc 1 710 0
 975 001e 2543     		orrs	r5, r5, r4
 976              		.loc 1 705 0
 977 0020 0EEA0303 		and	r3, lr, r3
 978              		.loc 1 710 0
 979 0024 2B43     		orrs	r3, r3, r5
 980              		.loc 1 700 0
 981 0026 4FF68C74 		movw	r4, #65420
 982              		.loc 1 702 0
 983 002a 0D88     		ldrh	r5, [r1]
 984              		.loc 1 700 0
 985 002c 3C40     		ands	r4, r4, r7
 986              		.loc 1 712 0
 987 002e B042     		cmp	r0, r6
 988              		.loc 1 710 0
 989 0030 9BB2     		uxth	r3, r3
 990              		.loc 1 693 0
 991 0032 92B2     		uxth	r2, r2
 992              	.LVL74:
 993              		.loc 1 702 0
 994 0034 44EA0504 		orr	r4, r4, r5
 995              	.LVL75:
 996              		.loc 1 712 0
 997 0038 08D0     		beq	.L78
 998              		.loc 1 712 0 is_stmt 0 discriminator 1
 999 003a 0D4D     		ldr	r5, .L81+4
 1000 003c A842     		cmp	r0, r5
 1001 003e 05D0     		beq	.L78
 1002              	.L79:
 1003              		.loc 1 743 0 is_stmt 1
 1004 0040 8968     		ldr	r1, [r1, #8]
 1005              	.LVL76:
 1006              		.loc 1 737 0
 1007 0042 4260     		str	r2, [r0, #4]
 1008              		.loc 1 740 0
 1009 0044 8461     		str	r4, [r0, #24]
 1010              		.loc 1 743 0
 1011 0046 4163     		str	r1, [r0, #52]
 1012              		.loc 1 746 0
 1013 0048 0362     		str	r3, [r0, #32]
 1014 004a F0BD     		pop	{r4, r5, r6, r7, pc}
 1015              	.LVL77:
 1016              	.L78:
 1017              		.loc 1 722 0
 1018 004c CE89     		ldrh	r6, [r1, #14]
 1019              		.loc 1 734 0
 1020 004e 0D8A     		ldrh	r5, [r1, #16]
 1021 0050 4F8A     		ldrh	r7, [r1, #18]
 1022              		.loc 1 720 0
 1023 0052 23F00803 		bic	r3, r3, #8
 1024              	.LVL78:
 1025              		.loc 1 722 0
 1026 0056 3343     		orrs	r3, r3, r6
ARM GAS  C:\Users\Grillmo\AppData\Local\Temp\ccN7xt8j.s 			page 19


 1027              	.LVL79:
 1028              		.loc 1 730 0
 1029 0058 22F44072 		bic	r2, r2, #768
 1030              	.LVL80:
 1031              		.loc 1 727 0
 1032 005c 8E88     		ldrh	r6, [r1, #4]
 1033              		.loc 1 734 0
 1034 005e 3D43     		orrs	r5, r5, r7
 1035              		.loc 1 724 0
 1036 0060 23F00403 		bic	r3, r3, #4
 1037              	.LVL81:
 1038              		.loc 1 734 0
 1039 0064 2A43     		orrs	r2, r2, r5
 1040              		.loc 1 727 0
 1041 0066 3343     		orrs	r3, r3, r6
 1042              	.LVL82:
 1043              		.loc 1 734 0
 1044 0068 92B2     		uxth	r2, r2
 1045              	.LVL83:
 1046 006a E9E7     		b	.L79
 1047              	.L82:
 1048              		.align	2
 1049              	.L81:
 1050 006c 00000140 		.word	1073807360
 1051 0070 00040140 		.word	1073808384
 1052              		.cfi_endproc
 1053              	.LFE127:
 1054              		.size	TIM_OC1Init, .-TIM_OC1Init
 1055              		.section	.text.TIM_OC2Init,"ax",%progbits
 1056              		.align	1
 1057              		.p2align 4,,15
 1058              		.global	TIM_OC2Init
 1059              		.syntax unified
 1060              		.thumb
 1061              		.thumb_func
 1062              		.fpu fpv4-sp-d16
 1063              		.type	TIM_OC2Init, %function
 1064              	TIM_OC2Init:
 1065              	.LFB128:
 1066              		.loc 1 759 0
 1067              		.cfi_startproc
 1068              		@ args = 0, pretend = 0, frame = 0
 1069              		@ frame_needed = 0, uses_anonymous_args = 0
 1070              	.LVL84:
 1071              		.loc 1 769 0
 1072 0000 036A     		ldr	r3, [r0, #32]
 1073 0002 4FF6EF72 		movw	r2, #65519
 1074 0006 1340     		ands	r3, r3, r2
 1075              		.loc 1 759 0
 1076 0008 F0B5     		push	{r4, r5, r6, r7, lr}
 1077              		.cfi_def_cfa_offset 20
 1078              		.cfi_offset 4, -20
 1079              		.cfi_offset 5, -16
 1080              		.cfi_offset 6, -12
 1081              		.cfi_offset 7, -8
 1082              		.cfi_offset 14, -4
 1083              		.loc 1 769 0
ARM GAS  C:\Users\Grillmo\AppData\Local\Temp\ccN7xt8j.s 			page 20


 1084 000a 0362     		str	r3, [r0, #32]
 1085              		.loc 1 792 0
 1086 000c 4A88     		ldrh	r2, [r1, #2]
 1087              		.loc 1 789 0
 1088 000e 8C89     		ldrh	r4, [r1, #12]
 1089              		.loc 1 772 0
 1090 0010 D0F820E0 		ldr	lr, [r0, #32]
 1091              	.LVL85:
 1092              		.loc 1 774 0
 1093 0014 4668     		ldr	r6, [r0, #4]
 1094              		.loc 1 777 0
 1095 0016 8769     		ldr	r7, [r0, #24]
 1096              		.loc 1 794 0
 1097 0018 184D     		ldr	r5, .L87
 1098              		.loc 1 792 0
 1099 001a 1443     		orrs	r4, r4, r2
 1100              		.loc 1 781 0
 1101 001c 48F6FF42 		movw	r2, #36095
 1102 0020 3A40     		ands	r2, r2, r7
 1103              		.loc 1 787 0
 1104 0022 4FF6DF73 		movw	r3, #65503
 1105              		.loc 1 784 0
 1106 0026 0F88     		ldrh	r7, [r1]
 1107              		.loc 1 787 0
 1108 0028 0EEA0303 		and	r3, lr, r3
 1109              		.loc 1 792 0
 1110 002c 43EA0413 		orr	r3, r3, r4, lsl #4
 1111              		.loc 1 784 0
 1112 0030 42EA0722 		orr	r2, r2, r7, lsl #8
 1113              		.loc 1 794 0
 1114 0034 A842     		cmp	r0, r5
 1115              		.loc 1 792 0
 1116 0036 9BB2     		uxth	r3, r3
 1117              		.loc 1 774 0
 1118 0038 B4B2     		uxth	r4, r6
 1119              	.LVL86:
 1120              		.loc 1 784 0
 1121 003a 92B2     		uxth	r2, r2
 1122              	.LVL87:
 1123              		.loc 1 794 0
 1124 003c 09D0     		beq	.L84
 1125              		.loc 1 794 0 is_stmt 0 discriminator 1
 1126 003e 05F58065 		add	r5, r5, #1024
 1127 0042 A842     		cmp	r0, r5
 1128 0044 05D0     		beq	.L84
 1129              	.L85:
 1130              		.loc 1 825 0 is_stmt 1
 1131 0046 8968     		ldr	r1, [r1, #8]
 1132              	.LVL88:
 1133              		.loc 1 819 0
 1134 0048 4460     		str	r4, [r0, #4]
 1135              		.loc 1 822 0
 1136 004a 8261     		str	r2, [r0, #24]
 1137              		.loc 1 825 0
 1138 004c 8163     		str	r1, [r0, #56]
 1139              		.loc 1 828 0
 1140 004e 0362     		str	r3, [r0, #32]
ARM GAS  C:\Users\Grillmo\AppData\Local\Temp\ccN7xt8j.s 			page 21


 1141 0050 F0BD     		pop	{r4, r5, r6, r7, pc}
 1142              	.LVL89:
 1143              	.L84:
 1144              		.loc 1 804 0
 1145 0052 CD89     		ldrh	r5, [r1, #14]
 1146              		.loc 1 814 0
 1147 0054 0E8A     		ldrh	r6, [r1, #16]
 1148              		.loc 1 816 0
 1149 0056 4F8A     		ldrh	r7, [r1, #18]
 1150              		.loc 1 802 0
 1151 0058 23F08003 		bic	r3, r3, #128
 1152              	.LVL90:
 1153              		.loc 1 804 0
 1154 005c 43EA0513 		orr	r3, r3, r5, lsl #4
 1155              	.LVL91:
 1156              		.loc 1 806 0
 1157 0060 4FF6BF75 		movw	r5, #65471
 1158 0064 1D40     		ands	r5, r5, r3
 1159              	.LVL92:
 1160              		.loc 1 809 0
 1161 0066 8B88     		ldrh	r3, [r1, #4]
 1162              		.loc 1 812 0
 1163 0068 24F44064 		bic	r4, r4, #3072
 1164              	.LVL93:
 1165              		.loc 1 816 0
 1166 006c 3E43     		orrs	r6, r6, r7
 1167              		.loc 1 809 0
 1168 006e 45EA0313 		orr	r3, r5, r3, lsl #4
 1169              		.loc 1 816 0
 1170 0072 44EA8604 		orr	r4, r4, r6, lsl #2
 1171              		.loc 1 809 0
 1172 0076 9BB2     		uxth	r3, r3
 1173              	.LVL94:
 1174              		.loc 1 816 0
 1175 0078 A4B2     		uxth	r4, r4
 1176              	.LVL95:
 1177 007a E4E7     		b	.L85
 1178              	.L88:
 1179              		.align	2
 1180              	.L87:
 1181 007c 00000140 		.word	1073807360
 1182              		.cfi_endproc
 1183              	.LFE128:
 1184              		.size	TIM_OC2Init, .-TIM_OC2Init
 1185              		.section	.text.TIM_OC3Init,"ax",%progbits
 1186              		.align	1
 1187              		.p2align 4,,15
 1188              		.global	TIM_OC3Init
 1189              		.syntax unified
 1190              		.thumb
 1191              		.thumb_func
 1192              		.fpu fpv4-sp-d16
 1193              		.type	TIM_OC3Init, %function
 1194              	TIM_OC3Init:
 1195              	.LFB129:
 1196              		.loc 1 840 0
 1197              		.cfi_startproc
ARM GAS  C:\Users\Grillmo\AppData\Local\Temp\ccN7xt8j.s 			page 22


 1198              		@ args = 0, pretend = 0, frame = 0
 1199              		@ frame_needed = 0, uses_anonymous_args = 0
 1200              	.LVL96:
 1201              		.loc 1 850 0
 1202 0000 036A     		ldr	r3, [r0, #32]
 1203 0002 4FF6FF62 		movw	r2, #65279
 1204 0006 1340     		ands	r3, r3, r2
 1205 0008 0362     		str	r3, [r0, #32]
 1206              		.loc 1 840 0
 1207 000a F0B5     		push	{r4, r5, r6, r7, lr}
 1208              		.cfi_def_cfa_offset 20
 1209              		.cfi_offset 4, -20
 1210              		.cfi_offset 5, -16
 1211              		.cfi_offset 6, -12
 1212              		.cfi_offset 7, -8
 1213              		.cfi_offset 14, -4
 1214              		.loc 1 872 0
 1215 000c 4A88     		ldrh	r2, [r1, #2]
 1216              		.loc 1 853 0
 1217 000e D0F820E0 		ldr	lr, [r0, #32]
 1218              	.LVL97:
 1219              		.loc 1 869 0
 1220 0012 8C89     		ldrh	r4, [r1, #12]
 1221              		.loc 1 855 0
 1222 0014 4568     		ldr	r5, [r0, #4]
 1223              		.loc 1 874 0
 1224 0016 194E     		ldr	r6, .L93
 1225              		.loc 1 858 0
 1226 0018 C769     		ldr	r7, [r0, #28]
 1227              		.loc 1 867 0
 1228 001a 4FF6FF53 		movw	r3, #65023
 1229              		.loc 1 872 0
 1230 001e 1443     		orrs	r4, r4, r2
 1231              		.loc 1 867 0
 1232 0020 0EEA0303 		and	r3, lr, r3
 1233              		.loc 1 872 0
 1234 0024 43EA0423 		orr	r3, r3, r4, lsl #8
 1235              		.loc 1 862 0
 1236 0028 4FF68C72 		movw	r2, #65420
 1237              		.loc 1 864 0
 1238 002c 0C88     		ldrh	r4, [r1]
 1239              		.loc 1 862 0
 1240 002e 3A40     		ands	r2, r2, r7
 1241              		.loc 1 874 0
 1242 0030 B042     		cmp	r0, r6
 1243              		.loc 1 872 0
 1244 0032 9BB2     		uxth	r3, r3
 1245              		.loc 1 855 0
 1246 0034 ADB2     		uxth	r5, r5
 1247              	.LVL98:
 1248              		.loc 1 864 0
 1249 0036 42EA0402 		orr	r2, r2, r4
 1250              	.LVL99:
 1251              		.loc 1 874 0
 1252 003a 09D0     		beq	.L90
 1253              		.loc 1 874 0 is_stmt 0 discriminator 1
 1254 003c 06F58066 		add	r6, r6, #1024
ARM GAS  C:\Users\Grillmo\AppData\Local\Temp\ccN7xt8j.s 			page 23


 1255 0040 B042     		cmp	r0, r6
 1256 0042 05D0     		beq	.L90
 1257              	.L91:
 1258              		.loc 1 905 0 is_stmt 1
 1259 0044 8968     		ldr	r1, [r1, #8]
 1260              	.LVL100:
 1261              		.loc 1 899 0
 1262 0046 4560     		str	r5, [r0, #4]
 1263              		.loc 1 902 0
 1264 0048 C261     		str	r2, [r0, #28]
 1265              		.loc 1 905 0
 1266 004a C163     		str	r1, [r0, #60]
 1267              		.loc 1 908 0
 1268 004c 0362     		str	r3, [r0, #32]
 1269 004e F0BD     		pop	{r4, r5, r6, r7, pc}
 1270              	.LVL101:
 1271              	.L90:
 1272              		.loc 1 884 0
 1273 0050 CE89     		ldrh	r6, [r1, #14]
 1274              		.loc 1 894 0
 1275 0052 0F8A     		ldrh	r7, [r1, #16]
 1276              		.loc 1 896 0
 1277 0054 4C8A     		ldrh	r4, [r1, #18]
 1278              		.loc 1 882 0
 1279 0056 23F40063 		bic	r3, r3, #2048
 1280              	.LVL102:
 1281              		.loc 1 884 0
 1282 005a 43EA0623 		orr	r3, r3, r6, lsl #8
 1283              	.LVL103:
 1284              		.loc 1 886 0
 1285 005e 4FF6FF36 		movw	r6, #64511
 1286 0062 1E40     		ands	r6, r6, r3
 1287              	.LVL104:
 1288              		.loc 1 889 0
 1289 0064 8B88     		ldrh	r3, [r1, #4]
 1290              		.loc 1 892 0
 1291 0066 25F44055 		bic	r5, r5, #12288
 1292              	.LVL105:
 1293              		.loc 1 896 0
 1294 006a 2743     		orrs	r7, r7, r4
 1295              		.loc 1 889 0
 1296 006c 46EA0323 		orr	r3, r6, r3, lsl #8
 1297              		.loc 1 896 0
 1298 0070 45EA0715 		orr	r5, r5, r7, lsl #4
 1299              		.loc 1 889 0
 1300 0074 9BB2     		uxth	r3, r3
 1301              	.LVL106:
 1302              		.loc 1 896 0
 1303 0076 ADB2     		uxth	r5, r5
 1304              	.LVL107:
 1305 0078 E4E7     		b	.L91
 1306              	.L94:
 1307 007a 00BF     		.align	2
 1308              	.L93:
 1309 007c 00000140 		.word	1073807360
 1310              		.cfi_endproc
 1311              	.LFE129:
ARM GAS  C:\Users\Grillmo\AppData\Local\Temp\ccN7xt8j.s 			page 24


 1312              		.size	TIM_OC3Init, .-TIM_OC3Init
 1313              		.section	.text.TIM_OC4Init,"ax",%progbits
 1314              		.align	1
 1315              		.p2align 4,,15
 1316              		.global	TIM_OC4Init
 1317              		.syntax unified
 1318              		.thumb
 1319              		.thumb_func
 1320              		.fpu fpv4-sp-d16
 1321              		.type	TIM_OC4Init, %function
 1322              	TIM_OC4Init:
 1323              	.LFB130:
 1324              		.loc 1 920 0
 1325              		.cfi_startproc
 1326              		@ args = 0, pretend = 0, frame = 0
 1327              		@ frame_needed = 0, uses_anonymous_args = 0
 1328              	.LVL108:
 1329              		.loc 1 930 0
 1330 0000 036A     		ldr	r3, [r0, #32]
 1331 0002 4EF6FF72 		movw	r2, #61439
 1332 0006 1340     		ands	r3, r3, r2
 1333              		.loc 1 920 0
 1334 0008 F0B5     		push	{r4, r5, r6, r7, lr}
 1335              		.cfi_def_cfa_offset 20
 1336              		.cfi_offset 4, -20
 1337              		.cfi_offset 5, -16
 1338              		.cfi_offset 6, -12
 1339              		.cfi_offset 7, -8
 1340              		.cfi_offset 14, -4
 1341              		.loc 1 930 0
 1342 000a 0362     		str	r3, [r0, #32]
 1343              		.loc 1 953 0
 1344 000c 4A88     		ldrh	r2, [r1, #2]
 1345              		.loc 1 950 0
 1346 000e 8D89     		ldrh	r5, [r1, #12]
 1347              		.loc 1 933 0
 1348 0010 D0F820E0 		ldr	lr, [r0, #32]
 1349              	.LVL109:
 1350              		.loc 1 935 0
 1351 0014 4468     		ldr	r4, [r0, #4]
 1352              		.loc 1 938 0
 1353 0016 C769     		ldr	r7, [r0, #28]
 1354              		.loc 1 955 0
 1355 0018 114E     		ldr	r6, .L99
 1356              		.loc 1 953 0
 1357 001a 1543     		orrs	r5, r5, r2
 1358              		.loc 1 942 0
 1359 001c 48F6FF42 		movw	r2, #36095
 1360 0020 3A40     		ands	r2, r2, r7
 1361              		.loc 1 948 0
 1362 0022 4DF6FF73 		movw	r3, #57343
 1363              		.loc 1 945 0
 1364 0026 0F88     		ldrh	r7, [r1]
 1365              		.loc 1 948 0
 1366 0028 0EEA0303 		and	r3, lr, r3
 1367              		.loc 1 953 0
 1368 002c 43EA0533 		orr	r3, r3, r5, lsl #12
ARM GAS  C:\Users\Grillmo\AppData\Local\Temp\ccN7xt8j.s 			page 25


 1369              		.loc 1 945 0
 1370 0030 42EA0722 		orr	r2, r2, r7, lsl #8
 1371              		.loc 1 955 0
 1372 0034 B042     		cmp	r0, r6
 1373              		.loc 1 953 0
 1374 0036 9BB2     		uxth	r3, r3
 1375              		.loc 1 935 0
 1376 0038 A4B2     		uxth	r4, r4
 1377              	.LVL110:
 1378              		.loc 1 945 0
 1379 003a 92B2     		uxth	r2, r2
 1380              	.LVL111:
 1381              		.loc 1 955 0
 1382 003c 08D0     		beq	.L96
 1383              		.loc 1 955 0 is_stmt 0 discriminator 1
 1384 003e 094D     		ldr	r5, .L99+4
 1385 0040 A842     		cmp	r0, r5
 1386 0042 05D0     		beq	.L96
 1387              	.L97:
 1388              		.loc 1 970 0 is_stmt 1
 1389 0044 8968     		ldr	r1, [r1, #8]
 1390              	.LVL112:
 1391              		.loc 1 964 0
 1392 0046 4460     		str	r4, [r0, #4]
 1393              		.loc 1 967 0
 1394 0048 C261     		str	r2, [r0, #28]
 1395              		.loc 1 970 0
 1396 004a 0164     		str	r1, [r0, #64]
 1397              		.loc 1 973 0
 1398 004c 0362     		str	r3, [r0, #32]
 1399 004e F0BD     		pop	{r4, r5, r6, r7, pc}
 1400              	.LVL113:
 1401              	.L96:
 1402              		.loc 1 961 0
 1403 0050 0D8A     		ldrh	r5, [r1, #16]
 1404              		.loc 1 959 0
 1405 0052 24F48044 		bic	r4, r4, #16384
 1406              	.LVL114:
 1407              		.loc 1 961 0
 1408 0056 44EA8514 		orr	r4, r4, r5, lsl #6
 1409              	.LVL115:
 1410 005a A4B2     		uxth	r4, r4
 1411              	.LVL116:
 1412 005c F2E7     		b	.L97
 1413              	.L100:
 1414 005e 00BF     		.align	2
 1415              	.L99:
 1416 0060 00000140 		.word	1073807360
 1417 0064 00040140 		.word	1073808384
 1418              		.cfi_endproc
 1419              	.LFE130:
 1420              		.size	TIM_OC4Init, .-TIM_OC4Init
 1421              		.section	.text.TIM_OCStructInit,"ax",%progbits
 1422              		.align	1
 1423              		.p2align 4,,15
 1424              		.global	TIM_OCStructInit
 1425              		.syntax unified
ARM GAS  C:\Users\Grillmo\AppData\Local\Temp\ccN7xt8j.s 			page 26


 1426              		.thumb
 1427              		.thumb_func
 1428              		.fpu fpv4-sp-d16
 1429              		.type	TIM_OCStructInit, %function
 1430              	TIM_OCStructInit:
 1431              	.LFB131:
 1432              		.loc 1 983 0
 1433              		.cfi_startproc
 1434              		@ args = 0, pretend = 0, frame = 0
 1435              		@ frame_needed = 0, uses_anonymous_args = 0
 1436              		@ link register save eliminated.
 1437              	.LVL117:
 1438              		.loc 1 985 0
 1439 0000 0023     		movs	r3, #0
 1440 0002 0380     		strh	r3, [r0]	@ movhi
 1441              		.loc 1 986 0
 1442 0004 4380     		strh	r3, [r0, #2]	@ movhi
 1443              		.loc 1 987 0
 1444 0006 8380     		strh	r3, [r0, #4]	@ movhi
 1445              		.loc 1 988 0
 1446 0008 8360     		str	r3, [r0, #8]
 1447              		.loc 1 989 0
 1448 000a 8381     		strh	r3, [r0, #12]	@ movhi
 1449              		.loc 1 990 0
 1450 000c C381     		strh	r3, [r0, #14]	@ movhi
 1451              		.loc 1 991 0
 1452 000e 0382     		strh	r3, [r0, #16]	@ movhi
 1453              		.loc 1 992 0
 1454 0010 4382     		strh	r3, [r0, #18]	@ movhi
 1455 0012 7047     		bx	lr
 1456              		.cfi_endproc
 1457              	.LFE131:
 1458              		.size	TIM_OCStructInit, .-TIM_OCStructInit
 1459              		.section	.text.TIM_SelectOCxM,"ax",%progbits
 1460              		.align	1
 1461              		.p2align 4,,15
 1462              		.global	TIM_SelectOCxM
 1463              		.syntax unified
 1464              		.thumb
 1465              		.thumb_func
 1466              		.fpu fpv4-sp-d16
 1467              		.type	TIM_SelectOCxM, %function
 1468              	TIM_SelectOCxM:
 1469              	.LFB132:
 1470              		.loc 1 1019 0
 1471              		.cfi_startproc
 1472              		@ args = 0, pretend = 0, frame = 0
 1473              		@ frame_needed = 0, uses_anonymous_args = 0
 1474              		@ link register save eliminated.
 1475              	.LVL118:
 1476              		.loc 1 1031 0
 1477 0000 0123     		movs	r3, #1
 1478 0002 8B40     		lsls	r3, r3, r1
 1479              		.loc 1 1019 0
 1480 0004 10B4     		push	{r4}
 1481              		.cfi_def_cfa_offset 4
 1482              		.cfi_offset 4, -4
ARM GAS  C:\Users\Grillmo\AppData\Local\Temp\ccN7xt8j.s 			page 27


 1483              		.loc 1 1034 0
 1484 0006 DB43     		mvns	r3, r3
 1485 0008 046A     		ldr	r4, [r0, #32]
 1486 000a 9BB2     		uxth	r3, r3
 1487 000c 2340     		ands	r3, r3, r4
 1488              		.loc 1 1036 0
 1489 000e 21F00804 		bic	r4, r1, #8
 1490              		.loc 1 1034 0
 1491 0012 0362     		str	r3, [r0, #32]
 1492              		.loc 1 1029 0
 1493 0014 1830     		adds	r0, r0, #24
 1494              	.LVL119:
 1495              		.loc 1 1036 0
 1496 0016 7CB1     		cbz	r4, .L106
 1497              	.LVL120:
 1498              		.loc 1 1048 0
 1499 0018 0439     		subs	r1, r1, #4
 1500              	.LVL121:
 1501 001a C1F34E01 		ubfx	r1, r1, #1, #15
 1502              		.loc 1 1051 0
 1503 001e 48F6FF74 		movw	r4, #36863
 1504 0022 0B58     		ldr	r3, [r1, r0]
 1505 0024 2340     		ands	r3, r3, r4
 1506 0026 0B50     		str	r3, [r1, r0]
 1507              		.loc 1 1054 0
 1508 0028 1202     		lsls	r2, r2, #8
 1509              	.LVL122:
 1510 002a 0B58     		ldr	r3, [r1, r0]
 1511              		.loc 1 1056 0
 1512 002c 5DF8044B 		ldr	r4, [sp], #4
 1513              		.cfi_remember_state
 1514              		.cfi_restore 4
 1515              		.cfi_def_cfa_offset 0
 1516              		.loc 1 1054 0
 1517 0030 92B2     		uxth	r2, r2
 1518 0032 1A43     		orrs	r2, r2, r3
 1519 0034 0A50     		str	r2, [r1, r0]
 1520              		.loc 1 1056 0
 1521 0036 7047     		bx	lr
 1522              	.LVL123:
 1523              	.L106:
 1524              		.cfi_restore_state
 1525              		.loc 1 1038 0
 1526 0038 4908     		lsrs	r1, r1, #1
 1527              	.LVL124:
 1528              		.loc 1 1041 0
 1529 003a 4FF68F74 		movw	r4, #65423
 1530 003e 0B58     		ldr	r3, [r1, r0]
 1531 0040 2340     		ands	r3, r3, r4
 1532 0042 0B50     		str	r3, [r1, r0]
 1533              		.loc 1 1044 0
 1534 0044 0B58     		ldr	r3, [r1, r0]
 1535              		.loc 1 1056 0
 1536 0046 5DF8044B 		ldr	r4, [sp], #4
 1537              		.cfi_restore 4
 1538              		.cfi_def_cfa_offset 0
 1539              		.loc 1 1044 0
ARM GAS  C:\Users\Grillmo\AppData\Local\Temp\ccN7xt8j.s 			page 28


 1540 004a 1A43     		orrs	r2, r2, r3
 1541              	.LVL125:
 1542 004c 0A50     		str	r2, [r1, r0]
 1543              		.loc 1 1056 0
 1544 004e 7047     		bx	lr
 1545              		.cfi_endproc
 1546              	.LFE132:
 1547              		.size	TIM_SelectOCxM, .-TIM_SelectOCxM
 1548              		.section	.text.TIM_SetCompare1,"ax",%progbits
 1549              		.align	1
 1550              		.p2align 4,,15
 1551              		.global	TIM_SetCompare1
 1552              		.syntax unified
 1553              		.thumb
 1554              		.thumb_func
 1555              		.fpu fpv4-sp-d16
 1556              		.type	TIM_SetCompare1, %function
 1557              	TIM_SetCompare1:
 1558              	.LFB133:
 1559              		.loc 1 1065 0
 1560              		.cfi_startproc
 1561              		@ args = 0, pretend = 0, frame = 0
 1562              		@ frame_needed = 0, uses_anonymous_args = 0
 1563              		@ link register save eliminated.
 1564              	.LVL126:
 1565              		.loc 1 1070 0
 1566 0000 4163     		str	r1, [r0, #52]
 1567 0002 7047     		bx	lr
 1568              		.cfi_endproc
 1569              	.LFE133:
 1570              		.size	TIM_SetCompare1, .-TIM_SetCompare1
 1571              		.section	.text.TIM_SetCompare2,"ax",%progbits
 1572              		.align	1
 1573              		.p2align 4,,15
 1574              		.global	TIM_SetCompare2
 1575              		.syntax unified
 1576              		.thumb
 1577              		.thumb_func
 1578              		.fpu fpv4-sp-d16
 1579              		.type	TIM_SetCompare2, %function
 1580              	TIM_SetCompare2:
 1581              	.LFB134:
 1582              		.loc 1 1081 0
 1583              		.cfi_startproc
 1584              		@ args = 0, pretend = 0, frame = 0
 1585              		@ frame_needed = 0, uses_anonymous_args = 0
 1586              		@ link register save eliminated.
 1587              	.LVL127:
 1588              		.loc 1 1086 0
 1589 0000 8163     		str	r1, [r0, #56]
 1590 0002 7047     		bx	lr
 1591              		.cfi_endproc
 1592              	.LFE134:
 1593              		.size	TIM_SetCompare2, .-TIM_SetCompare2
 1594              		.section	.text.TIM_SetCompare3,"ax",%progbits
 1595              		.align	1
 1596              		.p2align 4,,15
ARM GAS  C:\Users\Grillmo\AppData\Local\Temp\ccN7xt8j.s 			page 29


 1597              		.global	TIM_SetCompare3
 1598              		.syntax unified
 1599              		.thumb
 1600              		.thumb_func
 1601              		.fpu fpv4-sp-d16
 1602              		.type	TIM_SetCompare3, %function
 1603              	TIM_SetCompare3:
 1604              	.LFB135:
 1605              		.loc 1 1096 0
 1606              		.cfi_startproc
 1607              		@ args = 0, pretend = 0, frame = 0
 1608              		@ frame_needed = 0, uses_anonymous_args = 0
 1609              		@ link register save eliminated.
 1610              	.LVL128:
 1611              		.loc 1 1101 0
 1612 0000 C163     		str	r1, [r0, #60]
 1613 0002 7047     		bx	lr
 1614              		.cfi_endproc
 1615              	.LFE135:
 1616              		.size	TIM_SetCompare3, .-TIM_SetCompare3
 1617              		.section	.text.TIM_SetCompare4,"ax",%progbits
 1618              		.align	1
 1619              		.p2align 4,,15
 1620              		.global	TIM_SetCompare4
 1621              		.syntax unified
 1622              		.thumb
 1623              		.thumb_func
 1624              		.fpu fpv4-sp-d16
 1625              		.type	TIM_SetCompare4, %function
 1626              	TIM_SetCompare4:
 1627              	.LFB136:
 1628              		.loc 1 1111 0
 1629              		.cfi_startproc
 1630              		@ args = 0, pretend = 0, frame = 0
 1631              		@ frame_needed = 0, uses_anonymous_args = 0
 1632              		@ link register save eliminated.
 1633              	.LVL129:
 1634              		.loc 1 1116 0
 1635 0000 0164     		str	r1, [r0, #64]
 1636 0002 7047     		bx	lr
 1637              		.cfi_endproc
 1638              	.LFE136:
 1639              		.size	TIM_SetCompare4, .-TIM_SetCompare4
 1640              		.section	.text.TIM_ForcedOC1Config,"ax",%progbits
 1641              		.align	1
 1642              		.p2align 4,,15
 1643              		.global	TIM_ForcedOC1Config
 1644              		.syntax unified
 1645              		.thumb
 1646              		.thumb_func
 1647              		.fpu fpv4-sp-d16
 1648              		.type	TIM_ForcedOC1Config, %function
 1649              	TIM_ForcedOC1Config:
 1650              	.LFB137:
 1651              		.loc 1 1129 0
 1652              		.cfi_startproc
 1653              		@ args = 0, pretend = 0, frame = 0
ARM GAS  C:\Users\Grillmo\AppData\Local\Temp\ccN7xt8j.s 			page 30


 1654              		@ frame_needed = 0, uses_anonymous_args = 0
 1655              		@ link register save eliminated.
 1656              	.LVL130:
 1657              		.loc 1 1135 0
 1658 0000 8269     		ldr	r2, [r0, #24]
 1659              	.LVL131:
 1660              		.loc 1 1138 0
 1661 0002 4FF68F73 		movw	r3, #65423
 1662 0006 1340     		ands	r3, r3, r2
 1663              	.LVL132:
 1664              		.loc 1 1144 0
 1665 0008 1943     		orrs	r1, r1, r3
 1666              	.LVL133:
 1667 000a 8161     		str	r1, [r0, #24]
 1668 000c 7047     		bx	lr
 1669              		.cfi_endproc
 1670              	.LFE137:
 1671              		.size	TIM_ForcedOC1Config, .-TIM_ForcedOC1Config
 1672 000e 00BF     		.section	.text.TIM_ForcedOC2Config,"ax",%progbits
 1673              		.align	1
 1674              		.p2align 4,,15
 1675              		.global	TIM_ForcedOC2Config
 1676              		.syntax unified
 1677              		.thumb
 1678              		.thumb_func
 1679              		.fpu fpv4-sp-d16
 1680              		.type	TIM_ForcedOC2Config, %function
 1681              	TIM_ForcedOC2Config:
 1682              	.LFB138:
 1683              		.loc 1 1158 0
 1684              		.cfi_startproc
 1685              		@ args = 0, pretend = 0, frame = 0
 1686              		@ frame_needed = 0, uses_anonymous_args = 0
 1687              		@ link register save eliminated.
 1688              	.LVL134:
 1689              		.loc 1 1164 0
 1690 0000 8269     		ldr	r2, [r0, #24]
 1691              	.LVL135:
 1692              		.loc 1 1167 0
 1693 0002 48F6FF73 		movw	r3, #36863
 1694 0006 1340     		ands	r3, r3, r2
 1695              	.LVL136:
 1696              		.loc 1 1170 0
 1697 0008 43EA0121 		orr	r1, r3, r1, lsl #8
 1698              	.LVL137:
 1699              		.loc 1 1173 0
 1700 000c 89B2     		uxth	r1, r1
 1701 000e 8161     		str	r1, [r0, #24]
 1702 0010 7047     		bx	lr
 1703              		.cfi_endproc
 1704              	.LFE138:
 1705              		.size	TIM_ForcedOC2Config, .-TIM_ForcedOC2Config
 1706 0012 00BF     		.section	.text.TIM_ForcedOC3Config,"ax",%progbits
 1707              		.align	1
 1708              		.p2align 4,,15
 1709              		.global	TIM_ForcedOC3Config
 1710              		.syntax unified
ARM GAS  C:\Users\Grillmo\AppData\Local\Temp\ccN7xt8j.s 			page 31


 1711              		.thumb
 1712              		.thumb_func
 1713              		.fpu fpv4-sp-d16
 1714              		.type	TIM_ForcedOC3Config, %function
 1715              	TIM_ForcedOC3Config:
 1716              	.LFB139:
 1717              		.loc 1 1186 0
 1718              		.cfi_startproc
 1719              		@ args = 0, pretend = 0, frame = 0
 1720              		@ frame_needed = 0, uses_anonymous_args = 0
 1721              		@ link register save eliminated.
 1722              	.LVL138:
 1723              		.loc 1 1193 0
 1724 0000 C269     		ldr	r2, [r0, #28]
 1725              	.LVL139:
 1726              		.loc 1 1196 0
 1727 0002 4FF68F73 		movw	r3, #65423
 1728 0006 1340     		ands	r3, r3, r2
 1729              	.LVL140:
 1730              		.loc 1 1202 0
 1731 0008 1943     		orrs	r1, r1, r3
 1732              	.LVL141:
 1733 000a C161     		str	r1, [r0, #28]
 1734 000c 7047     		bx	lr
 1735              		.cfi_endproc
 1736              	.LFE139:
 1737              		.size	TIM_ForcedOC3Config, .-TIM_ForcedOC3Config
 1738 000e 00BF     		.section	.text.TIM_ForcedOC4Config,"ax",%progbits
 1739              		.align	1
 1740              		.p2align 4,,15
 1741              		.global	TIM_ForcedOC4Config
 1742              		.syntax unified
 1743              		.thumb
 1744              		.thumb_func
 1745              		.fpu fpv4-sp-d16
 1746              		.type	TIM_ForcedOC4Config, %function
 1747              	TIM_ForcedOC4Config:
 1748              	.LFB140:
 1749              		.loc 1 1215 0
 1750              		.cfi_startproc
 1751              		@ args = 0, pretend = 0, frame = 0
 1752              		@ frame_needed = 0, uses_anonymous_args = 0
 1753              		@ link register save eliminated.
 1754              	.LVL142:
 1755              		.loc 1 1221 0
 1756 0000 C269     		ldr	r2, [r0, #28]
 1757              	.LVL143:
 1758              		.loc 1 1224 0
 1759 0002 48F6FF73 		movw	r3, #36863
 1760 0006 1340     		ands	r3, r3, r2
 1761              	.LVL144:
 1762              		.loc 1 1227 0
 1763 0008 43EA0121 		orr	r1, r3, r1, lsl #8
 1764              	.LVL145:
 1765              		.loc 1 1230 0
 1766 000c 89B2     		uxth	r1, r1
 1767 000e C161     		str	r1, [r0, #28]
ARM GAS  C:\Users\Grillmo\AppData\Local\Temp\ccN7xt8j.s 			page 32


 1768 0010 7047     		bx	lr
 1769              		.cfi_endproc
 1770              	.LFE140:
 1771              		.size	TIM_ForcedOC4Config, .-TIM_ForcedOC4Config
 1772 0012 00BF     		.section	.text.TIM_OC1PreloadConfig,"ax",%progbits
 1773              		.align	1
 1774              		.p2align 4,,15
 1775              		.global	TIM_OC1PreloadConfig
 1776              		.syntax unified
 1777              		.thumb
 1778              		.thumb_func
 1779              		.fpu fpv4-sp-d16
 1780              		.type	TIM_OC1PreloadConfig, %function
 1781              	TIM_OC1PreloadConfig:
 1782              	.LFB141:
 1783              		.loc 1 1243 0
 1784              		.cfi_startproc
 1785              		@ args = 0, pretend = 0, frame = 0
 1786              		@ frame_needed = 0, uses_anonymous_args = 0
 1787              		@ link register save eliminated.
 1788              	.LVL146:
 1789              		.loc 1 1250 0
 1790 0000 8269     		ldr	r2, [r0, #24]
 1791              	.LVL147:
 1792              		.loc 1 1253 0
 1793 0002 4FF6F773 		movw	r3, #65527
 1794 0006 1340     		ands	r3, r3, r2
 1795              	.LVL148:
 1796              		.loc 1 1259 0
 1797 0008 1943     		orrs	r1, r1, r3
 1798              	.LVL149:
 1799 000a 8161     		str	r1, [r0, #24]
 1800 000c 7047     		bx	lr
 1801              		.cfi_endproc
 1802              	.LFE141:
 1803              		.size	TIM_OC1PreloadConfig, .-TIM_OC1PreloadConfig
 1804 000e 00BF     		.section	.text.TIM_OC2PreloadConfig,"ax",%progbits
 1805              		.align	1
 1806              		.p2align 4,,15
 1807              		.global	TIM_OC2PreloadConfig
 1808              		.syntax unified
 1809              		.thumb
 1810              		.thumb_func
 1811              		.fpu fpv4-sp-d16
 1812              		.type	TIM_OC2PreloadConfig, %function
 1813              	TIM_OC2PreloadConfig:
 1814              	.LFB142:
 1815              		.loc 1 1273 0
 1816              		.cfi_startproc
 1817              		@ args = 0, pretend = 0, frame = 0
 1818              		@ frame_needed = 0, uses_anonymous_args = 0
 1819              		@ link register save eliminated.
 1820              	.LVL150:
 1821              		.loc 1 1280 0
 1822 0000 8269     		ldr	r2, [r0, #24]
 1823              	.LVL151:
 1824              		.loc 1 1283 0
ARM GAS  C:\Users\Grillmo\AppData\Local\Temp\ccN7xt8j.s 			page 33


 1825 0002 4FF2FF73 		movw	r3, #63487
 1826 0006 1340     		ands	r3, r3, r2
 1827              	.LVL152:
 1828              		.loc 1 1286 0
 1829 0008 43EA0121 		orr	r1, r3, r1, lsl #8
 1830              	.LVL153:
 1831              		.loc 1 1289 0
 1832 000c 89B2     		uxth	r1, r1
 1833 000e 8161     		str	r1, [r0, #24]
 1834 0010 7047     		bx	lr
 1835              		.cfi_endproc
 1836              	.LFE142:
 1837              		.size	TIM_OC2PreloadConfig, .-TIM_OC2PreloadConfig
 1838 0012 00BF     		.section	.text.TIM_OC3PreloadConfig,"ax",%progbits
 1839              		.align	1
 1840              		.p2align 4,,15
 1841              		.global	TIM_OC3PreloadConfig
 1842              		.syntax unified
 1843              		.thumb
 1844              		.thumb_func
 1845              		.fpu fpv4-sp-d16
 1846              		.type	TIM_OC3PreloadConfig, %function
 1847              	TIM_OC3PreloadConfig:
 1848              	.LFB143:
 1849              		.loc 1 1302 0
 1850              		.cfi_startproc
 1851              		@ args = 0, pretend = 0, frame = 0
 1852              		@ frame_needed = 0, uses_anonymous_args = 0
 1853              		@ link register save eliminated.
 1854              	.LVL154:
 1855              		.loc 1 1309 0
 1856 0000 C269     		ldr	r2, [r0, #28]
 1857              	.LVL155:
 1858              		.loc 1 1312 0
 1859 0002 4FF6F773 		movw	r3, #65527
 1860 0006 1340     		ands	r3, r3, r2
 1861              	.LVL156:
 1862              		.loc 1 1318 0
 1863 0008 1943     		orrs	r1, r1, r3
 1864              	.LVL157:
 1865 000a C161     		str	r1, [r0, #28]
 1866 000c 7047     		bx	lr
 1867              		.cfi_endproc
 1868              	.LFE143:
 1869              		.size	TIM_OC3PreloadConfig, .-TIM_OC3PreloadConfig
 1870 000e 00BF     		.section	.text.TIM_OC4PreloadConfig,"ax",%progbits
 1871              		.align	1
 1872              		.p2align 4,,15
 1873              		.global	TIM_OC4PreloadConfig
 1874              		.syntax unified
 1875              		.thumb
 1876              		.thumb_func
 1877              		.fpu fpv4-sp-d16
 1878              		.type	TIM_OC4PreloadConfig, %function
 1879              	TIM_OC4PreloadConfig:
 1880              	.LFB144:
 1881              		.loc 1 1331 0
ARM GAS  C:\Users\Grillmo\AppData\Local\Temp\ccN7xt8j.s 			page 34


 1882              		.cfi_startproc
 1883              		@ args = 0, pretend = 0, frame = 0
 1884              		@ frame_needed = 0, uses_anonymous_args = 0
 1885              		@ link register save eliminated.
 1886              	.LVL158:
 1887              		.loc 1 1338 0
 1888 0000 C269     		ldr	r2, [r0, #28]
 1889              	.LVL159:
 1890              		.loc 1 1341 0
 1891 0002 4FF2FF73 		movw	r3, #63487
 1892 0006 1340     		ands	r3, r3, r2
 1893              	.LVL160:
 1894              		.loc 1 1344 0
 1895 0008 43EA0121 		orr	r1, r3, r1, lsl #8
 1896              	.LVL161:
 1897              		.loc 1 1347 0
 1898 000c 89B2     		uxth	r1, r1
 1899 000e C161     		str	r1, [r0, #28]
 1900 0010 7047     		bx	lr
 1901              		.cfi_endproc
 1902              	.LFE144:
 1903              		.size	TIM_OC4PreloadConfig, .-TIM_OC4PreloadConfig
 1904 0012 00BF     		.section	.text.TIM_OC1FastConfig,"ax",%progbits
 1905              		.align	1
 1906              		.p2align 4,,15
 1907              		.global	TIM_OC1FastConfig
 1908              		.syntax unified
 1909              		.thumb
 1910              		.thumb_func
 1911              		.fpu fpv4-sp-d16
 1912              		.type	TIM_OC1FastConfig, %function
 1913              	TIM_OC1FastConfig:
 1914              	.LFB145:
 1915              		.loc 1 1360 0
 1916              		.cfi_startproc
 1917              		@ args = 0, pretend = 0, frame = 0
 1918              		@ frame_needed = 0, uses_anonymous_args = 0
 1919              		@ link register save eliminated.
 1920              	.LVL162:
 1921              		.loc 1 1368 0
 1922 0000 8269     		ldr	r2, [r0, #24]
 1923              	.LVL163:
 1924              		.loc 1 1371 0
 1925 0002 4FF6FB73 		movw	r3, #65531
 1926 0006 1340     		ands	r3, r3, r2
 1927              	.LVL164:
 1928              		.loc 1 1377 0
 1929 0008 1943     		orrs	r1, r1, r3
 1930              	.LVL165:
 1931 000a 8161     		str	r1, [r0, #24]
 1932 000c 7047     		bx	lr
 1933              		.cfi_endproc
 1934              	.LFE145:
 1935              		.size	TIM_OC1FastConfig, .-TIM_OC1FastConfig
 1936 000e 00BF     		.section	.text.TIM_OC2FastConfig,"ax",%progbits
 1937              		.align	1
 1938              		.p2align 4,,15
ARM GAS  C:\Users\Grillmo\AppData\Local\Temp\ccN7xt8j.s 			page 35


 1939              		.global	TIM_OC2FastConfig
 1940              		.syntax unified
 1941              		.thumb
 1942              		.thumb_func
 1943              		.fpu fpv4-sp-d16
 1944              		.type	TIM_OC2FastConfig, %function
 1945              	TIM_OC2FastConfig:
 1946              	.LFB146:
 1947              		.loc 1 1391 0
 1948              		.cfi_startproc
 1949              		@ args = 0, pretend = 0, frame = 0
 1950              		@ frame_needed = 0, uses_anonymous_args = 0
 1951              		@ link register save eliminated.
 1952              	.LVL166:
 1953              		.loc 1 1399 0
 1954 0000 8269     		ldr	r2, [r0, #24]
 1955              	.LVL167:
 1956              		.loc 1 1402 0
 1957 0002 4FF6FF33 		movw	r3, #64511
 1958 0006 1340     		ands	r3, r3, r2
 1959              	.LVL168:
 1960              		.loc 1 1405 0
 1961 0008 43EA0121 		orr	r1, r3, r1, lsl #8
 1962              	.LVL169:
 1963              		.loc 1 1408 0
 1964 000c 89B2     		uxth	r1, r1
 1965 000e 8161     		str	r1, [r0, #24]
 1966 0010 7047     		bx	lr
 1967              		.cfi_endproc
 1968              	.LFE146:
 1969              		.size	TIM_OC2FastConfig, .-TIM_OC2FastConfig
 1970 0012 00BF     		.section	.text.TIM_OC3FastConfig,"ax",%progbits
 1971              		.align	1
 1972              		.p2align 4,,15
 1973              		.global	TIM_OC3FastConfig
 1974              		.syntax unified
 1975              		.thumb
 1976              		.thumb_func
 1977              		.fpu fpv4-sp-d16
 1978              		.type	TIM_OC3FastConfig, %function
 1979              	TIM_OC3FastConfig:
 1980              	.LFB147:
 1981              		.loc 1 1421 0
 1982              		.cfi_startproc
 1983              		@ args = 0, pretend = 0, frame = 0
 1984              		@ frame_needed = 0, uses_anonymous_args = 0
 1985              		@ link register save eliminated.
 1986              	.LVL170:
 1987              		.loc 1 1429 0
 1988 0000 C269     		ldr	r2, [r0, #28]
 1989              	.LVL171:
 1990              		.loc 1 1432 0
 1991 0002 4FF6FB73 		movw	r3, #65531
 1992 0006 1340     		ands	r3, r3, r2
 1993              	.LVL172:
 1994              		.loc 1 1438 0
 1995 0008 1943     		orrs	r1, r1, r3
ARM GAS  C:\Users\Grillmo\AppData\Local\Temp\ccN7xt8j.s 			page 36


 1996              	.LVL173:
 1997 000a C161     		str	r1, [r0, #28]
 1998 000c 7047     		bx	lr
 1999              		.cfi_endproc
 2000              	.LFE147:
 2001              		.size	TIM_OC3FastConfig, .-TIM_OC3FastConfig
 2002 000e 00BF     		.section	.text.TIM_OC4FastConfig,"ax",%progbits
 2003              		.align	1
 2004              		.p2align 4,,15
 2005              		.global	TIM_OC4FastConfig
 2006              		.syntax unified
 2007              		.thumb
 2008              		.thumb_func
 2009              		.fpu fpv4-sp-d16
 2010              		.type	TIM_OC4FastConfig, %function
 2011              	TIM_OC4FastConfig:
 2012              	.LFB148:
 2013              		.loc 1 1451 0
 2014              		.cfi_startproc
 2015              		@ args = 0, pretend = 0, frame = 0
 2016              		@ frame_needed = 0, uses_anonymous_args = 0
 2017              		@ link register save eliminated.
 2018              	.LVL174:
 2019              		.loc 1 1459 0
 2020 0000 C269     		ldr	r2, [r0, #28]
 2021              	.LVL175:
 2022              		.loc 1 1462 0
 2023 0002 4FF6FF33 		movw	r3, #64511
 2024 0006 1340     		ands	r3, r3, r2
 2025              	.LVL176:
 2026              		.loc 1 1465 0
 2027 0008 43EA0121 		orr	r1, r3, r1, lsl #8
 2028              	.LVL177:
 2029              		.loc 1 1468 0
 2030 000c 89B2     		uxth	r1, r1
 2031 000e C161     		str	r1, [r0, #28]
 2032 0010 7047     		bx	lr
 2033              		.cfi_endproc
 2034              	.LFE148:
 2035              		.size	TIM_OC4FastConfig, .-TIM_OC4FastConfig
 2036 0012 00BF     		.section	.text.TIM_ClearOC1Ref,"ax",%progbits
 2037              		.align	1
 2038              		.p2align 4,,15
 2039              		.global	TIM_ClearOC1Ref
 2040              		.syntax unified
 2041              		.thumb
 2042              		.thumb_func
 2043              		.fpu fpv4-sp-d16
 2044              		.type	TIM_ClearOC1Ref, %function
 2045              	TIM_ClearOC1Ref:
 2046              	.LFB149:
 2047              		.loc 1 1481 0
 2048              		.cfi_startproc
 2049              		@ args = 0, pretend = 0, frame = 0
 2050              		@ frame_needed = 0, uses_anonymous_args = 0
 2051              		@ link register save eliminated.
 2052              	.LVL178:
ARM GAS  C:\Users\Grillmo\AppData\Local\Temp\ccN7xt8j.s 			page 37


 2053              		.loc 1 1488 0
 2054 0000 8269     		ldr	r2, [r0, #24]
 2055              	.LVL179:
 2056              		.loc 1 1491 0
 2057 0002 4FF67F73 		movw	r3, #65407
 2058 0006 1340     		ands	r3, r3, r2
 2059              	.LVL180:
 2060              		.loc 1 1497 0
 2061 0008 1943     		orrs	r1, r1, r3
 2062              	.LVL181:
 2063 000a 8161     		str	r1, [r0, #24]
 2064 000c 7047     		bx	lr
 2065              		.cfi_endproc
 2066              	.LFE149:
 2067              		.size	TIM_ClearOC1Ref, .-TIM_ClearOC1Ref
 2068 000e 00BF     		.section	.text.TIM_ClearOC2Ref,"ax",%progbits
 2069              		.align	1
 2070              		.p2align 4,,15
 2071              		.global	TIM_ClearOC2Ref
 2072              		.syntax unified
 2073              		.thumb
 2074              		.thumb_func
 2075              		.fpu fpv4-sp-d16
 2076              		.type	TIM_ClearOC2Ref, %function
 2077              	TIM_ClearOC2Ref:
 2078              	.LFB150:
 2079              		.loc 1 1511 0
 2080              		.cfi_startproc
 2081              		@ args = 0, pretend = 0, frame = 0
 2082              		@ frame_needed = 0, uses_anonymous_args = 0
 2083              		@ link register save eliminated.
 2084              	.LVL182:
 2085              		.loc 1 1518 0
 2086 0000 8369     		ldr	r3, [r0, #24]
 2087              	.LVL183:
 2088              		.loc 1 1521 0
 2089 0002 C3F30E03 		ubfx	r3, r3, #0, #15
 2090              	.LVL184:
 2091              		.loc 1 1524 0
 2092 0006 43EA0121 		orr	r1, r3, r1, lsl #8
 2093              	.LVL185:
 2094              		.loc 1 1527 0
 2095 000a 89B2     		uxth	r1, r1
 2096 000c 8161     		str	r1, [r0, #24]
 2097 000e 7047     		bx	lr
 2098              		.cfi_endproc
 2099              	.LFE150:
 2100              		.size	TIM_ClearOC2Ref, .-TIM_ClearOC2Ref
 2101              		.section	.text.TIM_ClearOC3Ref,"ax",%progbits
 2102              		.align	1
 2103              		.p2align 4,,15
 2104              		.global	TIM_ClearOC3Ref
 2105              		.syntax unified
 2106              		.thumb
 2107              		.thumb_func
 2108              		.fpu fpv4-sp-d16
 2109              		.type	TIM_ClearOC3Ref, %function
ARM GAS  C:\Users\Grillmo\AppData\Local\Temp\ccN7xt8j.s 			page 38


 2110              	TIM_ClearOC3Ref:
 2111              	.LFB151:
 2112              		.loc 1 1540 0
 2113              		.cfi_startproc
 2114              		@ args = 0, pretend = 0, frame = 0
 2115              		@ frame_needed = 0, uses_anonymous_args = 0
 2116              		@ link register save eliminated.
 2117              	.LVL186:
 2118              		.loc 1 1547 0
 2119 0000 C269     		ldr	r2, [r0, #28]
 2120              	.LVL187:
 2121              		.loc 1 1550 0
 2122 0002 4FF67F73 		movw	r3, #65407
 2123 0006 1340     		ands	r3, r3, r2
 2124              	.LVL188:
 2125              		.loc 1 1556 0
 2126 0008 1943     		orrs	r1, r1, r3
 2127              	.LVL189:
 2128 000a C161     		str	r1, [r0, #28]
 2129 000c 7047     		bx	lr
 2130              		.cfi_endproc
 2131              	.LFE151:
 2132              		.size	TIM_ClearOC3Ref, .-TIM_ClearOC3Ref
 2133 000e 00BF     		.section	.text.TIM_ClearOC4Ref,"ax",%progbits
 2134              		.align	1
 2135              		.p2align 4,,15
 2136              		.global	TIM_ClearOC4Ref
 2137              		.syntax unified
 2138              		.thumb
 2139              		.thumb_func
 2140              		.fpu fpv4-sp-d16
 2141              		.type	TIM_ClearOC4Ref, %function
 2142              	TIM_ClearOC4Ref:
 2143              	.LFB152:
 2144              		.loc 1 1569 0
 2145              		.cfi_startproc
 2146              		@ args = 0, pretend = 0, frame = 0
 2147              		@ frame_needed = 0, uses_anonymous_args = 0
 2148              		@ link register save eliminated.
 2149              	.LVL190:
 2150              		.loc 1 1576 0
 2151 0000 C369     		ldr	r3, [r0, #28]
 2152              	.LVL191:
 2153              		.loc 1 1579 0
 2154 0002 C3F30E03 		ubfx	r3, r3, #0, #15
 2155              	.LVL192:
 2156              		.loc 1 1582 0
 2157 0006 43EA0121 		orr	r1, r3, r1, lsl #8
 2158              	.LVL193:
 2159              		.loc 1 1585 0
 2160 000a 89B2     		uxth	r1, r1
 2161 000c C161     		str	r1, [r0, #28]
 2162 000e 7047     		bx	lr
 2163              		.cfi_endproc
 2164              	.LFE152:
 2165              		.size	TIM_ClearOC4Ref, .-TIM_ClearOC4Ref
 2166              		.section	.text.TIM_OC1PolarityConfig,"ax",%progbits
ARM GAS  C:\Users\Grillmo\AppData\Local\Temp\ccN7xt8j.s 			page 39


 2167              		.align	1
 2168              		.p2align 4,,15
 2169              		.global	TIM_OC1PolarityConfig
 2170              		.syntax unified
 2171              		.thumb
 2172              		.thumb_func
 2173              		.fpu fpv4-sp-d16
 2174              		.type	TIM_OC1PolarityConfig, %function
 2175              	TIM_OC1PolarityConfig:
 2176              	.LFB153:
 2177              		.loc 1 1598 0
 2178              		.cfi_startproc
 2179              		@ args = 0, pretend = 0, frame = 0
 2180              		@ frame_needed = 0, uses_anonymous_args = 0
 2181              		@ link register save eliminated.
 2182              	.LVL194:
 2183              		.loc 1 1605 0
 2184 0000 026A     		ldr	r2, [r0, #32]
 2185              	.LVL195:
 2186              		.loc 1 1608 0
 2187 0002 4FF6FD73 		movw	r3, #65533
 2188 0006 1340     		ands	r3, r3, r2
 2189              	.LVL196:
 2190              		.loc 1 1612 0
 2191 0008 1943     		orrs	r1, r1, r3
 2192              	.LVL197:
 2193 000a 0162     		str	r1, [r0, #32]
 2194 000c 7047     		bx	lr
 2195              		.cfi_endproc
 2196              	.LFE153:
 2197              		.size	TIM_OC1PolarityConfig, .-TIM_OC1PolarityConfig
 2198 000e 00BF     		.section	.text.TIM_OC1NPolarityConfig,"ax",%progbits
 2199              		.align	1
 2200              		.p2align 4,,15
 2201              		.global	TIM_OC1NPolarityConfig
 2202              		.syntax unified
 2203              		.thumb
 2204              		.thumb_func
 2205              		.fpu fpv4-sp-d16
 2206              		.type	TIM_OC1NPolarityConfig, %function
 2207              	TIM_OC1NPolarityConfig:
 2208              	.LFB154:
 2209              		.loc 1 1625 0
 2210              		.cfi_startproc
 2211              		@ args = 0, pretend = 0, frame = 0
 2212              		@ frame_needed = 0, uses_anonymous_args = 0
 2213              		@ link register save eliminated.
 2214              	.LVL198:
 2215              		.loc 1 1631 0
 2216 0000 026A     		ldr	r2, [r0, #32]
 2217              	.LVL199:
 2218              		.loc 1 1634 0
 2219 0002 4FF6F773 		movw	r3, #65527
 2220 0006 1340     		ands	r3, r3, r2
 2221              	.LVL200:
 2222              		.loc 1 1638 0
 2223 0008 1943     		orrs	r1, r1, r3
ARM GAS  C:\Users\Grillmo\AppData\Local\Temp\ccN7xt8j.s 			page 40


 2224              	.LVL201:
 2225 000a 0162     		str	r1, [r0, #32]
 2226 000c 7047     		bx	lr
 2227              		.cfi_endproc
 2228              	.LFE154:
 2229              		.size	TIM_OC1NPolarityConfig, .-TIM_OC1NPolarityConfig
 2230 000e 00BF     		.section	.text.TIM_OC2PolarityConfig,"ax",%progbits
 2231              		.align	1
 2232              		.p2align 4,,15
 2233              		.global	TIM_OC2PolarityConfig
 2234              		.syntax unified
 2235              		.thumb
 2236              		.thumb_func
 2237              		.fpu fpv4-sp-d16
 2238              		.type	TIM_OC2PolarityConfig, %function
 2239              	TIM_OC2PolarityConfig:
 2240              	.LFB155:
 2241              		.loc 1 1652 0
 2242              		.cfi_startproc
 2243              		@ args = 0, pretend = 0, frame = 0
 2244              		@ frame_needed = 0, uses_anonymous_args = 0
 2245              		@ link register save eliminated.
 2246              	.LVL202:
 2247              		.loc 1 1659 0
 2248 0000 026A     		ldr	r2, [r0, #32]
 2249              	.LVL203:
 2250              		.loc 1 1662 0
 2251 0002 4FF6DF73 		movw	r3, #65503
 2252 0006 1340     		ands	r3, r3, r2
 2253              	.LVL204:
 2254              		.loc 1 1663 0
 2255 0008 43EA0111 		orr	r1, r3, r1, lsl #4
 2256              	.LVL205:
 2257              		.loc 1 1666 0
 2258 000c 89B2     		uxth	r1, r1
 2259 000e 0162     		str	r1, [r0, #32]
 2260 0010 7047     		bx	lr
 2261              		.cfi_endproc
 2262              	.LFE155:
 2263              		.size	TIM_OC2PolarityConfig, .-TIM_OC2PolarityConfig
 2264 0012 00BF     		.section	.text.TIM_OC2NPolarityConfig,"ax",%progbits
 2265              		.align	1
 2266              		.p2align 4,,15
 2267              		.global	TIM_OC2NPolarityConfig
 2268              		.syntax unified
 2269              		.thumb
 2270              		.thumb_func
 2271              		.fpu fpv4-sp-d16
 2272              		.type	TIM_OC2NPolarityConfig, %function
 2273              	TIM_OC2NPolarityConfig:
 2274              	.LFB156:
 2275              		.loc 1 1679 0
 2276              		.cfi_startproc
 2277              		@ args = 0, pretend = 0, frame = 0
 2278              		@ frame_needed = 0, uses_anonymous_args = 0
 2279              		@ link register save eliminated.
 2280              	.LVL206:
ARM GAS  C:\Users\Grillmo\AppData\Local\Temp\ccN7xt8j.s 			page 41


 2281              		.loc 1 1686 0
 2282 0000 026A     		ldr	r2, [r0, #32]
 2283              	.LVL207:
 2284              		.loc 1 1689 0
 2285 0002 4FF67F73 		movw	r3, #65407
 2286 0006 1340     		ands	r3, r3, r2
 2287              	.LVL208:
 2288              		.loc 1 1690 0
 2289 0008 43EA0111 		orr	r1, r3, r1, lsl #4
 2290              	.LVL209:
 2291              		.loc 1 1693 0
 2292 000c 89B2     		uxth	r1, r1
 2293 000e 0162     		str	r1, [r0, #32]
 2294 0010 7047     		bx	lr
 2295              		.cfi_endproc
 2296              	.LFE156:
 2297              		.size	TIM_OC2NPolarityConfig, .-TIM_OC2NPolarityConfig
 2298 0012 00BF     		.section	.text.TIM_OC3PolarityConfig,"ax",%progbits
 2299              		.align	1
 2300              		.p2align 4,,15
 2301              		.global	TIM_OC3PolarityConfig
 2302              		.syntax unified
 2303              		.thumb
 2304              		.thumb_func
 2305              		.fpu fpv4-sp-d16
 2306              		.type	TIM_OC3PolarityConfig, %function
 2307              	TIM_OC3PolarityConfig:
 2308              	.LFB157:
 2309              		.loc 1 1706 0
 2310              		.cfi_startproc
 2311              		@ args = 0, pretend = 0, frame = 0
 2312              		@ frame_needed = 0, uses_anonymous_args = 0
 2313              		@ link register save eliminated.
 2314              	.LVL210:
 2315              		.loc 1 1713 0
 2316 0000 026A     		ldr	r2, [r0, #32]
 2317              	.LVL211:
 2318              		.loc 1 1716 0
 2319 0002 4FF6FF53 		movw	r3, #65023
 2320 0006 1340     		ands	r3, r3, r2
 2321              	.LVL212:
 2322              		.loc 1 1717 0
 2323 0008 43EA0121 		orr	r1, r3, r1, lsl #8
 2324              	.LVL213:
 2325              		.loc 1 1720 0
 2326 000c 89B2     		uxth	r1, r1
 2327 000e 0162     		str	r1, [r0, #32]
 2328 0010 7047     		bx	lr
 2329              		.cfi_endproc
 2330              	.LFE157:
 2331              		.size	TIM_OC3PolarityConfig, .-TIM_OC3PolarityConfig
 2332 0012 00BF     		.section	.text.TIM_OC3NPolarityConfig,"ax",%progbits
 2333              		.align	1
 2334              		.p2align 4,,15
 2335              		.global	TIM_OC3NPolarityConfig
 2336              		.syntax unified
 2337              		.thumb
ARM GAS  C:\Users\Grillmo\AppData\Local\Temp\ccN7xt8j.s 			page 42


 2338              		.thumb_func
 2339              		.fpu fpv4-sp-d16
 2340              		.type	TIM_OC3NPolarityConfig, %function
 2341              	TIM_OC3NPolarityConfig:
 2342              	.LFB158:
 2343              		.loc 1 1733 0
 2344              		.cfi_startproc
 2345              		@ args = 0, pretend = 0, frame = 0
 2346              		@ frame_needed = 0, uses_anonymous_args = 0
 2347              		@ link register save eliminated.
 2348              	.LVL214:
 2349              		.loc 1 1740 0
 2350 0000 026A     		ldr	r2, [r0, #32]
 2351              	.LVL215:
 2352              		.loc 1 1743 0
 2353 0002 4FF2FF73 		movw	r3, #63487
 2354 0006 1340     		ands	r3, r3, r2
 2355              	.LVL216:
 2356              		.loc 1 1744 0
 2357 0008 43EA0121 		orr	r1, r3, r1, lsl #8
 2358              	.LVL217:
 2359              		.loc 1 1747 0
 2360 000c 89B2     		uxth	r1, r1
 2361 000e 0162     		str	r1, [r0, #32]
 2362 0010 7047     		bx	lr
 2363              		.cfi_endproc
 2364              	.LFE158:
 2365              		.size	TIM_OC3NPolarityConfig, .-TIM_OC3NPolarityConfig
 2366 0012 00BF     		.section	.text.TIM_OC4PolarityConfig,"ax",%progbits
 2367              		.align	1
 2368              		.p2align 4,,15
 2369              		.global	TIM_OC4PolarityConfig
 2370              		.syntax unified
 2371              		.thumb
 2372              		.thumb_func
 2373              		.fpu fpv4-sp-d16
 2374              		.type	TIM_OC4PolarityConfig, %function
 2375              	TIM_OC4PolarityConfig:
 2376              	.LFB159:
 2377              		.loc 1 1760 0
 2378              		.cfi_startproc
 2379              		@ args = 0, pretend = 0, frame = 0
 2380              		@ frame_needed = 0, uses_anonymous_args = 0
 2381              		@ link register save eliminated.
 2382              	.LVL218:
 2383              		.loc 1 1767 0
 2384 0000 026A     		ldr	r2, [r0, #32]
 2385              	.LVL219:
 2386              		.loc 1 1770 0
 2387 0002 4DF6FF73 		movw	r3, #57343
 2388 0006 1340     		ands	r3, r3, r2
 2389              	.LVL220:
 2390              		.loc 1 1771 0
 2391 0008 43EA0131 		orr	r1, r3, r1, lsl #12
 2392              	.LVL221:
 2393              		.loc 1 1774 0
 2394 000c 89B2     		uxth	r1, r1
ARM GAS  C:\Users\Grillmo\AppData\Local\Temp\ccN7xt8j.s 			page 43


 2395 000e 0162     		str	r1, [r0, #32]
 2396 0010 7047     		bx	lr
 2397              		.cfi_endproc
 2398              	.LFE159:
 2399              		.size	TIM_OC4PolarityConfig, .-TIM_OC4PolarityConfig
 2400 0012 00BF     		.section	.text.TIM_CCxCmd,"ax",%progbits
 2401              		.align	1
 2402              		.p2align 4,,15
 2403              		.global	TIM_CCxCmd
 2404              		.syntax unified
 2405              		.thumb
 2406              		.thumb_func
 2407              		.fpu fpv4-sp-d16
 2408              		.type	TIM_CCxCmd, %function
 2409              	TIM_CCxCmd:
 2410              	.LFB160:
 2411              		.loc 1 1791 0
 2412              		.cfi_startproc
 2413              		@ args = 0, pretend = 0, frame = 0
 2414              		@ frame_needed = 0, uses_anonymous_args = 0
 2415              		@ link register save eliminated.
 2416              	.LVL222:
 2417              		.loc 1 1799 0
 2418 0000 0123     		movs	r3, #1
 2419 0002 8B40     		lsls	r3, r3, r1
 2420              		.loc 1 1791 0
 2421 0004 10B4     		push	{r4}
 2422              		.cfi_def_cfa_offset 4
 2423              		.cfi_offset 4, -4
 2424              		.loc 1 1802 0
 2425 0006 DB43     		mvns	r3, r3
 2426 0008 046A     		ldr	r4, [r0, #32]
 2427 000a 9BB2     		uxth	r3, r3
 2428 000c 2340     		ands	r3, r3, r4
 2429 000e 0362     		str	r3, [r0, #32]
 2430              		.loc 1 1805 0
 2431 0010 02FA01F1 		lsl	r1, r2, r1
 2432              	.LVL223:
 2433 0014 026A     		ldr	r2, [r0, #32]
 2434              	.LVL224:
 2435              		.loc 1 1806 0
 2436 0016 5DF8044B 		ldr	r4, [sp], #4
 2437              		.cfi_restore 4
 2438              		.cfi_def_cfa_offset 0
 2439              		.loc 1 1805 0
 2440 001a 89B2     		uxth	r1, r1
 2441 001c 1143     		orrs	r1, r1, r2
 2442 001e 0162     		str	r1, [r0, #32]
 2443              		.loc 1 1806 0
 2444 0020 7047     		bx	lr
 2445              		.cfi_endproc
 2446              	.LFE160:
 2447              		.size	TIM_CCxCmd, .-TIM_CCxCmd
 2448 0022 00BF     		.section	.text.TIM_CCxNCmd,"ax",%progbits
 2449              		.align	1
 2450              		.p2align 4,,15
 2451              		.global	TIM_CCxNCmd
ARM GAS  C:\Users\Grillmo\AppData\Local\Temp\ccN7xt8j.s 			page 44


 2452              		.syntax unified
 2453              		.thumb
 2454              		.thumb_func
 2455              		.fpu fpv4-sp-d16
 2456              		.type	TIM_CCxNCmd, %function
 2457              	TIM_CCxNCmd:
 2458              	.LFB161:
 2459              		.loc 1 1821 0
 2460              		.cfi_startproc
 2461              		@ args = 0, pretend = 0, frame = 0
 2462              		@ frame_needed = 0, uses_anonymous_args = 0
 2463              		@ link register save eliminated.
 2464              	.LVL225:
 2465              		.loc 1 1829 0
 2466 0000 0423     		movs	r3, #4
 2467 0002 8B40     		lsls	r3, r3, r1
 2468              		.loc 1 1821 0
 2469 0004 10B4     		push	{r4}
 2470              		.cfi_def_cfa_offset 4
 2471              		.cfi_offset 4, -4
 2472              		.loc 1 1832 0
 2473 0006 DB43     		mvns	r3, r3
 2474 0008 046A     		ldr	r4, [r0, #32]
 2475 000a 9BB2     		uxth	r3, r3
 2476 000c 2340     		ands	r3, r3, r4
 2477 000e 0362     		str	r3, [r0, #32]
 2478              		.loc 1 1835 0
 2479 0010 02FA01F1 		lsl	r1, r2, r1
 2480              	.LVL226:
 2481 0014 026A     		ldr	r2, [r0, #32]
 2482              	.LVL227:
 2483              		.loc 1 1836 0
 2484 0016 5DF8044B 		ldr	r4, [sp], #4
 2485              		.cfi_restore 4
 2486              		.cfi_def_cfa_offset 0
 2487              		.loc 1 1835 0
 2488 001a 89B2     		uxth	r1, r1
 2489 001c 1143     		orrs	r1, r1, r2
 2490 001e 0162     		str	r1, [r0, #32]
 2491              		.loc 1 1836 0
 2492 0020 7047     		bx	lr
 2493              		.cfi_endproc
 2494              	.LFE161:
 2495              		.size	TIM_CCxNCmd, .-TIM_CCxNCmd
 2496 0022 00BF     		.section	.text.TIM_ICInit,"ax",%progbits
 2497              		.align	1
 2498              		.p2align 4,,15
 2499              		.global	TIM_ICInit
 2500              		.syntax unified
 2501              		.thumb
 2502              		.thumb_func
 2503              		.fpu fpv4-sp-d16
 2504              		.type	TIM_ICInit, %function
 2505              	TIM_ICInit:
 2506              	.LFB162:
 2507              		.loc 1 1905 0
 2508              		.cfi_startproc
ARM GAS  C:\Users\Grillmo\AppData\Local\Temp\ccN7xt8j.s 			page 45


 2509              		@ args = 0, pretend = 0, frame = 0
 2510              		@ frame_needed = 0, uses_anonymous_args = 0
 2511              		@ link register save eliminated.
 2512              	.LVL228:
 2513              		.loc 1 1913 0
 2514 0000 0B88     		ldrh	r3, [r1]
 2515              		.loc 1 1905 0
 2516 0002 F0B4     		push	{r4, r5, r6, r7}
 2517              		.cfi_def_cfa_offset 16
 2518              		.cfi_offset 4, -16
 2519              		.cfi_offset 5, -12
 2520              		.cfi_offset 6, -8
 2521              		.cfi_offset 7, -4
 2522              		.loc 1 1913 0
 2523 0004 002B     		cmp	r3, #0
 2524 0006 2CD0     		beq	.L144
 2525              		.loc 1 1922 0
 2526 0008 042B     		cmp	r3, #4
 2527 000a 4ED0     		beq	.L145
 2528              		.loc 1 1932 0
 2529 000c 082B     		cmp	r3, #8
 2530 000e 76D0     		beq	.L146
 2531              	.LBB46:
 2532              	.LBB47:
 2533              		.loc 1 3338 0
 2534 0010 046A     		ldr	r4, [r0, #32]
 2535              	.LBE47:
 2536              	.LBE46:
 2537              		.loc 1 1946 0
 2538 0012 4E88     		ldrh	r6, [r1, #2]
 2539 0014 8F88     		ldrh	r7, [r1, #4]
 2540 0016 0D89     		ldrh	r5, [r1, #8]
 2541              	.LVL229:
 2542              		.loc 1 1950 0
 2543 0018 C988     		ldrh	r1, [r1, #6]
 2544              	.LVL230:
 2545              	.LBB49:
 2546              	.LBB48:
 2547              		.loc 1 3338 0
 2548 001a 4EF6FF73 		movw	r3, #61439
 2549 001e 1C40     		ands	r4, r4, r3
 2550 0020 0462     		str	r4, [r0, #32]
 2551              		.loc 1 3339 0
 2552 0022 C269     		ldr	r2, [r0, #28]
 2553              	.LVL231:
 2554              		.loc 1 3340 0
 2555 0024 036A     		ldr	r3, [r0, #32]
 2556              	.LVL232:
 2557              		.loc 1 3344 0
 2558 0026 40F6FF44 		movw	r4, #3327
 2559 002a 2240     		ands	r2, r2, r4
 2560              	.LVL233:
 2561              		.loc 1 3349 0
 2562 002c 45F6FF74 		movw	r4, #24575
 2563 0030 2340     		ands	r3, r3, r4
 2564              	.LVL234:
 2565              		.loc 1 3345 0
ARM GAS  C:\Users\Grillmo\AppData\Local\Temp\ccN7xt8j.s 			page 46


 2566 0032 42EA0722 		orr	r2, r2, r7, lsl #8
 2567              	.LVL235:
 2568              		.loc 1 3350 0
 2569 0036 43EA0633 		orr	r3, r3, r6, lsl #12
 2570              		.loc 1 3346 0
 2571 003a 42EA0532 		orr	r2, r2, r5, lsl #12
 2572              	.LVL236:
 2573              		.loc 1 3350 0
 2574 003e 9BB2     		uxth	r3, r3
 2575              	.LVL237:
 2576              		.loc 1 3353 0
 2577 0040 92B2     		uxth	r2, r2
 2578              		.loc 1 3354 0
 2579 0042 43F48053 		orr	r3, r3, #4096
 2580              	.LVL238:
 2581              		.loc 1 3353 0
 2582 0046 C261     		str	r2, [r0, #28]
 2583              		.loc 1 3354 0
 2584 0048 0362     		str	r3, [r0, #32]
 2585              	.LVL239:
 2586              	.LBE48:
 2587              	.LBE49:
 2588              	.LBB50:
 2589              	.LBB51:
 2590              		.loc 1 2179 0
 2591 004a C369     		ldr	r3, [r0, #28]
 2592 004c 4FF2FF32 		movw	r2, #62463
 2593 0050 1340     		ands	r3, r3, r2
 2594 0052 C361     		str	r3, [r0, #28]
 2595              		.loc 1 2182 0
 2596 0054 C269     		ldr	r2, [r0, #28]
 2597 0056 0B02     		lsls	r3, r1, #8
 2598 0058 9BB2     		uxth	r3, r3
 2599 005a 1343     		orrs	r3, r3, r2
 2600 005c C361     		str	r3, [r0, #28]
 2601              	.LVL240:
 2602              	.L138:
 2603              	.LBE51:
 2604              	.LBE50:
 2605              		.loc 1 1952 0
 2606 005e F0BC     		pop	{r4, r5, r6, r7}
 2607              		.cfi_remember_state
 2608              		.cfi_restore 7
 2609              		.cfi_restore 6
 2610              		.cfi_restore 5
 2611              		.cfi_restore 4
 2612              		.cfi_def_cfa_offset 0
 2613 0060 7047     		bx	lr
 2614              	.LVL241:
 2615              	.L144:
 2616              		.cfi_restore_state
 2617              	.LBB52:
 2618              	.LBB53:
 2619              		.loc 1 3214 0
 2620 0062 026A     		ldr	r2, [r0, #32]
 2621              	.LBE53:
 2622              	.LBE52:
ARM GAS  C:\Users\Grillmo\AppData\Local\Temp\ccN7xt8j.s 			page 47


 2623              		.loc 1 1916 0
 2624 0064 8C88     		ldrh	r4, [r1, #4]
 2625 0066 0F89     		ldrh	r7, [r1, #8]
 2626              	.LVL242:
 2627 0068 4D88     		ldrh	r5, [r1, #2]
 2628              	.LVL243:
 2629              		.loc 1 1920 0
 2630 006a C988     		ldrh	r1, [r1, #6]
 2631              	.LVL244:
 2632              	.LBB55:
 2633              	.LBB54:
 2634              		.loc 1 3214 0
 2635 006c 4FF6FE73 		movw	r3, #65534
 2636 0070 1A40     		ands	r2, r2, r3
 2637 0072 0262     		str	r2, [r0, #32]
 2638              		.loc 1 3215 0
 2639 0074 8369     		ldr	r3, [r0, #24]
 2640              		.loc 1 3216 0
 2641 0076 066A     		ldr	r6, [r0, #32]
 2642              		.loc 1 3215 0
 2643 0078 9BB2     		uxth	r3, r3
 2644              	.LVL245:
 2645              		.loc 1 3219 0
 2646 007a 23F0F303 		bic	r3, r3, #243
 2647              	.LVL246:
 2648 007e 43EA0713 		orr	r3, r3, r7, lsl #4
 2649              		.loc 1 3223 0
 2650 0082 4FF6F572 		movw	r2, #65525
 2651              		.loc 1 3224 0
 2652 0086 45F00105 		orr	r5, r5, #1
 2653              	.LVL247:
 2654              		.loc 1 3223 0
 2655 008a 3240     		ands	r2, r2, r6
 2656 008c 9BB2     		uxth	r3, r3
 2657              	.LVL248:
 2658              		.loc 1 3227 0
 2659 008e 2343     		orrs	r3, r3, r4
 2660              	.LVL249:
 2661              		.loc 1 3228 0
 2662 0090 2A43     		orrs	r2, r2, r5
 2663              	.LVL250:
 2664              		.loc 1 3227 0
 2665 0092 8361     		str	r3, [r0, #24]
 2666              		.loc 1 3228 0
 2667 0094 0262     		str	r2, [r0, #32]
 2668              	.LVL251:
 2669              	.LBE54:
 2670              	.LBE55:
 2671              	.LBB56:
 2672              	.LBB57:
 2673              		.loc 1 2106 0
 2674 0096 8369     		ldr	r3, [r0, #24]
 2675 0098 4FF6F372 		movw	r2, #65523
 2676 009c 1340     		ands	r3, r3, r2
 2677 009e 8361     		str	r3, [r0, #24]
 2678              		.loc 1 2109 0
 2679 00a0 8369     		ldr	r3, [r0, #24]
ARM GAS  C:\Users\Grillmo\AppData\Local\Temp\ccN7xt8j.s 			page 48


 2680 00a2 0B43     		orrs	r3, r3, r1
 2681 00a4 8361     		str	r3, [r0, #24]
 2682              	.LBE57:
 2683              	.LBE56:
 2684              		.loc 1 1952 0
 2685 00a6 F0BC     		pop	{r4, r5, r6, r7}
 2686              		.cfi_remember_state
 2687              		.cfi_restore 4
 2688              		.cfi_restore 5
 2689              		.cfi_restore 6
 2690              		.cfi_restore 7
 2691              		.cfi_def_cfa_offset 0
 2692 00a8 7047     		bx	lr
 2693              	.LVL252:
 2694              	.L145:
 2695              		.cfi_restore_state
 2696              	.LBB58:
 2697              	.LBB59:
 2698              		.loc 1 3255 0
 2699 00aa 046A     		ldr	r4, [r0, #32]
 2700              	.LBE59:
 2701              	.LBE58:
 2702              		.loc 1 1926 0
 2703 00ac 4E88     		ldrh	r6, [r1, #2]
 2704 00ae 8D88     		ldrh	r5, [r1, #4]
 2705 00b0 0F89     		ldrh	r7, [r1, #8]
 2706              	.LVL253:
 2707              		.loc 1 1930 0
 2708 00b2 C988     		ldrh	r1, [r1, #6]
 2709              	.LVL254:
 2710              	.LBB61:
 2711              	.LBB60:
 2712              		.loc 1 3255 0
 2713 00b4 4FF6EF73 		movw	r3, #65519
 2714 00b8 1C40     		ands	r4, r4, r3
 2715 00ba 0462     		str	r4, [r0, #32]
 2716              		.loc 1 3256 0
 2717 00bc 8269     		ldr	r2, [r0, #24]
 2718              	.LVL255:
 2719              		.loc 1 3257 0
 2720 00be 036A     		ldr	r3, [r0, #32]
 2721              		.loc 1 3261 0
 2722 00c0 40F6FF44 		movw	r4, #3327
 2723 00c4 2240     		ands	r2, r2, r4
 2724              	.LVL256:
 2725              		.loc 1 3257 0
 2726 00c6 9BB2     		uxth	r3, r3
 2727              	.LVL257:
 2728              		.loc 1 3262 0
 2729 00c8 42EA0732 		orr	r2, r2, r7, lsl #12
 2730              	.LVL258:
 2731              		.loc 1 3266 0
 2732 00cc 23F0A003 		bic	r3, r3, #160
 2733              	.LVL259:
 2734              		.loc 1 3267 0
 2735 00d0 43EA0613 		orr	r3, r3, r6, lsl #4
 2736              		.loc 1 3262 0
ARM GAS  C:\Users\Grillmo\AppData\Local\Temp\ccN7xt8j.s 			page 49


 2737 00d4 92B2     		uxth	r2, r2
 2738              	.LVL260:
 2739              		.loc 1 3263 0
 2740 00d6 42EA0522 		orr	r2, r2, r5, lsl #8
 2741              	.LVL261:
 2742              		.loc 1 3267 0
 2743 00da 9BB2     		uxth	r3, r3
 2744              	.LVL262:
 2745              		.loc 1 3270 0
 2746 00dc 92B2     		uxth	r2, r2
 2747              		.loc 1 3271 0
 2748 00de 43F01003 		orr	r3, r3, #16
 2749              	.LVL263:
 2750              		.loc 1 3270 0
 2751 00e2 8261     		str	r2, [r0, #24]
 2752              		.loc 1 3271 0
 2753 00e4 0362     		str	r3, [r0, #32]
 2754              	.LVL264:
 2755              	.LBE60:
 2756              	.LBE61:
 2757              	.LBB62:
 2758              	.LBB63:
 2759              		.loc 1 2131 0
 2760 00e6 8369     		ldr	r3, [r0, #24]
 2761 00e8 4FF2FF32 		movw	r2, #62463
 2762 00ec 1340     		ands	r3, r3, r2
 2763 00ee 8361     		str	r3, [r0, #24]
 2764              		.loc 1 2134 0
 2765 00f0 8269     		ldr	r2, [r0, #24]
 2766 00f2 0B02     		lsls	r3, r1, #8
 2767 00f4 9BB2     		uxth	r3, r3
 2768 00f6 1343     		orrs	r3, r3, r2
 2769 00f8 8361     		str	r3, [r0, #24]
 2770              	.LBE63:
 2771              	.LBE62:
 2772              		.loc 1 1952 0
 2773 00fa F0BC     		pop	{r4, r5, r6, r7}
 2774              		.cfi_remember_state
 2775              		.cfi_restore 4
 2776              		.cfi_restore 5
 2777              		.cfi_restore 6
 2778              		.cfi_restore 7
 2779              		.cfi_def_cfa_offset 0
 2780 00fc 7047     		bx	lr
 2781              	.LVL265:
 2782              	.L146:
 2783              		.cfi_restore_state
 2784              	.LBB64:
 2785              	.LBB65:
 2786              		.loc 1 3297 0
 2787 00fe 056A     		ldr	r5, [r0, #32]
 2788              	.LBE65:
 2789              	.LBE64:
 2790              		.loc 1 1936 0
 2791 0100 4E88     		ldrh	r6, [r1, #2]
 2792 0102 8C88     		ldrh	r4, [r1, #4]
 2793 0104 0F89     		ldrh	r7, [r1, #8]
ARM GAS  C:\Users\Grillmo\AppData\Local\Temp\ccN7xt8j.s 			page 50


 2794              	.LVL266:
 2795              		.loc 1 1940 0
 2796 0106 C988     		ldrh	r1, [r1, #6]
 2797              	.LVL267:
 2798              	.LBB67:
 2799              	.LBB66:
 2800              		.loc 1 3297 0
 2801 0108 4FF6FF63 		movw	r3, #65279
 2802 010c 1D40     		ands	r5, r5, r3
 2803 010e 0562     		str	r5, [r0, #32]
 2804              		.loc 1 3298 0
 2805 0110 C269     		ldr	r2, [r0, #28]
 2806              		.loc 1 3299 0
 2807 0112 036A     		ldr	r3, [r0, #32]
 2808              		.loc 1 3298 0
 2809 0114 92B2     		uxth	r2, r2
 2810              	.LVL268:
 2811              		.loc 1 3299 0
 2812 0116 9BB2     		uxth	r3, r3
 2813              	.LVL269:
 2814              		.loc 1 3303 0
 2815 0118 22F0F302 		bic	r2, r2, #243
 2816              	.LVL270:
 2817              		.loc 1 3307 0
 2818 011c 23F42063 		bic	r3, r3, #2560
 2819              	.LVL271:
 2820 0120 42EA0712 		orr	r2, r2, r7, lsl #4
 2821              		.loc 1 3308 0
 2822 0124 43EA0623 		orr	r3, r3, r6, lsl #8
 2823 0128 92B2     		uxth	r2, r2
 2824              	.LVL272:
 2825 012a 9BB2     		uxth	r3, r3
 2826              	.LVL273:
 2827              		.loc 1 3311 0
 2828 012c 2243     		orrs	r2, r2, r4
 2829              	.LVL274:
 2830              		.loc 1 3312 0
 2831 012e 43F48073 		orr	r3, r3, #256
 2832              	.LVL275:
 2833              		.loc 1 3311 0
 2834 0132 C261     		str	r2, [r0, #28]
 2835              		.loc 1 3312 0
 2836 0134 0362     		str	r3, [r0, #32]
 2837              	.LVL276:
 2838              	.LBE66:
 2839              	.LBE67:
 2840              	.LBB68:
 2841              	.LBB69:
 2842              		.loc 1 2155 0
 2843 0136 C369     		ldr	r3, [r0, #28]
 2844 0138 4FF6F372 		movw	r2, #65523
 2845 013c 1340     		ands	r3, r3, r2
 2846 013e C361     		str	r3, [r0, #28]
 2847              		.loc 1 2158 0
 2848 0140 C369     		ldr	r3, [r0, #28]
 2849 0142 0B43     		orrs	r3, r3, r1
 2850 0144 C361     		str	r3, [r0, #28]
ARM GAS  C:\Users\Grillmo\AppData\Local\Temp\ccN7xt8j.s 			page 51


 2851 0146 8AE7     		b	.L138
 2852              	.LBE69:
 2853              	.LBE68:
 2854              		.cfi_endproc
 2855              	.LFE162:
 2856              		.size	TIM_ICInit, .-TIM_ICInit
 2857              		.section	.text.TIM_ICStructInit,"ax",%progbits
 2858              		.align	1
 2859              		.p2align 4,,15
 2860              		.global	TIM_ICStructInit
 2861              		.syntax unified
 2862              		.thumb
 2863              		.thumb_func
 2864              		.fpu fpv4-sp-d16
 2865              		.type	TIM_ICStructInit, %function
 2866              	TIM_ICStructInit:
 2867              	.LFB163:
 2868              		.loc 1 1961 0
 2869              		.cfi_startproc
 2870              		@ args = 0, pretend = 0, frame = 0
 2871              		@ frame_needed = 0, uses_anonymous_args = 0
 2872              		@ link register save eliminated.
 2873              	.LVL277:
 2874              		.loc 1 1963 0
 2875 0000 0023     		movs	r3, #0
 2876              		.loc 1 1965 0
 2877 0002 0122     		movs	r2, #1
 2878 0004 8280     		strh	r2, [r0, #4]	@ movhi
 2879              		.loc 1 1963 0
 2880 0006 0380     		strh	r3, [r0]	@ movhi
 2881              		.loc 1 1964 0
 2882 0008 4380     		strh	r3, [r0, #2]	@ movhi
 2883              		.loc 1 1966 0
 2884 000a C380     		strh	r3, [r0, #6]	@ movhi
 2885              		.loc 1 1967 0
 2886 000c 0381     		strh	r3, [r0, #8]	@ movhi
 2887 000e 7047     		bx	lr
 2888              		.cfi_endproc
 2889              	.LFE163:
 2890              		.size	TIM_ICStructInit, .-TIM_ICStructInit
 2891              		.section	.text.TIM_PWMIConfig,"ax",%progbits
 2892              		.align	1
 2893              		.p2align 4,,15
 2894              		.global	TIM_PWMIConfig
 2895              		.syntax unified
 2896              		.thumb
 2897              		.thumb_func
 2898              		.fpu fpv4-sp-d16
 2899              		.type	TIM_PWMIConfig, %function
 2900              	TIM_PWMIConfig:
 2901              	.LFB164:
 2902              		.loc 1 1980 0
 2903              		.cfi_startproc
 2904              		@ args = 0, pretend = 0, frame = 0
 2905              		@ frame_needed = 0, uses_anonymous_args = 0
 2906              	.LVL278:
 2907 0000 F0B5     		push	{r4, r5, r6, r7, lr}
ARM GAS  C:\Users\Grillmo\AppData\Local\Temp\ccN7xt8j.s 			page 52


 2908              		.cfi_def_cfa_offset 20
 2909              		.cfi_offset 4, -20
 2910              		.cfi_offset 5, -16
 2911              		.cfi_offset 6, -12
 2912              		.cfi_offset 7, -8
 2913              		.cfi_offset 14, -4
 2914              		.loc 1 1988 0
 2915 0002 B1F802E0 		ldrh	lr, [r1, #2]
 2916              		.loc 1 1997 0
 2917 0006 8F88     		ldrh	r7, [r1, #4]
 2918              		.loc 1 2005 0
 2919 0008 0B88     		ldrh	r3, [r1]
 2920              		.loc 1 1988 0
 2921 000a BEF1000F 		cmp	lr, #0
 2922              		.loc 1 1994 0
 2923 000e 0CBF     		ite	eq
 2924 0010 0224     		moveq	r4, #2
 2925 0012 0024     		movne	r4, #0
 2926              	.LVL279:
 2927              		.loc 1 1997 0
 2928 0014 012F     		cmp	r7, #1
 2929              		.loc 1 2003 0
 2930 0016 0CBF     		ite	eq
 2931 0018 0225     		moveq	r5, #2
 2932 001a 0125     		movne	r5, #1
 2933              	.LVL280:
 2934              		.loc 1 2005 0
 2935 001c 002B     		cmp	r3, #0
 2936 001e 45D0     		beq	.L156
 2937              	.LBB70:
 2938              	.LBB71:
 2939              		.loc 1 3255 0
 2940 0020 036A     		ldr	r3, [r0, #32]
 2941              	.LBE71:
 2942              	.LBE70:
 2943              		.loc 1 2020 0
 2944 0022 0E89     		ldrh	r6, [r1, #8]
 2945              	.LVL281:
 2946              		.loc 1 2023 0
 2947 0024 C988     		ldrh	r1, [r1, #6]
 2948              	.LVL282:
 2949              	.LBB73:
 2950              	.LBB72:
 2951              		.loc 1 3255 0
 2952 0026 4FF6EF72 		movw	r2, #65519
 2953 002a 1340     		ands	r3, r3, r2
 2954 002c 0362     		str	r3, [r0, #32]
 2955              		.loc 1 3256 0
 2956 002e 8269     		ldr	r2, [r0, #24]
 2957              	.LVL283:
 2958              		.loc 1 3257 0
 2959 0030 036A     		ldr	r3, [r0, #32]
 2960              		.loc 1 3261 0
 2961 0032 40F6FF4C 		movw	ip, #3327
 2962 0036 02EA0C02 		and	r2, r2, ip
 2963              	.LVL284:
 2964              		.loc 1 3257 0
ARM GAS  C:\Users\Grillmo\AppData\Local\Temp\ccN7xt8j.s 			page 53


 2965 003a 9BB2     		uxth	r3, r3
 2966              	.LVL285:
 2967              		.loc 1 3262 0
 2968 003c 42EA0632 		orr	r2, r2, r6, lsl #12
 2969              	.LVL286:
 2970              		.loc 1 3266 0
 2971 0040 23F0A003 		bic	r3, r3, #160
 2972              	.LVL287:
 2973              		.loc 1 3262 0
 2974 0044 92B2     		uxth	r2, r2
 2975              	.LVL288:
 2976              		.loc 1 3267 0
 2977 0046 43EA0E13 		orr	r3, r3, lr, lsl #4
 2978              		.loc 1 3263 0
 2979 004a 42EA0722 		orr	r2, r2, r7, lsl #8
 2980              	.LVL289:
 2981              		.loc 1 3267 0
 2982 004e 9BB2     		uxth	r3, r3
 2983              	.LVL290:
 2984              		.loc 1 3270 0
 2985 0050 92B2     		uxth	r2, r2
 2986              		.loc 1 3271 0
 2987 0052 43F01003 		orr	r3, r3, #16
 2988              	.LVL291:
 2989              		.loc 1 3270 0
 2990 0056 8261     		str	r2, [r0, #24]
 2991              		.loc 1 3271 0
 2992 0058 0362     		str	r3, [r0, #32]
 2993              	.LVL292:
 2994              	.LBE72:
 2995              	.LBE73:
 2996              	.LBB74:
 2997              	.LBB75:
 2998              		.loc 1 2131 0
 2999 005a 8369     		ldr	r3, [r0, #24]
 3000 005c 4FF2FF32 		movw	r2, #62463
 3001 0060 1340     		ands	r3, r3, r2
 3002 0062 8361     		str	r3, [r0, #24]
 3003              		.loc 1 2134 0
 3004 0064 8269     		ldr	r2, [r0, #24]
 3005 0066 0B02     		lsls	r3, r1, #8
 3006 0068 9BB2     		uxth	r3, r3
 3007 006a 1343     		orrs	r3, r3, r2
 3008 006c 8361     		str	r3, [r0, #24]
 3009              	.LVL293:
 3010              	.LBE75:
 3011              	.LBE74:
 3012              	.LBB76:
 3013              	.LBB77:
 3014              		.loc 1 3214 0
 3015 006e 036A     		ldr	r3, [r0, #32]
 3016 0070 4FF6FE72 		movw	r2, #65534
 3017 0074 1340     		ands	r3, r3, r2
 3018 0076 0362     		str	r3, [r0, #32]
 3019              		.loc 1 3215 0
 3020 0078 8369     		ldr	r3, [r0, #24]
 3021              		.loc 1 3216 0
ARM GAS  C:\Users\Grillmo\AppData\Local\Temp\ccN7xt8j.s 			page 54


 3022 007a 026A     		ldr	r2, [r0, #32]
 3023              		.loc 1 3215 0
 3024 007c 9BB2     		uxth	r3, r3
 3025              	.LVL294:
 3026              		.loc 1 3219 0
 3027 007e 23F0F303 		bic	r3, r3, #243
 3028              	.LVL295:
 3029              		.loc 1 3216 0
 3030 0082 92B2     		uxth	r2, r2
 3031              	.LVL296:
 3032 0084 43EA0616 		orr	r6, r3, r6, lsl #4
 3033              	.LVL297:
 3034              		.loc 1 3223 0
 3035 0088 22F00A03 		bic	r3, r2, #10
 3036 008c 43F00103 		orr	r3, r3, #1
 3037 0090 B6B2     		uxth	r6, r6
 3038              	.LVL298:
 3039              		.loc 1 3228 0
 3040 0092 1C43     		orrs	r4, r4, r3
 3041              	.LVL299:
 3042              		.loc 1 3227 0
 3043 0094 2E43     		orrs	r6, r6, r5
 3044              	.LVL300:
 3045 0096 8661     		str	r6, [r0, #24]
 3046              		.loc 1 3228 0
 3047 0098 0462     		str	r4, [r0, #32]
 3048              	.LVL301:
 3049              	.LBE77:
 3050              	.LBE76:
 3051              	.LBB78:
 3052              	.LBB79:
 3053              		.loc 1 2106 0
 3054 009a 8369     		ldr	r3, [r0, #24]
 3055 009c 4FF6F372 		movw	r2, #65523
 3056 00a0 1340     		ands	r3, r3, r2
 3057 00a2 8361     		str	r3, [r0, #24]
 3058              		.loc 1 2109 0
 3059 00a4 8369     		ldr	r3, [r0, #24]
 3060 00a6 1943     		orrs	r1, r1, r3
 3061              	.LVL302:
 3062 00a8 8161     		str	r1, [r0, #24]
 3063 00aa F0BD     		pop	{r4, r5, r6, r7, pc}
 3064              	.LVL303:
 3065              	.L156:
 3066              	.LBE79:
 3067              	.LBE78:
 3068              	.LBB80:
 3069              	.LBB81:
 3070              		.loc 1 3214 0
 3071 00ac 036A     		ldr	r3, [r0, #32]
 3072              	.LBE81:
 3073              	.LBE80:
 3074              		.loc 1 2008 0
 3075 00ae 0E89     		ldrh	r6, [r1, #8]
 3076              	.LVL304:
 3077              		.loc 1 2011 0
 3078 00b0 C988     		ldrh	r1, [r1, #6]
ARM GAS  C:\Users\Grillmo\AppData\Local\Temp\ccN7xt8j.s 			page 55


 3079              	.LVL305:
 3080              	.LBB83:
 3081              	.LBB82:
 3082              		.loc 1 3214 0
 3083 00b2 4FF6FE72 		movw	r2, #65534
 3084 00b6 1340     		ands	r3, r3, r2
 3085 00b8 0362     		str	r3, [r0, #32]
 3086              		.loc 1 3215 0
 3087 00ba 8269     		ldr	r2, [r0, #24]
 3088              		.loc 1 3216 0
 3089 00bc 036A     		ldr	r3, [r0, #32]
 3090              		.loc 1 3215 0
 3091 00be 92B2     		uxth	r2, r2
 3092              	.LVL306:
 3093              		.loc 1 3219 0
 3094 00c0 22F0F302 		bic	r2, r2, #243
 3095              	.LVL307:
 3096 00c4 42EA0612 		orr	r2, r2, r6, lsl #4
 3097 00c8 92B2     		uxth	r2, r2
 3098              	.LVL308:
 3099              		.loc 1 3227 0
 3100 00ca 3A43     		orrs	r2, r2, r7
 3101              	.LVL309:
 3102              		.loc 1 3223 0
 3103 00cc 4FF6F577 		movw	r7, #65525
 3104              	.LVL310:
 3105 00d0 1F40     		ands	r7, r7, r3
 3106              	.LVL311:
 3107              		.loc 1 3224 0
 3108 00d2 4EF0010E 		orr	lr, lr, #1
 3109              	.LVL312:
 3110              		.loc 1 3228 0
 3111 00d6 47EA0E07 		orr	r7, r7, lr
 3112              	.LVL313:
 3113              		.loc 1 3227 0
 3114 00da 8261     		str	r2, [r0, #24]
 3115              		.loc 1 3228 0
 3116 00dc 0762     		str	r7, [r0, #32]
 3117              	.LVL314:
 3118              	.LBE82:
 3119              	.LBE83:
 3120              	.LBB84:
 3121              	.LBB85:
 3122              		.loc 1 2106 0
 3123 00de 8369     		ldr	r3, [r0, #24]
 3124 00e0 4FF6F372 		movw	r2, #65523
 3125 00e4 1340     		ands	r3, r3, r2
 3126 00e6 8361     		str	r3, [r0, #24]
 3127              		.loc 1 2109 0
 3128 00e8 8369     		ldr	r3, [r0, #24]
 3129 00ea 0B43     		orrs	r3, r3, r1
 3130 00ec 8361     		str	r3, [r0, #24]
 3131              	.LVL315:
 3132              	.LBE85:
 3133              	.LBE84:
 3134              	.LBB86:
 3135              	.LBB87:
ARM GAS  C:\Users\Grillmo\AppData\Local\Temp\ccN7xt8j.s 			page 56


 3136              		.loc 1 3255 0
 3137 00ee 036A     		ldr	r3, [r0, #32]
 3138 00f0 4FF6EF72 		movw	r2, #65519
 3139 00f4 1340     		ands	r3, r3, r2
 3140 00f6 0362     		str	r3, [r0, #32]
 3141              		.loc 1 3256 0
 3142 00f8 8269     		ldr	r2, [r0, #24]
 3143              	.LVL316:
 3144              		.loc 1 3257 0
 3145 00fa 036A     		ldr	r3, [r0, #32]
 3146              		.loc 1 3261 0
 3147 00fc 40F6FF47 		movw	r7, #3327
 3148 0100 3A40     		ands	r2, r2, r7
 3149              	.LVL317:
 3150              		.loc 1 3257 0
 3151 0102 9BB2     		uxth	r3, r3
 3152              	.LVL318:
 3153              		.loc 1 3262 0
 3154 0104 42EA0636 		orr	r6, r2, r6, lsl #12
 3155              	.LVL319:
 3156              		.loc 1 3266 0
 3157 0108 23F0A003 		bic	r3, r3, #160
 3158              	.LVL320:
 3159 010c 43F01003 		orr	r3, r3, #16
 3160              		.loc 1 3262 0
 3161 0110 B6B2     		uxth	r6, r6
 3162              	.LVL321:
 3163              		.loc 1 3271 0
 3164 0112 43EA0414 		orr	r4, r3, r4, lsl #4
 3165              	.LVL322:
 3166              		.loc 1 3270 0
 3167 0116 46EA0525 		orr	r5, r6, r5, lsl #8
 3168              	.LVL323:
 3169 011a 8561     		str	r5, [r0, #24]
 3170              		.loc 1 3271 0
 3171 011c 0462     		str	r4, [r0, #32]
 3172              	.LVL324:
 3173              	.LBE87:
 3174              	.LBE86:
 3175              	.LBB88:
 3176              	.LBB89:
 3177              		.loc 1 2131 0
 3178 011e 8369     		ldr	r3, [r0, #24]
 3179 0120 4FF2FF32 		movw	r2, #62463
 3180 0124 1340     		ands	r3, r3, r2
 3181 0126 8361     		str	r3, [r0, #24]
 3182              		.loc 1 2134 0
 3183 0128 8369     		ldr	r3, [r0, #24]
 3184 012a 0902     		lsls	r1, r1, #8
 3185              	.LVL325:
 3186 012c 89B2     		uxth	r1, r1
 3187 012e 1943     		orrs	r1, r1, r3
 3188 0130 8161     		str	r1, [r0, #24]
 3189 0132 F0BD     		pop	{r4, r5, r6, r7, pc}
 3190              	.LBE89:
 3191              	.LBE88:
 3192              		.cfi_endproc
ARM GAS  C:\Users\Grillmo\AppData\Local\Temp\ccN7xt8j.s 			page 57


 3193              	.LFE164:
 3194              		.size	TIM_PWMIConfig, .-TIM_PWMIConfig
 3195              		.section	.text.TIM_GetCapture1,"ax",%progbits
 3196              		.align	1
 3197              		.p2align 4,,15
 3198              		.global	TIM_GetCapture1
 3199              		.syntax unified
 3200              		.thumb
 3201              		.thumb_func
 3202              		.fpu fpv4-sp-d16
 3203              		.type	TIM_GetCapture1, %function
 3204              	TIM_GetCapture1:
 3205              	.LFB165:
 3206              		.loc 1 2037 0
 3207              		.cfi_startproc
 3208              		@ args = 0, pretend = 0, frame = 0
 3209              		@ frame_needed = 0, uses_anonymous_args = 0
 3210              		@ link register save eliminated.
 3211              	.LVL326:
 3212              		.loc 1 2042 0
 3213 0000 406B     		ldr	r0, [r0, #52]
 3214              	.LVL327:
 3215              		.loc 1 2043 0
 3216 0002 7047     		bx	lr
 3217              		.cfi_endproc
 3218              	.LFE165:
 3219              		.size	TIM_GetCapture1, .-TIM_GetCapture1
 3220              		.section	.text.TIM_GetCapture2,"ax",%progbits
 3221              		.align	1
 3222              		.p2align 4,,15
 3223              		.global	TIM_GetCapture2
 3224              		.syntax unified
 3225              		.thumb
 3226              		.thumb_func
 3227              		.fpu fpv4-sp-d16
 3228              		.type	TIM_GetCapture2, %function
 3229              	TIM_GetCapture2:
 3230              	.LFB166:
 3231              		.loc 1 2052 0
 3232              		.cfi_startproc
 3233              		@ args = 0, pretend = 0, frame = 0
 3234              		@ frame_needed = 0, uses_anonymous_args = 0
 3235              		@ link register save eliminated.
 3236              	.LVL328:
 3237              		.loc 1 2057 0
 3238 0000 806B     		ldr	r0, [r0, #56]
 3239              	.LVL329:
 3240              		.loc 1 2058 0
 3241 0002 7047     		bx	lr
 3242              		.cfi_endproc
 3243              	.LFE166:
 3244              		.size	TIM_GetCapture2, .-TIM_GetCapture2
 3245              		.section	.text.TIM_GetCapture3,"ax",%progbits
 3246              		.align	1
 3247              		.p2align 4,,15
 3248              		.global	TIM_GetCapture3
 3249              		.syntax unified
ARM GAS  C:\Users\Grillmo\AppData\Local\Temp\ccN7xt8j.s 			page 58


 3250              		.thumb
 3251              		.thumb_func
 3252              		.fpu fpv4-sp-d16
 3253              		.type	TIM_GetCapture3, %function
 3254              	TIM_GetCapture3:
 3255              	.LFB167:
 3256              		.loc 1 2066 0
 3257              		.cfi_startproc
 3258              		@ args = 0, pretend = 0, frame = 0
 3259              		@ frame_needed = 0, uses_anonymous_args = 0
 3260              		@ link register save eliminated.
 3261              	.LVL330:
 3262              		.loc 1 2071 0
 3263 0000 C06B     		ldr	r0, [r0, #60]
 3264              	.LVL331:
 3265              		.loc 1 2072 0
 3266 0002 7047     		bx	lr
 3267              		.cfi_endproc
 3268              	.LFE167:
 3269              		.size	TIM_GetCapture3, .-TIM_GetCapture3
 3270              		.section	.text.TIM_GetCapture4,"ax",%progbits
 3271              		.align	1
 3272              		.p2align 4,,15
 3273              		.global	TIM_GetCapture4
 3274              		.syntax unified
 3275              		.thumb
 3276              		.thumb_func
 3277              		.fpu fpv4-sp-d16
 3278              		.type	TIM_GetCapture4, %function
 3279              	TIM_GetCapture4:
 3280              	.LFB168:
 3281              		.loc 1 2080 0
 3282              		.cfi_startproc
 3283              		@ args = 0, pretend = 0, frame = 0
 3284              		@ frame_needed = 0, uses_anonymous_args = 0
 3285              		@ link register save eliminated.
 3286              	.LVL332:
 3287              		.loc 1 2085 0
 3288 0000 006C     		ldr	r0, [r0, #64]
 3289              	.LVL333:
 3290              		.loc 1 2086 0
 3291 0002 7047     		bx	lr
 3292              		.cfi_endproc
 3293              	.LFE168:
 3294              		.size	TIM_GetCapture4, .-TIM_GetCapture4
 3295              		.section	.text.TIM_SetIC1Prescaler,"ax",%progbits
 3296              		.align	1
 3297              		.p2align 4,,15
 3298              		.global	TIM_SetIC1Prescaler
 3299              		.syntax unified
 3300              		.thumb
 3301              		.thumb_func
 3302              		.fpu fpv4-sp-d16
 3303              		.type	TIM_SetIC1Prescaler, %function
 3304              	TIM_SetIC1Prescaler:
 3305              	.LFB169:
 3306              		.loc 1 2100 0
ARM GAS  C:\Users\Grillmo\AppData\Local\Temp\ccN7xt8j.s 			page 59


 3307              		.cfi_startproc
 3308              		@ args = 0, pretend = 0, frame = 0
 3309              		@ frame_needed = 0, uses_anonymous_args = 0
 3310              		@ link register save eliminated.
 3311              	.LVL334:
 3312              		.loc 1 2106 0
 3313 0000 8369     		ldr	r3, [r0, #24]
 3314 0002 4FF6F372 		movw	r2, #65523
 3315 0006 1340     		ands	r3, r3, r2
 3316 0008 8361     		str	r3, [r0, #24]
 3317              		.loc 1 2109 0
 3318 000a 8369     		ldr	r3, [r0, #24]
 3319 000c 1943     		orrs	r1, r1, r3
 3320              	.LVL335:
 3321 000e 8161     		str	r1, [r0, #24]
 3322 0010 7047     		bx	lr
 3323              		.cfi_endproc
 3324              	.LFE169:
 3325              		.size	TIM_SetIC1Prescaler, .-TIM_SetIC1Prescaler
 3326 0012 00BF     		.section	.text.TIM_SetIC2Prescaler,"ax",%progbits
 3327              		.align	1
 3328              		.p2align 4,,15
 3329              		.global	TIM_SetIC2Prescaler
 3330              		.syntax unified
 3331              		.thumb
 3332              		.thumb_func
 3333              		.fpu fpv4-sp-d16
 3334              		.type	TIM_SetIC2Prescaler, %function
 3335              	TIM_SetIC2Prescaler:
 3336              	.LFB170:
 3337              		.loc 1 2125 0
 3338              		.cfi_startproc
 3339              		@ args = 0, pretend = 0, frame = 0
 3340              		@ frame_needed = 0, uses_anonymous_args = 0
 3341              		@ link register save eliminated.
 3342              	.LVL336:
 3343              		.loc 1 2131 0
 3344 0000 8369     		ldr	r3, [r0, #24]
 3345 0002 4FF2FF32 		movw	r2, #62463
 3346 0006 1340     		ands	r3, r3, r2
 3347 0008 8361     		str	r3, [r0, #24]
 3348              		.loc 1 2134 0
 3349 000a 8369     		ldr	r3, [r0, #24]
 3350 000c 0902     		lsls	r1, r1, #8
 3351              	.LVL337:
 3352 000e 89B2     		uxth	r1, r1
 3353 0010 1943     		orrs	r1, r1, r3
 3354 0012 8161     		str	r1, [r0, #24]
 3355 0014 7047     		bx	lr
 3356              		.cfi_endproc
 3357              	.LFE170:
 3358              		.size	TIM_SetIC2Prescaler, .-TIM_SetIC2Prescaler
 3359 0016 00BF     		.section	.text.TIM_SetIC3Prescaler,"ax",%progbits
 3360              		.align	1
 3361              		.p2align 4,,15
 3362              		.global	TIM_SetIC3Prescaler
 3363              		.syntax unified
ARM GAS  C:\Users\Grillmo\AppData\Local\Temp\ccN7xt8j.s 			page 60


 3364              		.thumb
 3365              		.thumb_func
 3366              		.fpu fpv4-sp-d16
 3367              		.type	TIM_SetIC3Prescaler, %function
 3368              	TIM_SetIC3Prescaler:
 3369              	.LFB171:
 3370              		.loc 1 2149 0
 3371              		.cfi_startproc
 3372              		@ args = 0, pretend = 0, frame = 0
 3373              		@ frame_needed = 0, uses_anonymous_args = 0
 3374              		@ link register save eliminated.
 3375              	.LVL338:
 3376              		.loc 1 2155 0
 3377 0000 C369     		ldr	r3, [r0, #28]
 3378 0002 4FF6F372 		movw	r2, #65523
 3379 0006 1340     		ands	r3, r3, r2
 3380 0008 C361     		str	r3, [r0, #28]
 3381              		.loc 1 2158 0
 3382 000a C369     		ldr	r3, [r0, #28]
 3383 000c 1943     		orrs	r1, r1, r3
 3384              	.LVL339:
 3385 000e C161     		str	r1, [r0, #28]
 3386 0010 7047     		bx	lr
 3387              		.cfi_endproc
 3388              	.LFE171:
 3389              		.size	TIM_SetIC3Prescaler, .-TIM_SetIC3Prescaler
 3390 0012 00BF     		.section	.text.TIM_SetIC4Prescaler,"ax",%progbits
 3391              		.align	1
 3392              		.p2align 4,,15
 3393              		.global	TIM_SetIC4Prescaler
 3394              		.syntax unified
 3395              		.thumb
 3396              		.thumb_func
 3397              		.fpu fpv4-sp-d16
 3398              		.type	TIM_SetIC4Prescaler, %function
 3399              	TIM_SetIC4Prescaler:
 3400              	.LFB172:
 3401              		.loc 1 2173 0
 3402              		.cfi_startproc
 3403              		@ args = 0, pretend = 0, frame = 0
 3404              		@ frame_needed = 0, uses_anonymous_args = 0
 3405              		@ link register save eliminated.
 3406              	.LVL340:
 3407              		.loc 1 2179 0
 3408 0000 C369     		ldr	r3, [r0, #28]
 3409 0002 4FF2FF32 		movw	r2, #62463
 3410 0006 1340     		ands	r3, r3, r2
 3411 0008 C361     		str	r3, [r0, #28]
 3412              		.loc 1 2182 0
 3413 000a C369     		ldr	r3, [r0, #28]
 3414 000c 0902     		lsls	r1, r1, #8
 3415              	.LVL341:
 3416 000e 89B2     		uxth	r1, r1
 3417 0010 1943     		orrs	r1, r1, r3
 3418 0012 C161     		str	r1, [r0, #28]
 3419 0014 7047     		bx	lr
 3420              		.cfi_endproc
ARM GAS  C:\Users\Grillmo\AppData\Local\Temp\ccN7xt8j.s 			page 61


 3421              	.LFE172:
 3422              		.size	TIM_SetIC4Prescaler, .-TIM_SetIC4Prescaler
 3423 0016 00BF     		.section	.text.TIM_BDTRConfig,"ax",%progbits
 3424              		.align	1
 3425              		.p2align 4,,15
 3426              		.global	TIM_BDTRConfig
 3427              		.syntax unified
 3428              		.thumb
 3429              		.thumb_func
 3430              		.fpu fpv4-sp-d16
 3431              		.type	TIM_BDTRConfig, %function
 3432              	TIM_BDTRConfig:
 3433              	.LFB173:
 3434              		.loc 1 2226 0
 3435              		.cfi_startproc
 3436              		@ args = 0, pretend = 0, frame = 0
 3437              		@ frame_needed = 0, uses_anonymous_args = 0
 3438              		@ link register save eliminated.
 3439              	.LVL342:
 3440 0000 F0B4     		push	{r4, r5, r6, r7}
 3441              		.cfi_def_cfa_offset 16
 3442              		.cfi_offset 4, -16
 3443              		.cfi_offset 5, -12
 3444              		.cfi_offset 6, -8
 3445              		.cfi_offset 7, -4
 3446              		.loc 1 2240 0
 3447 0002 0A88     		ldrh	r2, [r1]
 3448 0004 4F88     		ldrh	r7, [r1, #2]
 3449 0006 8B88     		ldrh	r3, [r1, #4]
 3450 0008 CE88     		ldrh	r6, [r1, #6]
 3451 000a 0D89     		ldrh	r5, [r1, #8]
 3452 000c 4C89     		ldrh	r4, [r1, #10]
 3453 000e 8989     		ldrh	r1, [r1, #12]
 3454              	.LVL343:
 3455 0010 3A43     		orrs	r2, r2, r7
 3456 0012 1343     		orrs	r3, r3, r2
 3457 0014 3343     		orrs	r3, r3, r6
 3458 0016 2B43     		orrs	r3, r3, r5
 3459 0018 2343     		orrs	r3, r3, r4
 3460 001a 0B43     		orrs	r3, r3, r1
 3461 001c 9BB2     		uxth	r3, r3
 3462              		.loc 1 2238 0
 3463 001e 4364     		str	r3, [r0, #68]
 3464              		.loc 1 2242 0
 3465 0020 F0BC     		pop	{r4, r5, r6, r7}
 3466              		.cfi_restore 7
 3467              		.cfi_restore 6
 3468              		.cfi_restore 5
 3469              		.cfi_restore 4
 3470              		.cfi_def_cfa_offset 0
 3471 0022 7047     		bx	lr
 3472              		.cfi_endproc
 3473              	.LFE173:
 3474              		.size	TIM_BDTRConfig, .-TIM_BDTRConfig
 3475              		.section	.text.TIM_BDTRStructInit,"ax",%progbits
 3476              		.align	1
 3477              		.p2align 4,,15
ARM GAS  C:\Users\Grillmo\AppData\Local\Temp\ccN7xt8j.s 			page 62


 3478              		.global	TIM_BDTRStructInit
 3479              		.syntax unified
 3480              		.thumb
 3481              		.thumb_func
 3482              		.fpu fpv4-sp-d16
 3483              		.type	TIM_BDTRStructInit, %function
 3484              	TIM_BDTRStructInit:
 3485              	.LFB174:
 3486              		.loc 1 2251 0
 3487              		.cfi_startproc
 3488              		@ args = 0, pretend = 0, frame = 0
 3489              		@ frame_needed = 0, uses_anonymous_args = 0
 3490              		@ link register save eliminated.
 3491              	.LVL344:
 3492              		.loc 1 2253 0
 3493 0000 0023     		movs	r3, #0
 3494 0002 0380     		strh	r3, [r0]	@ movhi
 3495              		.loc 1 2254 0
 3496 0004 4380     		strh	r3, [r0, #2]	@ movhi
 3497              		.loc 1 2255 0
 3498 0006 8380     		strh	r3, [r0, #4]	@ movhi
 3499              		.loc 1 2256 0
 3500 0008 C380     		strh	r3, [r0, #6]	@ movhi
 3501              		.loc 1 2257 0
 3502 000a 0381     		strh	r3, [r0, #8]	@ movhi
 3503              		.loc 1 2258 0
 3504 000c 4381     		strh	r3, [r0, #10]	@ movhi
 3505              		.loc 1 2259 0
 3506 000e 8381     		strh	r3, [r0, #12]	@ movhi
 3507 0010 7047     		bx	lr
 3508              		.cfi_endproc
 3509              	.LFE174:
 3510              		.size	TIM_BDTRStructInit, .-TIM_BDTRStructInit
 3511 0012 00BF     		.section	.text.TIM_CtrlPWMOutputs,"ax",%progbits
 3512              		.align	1
 3513              		.p2align 4,,15
 3514              		.global	TIM_CtrlPWMOutputs
 3515              		.syntax unified
 3516              		.thumb
 3517              		.thumb_func
 3518              		.fpu fpv4-sp-d16
 3519              		.type	TIM_CtrlPWMOutputs, %function
 3520              	TIM_CtrlPWMOutputs:
 3521              	.LFB175:
 3522              		.loc 1 2270 0
 3523              		.cfi_startproc
 3524              		@ args = 0, pretend = 0, frame = 0
 3525              		@ frame_needed = 0, uses_anonymous_args = 0
 3526              		@ link register save eliminated.
 3527              	.LVL345:
 3528              		.loc 1 2278 0
 3529 0000 436C     		ldr	r3, [r0, #68]
 3530              		.loc 1 2275 0
 3531 0002 19B9     		cbnz	r1, .L171
 3532              		.loc 1 2283 0
 3533 0004 C3F30E03 		ubfx	r3, r3, #0, #15
 3534 0008 4364     		str	r3, [r0, #68]
ARM GAS  C:\Users\Grillmo\AppData\Local\Temp\ccN7xt8j.s 			page 63


 3535 000a 7047     		bx	lr
 3536              	.L171:
 3537              		.loc 1 2278 0
 3538 000c 43F40043 		orr	r3, r3, #32768
 3539 0010 4364     		str	r3, [r0, #68]
 3540 0012 7047     		bx	lr
 3541              		.cfi_endproc
 3542              	.LFE175:
 3543              		.size	TIM_CtrlPWMOutputs, .-TIM_CtrlPWMOutputs
 3544              		.section	.text.TIM_SelectCOM,"ax",%progbits
 3545              		.align	1
 3546              		.p2align 4,,15
 3547              		.global	TIM_SelectCOM
 3548              		.syntax unified
 3549              		.thumb
 3550              		.thumb_func
 3551              		.fpu fpv4-sp-d16
 3552              		.type	TIM_SelectCOM, %function
 3553              	TIM_SelectCOM:
 3554              	.LFB176:
 3555              		.loc 1 2295 0
 3556              		.cfi_startproc
 3557              		@ args = 0, pretend = 0, frame = 0
 3558              		@ frame_needed = 0, uses_anonymous_args = 0
 3559              		@ link register save eliminated.
 3560              	.LVL346:
 3561              		.loc 1 2303 0
 3562 0000 4368     		ldr	r3, [r0, #4]
 3563              		.loc 1 2300 0
 3564 0002 21B9     		cbnz	r1, .L175
 3565              		.loc 1 2308 0
 3566 0004 4FF6FB72 		movw	r2, #65531
 3567 0008 1340     		ands	r3, r3, r2
 3568 000a 4360     		str	r3, [r0, #4]
 3569 000c 7047     		bx	lr
 3570              	.L175:
 3571              		.loc 1 2303 0
 3572 000e 43F00403 		orr	r3, r3, #4
 3573 0012 4360     		str	r3, [r0, #4]
 3574 0014 7047     		bx	lr
 3575              		.cfi_endproc
 3576              	.LFE176:
 3577              		.size	TIM_SelectCOM, .-TIM_SelectCOM
 3578 0016 00BF     		.section	.text.TIM_CCPreloadControl,"ax",%progbits
 3579              		.align	1
 3580              		.p2align 4,,15
 3581              		.global	TIM_CCPreloadControl
 3582              		.syntax unified
 3583              		.thumb
 3584              		.thumb_func
 3585              		.fpu fpv4-sp-d16
 3586              		.type	TIM_CCPreloadControl, %function
 3587              	TIM_CCPreloadControl:
 3588              	.LFB177:
 3589              		.loc 1 2320 0
 3590              		.cfi_startproc
 3591              		@ args = 0, pretend = 0, frame = 0
ARM GAS  C:\Users\Grillmo\AppData\Local\Temp\ccN7xt8j.s 			page 64


 3592              		@ frame_needed = 0, uses_anonymous_args = 0
 3593              		@ link register save eliminated.
 3594              	.LVL347:
 3595              		.loc 1 2327 0
 3596 0000 4368     		ldr	r3, [r0, #4]
 3597              		.loc 1 2324 0
 3598 0002 21B9     		cbnz	r1, .L179
 3599              		.loc 1 2332 0
 3600 0004 4FF6FE72 		movw	r2, #65534
 3601 0008 1340     		ands	r3, r3, r2
 3602 000a 4360     		str	r3, [r0, #4]
 3603 000c 7047     		bx	lr
 3604              	.L179:
 3605              		.loc 1 2327 0
 3606 000e 43F00103 		orr	r3, r3, #1
 3607 0012 4360     		str	r3, [r0, #4]
 3608 0014 7047     		bx	lr
 3609              		.cfi_endproc
 3610              	.LFE177:
 3611              		.size	TIM_CCPreloadControl, .-TIM_CCPreloadControl
 3612 0016 00BF     		.section	.text.TIM_GenerateEvent,"ax",%progbits
 3613              		.align	1
 3614              		.p2align 4,,15
 3615              		.global	TIM_GenerateEvent
 3616              		.syntax unified
 3617              		.thumb
 3618              		.thumb_func
 3619              		.fpu fpv4-sp-d16
 3620              		.type	TIM_GenerateEvent, %function
 3621              	TIM_GenerateEvent:
 3622              	.LFB179:
 3623              		.loc 1 2415 0
 3624              		.cfi_startproc
 3625              		@ args = 0, pretend = 0, frame = 0
 3626              		@ frame_needed = 0, uses_anonymous_args = 0
 3627              		@ link register save eliminated.
 3628              	.LVL348:
 3629              		.loc 1 2421 0
 3630 0000 4161     		str	r1, [r0, #20]
 3631 0002 7047     		bx	lr
 3632              		.cfi_endproc
 3633              	.LFE179:
 3634              		.size	TIM_GenerateEvent, .-TIM_GenerateEvent
 3635              		.section	.text.TIM_GetFlagStatus,"ax",%progbits
 3636              		.align	1
 3637              		.p2align 4,,15
 3638              		.global	TIM_GetFlagStatus
 3639              		.syntax unified
 3640              		.thumb
 3641              		.thumb_func
 3642              		.fpu fpv4-sp-d16
 3643              		.type	TIM_GetFlagStatus, %function
 3644              	TIM_GetFlagStatus:
 3645              	.LFB180:
 3646              		.loc 1 2448 0
 3647              		.cfi_startproc
 3648              		@ args = 0, pretend = 0, frame = 0
ARM GAS  C:\Users\Grillmo\AppData\Local\Temp\ccN7xt8j.s 			page 65


 3649              		@ frame_needed = 0, uses_anonymous_args = 0
 3650              		@ link register save eliminated.
 3651              	.LVL349:
 3652              		.loc 1 2455 0
 3653 0000 0369     		ldr	r3, [r0, #16]
 3654              	.LVL350:
 3655 0002 1942     		tst	r1, r3
 3656              		.loc 1 2464 0
 3657 0004 14BF     		ite	ne
 3658 0006 0120     		movne	r0, #1
 3659              	.LVL351:
 3660 0008 0020     		moveq	r0, #0
 3661 000a 7047     		bx	lr
 3662              		.cfi_endproc
 3663              	.LFE180:
 3664              		.size	TIM_GetFlagStatus, .-TIM_GetFlagStatus
 3665              		.section	.text.TIM_ClearFlag,"ax",%progbits
 3666              		.align	1
 3667              		.p2align 4,,15
 3668              		.global	TIM_ClearFlag
 3669              		.syntax unified
 3670              		.thumb
 3671              		.thumb_func
 3672              		.fpu fpv4-sp-d16
 3673              		.type	TIM_ClearFlag, %function
 3674              	TIM_ClearFlag:
 3675              	.LFB205:
 3676              		.cfi_startproc
 3677              		@ args = 0, pretend = 0, frame = 0
 3678              		@ frame_needed = 0, uses_anonymous_args = 0
 3679              		@ link register save eliminated.
 3680 0000 C943     		mvns	r1, r1
 3681 0002 89B2     		uxth	r1, r1
 3682 0004 0161     		str	r1, [r0, #16]
 3683 0006 7047     		bx	lr
 3684              		.cfi_endproc
 3685              	.LFE205:
 3686              		.size	TIM_ClearFlag, .-TIM_ClearFlag
 3687              		.section	.text.TIM_GetITStatus,"ax",%progbits
 3688              		.align	1
 3689              		.p2align 4,,15
 3690              		.global	TIM_GetITStatus
 3691              		.syntax unified
 3692              		.thumb
 3693              		.thumb_func
 3694              		.fpu fpv4-sp-d16
 3695              		.type	TIM_GetITStatus, %function
 3696              	TIM_GetITStatus:
 3697              	.LFB182:
 3698              		.loc 1 2518 0
 3699              		.cfi_startproc
 3700              		@ args = 0, pretend = 0, frame = 0
 3701              		@ frame_needed = 0, uses_anonymous_args = 0
 3702              		@ link register save eliminated.
 3703              	.LVL352:
 3704              		.loc 1 2525 0
 3705 0000 0369     		ldr	r3, [r0, #16]
ARM GAS  C:\Users\Grillmo\AppData\Local\Temp\ccN7xt8j.s 			page 66


 3706              	.LVL353:
 3707              		.loc 1 2527 0
 3708 0002 C268     		ldr	r2, [r0, #12]
 3709              	.LVL354:
 3710              		.loc 1 2528 0
 3711 0004 11EA0300 		ands	r0, r1, r3
 3712              	.LVL355:
 3713 0008 03D0     		beq	.L184
 3714              		.loc 1 2528 0 is_stmt 0 discriminator 1
 3715 000a 1142     		tst	r1, r2
 3716 000c 14BF     		ite	ne
 3717 000e 0120     		movne	r0, #1
 3718 0010 0020     		moveq	r0, #0
 3719              	.L184:
 3720              	.LVL356:
 3721              		.loc 1 2537 0 is_stmt 1
 3722 0012 7047     		bx	lr
 3723              		.cfi_endproc
 3724              	.LFE182:
 3725              		.size	TIM_GetITStatus, .-TIM_GetITStatus
 3726              		.section	.text.TIM_ClearITPendingBit,"ax",%progbits
 3727              		.align	1
 3728              		.p2align 4,,15
 3729              		.global	TIM_ClearITPendingBit
 3730              		.syntax unified
 3731              		.thumb
 3732              		.thumb_func
 3733              		.fpu fpv4-sp-d16
 3734              		.type	TIM_ClearITPendingBit, %function
 3735              	TIM_ClearITPendingBit:
 3736              	.LFB183:
 3737              		.loc 1 2559 0
 3738              		.cfi_startproc
 3739              		@ args = 0, pretend = 0, frame = 0
 3740              		@ frame_needed = 0, uses_anonymous_args = 0
 3741              		@ link register save eliminated.
 3742              	.LVL357:
 3743              		.loc 1 2564 0
 3744 0000 C943     		mvns	r1, r1
 3745              	.LVL358:
 3746 0002 89B2     		uxth	r1, r1
 3747 0004 0161     		str	r1, [r0, #16]
 3748 0006 7047     		bx	lr
 3749              		.cfi_endproc
 3750              	.LFE183:
 3751              		.size	TIM_ClearITPendingBit, .-TIM_ClearITPendingBit
 3752              		.section	.text.TIM_DMAConfig,"ax",%progbits
 3753              		.align	1
 3754              		.p2align 4,,15
 3755              		.global	TIM_DMAConfig
 3756              		.syntax unified
 3757              		.thumb
 3758              		.thumb_func
 3759              		.fpu fpv4-sp-d16
 3760              		.type	TIM_DMAConfig, %function
 3761              	TIM_DMAConfig:
 3762              	.LFB184:
ARM GAS  C:\Users\Grillmo\AppData\Local\Temp\ccN7xt8j.s 			page 67


 3763              		.loc 1 2596 0
 3764              		.cfi_startproc
 3765              		@ args = 0, pretend = 0, frame = 0
 3766              		@ frame_needed = 0, uses_anonymous_args = 0
 3767              		@ link register save eliminated.
 3768              	.LVL359:
 3769              		.loc 1 2603 0
 3770 0000 0A43     		orrs	r2, r2, r1
 3771              	.LVL360:
 3772 0002 8264     		str	r2, [r0, #72]
 3773 0004 7047     		bx	lr
 3774              		.cfi_endproc
 3775              	.LFE184:
 3776              		.size	TIM_DMAConfig, .-TIM_DMAConfig
 3777 0006 00BF     		.section	.text.TIM_DMACmd,"ax",%progbits
 3778              		.align	1
 3779              		.p2align 4,,15
 3780              		.global	TIM_DMACmd
 3781              		.syntax unified
 3782              		.thumb
 3783              		.thumb_func
 3784              		.fpu fpv4-sp-d16
 3785              		.type	TIM_DMACmd, %function
 3786              	TIM_DMACmd:
 3787              	.LFB185:
 3788              		.loc 1 2623 0
 3789              		.cfi_startproc
 3790              		@ args = 0, pretend = 0, frame = 0
 3791              		@ frame_needed = 0, uses_anonymous_args = 0
 3792              		@ link register save eliminated.
 3793              	.LVL361:
 3794              		.loc 1 2629 0
 3795 0000 2AB9     		cbnz	r2, .L191
 3796              		.loc 1 2637 0
 3797 0002 C368     		ldr	r3, [r0, #12]
 3798 0004 C943     		mvns	r1, r1
 3799              	.LVL362:
 3800 0006 89B2     		uxth	r1, r1
 3801 0008 1940     		ands	r1, r1, r3
 3802 000a C160     		str	r1, [r0, #12]
 3803 000c 7047     		bx	lr
 3804              	.LVL363:
 3805              	.L191:
 3806              		.loc 1 2632 0
 3807 000e C368     		ldr	r3, [r0, #12]
 3808 0010 1943     		orrs	r1, r1, r3
 3809              	.LVL364:
 3810 0012 C160     		str	r1, [r0, #12]
 3811 0014 7047     		bx	lr
 3812              		.cfi_endproc
 3813              	.LFE185:
 3814              		.size	TIM_DMACmd, .-TIM_DMACmd
 3815 0016 00BF     		.section	.text.TIM_ITConfig,"ax",%progbits
 3816              		.align	1
 3817              		.p2align 4,,15
 3818              		.global	TIM_ITConfig
 3819              		.syntax unified
ARM GAS  C:\Users\Grillmo\AppData\Local\Temp\ccN7xt8j.s 			page 68


 3820              		.thumb
 3821              		.thumb_func
 3822              		.fpu fpv4-sp-d16
 3823              		.type	TIM_ITConfig, %function
 3824              	TIM_ITConfig:
 3825              	.LFB207:
 3826              		.cfi_startproc
 3827              		@ args = 0, pretend = 0, frame = 0
 3828              		@ frame_needed = 0, uses_anonymous_args = 0
 3829              		@ link register save eliminated.
 3830 0000 FFF7FEBF 		b	TIM_DMACmd
 3831              		.cfi_endproc
 3832              	.LFE207:
 3833              		.size	TIM_ITConfig, .-TIM_ITConfig
 3834              		.section	.text.TIM_SelectCCDMA,"ax",%progbits
 3835              		.align	1
 3836              		.p2align 4,,15
 3837              		.global	TIM_SelectCCDMA
 3838              		.syntax unified
 3839              		.thumb
 3840              		.thumb_func
 3841              		.fpu fpv4-sp-d16
 3842              		.type	TIM_SelectCCDMA, %function
 3843              	TIM_SelectCCDMA:
 3844              	.LFB186:
 3845              		.loc 1 2649 0
 3846              		.cfi_startproc
 3847              		@ args = 0, pretend = 0, frame = 0
 3848              		@ frame_needed = 0, uses_anonymous_args = 0
 3849              		@ link register save eliminated.
 3850              	.LVL365:
 3851              		.loc 1 2657 0
 3852 0000 4368     		ldr	r3, [r0, #4]
 3853              		.loc 1 2654 0
 3854 0002 21B9     		cbnz	r1, .L196
 3855              		.loc 1 2662 0
 3856 0004 4FF6F772 		movw	r2, #65527
 3857 0008 1340     		ands	r3, r3, r2
 3858 000a 4360     		str	r3, [r0, #4]
 3859 000c 7047     		bx	lr
 3860              	.L196:
 3861              		.loc 1 2657 0
 3862 000e 43F00803 		orr	r3, r3, #8
 3863 0012 4360     		str	r3, [r0, #4]
 3864 0014 7047     		bx	lr
 3865              		.cfi_endproc
 3866              	.LFE186:
 3867              		.size	TIM_SelectCCDMA, .-TIM_SelectCCDMA
 3868 0016 00BF     		.section	.text.TIM_InternalClockConfig,"ax",%progbits
 3869              		.align	1
 3870              		.p2align 4,,15
 3871              		.global	TIM_InternalClockConfig
 3872              		.syntax unified
 3873              		.thumb
 3874              		.thumb_func
 3875              		.fpu fpv4-sp-d16
 3876              		.type	TIM_InternalClockConfig, %function
ARM GAS  C:\Users\Grillmo\AppData\Local\Temp\ccN7xt8j.s 			page 69


 3877              	TIM_InternalClockConfig:
 3878              	.LFB187:
 3879              		.loc 1 2688 0
 3880              		.cfi_startproc
 3881              		@ args = 0, pretend = 0, frame = 0
 3882              		@ frame_needed = 0, uses_anonymous_args = 0
 3883              		@ link register save eliminated.
 3884              	.LVL366:
 3885              		.loc 1 2693 0
 3886 0000 8368     		ldr	r3, [r0, #8]
 3887 0002 4FF6F872 		movw	r2, #65528
 3888 0006 1340     		ands	r3, r3, r2
 3889 0008 8360     		str	r3, [r0, #8]
 3890 000a 7047     		bx	lr
 3891              		.cfi_endproc
 3892              	.LFE187:
 3893              		.size	TIM_InternalClockConfig, .-TIM_InternalClockConfig
 3894              		.section	.text.TIM_ITRxExternalClockConfig,"ax",%progbits
 3895              		.align	1
 3896              		.p2align 4,,15
 3897              		.global	TIM_ITRxExternalClockConfig
 3898              		.syntax unified
 3899              		.thumb
 3900              		.thumb_func
 3901              		.fpu fpv4-sp-d16
 3902              		.type	TIM_ITRxExternalClockConfig, %function
 3903              	TIM_ITRxExternalClockConfig:
 3904              	.LFB188:
 3905              		.loc 1 2709 0
 3906              		.cfi_startproc
 3907              		@ args = 0, pretend = 0, frame = 0
 3908              		@ frame_needed = 0, uses_anonymous_args = 0
 3909              		@ link register save eliminated.
 3910              	.LVL367:
 3911              	.LBB90:
 3912              	.LBB91:
 3913              		.loc 1 2905 0
 3914 0000 8268     		ldr	r2, [r0, #8]
 3915              	.LVL368:
 3916              		.loc 1 2908 0
 3917 0002 4FF68F73 		movw	r3, #65423
 3918 0006 1340     		ands	r3, r3, r2
 3919              	.LVL369:
 3920              		.loc 1 2914 0
 3921 0008 1943     		orrs	r1, r1, r3
 3922              	.LVL370:
 3923 000a 8160     		str	r1, [r0, #8]
 3924              	.LVL371:
 3925              	.LBE91:
 3926              	.LBE90:
 3927              		.loc 1 2718 0
 3928 000c 8368     		ldr	r3, [r0, #8]
 3929 000e 43F00703 		orr	r3, r3, #7
 3930 0012 8360     		str	r3, [r0, #8]
 3931 0014 7047     		bx	lr
 3932              		.cfi_endproc
 3933              	.LFE188:
ARM GAS  C:\Users\Grillmo\AppData\Local\Temp\ccN7xt8j.s 			page 70


 3934              		.size	TIM_ITRxExternalClockConfig, .-TIM_ITRxExternalClockConfig
 3935 0016 00BF     		.section	.text.TIM_TIxExternalClockConfig,"ax",%progbits
 3936              		.align	1
 3937              		.p2align 4,,15
 3938              		.global	TIM_TIxExternalClockConfig
 3939              		.syntax unified
 3940              		.thumb
 3941              		.thumb_func
 3942              		.fpu fpv4-sp-d16
 3943              		.type	TIM_TIxExternalClockConfig, %function
 3944              	TIM_TIxExternalClockConfig:
 3945              	.LFB189:
 3946              		.loc 1 2740 0
 3947              		.cfi_startproc
 3948              		@ args = 0, pretend = 0, frame = 0
 3949              		@ frame_needed = 0, uses_anonymous_args = 0
 3950              		@ link register save eliminated.
 3951              	.LVL372:
 3952              		.loc 1 2747 0
 3953 0000 6029     		cmp	r1, #96
 3954              		.loc 1 2740 0
 3955 0002 F0B4     		push	{r4, r5, r6, r7}
 3956              		.cfi_def_cfa_offset 16
 3957              		.cfi_offset 4, -16
 3958              		.cfi_offset 5, -12
 3959              		.cfi_offset 6, -8
 3960              		.cfi_offset 7, -4
 3961              		.loc 1 2747 0
 3962 0004 22D0     		beq	.L203
 3963              	.LVL373:
 3964              	.LBB92:
 3965              	.LBB93:
 3966              		.loc 1 3214 0
 3967 0006 056A     		ldr	r5, [r0, #32]
 3968 0008 4FF6FE74 		movw	r4, #65534
 3969 000c 2540     		ands	r5, r5, r4
 3970 000e 0562     		str	r5, [r0, #32]
 3971              		.loc 1 3215 0
 3972 0010 8569     		ldr	r5, [r0, #24]
 3973              	.LVL374:
 3974              		.loc 1 3216 0
 3975 0012 066A     		ldr	r6, [r0, #32]
 3976              	.LVL375:
 3977              		.loc 1 3219 0
 3978 0014 4FF60C74 		movw	r4, #65292
 3979 0018 2C40     		ands	r4, r4, r5
 3980              	.LVL376:
 3981              		.loc 1 3220 0
 3982 001a 44EA0314 		orr	r4, r4, r3, lsl #4
 3983              	.LVL377:
 3984              		.loc 1 3223 0
 3985 001e 4FF6F575 		movw	r5, #65525
 3986              	.LVL378:
 3987              		.loc 1 3224 0
 3988 0022 42F00102 		orr	r2, r2, #1
 3989              	.LVL379:
 3990              		.loc 1 3223 0
ARM GAS  C:\Users\Grillmo\AppData\Local\Temp\ccN7xt8j.s 			page 71


 3991 0026 3540     		ands	r5, r5, r6
 3992              	.LVL380:
 3993              		.loc 1 3220 0
 3994 0028 44F00104 		orr	r4, r4, #1
 3995              		.loc 1 3228 0
 3996 002c 1543     		orrs	r5, r5, r2
 3997              		.loc 1 3227 0
 3998 002e A4B2     		uxth	r4, r4
 3999 0030 8461     		str	r4, [r0, #24]
 4000              		.loc 1 3228 0
 4001 0032 0562     		str	r5, [r0, #32]
 4002              	.LVL381:
 4003              	.L201:
 4004              	.LBE93:
 4005              	.LBE92:
 4006              	.LBB94:
 4007              	.LBB95:
 4008              		.loc 1 2905 0
 4009 0034 8268     		ldr	r2, [r0, #8]
 4010              	.LVL382:
 4011              		.loc 1 2908 0
 4012 0036 4FF68F73 		movw	r3, #65423
 4013 003a 1340     		ands	r3, r3, r2
 4014              	.LVL383:
 4015              		.loc 1 2914 0
 4016 003c 1943     		orrs	r1, r1, r3
 4017              	.LVL384:
 4018 003e 8160     		str	r1, [r0, #8]
 4019              	.LVL385:
 4020              	.LBE95:
 4021              	.LBE94:
 4022              		.loc 1 2758 0
 4023 0040 8368     		ldr	r3, [r0, #8]
 4024 0042 43F00703 		orr	r3, r3, #7
 4025 0046 8360     		str	r3, [r0, #8]
 4026              		.loc 1 2759 0
 4027 0048 F0BC     		pop	{r4, r5, r6, r7}
 4028              		.cfi_remember_state
 4029              		.cfi_restore 7
 4030              		.cfi_restore 6
 4031              		.cfi_restore 5
 4032              		.cfi_restore 4
 4033              		.cfi_def_cfa_offset 0
 4034 004a 7047     		bx	lr
 4035              	.LVL386:
 4036              	.L203:
 4037              		.cfi_restore_state
 4038              	.LBB96:
 4039              	.LBB97:
 4040              		.loc 1 3255 0
 4041 004c 046A     		ldr	r4, [r0, #32]
 4042 004e 4FF6EF75 		movw	r5, #65519
 4043 0052 2C40     		ands	r4, r4, r5
 4044 0054 0462     		str	r4, [r0, #32]
 4045              		.loc 1 3256 0
 4046 0056 8469     		ldr	r4, [r0, #24]
 4047              	.LVL387:
ARM GAS  C:\Users\Grillmo\AppData\Local\Temp\ccN7xt8j.s 			page 72


 4048              		.loc 1 3257 0
 4049 0058 066A     		ldr	r6, [r0, #32]
 4050              	.LVL388:
 4051              		.loc 1 3261 0
 4052 005a 40F6FF47 		movw	r7, #3327
 4053              		.loc 1 3266 0
 4054 005e 4FF65F75 		movw	r5, #65375
 4055              		.loc 1 3261 0
 4056 0062 3C40     		ands	r4, r4, r7
 4057              	.LVL389:
 4058              		.loc 1 3266 0
 4059 0064 3540     		ands	r5, r5, r6
 4060              	.LVL390:
 4061              		.loc 1 3263 0
 4062 0066 44EA0333 		orr	r3, r4, r3, lsl #12
 4063              	.LVL391:
 4064              		.loc 1 3267 0
 4065 006a 45EA0212 		orr	r2, r5, r2, lsl #4
 4066              	.LVL392:
 4067              		.loc 1 3263 0
 4068 006e 43F48073 		orr	r3, r3, #256
 4069              		.loc 1 3267 0
 4070 0072 42F01002 		orr	r2, r2, #16
 4071              		.loc 1 3270 0
 4072 0076 9BB2     		uxth	r3, r3
 4073              		.loc 1 3271 0
 4074 0078 92B2     		uxth	r2, r2
 4075              		.loc 1 3270 0
 4076 007a 8361     		str	r3, [r0, #24]
 4077              		.loc 1 3271 0
 4078 007c 0262     		str	r2, [r0, #32]
 4079 007e D9E7     		b	.L201
 4080              	.LBE97:
 4081              	.LBE96:
 4082              		.cfi_endproc
 4083              	.LFE189:
 4084              		.size	TIM_TIxExternalClockConfig, .-TIM_TIxExternalClockConfig
 4085              		.section	.text.TIM_ETRClockMode1Config,"ax",%progbits
 4086              		.align	1
 4087              		.p2align 4,,15
 4088              		.global	TIM_ETRClockMode1Config
 4089              		.syntax unified
 4090              		.thumb
 4091              		.thumb_func
 4092              		.fpu fpv4-sp-d16
 4093              		.type	TIM_ETRClockMode1Config, %function
 4094              	TIM_ETRClockMode1Config:
 4095              	.LFB190:
 4096              		.loc 1 2780 0
 4097              		.cfi_startproc
 4098              		@ args = 0, pretend = 0, frame = 0
 4099              		@ frame_needed = 0, uses_anonymous_args = 0
 4100              		@ link register save eliminated.
 4101              	.LVL393:
 4102 0000 10B4     		push	{r4}
 4103              		.cfi_def_cfa_offset 4
 4104              		.cfi_offset 4, -4
ARM GAS  C:\Users\Grillmo\AppData\Local\Temp\ccN7xt8j.s 			page 73


 4105              	.LBB98:
 4106              	.LBB99:
 4107              		.loc 1 3027 0
 4108 0002 8468     		ldr	r4, [r0, #8]
 4109              	.LVL394:
 4110              		.loc 1 3033 0
 4111 0004 42EA0323 		orr	r3, r2, r3, lsl #8
 4112              	.LVL395:
 4113 0008 1943     		orrs	r1, r1, r3
 4114              	.LVL396:
 4115              		.loc 1 3030 0
 4116 000a E4B2     		uxtb	r4, r4
 4117              	.LVL397:
 4118              		.loc 1 3033 0
 4119 000c 2143     		orrs	r1, r1, r4
 4120              		.loc 1 3036 0
 4121 000e 89B2     		uxth	r1, r1
 4122 0010 8160     		str	r1, [r0, #8]
 4123              	.LVL398:
 4124              	.LBE99:
 4125              	.LBE98:
 4126              		.loc 1 2792 0
 4127 0012 8368     		ldr	r3, [r0, #8]
 4128              	.LVL399:
 4129              		.loc 1 2806 0
 4130 0014 5DF8044B 		ldr	r4, [sp], #4
 4131              		.cfi_restore 4
 4132              		.cfi_def_cfa_offset 0
 4133 0018 23F07703 		bic	r3, r3, #119
 4134              	.LVL400:
 4135 001c 9BB2     		uxth	r3, r3
 4136              	.LVL401:
 4137              		.loc 1 2805 0
 4138 001e 43F07703 		orr	r3, r3, #119
 4139              	.LVL402:
 4140 0022 8360     		str	r3, [r0, #8]
 4141              		.loc 1 2806 0
 4142 0024 7047     		bx	lr
 4143              		.cfi_endproc
 4144              	.LFE190:
 4145              		.size	TIM_ETRClockMode1Config, .-TIM_ETRClockMode1Config
 4146 0026 00BF     		.section	.text.TIM_ETRClockMode2Config,"ax",%progbits
 4147              		.align	1
 4148              		.p2align 4,,15
 4149              		.global	TIM_ETRClockMode2Config
 4150              		.syntax unified
 4151              		.thumb
 4152              		.thumb_func
 4153              		.fpu fpv4-sp-d16
 4154              		.type	TIM_ETRClockMode2Config, %function
 4155              	TIM_ETRClockMode2Config:
 4156              	.LFB191:
 4157              		.loc 1 2827 0
 4158              		.cfi_startproc
 4159              		@ args = 0, pretend = 0, frame = 0
 4160              		@ frame_needed = 0, uses_anonymous_args = 0
 4161              		@ link register save eliminated.
ARM GAS  C:\Users\Grillmo\AppData\Local\Temp\ccN7xt8j.s 			page 74


 4162              	.LVL403:
 4163 0000 10B4     		push	{r4}
 4164              		.cfi_def_cfa_offset 4
 4165              		.cfi_offset 4, -4
 4166              	.LBB100:
 4167              	.LBB101:
 4168              		.loc 1 3027 0
 4169 0002 8468     		ldr	r4, [r0, #8]
 4170              	.LVL404:
 4171              		.loc 1 3033 0
 4172 0004 42EA0323 		orr	r3, r2, r3, lsl #8
 4173              	.LVL405:
 4174 0008 1943     		orrs	r1, r1, r3
 4175              	.LVL406:
 4176              		.loc 1 3030 0
 4177 000a E4B2     		uxtb	r4, r4
 4178              	.LVL407:
 4179              		.loc 1 3033 0
 4180 000c 2143     		orrs	r1, r1, r4
 4181              		.loc 1 3036 0
 4182 000e 89B2     		uxth	r1, r1
 4183 0010 8160     		str	r1, [r0, #8]
 4184              	.LVL408:
 4185              	.LBE101:
 4186              	.LBE100:
 4187              		.loc 1 2838 0
 4188 0012 8368     		ldr	r3, [r0, #8]
 4189              		.loc 1 2839 0
 4190 0014 5DF8044B 		ldr	r4, [sp], #4
 4191              		.cfi_restore 4
 4192              		.cfi_def_cfa_offset 0
 4193              		.loc 1 2838 0
 4194 0018 43F48043 		orr	r3, r3, #16384
 4195 001c 8360     		str	r3, [r0, #8]
 4196              		.loc 1 2839 0
 4197 001e 7047     		bx	lr
 4198              		.cfi_endproc
 4199              	.LFE191:
 4200              		.size	TIM_ETRClockMode2Config, .-TIM_ETRClockMode2Config
 4201              		.section	.text.TIM_SelectInputTrigger,"ax",%progbits
 4202              		.align	1
 4203              		.p2align 4,,15
 4204              		.global	TIM_SelectInputTrigger
 4205              		.syntax unified
 4206              		.thumb
 4207              		.thumb_func
 4208              		.fpu fpv4-sp-d16
 4209              		.type	TIM_SelectInputTrigger, %function
 4210              	TIM_SelectInputTrigger:
 4211              	.LFB192:
 4212              		.loc 1 2897 0
 4213              		.cfi_startproc
 4214              		@ args = 0, pretend = 0, frame = 0
 4215              		@ frame_needed = 0, uses_anonymous_args = 0
 4216              		@ link register save eliminated.
 4217              	.LVL409:
 4218              		.loc 1 2905 0
ARM GAS  C:\Users\Grillmo\AppData\Local\Temp\ccN7xt8j.s 			page 75


 4219 0000 8268     		ldr	r2, [r0, #8]
 4220              	.LVL410:
 4221              		.loc 1 2908 0
 4222 0002 4FF68F73 		movw	r3, #65423
 4223 0006 1340     		ands	r3, r3, r2
 4224              	.LVL411:
 4225              		.loc 1 2914 0
 4226 0008 1943     		orrs	r1, r1, r3
 4227              	.LVL412:
 4228 000a 8160     		str	r1, [r0, #8]
 4229 000c 7047     		bx	lr
 4230              		.cfi_endproc
 4231              	.LFE192:
 4232              		.size	TIM_SelectInputTrigger, .-TIM_SelectInputTrigger
 4233 000e 00BF     		.section	.text.TIM_SelectOutputTrigger,"ax",%progbits
 4234              		.align	1
 4235              		.p2align 4,,15
 4236              		.global	TIM_SelectOutputTrigger
 4237              		.syntax unified
 4238              		.thumb
 4239              		.thumb_func
 4240              		.fpu fpv4-sp-d16
 4241              		.type	TIM_SelectOutputTrigger, %function
 4242              	TIM_SelectOutputTrigger:
 4243              	.LFB193:
 4244              		.loc 1 2940 0
 4245              		.cfi_startproc
 4246              		@ args = 0, pretend = 0, frame = 0
 4247              		@ frame_needed = 0, uses_anonymous_args = 0
 4248              		@ link register save eliminated.
 4249              	.LVL413:
 4250              		.loc 1 2946 0
 4251 0000 4368     		ldr	r3, [r0, #4]
 4252 0002 4FF68F72 		movw	r2, #65423
 4253 0006 1340     		ands	r3, r3, r2
 4254 0008 4360     		str	r3, [r0, #4]
 4255              		.loc 1 2948 0
 4256 000a 4368     		ldr	r3, [r0, #4]
 4257 000c 1943     		orrs	r1, r1, r3
 4258              	.LVL414:
 4259 000e 4160     		str	r1, [r0, #4]
 4260 0010 7047     		bx	lr
 4261              		.cfi_endproc
 4262              	.LFE193:
 4263              		.size	TIM_SelectOutputTrigger, .-TIM_SelectOutputTrigger
 4264 0012 00BF     		.section	.text.TIM_SelectSlaveMode,"ax",%progbits
 4265              		.align	1
 4266              		.p2align 4,,15
 4267              		.global	TIM_SelectSlaveMode
 4268              		.syntax unified
 4269              		.thumb
 4270              		.thumb_func
 4271              		.fpu fpv4-sp-d16
 4272              		.type	TIM_SelectSlaveMode, %function
 4273              	TIM_SelectSlaveMode:
 4274              	.LFB194:
 4275              		.loc 1 2964 0
ARM GAS  C:\Users\Grillmo\AppData\Local\Temp\ccN7xt8j.s 			page 76


 4276              		.cfi_startproc
 4277              		@ args = 0, pretend = 0, frame = 0
 4278              		@ frame_needed = 0, uses_anonymous_args = 0
 4279              		@ link register save eliminated.
 4280              	.LVL415:
 4281              		.loc 1 2970 0
 4282 0000 8368     		ldr	r3, [r0, #8]
 4283 0002 4FF6F872 		movw	r2, #65528
 4284 0006 1340     		ands	r3, r3, r2
 4285 0008 8360     		str	r3, [r0, #8]
 4286              		.loc 1 2973 0
 4287 000a 8368     		ldr	r3, [r0, #8]
 4288 000c 1943     		orrs	r1, r1, r3
 4289              	.LVL416:
 4290 000e 8160     		str	r1, [r0, #8]
 4291 0010 7047     		bx	lr
 4292              		.cfi_endproc
 4293              	.LFE194:
 4294              		.size	TIM_SelectSlaveMode, .-TIM_SelectSlaveMode
 4295 0012 00BF     		.section	.text.TIM_SelectMasterSlaveMode,"ax",%progbits
 4296              		.align	1
 4297              		.p2align 4,,15
 4298              		.global	TIM_SelectMasterSlaveMode
 4299              		.syntax unified
 4300              		.thumb
 4301              		.thumb_func
 4302              		.fpu fpv4-sp-d16
 4303              		.type	TIM_SelectMasterSlaveMode, %function
 4304              	TIM_SelectMasterSlaveMode:
 4305              	.LFB195:
 4306              		.loc 1 2987 0
 4307              		.cfi_startproc
 4308              		@ args = 0, pretend = 0, frame = 0
 4309              		@ frame_needed = 0, uses_anonymous_args = 0
 4310              		@ link register save eliminated.
 4311              	.LVL417:
 4312              		.loc 1 2993 0
 4313 0000 8368     		ldr	r3, [r0, #8]
 4314 0002 4FF67F72 		movw	r2, #65407
 4315 0006 1340     		ands	r3, r3, r2
 4316 0008 8360     		str	r3, [r0, #8]
 4317              		.loc 1 2996 0
 4318 000a 8368     		ldr	r3, [r0, #8]
 4319 000c 1943     		orrs	r1, r1, r3
 4320              	.LVL418:
 4321 000e 8160     		str	r1, [r0, #8]
 4322 0010 7047     		bx	lr
 4323              		.cfi_endproc
 4324              	.LFE195:
 4325              		.size	TIM_SelectMasterSlaveMode, .-TIM_SelectMasterSlaveMode
 4326 0012 00BF     		.section	.text.TIM_ETRConfig,"ax",%progbits
 4327              		.align	1
 4328              		.p2align 4,,15
 4329              		.global	TIM_ETRConfig
 4330              		.syntax unified
 4331              		.thumb
 4332              		.thumb_func
ARM GAS  C:\Users\Grillmo\AppData\Local\Temp\ccN7xt8j.s 			page 77


 4333              		.fpu fpv4-sp-d16
 4334              		.type	TIM_ETRConfig, %function
 4335              	TIM_ETRConfig:
 4336              	.LFB196:
 4337              		.loc 1 3018 0
 4338              		.cfi_startproc
 4339              		@ args = 0, pretend = 0, frame = 0
 4340              		@ frame_needed = 0, uses_anonymous_args = 0
 4341              		@ link register save eliminated.
 4342              	.LVL419:
 4343 0000 10B4     		push	{r4}
 4344              		.cfi_def_cfa_offset 4
 4345              		.cfi_offset 4, -4
 4346              		.loc 1 3027 0
 4347 0002 8468     		ldr	r4, [r0, #8]
 4348              	.LVL420:
 4349              		.loc 1 3033 0
 4350 0004 0A43     		orrs	r2, r2, r1
 4351              	.LVL421:
 4352              		.loc 1 3030 0
 4353 0006 E4B2     		uxtb	r4, r4
 4354              	.LVL422:
 4355              		.loc 1 3033 0
 4356 0008 42EA0323 		orr	r3, r2, r3, lsl #8
 4357              	.LVL423:
 4358 000c 2343     		orrs	r3, r3, r4
 4359              		.loc 1 3036 0
 4360 000e 9BB2     		uxth	r3, r3
 4361 0010 8360     		str	r3, [r0, #8]
 4362              		.loc 1 3037 0
 4363 0012 5DF8044B 		ldr	r4, [sp], #4
 4364              		.cfi_restore 4
 4365              		.cfi_def_cfa_offset 0
 4366              	.LVL424:
 4367 0016 7047     		bx	lr
 4368              		.cfi_endproc
 4369              	.LFE196:
 4370              		.size	TIM_ETRConfig, .-TIM_ETRConfig
 4371              		.section	.text.TIM_EncoderInterfaceConfig,"ax",%progbits
 4372              		.align	1
 4373              		.p2align 4,,15
 4374              		.global	TIM_EncoderInterfaceConfig
 4375              		.syntax unified
 4376              		.thumb
 4377              		.thumb_func
 4378              		.fpu fpv4-sp-d16
 4379              		.type	TIM_EncoderInterfaceConfig, %function
 4380              	TIM_EncoderInterfaceConfig:
 4381              	.LFB197:
 4382              		.loc 1 3076 0
 4383              		.cfi_startproc
 4384              		@ args = 0, pretend = 0, frame = 0
 4385              		@ frame_needed = 0, uses_anonymous_args = 0
 4386              	.LVL425:
 4387 0000 F0B5     		push	{r4, r5, r6, r7, lr}
 4388              		.cfi_def_cfa_offset 20
 4389              		.cfi_offset 4, -20
ARM GAS  C:\Users\Grillmo\AppData\Local\Temp\ccN7xt8j.s 			page 78


 4390              		.cfi_offset 5, -16
 4391              		.cfi_offset 6, -12
 4392              		.cfi_offset 7, -8
 4393              		.cfi_offset 14, -4
 4394              		.loc 1 3088 0
 4395 0002 8768     		ldr	r7, [r0, #8]
 4396              	.LVL426:
 4397              		.loc 1 3091 0
 4398 0004 8669     		ldr	r6, [r0, #24]
 4399              	.LVL427:
 4400              		.loc 1 3094 0
 4401 0006 D0F820E0 		ldr	lr, [r0, #32]
 4402              	.LVL428:
 4403              		.loc 1 3105 0
 4404 000a 4FF6DD74 		movw	r4, #65501
 4405              		.loc 1 3101 0
 4406 000e 4FF6FC45 		movw	r5, #64764
 4407 0012 3540     		ands	r5, r5, r6
 4408              		.loc 1 3106 0
 4409 0014 42EA0313 		orr	r3, r2, r3, lsl #4
 4410              	.LVL429:
 4411              		.loc 1 3105 0
 4412 0018 0EEA0404 		and	r4, lr, r4
 4413              		.loc 1 3097 0
 4414 001c 4FF6F876 		movw	r6, #65528
 4415              	.LVL430:
 4416              		.loc 1 3106 0
 4417 0020 1C43     		orrs	r4, r4, r3
 4418              		.loc 1 3112 0
 4419 0022 45F48075 		orr	r5, r5, #256
 4420              		.loc 1 3097 0
 4421 0026 3E40     		ands	r6, r6, r7
 4422              	.LVL431:
 4423              		.loc 1 3115 0
 4424 0028 A4B2     		uxth	r4, r4
 4425              		.loc 1 3112 0
 4426 002a 45F00105 		orr	r5, r5, #1
 4427              		.loc 1 3109 0
 4428 002e 3143     		orrs	r1, r1, r6
 4429              	.LVL432:
 4430 0030 8160     		str	r1, [r0, #8]
 4431              		.loc 1 3112 0
 4432 0032 8561     		str	r5, [r0, #24]
 4433              		.loc 1 3115 0
 4434 0034 0462     		str	r4, [r0, #32]
 4435 0036 F0BD     		pop	{r4, r5, r6, r7, pc}
 4436              		.cfi_endproc
 4437              	.LFE197:
 4438              		.size	TIM_EncoderInterfaceConfig, .-TIM_EncoderInterfaceConfig
 4439              		.section	.text.TIM_SelectHallSensor,"ax",%progbits
 4440              		.align	1
 4441              		.p2align 4,,15
 4442              		.global	TIM_SelectHallSensor
 4443              		.syntax unified
 4444              		.thumb
 4445              		.thumb_func
 4446              		.fpu fpv4-sp-d16
ARM GAS  C:\Users\Grillmo\AppData\Local\Temp\ccN7xt8j.s 			page 79


 4447              		.type	TIM_SelectHallSensor, %function
 4448              	TIM_SelectHallSensor:
 4449              	.LFB198:
 4450              		.loc 1 3127 0
 4451              		.cfi_startproc
 4452              		@ args = 0, pretend = 0, frame = 0
 4453              		@ frame_needed = 0, uses_anonymous_args = 0
 4454              		@ link register save eliminated.
 4455              	.LVL433:
 4456              		.loc 1 3135 0
 4457 0000 4368     		ldr	r3, [r0, #4]
 4458              		.loc 1 3132 0
 4459 0002 21B9     		cbnz	r1, .L219
 4460              		.loc 1 3140 0
 4461 0004 4FF67F72 		movw	r2, #65407
 4462 0008 1340     		ands	r3, r3, r2
 4463 000a 4360     		str	r3, [r0, #4]
 4464 000c 7047     		bx	lr
 4465              	.L219:
 4466              		.loc 1 3135 0
 4467 000e 43F08003 		orr	r3, r3, #128
 4468 0012 4360     		str	r3, [r0, #4]
 4469 0014 7047     		bx	lr
 4470              		.cfi_endproc
 4471              	.LFE198:
 4472              		.size	TIM_SelectHallSensor, .-TIM_SelectHallSensor
 4473 0016 00BF     		.section	.text.TIM_RemapConfig,"ax",%progbits
 4474              		.align	1
 4475              		.p2align 4,,15
 4476              		.global	TIM_RemapConfig
 4477              		.syntax unified
 4478              		.thumb
 4479              		.thumb_func
 4480              		.fpu fpv4-sp-d16
 4481              		.type	TIM_RemapConfig, %function
 4482              	TIM_RemapConfig:
 4483              	.LFB199:
 4484              		.loc 1 3178 0
 4485              		.cfi_startproc
 4486              		@ args = 0, pretend = 0, frame = 0
 4487              		@ frame_needed = 0, uses_anonymous_args = 0
 4488              		@ link register save eliminated.
 4489              	.LVL434:
 4490              		.loc 1 3184 0
 4491 0000 0165     		str	r1, [r0, #80]
 4492 0002 7047     		bx	lr
 4493              		.cfi_endproc
 4494              	.LFE199:
 4495              		.size	TIM_RemapConfig, .-TIM_RemapConfig
 4496              		.text
 4497              	.Letext0:
 4498              		.file 2 "c:\\chibistudio\\tools\\gnu tools arm embedded\\6.3 2017q1\\arm-none-eabi\\include\\machi
 4499              		.file 3 "c:\\chibistudio\\tools\\gnu tools arm embedded\\6.3 2017q1\\arm-none-eabi\\include\\sys\\
 4500              		.file 4 "ChibiOS_3.0.2/os/ext/CMSIS/include/core_cm4.h"
 4501              		.file 5 "ChibiOS_3.0.2/os/ext/CMSIS/ST/system_stm32f4xx.h"
 4502              		.file 6 "ChibiOS_3.0.2/os/ext/CMSIS/ST/stm32f407xx.h"
 4503              		.file 7 "ChibiOS_3.0.2/os/ext/CMSIS/ST/stm32f4xx.h"
ARM GAS  C:\Users\Grillmo\AppData\Local\Temp\ccN7xt8j.s 			page 80


 4504              		.file 8 "ChibiOS_3.0.2/ext/stdperiph_stm32f4/inc/stm32f4xx_tim.h"
 4505              		.file 9 "ChibiOS_3.0.2/ext/stdperiph_stm32f4/inc/stm32f4xx_rcc.h"
 4506              		.section	.debug_info,"",%progbits
 4507              	.Ldebug_info0:
 4508 0000 26240000 		.4byte	0x2426
 4509 0004 0400     		.2byte	0x4
 4510 0006 00000000 		.4byte	.Ldebug_abbrev0
 4511 000a 04       		.byte	0x4
 4512 000b 01       		.uleb128 0x1
 4513 000c 0F050000 		.4byte	.LASF217
 4514 0010 0C       		.byte	0xc
 4515 0011 350A0000 		.4byte	.LASF218
 4516 0015 F3080000 		.4byte	.LASF219
 4517 0019 90000000 		.4byte	.Ldebug_ranges0+0x90
 4518 001d 00000000 		.4byte	0
 4519 0021 00000000 		.4byte	.Ldebug_line0
 4520 0025 02       		.uleb128 0x2
 4521 0026 01       		.byte	0x1
 4522 0027 06       		.byte	0x6
 4523 0028 9A020000 		.4byte	.LASF0
 4524 002c 03       		.uleb128 0x3
 4525 002d D0000000 		.4byte	.LASF3
 4526 0031 02       		.byte	0x2
 4527 0032 2B       		.byte	0x2b
 4528 0033 37000000 		.4byte	0x37
 4529 0037 02       		.uleb128 0x2
 4530 0038 01       		.byte	0x1
 4531 0039 08       		.byte	0x8
 4532 003a 93090000 		.4byte	.LASF1
 4533 003e 02       		.uleb128 0x2
 4534 003f 02       		.byte	0x2
 4535 0040 05       		.byte	0x5
 4536 0041 CB090000 		.4byte	.LASF2
 4537 0045 03       		.uleb128 0x3
 4538 0046 D6030000 		.4byte	.LASF4
 4539 004a 02       		.byte	0x2
 4540 004b 39       		.byte	0x39
 4541 004c 50000000 		.4byte	0x50
 4542 0050 02       		.uleb128 0x2
 4543 0051 02       		.byte	0x2
 4544 0052 07       		.byte	0x7
 4545 0053 7B0A0000 		.4byte	.LASF5
 4546 0057 03       		.uleb128 0x3
 4547 0058 9A0B0000 		.4byte	.LASF6
 4548 005c 02       		.byte	0x2
 4549 005d 4D       		.byte	0x4d
 4550 005e 62000000 		.4byte	0x62
 4551 0062 02       		.uleb128 0x2
 4552 0063 04       		.byte	0x4
 4553 0064 05       		.byte	0x5
 4554 0065 F8020000 		.4byte	.LASF7
 4555 0069 03       		.uleb128 0x3
 4556 006a ED030000 		.4byte	.LASF8
 4557 006e 02       		.byte	0x2
 4558 006f 4F       		.byte	0x4f
 4559 0070 74000000 		.4byte	0x74
 4560 0074 02       		.uleb128 0x2
ARM GAS  C:\Users\Grillmo\AppData\Local\Temp\ccN7xt8j.s 			page 81


 4561 0075 04       		.byte	0x4
 4562 0076 07       		.byte	0x7
 4563 0077 FA0A0000 		.4byte	.LASF9
 4564 007b 02       		.uleb128 0x2
 4565 007c 08       		.byte	0x8
 4566 007d 05       		.byte	0x5
 4567 007e 27030000 		.4byte	.LASF10
 4568 0082 02       		.uleb128 0x2
 4569 0083 08       		.byte	0x8
 4570 0084 07       		.byte	0x7
 4571 0085 86010000 		.4byte	.LASF11
 4572 0089 04       		.uleb128 0x4
 4573 008a 04       		.byte	0x4
 4574 008b 05       		.byte	0x5
 4575 008c 696E7400 		.ascii	"int\000"
 4576 0090 02       		.uleb128 0x2
 4577 0091 04       		.byte	0x4
 4578 0092 07       		.byte	0x7
 4579 0093 7B040000 		.4byte	.LASF12
 4580 0097 03       		.uleb128 0x3
 4581 0098 F10C0000 		.4byte	.LASF13
 4582 009c 03       		.byte	0x3
 4583 009d 18       		.byte	0x18
 4584 009e 2C000000 		.4byte	0x2c
 4585 00a2 03       		.uleb128 0x3
 4586 00a3 35030000 		.4byte	.LASF14
 4587 00a7 03       		.byte	0x3
 4588 00a8 24       		.byte	0x24
 4589 00a9 45000000 		.4byte	0x45
 4590 00ad 03       		.uleb128 0x3
 4591 00ae 8B090000 		.4byte	.LASF15
 4592 00b2 03       		.byte	0x3
 4593 00b3 2C       		.byte	0x2c
 4594 00b4 57000000 		.4byte	0x57
 4595 00b8 05       		.uleb128 0x5
 4596 00b9 AD000000 		.4byte	0xad
 4597 00bd 03       		.uleb128 0x3
 4598 00be AA0C0000 		.4byte	.LASF16
 4599 00c2 03       		.byte	0x3
 4600 00c3 30       		.byte	0x30
 4601 00c4 69000000 		.4byte	0x69
 4602 00c8 05       		.uleb128 0x5
 4603 00c9 BD000000 		.4byte	0xbd
 4604 00cd 02       		.uleb128 0x2
 4605 00ce 04       		.byte	0x4
 4606 00cf 07       		.byte	0x7
 4607 00d0 AD070000 		.4byte	.LASF17
 4608 00d4 06       		.uleb128 0x6
 4609 00d5 ED010000 		.4byte	.LASF18
 4610 00d9 04       		.byte	0x4
 4611 00da A706     		.2byte	0x6a7
 4612 00dc B8000000 		.4byte	0xb8
 4613 00e0 07       		.uleb128 0x7
 4614 00e1 9A0C0000 		.4byte	.LASF19
 4615 00e5 05       		.byte	0x5
 4616 00e6 4C       		.byte	0x4c
 4617 00e7 BD000000 		.4byte	0xbd
ARM GAS  C:\Users\Grillmo\AppData\Local\Temp\ccN7xt8j.s 			page 82


 4618 00eb 08       		.uleb128 0x8
 4619 00ec 54       		.byte	0x54
 4620 00ed 06       		.byte	0x6
 4621 00ee EC02     		.2byte	0x2ec
 4622 00f0 04020000 		.4byte	0x204
 4623 00f4 09       		.uleb128 0x9
 4624 00f5 43523100 		.ascii	"CR1\000"
 4625 00f9 06       		.byte	0x6
 4626 00fa EE02     		.2byte	0x2ee
 4627 00fc C8000000 		.4byte	0xc8
 4628 0100 00       		.byte	0
 4629 0101 09       		.uleb128 0x9
 4630 0102 43523200 		.ascii	"CR2\000"
 4631 0106 06       		.byte	0x6
 4632 0107 EF02     		.2byte	0x2ef
 4633 0109 C8000000 		.4byte	0xc8
 4634 010d 04       		.byte	0x4
 4635 010e 0A       		.uleb128 0xa
 4636 010f 98060000 		.4byte	.LASF20
 4637 0113 06       		.byte	0x6
 4638 0114 F002     		.2byte	0x2f0
 4639 0116 C8000000 		.4byte	0xc8
 4640 011a 08       		.byte	0x8
 4641 011b 0A       		.uleb128 0xa
 4642 011c 4A000000 		.4byte	.LASF21
 4643 0120 06       		.byte	0x6
 4644 0121 F102     		.2byte	0x2f1
 4645 0123 C8000000 		.4byte	0xc8
 4646 0127 0C       		.byte	0xc
 4647 0128 09       		.uleb128 0x9
 4648 0129 535200   		.ascii	"SR\000"
 4649 012c 06       		.byte	0x6
 4650 012d F202     		.2byte	0x2f2
 4651 012f C8000000 		.4byte	0xc8
 4652 0133 10       		.byte	0x10
 4653 0134 09       		.uleb128 0x9
 4654 0135 45475200 		.ascii	"EGR\000"
 4655 0139 06       		.byte	0x6
 4656 013a F302     		.2byte	0x2f3
 4657 013c C8000000 		.4byte	0xc8
 4658 0140 14       		.byte	0x14
 4659 0141 0A       		.uleb128 0xa
 4660 0142 78020000 		.4byte	.LASF22
 4661 0146 06       		.byte	0x6
 4662 0147 F402     		.2byte	0x2f4
 4663 0149 C8000000 		.4byte	0xc8
 4664 014d 18       		.byte	0x18
 4665 014e 0A       		.uleb128 0xa
 4666 014f 7E020000 		.4byte	.LASF23
 4667 0153 06       		.byte	0x6
 4668 0154 F502     		.2byte	0x2f5
 4669 0156 C8000000 		.4byte	0xc8
 4670 015a 1C       		.byte	0x1c
 4671 015b 0A       		.uleb128 0xa
 4672 015c 22030000 		.4byte	.LASF24
 4673 0160 06       		.byte	0x6
 4674 0161 F602     		.2byte	0x2f6
ARM GAS  C:\Users\Grillmo\AppData\Local\Temp\ccN7xt8j.s 			page 83


 4675 0163 C8000000 		.4byte	0xc8
 4676 0167 20       		.byte	0x20
 4677 0168 09       		.uleb128 0x9
 4678 0169 434E5400 		.ascii	"CNT\000"
 4679 016d 06       		.byte	0x6
 4680 016e F702     		.2byte	0x2f7
 4681 0170 C8000000 		.4byte	0xc8
 4682 0174 24       		.byte	0x24
 4683 0175 09       		.uleb128 0x9
 4684 0176 50534300 		.ascii	"PSC\000"
 4685 017a 06       		.byte	0x6
 4686 017b F802     		.2byte	0x2f8
 4687 017d C8000000 		.4byte	0xc8
 4688 0181 28       		.byte	0x28
 4689 0182 09       		.uleb128 0x9
 4690 0183 41525200 		.ascii	"ARR\000"
 4691 0187 06       		.byte	0x6
 4692 0188 F902     		.2byte	0x2f9
 4693 018a C8000000 		.4byte	0xc8
 4694 018e 2C       		.byte	0x2c
 4695 018f 09       		.uleb128 0x9
 4696 0190 52435200 		.ascii	"RCR\000"
 4697 0194 06       		.byte	0x6
 4698 0195 FA02     		.2byte	0x2fa
 4699 0197 C8000000 		.4byte	0xc8
 4700 019b 30       		.byte	0x30
 4701 019c 0A       		.uleb128 0xa
 4702 019d B30C0000 		.4byte	.LASF25
 4703 01a1 06       		.byte	0x6
 4704 01a2 FB02     		.2byte	0x2fb
 4705 01a4 C8000000 		.4byte	0xc8
 4706 01a8 34       		.byte	0x34
 4707 01a9 0A       		.uleb128 0xa
 4708 01aa B80C0000 		.4byte	.LASF26
 4709 01ae 06       		.byte	0x6
 4710 01af FC02     		.2byte	0x2fc
 4711 01b1 C8000000 		.4byte	0xc8
 4712 01b5 38       		.byte	0x38
 4713 01b6 0A       		.uleb128 0xa
 4714 01b7 BD0C0000 		.4byte	.LASF27
 4715 01bb 06       		.byte	0x6
 4716 01bc FD02     		.2byte	0x2fd
 4717 01be C8000000 		.4byte	0xc8
 4718 01c2 3C       		.byte	0x3c
 4719 01c3 0A       		.uleb128 0xa
 4720 01c4 C20C0000 		.4byte	.LASF28
 4721 01c8 06       		.byte	0x6
 4722 01c9 FE02     		.2byte	0x2fe
 4723 01cb C8000000 		.4byte	0xc8
 4724 01cf 40       		.byte	0x40
 4725 01d0 0A       		.uleb128 0xa
 4726 01d1 D5090000 		.4byte	.LASF29
 4727 01d5 06       		.byte	0x6
 4728 01d6 FF02     		.2byte	0x2ff
 4729 01d8 C8000000 		.4byte	0xc8
 4730 01dc 44       		.byte	0x44
 4731 01dd 09       		.uleb128 0x9
ARM GAS  C:\Users\Grillmo\AppData\Local\Temp\ccN7xt8j.s 			page 84


 4732 01de 44435200 		.ascii	"DCR\000"
 4733 01e2 06       		.byte	0x6
 4734 01e3 0003     		.2byte	0x300
 4735 01e5 C8000000 		.4byte	0xc8
 4736 01e9 48       		.byte	0x48
 4737 01ea 0A       		.uleb128 0xa
 4738 01eb 3C0B0000 		.4byte	.LASF30
 4739 01ef 06       		.byte	0x6
 4740 01f0 0103     		.2byte	0x301
 4741 01f2 C8000000 		.4byte	0xc8
 4742 01f6 4C       		.byte	0x4c
 4743 01f7 09       		.uleb128 0x9
 4744 01f8 4F5200   		.ascii	"OR\000"
 4745 01fb 06       		.byte	0x6
 4746 01fc 0203     		.2byte	0x302
 4747 01fe C8000000 		.4byte	0xc8
 4748 0202 50       		.byte	0x50
 4749 0203 00       		.byte	0
 4750 0204 0B       		.uleb128 0xb
 4751 0205 E1030000 		.4byte	.LASF31
 4752 0209 06       		.byte	0x6
 4753 020a 0303     		.2byte	0x303
 4754 020c EB000000 		.4byte	0xeb
 4755 0210 0C       		.uleb128 0xc
 4756 0211 01       		.byte	0x1
 4757 0212 37000000 		.4byte	0x37
 4758 0216 07       		.byte	0x7
 4759 0217 A2       		.byte	0xa2
 4760 0218 29020000 		.4byte	0x229
 4761 021c 0D       		.uleb128 0xd
 4762 021d 61070000 		.4byte	.LASF32
 4763 0221 00       		.byte	0
 4764 0222 0E       		.uleb128 0xe
 4765 0223 53455400 		.ascii	"SET\000"
 4766 0227 01       		.byte	0x1
 4767 0228 00       		.byte	0
 4768 0229 03       		.uleb128 0x3
 4769 022a C5000000 		.4byte	.LASF33
 4770 022e 07       		.byte	0x7
 4771 022f A5       		.byte	0xa5
 4772 0230 10020000 		.4byte	0x210
 4773 0234 03       		.uleb128 0x3
 4774 0235 42090000 		.4byte	.LASF34
 4775 0239 07       		.byte	0x7
 4776 023a A5       		.byte	0xa5
 4777 023b 10020000 		.4byte	0x210
 4778 023f 0C       		.uleb128 0xc
 4779 0240 01       		.byte	0x1
 4780 0241 37000000 		.4byte	0x37
 4781 0245 07       		.byte	0x7
 4782 0246 A8       		.byte	0xa8
 4783 0247 58020000 		.4byte	0x258
 4784 024b 0D       		.uleb128 0xd
 4785 024c 67010000 		.4byte	.LASF35
 4786 0250 00       		.byte	0
 4787 0251 0D       		.uleb128 0xd
 4788 0252 12030000 		.4byte	.LASF36
ARM GAS  C:\Users\Grillmo\AppData\Local\Temp\ccN7xt8j.s 			page 85


 4789 0256 01       		.byte	0x1
 4790 0257 00       		.byte	0
 4791 0258 03       		.uleb128 0x3
 4792 0259 7E080000 		.4byte	.LASF37
 4793 025d 07       		.byte	0x7
 4794 025e AB       		.byte	0xab
 4795 025f 3F020000 		.4byte	0x23f
 4796 0263 0F       		.uleb128 0xf
 4797 0264 0C       		.byte	0xc
 4798 0265 08       		.byte	0x8
 4799 0266 37       		.byte	0x37
 4800 0267 A8020000 		.4byte	0x2a8
 4801 026b 10       		.uleb128 0x10
 4802 026c 62090000 		.4byte	.LASF38
 4803 0270 08       		.byte	0x8
 4804 0271 39       		.byte	0x39
 4805 0272 A2000000 		.4byte	0xa2
 4806 0276 00       		.byte	0
 4807 0277 10       		.uleb128 0x10
 4808 0278 86000000 		.4byte	.LASF39
 4809 027c 08       		.byte	0x8
 4810 027d 3C       		.byte	0x3c
 4811 027e A2000000 		.4byte	0xa2
 4812 0282 02       		.byte	0x2
 4813 0283 10       		.uleb128 0x10
 4814 0284 610B0000 		.4byte	.LASF40
 4815 0288 08       		.byte	0x8
 4816 0289 3F       		.byte	0x3f
 4817 028a BD000000 		.4byte	0xbd
 4818 028e 04       		.byte	0x4
 4819 028f 10       		.uleb128 0x10
 4820 0290 A2040000 		.4byte	.LASF41
 4821 0294 08       		.byte	0x8
 4822 0295 43       		.byte	0x43
 4823 0296 A2000000 		.4byte	0xa2
 4824 029a 08       		.byte	0x8
 4825 029b 10       		.uleb128 0x10
 4826 029c 2B0D0000 		.4byte	.LASF42
 4827 02a0 08       		.byte	0x8
 4828 02a1 46       		.byte	0x46
 4829 02a2 97000000 		.4byte	0x97
 4830 02a6 0A       		.byte	0xa
 4831 02a7 00       		.byte	0
 4832 02a8 03       		.uleb128 0x3
 4833 02a9 6C0B0000 		.4byte	.LASF43
 4834 02ad 08       		.byte	0x8
 4835 02ae 4E       		.byte	0x4e
 4836 02af 63020000 		.4byte	0x263
 4837 02b3 0F       		.uleb128 0xf
 4838 02b4 14       		.byte	0x14
 4839 02b5 08       		.byte	0x8
 4840 02b6 54       		.byte	0x54
 4841 02b7 1C030000 		.4byte	0x31c
 4842 02bb 10       		.uleb128 0x10
 4843 02bc 410C0000 		.4byte	.LASF44
 4844 02c0 08       		.byte	0x8
 4845 02c1 56       		.byte	0x56
ARM GAS  C:\Users\Grillmo\AppData\Local\Temp\ccN7xt8j.s 			page 86


 4846 02c2 A2000000 		.4byte	0xa2
 4847 02c6 00       		.byte	0
 4848 02c7 10       		.uleb128 0x10
 4849 02c8 13090000 		.4byte	.LASF45
 4850 02cc 08       		.byte	0x8
 4851 02cd 59       		.byte	0x59
 4852 02ce A2000000 		.4byte	0xa2
 4853 02d2 02       		.byte	0x2
 4854 02d3 10       		.uleb128 0x10
 4855 02d4 01030000 		.4byte	.LASF46
 4856 02d8 08       		.byte	0x8
 4857 02d9 5C       		.byte	0x5c
 4858 02da A2000000 		.4byte	0xa2
 4859 02de 04       		.byte	0x4
 4860 02df 10       		.uleb128 0x10
 4861 02e0 2D010000 		.4byte	.LASF47
 4862 02e4 08       		.byte	0x8
 4863 02e5 60       		.byte	0x60
 4864 02e6 BD000000 		.4byte	0xbd
 4865 02ea 08       		.byte	0x8
 4866 02eb 10       		.uleb128 0x10
 4867 02ec 93040000 		.4byte	.LASF48
 4868 02f0 08       		.byte	0x8
 4869 02f1 63       		.byte	0x63
 4870 02f2 A2000000 		.4byte	0xa2
 4871 02f6 0C       		.byte	0xc
 4872 02f7 10       		.uleb128 0x10
 4873 02f8 0C0B0000 		.4byte	.LASF49
 4874 02fc 08       		.byte	0x8
 4875 02fd 66       		.byte	0x66
 4876 02fe A2000000 		.4byte	0xa2
 4877 0302 0E       		.byte	0xe
 4878 0303 10       		.uleb128 0x10
 4879 0304 860D0000 		.4byte	.LASF50
 4880 0308 08       		.byte	0x8
 4881 0309 6A       		.byte	0x6a
 4882 030a A2000000 		.4byte	0xa2
 4883 030e 10       		.byte	0x10
 4884 030f 10       		.uleb128 0x10
 4885 0310 44080000 		.4byte	.LASF51
 4886 0314 08       		.byte	0x8
 4887 0315 6E       		.byte	0x6e
 4888 0316 A2000000 		.4byte	0xa2
 4889 031a 12       		.byte	0x12
 4890 031b 00       		.byte	0
 4891 031c 03       		.uleb128 0x3
 4892 031d C70C0000 		.4byte	.LASF52
 4893 0321 08       		.byte	0x8
 4894 0322 71       		.byte	0x71
 4895 0323 B3020000 		.4byte	0x2b3
 4896 0327 0F       		.uleb128 0xf
 4897 0328 0A       		.byte	0xa
 4898 0329 08       		.byte	0x8
 4899 032a 77       		.byte	0x77
 4900 032b 6C030000 		.4byte	0x36c
 4901 032f 10       		.uleb128 0x10
 4902 0330 6C020000 		.4byte	.LASF53
ARM GAS  C:\Users\Grillmo\AppData\Local\Temp\ccN7xt8j.s 			page 87


 4903 0334 08       		.byte	0x8
 4904 0335 7A       		.byte	0x7a
 4905 0336 A2000000 		.4byte	0xa2
 4906 033a 00       		.byte	0
 4907 033b 10       		.uleb128 0x10
 4908 033c 33090000 		.4byte	.LASF54
 4909 0340 08       		.byte	0x8
 4910 0341 7D       		.byte	0x7d
 4911 0342 A2000000 		.4byte	0xa2
 4912 0346 02       		.byte	0x2
 4913 0347 10       		.uleb128 0x10
 4914 0348 FA010000 		.4byte	.LASF55
 4915 034c 08       		.byte	0x8
 4916 034d 80       		.byte	0x80
 4917 034e A2000000 		.4byte	0xa2
 4918 0352 04       		.byte	0x4
 4919 0353 10       		.uleb128 0x10
 4920 0354 1F080000 		.4byte	.LASF56
 4921 0358 08       		.byte	0x8
 4922 0359 83       		.byte	0x83
 4923 035a A2000000 		.4byte	0xa2
 4924 035e 06       		.byte	0x6
 4925 035f 10       		.uleb128 0x10
 4926 0360 9D010000 		.4byte	.LASF57
 4927 0364 08       		.byte	0x8
 4928 0365 86       		.byte	0x86
 4929 0366 A2000000 		.4byte	0xa2
 4930 036a 08       		.byte	0x8
 4931 036b 00       		.byte	0
 4932 036c 03       		.uleb128 0x3
 4933 036d A40B0000 		.4byte	.LASF58
 4934 0371 08       		.byte	0x8
 4935 0372 88       		.byte	0x88
 4936 0373 27030000 		.4byte	0x327
 4937 0377 0F       		.uleb128 0xf
 4938 0378 0E       		.byte	0xe
 4939 0379 08       		.byte	0x8
 4940 037a 8F       		.byte	0x8f
 4941 037b D4030000 		.4byte	0x3d4
 4942 037f 10       		.uleb128 0x10
 4943 0380 9D060000 		.4byte	.LASF59
 4944 0384 08       		.byte	0x8
 4945 0385 92       		.byte	0x92
 4946 0386 A2000000 		.4byte	0xa2
 4947 038a 00       		.byte	0
 4948 038b 10       		.uleb128 0x10
 4949 038c 6D0A0000 		.4byte	.LASF60
 4950 0390 08       		.byte	0x8
 4951 0391 95       		.byte	0x95
 4952 0392 A2000000 		.4byte	0xa2
 4953 0396 02       		.byte	0x2
 4954 0397 10       		.uleb128 0x10
 4955 0398 A1090000 		.4byte	.LASF61
 4956 039c 08       		.byte	0x8
 4957 039d 98       		.byte	0x98
 4958 039e A2000000 		.4byte	0xa2
 4959 03a2 04       		.byte	0x4
ARM GAS  C:\Users\Grillmo\AppData\Local\Temp\ccN7xt8j.s 			page 88


 4960 03a3 10       		.uleb128 0x10
 4961 03a4 D4070000 		.4byte	.LASF62
 4962 03a8 08       		.byte	0x8
 4963 03a9 9B       		.byte	0x9b
 4964 03aa A2000000 		.4byte	0xa2
 4965 03ae 06       		.byte	0x6
 4966 03af 10       		.uleb128 0x10
 4967 03b0 CA070000 		.4byte	.LASF63
 4968 03b4 08       		.byte	0x8
 4969 03b5 9F       		.byte	0x9f
 4970 03b6 A2000000 		.4byte	0xa2
 4971 03ba 08       		.byte	0x8
 4972 03bb 10       		.uleb128 0x10
 4973 03bc 5C0C0000 		.4byte	.LASF64
 4974 03c0 08       		.byte	0x8
 4975 03c1 A2       		.byte	0xa2
 4976 03c2 A2000000 		.4byte	0xa2
 4977 03c6 0A       		.byte	0xa
 4978 03c7 10       		.uleb128 0x10
 4979 03c8 D6060000 		.4byte	.LASF65
 4980 03cc 08       		.byte	0x8
 4981 03cd A5       		.byte	0xa5
 4982 03ce A2000000 		.4byte	0xa2
 4983 03d2 0C       		.byte	0xc
 4984 03d3 00       		.byte	0
 4985 03d4 03       		.uleb128 0x3
 4986 03d5 73060000 		.4byte	.LASF66
 4987 03d9 08       		.byte	0x8
 4988 03da A7       		.byte	0xa7
 4989 03db 77030000 		.4byte	0x377
 4990 03df 11       		.uleb128 0x11
 4991 03e0 88040000 		.4byte	.LASF70
 4992 03e4 01       		.byte	0x1
 4993 03e5 040D     		.2byte	0xd04
 4994 03e7 01       		.byte	0x1
 4995 03e8 41040000 		.4byte	0x441
 4996 03ec 12       		.uleb128 0x12
 4997 03ed AB060000 		.4byte	.LASF67
 4998 03f1 01       		.byte	0x1
 4999 03f2 040D     		.2byte	0xd04
 5000 03f4 41040000 		.4byte	0x441
 5001 03f8 12       		.uleb128 0x12
 5002 03f9 33090000 		.4byte	.LASF54
 5003 03fd 01       		.byte	0x1
 5004 03fe 040D     		.2byte	0xd04
 5005 0400 A2000000 		.4byte	0xa2
 5006 0404 12       		.uleb128 0x12
 5007 0405 FA010000 		.4byte	.LASF55
 5008 0409 01       		.byte	0x1
 5009 040a 040D     		.2byte	0xd04
 5010 040c A2000000 		.4byte	0xa2
 5011 0410 12       		.uleb128 0x12
 5012 0411 9D010000 		.4byte	.LASF57
 5013 0415 01       		.byte	0x1
 5014 0416 050D     		.2byte	0xd05
 5015 0418 A2000000 		.4byte	0xa2
 5016 041c 13       		.uleb128 0x13
ARM GAS  C:\Users\Grillmo\AppData\Local\Temp\ccN7xt8j.s 			page 89


 5017 041d 57010000 		.4byte	.LASF68
 5018 0421 01       		.byte	0x1
 5019 0422 070D     		.2byte	0xd07
 5020 0424 A2000000 		.4byte	0xa2
 5021 0428 13       		.uleb128 0x13
 5022 0429 5C040000 		.4byte	.LASF69
 5023 042d 01       		.byte	0x1
 5024 042e 070D     		.2byte	0xd07
 5025 0430 A2000000 		.4byte	0xa2
 5026 0434 14       		.uleb128 0x14
 5027 0435 746D7000 		.ascii	"tmp\000"
 5028 0439 01       		.byte	0x1
 5029 043a 070D     		.2byte	0xd07
 5030 043c A2000000 		.4byte	0xa2
 5031 0440 00       		.byte	0
 5032 0441 15       		.uleb128 0x15
 5033 0442 04       		.byte	0x4
 5034 0443 04020000 		.4byte	0x204
 5035 0447 11       		.uleb128 0x11
 5036 0448 25070000 		.4byte	.LASF71
 5037 044c 01       		.byte	0x1
 5038 044d DB0C     		.2byte	0xcdb
 5039 044f 01       		.byte	0x1
 5040 0450 A9040000 		.4byte	0x4a9
 5041 0454 12       		.uleb128 0x12
 5042 0455 AB060000 		.4byte	.LASF67
 5043 0459 01       		.byte	0x1
 5044 045a DB0C     		.2byte	0xcdb
 5045 045c 41040000 		.4byte	0x441
 5046 0460 12       		.uleb128 0x12
 5047 0461 33090000 		.4byte	.LASF54
 5048 0465 01       		.byte	0x1
 5049 0466 DB0C     		.2byte	0xcdb
 5050 0468 A2000000 		.4byte	0xa2
 5051 046c 12       		.uleb128 0x12
 5052 046d FA010000 		.4byte	.LASF55
 5053 0471 01       		.byte	0x1
 5054 0472 DB0C     		.2byte	0xcdb
 5055 0474 A2000000 		.4byte	0xa2
 5056 0478 12       		.uleb128 0x12
 5057 0479 9D010000 		.4byte	.LASF57
 5058 047d 01       		.byte	0x1
 5059 047e DC0C     		.2byte	0xcdc
 5060 0480 A2000000 		.4byte	0xa2
 5061 0484 13       		.uleb128 0x13
 5062 0485 57010000 		.4byte	.LASF68
 5063 0489 01       		.byte	0x1
 5064 048a DE0C     		.2byte	0xcde
 5065 048c A2000000 		.4byte	0xa2
 5066 0490 13       		.uleb128 0x13
 5067 0491 5C040000 		.4byte	.LASF69
 5068 0495 01       		.byte	0x1
 5069 0496 DE0C     		.2byte	0xcde
 5070 0498 A2000000 		.4byte	0xa2
 5071 049c 14       		.uleb128 0x14
 5072 049d 746D7000 		.ascii	"tmp\000"
 5073 04a1 01       		.byte	0x1
ARM GAS  C:\Users\Grillmo\AppData\Local\Temp\ccN7xt8j.s 			page 90


 5074 04a2 DE0C     		.2byte	0xcde
 5075 04a4 A2000000 		.4byte	0xa2
 5076 04a8 00       		.byte	0
 5077 04a9 11       		.uleb128 0x11
 5078 04aa CB0A0000 		.4byte	.LASF72
 5079 04ae 01       		.byte	0x1
 5080 04af B10C     		.2byte	0xcb1
 5081 04b1 01       		.byte	0x1
 5082 04b2 0B050000 		.4byte	0x50b
 5083 04b6 12       		.uleb128 0x12
 5084 04b7 AB060000 		.4byte	.LASF67
 5085 04bb 01       		.byte	0x1
 5086 04bc B10C     		.2byte	0xcb1
 5087 04be 41040000 		.4byte	0x441
 5088 04c2 12       		.uleb128 0x12
 5089 04c3 33090000 		.4byte	.LASF54
 5090 04c7 01       		.byte	0x1
 5091 04c8 B10C     		.2byte	0xcb1
 5092 04ca A2000000 		.4byte	0xa2
 5093 04ce 12       		.uleb128 0x12
 5094 04cf FA010000 		.4byte	.LASF55
 5095 04d3 01       		.byte	0x1
 5096 04d4 B10C     		.2byte	0xcb1
 5097 04d6 A2000000 		.4byte	0xa2
 5098 04da 12       		.uleb128 0x12
 5099 04db 9D010000 		.4byte	.LASF57
 5100 04df 01       		.byte	0x1
 5101 04e0 B20C     		.2byte	0xcb2
 5102 04e2 A2000000 		.4byte	0xa2
 5103 04e6 13       		.uleb128 0x13
 5104 04e7 4E010000 		.4byte	.LASF73
 5105 04eb 01       		.byte	0x1
 5106 04ec B40C     		.2byte	0xcb4
 5107 04ee A2000000 		.4byte	0xa2
 5108 04f2 13       		.uleb128 0x13
 5109 04f3 5C040000 		.4byte	.LASF69
 5110 04f7 01       		.byte	0x1
 5111 04f8 B40C     		.2byte	0xcb4
 5112 04fa A2000000 		.4byte	0xa2
 5113 04fe 14       		.uleb128 0x14
 5114 04ff 746D7000 		.ascii	"tmp\000"
 5115 0503 01       		.byte	0x1
 5116 0504 B40C     		.2byte	0xcb4
 5117 0506 A2000000 		.4byte	0xa2
 5118 050a 00       		.byte	0
 5119 050b 11       		.uleb128 0x11
 5120 050c 4B090000 		.4byte	.LASF74
 5121 0510 01       		.byte	0x1
 5122 0511 880C     		.2byte	0xc88
 5123 0513 01       		.byte	0x1
 5124 0514 61050000 		.4byte	0x561
 5125 0518 12       		.uleb128 0x12
 5126 0519 AB060000 		.4byte	.LASF67
 5127 051d 01       		.byte	0x1
 5128 051e 880C     		.2byte	0xc88
 5129 0520 41040000 		.4byte	0x441
 5130 0524 12       		.uleb128 0x12
ARM GAS  C:\Users\Grillmo\AppData\Local\Temp\ccN7xt8j.s 			page 91


 5131 0525 33090000 		.4byte	.LASF54
 5132 0529 01       		.byte	0x1
 5133 052a 880C     		.2byte	0xc88
 5134 052c A2000000 		.4byte	0xa2
 5135 0530 12       		.uleb128 0x12
 5136 0531 FA010000 		.4byte	.LASF55
 5137 0535 01       		.byte	0x1
 5138 0536 880C     		.2byte	0xc88
 5139 0538 A2000000 		.4byte	0xa2
 5140 053c 12       		.uleb128 0x12
 5141 053d 9D010000 		.4byte	.LASF57
 5142 0541 01       		.byte	0x1
 5143 0542 890C     		.2byte	0xc89
 5144 0544 A2000000 		.4byte	0xa2
 5145 0548 13       		.uleb128 0x13
 5146 0549 4E010000 		.4byte	.LASF73
 5147 054d 01       		.byte	0x1
 5148 054e 8B0C     		.2byte	0xc8b
 5149 0550 A2000000 		.4byte	0xa2
 5150 0554 13       		.uleb128 0x13
 5151 0555 5C040000 		.4byte	.LASF69
 5152 0559 01       		.byte	0x1
 5153 055a 8B0C     		.2byte	0xc8b
 5154 055c A2000000 		.4byte	0xa2
 5155 0560 00       		.byte	0
 5156 0561 16       		.uleb128 0x16
 5157 0562 0F0D0000 		.4byte	.LASF76
 5158 0566 01       		.byte	0x1
 5159 0567 690C     		.2byte	0xc69
 5160 0569 00000000 		.4byte	.LFB199
 5161 056d 04000000 		.4byte	.LFE199-.LFB199
 5162 0571 01       		.uleb128 0x1
 5163 0572 9C       		.byte	0x9c
 5164 0573 94050000 		.4byte	0x594
 5165 0577 17       		.uleb128 0x17
 5166 0578 AB060000 		.4byte	.LASF67
 5167 057c 01       		.byte	0x1
 5168 057d 690C     		.2byte	0xc69
 5169 057f 41040000 		.4byte	0x441
 5170 0583 01       		.uleb128 0x1
 5171 0584 50       		.byte	0x50
 5172 0585 17       		.uleb128 0x17
 5173 0586 8E080000 		.4byte	.LASF75
 5174 058a 01       		.byte	0x1
 5175 058b 690C     		.2byte	0xc69
 5176 058d A2000000 		.4byte	0xa2
 5177 0591 01       		.uleb128 0x1
 5178 0592 51       		.byte	0x51
 5179 0593 00       		.byte	0
 5180 0594 16       		.uleb128 0x16
 5181 0595 410D0000 		.4byte	.LASF77
 5182 0599 01       		.byte	0x1
 5183 059a 360C     		.2byte	0xc36
 5184 059c 00000000 		.4byte	.LFB198
 5185 05a0 16000000 		.4byte	.LFE198-.LFB198
 5186 05a4 01       		.uleb128 0x1
 5187 05a5 9C       		.byte	0x9c
ARM GAS  C:\Users\Grillmo\AppData\Local\Temp\ccN7xt8j.s 			page 92


 5188 05a6 C7050000 		.4byte	0x5c7
 5189 05aa 17       		.uleb128 0x17
 5190 05ab AB060000 		.4byte	.LASF67
 5191 05af 01       		.byte	0x1
 5192 05b0 360C     		.2byte	0xc36
 5193 05b2 41040000 		.4byte	0x441
 5194 05b6 01       		.uleb128 0x1
 5195 05b7 50       		.byte	0x50
 5196 05b8 17       		.uleb128 0x17
 5197 05b9 0B000000 		.4byte	.LASF78
 5198 05bd 01       		.byte	0x1
 5199 05be 360C     		.2byte	0xc36
 5200 05c0 58020000 		.4byte	0x258
 5201 05c4 01       		.uleb128 0x1
 5202 05c5 51       		.byte	0x51
 5203 05c6 00       		.byte	0
 5204 05c7 16       		.uleb128 0x16
 5205 05c8 0F020000 		.4byte	.LASF79
 5206 05cc 01       		.byte	0x1
 5207 05cd 020C     		.2byte	0xc02
 5208 05cf 00000000 		.4byte	.LFB197
 5209 05d3 38000000 		.4byte	.LFE197-.LFB197
 5210 05d7 01       		.uleb128 0x1
 5211 05d8 9C       		.byte	0x9c
 5212 05d9 4A060000 		.4byte	0x64a
 5213 05dd 17       		.uleb128 0x17
 5214 05de AB060000 		.4byte	.LASF67
 5215 05e2 01       		.byte	0x1
 5216 05e3 020C     		.2byte	0xc02
 5217 05e5 41040000 		.4byte	0x441
 5218 05e9 01       		.uleb128 0x1
 5219 05ea 50       		.byte	0x50
 5220 05eb 18       		.uleb128 0x18
 5221 05ec B0060000 		.4byte	.LASF80
 5222 05f0 01       		.byte	0x1
 5223 05f1 020C     		.2byte	0xc02
 5224 05f3 A2000000 		.4byte	0xa2
 5225 05f7 00000000 		.4byte	.LLST213
 5226 05fb 17       		.uleb128 0x17
 5227 05fc 51020000 		.4byte	.LASF81
 5228 0600 01       		.byte	0x1
 5229 0601 030C     		.2byte	0xc03
 5230 0603 A2000000 		.4byte	0xa2
 5231 0607 01       		.uleb128 0x1
 5232 0608 52       		.byte	0x52
 5233 0609 18       		.uleb128 0x18
 5234 060a FC000000 		.4byte	.LASF82
 5235 060e 01       		.byte	0x1
 5236 060f 030C     		.2byte	0xc03
 5237 0611 A2000000 		.4byte	0xa2
 5238 0615 21000000 		.4byte	.LLST214
 5239 0619 19       		.uleb128 0x19
 5240 061a 67070000 		.4byte	.LASF83
 5241 061e 01       		.byte	0x1
 5242 061f 050C     		.2byte	0xc05
 5243 0621 A2000000 		.4byte	0xa2
 5244 0625 42000000 		.4byte	.LLST215
ARM GAS  C:\Users\Grillmo\AppData\Local\Temp\ccN7xt8j.s 			page 93


 5245 0629 19       		.uleb128 0x19
 5246 062a 4E010000 		.4byte	.LASF73
 5247 062e 01       		.byte	0x1
 5248 062f 060C     		.2byte	0xc06
 5249 0631 A2000000 		.4byte	0xa2
 5250 0635 82000000 		.4byte	.LLST216
 5251 0639 19       		.uleb128 0x19
 5252 063a 5C040000 		.4byte	.LASF69
 5253 063e 01       		.byte	0x1
 5254 063f 070C     		.2byte	0xc07
 5255 0641 A2000000 		.4byte	0xa2
 5256 0645 A1000000 		.4byte	.LLST217
 5257 0649 00       		.byte	0
 5258 064a 1A       		.uleb128 0x1a
 5259 064b B30D0000 		.4byte	.LASF93
 5260 064f 01       		.byte	0x1
 5261 0650 C80B     		.2byte	0xbc8
 5262 0652 01       		.byte	0x1
 5263 0653 94060000 		.4byte	0x694
 5264 0657 12       		.uleb128 0x12
 5265 0658 AB060000 		.4byte	.LASF67
 5266 065c 01       		.byte	0x1
 5267 065d C80B     		.2byte	0xbc8
 5268 065f 41040000 		.4byte	0x441
 5269 0663 12       		.uleb128 0x12
 5270 0664 B6070000 		.4byte	.LASF84
 5271 0668 01       		.byte	0x1
 5272 0669 C80B     		.2byte	0xbc8
 5273 066b A2000000 		.4byte	0xa2
 5274 066f 12       		.uleb128 0x12
 5275 0670 6F070000 		.4byte	.LASF85
 5276 0674 01       		.byte	0x1
 5277 0675 C90B     		.2byte	0xbc9
 5278 0677 A2000000 		.4byte	0xa2
 5279 067b 12       		.uleb128 0x12
 5280 067c 790D0000 		.4byte	.LASF86
 5281 0680 01       		.byte	0x1
 5282 0681 C90B     		.2byte	0xbc9
 5283 0683 A2000000 		.4byte	0xa2
 5284 0687 13       		.uleb128 0x13
 5285 0688 67070000 		.4byte	.LASF83
 5286 068c 01       		.byte	0x1
 5287 068d CB0B     		.2byte	0xbcb
 5288 068f A2000000 		.4byte	0xa2
 5289 0693 00       		.byte	0
 5290 0694 16       		.uleb128 0x16
 5291 0695 47060000 		.4byte	.LASF87
 5292 0699 01       		.byte	0x1
 5293 069a AA0B     		.2byte	0xbaa
 5294 069c 00000000 		.4byte	.LFB195
 5295 06a0 12000000 		.4byte	.LFE195-.LFB195
 5296 06a4 01       		.uleb128 0x1
 5297 06a5 9C       		.byte	0x9c
 5298 06a6 C9060000 		.4byte	0x6c9
 5299 06aa 17       		.uleb128 0x17
 5300 06ab AB060000 		.4byte	.LASF67
 5301 06af 01       		.byte	0x1
ARM GAS  C:\Users\Grillmo\AppData\Local\Temp\ccN7xt8j.s 			page 94


 5302 06b0 AA0B     		.2byte	0xbaa
 5303 06b2 41040000 		.4byte	0x441
 5304 06b6 01       		.uleb128 0x1
 5305 06b7 50       		.byte	0x50
 5306 06b8 18       		.uleb128 0x18
 5307 06b9 FB040000 		.4byte	.LASF88
 5308 06bd 01       		.byte	0x1
 5309 06be AA0B     		.2byte	0xbaa
 5310 06c0 A2000000 		.4byte	0xa2
 5311 06c4 DA000000 		.4byte	.LLST209
 5312 06c8 00       		.byte	0
 5313 06c9 16       		.uleb128 0x16
 5314 06ca 33060000 		.4byte	.LASF89
 5315 06ce 01       		.byte	0x1
 5316 06cf 930B     		.2byte	0xb93
 5317 06d1 00000000 		.4byte	.LFB194
 5318 06d5 12000000 		.4byte	.LFE194-.LFB194
 5319 06d9 01       		.uleb128 0x1
 5320 06da 9C       		.byte	0x9c
 5321 06db FE060000 		.4byte	0x6fe
 5322 06df 17       		.uleb128 0x17
 5323 06e0 AB060000 		.4byte	.LASF67
 5324 06e4 01       		.byte	0x1
 5325 06e5 930B     		.2byte	0xb93
 5326 06e7 41040000 		.4byte	0x441
 5327 06eb 01       		.uleb128 0x1
 5328 06ec 50       		.byte	0x50
 5329 06ed 18       		.uleb128 0x18
 5330 06ee 330C0000 		.4byte	.LASF90
 5331 06f2 01       		.byte	0x1
 5332 06f3 930B     		.2byte	0xb93
 5333 06f5 A2000000 		.4byte	0xa2
 5334 06f9 FB000000 		.4byte	.LLST208
 5335 06fd 00       		.byte	0
 5336 06fe 16       		.uleb128 0x16
 5337 06ff EA060000 		.4byte	.LASF91
 5338 0703 01       		.byte	0x1
 5339 0704 7B0B     		.2byte	0xb7b
 5340 0706 00000000 		.4byte	.LFB193
 5341 070a 12000000 		.4byte	.LFE193-.LFB193
 5342 070e 01       		.uleb128 0x1
 5343 070f 9C       		.byte	0x9c
 5344 0710 33070000 		.4byte	0x733
 5345 0714 17       		.uleb128 0x17
 5346 0715 AB060000 		.4byte	.LASF67
 5347 0719 01       		.byte	0x1
 5348 071a 7B0B     		.2byte	0xb7b
 5349 071c 41040000 		.4byte	0x441
 5350 0720 01       		.uleb128 0x1
 5351 0721 50       		.byte	0x50
 5352 0722 18       		.uleb128 0x18
 5353 0723 77000000 		.4byte	.LASF92
 5354 0727 01       		.byte	0x1
 5355 0728 7B0B     		.2byte	0xb7b
 5356 072a A2000000 		.4byte	0xa2
 5357 072e 1C010000 		.4byte	.LLST207
 5358 0732 00       		.byte	0
ARM GAS  C:\Users\Grillmo\AppData\Local\Temp\ccN7xt8j.s 			page 95


 5359 0733 1A       		.uleb128 0x1a
 5360 0734 6F010000 		.4byte	.LASF94
 5361 0738 01       		.byte	0x1
 5362 0739 500B     		.2byte	0xb50
 5363 073b 01       		.byte	0x1
 5364 073c 65070000 		.4byte	0x765
 5365 0740 12       		.uleb128 0x12
 5366 0741 AB060000 		.4byte	.LASF67
 5367 0745 01       		.byte	0x1
 5368 0746 500B     		.2byte	0xb50
 5369 0748 41040000 		.4byte	0x441
 5370 074c 12       		.uleb128 0x12
 5371 074d 60000000 		.4byte	.LASF95
 5372 0751 01       		.byte	0x1
 5373 0752 500B     		.2byte	0xb50
 5374 0754 A2000000 		.4byte	0xa2
 5375 0758 13       		.uleb128 0x13
 5376 0759 67070000 		.4byte	.LASF83
 5377 075d 01       		.byte	0x1
 5378 075e 520B     		.2byte	0xb52
 5379 0760 A2000000 		.4byte	0xa2
 5380 0764 00       		.byte	0
 5381 0765 16       		.uleb128 0x16
 5382 0766 1C0B0000 		.4byte	.LASF96
 5383 076a 01       		.byte	0x1
 5384 076b 090B     		.2byte	0xb09
 5385 076d 00000000 		.4byte	.LFB191
 5386 0771 20000000 		.4byte	.LFE191-.LFB191
 5387 0775 01       		.uleb128 0x1
 5388 0776 9C       		.byte	0x9c
 5389 0777 00080000 		.4byte	0x800
 5390 077b 17       		.uleb128 0x17
 5391 077c AB060000 		.4byte	.LASF67
 5392 0780 01       		.byte	0x1
 5393 0781 090B     		.2byte	0xb09
 5394 0783 41040000 		.4byte	0x441
 5395 0787 01       		.uleb128 0x1
 5396 0788 50       		.byte	0x50
 5397 0789 18       		.uleb128 0x18
 5398 078a B6070000 		.4byte	.LASF84
 5399 078e 01       		.byte	0x1
 5400 078f 090B     		.2byte	0xb09
 5401 0791 A2000000 		.4byte	0xa2
 5402 0795 3D010000 		.4byte	.LLST198
 5403 0799 17       		.uleb128 0x17
 5404 079a 6F070000 		.4byte	.LASF85
 5405 079e 01       		.byte	0x1
 5406 079f 0A0B     		.2byte	0xb0a
 5407 07a1 A2000000 		.4byte	0xa2
 5408 07a5 01       		.uleb128 0x1
 5409 07a6 52       		.byte	0x52
 5410 07a7 18       		.uleb128 0x18
 5411 07a8 790D0000 		.4byte	.LASF86
 5412 07ac 01       		.byte	0x1
 5413 07ad 0A0B     		.2byte	0xb0a
 5414 07af A2000000 		.4byte	0xa2
 5415 07b3 5E010000 		.4byte	.LLST199
ARM GAS  C:\Users\Grillmo\AppData\Local\Temp\ccN7xt8j.s 			page 96


 5416 07b7 1B       		.uleb128 0x1b
 5417 07b8 4A060000 		.4byte	0x64a
 5418 07bc 02000000 		.4byte	.LBB100
 5419 07c0 10000000 		.4byte	.LBE100-.LBB100
 5420 07c4 01       		.byte	0x1
 5421 07c5 130B     		.2byte	0xb13
 5422 07c7 1C       		.uleb128 0x1c
 5423 07c8 7B060000 		.4byte	0x67b
 5424 07cc 7F010000 		.4byte	.LLST200
 5425 07d0 1C       		.uleb128 0x1c
 5426 07d1 6F060000 		.4byte	0x66f
 5427 07d5 A0010000 		.4byte	.LLST201
 5428 07d9 1C       		.uleb128 0x1c
 5429 07da 63060000 		.4byte	0x663
 5430 07de B3010000 		.4byte	.LLST202
 5431 07e2 1C       		.uleb128 0x1c
 5432 07e3 57060000 		.4byte	0x657
 5433 07e7 D4010000 		.4byte	.LLST203
 5434 07eb 1D       		.uleb128 0x1d
 5435 07ec 02000000 		.4byte	.LBB101
 5436 07f0 10000000 		.4byte	.LBE101-.LBB101
 5437 07f4 1E       		.uleb128 0x1e
 5438 07f5 87060000 		.4byte	0x687
 5439 07f9 E7010000 		.4byte	.LLST204
 5440 07fd 00       		.byte	0
 5441 07fe 00       		.byte	0
 5442 07ff 00       		.byte	0
 5443 0800 16       		.uleb128 0x16
 5444 0801 E0020000 		.4byte	.LASF97
 5445 0805 01       		.byte	0x1
 5446 0806 DA0A     		.2byte	0xada
 5447 0808 00000000 		.4byte	.LFB190
 5448 080c 26000000 		.4byte	.LFE190-.LFB190
 5449 0810 01       		.uleb128 0x1
 5450 0811 9C       		.byte	0x9c
 5451 0812 AB080000 		.4byte	0x8ab
 5452 0816 17       		.uleb128 0x17
 5453 0817 AB060000 		.4byte	.LASF67
 5454 081b 01       		.byte	0x1
 5455 081c DA0A     		.2byte	0xada
 5456 081e 41040000 		.4byte	0x441
 5457 0822 01       		.uleb128 0x1
 5458 0823 50       		.byte	0x50
 5459 0824 18       		.uleb128 0x18
 5460 0825 B6070000 		.4byte	.LASF84
 5461 0829 01       		.byte	0x1
 5462 082a DA0A     		.2byte	0xada
 5463 082c A2000000 		.4byte	0xa2
 5464 0830 20020000 		.4byte	.LLST190
 5465 0834 17       		.uleb128 0x17
 5466 0835 6F070000 		.4byte	.LASF85
 5467 0839 01       		.byte	0x1
 5468 083a DB0A     		.2byte	0xadb
 5469 083c A2000000 		.4byte	0xa2
 5470 0840 01       		.uleb128 0x1
 5471 0841 52       		.byte	0x52
 5472 0842 18       		.uleb128 0x18
ARM GAS  C:\Users\Grillmo\AppData\Local\Temp\ccN7xt8j.s 			page 97


 5473 0843 790D0000 		.4byte	.LASF86
 5474 0847 01       		.byte	0x1
 5475 0848 DB0A     		.2byte	0xadb
 5476 084a A2000000 		.4byte	0xa2
 5477 084e 41020000 		.4byte	.LLST191
 5478 0852 19       		.uleb128 0x19
 5479 0853 67070000 		.4byte	.LASF83
 5480 0857 01       		.byte	0x1
 5481 0858 DD0A     		.2byte	0xadd
 5482 085a A2000000 		.4byte	0xa2
 5483 085e 62020000 		.4byte	.LLST192
 5484 0862 1B       		.uleb128 0x1b
 5485 0863 4A060000 		.4byte	0x64a
 5486 0867 02000000 		.4byte	.LBB98
 5487 086b 10000000 		.4byte	.LBE98-.LBB98
 5488 086f 01       		.byte	0x1
 5489 0870 E50A     		.2byte	0xae5
 5490 0872 1C       		.uleb128 0x1c
 5491 0873 7B060000 		.4byte	0x67b
 5492 0877 95020000 		.4byte	.LLST193
 5493 087b 1C       		.uleb128 0x1c
 5494 087c 6F060000 		.4byte	0x66f
 5495 0880 B6020000 		.4byte	.LLST194
 5496 0884 1C       		.uleb128 0x1c
 5497 0885 63060000 		.4byte	0x663
 5498 0889 C9020000 		.4byte	.LLST195
 5499 088d 1C       		.uleb128 0x1c
 5500 088e 57060000 		.4byte	0x657
 5501 0892 EA020000 		.4byte	.LLST196
 5502 0896 1D       		.uleb128 0x1d
 5503 0897 02000000 		.4byte	.LBB99
 5504 089b 10000000 		.4byte	.LBE99-.LBB99
 5505 089f 1E       		.uleb128 0x1e
 5506 08a0 87060000 		.4byte	0x687
 5507 08a4 FD020000 		.4byte	.LLST197
 5508 08a8 00       		.byte	0
 5509 08a9 00       		.byte	0
 5510 08aa 00       		.byte	0
 5511 08ab 16       		.uleb128 0x16
 5512 08ac 70090000 		.4byte	.LASF98
 5513 08b0 01       		.byte	0x1
 5514 08b1 B20A     		.2byte	0xab2
 5515 08b3 00000000 		.4byte	.LFB189
 5516 08b7 80000000 		.4byte	.LFE189-.LFB189
 5517 08bb 01       		.uleb128 0x1
 5518 08bc 9C       		.byte	0x9c
 5519 08bd E4090000 		.4byte	0x9e4
 5520 08c1 17       		.uleb128 0x17
 5521 08c2 AB060000 		.4byte	.LASF67
 5522 08c6 01       		.byte	0x1
 5523 08c7 B20A     		.2byte	0xab2
 5524 08c9 41040000 		.4byte	0x441
 5525 08cd 01       		.uleb128 0x1
 5526 08ce 50       		.byte	0x50
 5527 08cf 18       		.uleb128 0x18
 5528 08d0 9F0A0000 		.4byte	.LASF99
 5529 08d4 01       		.byte	0x1
ARM GAS  C:\Users\Grillmo\AppData\Local\Temp\ccN7xt8j.s 			page 98


 5530 08d5 B20A     		.2byte	0xab2
 5531 08d7 A2000000 		.4byte	0xa2
 5532 08db 36030000 		.4byte	.LLST173
 5533 08df 18       		.uleb128 0x18
 5534 08e0 33090000 		.4byte	.LASF54
 5535 08e4 01       		.byte	0x1
 5536 08e5 B30A     		.2byte	0xab3
 5537 08e7 A2000000 		.4byte	0xa2
 5538 08eb 62030000 		.4byte	.LLST174
 5539 08ef 18       		.uleb128 0x18
 5540 08f0 600D0000 		.4byte	.LASF100
 5541 08f4 01       		.byte	0x1
 5542 08f5 B30A     		.2byte	0xab3
 5543 08f7 A2000000 		.4byte	0xa2
 5544 08fb 9C030000 		.4byte	.LLST175
 5545 08ff 1F       		.uleb128 0x1f
 5546 0900 0B050000 		.4byte	0x50b
 5547 0904 06000000 		.4byte	.LBB92
 5548 0908 2E000000 		.4byte	.LBE92-.LBB92
 5549 090c 01       		.byte	0x1
 5550 090d C10A     		.2byte	0xac1
 5551 090f 54090000 		.4byte	0x954
 5552 0913 1C       		.uleb128 0x1c
 5553 0914 3C050000 		.4byte	0x53c
 5554 0918 D6030000 		.4byte	.LLST176
 5555 091c 1C       		.uleb128 0x1c
 5556 091d 30050000 		.4byte	0x530
 5557 0921 E9030000 		.4byte	.LLST177
 5558 0925 1C       		.uleb128 0x1c
 5559 0926 24050000 		.4byte	0x524
 5560 092a FD030000 		.4byte	.LLST178
 5561 092e 1C       		.uleb128 0x1c
 5562 092f 18050000 		.4byte	0x518
 5563 0933 1E040000 		.4byte	.LLST179
 5564 0937 1D       		.uleb128 0x1d
 5565 0938 06000000 		.4byte	.LBB93
 5566 093c 2E000000 		.4byte	.LBE93-.LBB93
 5567 0940 1E       		.uleb128 0x1e
 5568 0941 48050000 		.4byte	0x548
 5569 0945 31040000 		.4byte	.LLST180
 5570 0949 1E       		.uleb128 0x1e
 5571 094a 54050000 		.4byte	0x554
 5572 094e 7C040000 		.4byte	.LLST181
 5573 0952 00       		.byte	0
 5574 0953 00       		.byte	0
 5575 0954 1F       		.uleb128 0x1f
 5576 0955 33070000 		.4byte	0x733
 5577 0959 34000000 		.4byte	.LBB94
 5578 095d 0C000000 		.4byte	.LBE94-.LBB94
 5579 0961 01       		.byte	0x1
 5580 0962 C40A     		.2byte	0xac4
 5581 0964 8E090000 		.4byte	0x98e
 5582 0968 1C       		.uleb128 0x1c
 5583 0969 4C070000 		.4byte	0x74c
 5584 096d 9B040000 		.4byte	.LLST182
 5585 0971 1C       		.uleb128 0x1c
 5586 0972 40070000 		.4byte	0x740
ARM GAS  C:\Users\Grillmo\AppData\Local\Temp\ccN7xt8j.s 			page 99


 5587 0976 BC040000 		.4byte	.LLST183
 5588 097a 1D       		.uleb128 0x1d
 5589 097b 34000000 		.4byte	.LBB95
 5590 097f 0C000000 		.4byte	.LBE95-.LBB95
 5591 0983 1E       		.uleb128 0x1e
 5592 0984 58070000 		.4byte	0x758
 5593 0988 CF040000 		.4byte	.LLST184
 5594 098c 00       		.byte	0
 5595 098d 00       		.byte	0
 5596 098e 1B       		.uleb128 0x1b
 5597 098f A9040000 		.4byte	0x4a9
 5598 0993 4C000000 		.4byte	.LBB96
 5599 0997 34000000 		.4byte	.LBE96-.LBB96
 5600 099b 01       		.byte	0x1
 5601 099c BD0A     		.2byte	0xabd
 5602 099e 1C       		.uleb128 0x1c
 5603 099f DA040000 		.4byte	0x4da
 5604 09a3 0F050000 		.4byte	.LLST185
 5605 09a7 20       		.uleb128 0x20
 5606 09a8 CE040000 		.4byte	0x4ce
 5607 09ac 01       		.byte	0x1
 5608 09ad 1C       		.uleb128 0x1c
 5609 09ae C2040000 		.4byte	0x4c2
 5610 09b2 30050000 		.4byte	.LLST186
 5611 09b6 21       		.uleb128 0x21
 5612 09b7 B6040000 		.4byte	0x4b6
 5613 09bb 01       		.uleb128 0x1
 5614 09bc 50       		.byte	0x50
 5615 09bd 1D       		.uleb128 0x1d
 5616 09be 4C000000 		.4byte	.LBB97
 5617 09c2 34000000 		.4byte	.LBE97-.LBB97
 5618 09c6 1E       		.uleb128 0x1e
 5619 09c7 E6040000 		.4byte	0x4e6
 5620 09cb 51050000 		.4byte	.LLST187
 5621 09cf 1E       		.uleb128 0x1e
 5622 09d0 F2040000 		.4byte	0x4f2
 5623 09d4 9D050000 		.4byte	.LLST188
 5624 09d8 1E       		.uleb128 0x1e
 5625 09d9 FE040000 		.4byte	0x4fe
 5626 09dd E5050000 		.4byte	.LLST189
 5627 09e1 00       		.byte	0
 5628 09e2 00       		.byte	0
 5629 09e3 00       		.byte	0
 5630 09e4 16       		.uleb128 0x16
 5631 09e5 020A0000 		.4byte	.LASF101
 5632 09e9 01       		.byte	0x1
 5633 09ea 940A     		.2byte	0xa94
 5634 09ec 00000000 		.4byte	.LFB188
 5635 09f0 16000000 		.4byte	.LFE188-.LFB188
 5636 09f4 01       		.uleb128 0x1
 5637 09f5 9C       		.byte	0x9c
 5638 09f6 4F0A0000 		.4byte	0xa4f
 5639 09fa 17       		.uleb128 0x17
 5640 09fb AB060000 		.4byte	.LASF67
 5641 09ff 01       		.byte	0x1
 5642 0a00 940A     		.2byte	0xa94
 5643 0a02 41040000 		.4byte	0x441
ARM GAS  C:\Users\Grillmo\AppData\Local\Temp\ccN7xt8j.s 			page 100


 5644 0a06 01       		.uleb128 0x1
 5645 0a07 50       		.byte	0x50
 5646 0a08 18       		.uleb128 0x18
 5647 0a09 60000000 		.4byte	.LASF95
 5648 0a0d 01       		.byte	0x1
 5649 0a0e 940A     		.2byte	0xa94
 5650 0a10 A2000000 		.4byte	0xa2
 5651 0a14 18060000 		.4byte	.LLST169
 5652 0a18 1B       		.uleb128 0x1b
 5653 0a19 33070000 		.4byte	0x733
 5654 0a1d 00000000 		.4byte	.LBB90
 5655 0a21 0C000000 		.4byte	.LBE90-.LBB90
 5656 0a25 01       		.byte	0x1
 5657 0a26 9B0A     		.2byte	0xa9b
 5658 0a28 1C       		.uleb128 0x1c
 5659 0a29 4C070000 		.4byte	0x74c
 5660 0a2d 39060000 		.4byte	.LLST170
 5661 0a31 1C       		.uleb128 0x1c
 5662 0a32 40070000 		.4byte	0x740
 5663 0a36 5A060000 		.4byte	.LLST171
 5664 0a3a 1D       		.uleb128 0x1d
 5665 0a3b 00000000 		.4byte	.LBB91
 5666 0a3f 0C000000 		.4byte	.LBE91-.LBB91
 5667 0a43 1E       		.uleb128 0x1e
 5668 0a44 58070000 		.4byte	0x758
 5669 0a48 6D060000 		.4byte	.LLST172
 5670 0a4c 00       		.byte	0
 5671 0a4d 00       		.byte	0
 5672 0a4e 00       		.byte	0
 5673 0a4f 16       		.uleb128 0x16
 5674 0a50 AA010000 		.4byte	.LASF102
 5675 0a54 01       		.byte	0x1
 5676 0a55 7F0A     		.2byte	0xa7f
 5677 0a57 00000000 		.4byte	.LFB187
 5678 0a5b 0C000000 		.4byte	.LFE187-.LFB187
 5679 0a5f 01       		.uleb128 0x1
 5680 0a60 9C       		.byte	0x9c
 5681 0a61 740A0000 		.4byte	0xa74
 5682 0a65 17       		.uleb128 0x17
 5683 0a66 AB060000 		.4byte	.LASF67
 5684 0a6a 01       		.byte	0x1
 5685 0a6b 7F0A     		.2byte	0xa7f
 5686 0a6d 41040000 		.4byte	0x441
 5687 0a71 01       		.uleb128 0x1
 5688 0a72 50       		.byte	0x50
 5689 0a73 00       		.byte	0
 5690 0a74 16       		.uleb128 0x16
 5691 0a75 C6030000 		.4byte	.LASF103
 5692 0a79 01       		.byte	0x1
 5693 0a7a 580A     		.2byte	0xa58
 5694 0a7c 00000000 		.4byte	.LFB186
 5695 0a80 16000000 		.4byte	.LFE186-.LFB186
 5696 0a84 01       		.uleb128 0x1
 5697 0a85 9C       		.byte	0x9c
 5698 0a86 A70A0000 		.4byte	0xaa7
 5699 0a8a 17       		.uleb128 0x17
 5700 0a8b AB060000 		.4byte	.LASF67
ARM GAS  C:\Users\Grillmo\AppData\Local\Temp\ccN7xt8j.s 			page 101


 5701 0a8f 01       		.byte	0x1
 5702 0a90 580A     		.2byte	0xa58
 5703 0a92 41040000 		.4byte	0x441
 5704 0a96 01       		.uleb128 0x1
 5705 0a97 50       		.byte	0x50
 5706 0a98 17       		.uleb128 0x17
 5707 0a99 0B000000 		.4byte	.LASF78
 5708 0a9d 01       		.byte	0x1
 5709 0a9e 580A     		.2byte	0xa58
 5710 0aa0 58020000 		.4byte	0x258
 5711 0aa4 01       		.uleb128 0x1
 5712 0aa5 51       		.byte	0x51
 5713 0aa6 00       		.byte	0
 5714 0aa7 16       		.uleb128 0x16
 5715 0aa8 3F000000 		.4byte	.LASF104
 5716 0aac 01       		.byte	0x1
 5717 0aad 3E0A     		.2byte	0xa3e
 5718 0aaf 00000000 		.4byte	.LFB185
 5719 0ab3 16000000 		.4byte	.LFE185-.LFB185
 5720 0ab7 01       		.uleb128 0x1
 5721 0ab8 9C       		.byte	0x9c
 5722 0ab9 EA0A0000 		.4byte	0xaea
 5723 0abd 17       		.uleb128 0x17
 5724 0abe AB060000 		.4byte	.LASF67
 5725 0ac2 01       		.byte	0x1
 5726 0ac3 3E0A     		.2byte	0xa3e
 5727 0ac5 41040000 		.4byte	0x441
 5728 0ac9 01       		.uleb128 0x1
 5729 0aca 50       		.byte	0x50
 5730 0acb 18       		.uleb128 0x18
 5731 0acc 30070000 		.4byte	.LASF105
 5732 0ad0 01       		.byte	0x1
 5733 0ad1 3E0A     		.2byte	0xa3e
 5734 0ad3 A2000000 		.4byte	0xa2
 5735 0ad7 AD060000 		.4byte	.LLST168
 5736 0adb 17       		.uleb128 0x17
 5737 0adc 0B000000 		.4byte	.LASF78
 5738 0ae0 01       		.byte	0x1
 5739 0ae1 3E0A     		.2byte	0xa3e
 5740 0ae3 58020000 		.4byte	0x258
 5741 0ae7 01       		.uleb128 0x1
 5742 0ae8 52       		.byte	0x52
 5743 0ae9 00       		.byte	0
 5744 0aea 16       		.uleb128 0x16
 5745 0aeb A6020000 		.4byte	.LASF106
 5746 0aef 01       		.byte	0x1
 5747 0af0 230A     		.2byte	0xa23
 5748 0af2 00000000 		.4byte	.LFB184
 5749 0af6 06000000 		.4byte	.LFE184-.LFB184
 5750 0afa 01       		.uleb128 0x1
 5751 0afb 9C       		.byte	0x9c
 5752 0afc 2D0B0000 		.4byte	0xb2d
 5753 0b00 17       		.uleb128 0x17
 5754 0b01 AB060000 		.4byte	.LASF67
 5755 0b05 01       		.byte	0x1
 5756 0b06 230A     		.2byte	0xa23
 5757 0b08 41040000 		.4byte	0x441
ARM GAS  C:\Users\Grillmo\AppData\Local\Temp\ccN7xt8j.s 			page 102


 5758 0b0c 01       		.uleb128 0x1
 5759 0b0d 50       		.byte	0x50
 5760 0b0e 17       		.uleb128 0x17
 5761 0b0f 5E080000 		.4byte	.LASF107
 5762 0b13 01       		.byte	0x1
 5763 0b14 230A     		.2byte	0xa23
 5764 0b16 A2000000 		.4byte	0xa2
 5765 0b1a 01       		.uleb128 0x1
 5766 0b1b 51       		.byte	0x51
 5767 0b1c 18       		.uleb128 0x18
 5768 0b1d 0D040000 		.4byte	.LASF108
 5769 0b21 01       		.byte	0x1
 5770 0b22 230A     		.2byte	0xa23
 5771 0b24 A2000000 		.4byte	0xa2
 5772 0b28 E7060000 		.4byte	.LLST167
 5773 0b2c 00       		.byte	0
 5774 0b2d 1A       		.uleb128 0x1a
 5775 0b2e 840B0000 		.4byte	.LASF109
 5776 0b32 01       		.byte	0x1
 5777 0b33 FE09     		.2byte	0x9fe
 5778 0b35 01       		.byte	0x1
 5779 0b36 530B0000 		.4byte	0xb53
 5780 0b3a 12       		.uleb128 0x12
 5781 0b3b AB060000 		.4byte	.LASF67
 5782 0b3f 01       		.byte	0x1
 5783 0b40 FE09     		.2byte	0x9fe
 5784 0b42 41040000 		.4byte	0x441
 5785 0b46 12       		.uleb128 0x12
 5786 0b47 D9020000 		.4byte	.LASF110
 5787 0b4b 01       		.byte	0x1
 5788 0b4c FE09     		.2byte	0x9fe
 5789 0b4e A2000000 		.4byte	0xa2
 5790 0b52 00       		.byte	0
 5791 0b53 22       		.uleb128 0x22
 5792 0b54 98080000 		.4byte	.LASF115
 5793 0b58 01       		.byte	0x1
 5794 0b59 D509     		.2byte	0x9d5
 5795 0b5b 34020000 		.4byte	0x234
 5796 0b5f 00000000 		.4byte	.LFB182
 5797 0b63 14000000 		.4byte	.LFE182-.LFB182
 5798 0b67 01       		.uleb128 0x1
 5799 0b68 9C       		.byte	0x9c
 5800 0b69 BC0B0000 		.4byte	0xbbc
 5801 0b6d 18       		.uleb128 0x18
 5802 0b6e AB060000 		.4byte	.LASF67
 5803 0b72 01       		.byte	0x1
 5804 0b73 D509     		.2byte	0x9d5
 5805 0b75 41040000 		.4byte	0x441
 5806 0b79 08070000 		.4byte	.LLST162
 5807 0b7d 17       		.uleb128 0x17
 5808 0b7e D9020000 		.4byte	.LASF110
 5809 0b82 01       		.byte	0x1
 5810 0b83 D509     		.2byte	0x9d5
 5811 0b85 A2000000 		.4byte	0xa2
 5812 0b89 01       		.uleb128 0x1
 5813 0b8a 51       		.byte	0x51
 5814 0b8b 19       		.uleb128 0x19
ARM GAS  C:\Users\Grillmo\AppData\Local\Temp\ccN7xt8j.s 			page 103


 5815 0b8c 560D0000 		.4byte	.LASF111
 5816 0b90 01       		.byte	0x1
 5817 0b91 D709     		.2byte	0x9d7
 5818 0b93 34020000 		.4byte	0x234
 5819 0b97 29070000 		.4byte	.LLST163
 5820 0b9b 19       		.uleb128 0x19
 5821 0b9c 55080000 		.4byte	.LASF112
 5822 0ba0 01       		.byte	0x1
 5823 0ba1 D809     		.2byte	0x9d8
 5824 0ba3 A2000000 		.4byte	0xa2
 5825 0ba7 48070000 		.4byte	.LLST164
 5826 0bab 19       		.uleb128 0x19
 5827 0bac E80C0000 		.4byte	.LASF113
 5828 0bb0 01       		.byte	0x1
 5829 0bb1 D809     		.2byte	0x9d8
 5830 0bb3 A2000000 		.4byte	0xa2
 5831 0bb7 6C070000 		.4byte	.LLST165
 5832 0bbb 00       		.byte	0
 5833 0bbc 23       		.uleb128 0x23
 5834 0bbd 20040000 		.4byte	.LASF119
 5835 0bc1 01       		.byte	0x1
 5836 0bc2 B909     		.2byte	0x9b9
 5837 0bc4 E10B0000 		.4byte	0xbe1
 5838 0bc8 12       		.uleb128 0x12
 5839 0bc9 AB060000 		.4byte	.LASF67
 5840 0bcd 01       		.byte	0x1
 5841 0bce B909     		.2byte	0x9b9
 5842 0bd0 41040000 		.4byte	0x441
 5843 0bd4 12       		.uleb128 0x12
 5844 0bd5 DA000000 		.4byte	.LASF114
 5845 0bd9 01       		.byte	0x1
 5846 0bda B909     		.2byte	0x9b9
 5847 0bdc A2000000 		.4byte	0xa2
 5848 0be0 00       		.byte	0
 5849 0be1 22       		.uleb128 0x22
 5850 0be2 61060000 		.4byte	.LASF116
 5851 0be6 01       		.byte	0x1
 5852 0be7 8F09     		.2byte	0x98f
 5853 0be9 29020000 		.4byte	0x229
 5854 0bed 00000000 		.4byte	.LFB180
 5855 0bf1 0C000000 		.4byte	.LFE180-.LFB180
 5856 0bf5 01       		.uleb128 0x1
 5857 0bf6 9C       		.byte	0x9c
 5858 0bf7 2A0C0000 		.4byte	0xc2a
 5859 0bfb 18       		.uleb128 0x18
 5860 0bfc AB060000 		.4byte	.LASF67
 5861 0c00 01       		.byte	0x1
 5862 0c01 8F09     		.2byte	0x98f
 5863 0c03 41040000 		.4byte	0x441
 5864 0c07 90070000 		.4byte	.LLST160
 5865 0c0b 17       		.uleb128 0x17
 5866 0c0c DA000000 		.4byte	.LASF114
 5867 0c10 01       		.byte	0x1
 5868 0c11 8F09     		.2byte	0x98f
 5869 0c13 A2000000 		.4byte	0xa2
 5870 0c17 01       		.uleb128 0x1
 5871 0c18 51       		.byte	0x51
ARM GAS  C:\Users\Grillmo\AppData\Local\Temp\ccN7xt8j.s 			page 104


 5872 0c19 19       		.uleb128 0x19
 5873 0c1a 560D0000 		.4byte	.LASF111
 5874 0c1e 01       		.byte	0x1
 5875 0c1f 9109     		.2byte	0x991
 5876 0c21 34020000 		.4byte	0x234
 5877 0c25 B1070000 		.4byte	.LLST161
 5878 0c29 00       		.byte	0
 5879 0c2a 16       		.uleb128 0x16
 5880 0c2b 3F020000 		.4byte	.LASF117
 5881 0c2f 01       		.byte	0x1
 5882 0c30 6E09     		.2byte	0x96e
 5883 0c32 00000000 		.4byte	.LFB179
 5884 0c36 04000000 		.4byte	.LFE179-.LFB179
 5885 0c3a 01       		.uleb128 0x1
 5886 0c3b 9C       		.byte	0x9c
 5887 0c3c 5D0C0000 		.4byte	0xc5d
 5888 0c40 17       		.uleb128 0x17
 5889 0c41 AB060000 		.4byte	.LASF67
 5890 0c45 01       		.byte	0x1
 5891 0c46 6E09     		.2byte	0x96e
 5892 0c48 41040000 		.4byte	0x441
 5893 0c4c 01       		.uleb128 0x1
 5894 0c4d 50       		.byte	0x50
 5895 0c4e 17       		.uleb128 0x17
 5896 0c4f 23090000 		.4byte	.LASF118
 5897 0c53 01       		.byte	0x1
 5898 0c54 6E09     		.2byte	0x96e
 5899 0c56 A2000000 		.4byte	0xa2
 5900 0c5a 01       		.uleb128 0x1
 5901 0c5b 51       		.byte	0x51
 5902 0c5c 00       		.byte	0
 5903 0c5d 23       		.uleb128 0x23
 5904 0c5e AF090000 		.4byte	.LASF120
 5905 0c62 01       		.byte	0x1
 5906 0c63 4809     		.2byte	0x948
 5907 0c65 8E0C0000 		.4byte	0xc8e
 5908 0c69 12       		.uleb128 0x12
 5909 0c6a AB060000 		.4byte	.LASF67
 5910 0c6e 01       		.byte	0x1
 5911 0c6f 4809     		.2byte	0x948
 5912 0c71 41040000 		.4byte	0x441
 5913 0c75 12       		.uleb128 0x12
 5914 0c76 D9020000 		.4byte	.LASF110
 5915 0c7a 01       		.byte	0x1
 5916 0c7b 4809     		.2byte	0x948
 5917 0c7d A2000000 		.4byte	0xa2
 5918 0c81 12       		.uleb128 0x12
 5919 0c82 0B000000 		.4byte	.LASF78
 5920 0c86 01       		.byte	0x1
 5921 0c87 4809     		.2byte	0x948
 5922 0c89 58020000 		.4byte	0x258
 5923 0c8d 00       		.byte	0
 5924 0c8e 16       		.uleb128 0x16
 5925 0c8f 850C0000 		.4byte	.LASF121
 5926 0c93 01       		.byte	0x1
 5927 0c94 0F09     		.2byte	0x90f
 5928 0c96 00000000 		.4byte	.LFB177
ARM GAS  C:\Users\Grillmo\AppData\Local\Temp\ccN7xt8j.s 			page 105


 5929 0c9a 16000000 		.4byte	.LFE177-.LFB177
 5930 0c9e 01       		.uleb128 0x1
 5931 0c9f 9C       		.byte	0x9c
 5932 0ca0 C10C0000 		.4byte	0xcc1
 5933 0ca4 17       		.uleb128 0x17
 5934 0ca5 AB060000 		.4byte	.LASF67
 5935 0ca9 01       		.byte	0x1
 5936 0caa 0F09     		.2byte	0x90f
 5937 0cac 41040000 		.4byte	0x441
 5938 0cb0 01       		.uleb128 0x1
 5939 0cb1 50       		.byte	0x50
 5940 0cb2 17       		.uleb128 0x17
 5941 0cb3 0B000000 		.4byte	.LASF78
 5942 0cb7 01       		.byte	0x1
 5943 0cb8 0F09     		.2byte	0x90f
 5944 0cba 58020000 		.4byte	0x258
 5945 0cbe 01       		.uleb128 0x1
 5946 0cbf 51       		.byte	0x51
 5947 0cc0 00       		.byte	0
 5948 0cc1 16       		.uleb128 0x16
 5949 0cc2 4E040000 		.4byte	.LASF122
 5950 0cc6 01       		.byte	0x1
 5951 0cc7 F608     		.2byte	0x8f6
 5952 0cc9 00000000 		.4byte	.LFB176
 5953 0ccd 16000000 		.4byte	.LFE176-.LFB176
 5954 0cd1 01       		.uleb128 0x1
 5955 0cd2 9C       		.byte	0x9c
 5956 0cd3 F40C0000 		.4byte	0xcf4
 5957 0cd7 17       		.uleb128 0x17
 5958 0cd8 AB060000 		.4byte	.LASF67
 5959 0cdc 01       		.byte	0x1
 5960 0cdd F608     		.2byte	0x8f6
 5961 0cdf 41040000 		.4byte	0x441
 5962 0ce3 01       		.uleb128 0x1
 5963 0ce4 50       		.byte	0x50
 5964 0ce5 17       		.uleb128 0x17
 5965 0ce6 0B000000 		.4byte	.LASF78
 5966 0cea 01       		.byte	0x1
 5967 0ceb F608     		.2byte	0x8f6
 5968 0ced 58020000 		.4byte	0x258
 5969 0cf1 01       		.uleb128 0x1
 5970 0cf2 51       		.byte	0x51
 5971 0cf3 00       		.byte	0
 5972 0cf4 16       		.uleb128 0x16
 5973 0cf5 960D0000 		.4byte	.LASF123
 5974 0cf9 01       		.byte	0x1
 5975 0cfa DD08     		.2byte	0x8dd
 5976 0cfc 00000000 		.4byte	.LFB175
 5977 0d00 14000000 		.4byte	.LFE175-.LFB175
 5978 0d04 01       		.uleb128 0x1
 5979 0d05 9C       		.byte	0x9c
 5980 0d06 270D0000 		.4byte	0xd27
 5981 0d0a 17       		.uleb128 0x17
 5982 0d0b AB060000 		.4byte	.LASF67
 5983 0d0f 01       		.byte	0x1
 5984 0d10 DD08     		.2byte	0x8dd
 5985 0d12 41040000 		.4byte	0x441
ARM GAS  C:\Users\Grillmo\AppData\Local\Temp\ccN7xt8j.s 			page 106


 5986 0d16 01       		.uleb128 0x1
 5987 0d17 50       		.byte	0x50
 5988 0d18 17       		.uleb128 0x17
 5989 0d19 0B000000 		.4byte	.LASF78
 5990 0d1d 01       		.byte	0x1
 5991 0d1e DD08     		.2byte	0x8dd
 5992 0d20 58020000 		.4byte	0x258
 5993 0d24 01       		.uleb128 0x1
 5994 0d25 51       		.byte	0x51
 5995 0d26 00       		.byte	0
 5996 0d27 16       		.uleb128 0x16
 5997 0d28 82070000 		.4byte	.LASF124
 5998 0d2c 01       		.byte	0x1
 5999 0d2d CA08     		.2byte	0x8ca
 6000 0d2f 00000000 		.4byte	.LFB174
 6001 0d33 12000000 		.4byte	.LFE174-.LFB174
 6002 0d37 01       		.uleb128 0x1
 6003 0d38 9C       		.byte	0x9c
 6004 0d39 4C0D0000 		.4byte	0xd4c
 6005 0d3d 17       		.uleb128 0x17
 6006 0d3e B80A0000 		.4byte	.LASF125
 6007 0d42 01       		.byte	0x1
 6008 0d43 CA08     		.2byte	0x8ca
 6009 0d45 4C0D0000 		.4byte	0xd4c
 6010 0d49 01       		.uleb128 0x1
 6011 0d4a 50       		.byte	0x50
 6012 0d4b 00       		.byte	0
 6013 0d4c 15       		.uleb128 0x15
 6014 0d4d 04       		.byte	0x4
 6015 0d4e D4030000 		.4byte	0x3d4
 6016 0d52 16       		.uleb128 0x16
 6017 0d53 BC090000 		.4byte	.LASF126
 6018 0d57 01       		.byte	0x1
 6019 0d58 B108     		.2byte	0x8b1
 6020 0d5a 00000000 		.4byte	.LFB173
 6021 0d5e 24000000 		.4byte	.LFE173-.LFB173
 6022 0d62 01       		.uleb128 0x1
 6023 0d63 9C       		.byte	0x9c
 6024 0d64 870D0000 		.4byte	0xd87
 6025 0d68 17       		.uleb128 0x17
 6026 0d69 AB060000 		.4byte	.LASF67
 6027 0d6d 01       		.byte	0x1
 6028 0d6e B108     		.2byte	0x8b1
 6029 0d70 41040000 		.4byte	0x441
 6030 0d74 01       		.uleb128 0x1
 6031 0d75 50       		.byte	0x50
 6032 0d76 18       		.uleb128 0x18
 6033 0d77 B80A0000 		.4byte	.LASF125
 6034 0d7b 01       		.byte	0x1
 6035 0d7c B108     		.2byte	0x8b1
 6036 0d7e 4C0D0000 		.4byte	0xd4c
 6037 0d82 DB070000 		.4byte	.LLST159
 6038 0d86 00       		.byte	0
 6039 0d87 1A       		.uleb128 0x1a
 6040 0d88 F30D0000 		.4byte	.LASF127
 6041 0d8c 01       		.byte	0x1
 6042 0d8d 7C08     		.2byte	0x87c
ARM GAS  C:\Users\Grillmo\AppData\Local\Temp\ccN7xt8j.s 			page 107


 6043 0d8f 01       		.byte	0x1
 6044 0d90 AD0D0000 		.4byte	0xdad
 6045 0d94 12       		.uleb128 0x12
 6046 0d95 AB060000 		.4byte	.LASF67
 6047 0d99 01       		.byte	0x1
 6048 0d9a 7C08     		.2byte	0x87c
 6049 0d9c 41040000 		.4byte	0x441
 6050 0da0 12       		.uleb128 0x12
 6051 0da1 A90D0000 		.4byte	.LASF128
 6052 0da5 01       		.byte	0x1
 6053 0da6 7C08     		.2byte	0x87c
 6054 0da8 A2000000 		.4byte	0xa2
 6055 0dac 00       		.byte	0
 6056 0dad 1A       		.uleb128 0x1a
 6057 0dae 410B0000 		.4byte	.LASF129
 6058 0db2 01       		.byte	0x1
 6059 0db3 6408     		.2byte	0x864
 6060 0db5 01       		.byte	0x1
 6061 0db6 D30D0000 		.4byte	0xdd3
 6062 0dba 12       		.uleb128 0x12
 6063 0dbb AB060000 		.4byte	.LASF67
 6064 0dbf 01       		.byte	0x1
 6065 0dc0 6408     		.2byte	0x864
 6066 0dc2 41040000 		.4byte	0x441
 6067 0dc6 12       		.uleb128 0x12
 6068 0dc7 A90D0000 		.4byte	.LASF128
 6069 0dcb 01       		.byte	0x1
 6070 0dcc 6408     		.2byte	0x864
 6071 0dce A2000000 		.4byte	0xa2
 6072 0dd2 00       		.byte	0
 6073 0dd3 1A       		.uleb128 0x1a
 6074 0dd4 DA090000 		.4byte	.LASF130
 6075 0dd8 01       		.byte	0x1
 6076 0dd9 4C08     		.2byte	0x84c
 6077 0ddb 01       		.byte	0x1
 6078 0ddc F90D0000 		.4byte	0xdf9
 6079 0de0 12       		.uleb128 0x12
 6080 0de1 AB060000 		.4byte	.LASF67
 6081 0de5 01       		.byte	0x1
 6082 0de6 4C08     		.2byte	0x84c
 6083 0de8 41040000 		.4byte	0x441
 6084 0dec 12       		.uleb128 0x12
 6085 0ded A90D0000 		.4byte	.LASF128
 6086 0df1 01       		.byte	0x1
 6087 0df2 4C08     		.2byte	0x84c
 6088 0df4 A2000000 		.4byte	0xa2
 6089 0df8 00       		.byte	0
 6090 0df9 1A       		.uleb128 0x1a
 6091 0dfa 02070000 		.4byte	.LASF131
 6092 0dfe 01       		.byte	0x1
 6093 0dff 3308     		.2byte	0x833
 6094 0e01 01       		.byte	0x1
 6095 0e02 1F0E0000 		.4byte	0xe1f
 6096 0e06 12       		.uleb128 0x12
 6097 0e07 AB060000 		.4byte	.LASF67
 6098 0e0b 01       		.byte	0x1
 6099 0e0c 3308     		.2byte	0x833
ARM GAS  C:\Users\Grillmo\AppData\Local\Temp\ccN7xt8j.s 			page 108


 6100 0e0e 41040000 		.4byte	0x441
 6101 0e12 12       		.uleb128 0x12
 6102 0e13 A90D0000 		.4byte	.LASF128
 6103 0e17 01       		.byte	0x1
 6104 0e18 3308     		.2byte	0x833
 6105 0e1a A2000000 		.4byte	0xa2
 6106 0e1e 00       		.byte	0
 6107 0e1f 22       		.uleb128 0x22
 6108 0e20 89030000 		.4byte	.LASF132
 6109 0e24 01       		.byte	0x1
 6110 0e25 1F08     		.2byte	0x81f
 6111 0e27 BD000000 		.4byte	0xbd
 6112 0e2b 00000000 		.4byte	.LFB168
 6113 0e2f 04000000 		.4byte	.LFE168-.LFB168
 6114 0e33 01       		.uleb128 0x1
 6115 0e34 9C       		.byte	0x9c
 6116 0e35 4A0E0000 		.4byte	0xe4a
 6117 0e39 18       		.uleb128 0x18
 6118 0e3a AB060000 		.4byte	.LASF67
 6119 0e3e 01       		.byte	0x1
 6120 0e3f 1F08     		.2byte	0x81f
 6121 0e41 41040000 		.4byte	0x441
 6122 0e45 FC070000 		.4byte	.LLST154
 6123 0e49 00       		.byte	0
 6124 0e4a 22       		.uleb128 0x22
 6125 0e4b 79030000 		.4byte	.LASF133
 6126 0e4f 01       		.byte	0x1
 6127 0e50 1108     		.2byte	0x811
 6128 0e52 BD000000 		.4byte	0xbd
 6129 0e56 00000000 		.4byte	.LFB167
 6130 0e5a 04000000 		.4byte	.LFE167-.LFB167
 6131 0e5e 01       		.uleb128 0x1
 6132 0e5f 9C       		.byte	0x9c
 6133 0e60 750E0000 		.4byte	0xe75
 6134 0e64 18       		.uleb128 0x18
 6135 0e65 AB060000 		.4byte	.LASF67
 6136 0e69 01       		.byte	0x1
 6137 0e6a 1108     		.2byte	0x811
 6138 0e6c 41040000 		.4byte	0x441
 6139 0e70 1D080000 		.4byte	.LLST153
 6140 0e74 00       		.byte	0
 6141 0e75 22       		.uleb128 0x22
 6142 0e76 69030000 		.4byte	.LASF134
 6143 0e7a 01       		.byte	0x1
 6144 0e7b 0308     		.2byte	0x803
 6145 0e7d BD000000 		.4byte	0xbd
 6146 0e81 00000000 		.4byte	.LFB166
 6147 0e85 04000000 		.4byte	.LFE166-.LFB166
 6148 0e89 01       		.uleb128 0x1
 6149 0e8a 9C       		.byte	0x9c
 6150 0e8b A00E0000 		.4byte	0xea0
 6151 0e8f 18       		.uleb128 0x18
 6152 0e90 AB060000 		.4byte	.LASF67
 6153 0e94 01       		.byte	0x1
 6154 0e95 0308     		.2byte	0x803
 6155 0e97 41040000 		.4byte	0x441
 6156 0e9b 3E080000 		.4byte	.LLST152
ARM GAS  C:\Users\Grillmo\AppData\Local\Temp\ccN7xt8j.s 			page 109


 6157 0e9f 00       		.byte	0
 6158 0ea0 22       		.uleb128 0x22
 6159 0ea1 EB040000 		.4byte	.LASF135
 6160 0ea5 01       		.byte	0x1
 6161 0ea6 F407     		.2byte	0x7f4
 6162 0ea8 BD000000 		.4byte	0xbd
 6163 0eac 00000000 		.4byte	.LFB165
 6164 0eb0 04000000 		.4byte	.LFE165-.LFB165
 6165 0eb4 01       		.uleb128 0x1
 6166 0eb5 9C       		.byte	0x9c
 6167 0eb6 CB0E0000 		.4byte	0xecb
 6168 0eba 18       		.uleb128 0x18
 6169 0ebb AB060000 		.4byte	.LASF67
 6170 0ebf 01       		.byte	0x1
 6171 0ec0 F407     		.2byte	0x7f4
 6172 0ec2 41040000 		.4byte	0x441
 6173 0ec6 5F080000 		.4byte	.LLST151
 6174 0eca 00       		.byte	0
 6175 0ecb 16       		.uleb128 0x16
 6176 0ecc 16070000 		.4byte	.LASF136
 6177 0ed0 01       		.byte	0x1
 6178 0ed1 BB07     		.2byte	0x7bb
 6179 0ed3 00000000 		.4byte	.LFB164
 6180 0ed7 34010000 		.4byte	.LFE164-.LFB164
 6181 0edb 01       		.uleb128 0x1
 6182 0edc 9C       		.byte	0x9c
 6183 0edd 14110000 		.4byte	0x1114
 6184 0ee1 17       		.uleb128 0x17
 6185 0ee2 AB060000 		.4byte	.LASF67
 6186 0ee6 01       		.byte	0x1
 6187 0ee7 BB07     		.2byte	0x7bb
 6188 0ee9 41040000 		.4byte	0x441
 6189 0eed 01       		.uleb128 0x1
 6190 0eee 50       		.byte	0x50
 6191 0eef 18       		.uleb128 0x18
 6192 0ef0 95070000 		.4byte	.LASF137
 6193 0ef4 01       		.byte	0x1
 6194 0ef5 BB07     		.2byte	0x7bb
 6195 0ef7 14110000 		.4byte	0x1114
 6196 0efb 80080000 		.4byte	.LLST115
 6197 0eff 19       		.uleb128 0x19
 6198 0f00 99030000 		.4byte	.LASF138
 6199 0f04 01       		.byte	0x1
 6200 0f05 BD07     		.2byte	0x7bd
 6201 0f07 A2000000 		.4byte	0xa2
 6202 0f0b BA080000 		.4byte	.LLST116
 6203 0f0f 19       		.uleb128 0x19
 6204 0f10 6A080000 		.4byte	.LASF139
 6205 0f14 01       		.byte	0x1
 6206 0f15 BE07     		.2byte	0x7be
 6207 0f17 A2000000 		.4byte	0xa2
 6208 0f1b E4080000 		.4byte	.LLST117
 6209 0f1f 24       		.uleb128 0x24
 6210 0f20 A9040000 		.4byte	0x4a9
 6211 0f24 20000000 		.4byte	.LBB70
 6212 0f28 60000000 		.4byte	.Ldebug_ranges0+0x60
 6213 0f2c 01       		.byte	0x1
ARM GAS  C:\Users\Grillmo\AppData\Local\Temp\ccN7xt8j.s 			page 110


 6214 0f2d E407     		.2byte	0x7e4
 6215 0f2f 790F0000 		.4byte	0xf79
 6216 0f33 1C       		.uleb128 0x1c
 6217 0f34 DA040000 		.4byte	0x4da
 6218 0f38 03090000 		.4byte	.LLST118
 6219 0f3c 1C       		.uleb128 0x1c
 6220 0f3d CE040000 		.4byte	0x4ce
 6221 0f41 16090000 		.4byte	.LLST119
 6222 0f45 1C       		.uleb128 0x1c
 6223 0f46 C2040000 		.4byte	0x4c2
 6224 0f4a 29090000 		.4byte	.LLST120
 6225 0f4e 1C       		.uleb128 0x1c
 6226 0f4f B6040000 		.4byte	0x4b6
 6227 0f53 3C090000 		.4byte	.LLST121
 6228 0f57 25       		.uleb128 0x25
 6229 0f58 60000000 		.4byte	.Ldebug_ranges0+0x60
 6230 0f5c 1E       		.uleb128 0x1e
 6231 0f5d E6040000 		.4byte	0x4e6
 6232 0f61 4F090000 		.4byte	.LLST122
 6233 0f65 1E       		.uleb128 0x1e
 6234 0f66 F2040000 		.4byte	0x4f2
 6235 0f6a 8B090000 		.4byte	.LLST123
 6236 0f6e 1E       		.uleb128 0x1e
 6237 0f6f FE040000 		.4byte	0x4fe
 6238 0f73 B9090000 		.4byte	.LLST124
 6239 0f77 00       		.byte	0
 6240 0f78 00       		.byte	0
 6241 0f79 1F       		.uleb128 0x1f
 6242 0f7a D30D0000 		.4byte	0xdd3
 6243 0f7e 5A000000 		.4byte	.LBB74
 6244 0f82 14000000 		.4byte	.LBE74-.LBB74
 6245 0f86 01       		.byte	0x1
 6246 0f87 E707     		.2byte	0x7e7
 6247 0f89 A00F0000 		.4byte	0xfa0
 6248 0f8d 1C       		.uleb128 0x1c
 6249 0f8e EC0D0000 		.4byte	0xdec
 6250 0f92 DC090000 		.4byte	.LLST125
 6251 0f96 1C       		.uleb128 0x1c
 6252 0f97 E00D0000 		.4byte	0xde0
 6253 0f9b EF090000 		.4byte	.LLST126
 6254 0f9f 00       		.byte	0
 6255 0fa0 1F       		.uleb128 0x1f
 6256 0fa1 0B050000 		.4byte	0x50b
 6257 0fa5 6E000000 		.4byte	.LBB76
 6258 0fa9 2C000000 		.4byte	.LBE76-.LBB76
 6259 0fad 01       		.byte	0x1
 6260 0fae E907     		.2byte	0x7e9
 6261 0fb0 F50F0000 		.4byte	0xff5
 6262 0fb4 1C       		.uleb128 0x1c
 6263 0fb5 3C050000 		.4byte	0x53c
 6264 0fb9 020A0000 		.4byte	.LLST127
 6265 0fbd 1C       		.uleb128 0x1c
 6266 0fbe 30050000 		.4byte	0x530
 6267 0fc2 240A0000 		.4byte	.LLST128
 6268 0fc6 1C       		.uleb128 0x1c
 6269 0fc7 24050000 		.4byte	0x524
 6270 0fcb 370A0000 		.4byte	.LLST129
ARM GAS  C:\Users\Grillmo\AppData\Local\Temp\ccN7xt8j.s 			page 111


 6271 0fcf 1C       		.uleb128 0x1c
 6272 0fd0 18050000 		.4byte	0x518
 6273 0fd4 4A0A0000 		.4byte	.LLST130
 6274 0fd8 1D       		.uleb128 0x1d
 6275 0fd9 6E000000 		.4byte	.LBB77
 6276 0fdd 2C000000 		.4byte	.LBE77-.LBB77
 6277 0fe1 1E       		.uleb128 0x1e
 6278 0fe2 48050000 		.4byte	0x548
 6279 0fe6 5D0A0000 		.4byte	.LLST131
 6280 0fea 1E       		.uleb128 0x1e
 6281 0feb 54050000 		.4byte	0x554
 6282 0fef 8C0A0000 		.4byte	.LLST132
 6283 0ff3 00       		.byte	0
 6284 0ff4 00       		.byte	0
 6285 0ff5 1F       		.uleb128 0x1f
 6286 0ff6 F90D0000 		.4byte	0xdf9
 6287 0ffa 9A000000 		.4byte	.LBB78
 6288 0ffe 12000000 		.4byte	.LBE78-.LBB78
 6289 1002 01       		.byte	0x1
 6290 1003 EB07     		.2byte	0x7eb
 6291 1005 1C100000 		.4byte	0x101c
 6292 1009 1C       		.uleb128 0x1c
 6293 100a 120E0000 		.4byte	0xe12
 6294 100e BB0A0000 		.4byte	.LLST133
 6295 1012 1C       		.uleb128 0x1c
 6296 1013 060E0000 		.4byte	0xe06
 6297 1017 DD0A0000 		.4byte	.LLST134
 6298 101b 00       		.byte	0
 6299 101c 24       		.uleb128 0x24
 6300 101d 0B050000 		.4byte	0x50b
 6301 1021 AC000000 		.4byte	.LBB80
 6302 1025 78000000 		.4byte	.Ldebug_ranges0+0x78
 6303 1029 01       		.byte	0x1
 6304 102a D807     		.2byte	0x7d8
 6305 102c 6D100000 		.4byte	0x106d
 6306 1030 1C       		.uleb128 0x1c
 6307 1031 3C050000 		.4byte	0x53c
 6308 1035 F00A0000 		.4byte	.LLST135
 6309 1039 1C       		.uleb128 0x1c
 6310 103a 30050000 		.4byte	0x530
 6311 103e 030B0000 		.4byte	.LLST136
 6312 1042 1C       		.uleb128 0x1c
 6313 1043 24050000 		.4byte	0x524
 6314 1047 160B0000 		.4byte	.LLST137
 6315 104b 1C       		.uleb128 0x1c
 6316 104c 18050000 		.4byte	0x518
 6317 1050 290B0000 		.4byte	.LLST138
 6318 1054 25       		.uleb128 0x25
 6319 1055 78000000 		.4byte	.Ldebug_ranges0+0x78
 6320 1059 1E       		.uleb128 0x1e
 6321 105a 48050000 		.4byte	0x548
 6322 105e 3C0B0000 		.4byte	.LLST139
 6323 1062 1E       		.uleb128 0x1e
 6324 1063 54050000 		.4byte	0x554
 6325 1067 710B0000 		.4byte	.LLST140
 6326 106b 00       		.byte	0
 6327 106c 00       		.byte	0
ARM GAS  C:\Users\Grillmo\AppData\Local\Temp\ccN7xt8j.s 			page 112


 6328 106d 1F       		.uleb128 0x1f
 6329 106e F90D0000 		.4byte	0xdf9
 6330 1072 DE000000 		.4byte	.LBB84
 6331 1076 10000000 		.4byte	.LBE84-.LBB84
 6332 107a 01       		.byte	0x1
 6333 107b DB07     		.2byte	0x7db
 6334 107d 94100000 		.4byte	0x1094
 6335 1081 1C       		.uleb128 0x1c
 6336 1082 120E0000 		.4byte	0xe12
 6337 1086 D40B0000 		.4byte	.LLST141
 6338 108a 1C       		.uleb128 0x1c
 6339 108b 060E0000 		.4byte	0xe06
 6340 108f E70B0000 		.4byte	.LLST142
 6341 1093 00       		.byte	0
 6342 1094 1F       		.uleb128 0x1f
 6343 1095 A9040000 		.4byte	0x4a9
 6344 1099 EE000000 		.4byte	.LBB86
 6345 109d 30000000 		.4byte	.LBE86-.LBB86
 6346 10a1 01       		.byte	0x1
 6347 10a2 DD07     		.2byte	0x7dd
 6348 10a4 F2100000 		.4byte	0x10f2
 6349 10a8 1C       		.uleb128 0x1c
 6350 10a9 DA040000 		.4byte	0x4da
 6351 10ad FA0B0000 		.4byte	.LLST143
 6352 10b1 1C       		.uleb128 0x1c
 6353 10b2 CE040000 		.4byte	0x4ce
 6354 10b6 1C0C0000 		.4byte	.LLST144
 6355 10ba 1C       		.uleb128 0x1c
 6356 10bb C2040000 		.4byte	0x4c2
 6357 10bf 2F0C0000 		.4byte	.LLST145
 6358 10c3 1C       		.uleb128 0x1c
 6359 10c4 B6040000 		.4byte	0x4b6
 6360 10c8 420C0000 		.4byte	.LLST146
 6361 10cc 1D       		.uleb128 0x1d
 6362 10cd EE000000 		.4byte	.LBB87
 6363 10d1 30000000 		.4byte	.LBE87-.LBB87
 6364 10d5 1E       		.uleb128 0x1e
 6365 10d6 E6040000 		.4byte	0x4e6
 6366 10da 550C0000 		.4byte	.LLST147
 6367 10de 1E       		.uleb128 0x1e
 6368 10df F2040000 		.4byte	0x4f2
 6369 10e3 910C0000 		.4byte	.LLST148
 6370 10e7 1E       		.uleb128 0x1e
 6371 10e8 FE040000 		.4byte	0x4fe
 6372 10ec C20C0000 		.4byte	.LLST149
 6373 10f0 00       		.byte	0
 6374 10f1 00       		.byte	0
 6375 10f2 1B       		.uleb128 0x1b
 6376 10f3 D30D0000 		.4byte	0xdd3
 6377 10f7 1E010000 		.4byte	.LBB88
 6378 10fb 16000000 		.4byte	.LBE88-.LBB88
 6379 10ff 01       		.byte	0x1
 6380 1100 DF07     		.2byte	0x7df
 6381 1102 1C       		.uleb128 0x1c
 6382 1103 EC0D0000 		.4byte	0xdec
 6383 1107 E50C0000 		.4byte	.LLST150
 6384 110b 21       		.uleb128 0x21
ARM GAS  C:\Users\Grillmo\AppData\Local\Temp\ccN7xt8j.s 			page 113


 6385 110c E00D0000 		.4byte	0xde0
 6386 1110 01       		.uleb128 0x1
 6387 1111 50       		.byte	0x50
 6388 1112 00       		.byte	0
 6389 1113 00       		.byte	0
 6390 1114 15       		.uleb128 0x15
 6391 1115 04       		.byte	0x4
 6392 1116 6C030000 		.4byte	0x36c
 6393 111a 16       		.uleb128 0x16
 6394 111b 58030000 		.4byte	.LASF140
 6395 111f 01       		.byte	0x1
 6396 1120 A807     		.2byte	0x7a8
 6397 1122 00000000 		.4byte	.LFB163
 6398 1126 10000000 		.4byte	.LFE163-.LFB163
 6399 112a 01       		.uleb128 0x1
 6400 112b 9C       		.byte	0x9c
 6401 112c 3F110000 		.4byte	0x113f
 6402 1130 17       		.uleb128 0x17
 6403 1131 95070000 		.4byte	.LASF137
 6404 1135 01       		.byte	0x1
 6405 1136 A807     		.2byte	0x7a8
 6406 1138 14110000 		.4byte	0x1114
 6407 113c 01       		.uleb128 0x1
 6408 113d 50       		.byte	0x50
 6409 113e 00       		.byte	0
 6410 113f 16       		.uleb128 0x16
 6411 1140 C20B0000 		.4byte	.LASF141
 6412 1144 01       		.byte	0x1
 6413 1145 7007     		.2byte	0x770
 6414 1147 00000000 		.4byte	.LFB162
 6415 114b 48010000 		.4byte	.LFE162-.LFB162
 6416 114f 01       		.uleb128 0x1
 6417 1150 9C       		.byte	0x9c
 6418 1151 67130000 		.4byte	0x1367
 6419 1155 17       		.uleb128 0x17
 6420 1156 AB060000 		.4byte	.LASF67
 6421 115a 01       		.byte	0x1
 6422 115b 7007     		.2byte	0x770
 6423 115d 41040000 		.4byte	0x441
 6424 1161 01       		.uleb128 0x1
 6425 1162 50       		.byte	0x50
 6426 1163 18       		.uleb128 0x18
 6427 1164 95070000 		.4byte	.LASF137
 6428 1168 01       		.byte	0x1
 6429 1169 7007     		.2byte	0x770
 6430 116b 14110000 		.4byte	0x1114
 6431 116f 070D0000 		.4byte	.LLST81
 6432 1173 24       		.uleb128 0x24
 6433 1174 DF030000 		.4byte	0x3df
 6434 1178 10000000 		.4byte	.LBB46
 6435 117c 00000000 		.4byte	.Ldebug_ranges0+0
 6436 1180 01       		.byte	0x1
 6437 1181 9A07     		.2byte	0x79a
 6438 1183 CD110000 		.4byte	0x11cd
 6439 1187 1C       		.uleb128 0x1c
 6440 1188 10040000 		.4byte	0x410
 6441 118c 730D0000 		.4byte	.LLST82
ARM GAS  C:\Users\Grillmo\AppData\Local\Temp\ccN7xt8j.s 			page 114


 6442 1190 1C       		.uleb128 0x1c
 6443 1191 04040000 		.4byte	0x404
 6444 1195 860D0000 		.4byte	.LLST83
 6445 1199 1C       		.uleb128 0x1c
 6446 119a F8030000 		.4byte	0x3f8
 6447 119e 990D0000 		.4byte	.LLST84
 6448 11a2 1C       		.uleb128 0x1c
 6449 11a3 EC030000 		.4byte	0x3ec
 6450 11a7 AC0D0000 		.4byte	.LLST85
 6451 11ab 25       		.uleb128 0x25
 6452 11ac 00000000 		.4byte	.Ldebug_ranges0+0
 6453 11b0 1E       		.uleb128 0x1e
 6454 11b1 1C040000 		.4byte	0x41c
 6455 11b5 BF0D0000 		.4byte	.LLST86
 6456 11b9 1E       		.uleb128 0x1e
 6457 11ba 28040000 		.4byte	0x428
 6458 11be F00D0000 		.4byte	.LLST87
 6459 11c2 1E       		.uleb128 0x1e
 6460 11c3 34040000 		.4byte	0x434
 6461 11c7 200E0000 		.4byte	.LLST88
 6462 11cb 00       		.byte	0
 6463 11cc 00       		.byte	0
 6464 11cd 1F       		.uleb128 0x1f
 6465 11ce 870D0000 		.4byte	0xd87
 6466 11d2 4A000000 		.4byte	.LBB50
 6467 11d6 14000000 		.4byte	.LBE50-.LBB50
 6468 11da 01       		.byte	0x1
 6469 11db 9E07     		.2byte	0x79e
 6470 11dd F4110000 		.4byte	0x11f4
 6471 11e1 1C       		.uleb128 0x1c
 6472 11e2 A00D0000 		.4byte	0xda0
 6473 11e6 430E0000 		.4byte	.LLST89
 6474 11ea 1C       		.uleb128 0x1c
 6475 11eb 940D0000 		.4byte	0xd94
 6476 11ef 560E0000 		.4byte	.LLST90
 6477 11f3 00       		.byte	0
 6478 11f4 24       		.uleb128 0x24
 6479 11f5 0B050000 		.4byte	0x50b
 6480 11f9 62000000 		.4byte	.LBB52
 6481 11fd 18000000 		.4byte	.Ldebug_ranges0+0x18
 6482 1201 01       		.byte	0x1
 6483 1202 7C07     		.2byte	0x77c
 6484 1204 45120000 		.4byte	0x1245
 6485 1208 1C       		.uleb128 0x1c
 6486 1209 3C050000 		.4byte	0x53c
 6487 120d 690E0000 		.4byte	.LLST91
 6488 1211 1C       		.uleb128 0x1c
 6489 1212 30050000 		.4byte	0x530
 6490 1216 7C0E0000 		.4byte	.LLST92
 6491 121a 1C       		.uleb128 0x1c
 6492 121b 24050000 		.4byte	0x524
 6493 121f 8F0E0000 		.4byte	.LLST93
 6494 1223 1C       		.uleb128 0x1c
 6495 1224 18050000 		.4byte	0x518
 6496 1228 B10E0000 		.4byte	.LLST94
 6497 122c 25       		.uleb128 0x25
 6498 122d 18000000 		.4byte	.Ldebug_ranges0+0x18
ARM GAS  C:\Users\Grillmo\AppData\Local\Temp\ccN7xt8j.s 			page 115


 6499 1231 1E       		.uleb128 0x1e
 6500 1232 48050000 		.4byte	0x548
 6501 1236 C40E0000 		.4byte	.LLST95
 6502 123a 1E       		.uleb128 0x1e
 6503 123b 54050000 		.4byte	0x554
 6504 123f F90E0000 		.4byte	.LLST96
 6505 1243 00       		.byte	0
 6506 1244 00       		.byte	0
 6507 1245 1F       		.uleb128 0x1f
 6508 1246 F90D0000 		.4byte	0xdf9
 6509 124a 96000000 		.4byte	.LBB56
 6510 124e 10000000 		.4byte	.LBE56-.LBB56
 6511 1252 01       		.byte	0x1
 6512 1253 8007     		.2byte	0x780
 6513 1255 6C120000 		.4byte	0x126c
 6514 1259 1C       		.uleb128 0x1c
 6515 125a 120E0000 		.4byte	0xe12
 6516 125e 4A0F0000 		.4byte	.LLST97
 6517 1262 1C       		.uleb128 0x1c
 6518 1263 060E0000 		.4byte	0xe06
 6519 1267 5D0F0000 		.4byte	.LLST98
 6520 126b 00       		.byte	0
 6521 126c 24       		.uleb128 0x24
 6522 126d A9040000 		.4byte	0x4a9
 6523 1271 AA000000 		.4byte	.LBB58
 6524 1275 30000000 		.4byte	.Ldebug_ranges0+0x30
 6525 1279 01       		.byte	0x1
 6526 127a 8607     		.2byte	0x786
 6527 127c C6120000 		.4byte	0x12c6
 6528 1280 1C       		.uleb128 0x1c
 6529 1281 DA040000 		.4byte	0x4da
 6530 1285 700F0000 		.4byte	.LLST99
 6531 1289 1C       		.uleb128 0x1c
 6532 128a CE040000 		.4byte	0x4ce
 6533 128e 830F0000 		.4byte	.LLST100
 6534 1292 1C       		.uleb128 0x1c
 6535 1293 C2040000 		.4byte	0x4c2
 6536 1297 960F0000 		.4byte	.LLST101
 6537 129b 1C       		.uleb128 0x1c
 6538 129c B6040000 		.4byte	0x4b6
 6539 12a0 A90F0000 		.4byte	.LLST102
 6540 12a4 25       		.uleb128 0x25
 6541 12a5 30000000 		.4byte	.Ldebug_ranges0+0x30
 6542 12a9 1E       		.uleb128 0x1e
 6543 12aa E6040000 		.4byte	0x4e6
 6544 12ae BC0F0000 		.4byte	.LLST103
 6545 12b2 1E       		.uleb128 0x1e
 6546 12b3 F2040000 		.4byte	0x4f2
 6547 12b7 F80F0000 		.4byte	.LLST104
 6548 12bb 1E       		.uleb128 0x1e
 6549 12bc FE040000 		.4byte	0x4fe
 6550 12c0 26100000 		.4byte	.LLST105
 6551 12c4 00       		.byte	0
 6552 12c5 00       		.byte	0
 6553 12c6 1F       		.uleb128 0x1f
 6554 12c7 D30D0000 		.4byte	0xdd3
 6555 12cb E6000000 		.4byte	.LBB62
ARM GAS  C:\Users\Grillmo\AppData\Local\Temp\ccN7xt8j.s 			page 116


 6556 12cf 14000000 		.4byte	.LBE62-.LBB62
 6557 12d3 01       		.byte	0x1
 6558 12d4 8A07     		.2byte	0x78a
 6559 12d6 ED120000 		.4byte	0x12ed
 6560 12da 1C       		.uleb128 0x1c
 6561 12db EC0D0000 		.4byte	0xdec
 6562 12df 49100000 		.4byte	.LLST106
 6563 12e3 1C       		.uleb128 0x1c
 6564 12e4 E00D0000 		.4byte	0xde0
 6565 12e8 5C100000 		.4byte	.LLST107
 6566 12ec 00       		.byte	0
 6567 12ed 24       		.uleb128 0x24
 6568 12ee 47040000 		.4byte	0x447
 6569 12f2 FE000000 		.4byte	.LBB64
 6570 12f6 48000000 		.4byte	.Ldebug_ranges0+0x48
 6571 12fa 01       		.byte	0x1
 6572 12fb 9007     		.2byte	0x790
 6573 12fd 47130000 		.4byte	0x1347
 6574 1301 1C       		.uleb128 0x1c
 6575 1302 78040000 		.4byte	0x478
 6576 1306 6F100000 		.4byte	.LLST108
 6577 130a 1C       		.uleb128 0x1c
 6578 130b 6C040000 		.4byte	0x46c
 6579 130f 82100000 		.4byte	.LLST109
 6580 1313 1C       		.uleb128 0x1c
 6581 1314 60040000 		.4byte	0x460
 6582 1318 95100000 		.4byte	.LLST110
 6583 131c 1C       		.uleb128 0x1c
 6584 131d 54040000 		.4byte	0x454
 6585 1321 A8100000 		.4byte	.LLST111
 6586 1325 25       		.uleb128 0x25
 6587 1326 48000000 		.4byte	.Ldebug_ranges0+0x48
 6588 132a 1E       		.uleb128 0x1e
 6589 132b 84040000 		.4byte	0x484
 6590 132f BB100000 		.4byte	.LLST112
 6591 1333 1E       		.uleb128 0x1e
 6592 1334 90040000 		.4byte	0x490
 6593 1338 FB100000 		.4byte	.LLST113
 6594 133c 1E       		.uleb128 0x1e
 6595 133d 9C040000 		.4byte	0x49c
 6596 1341 2B110000 		.4byte	.LLST114
 6597 1345 00       		.byte	0
 6598 1346 00       		.byte	0
 6599 1347 1B       		.uleb128 0x1b
 6600 1348 AD0D0000 		.4byte	0xdad
 6601 134c 36010000 		.4byte	.LBB68
 6602 1350 12000000 		.4byte	.LBE68-.LBB68
 6603 1354 01       		.byte	0x1
 6604 1355 9407     		.2byte	0x794
 6605 1357 21       		.uleb128 0x21
 6606 1358 C60D0000 		.4byte	0xdc6
 6607 135c 01       		.uleb128 0x1
 6608 135d 51       		.byte	0x51
 6609 135e 21       		.uleb128 0x21
 6610 135f BA0D0000 		.4byte	0xdba
 6611 1363 01       		.uleb128 0x1
 6612 1364 50       		.byte	0x50
ARM GAS  C:\Users\Grillmo\AppData\Local\Temp\ccN7xt8j.s 			page 117


 6613 1365 00       		.byte	0
 6614 1366 00       		.byte	0
 6615 1367 16       		.uleb128 0x16
 6616 1368 2F080000 		.4byte	.LASF142
 6617 136c 01       		.byte	0x1
 6618 136d 1C07     		.2byte	0x71c
 6619 136f 00000000 		.4byte	.LFB161
 6620 1373 22000000 		.4byte	.LFE161-.LFB161
 6621 1377 01       		.uleb128 0x1
 6622 1378 9C       		.byte	0x9c
 6623 1379 BC130000 		.4byte	0x13bc
 6624 137d 17       		.uleb128 0x17
 6625 137e AB060000 		.4byte	.LASF67
 6626 1382 01       		.byte	0x1
 6627 1383 1C07     		.2byte	0x71c
 6628 1385 41040000 		.4byte	0x441
 6629 1389 01       		.uleb128 0x1
 6630 138a 50       		.byte	0x50
 6631 138b 18       		.uleb128 0x18
 6632 138c 6C020000 		.4byte	.LASF53
 6633 1390 01       		.byte	0x1
 6634 1391 1C07     		.2byte	0x71c
 6635 1393 A2000000 		.4byte	0xa2
 6636 1397 4E110000 		.4byte	.LLST78
 6637 139b 18       		.uleb128 0x18
 6638 139c BD030000 		.4byte	.LASF143
 6639 13a0 01       		.byte	0x1
 6640 13a1 1C07     		.2byte	0x71c
 6641 13a3 A2000000 		.4byte	0xa2
 6642 13a7 6F110000 		.4byte	.LLST79
 6643 13ab 26       		.uleb128 0x26
 6644 13ac 746D7000 		.ascii	"tmp\000"
 6645 13b0 01       		.byte	0x1
 6646 13b1 1E07     		.2byte	0x71e
 6647 13b3 A2000000 		.4byte	0xa2
 6648 13b7 90110000 		.4byte	.LLST80
 6649 13bb 00       		.byte	0
 6650 13bc 16       		.uleb128 0x16
 6651 13bd B4020000 		.4byte	.LASF144
 6652 13c1 01       		.byte	0x1
 6653 13c2 FE06     		.2byte	0x6fe
 6654 13c4 00000000 		.4byte	.LFB160
 6655 13c8 22000000 		.4byte	.LFE160-.LFB160
 6656 13cc 01       		.uleb128 0x1
 6657 13cd 9C       		.byte	0x9c
 6658 13ce 11140000 		.4byte	0x1411
 6659 13d2 17       		.uleb128 0x17
 6660 13d3 AB060000 		.4byte	.LASF67
 6661 13d7 01       		.byte	0x1
 6662 13d8 FE06     		.2byte	0x6fe
 6663 13da 41040000 		.4byte	0x441
 6664 13de 01       		.uleb128 0x1
 6665 13df 50       		.byte	0x50
 6666 13e0 18       		.uleb128 0x18
 6667 13e1 6C020000 		.4byte	.LASF53
 6668 13e5 01       		.byte	0x1
 6669 13e6 FE06     		.2byte	0x6fe
ARM GAS  C:\Users\Grillmo\AppData\Local\Temp\ccN7xt8j.s 			page 118


 6670 13e8 A2000000 		.4byte	0xa2
 6671 13ec B7110000 		.4byte	.LLST75
 6672 13f0 18       		.uleb128 0x18
 6673 13f1 EB080000 		.4byte	.LASF145
 6674 13f5 01       		.byte	0x1
 6675 13f6 FE06     		.2byte	0x6fe
 6676 13f8 A2000000 		.4byte	0xa2
 6677 13fc D8110000 		.4byte	.LLST76
 6678 1400 26       		.uleb128 0x26
 6679 1401 746D7000 		.ascii	"tmp\000"
 6680 1405 01       		.byte	0x1
 6681 1406 0007     		.2byte	0x700
 6682 1408 A2000000 		.4byte	0xa2
 6683 140c F9110000 		.4byte	.LLST77
 6684 1410 00       		.byte	0
 6685 1411 16       		.uleb128 0x16
 6686 1412 C0060000 		.4byte	.LASF146
 6687 1416 01       		.byte	0x1
 6688 1417 DF06     		.2byte	0x6df
 6689 1419 00000000 		.4byte	.LFB159
 6690 141d 12000000 		.4byte	.LFE159-.LFB159
 6691 1421 01       		.uleb128 0x1
 6692 1422 9C       		.byte	0x9c
 6693 1423 56140000 		.4byte	0x1456
 6694 1427 17       		.uleb128 0x17
 6695 1428 AB060000 		.4byte	.LASF67
 6696 142c 01       		.byte	0x1
 6697 142d DF06     		.2byte	0x6df
 6698 142f 41040000 		.4byte	0x441
 6699 1433 01       		.uleb128 0x1
 6700 1434 50       		.byte	0x50
 6701 1435 18       		.uleb128 0x18
 6702 1436 93040000 		.4byte	.LASF48
 6703 143a 01       		.byte	0x1
 6704 143b DF06     		.2byte	0x6df
 6705 143d A2000000 		.4byte	0xa2
 6706 1441 20120000 		.4byte	.LLST73
 6707 1445 19       		.uleb128 0x19
 6708 1446 5C040000 		.4byte	.LASF69
 6709 144a 01       		.byte	0x1
 6710 144b E106     		.2byte	0x6e1
 6711 144d A2000000 		.4byte	0xa2
 6712 1451 41120000 		.4byte	.LLST74
 6713 1455 00       		.byte	0
 6714 1456 16       		.uleb128 0x16
 6715 1457 1E0A0000 		.4byte	.LASF147
 6716 145b 01       		.byte	0x1
 6717 145c C406     		.2byte	0x6c4
 6718 145e 00000000 		.4byte	.LFB158
 6719 1462 12000000 		.4byte	.LFE158-.LFB158
 6720 1466 01       		.uleb128 0x1
 6721 1467 9C       		.byte	0x9c
 6722 1468 9B140000 		.4byte	0x149b
 6723 146c 17       		.uleb128 0x17
 6724 146d AB060000 		.4byte	.LASF67
 6725 1471 01       		.byte	0x1
 6726 1472 C406     		.2byte	0x6c4
ARM GAS  C:\Users\Grillmo\AppData\Local\Temp\ccN7xt8j.s 			page 119


 6727 1474 41040000 		.4byte	0x441
 6728 1478 01       		.uleb128 0x1
 6729 1479 50       		.byte	0x50
 6730 147a 18       		.uleb128 0x18
 6731 147b 0C0B0000 		.4byte	.LASF49
 6732 147f 01       		.byte	0x1
 6733 1480 C406     		.2byte	0x6c4
 6734 1482 A2000000 		.4byte	0xa2
 6735 1486 85120000 		.4byte	.LLST71
 6736 148a 19       		.uleb128 0x19
 6737 148b 5C040000 		.4byte	.LASF69
 6738 148f 01       		.byte	0x1
 6739 1490 C606     		.2byte	0x6c6
 6740 1492 A2000000 		.4byte	0xa2
 6741 1496 A6120000 		.4byte	.LLST72
 6742 149a 00       		.byte	0
 6743 149b 16       		.uleb128 0x16
 6744 149c F90C0000 		.4byte	.LASF148
 6745 14a0 01       		.byte	0x1
 6746 14a1 A906     		.2byte	0x6a9
 6747 14a3 00000000 		.4byte	.LFB157
 6748 14a7 12000000 		.4byte	.LFE157-.LFB157
 6749 14ab 01       		.uleb128 0x1
 6750 14ac 9C       		.byte	0x9c
 6751 14ad E0140000 		.4byte	0x14e0
 6752 14b1 17       		.uleb128 0x17
 6753 14b2 AB060000 		.4byte	.LASF67
 6754 14b6 01       		.byte	0x1
 6755 14b7 A906     		.2byte	0x6a9
 6756 14b9 41040000 		.4byte	0x441
 6757 14bd 01       		.uleb128 0x1
 6758 14be 50       		.byte	0x50
 6759 14bf 18       		.uleb128 0x18
 6760 14c0 93040000 		.4byte	.LASF48
 6761 14c4 01       		.byte	0x1
 6762 14c5 A906     		.2byte	0x6a9
 6763 14c7 A2000000 		.4byte	0xa2
 6764 14cb EA120000 		.4byte	.LLST69
 6765 14cf 19       		.uleb128 0x19
 6766 14d0 5C040000 		.4byte	.LASF69
 6767 14d4 01       		.byte	0x1
 6768 14d5 AB06     		.2byte	0x6ab
 6769 14d7 A2000000 		.4byte	0xa2
 6770 14db 0B130000 		.4byte	.LLST70
 6771 14df 00       		.byte	0
 6772 14e0 16       		.uleb128 0x16
 6773 14e1 64040000 		.4byte	.LASF149
 6774 14e5 01       		.byte	0x1
 6775 14e6 8E06     		.2byte	0x68e
 6776 14e8 00000000 		.4byte	.LFB156
 6777 14ec 12000000 		.4byte	.LFE156-.LFB156
 6778 14f0 01       		.uleb128 0x1
 6779 14f1 9C       		.byte	0x9c
 6780 14f2 25150000 		.4byte	0x1525
 6781 14f6 17       		.uleb128 0x17
 6782 14f7 AB060000 		.4byte	.LASF67
 6783 14fb 01       		.byte	0x1
ARM GAS  C:\Users\Grillmo\AppData\Local\Temp\ccN7xt8j.s 			page 120


 6784 14fc 8E06     		.2byte	0x68e
 6785 14fe 41040000 		.4byte	0x441
 6786 1502 01       		.uleb128 0x1
 6787 1503 50       		.byte	0x50
 6788 1504 18       		.uleb128 0x18
 6789 1505 0C0B0000 		.4byte	.LASF49
 6790 1509 01       		.byte	0x1
 6791 150a 8E06     		.2byte	0x68e
 6792 150c A2000000 		.4byte	0xa2
 6793 1510 4F130000 		.4byte	.LLST67
 6794 1514 19       		.uleb128 0x19
 6795 1515 5C040000 		.4byte	.LASF69
 6796 1519 01       		.byte	0x1
 6797 151a 9006     		.2byte	0x690
 6798 151c A2000000 		.4byte	0xa2
 6799 1520 70130000 		.4byte	.LLST68
 6800 1524 00       		.byte	0
 6801 1525 16       		.uleb128 0x16
 6802 1526 C2010000 		.4byte	.LASF150
 6803 152a 01       		.byte	0x1
 6804 152b 7306     		.2byte	0x673
 6805 152d 00000000 		.4byte	.LFB155
 6806 1531 12000000 		.4byte	.LFE155-.LFB155
 6807 1535 01       		.uleb128 0x1
 6808 1536 9C       		.byte	0x9c
 6809 1537 6A150000 		.4byte	0x156a
 6810 153b 17       		.uleb128 0x17
 6811 153c AB060000 		.4byte	.LASF67
 6812 1540 01       		.byte	0x1
 6813 1541 7306     		.2byte	0x673
 6814 1543 41040000 		.4byte	0x441
 6815 1547 01       		.uleb128 0x1
 6816 1548 50       		.byte	0x50
 6817 1549 18       		.uleb128 0x18
 6818 154a 93040000 		.4byte	.LASF48
 6819 154e 01       		.byte	0x1
 6820 154f 7306     		.2byte	0x673
 6821 1551 A2000000 		.4byte	0xa2
 6822 1555 B4130000 		.4byte	.LLST65
 6823 1559 19       		.uleb128 0x19
 6824 155a 5C040000 		.4byte	.LASF69
 6825 155e 01       		.byte	0x1
 6826 155f 7506     		.2byte	0x675
 6827 1561 A2000000 		.4byte	0xa2
 6828 1565 D5130000 		.4byte	.LLST66
 6829 1569 00       		.byte	0
 6830 156a 16       		.uleb128 0x16
 6831 156b 6E0C0000 		.4byte	.LASF151
 6832 156f 01       		.byte	0x1
 6833 1570 5806     		.2byte	0x658
 6834 1572 00000000 		.4byte	.LFB154
 6835 1576 0E000000 		.4byte	.LFE154-.LFB154
 6836 157a 01       		.uleb128 0x1
 6837 157b 9C       		.byte	0x9c
 6838 157c AF150000 		.4byte	0x15af
 6839 1580 17       		.uleb128 0x17
 6840 1581 AB060000 		.4byte	.LASF67
ARM GAS  C:\Users\Grillmo\AppData\Local\Temp\ccN7xt8j.s 			page 121


 6841 1585 01       		.byte	0x1
 6842 1586 5806     		.2byte	0x658
 6843 1588 41040000 		.4byte	0x441
 6844 158c 01       		.uleb128 0x1
 6845 158d 50       		.byte	0x50
 6846 158e 18       		.uleb128 0x18
 6847 158f 0C0B0000 		.4byte	.LASF49
 6848 1593 01       		.byte	0x1
 6849 1594 5806     		.2byte	0x658
 6850 1596 A2000000 		.4byte	0xa2
 6851 159a 19140000 		.4byte	.LLST63
 6852 159e 19       		.uleb128 0x19
 6853 159f 5C040000 		.4byte	.LASF69
 6854 15a3 01       		.byte	0x1
 6855 15a4 5A06     		.2byte	0x65a
 6856 15a6 A2000000 		.4byte	0xa2
 6857 15aa 3A140000 		.4byte	.LLST64
 6858 15ae 00       		.byte	0
 6859 15af 16       		.uleb128 0x16
 6860 15b0 E1070000 		.4byte	.LASF152
 6861 15b4 01       		.byte	0x1
 6862 15b5 3D06     		.2byte	0x63d
 6863 15b7 00000000 		.4byte	.LFB153
 6864 15bb 0E000000 		.4byte	.LFE153-.LFB153
 6865 15bf 01       		.uleb128 0x1
 6866 15c0 9C       		.byte	0x9c
 6867 15c1 F4150000 		.4byte	0x15f4
 6868 15c5 17       		.uleb128 0x17
 6869 15c6 AB060000 		.4byte	.LASF67
 6870 15ca 01       		.byte	0x1
 6871 15cb 3D06     		.2byte	0x63d
 6872 15cd 41040000 		.4byte	0x441
 6873 15d1 01       		.uleb128 0x1
 6874 15d2 50       		.byte	0x50
 6875 15d3 18       		.uleb128 0x18
 6876 15d4 93040000 		.4byte	.LASF48
 6877 15d8 01       		.byte	0x1
 6878 15d9 3D06     		.2byte	0x63d
 6879 15db A2000000 		.4byte	0xa2
 6880 15df 7A140000 		.4byte	.LLST61
 6881 15e3 19       		.uleb128 0x19
 6882 15e4 5C040000 		.4byte	.LASF69
 6883 15e8 01       		.byte	0x1
 6884 15e9 3F06     		.2byte	0x63f
 6885 15eb A2000000 		.4byte	0xa2
 6886 15ef 9B140000 		.4byte	.LLST62
 6887 15f3 00       		.byte	0
 6888 15f4 16       		.uleb128 0x16
 6889 15f5 4C0C0000 		.4byte	.LASF153
 6890 15f9 01       		.byte	0x1
 6891 15fa 2006     		.2byte	0x620
 6892 15fc 00000000 		.4byte	.LFB152
 6893 1600 10000000 		.4byte	.LFE152-.LFB152
 6894 1604 01       		.uleb128 0x1
 6895 1605 9C       		.byte	0x9c
 6896 1606 39160000 		.4byte	0x1639
 6897 160a 17       		.uleb128 0x17
ARM GAS  C:\Users\Grillmo\AppData\Local\Temp\ccN7xt8j.s 			page 122


 6898 160b AB060000 		.4byte	.LASF67
 6899 160f 01       		.byte	0x1
 6900 1610 2006     		.2byte	0x620
 6901 1612 41040000 		.4byte	0x441
 6902 1616 01       		.uleb128 0x1
 6903 1617 50       		.byte	0x50
 6904 1618 18       		.uleb128 0x18
 6905 1619 56090000 		.4byte	.LASF154
 6906 161d 01       		.byte	0x1
 6907 161e 2006     		.2byte	0x620
 6908 1620 A2000000 		.4byte	0xa2
 6909 1624 DB140000 		.4byte	.LLST59
 6910 1628 19       		.uleb128 0x19
 6911 1629 57010000 		.4byte	.LASF68
 6912 162d 01       		.byte	0x1
 6913 162e 2206     		.2byte	0x622
 6914 1630 A2000000 		.4byte	0xa2
 6915 1634 FC140000 		.4byte	.LLST60
 6916 1638 00       		.byte	0
 6917 1639 16       		.uleb128 0x16
 6918 163a 230C0000 		.4byte	.LASF155
 6919 163e 01       		.byte	0x1
 6920 163f 0306     		.2byte	0x603
 6921 1641 00000000 		.4byte	.LFB151
 6922 1645 0E000000 		.4byte	.LFE151-.LFB151
 6923 1649 01       		.uleb128 0x1
 6924 164a 9C       		.byte	0x9c
 6925 164b 7E160000 		.4byte	0x167e
 6926 164f 17       		.uleb128 0x17
 6927 1650 AB060000 		.4byte	.LASF67
 6928 1654 01       		.byte	0x1
 6929 1655 0306     		.2byte	0x603
 6930 1657 41040000 		.4byte	0x441
 6931 165b 01       		.uleb128 0x1
 6932 165c 50       		.byte	0x50
 6933 165d 18       		.uleb128 0x18
 6934 165e 56090000 		.4byte	.LASF154
 6935 1662 01       		.byte	0x1
 6936 1663 0306     		.2byte	0x603
 6937 1665 A2000000 		.4byte	0xa2
 6938 1669 40150000 		.4byte	.LLST57
 6939 166d 19       		.uleb128 0x19
 6940 166e 57010000 		.4byte	.LASF68
 6941 1672 01       		.byte	0x1
 6942 1673 0506     		.2byte	0x605
 6943 1675 A2000000 		.4byte	0xa2
 6944 1679 61150000 		.4byte	.LLST58
 6945 167d 00       		.byte	0
 6946 167e 16       		.uleb128 0x16
 6947 167f 690D0000 		.4byte	.LASF156
 6948 1683 01       		.byte	0x1
 6949 1684 E605     		.2byte	0x5e6
 6950 1686 00000000 		.4byte	.LFB150
 6951 168a 10000000 		.4byte	.LFE150-.LFB150
 6952 168e 01       		.uleb128 0x1
 6953 168f 9C       		.byte	0x9c
 6954 1690 C3160000 		.4byte	0x16c3
ARM GAS  C:\Users\Grillmo\AppData\Local\Temp\ccN7xt8j.s 			page 123


 6955 1694 17       		.uleb128 0x17
 6956 1695 AB060000 		.4byte	.LASF67
 6957 1699 01       		.byte	0x1
 6958 169a E605     		.2byte	0x5e6
 6959 169c 41040000 		.4byte	0x441
 6960 16a0 01       		.uleb128 0x1
 6961 16a1 50       		.byte	0x50
 6962 16a2 18       		.uleb128 0x18
 6963 16a3 56090000 		.4byte	.LASF154
 6964 16a7 01       		.byte	0x1
 6965 16a8 E605     		.2byte	0x5e6
 6966 16aa A2000000 		.4byte	0xa2
 6967 16ae A1150000 		.4byte	.LLST55
 6968 16b2 19       		.uleb128 0x19
 6969 16b3 4E010000 		.4byte	.LASF73
 6970 16b7 01       		.byte	0x1
 6971 16b8 E805     		.2byte	0x5e8
 6972 16ba A2000000 		.4byte	0xa2
 6973 16be C2150000 		.4byte	.LLST56
 6974 16c2 00       		.byte	0
 6975 16c3 16       		.uleb128 0x16
 6976 16c4 B5000000 		.4byte	.LASF157
 6977 16c8 01       		.byte	0x1
 6978 16c9 C805     		.2byte	0x5c8
 6979 16cb 00000000 		.4byte	.LFB149
 6980 16cf 0E000000 		.4byte	.LFE149-.LFB149
 6981 16d3 01       		.uleb128 0x1
 6982 16d4 9C       		.byte	0x9c
 6983 16d5 08170000 		.4byte	0x1708
 6984 16d9 17       		.uleb128 0x17
 6985 16da AB060000 		.4byte	.LASF67
 6986 16de 01       		.byte	0x1
 6987 16df C805     		.2byte	0x5c8
 6988 16e1 41040000 		.4byte	0x441
 6989 16e5 01       		.uleb128 0x1
 6990 16e6 50       		.byte	0x50
 6991 16e7 18       		.uleb128 0x18
 6992 16e8 56090000 		.4byte	.LASF154
 6993 16ec 01       		.byte	0x1
 6994 16ed C805     		.2byte	0x5c8
 6995 16ef A2000000 		.4byte	0xa2
 6996 16f3 06160000 		.4byte	.LLST53
 6997 16f7 19       		.uleb128 0x19
 6998 16f8 4E010000 		.4byte	.LASF73
 6999 16fc 01       		.byte	0x1
 7000 16fd CA05     		.2byte	0x5ca
 7001 16ff A2000000 		.4byte	0xa2
 7002 1703 27160000 		.4byte	.LLST54
 7003 1707 00       		.byte	0
 7004 1708 16       		.uleb128 0x16
 7005 1709 E80A0000 		.4byte	.LASF158
 7006 170d 01       		.byte	0x1
 7007 170e AA05     		.2byte	0x5aa
 7008 1710 00000000 		.4byte	.LFB148
 7009 1714 12000000 		.4byte	.LFE148-.LFB148
 7010 1718 01       		.uleb128 0x1
 7011 1719 9C       		.byte	0x9c
ARM GAS  C:\Users\Grillmo\AppData\Local\Temp\ccN7xt8j.s 			page 124


 7012 171a 4D170000 		.4byte	0x174d
 7013 171e 17       		.uleb128 0x17
 7014 171f AB060000 		.4byte	.LASF67
 7015 1723 01       		.byte	0x1
 7016 1724 AA05     		.2byte	0x5aa
 7017 1726 41040000 		.4byte	0x441
 7018 172a 01       		.uleb128 0x1
 7019 172b 50       		.byte	0x50
 7020 172c 18       		.uleb128 0x18
 7021 172d 61020000 		.4byte	.LASF159
 7022 1731 01       		.byte	0x1
 7023 1732 AA05     		.2byte	0x5aa
 7024 1734 A2000000 		.4byte	0xa2
 7025 1738 67160000 		.4byte	.LLST51
 7026 173c 19       		.uleb128 0x19
 7027 173d 57010000 		.4byte	.LASF68
 7028 1741 01       		.byte	0x1
 7029 1742 AC05     		.2byte	0x5ac
 7030 1744 A2000000 		.4byte	0xa2
 7031 1748 88160000 		.4byte	.LLST52
 7032 174c 00       		.byte	0
 7033 174d 16       		.uleb128 0x16
 7034 174e CC0D0000 		.4byte	.LASF160
 7035 1752 01       		.byte	0x1
 7036 1753 8C05     		.2byte	0x58c
 7037 1755 00000000 		.4byte	.LFB147
 7038 1759 0E000000 		.4byte	.LFE147-.LFB147
 7039 175d 01       		.uleb128 0x1
 7040 175e 9C       		.byte	0x9c
 7041 175f 92170000 		.4byte	0x1792
 7042 1763 17       		.uleb128 0x17
 7043 1764 AB060000 		.4byte	.LASF67
 7044 1768 01       		.byte	0x1
 7045 1769 8C05     		.2byte	0x58c
 7046 176b 41040000 		.4byte	0x441
 7047 176f 01       		.uleb128 0x1
 7048 1770 50       		.byte	0x50
 7049 1771 18       		.uleb128 0x18
 7050 1772 61020000 		.4byte	.LASF159
 7051 1776 01       		.byte	0x1
 7052 1777 8C05     		.2byte	0x58c
 7053 1779 A2000000 		.4byte	0xa2
 7054 177d CC160000 		.4byte	.LLST49
 7055 1781 19       		.uleb128 0x19
 7056 1782 57010000 		.4byte	.LASF68
 7057 1786 01       		.byte	0x1
 7058 1787 8E05     		.2byte	0x58e
 7059 1789 A2000000 		.4byte	0xa2
 7060 178d ED160000 		.4byte	.LLST50
 7061 1791 00       		.byte	0
 7062 1792 16       		.uleb128 0x16
 7063 1793 D60A0000 		.4byte	.LASF161
 7064 1797 01       		.byte	0x1
 7065 1798 6E05     		.2byte	0x56e
 7066 179a 00000000 		.4byte	.LFB146
 7067 179e 12000000 		.4byte	.LFE146-.LFB146
 7068 17a2 01       		.uleb128 0x1
ARM GAS  C:\Users\Grillmo\AppData\Local\Temp\ccN7xt8j.s 			page 125


 7069 17a3 9C       		.byte	0x9c
 7070 17a4 D7170000 		.4byte	0x17d7
 7071 17a8 17       		.uleb128 0x17
 7072 17a9 AB060000 		.4byte	.LASF67
 7073 17ad 01       		.byte	0x1
 7074 17ae 6E05     		.2byte	0x56e
 7075 17b0 41040000 		.4byte	0x441
 7076 17b4 01       		.uleb128 0x1
 7077 17b5 50       		.byte	0x50
 7078 17b6 18       		.uleb128 0x18
 7079 17b7 61020000 		.4byte	.LASF159
 7080 17bb 01       		.byte	0x1
 7081 17bc 6E05     		.2byte	0x56e
 7082 17be A2000000 		.4byte	0xa2
 7083 17c2 2D170000 		.4byte	.LLST47
 7084 17c6 19       		.uleb128 0x19
 7085 17c7 4E010000 		.4byte	.LASF73
 7086 17cb 01       		.byte	0x1
 7087 17cc 7005     		.2byte	0x570
 7088 17ce A2000000 		.4byte	0xa2
 7089 17d2 4E170000 		.4byte	.LLST48
 7090 17d6 00       		.byte	0
 7091 17d7 16       		.uleb128 0x16
 7092 17d8 070E0000 		.4byte	.LASF162
 7093 17dc 01       		.byte	0x1
 7094 17dd 4F05     		.2byte	0x54f
 7095 17df 00000000 		.4byte	.LFB145
 7096 17e3 0E000000 		.4byte	.LFE145-.LFB145
 7097 17e7 01       		.uleb128 0x1
 7098 17e8 9C       		.byte	0x9c
 7099 17e9 1C180000 		.4byte	0x181c
 7100 17ed 17       		.uleb128 0x17
 7101 17ee AB060000 		.4byte	.LASF67
 7102 17f2 01       		.byte	0x1
 7103 17f3 4F05     		.2byte	0x54f
 7104 17f5 41040000 		.4byte	0x441
 7105 17f9 01       		.uleb128 0x1
 7106 17fa 50       		.byte	0x50
 7107 17fb 18       		.uleb128 0x18
 7108 17fc 61020000 		.4byte	.LASF159
 7109 1800 01       		.byte	0x1
 7110 1801 4F05     		.2byte	0x54f
 7111 1803 A2000000 		.4byte	0xa2
 7112 1807 92170000 		.4byte	.LLST45
 7113 180b 19       		.uleb128 0x19
 7114 180c 4E010000 		.4byte	.LASF73
 7115 1810 01       		.byte	0x1
 7116 1811 5105     		.2byte	0x551
 7117 1813 A2000000 		.4byte	0xa2
 7118 1817 B3170000 		.4byte	.LLST46
 7119 181b 00       		.byte	0
 7120 181c 16       		.uleb128 0x16
 7121 181d 0E0C0000 		.4byte	.LASF163
 7122 1821 01       		.byte	0x1
 7123 1822 3205     		.2byte	0x532
 7124 1824 00000000 		.4byte	.LFB144
 7125 1828 12000000 		.4byte	.LFE144-.LFB144
ARM GAS  C:\Users\Grillmo\AppData\Local\Temp\ccN7xt8j.s 			page 126


 7126 182c 01       		.uleb128 0x1
 7127 182d 9C       		.byte	0x9c
 7128 182e 61180000 		.4byte	0x1861
 7129 1832 17       		.uleb128 0x17
 7130 1833 AB060000 		.4byte	.LASF67
 7131 1837 01       		.byte	0x1
 7132 1838 3205     		.2byte	0x532
 7133 183a 41040000 		.4byte	0x441
 7134 183e 01       		.uleb128 0x1
 7135 183f 50       		.byte	0x50
 7136 1840 18       		.uleb128 0x18
 7137 1841 BF020000 		.4byte	.LASF164
 7138 1845 01       		.byte	0x1
 7139 1846 3205     		.2byte	0x532
 7140 1848 A2000000 		.4byte	0xa2
 7141 184c F3170000 		.4byte	.LLST43
 7142 1850 19       		.uleb128 0x19
 7143 1851 57010000 		.4byte	.LASF68
 7144 1855 01       		.byte	0x1
 7145 1856 3405     		.2byte	0x534
 7146 1858 A2000000 		.4byte	0xa2
 7147 185c 14180000 		.4byte	.LLST44
 7148 1860 00       		.byte	0
 7149 1861 16       		.uleb128 0x16
 7150 1862 DE0D0000 		.4byte	.LASF165
 7151 1866 01       		.byte	0x1
 7152 1867 1505     		.2byte	0x515
 7153 1869 00000000 		.4byte	.LFB143
 7154 186d 0E000000 		.4byte	.LFE143-.LFB143
 7155 1871 01       		.uleb128 0x1
 7156 1872 9C       		.byte	0x9c
 7157 1873 A6180000 		.4byte	0x18a6
 7158 1877 17       		.uleb128 0x17
 7159 1878 AB060000 		.4byte	.LASF67
 7160 187c 01       		.byte	0x1
 7161 187d 1505     		.2byte	0x515
 7162 187f 41040000 		.4byte	0x441
 7163 1883 01       		.uleb128 0x1
 7164 1884 50       		.byte	0x50
 7165 1885 18       		.uleb128 0x18
 7166 1886 BF020000 		.4byte	.LASF164
 7167 188a 01       		.byte	0x1
 7168 188b 1505     		.2byte	0x515
 7169 188d A2000000 		.4byte	0xa2
 7170 1891 58180000 		.4byte	.LLST41
 7171 1895 19       		.uleb128 0x19
 7172 1896 57010000 		.4byte	.LASF68
 7173 189a 01       		.byte	0x1
 7174 189b 1705     		.2byte	0x517
 7175 189d A2000000 		.4byte	0xa2
 7176 18a1 79180000 		.4byte	.LLST42
 7177 18a5 00       		.byte	0
 7178 18a6 16       		.uleb128 0x16
 7179 18a7 2A020000 		.4byte	.LASF166
 7180 18ab 01       		.byte	0x1
 7181 18ac F804     		.2byte	0x4f8
 7182 18ae 00000000 		.4byte	.LFB142
ARM GAS  C:\Users\Grillmo\AppData\Local\Temp\ccN7xt8j.s 			page 127


 7183 18b2 12000000 		.4byte	.LFE142-.LFB142
 7184 18b6 01       		.uleb128 0x1
 7185 18b7 9C       		.byte	0x9c
 7186 18b8 EB180000 		.4byte	0x18eb
 7187 18bc 17       		.uleb128 0x17
 7188 18bd AB060000 		.4byte	.LASF67
 7189 18c1 01       		.byte	0x1
 7190 18c2 F804     		.2byte	0x4f8
 7191 18c4 41040000 		.4byte	0x441
 7192 18c8 01       		.uleb128 0x1
 7193 18c9 50       		.byte	0x50
 7194 18ca 18       		.uleb128 0x18
 7195 18cb BF020000 		.4byte	.LASF164
 7196 18cf 01       		.byte	0x1
 7197 18d0 F804     		.2byte	0x4f8
 7198 18d2 A2000000 		.4byte	0xa2
 7199 18d6 B9180000 		.4byte	.LLST39
 7200 18da 19       		.uleb128 0x19
 7201 18db 4E010000 		.4byte	.LASF73
 7202 18df 01       		.byte	0x1
 7203 18e0 FA04     		.2byte	0x4fa
 7204 18e2 A2000000 		.4byte	0xa2
 7205 18e6 DA180000 		.4byte	.LLST40
 7206 18ea 00       		.byte	0
 7207 18eb 16       		.uleb128 0x16
 7208 18ec F8030000 		.4byte	.LASF167
 7209 18f0 01       		.byte	0x1
 7210 18f1 DA04     		.2byte	0x4da
 7211 18f3 00000000 		.4byte	.LFB141
 7212 18f7 0E000000 		.4byte	.LFE141-.LFB141
 7213 18fb 01       		.uleb128 0x1
 7214 18fc 9C       		.byte	0x9c
 7215 18fd 30190000 		.4byte	0x1930
 7216 1901 17       		.uleb128 0x17
 7217 1902 AB060000 		.4byte	.LASF67
 7218 1906 01       		.byte	0x1
 7219 1907 DA04     		.2byte	0x4da
 7220 1909 41040000 		.4byte	0x441
 7221 190d 01       		.uleb128 0x1
 7222 190e 50       		.byte	0x50
 7223 190f 18       		.uleb128 0x18
 7224 1910 BF020000 		.4byte	.LASF164
 7225 1914 01       		.byte	0x1
 7226 1915 DA04     		.2byte	0x4da
 7227 1917 A2000000 		.4byte	0xa2
 7228 191b 1E190000 		.4byte	.LLST37
 7229 191f 19       		.uleb128 0x19
 7230 1920 4E010000 		.4byte	.LASF73
 7231 1924 01       		.byte	0x1
 7232 1925 DC04     		.2byte	0x4dc
 7233 1927 A2000000 		.4byte	0xa2
 7234 192b 3F190000 		.4byte	.LLST38
 7235 192f 00       		.byte	0
 7236 1930 16       		.uleb128 0x16
 7237 1931 A1000000 		.4byte	.LASF168
 7238 1935 01       		.byte	0x1
 7239 1936 BE04     		.2byte	0x4be
ARM GAS  C:\Users\Grillmo\AppData\Local\Temp\ccN7xt8j.s 			page 128


 7240 1938 00000000 		.4byte	.LFB140
 7241 193c 12000000 		.4byte	.LFE140-.LFB140
 7242 1940 01       		.uleb128 0x1
 7243 1941 9C       		.byte	0x9c
 7244 1942 75190000 		.4byte	0x1975
 7245 1946 17       		.uleb128 0x17
 7246 1947 AB060000 		.4byte	.LASF67
 7247 194b 01       		.byte	0x1
 7248 194c BE04     		.2byte	0x4be
 7249 194e 41040000 		.4byte	0x441
 7250 1952 01       		.uleb128 0x1
 7251 1953 50       		.byte	0x50
 7252 1954 18       		.uleb128 0x18
 7253 1955 4F000000 		.4byte	.LASF169
 7254 1959 01       		.byte	0x1
 7255 195a BE04     		.2byte	0x4be
 7256 195c A2000000 		.4byte	0xa2
 7257 1960 7F190000 		.4byte	.LLST35
 7258 1964 19       		.uleb128 0x19
 7259 1965 57010000 		.4byte	.LASF68
 7260 1969 01       		.byte	0x1
 7261 196a C004     		.2byte	0x4c0
 7262 196c A2000000 		.4byte	0xa2
 7263 1970 A0190000 		.4byte	.LLST36
 7264 1974 00       		.byte	0
 7265 1975 16       		.uleb128 0x16
 7266 1976 0B080000 		.4byte	.LASF170
 7267 197a 01       		.byte	0x1
 7268 197b A104     		.2byte	0x4a1
 7269 197d 00000000 		.4byte	.LFB139
 7270 1981 0E000000 		.4byte	.LFE139-.LFB139
 7271 1985 01       		.uleb128 0x1
 7272 1986 9C       		.byte	0x9c
 7273 1987 BA190000 		.4byte	0x19ba
 7274 198b 17       		.uleb128 0x17
 7275 198c AB060000 		.4byte	.LASF67
 7276 1990 01       		.byte	0x1
 7277 1991 A104     		.2byte	0x4a1
 7278 1993 41040000 		.4byte	0x441
 7279 1997 01       		.uleb128 0x1
 7280 1998 50       		.byte	0x50
 7281 1999 18       		.uleb128 0x18
 7282 199a 4F000000 		.4byte	.LASF169
 7283 199e 01       		.byte	0x1
 7284 199f A104     		.2byte	0x4a1
 7285 19a1 A2000000 		.4byte	0xa2
 7286 19a5 E4190000 		.4byte	.LLST33
 7287 19a9 19       		.uleb128 0x19
 7288 19aa 57010000 		.4byte	.LASF68
 7289 19ae 01       		.byte	0x1
 7290 19af A304     		.2byte	0x4a3
 7291 19b1 A2000000 		.4byte	0xa2
 7292 19b5 051A0000 		.4byte	.LLST34
 7293 19b9 00       		.byte	0
 7294 19ba 16       		.uleb128 0x16
 7295 19bb 14000000 		.4byte	.LASF171
 7296 19bf 01       		.byte	0x1
ARM GAS  C:\Users\Grillmo\AppData\Local\Temp\ccN7xt8j.s 			page 129


 7297 19c0 8504     		.2byte	0x485
 7298 19c2 00000000 		.4byte	.LFB138
 7299 19c6 12000000 		.4byte	.LFE138-.LFB138
 7300 19ca 01       		.uleb128 0x1
 7301 19cb 9C       		.byte	0x9c
 7302 19cc FF190000 		.4byte	0x19ff
 7303 19d0 17       		.uleb128 0x17
 7304 19d1 AB060000 		.4byte	.LASF67
 7305 19d5 01       		.byte	0x1
 7306 19d6 8504     		.2byte	0x485
 7307 19d8 41040000 		.4byte	0x441
 7308 19dc 01       		.uleb128 0x1
 7309 19dd 50       		.byte	0x50
 7310 19de 18       		.uleb128 0x18
 7311 19df 4F000000 		.4byte	.LASF169
 7312 19e3 01       		.byte	0x1
 7313 19e4 8504     		.2byte	0x485
 7314 19e6 A2000000 		.4byte	0xa2
 7315 19ea 451A0000 		.4byte	.LLST31
 7316 19ee 19       		.uleb128 0x19
 7317 19ef 4E010000 		.4byte	.LASF73
 7318 19f3 01       		.byte	0x1
 7319 19f4 8704     		.2byte	0x487
 7320 19f6 A2000000 		.4byte	0xa2
 7321 19fa 661A0000 		.4byte	.LLST32
 7322 19fe 00       		.byte	0
 7323 19ff 16       		.uleb128 0x16
 7324 1a00 F7070000 		.4byte	.LASF172
 7325 1a04 01       		.byte	0x1
 7326 1a05 6804     		.2byte	0x468
 7327 1a07 00000000 		.4byte	.LFB137
 7328 1a0b 0E000000 		.4byte	.LFE137-.LFB137
 7329 1a0f 01       		.uleb128 0x1
 7330 1a10 9C       		.byte	0x9c
 7331 1a11 441A0000 		.4byte	0x1a44
 7332 1a15 17       		.uleb128 0x17
 7333 1a16 AB060000 		.4byte	.LASF67
 7334 1a1a 01       		.byte	0x1
 7335 1a1b 6804     		.2byte	0x468
 7336 1a1d 41040000 		.4byte	0x441
 7337 1a21 01       		.uleb128 0x1
 7338 1a22 50       		.byte	0x50
 7339 1a23 18       		.uleb128 0x18
 7340 1a24 4F000000 		.4byte	.LASF169
 7341 1a28 01       		.byte	0x1
 7342 1a29 6804     		.2byte	0x468
 7343 1a2b A2000000 		.4byte	0xa2
 7344 1a2f AA1A0000 		.4byte	.LLST29
 7345 1a33 19       		.uleb128 0x19
 7346 1a34 4E010000 		.4byte	.LASF73
 7347 1a38 01       		.byte	0x1
 7348 1a39 6A04     		.2byte	0x46a
 7349 1a3b A2000000 		.4byte	0xa2
 7350 1a3f CB1A0000 		.4byte	.LLST30
 7351 1a43 00       		.byte	0
 7352 1a44 16       		.uleb128 0x16
 7353 1a45 CD0B0000 		.4byte	.LASF173
ARM GAS  C:\Users\Grillmo\AppData\Local\Temp\ccN7xt8j.s 			page 130


 7354 1a49 01       		.byte	0x1
 7355 1a4a 5604     		.2byte	0x456
 7356 1a4c 00000000 		.4byte	.LFB136
 7357 1a50 04000000 		.4byte	.LFE136-.LFB136
 7358 1a54 01       		.uleb128 0x1
 7359 1a55 9C       		.byte	0x9c
 7360 1a56 771A0000 		.4byte	0x1a77
 7361 1a5a 17       		.uleb128 0x17
 7362 1a5b AB060000 		.4byte	.LASF67
 7363 1a5f 01       		.byte	0x1
 7364 1a60 5604     		.2byte	0x456
 7365 1a62 41040000 		.4byte	0x441
 7366 1a66 01       		.uleb128 0x1
 7367 1a67 50       		.byte	0x50
 7368 1a68 17       		.uleb128 0x17
 7369 1a69 3B080000 		.4byte	.LASF174
 7370 1a6d 01       		.byte	0x1
 7371 1a6e 5604     		.2byte	0x456
 7372 1a70 BD000000 		.4byte	0xbd
 7373 1a74 01       		.uleb128 0x1
 7374 1a75 51       		.byte	0x51
 7375 1a76 00       		.byte	0
 7376 1a77 16       		.uleb128 0x16
 7377 1a78 3E040000 		.4byte	.LASF175
 7378 1a7c 01       		.byte	0x1
 7379 1a7d 4704     		.2byte	0x447
 7380 1a7f 00000000 		.4byte	.LFB135
 7381 1a83 04000000 		.4byte	.LFE135-.LFB135
 7382 1a87 01       		.uleb128 0x1
 7383 1a88 9C       		.byte	0x9c
 7384 1a89 AA1A0000 		.4byte	0x1aaa
 7385 1a8d 17       		.uleb128 0x17
 7386 1a8e AB060000 		.4byte	.LASF67
 7387 1a92 01       		.byte	0x1
 7388 1a93 4704     		.2byte	0x447
 7389 1a95 41040000 		.4byte	0x441
 7390 1a99 01       		.uleb128 0x1
 7391 1a9a 50       		.byte	0x50
 7392 1a9b 17       		.uleb128 0x17
 7393 1a9c 24010000 		.4byte	.LASF176
 7394 1aa0 01       		.byte	0x1
 7395 1aa1 4704     		.2byte	0x447
 7396 1aa3 BD000000 		.4byte	0xbd
 7397 1aa7 01       		.uleb128 0x1
 7398 1aa8 51       		.byte	0x51
 7399 1aa9 00       		.byte	0
 7400 1aaa 16       		.uleb128 0x16
 7401 1aab 2E040000 		.4byte	.LASF177
 7402 1aaf 01       		.byte	0x1
 7403 1ab0 3804     		.2byte	0x438
 7404 1ab2 00000000 		.4byte	.LFB134
 7405 1ab6 04000000 		.4byte	.LFE134-.LFB134
 7406 1aba 01       		.uleb128 0x1
 7407 1abb 9C       		.byte	0x9c
 7408 1abc DD1A0000 		.4byte	0x1add
 7409 1ac0 17       		.uleb128 0x17
 7410 1ac1 AB060000 		.4byte	.LASF67
ARM GAS  C:\Users\Grillmo\AppData\Local\Temp\ccN7xt8j.s 			page 131


 7411 1ac5 01       		.byte	0x1
 7412 1ac6 3804     		.2byte	0x438
 7413 1ac8 41040000 		.4byte	0x441
 7414 1acc 01       		.uleb128 0x1
 7415 1acd 50       		.byte	0x50
 7416 1ace 17       		.uleb128 0x17
 7417 1acf 0A090000 		.4byte	.LASF178
 7418 1ad3 01       		.byte	0x1
 7419 1ad4 3804     		.2byte	0x438
 7420 1ad6 BD000000 		.4byte	0xbd
 7421 1ada 01       		.uleb128 0x1
 7422 1adb 51       		.byte	0x51
 7423 1adc 00       		.byte	0
 7424 1add 16       		.uleb128 0x16
 7425 1ade EC000000 		.4byte	.LASF179
 7426 1ae2 01       		.byte	0x1
 7427 1ae3 2804     		.2byte	0x428
 7428 1ae5 00000000 		.4byte	.LFB133
 7429 1ae9 04000000 		.4byte	.LFE133-.LFB133
 7430 1aed 01       		.uleb128 0x1
 7431 1aee 9C       		.byte	0x9c
 7432 1aef 101B0000 		.4byte	0x1b10
 7433 1af3 17       		.uleb128 0x17
 7434 1af4 AB060000 		.4byte	.LASF67
 7435 1af8 01       		.byte	0x1
 7436 1af9 2804     		.2byte	0x428
 7437 1afb 41040000 		.4byte	0x441
 7438 1aff 01       		.uleb128 0x1
 7439 1b00 50       		.byte	0x50
 7440 1b01 17       		.uleb128 0x17
 7441 1b02 E3000000 		.4byte	.LASF180
 7442 1b06 01       		.byte	0x1
 7443 1b07 2804     		.2byte	0x428
 7444 1b09 BD000000 		.4byte	0xbd
 7445 1b0d 01       		.uleb128 0x1
 7446 1b0e 51       		.byte	0x51
 7447 1b0f 00       		.byte	0
 7448 1b10 16       		.uleb128 0x16
 7449 1b11 DD0B0000 		.4byte	.LASF181
 7450 1b15 01       		.byte	0x1
 7451 1b16 FA03     		.2byte	0x3fa
 7452 1b18 00000000 		.4byte	.LFB132
 7453 1b1c 50000000 		.4byte	.LFE132-.LFB132
 7454 1b20 01       		.uleb128 0x1
 7455 1b21 9C       		.byte	0x9c
 7456 1b22 771B0000 		.4byte	0x1b77
 7457 1b26 18       		.uleb128 0x18
 7458 1b27 AB060000 		.4byte	.LASF67
 7459 1b2b 01       		.byte	0x1
 7460 1b2c FA03     		.2byte	0x3fa
 7461 1b2e 41040000 		.4byte	0x441
 7462 1b32 0B1B0000 		.4byte	.LLST24
 7463 1b36 18       		.uleb128 0x18
 7464 1b37 6C020000 		.4byte	.LASF53
 7465 1b3b 01       		.byte	0x1
 7466 1b3c FA03     		.2byte	0x3fa
 7467 1b3e A2000000 		.4byte	0xa2
ARM GAS  C:\Users\Grillmo\AppData\Local\Temp\ccN7xt8j.s 			page 132


 7468 1b42 2B1B0000 		.4byte	.LLST25
 7469 1b46 18       		.uleb128 0x18
 7470 1b47 410C0000 		.4byte	.LASF44
 7471 1b4b 01       		.byte	0x1
 7472 1b4c FA03     		.2byte	0x3fa
 7473 1b4e A2000000 		.4byte	0xa2
 7474 1b52 651B0000 		.4byte	.LLST26
 7475 1b56 26       		.uleb128 0x26
 7476 1b57 746D7000 		.ascii	"tmp\000"
 7477 1b5b 01       		.byte	0x1
 7478 1b5c FC03     		.2byte	0x3fc
 7479 1b5e BD000000 		.4byte	0xbd
 7480 1b62 9F1B0000 		.4byte	.LLST27
 7481 1b66 19       		.uleb128 0x19
 7482 1b67 0A020000 		.4byte	.LASF182
 7483 1b6b 01       		.byte	0x1
 7484 1b6c FD03     		.2byte	0x3fd
 7485 1b6e A2000000 		.4byte	0xa2
 7486 1b72 0E1C0000 		.4byte	.LLST28
 7487 1b76 00       		.byte	0
 7488 1b77 16       		.uleb128 0x16
 7489 1b78 3E070000 		.4byte	.LASF183
 7490 1b7c 01       		.byte	0x1
 7491 1b7d D603     		.2byte	0x3d6
 7492 1b7f 00000000 		.4byte	.LFB131
 7493 1b83 14000000 		.4byte	.LFE131-.LFB131
 7494 1b87 01       		.uleb128 0x1
 7495 1b88 9C       		.byte	0x9c
 7496 1b89 9C1B0000 		.4byte	0x1b9c
 7497 1b8d 17       		.uleb128 0x17
 7498 1b8e 87060000 		.4byte	.LASF184
 7499 1b92 01       		.byte	0x1
 7500 1b93 D603     		.2byte	0x3d6
 7501 1b95 9C1B0000 		.4byte	0x1b9c
 7502 1b99 01       		.uleb128 0x1
 7503 1b9a 50       		.byte	0x50
 7504 1b9b 00       		.byte	0
 7505 1b9c 15       		.uleb128 0x15
 7506 1b9d 04       		.byte	0x4
 7507 1b9e 1C030000 		.4byte	0x31c
 7508 1ba2 16       		.uleb128 0x16
 7509 1ba3 B60B0000 		.4byte	.LASF185
 7510 1ba7 01       		.byte	0x1
 7511 1ba8 9703     		.2byte	0x397
 7512 1baa 00000000 		.4byte	.LFB130
 7513 1bae 68000000 		.4byte	.LFE130-.LFB130
 7514 1bb2 01       		.uleb128 0x1
 7515 1bb3 9C       		.byte	0x9c
 7516 1bb4 071C0000 		.4byte	0x1c07
 7517 1bb8 17       		.uleb128 0x17
 7518 1bb9 AB060000 		.4byte	.LASF67
 7519 1bbd 01       		.byte	0x1
 7520 1bbe 9703     		.2byte	0x397
 7521 1bc0 41040000 		.4byte	0x441
 7522 1bc4 01       		.uleb128 0x1
 7523 1bc5 50       		.byte	0x50
 7524 1bc6 18       		.uleb128 0x18
ARM GAS  C:\Users\Grillmo\AppData\Local\Temp\ccN7xt8j.s 			page 133


 7525 1bc7 87060000 		.4byte	.LASF184
 7526 1bcb 01       		.byte	0x1
 7527 1bcc 9703     		.2byte	0x397
 7528 1bce 9C1B0000 		.4byte	0x1b9c
 7529 1bd2 601C0000 		.4byte	.LLST20
 7530 1bd6 19       		.uleb128 0x19
 7531 1bd7 19030000 		.4byte	.LASF186
 7532 1bdb 01       		.byte	0x1
 7533 1bdc 9903     		.2byte	0x399
 7534 1bde A2000000 		.4byte	0xa2
 7535 1be2 8C1C0000 		.4byte	.LLST21
 7536 1be6 19       		.uleb128 0x19
 7537 1be7 5C040000 		.4byte	.LASF69
 7538 1beb 01       		.byte	0x1
 7539 1bec 9903     		.2byte	0x399
 7540 1bee A2000000 		.4byte	0xa2
 7541 1bf2 AB1C0000 		.4byte	.LLST22
 7542 1bf6 19       		.uleb128 0x19
 7543 1bf7 A6070000 		.4byte	.LASF187
 7544 1bfb 01       		.byte	0x1
 7545 1bfc 9903     		.2byte	0x399
 7546 1bfe A2000000 		.4byte	0xa2
 7547 1c02 D51C0000 		.4byte	.LLST23
 7548 1c06 00       		.byte	0
 7549 1c07 16       		.uleb128 0x16
 7550 1c08 CD020000 		.4byte	.LASF188
 7551 1c0c 01       		.byte	0x1
 7552 1c0d 4703     		.2byte	0x347
 7553 1c0f 00000000 		.4byte	.LFB129
 7554 1c13 80000000 		.4byte	.LFE129-.LFB129
 7555 1c17 01       		.uleb128 0x1
 7556 1c18 9C       		.byte	0x9c
 7557 1c19 6C1C0000 		.4byte	0x1c6c
 7558 1c1d 17       		.uleb128 0x17
 7559 1c1e AB060000 		.4byte	.LASF67
 7560 1c22 01       		.byte	0x1
 7561 1c23 4703     		.2byte	0x347
 7562 1c25 41040000 		.4byte	0x441
 7563 1c29 01       		.uleb128 0x1
 7564 1c2a 50       		.byte	0x50
 7565 1c2b 18       		.uleb128 0x18
 7566 1c2c 87060000 		.4byte	.LASF184
 7567 1c30 01       		.byte	0x1
 7568 1c31 4703     		.2byte	0x347
 7569 1c33 9C1B0000 		.4byte	0x1b9c
 7570 1c37 FF1C0000 		.4byte	.LLST16
 7571 1c3b 19       		.uleb128 0x19
 7572 1c3c 19030000 		.4byte	.LASF186
 7573 1c40 01       		.byte	0x1
 7574 1c41 4903     		.2byte	0x349
 7575 1c43 A2000000 		.4byte	0xa2
 7576 1c47 2B1D0000 		.4byte	.LLST17
 7577 1c4b 19       		.uleb128 0x19
 7578 1c4c 5C040000 		.4byte	.LASF69
 7579 1c50 01       		.byte	0x1
 7580 1c51 4903     		.2byte	0x349
 7581 1c53 A2000000 		.4byte	0xa2
ARM GAS  C:\Users\Grillmo\AppData\Local\Temp\ccN7xt8j.s 			page 134


 7582 1c57 4A1D0000 		.4byte	.LLST18
 7583 1c5b 19       		.uleb128 0x19
 7584 1c5c A6070000 		.4byte	.LASF187
 7585 1c60 01       		.byte	0x1
 7586 1c61 4903     		.2byte	0x349
 7587 1c63 A2000000 		.4byte	0xa2
 7588 1c67 8A1D0000 		.4byte	.LLST19
 7589 1c6b 00       		.byte	0
 7590 1c6c 16       		.uleb128 0x16
 7591 1c6d 550B0000 		.4byte	.LASF189
 7592 1c71 01       		.byte	0x1
 7593 1c72 F602     		.2byte	0x2f6
 7594 1c74 00000000 		.4byte	.LFB128
 7595 1c78 80000000 		.4byte	.LFE128-.LFB128
 7596 1c7c 01       		.uleb128 0x1
 7597 1c7d 9C       		.byte	0x9c
 7598 1c7e D11C0000 		.4byte	0x1cd1
 7599 1c82 17       		.uleb128 0x17
 7600 1c83 AB060000 		.4byte	.LASF67
 7601 1c87 01       		.byte	0x1
 7602 1c88 F602     		.2byte	0x2f6
 7603 1c8a 41040000 		.4byte	0x441
 7604 1c8e 01       		.uleb128 0x1
 7605 1c8f 50       		.byte	0x50
 7606 1c90 18       		.uleb128 0x18
 7607 1c91 87060000 		.4byte	.LASF184
 7608 1c95 01       		.byte	0x1
 7609 1c96 F602     		.2byte	0x2f6
 7610 1c98 9C1B0000 		.4byte	0x1b9c
 7611 1c9c B41D0000 		.4byte	.LLST12
 7612 1ca0 19       		.uleb128 0x19
 7613 1ca1 19030000 		.4byte	.LASF186
 7614 1ca5 01       		.byte	0x1
 7615 1ca6 F802     		.2byte	0x2f8
 7616 1ca8 A2000000 		.4byte	0xa2
 7617 1cac E01D0000 		.4byte	.LLST13
 7618 1cb0 19       		.uleb128 0x19
 7619 1cb1 5C040000 		.4byte	.LASF69
 7620 1cb5 01       		.byte	0x1
 7621 1cb6 F802     		.2byte	0x2f8
 7622 1cb8 A2000000 		.4byte	0xa2
 7623 1cbc FF1D0000 		.4byte	.LLST14
 7624 1cc0 19       		.uleb128 0x19
 7625 1cc1 A6070000 		.4byte	.LASF187
 7626 1cc5 01       		.byte	0x1
 7627 1cc6 F802     		.2byte	0x2f8
 7628 1cc8 A2000000 		.4byte	0xa2
 7629 1ccc 3F1E0000 		.4byte	.LLST15
 7630 1cd0 00       		.byte	0
 7631 1cd1 16       		.uleb128 0x16
 7632 1cd2 1F0D0000 		.4byte	.LASF190
 7633 1cd6 01       		.byte	0x1
 7634 1cd7 A502     		.2byte	0x2a5
 7635 1cd9 00000000 		.4byte	.LFB127
 7636 1cdd 74000000 		.4byte	.LFE127-.LFB127
 7637 1ce1 01       		.uleb128 0x1
 7638 1ce2 9C       		.byte	0x9c
ARM GAS  C:\Users\Grillmo\AppData\Local\Temp\ccN7xt8j.s 			page 135


 7639 1ce3 361D0000 		.4byte	0x1d36
 7640 1ce7 17       		.uleb128 0x17
 7641 1ce8 AB060000 		.4byte	.LASF67
 7642 1cec 01       		.byte	0x1
 7643 1ced A502     		.2byte	0x2a5
 7644 1cef 41040000 		.4byte	0x441
 7645 1cf3 01       		.uleb128 0x1
 7646 1cf4 50       		.byte	0x50
 7647 1cf5 18       		.uleb128 0x18
 7648 1cf6 87060000 		.4byte	.LASF184
 7649 1cfa 01       		.byte	0x1
 7650 1cfb A502     		.2byte	0x2a5
 7651 1cfd 9C1B0000 		.4byte	0x1b9c
 7652 1d01 691E0000 		.4byte	.LLST8
 7653 1d05 19       		.uleb128 0x19
 7654 1d06 19030000 		.4byte	.LASF186
 7655 1d0a 01       		.byte	0x1
 7656 1d0b A702     		.2byte	0x2a7
 7657 1d0d A2000000 		.4byte	0xa2
 7658 1d11 951E0000 		.4byte	.LLST9
 7659 1d15 19       		.uleb128 0x19
 7660 1d16 5C040000 		.4byte	.LASF69
 7661 1d1a 01       		.byte	0x1
 7662 1d1b A702     		.2byte	0x2a7
 7663 1d1d A2000000 		.4byte	0xa2
 7664 1d21 B41E0000 		.4byte	.LLST10
 7665 1d25 19       		.uleb128 0x19
 7666 1d26 A6070000 		.4byte	.LASF187
 7667 1d2a 01       		.byte	0x1
 7668 1d2b A702     		.2byte	0x2a7
 7669 1d2d A2000000 		.4byte	0xa2
 7670 1d31 DE1E0000 		.4byte	.LLST11
 7671 1d35 00       		.byte	0
 7672 1d36 16       		.uleb128 0x16
 7673 1d37 340B0000 		.4byte	.LASF191
 7674 1d3b 01       		.byte	0x1
 7675 1d3c 5402     		.2byte	0x254
 7676 1d3e 00000000 		.4byte	.LFB126
 7677 1d42 16000000 		.4byte	.LFE126-.LFB126
 7678 1d46 01       		.uleb128 0x1
 7679 1d47 9C       		.byte	0x9c
 7680 1d48 691D0000 		.4byte	0x1d69
 7681 1d4c 17       		.uleb128 0x17
 7682 1d4d AB060000 		.4byte	.LASF67
 7683 1d51 01       		.byte	0x1
 7684 1d52 5402     		.2byte	0x254
 7685 1d54 41040000 		.4byte	0x441
 7686 1d58 01       		.uleb128 0x1
 7687 1d59 50       		.byte	0x50
 7688 1d5a 17       		.uleb128 0x17
 7689 1d5b 0B000000 		.4byte	.LASF78
 7690 1d5f 01       		.byte	0x1
 7691 1d60 5402     		.2byte	0x254
 7692 1d62 58020000 		.4byte	0x258
 7693 1d66 01       		.uleb128 0x1
 7694 1d67 51       		.byte	0x51
 7695 1d68 00       		.byte	0
ARM GAS  C:\Users\Grillmo\AppData\Local\Temp\ccN7xt8j.s 			page 136


 7696 1d69 16       		.uleb128 0x16
 7697 1d6a D6080000 		.4byte	.LASF192
 7698 1d6e 01       		.byte	0x1
 7699 1d6f 4002     		.2byte	0x240
 7700 1d71 00000000 		.4byte	.LFB125
 7701 1d75 12000000 		.4byte	.LFE125-.LFB125
 7702 1d79 01       		.uleb128 0x1
 7703 1d7a 9C       		.byte	0x9c
 7704 1d7b 9E1D0000 		.4byte	0x1d9e
 7705 1d7f 17       		.uleb128 0x17
 7706 1d80 AB060000 		.4byte	.LASF67
 7707 1d84 01       		.byte	0x1
 7708 1d85 4002     		.2byte	0x240
 7709 1d87 41040000 		.4byte	0x441
 7710 1d8b 01       		.uleb128 0x1
 7711 1d8c 50       		.byte	0x50
 7712 1d8d 18       		.uleb128 0x18
 7713 1d8e 3E030000 		.4byte	.LASF193
 7714 1d92 01       		.byte	0x1
 7715 1d93 4002     		.2byte	0x240
 7716 1d95 A2000000 		.4byte	0xa2
 7717 1d99 081F0000 		.4byte	.LLST7
 7718 1d9d 00       		.byte	0
 7719 1d9e 16       		.uleb128 0x16
 7720 1d9f 28000000 		.4byte	.LASF194
 7721 1da3 01       		.byte	0x1
 7722 1da4 2902     		.2byte	0x229
 7723 1da6 00000000 		.4byte	.LFB124
 7724 1daa 12000000 		.4byte	.LFE124-.LFB124
 7725 1dae 01       		.uleb128 0x1
 7726 1daf 9C       		.byte	0x9c
 7727 1db0 D31D0000 		.4byte	0x1dd3
 7728 1db4 17       		.uleb128 0x17
 7729 1db5 AB060000 		.4byte	.LASF67
 7730 1db9 01       		.byte	0x1
 7731 1dba 2902     		.2byte	0x229
 7732 1dbc 41040000 		.4byte	0x441
 7733 1dc0 01       		.uleb128 0x1
 7734 1dc1 50       		.byte	0x50
 7735 1dc2 18       		.uleb128 0x18
 7736 1dc3 00000000 		.4byte	.LASF195
 7737 1dc7 01       		.byte	0x1
 7738 1dc8 2902     		.2byte	0x229
 7739 1dca A2000000 		.4byte	0xa2
 7740 1dce 291F0000 		.4byte	.LLST6
 7741 1dd2 00       		.byte	0
 7742 1dd3 16       		.uleb128 0x16
 7743 1dd4 D8010000 		.4byte	.LASF196
 7744 1dd8 01       		.byte	0x1
 7745 1dd9 0E02     		.2byte	0x20e
 7746 1ddb 00000000 		.4byte	.LFB123
 7747 1ddf 16000000 		.4byte	.LFE123-.LFB123
 7748 1de3 01       		.uleb128 0x1
 7749 1de4 9C       		.byte	0x9c
 7750 1de5 061E0000 		.4byte	0x1e06
 7751 1de9 17       		.uleb128 0x17
 7752 1dea AB060000 		.4byte	.LASF67
ARM GAS  C:\Users\Grillmo\AppData\Local\Temp\ccN7xt8j.s 			page 137


 7753 1dee 01       		.byte	0x1
 7754 1def 0E02     		.2byte	0x20e
 7755 1df1 41040000 		.4byte	0x441
 7756 1df5 01       		.uleb128 0x1
 7757 1df6 50       		.byte	0x50
 7758 1df7 17       		.uleb128 0x17
 7759 1df8 0B000000 		.4byte	.LASF78
 7760 1dfc 01       		.byte	0x1
 7761 1dfd 0E02     		.2byte	0x20e
 7762 1dff 58020000 		.4byte	0x258
 7763 1e03 01       		.uleb128 0x1
 7764 1e04 51       		.byte	0x51
 7765 1e05 00       		.byte	0
 7766 1e06 16       		.uleb128 0x16
 7767 1e07 EC0B0000 		.4byte	.LASF197
 7768 1e0b 01       		.byte	0x1
 7769 1e0c F501     		.2byte	0x1f5
 7770 1e0e 00000000 		.4byte	.LFB122
 7771 1e12 16000000 		.4byte	.LFE122-.LFB122
 7772 1e16 01       		.uleb128 0x1
 7773 1e17 9C       		.byte	0x9c
 7774 1e18 391E0000 		.4byte	0x1e39
 7775 1e1c 17       		.uleb128 0x17
 7776 1e1d AB060000 		.4byte	.LASF67
 7777 1e21 01       		.byte	0x1
 7778 1e22 F501     		.2byte	0x1f5
 7779 1e24 41040000 		.4byte	0x441
 7780 1e28 01       		.uleb128 0x1
 7781 1e29 50       		.byte	0x50
 7782 1e2a 17       		.uleb128 0x17
 7783 1e2b AC030000 		.4byte	.LASF198
 7784 1e2f 01       		.byte	0x1
 7785 1e30 F501     		.2byte	0x1f5
 7786 1e32 A2000000 		.4byte	0xa2
 7787 1e36 01       		.uleb128 0x1
 7788 1e37 51       		.byte	0x51
 7789 1e38 00       		.byte	0
 7790 1e39 16       		.uleb128 0x16
 7791 1e3a 0C010000 		.4byte	.LASF199
 7792 1e3e 01       		.byte	0x1
 7793 1e3f D801     		.2byte	0x1d8
 7794 1e41 00000000 		.4byte	.LFB121
 7795 1e45 16000000 		.4byte	.LFE121-.LFB121
 7796 1e49 01       		.uleb128 0x1
 7797 1e4a 9C       		.byte	0x9c
 7798 1e4b 6C1E0000 		.4byte	0x1e6c
 7799 1e4f 17       		.uleb128 0x17
 7800 1e50 AB060000 		.4byte	.LASF67
 7801 1e54 01       		.byte	0x1
 7802 1e55 D801     		.2byte	0x1d8
 7803 1e57 41040000 		.4byte	0x441
 7804 1e5b 01       		.uleb128 0x1
 7805 1e5c 50       		.byte	0x50
 7806 1e5d 17       		.uleb128 0x17
 7807 1e5e 0B000000 		.4byte	.LASF78
 7808 1e62 01       		.byte	0x1
 7809 1e63 D801     		.2byte	0x1d8
ARM GAS  C:\Users\Grillmo\AppData\Local\Temp\ccN7xt8j.s 			page 138


 7810 1e65 58020000 		.4byte	0x258
 7811 1e69 01       		.uleb128 0x1
 7812 1e6a 51       		.byte	0x51
 7813 1e6b 00       		.byte	0
 7814 1e6c 22       		.uleb128 0x22
 7815 1e6d B4040000 		.4byte	.LASF200
 7816 1e71 01       		.byte	0x1
 7817 1e72 C801     		.2byte	0x1c8
 7818 1e74 A2000000 		.4byte	0xa2
 7819 1e78 00000000 		.4byte	.LFB120
 7820 1e7c 06000000 		.4byte	.LFE120-.LFB120
 7821 1e80 01       		.uleb128 0x1
 7822 1e81 9C       		.byte	0x9c
 7823 1e82 971E0000 		.4byte	0x1e97
 7824 1e86 18       		.uleb128 0x18
 7825 1e87 AB060000 		.4byte	.LASF67
 7826 1e8b 01       		.byte	0x1
 7827 1e8c C801     		.2byte	0x1c8
 7828 1e8e 41040000 		.4byte	0x441
 7829 1e92 4A1F0000 		.4byte	.LLST5
 7830 1e96 00       		.byte	0
 7831 1e97 22       		.uleb128 0x22
 7832 1e98 C5040000 		.4byte	.LASF201
 7833 1e9c 01       		.byte	0x1
 7834 1e9d BA01     		.2byte	0x1ba
 7835 1e9f BD000000 		.4byte	0xbd
 7836 1ea3 00000000 		.4byte	.LFB119
 7837 1ea7 04000000 		.4byte	.LFE119-.LFB119
 7838 1eab 01       		.uleb128 0x1
 7839 1eac 9C       		.byte	0x9c
 7840 1ead C21E0000 		.4byte	0x1ec2
 7841 1eb1 18       		.uleb128 0x18
 7842 1eb2 AB060000 		.4byte	.LASF67
 7843 1eb6 01       		.byte	0x1
 7844 1eb7 BA01     		.2byte	0x1ba
 7845 1eb9 41040000 		.4byte	0x441
 7846 1ebd 6B1F0000 		.4byte	.LLST4
 7847 1ec1 00       		.byte	0
 7848 1ec2 16       		.uleb128 0x16
 7849 1ec3 46030000 		.4byte	.LASF202
 7850 1ec7 01       		.byte	0x1
 7851 1ec8 AC01     		.2byte	0x1ac
 7852 1eca 00000000 		.4byte	.LFB118
 7853 1ece 04000000 		.4byte	.LFE118-.LFB118
 7854 1ed2 01       		.uleb128 0x1
 7855 1ed3 9C       		.byte	0x9c
 7856 1ed4 F51E0000 		.4byte	0x1ef5
 7857 1ed8 17       		.uleb128 0x17
 7858 1ed9 AB060000 		.4byte	.LASF67
 7859 1edd 01       		.byte	0x1
 7860 1ede AC01     		.2byte	0x1ac
 7861 1ee0 41040000 		.4byte	0x441
 7862 1ee4 01       		.uleb128 0x1
 7863 1ee5 50       		.byte	0x50
 7864 1ee6 17       		.uleb128 0x17
 7865 1ee7 96000000 		.4byte	.LASF203
 7866 1eeb 01       		.byte	0x1
ARM GAS  C:\Users\Grillmo\AppData\Local\Temp\ccN7xt8j.s 			page 139


 7867 1eec AC01     		.2byte	0x1ac
 7868 1eee BD000000 		.4byte	0xbd
 7869 1ef2 01       		.uleb128 0x1
 7870 1ef3 51       		.byte	0x51
 7871 1ef4 00       		.byte	0
 7872 1ef5 16       		.uleb128 0x16
 7873 1ef6 D90C0000 		.4byte	.LASF204
 7874 1efa 01       		.byte	0x1
 7875 1efb 9D01     		.2byte	0x19d
 7876 1efd 00000000 		.4byte	.LFB117
 7877 1f01 04000000 		.4byte	.LFE117-.LFB117
 7878 1f05 01       		.uleb128 0x1
 7879 1f06 9C       		.byte	0x9c
 7880 1f07 281F0000 		.4byte	0x1f28
 7881 1f0b 17       		.uleb128 0x17
 7882 1f0c AB060000 		.4byte	.LASF67
 7883 1f10 01       		.byte	0x1
 7884 1f11 9D01     		.2byte	0x19d
 7885 1f13 41040000 		.4byte	0x441
 7886 1f17 01       		.uleb128 0x1
 7887 1f18 50       		.byte	0x50
 7888 1f19 17       		.uleb128 0x17
 7889 1f1a 02090000 		.4byte	.LASF205
 7890 1f1e 01       		.byte	0x1
 7891 1f1f 9D01     		.2byte	0x19d
 7892 1f21 BD000000 		.4byte	0xbd
 7893 1f25 01       		.uleb128 0x1
 7894 1f26 51       		.byte	0x51
 7895 1f27 00       		.byte	0
 7896 1f28 16       		.uleb128 0x16
 7897 1f29 84020000 		.4byte	.LASF206
 7898 1f2d 01       		.byte	0x1
 7899 1f2e 8301     		.2byte	0x183
 7900 1f30 00000000 		.4byte	.LFB116
 7901 1f34 0E000000 		.4byte	.LFE116-.LFB116
 7902 1f38 01       		.uleb128 0x1
 7903 1f39 9C       		.byte	0x9c
 7904 1f3a 6D1F0000 		.4byte	0x1f6d
 7905 1f3e 17       		.uleb128 0x17
 7906 1f3f AB060000 		.4byte	.LASF67
 7907 1f43 01       		.byte	0x1
 7908 1f44 8301     		.2byte	0x183
 7909 1f46 41040000 		.4byte	0x441
 7910 1f4a 01       		.uleb128 0x1
 7911 1f4b 50       		.byte	0x50
 7912 1f4c 18       		.uleb128 0x18
 7913 1f4d 86000000 		.4byte	.LASF39
 7914 1f51 01       		.byte	0x1
 7915 1f52 8301     		.2byte	0x183
 7916 1f54 A2000000 		.4byte	0xa2
 7917 1f58 8C1F0000 		.4byte	.LLST2
 7918 1f5c 19       		.uleb128 0x19
 7919 1f5d 60010000 		.4byte	.LASF207
 7920 1f61 01       		.byte	0x1
 7921 1f62 8501     		.2byte	0x185
 7922 1f64 A2000000 		.4byte	0xa2
 7923 1f68 AD1F0000 		.4byte	.LLST3
ARM GAS  C:\Users\Grillmo\AppData\Local\Temp\ccN7xt8j.s 			page 140


 7924 1f6c 00       		.byte	0
 7925 1f6d 16       		.uleb128 0x16
 7926 1f6e EE090000 		.4byte	.LASF208
 7927 1f72 01       		.byte	0x1
 7928 1f73 6C01     		.2byte	0x16c
 7929 1f75 00000000 		.4byte	.LFB115
 7930 1f79 06000000 		.4byte	.LFE115-.LFB115
 7931 1f7d 01       		.uleb128 0x1
 7932 1f7e 9C       		.byte	0x9c
 7933 1f7f AE1F0000 		.4byte	0x1fae
 7934 1f83 17       		.uleb128 0x17
 7935 1f84 AB060000 		.4byte	.LASF67
 7936 1f88 01       		.byte	0x1
 7937 1f89 6C01     		.2byte	0x16c
 7938 1f8b 41040000 		.4byte	0x441
 7939 1f8f 01       		.uleb128 0x1
 7940 1f90 50       		.byte	0x50
 7941 1f91 17       		.uleb128 0x17
 7942 1f92 040C0000 		.4byte	.LASF209
 7943 1f96 01       		.byte	0x1
 7944 1f97 6C01     		.2byte	0x16c
 7945 1f99 A2000000 		.4byte	0xa2
 7946 1f9d 01       		.uleb128 0x1
 7947 1f9e 51       		.byte	0x51
 7948 1f9f 17       		.uleb128 0x17
 7949 1fa0 4F070000 		.4byte	.LASF210
 7950 1fa4 01       		.byte	0x1
 7951 1fa5 6C01     		.2byte	0x16c
 7952 1fa7 A2000000 		.4byte	0xa2
 7953 1fab 01       		.uleb128 0x1
 7954 1fac 52       		.byte	0x52
 7955 1fad 00       		.byte	0
 7956 1fae 16       		.uleb128 0x16
 7957 1faf D4040000 		.4byte	.LASF211
 7958 1fb3 01       		.byte	0x1
 7959 1fb4 5801     		.2byte	0x158
 7960 1fb6 00000000 		.4byte	.LFB114
 7961 1fba 12000000 		.4byte	.LFE114-.LFB114
 7962 1fbe 01       		.uleb128 0x1
 7963 1fbf 9C       		.byte	0x9c
 7964 1fc0 D31F0000 		.4byte	0x1fd3
 7965 1fc4 17       		.uleb128 0x17
 7966 1fc5 A8080000 		.4byte	.LASF212
 7967 1fc9 01       		.byte	0x1
 7968 1fca 5801     		.2byte	0x158
 7969 1fcc D31F0000 		.4byte	0x1fd3
 7970 1fd0 01       		.uleb128 0x1
 7971 1fd1 50       		.byte	0x50
 7972 1fd2 00       		.byte	0
 7973 1fd3 15       		.uleb128 0x15
 7974 1fd4 04       		.byte	0x4
 7975 1fd5 A8020000 		.4byte	0x2a8
 7976 1fd9 16       		.uleb128 0x16
 7977 1fda 8E0A0000 		.4byte	.LASF213
 7978 1fde 01       		.byte	0x1
 7979 1fdf 2401     		.2byte	0x124
 7980 1fe1 00000000 		.4byte	.LFB113
ARM GAS  C:\Users\Grillmo\AppData\Local\Temp\ccN7xt8j.s 			page 141


 7981 1fe5 9C000000 		.4byte	.LFE113-.LFB113
 7982 1fe9 01       		.uleb128 0x1
 7983 1fea 9C       		.byte	0x9c
 7984 1feb 1C200000 		.4byte	0x201c
 7985 1fef 17       		.uleb128 0x17
 7986 1ff0 AB060000 		.4byte	.LASF67
 7987 1ff4 01       		.byte	0x1
 7988 1ff5 2401     		.2byte	0x124
 7989 1ff7 41040000 		.4byte	0x441
 7990 1ffb 01       		.uleb128 0x1
 7991 1ffc 50       		.byte	0x50
 7992 1ffd 17       		.uleb128 0x17
 7993 1ffe A8080000 		.4byte	.LASF212
 7994 2002 01       		.byte	0x1
 7995 2003 2401     		.2byte	0x124
 7996 2005 D31F0000 		.4byte	0x1fd3
 7997 2009 01       		.uleb128 0x1
 7998 200a 51       		.byte	0x51
 7999 200b 19       		.uleb128 0x19
 8000 200c 60010000 		.4byte	.LASF207
 8001 2010 01       		.byte	0x1
 8002 2011 2601     		.2byte	0x126
 8003 2013 A2000000 		.4byte	0xa2
 8004 2017 ED1F0000 		.4byte	.LLST1
 8005 201b 00       		.byte	0
 8006 201c 27       		.uleb128 0x27
 8007 201d C10D0000 		.4byte	.LASF214
 8008 2021 01       		.byte	0x1
 8009 2022 CC       		.byte	0xcc
 8010 2023 00000000 		.4byte	.LFB112
 8011 2027 B8010000 		.4byte	.LFE112-.LFB112
 8012 202b 01       		.uleb128 0x1
 8013 202c 9C       		.byte	0x9c
 8014 202d F3220000 		.4byte	0x22f3
 8015 2031 28       		.uleb128 0x28
 8016 2032 AB060000 		.4byte	.LASF67
 8017 2036 01       		.byte	0x1
 8018 2037 CC       		.byte	0xcc
 8019 2038 41040000 		.4byte	0x441
 8020 203c 29200000 		.4byte	.LLST0
 8021 2040 29       		.uleb128 0x29
 8022 2041 66000000 		.4byte	.LVL2
 8023 2045 11240000 		.4byte	0x2411
 8024 2049 5A200000 		.4byte	0x205a
 8025 204d 2A       		.uleb128 0x2a
 8026 204e 01       		.uleb128 0x1
 8027 204f 50       		.byte	0x50
 8028 2050 03       		.uleb128 0x3
 8029 2051 0A       		.byte	0xa
 8030 2052 0001     		.2byte	0x100
 8031 2054 2A       		.uleb128 0x2a
 8032 2055 01       		.uleb128 0x1
 8033 2056 51       		.byte	0x51
 8034 2057 01       		.uleb128 0x1
 8035 2058 31       		.byte	0x31
 8036 2059 00       		.byte	0
 8037 205a 2B       		.uleb128 0x2b
ARM GAS  C:\Users\Grillmo\AppData\Local\Temp\ccN7xt8j.s 			page 142


 8038 205b 74000000 		.4byte	.LVL3
 8039 205f 11240000 		.4byte	0x2411
 8040 2063 74200000 		.4byte	0x2074
 8041 2067 2A       		.uleb128 0x2a
 8042 2068 01       		.uleb128 0x1
 8043 2069 50       		.byte	0x50
 8044 206a 03       		.uleb128 0x3
 8045 206b 0A       		.byte	0xa
 8046 206c 0001     		.2byte	0x100
 8047 206e 2A       		.uleb128 0x2a
 8048 206f 01       		.uleb128 0x1
 8049 2070 51       		.byte	0x51
 8050 2071 01       		.uleb128 0x1
 8051 2072 30       		.byte	0x30
 8052 2073 00       		.byte	0
 8053 2074 29       		.uleb128 0x29
 8054 2075 7C000000 		.4byte	.LVL5
 8055 2079 1D240000 		.4byte	0x241d
 8056 207d 8C200000 		.4byte	0x208c
 8057 2081 2A       		.uleb128 0x2a
 8058 2082 01       		.uleb128 0x1
 8059 2083 50       		.byte	0x50
 8060 2084 01       		.uleb128 0x1
 8061 2085 31       		.byte	0x31
 8062 2086 2A       		.uleb128 0x2a
 8063 2087 01       		.uleb128 0x1
 8064 2088 51       		.byte	0x51
 8065 2089 01       		.uleb128 0x1
 8066 208a 31       		.byte	0x31
 8067 208b 00       		.byte	0
 8068 208c 2B       		.uleb128 0x2b
 8069 208d 88000000 		.4byte	.LVL6
 8070 2091 1D240000 		.4byte	0x241d
 8071 2095 A4200000 		.4byte	0x20a4
 8072 2099 2A       		.uleb128 0x2a
 8073 209a 01       		.uleb128 0x1
 8074 209b 50       		.byte	0x50
 8075 209c 01       		.uleb128 0x1
 8076 209d 31       		.byte	0x31
 8077 209e 2A       		.uleb128 0x2a
 8078 209f 01       		.uleb128 0x1
 8079 20a0 51       		.byte	0x51
 8080 20a1 01       		.uleb128 0x1
 8081 20a2 30       		.byte	0x30
 8082 20a3 00       		.byte	0
 8083 20a4 29       		.uleb128 0x29
 8084 20a5 90000000 		.4byte	.LVL8
 8085 20a9 11240000 		.4byte	0x2411
 8086 20ad BC200000 		.4byte	0x20bc
 8087 20b1 2A       		.uleb128 0x2a
 8088 20b2 01       		.uleb128 0x1
 8089 20b3 50       		.byte	0x50
 8090 20b4 01       		.uleb128 0x1
 8091 20b5 31       		.byte	0x31
 8092 20b6 2A       		.uleb128 0x2a
 8093 20b7 01       		.uleb128 0x1
 8094 20b8 51       		.byte	0x51
ARM GAS  C:\Users\Grillmo\AppData\Local\Temp\ccN7xt8j.s 			page 143


 8095 20b9 01       		.uleb128 0x1
 8096 20ba 31       		.byte	0x31
 8097 20bb 00       		.byte	0
 8098 20bc 2B       		.uleb128 0x2b
 8099 20bd 9C000000 		.4byte	.LVL9
 8100 20c1 11240000 		.4byte	0x2411
 8101 20c5 D4200000 		.4byte	0x20d4
 8102 20c9 2A       		.uleb128 0x2a
 8103 20ca 01       		.uleb128 0x1
 8104 20cb 50       		.byte	0x50
 8105 20cc 01       		.uleb128 0x1
 8106 20cd 31       		.byte	0x31
 8107 20ce 2A       		.uleb128 0x2a
 8108 20cf 01       		.uleb128 0x1
 8109 20d0 51       		.byte	0x51
 8110 20d1 01       		.uleb128 0x1
 8111 20d2 30       		.byte	0x30
 8112 20d3 00       		.byte	0
 8113 20d4 29       		.uleb128 0x29
 8114 20d5 A4000000 		.4byte	.LVL11
 8115 20d9 11240000 		.4byte	0x2411
 8116 20dd EC200000 		.4byte	0x20ec
 8117 20e1 2A       		.uleb128 0x2a
 8118 20e2 01       		.uleb128 0x1
 8119 20e3 50       		.byte	0x50
 8120 20e4 01       		.uleb128 0x1
 8121 20e5 32       		.byte	0x32
 8122 20e6 2A       		.uleb128 0x2a
 8123 20e7 01       		.uleb128 0x1
 8124 20e8 51       		.byte	0x51
 8125 20e9 01       		.uleb128 0x1
 8126 20ea 31       		.byte	0x31
 8127 20eb 00       		.byte	0
 8128 20ec 2B       		.uleb128 0x2b
 8129 20ed B0000000 		.4byte	.LVL12
 8130 20f1 11240000 		.4byte	0x2411
 8131 20f5 04210000 		.4byte	0x2104
 8132 20f9 2A       		.uleb128 0x2a
 8133 20fa 01       		.uleb128 0x1
 8134 20fb 50       		.byte	0x50
 8135 20fc 01       		.uleb128 0x1
 8136 20fd 32       		.byte	0x32
 8137 20fe 2A       		.uleb128 0x2a
 8138 20ff 01       		.uleb128 0x1
 8139 2100 51       		.byte	0x51
 8140 2101 01       		.uleb128 0x1
 8141 2102 30       		.byte	0x30
 8142 2103 00       		.byte	0
 8143 2104 29       		.uleb128 0x29
 8144 2105 B8000000 		.4byte	.LVL14
 8145 2109 11240000 		.4byte	0x2411
 8146 210d 1C210000 		.4byte	0x211c
 8147 2111 2A       		.uleb128 0x2a
 8148 2112 01       		.uleb128 0x1
 8149 2113 50       		.byte	0x50
 8150 2114 01       		.uleb128 0x1
 8151 2115 34       		.byte	0x34
ARM GAS  C:\Users\Grillmo\AppData\Local\Temp\ccN7xt8j.s 			page 144


 8152 2116 2A       		.uleb128 0x2a
 8153 2117 01       		.uleb128 0x1
 8154 2118 51       		.byte	0x51
 8155 2119 01       		.uleb128 0x1
 8156 211a 31       		.byte	0x31
 8157 211b 00       		.byte	0
 8158 211c 2B       		.uleb128 0x2b
 8159 211d C4000000 		.4byte	.LVL15
 8160 2121 11240000 		.4byte	0x2411
 8161 2125 34210000 		.4byte	0x2134
 8162 2129 2A       		.uleb128 0x2a
 8163 212a 01       		.uleb128 0x1
 8164 212b 50       		.byte	0x50
 8165 212c 01       		.uleb128 0x1
 8166 212d 34       		.byte	0x34
 8167 212e 2A       		.uleb128 0x2a
 8168 212f 01       		.uleb128 0x1
 8169 2130 51       		.byte	0x51
 8170 2131 01       		.uleb128 0x1
 8171 2132 30       		.byte	0x30
 8172 2133 00       		.byte	0
 8173 2134 29       		.uleb128 0x29
 8174 2135 CC000000 		.4byte	.LVL17
 8175 2139 11240000 		.4byte	0x2411
 8176 213d 4C210000 		.4byte	0x214c
 8177 2141 2A       		.uleb128 0x2a
 8178 2142 01       		.uleb128 0x1
 8179 2143 50       		.byte	0x50
 8180 2144 01       		.uleb128 0x1
 8181 2145 38       		.byte	0x38
 8182 2146 2A       		.uleb128 0x2a
 8183 2147 01       		.uleb128 0x1
 8184 2148 51       		.byte	0x51
 8185 2149 01       		.uleb128 0x1
 8186 214a 31       		.byte	0x31
 8187 214b 00       		.byte	0
 8188 214c 2B       		.uleb128 0x2b
 8189 214d D8000000 		.4byte	.LVL18
 8190 2151 11240000 		.4byte	0x2411
 8191 2155 64210000 		.4byte	0x2164
 8192 2159 2A       		.uleb128 0x2a
 8193 215a 01       		.uleb128 0x1
 8194 215b 50       		.byte	0x50
 8195 215c 01       		.uleb128 0x1
 8196 215d 38       		.byte	0x38
 8197 215e 2A       		.uleb128 0x2a
 8198 215f 01       		.uleb128 0x1
 8199 2160 51       		.byte	0x51
 8200 2161 01       		.uleb128 0x1
 8201 2162 30       		.byte	0x30
 8202 2163 00       		.byte	0
 8203 2164 29       		.uleb128 0x29
 8204 2165 E0000000 		.4byte	.LVL20
 8205 2169 11240000 		.4byte	0x2411
 8206 216d 7C210000 		.4byte	0x217c
 8207 2171 2A       		.uleb128 0x2a
 8208 2172 01       		.uleb128 0x1
ARM GAS  C:\Users\Grillmo\AppData\Local\Temp\ccN7xt8j.s 			page 145


 8209 2173 50       		.byte	0x50
 8210 2174 01       		.uleb128 0x1
 8211 2175 40       		.byte	0x40
 8212 2176 2A       		.uleb128 0x2a
 8213 2177 01       		.uleb128 0x1
 8214 2178 51       		.byte	0x51
 8215 2179 01       		.uleb128 0x1
 8216 217a 31       		.byte	0x31
 8217 217b 00       		.byte	0
 8218 217c 2B       		.uleb128 0x2b
 8219 217d EC000000 		.4byte	.LVL21
 8220 2181 11240000 		.4byte	0x2411
 8221 2185 94210000 		.4byte	0x2194
 8222 2189 2A       		.uleb128 0x2a
 8223 218a 01       		.uleb128 0x1
 8224 218b 50       		.byte	0x50
 8225 218c 01       		.uleb128 0x1
 8226 218d 40       		.byte	0x40
 8227 218e 2A       		.uleb128 0x2a
 8228 218f 01       		.uleb128 0x1
 8229 2190 51       		.byte	0x51
 8230 2191 01       		.uleb128 0x1
 8231 2192 30       		.byte	0x30
 8232 2193 00       		.byte	0
 8233 2194 29       		.uleb128 0x29
 8234 2195 F4000000 		.4byte	.LVL23
 8235 2199 11240000 		.4byte	0x2411
 8236 219d AD210000 		.4byte	0x21ad
 8237 21a1 2A       		.uleb128 0x2a
 8238 21a2 01       		.uleb128 0x1
 8239 21a3 50       		.byte	0x50
 8240 21a4 02       		.uleb128 0x2
 8241 21a5 08       		.byte	0x8
 8242 21a6 20       		.byte	0x20
 8243 21a7 2A       		.uleb128 0x2a
 8244 21a8 01       		.uleb128 0x1
 8245 21a9 51       		.byte	0x51
 8246 21aa 01       		.uleb128 0x1
 8247 21ab 31       		.byte	0x31
 8248 21ac 00       		.byte	0
 8249 21ad 2B       		.uleb128 0x2b
 8250 21ae 00010000 		.4byte	.LVL24
 8251 21b2 11240000 		.4byte	0x2411
 8252 21b6 C6210000 		.4byte	0x21c6
 8253 21ba 2A       		.uleb128 0x2a
 8254 21bb 01       		.uleb128 0x1
 8255 21bc 50       		.byte	0x50
 8256 21bd 02       		.uleb128 0x2
 8257 21be 08       		.byte	0x8
 8258 21bf 20       		.byte	0x20
 8259 21c0 2A       		.uleb128 0x2a
 8260 21c1 01       		.uleb128 0x1
 8261 21c2 51       		.byte	0x51
 8262 21c3 01       		.uleb128 0x1
 8263 21c4 30       		.byte	0x30
 8264 21c5 00       		.byte	0
 8265 21c6 29       		.uleb128 0x29
ARM GAS  C:\Users\Grillmo\AppData\Local\Temp\ccN7xt8j.s 			page 146


 8266 21c7 08010000 		.4byte	.LVL26
 8267 21cb 1D240000 		.4byte	0x241d
 8268 21cf DE210000 		.4byte	0x21de
 8269 21d3 2A       		.uleb128 0x2a
 8270 21d4 01       		.uleb128 0x1
 8271 21d5 50       		.byte	0x50
 8272 21d6 01       		.uleb128 0x1
 8273 21d7 32       		.byte	0x32
 8274 21d8 2A       		.uleb128 0x2a
 8275 21d9 01       		.uleb128 0x1
 8276 21da 51       		.byte	0x51
 8277 21db 01       		.uleb128 0x1
 8278 21dc 31       		.byte	0x31
 8279 21dd 00       		.byte	0
 8280 21de 2B       		.uleb128 0x2b
 8281 21df 14010000 		.4byte	.LVL27
 8282 21e3 1D240000 		.4byte	0x241d
 8283 21e7 F6210000 		.4byte	0x21f6
 8284 21eb 2A       		.uleb128 0x2a
 8285 21ec 01       		.uleb128 0x1
 8286 21ed 50       		.byte	0x50
 8287 21ee 01       		.uleb128 0x1
 8288 21ef 32       		.byte	0x32
 8289 21f0 2A       		.uleb128 0x2a
 8290 21f1 01       		.uleb128 0x1
 8291 21f2 51       		.byte	0x51
 8292 21f3 01       		.uleb128 0x1
 8293 21f4 30       		.byte	0x30
 8294 21f5 00       		.byte	0
 8295 21f6 29       		.uleb128 0x29
 8296 21f7 1E010000 		.4byte	.LVL29
 8297 21fb 1D240000 		.4byte	0x241d
 8298 21ff 10220000 		.4byte	0x2210
 8299 2203 2A       		.uleb128 0x2a
 8300 2204 01       		.uleb128 0x1
 8301 2205 50       		.byte	0x50
 8302 2206 03       		.uleb128 0x3
 8303 2207 40       		.byte	0x40
 8304 2208 3C       		.byte	0x3c
 8305 2209 24       		.byte	0x24
 8306 220a 2A       		.uleb128 0x2a
 8307 220b 01       		.uleb128 0x1
 8308 220c 51       		.byte	0x51
 8309 220d 01       		.uleb128 0x1
 8310 220e 31       		.byte	0x31
 8311 220f 00       		.byte	0
 8312 2210 2B       		.uleb128 0x2b
 8313 2211 2C010000 		.4byte	.LVL30
 8314 2215 1D240000 		.4byte	0x241d
 8315 2219 2A220000 		.4byte	0x222a
 8316 221d 2A       		.uleb128 0x2a
 8317 221e 01       		.uleb128 0x1
 8318 221f 50       		.byte	0x50
 8319 2220 03       		.uleb128 0x3
 8320 2221 40       		.byte	0x40
 8321 2222 3C       		.byte	0x3c
 8322 2223 24       		.byte	0x24
ARM GAS  C:\Users\Grillmo\AppData\Local\Temp\ccN7xt8j.s 			page 147


 8323 2224 2A       		.uleb128 0x2a
 8324 2225 01       		.uleb128 0x1
 8325 2226 51       		.byte	0x51
 8326 2227 01       		.uleb128 0x1
 8327 2228 30       		.byte	0x30
 8328 2229 00       		.byte	0
 8329 222a 29       		.uleb128 0x29
 8330 222b 36010000 		.4byte	.LVL32
 8331 222f 1D240000 		.4byte	0x241d
 8332 2233 44220000 		.4byte	0x2244
 8333 2237 2A       		.uleb128 0x2a
 8334 2238 01       		.uleb128 0x1
 8335 2239 50       		.byte	0x50
 8336 223a 03       		.uleb128 0x3
 8337 223b 40       		.byte	0x40
 8338 223c 3D       		.byte	0x3d
 8339 223d 24       		.byte	0x24
 8340 223e 2A       		.uleb128 0x2a
 8341 223f 01       		.uleb128 0x1
 8342 2240 51       		.byte	0x51
 8343 2241 01       		.uleb128 0x1
 8344 2242 31       		.byte	0x31
 8345 2243 00       		.byte	0
 8346 2244 2B       		.uleb128 0x2b
 8347 2245 44010000 		.4byte	.LVL33
 8348 2249 1D240000 		.4byte	0x241d
 8349 224d 5E220000 		.4byte	0x225e
 8350 2251 2A       		.uleb128 0x2a
 8351 2252 01       		.uleb128 0x1
 8352 2253 50       		.byte	0x50
 8353 2254 03       		.uleb128 0x3
 8354 2255 40       		.byte	0x40
 8355 2256 3D       		.byte	0x3d
 8356 2257 24       		.byte	0x24
 8357 2258 2A       		.uleb128 0x2a
 8358 2259 01       		.uleb128 0x1
 8359 225a 51       		.byte	0x51
 8360 225b 01       		.uleb128 0x1
 8361 225c 30       		.byte	0x30
 8362 225d 00       		.byte	0
 8363 225e 29       		.uleb128 0x29
 8364 225f 4E010000 		.4byte	.LVL35
 8365 2263 1D240000 		.4byte	0x241d
 8366 2267 78220000 		.4byte	0x2278
 8367 226b 2A       		.uleb128 0x2a
 8368 226c 01       		.uleb128 0x1
 8369 226d 50       		.byte	0x50
 8370 226e 03       		.uleb128 0x3
 8371 226f 40       		.byte	0x40
 8372 2270 3E       		.byte	0x3e
 8373 2271 24       		.byte	0x24
 8374 2272 2A       		.uleb128 0x2a
 8375 2273 01       		.uleb128 0x1
 8376 2274 51       		.byte	0x51
 8377 2275 01       		.uleb128 0x1
 8378 2276 31       		.byte	0x31
 8379 2277 00       		.byte	0
ARM GAS  C:\Users\Grillmo\AppData\Local\Temp\ccN7xt8j.s 			page 148


 8380 2278 2B       		.uleb128 0x2b
 8381 2279 5C010000 		.4byte	.LVL36
 8382 227d 1D240000 		.4byte	0x241d
 8383 2281 92220000 		.4byte	0x2292
 8384 2285 2A       		.uleb128 0x2a
 8385 2286 01       		.uleb128 0x1
 8386 2287 50       		.byte	0x50
 8387 2288 03       		.uleb128 0x3
 8388 2289 40       		.byte	0x40
 8389 228a 3E       		.byte	0x3e
 8390 228b 24       		.byte	0x24
 8391 228c 2A       		.uleb128 0x2a
 8392 228d 01       		.uleb128 0x1
 8393 228e 51       		.byte	0x51
 8394 228f 01       		.uleb128 0x1
 8395 2290 30       		.byte	0x30
 8396 2291 00       		.byte	0
 8397 2292 29       		.uleb128 0x29
 8398 2293 64010000 		.4byte	.LVL38
 8399 2297 11240000 		.4byte	0x2411
 8400 229b AB220000 		.4byte	0x22ab
 8401 229f 2A       		.uleb128 0x2a
 8402 22a0 01       		.uleb128 0x1
 8403 22a1 50       		.byte	0x50
 8404 22a2 02       		.uleb128 0x2
 8405 22a3 08       		.byte	0x8
 8406 22a4 40       		.byte	0x40
 8407 22a5 2A       		.uleb128 0x2a
 8408 22a6 01       		.uleb128 0x1
 8409 22a7 51       		.byte	0x51
 8410 22a8 01       		.uleb128 0x1
 8411 22a9 31       		.byte	0x31
 8412 22aa 00       		.byte	0
 8413 22ab 2B       		.uleb128 0x2b
 8414 22ac 70010000 		.4byte	.LVL39
 8415 22b0 11240000 		.4byte	0x2411
 8416 22b4 C4220000 		.4byte	0x22c4
 8417 22b8 2A       		.uleb128 0x2a
 8418 22b9 01       		.uleb128 0x1
 8419 22ba 50       		.byte	0x50
 8420 22bb 02       		.uleb128 0x2
 8421 22bc 08       		.byte	0x8
 8422 22bd 40       		.byte	0x40
 8423 22be 2A       		.uleb128 0x2a
 8424 22bf 01       		.uleb128 0x1
 8425 22c0 51       		.byte	0x51
 8426 22c1 01       		.uleb128 0x1
 8427 22c2 30       		.byte	0x30
 8428 22c3 00       		.byte	0
 8429 22c4 29       		.uleb128 0x29
 8430 22c5 78010000 		.4byte	.LVL41
 8431 22c9 11240000 		.4byte	0x2411
 8432 22cd DD220000 		.4byte	0x22dd
 8433 22d1 2A       		.uleb128 0x2a
 8434 22d2 01       		.uleb128 0x1
 8435 22d3 50       		.byte	0x50
 8436 22d4 02       		.uleb128 0x2
ARM GAS  C:\Users\Grillmo\AppData\Local\Temp\ccN7xt8j.s 			page 149


 8437 22d5 08       		.byte	0x8
 8438 22d6 80       		.byte	0x80
 8439 22d7 2A       		.uleb128 0x2a
 8440 22d8 01       		.uleb128 0x1
 8441 22d9 51       		.byte	0x51
 8442 22da 01       		.uleb128 0x1
 8443 22db 31       		.byte	0x31
 8444 22dc 00       		.byte	0
 8445 22dd 2C       		.uleb128 0x2c
 8446 22de 84010000 		.4byte	.LVL42
 8447 22e2 11240000 		.4byte	0x2411
 8448 22e6 2A       		.uleb128 0x2a
 8449 22e7 01       		.uleb128 0x1
 8450 22e8 50       		.byte	0x50
 8451 22e9 02       		.uleb128 0x2
 8452 22ea 08       		.byte	0x8
 8453 22eb 80       		.byte	0x80
 8454 22ec 2A       		.uleb128 0x2a
 8455 22ed 01       		.uleb128 0x1
 8456 22ee 51       		.byte	0x51
 8457 22ef 01       		.uleb128 0x1
 8458 22f0 30       		.byte	0x30
 8459 22f1 00       		.byte	0
 8460 22f2 00       		.byte	0
 8461 22f3 2D       		.uleb128 0x2d
 8462 22f4 F90D0000 		.4byte	0xdf9
 8463 22f8 00000000 		.4byte	.LFB169
 8464 22fc 12000000 		.4byte	.LFE169-.LFB169
 8465 2300 01       		.uleb128 0x1
 8466 2301 9C       		.byte	0x9c
 8467 2302 17230000 		.4byte	0x2317
 8468 2306 21       		.uleb128 0x21
 8469 2307 060E0000 		.4byte	0xe06
 8470 230b 01       		.uleb128 0x1
 8471 230c 50       		.byte	0x50
 8472 230d 1C       		.uleb128 0x1c
 8473 230e 120E0000 		.4byte	0xe12
 8474 2312 8F210000 		.4byte	.LLST155
 8475 2316 00       		.byte	0
 8476 2317 2D       		.uleb128 0x2d
 8477 2318 D30D0000 		.4byte	0xdd3
 8478 231c 00000000 		.4byte	.LFB170
 8479 2320 16000000 		.4byte	.LFE170-.LFB170
 8480 2324 01       		.uleb128 0x1
 8481 2325 9C       		.byte	0x9c
 8482 2326 3B230000 		.4byte	0x233b
 8483 232a 21       		.uleb128 0x21
 8484 232b E00D0000 		.4byte	0xde0
 8485 232f 01       		.uleb128 0x1
 8486 2330 50       		.byte	0x50
 8487 2331 1C       		.uleb128 0x1c
 8488 2332 EC0D0000 		.4byte	0xdec
 8489 2336 B0210000 		.4byte	.LLST156
 8490 233a 00       		.byte	0
 8491 233b 2D       		.uleb128 0x2d
 8492 233c AD0D0000 		.4byte	0xdad
 8493 2340 00000000 		.4byte	.LFB171
ARM GAS  C:\Users\Grillmo\AppData\Local\Temp\ccN7xt8j.s 			page 150


 8494 2344 12000000 		.4byte	.LFE171-.LFB171
 8495 2348 01       		.uleb128 0x1
 8496 2349 9C       		.byte	0x9c
 8497 234a 5F230000 		.4byte	0x235f
 8498 234e 21       		.uleb128 0x21
 8499 234f BA0D0000 		.4byte	0xdba
 8500 2353 01       		.uleb128 0x1
 8501 2354 50       		.byte	0x50
 8502 2355 1C       		.uleb128 0x1c
 8503 2356 C60D0000 		.4byte	0xdc6
 8504 235a D1210000 		.4byte	.LLST157
 8505 235e 00       		.byte	0
 8506 235f 2D       		.uleb128 0x2d
 8507 2360 870D0000 		.4byte	0xd87
 8508 2364 00000000 		.4byte	.LFB172
 8509 2368 16000000 		.4byte	.LFE172-.LFB172
 8510 236c 01       		.uleb128 0x1
 8511 236d 9C       		.byte	0x9c
 8512 236e 83230000 		.4byte	0x2383
 8513 2372 21       		.uleb128 0x21
 8514 2373 940D0000 		.4byte	0xd94
 8515 2377 01       		.uleb128 0x1
 8516 2378 50       		.byte	0x50
 8517 2379 1C       		.uleb128 0x1c
 8518 237a A00D0000 		.4byte	0xda0
 8519 237e F2210000 		.4byte	.LLST158
 8520 2382 00       		.byte	0
 8521 2383 2D       		.uleb128 0x2d
 8522 2384 2D0B0000 		.4byte	0xb2d
 8523 2388 00000000 		.4byte	.LFB183
 8524 238c 08000000 		.4byte	.LFE183-.LFB183
 8525 2390 01       		.uleb128 0x1
 8526 2391 9C       		.byte	0x9c
 8527 2392 A7230000 		.4byte	0x23a7
 8528 2396 21       		.uleb128 0x21
 8529 2397 3A0B0000 		.4byte	0xb3a
 8530 239b 01       		.uleb128 0x1
 8531 239c 50       		.byte	0x50
 8532 239d 1C       		.uleb128 0x1c
 8533 239e 460B0000 		.4byte	0xb46
 8534 23a2 13220000 		.4byte	.LLST166
 8535 23a6 00       		.byte	0
 8536 23a7 2D       		.uleb128 0x2d
 8537 23a8 33070000 		.4byte	0x733
 8538 23ac 00000000 		.4byte	.LFB192
 8539 23b0 0E000000 		.4byte	.LFE192-.LFB192
 8540 23b4 01       		.uleb128 0x1
 8541 23b5 9C       		.byte	0x9c
 8542 23b6 D4230000 		.4byte	0x23d4
 8543 23ba 21       		.uleb128 0x21
 8544 23bb 40070000 		.4byte	0x740
 8545 23bf 01       		.uleb128 0x1
 8546 23c0 50       		.byte	0x50
 8547 23c1 1C       		.uleb128 0x1c
 8548 23c2 4C070000 		.4byte	0x74c
 8549 23c6 34220000 		.4byte	.LLST205
 8550 23ca 1E       		.uleb128 0x1e
ARM GAS  C:\Users\Grillmo\AppData\Local\Temp\ccN7xt8j.s 			page 151


 8551 23cb 58070000 		.4byte	0x758
 8552 23cf 55220000 		.4byte	.LLST206
 8553 23d3 00       		.byte	0
 8554 23d4 2D       		.uleb128 0x2d
 8555 23d5 4A060000 		.4byte	0x64a
 8556 23d9 00000000 		.4byte	.LFB196
 8557 23dd 18000000 		.4byte	.LFE196-.LFB196
 8558 23e1 01       		.uleb128 0x1
 8559 23e2 9C       		.byte	0x9c
 8560 23e3 11240000 		.4byte	0x2411
 8561 23e7 21       		.uleb128 0x21
 8562 23e8 57060000 		.4byte	0x657
 8563 23ec 01       		.uleb128 0x1
 8564 23ed 50       		.byte	0x50
 8565 23ee 21       		.uleb128 0x21
 8566 23ef 63060000 		.4byte	0x663
 8567 23f3 01       		.uleb128 0x1
 8568 23f4 51       		.byte	0x51
 8569 23f5 1C       		.uleb128 0x1c
 8570 23f6 6F060000 		.4byte	0x66f
 8571 23fa 95220000 		.4byte	.LLST210
 8572 23fe 1C       		.uleb128 0x1c
 8573 23ff 7B060000 		.4byte	0x67b
 8574 2403 B6220000 		.4byte	.LLST211
 8575 2407 1E       		.uleb128 0x1e
 8576 2408 87060000 		.4byte	0x687
 8577 240c D7220000 		.4byte	.LLST212
 8578 2410 00       		.byte	0
 8579 2411 2E       		.uleb128 0x2e
 8580 2412 37010000 		.4byte	.LASF215
 8581 2416 37010000 		.4byte	.LASF215
 8582 241a 09       		.byte	0x9
 8583 241b 6103     		.2byte	0x361
 8584 241d 2E       		.uleb128 0x2e
 8585 241e BF080000 		.4byte	.LASF216
 8586 2422 BF080000 		.4byte	.LASF216
 8587 2426 09       		.byte	0x9
 8588 2427 6203     		.2byte	0x362
 8589 2429 00       		.byte	0
 8590              		.section	.debug_abbrev,"",%progbits
 8591              	.Ldebug_abbrev0:
 8592 0000 01       		.uleb128 0x1
 8593 0001 11       		.uleb128 0x11
 8594 0002 01       		.byte	0x1
 8595 0003 25       		.uleb128 0x25
 8596 0004 0E       		.uleb128 0xe
 8597 0005 13       		.uleb128 0x13
 8598 0006 0B       		.uleb128 0xb
 8599 0007 03       		.uleb128 0x3
 8600 0008 0E       		.uleb128 0xe
 8601 0009 1B       		.uleb128 0x1b
 8602 000a 0E       		.uleb128 0xe
 8603 000b 55       		.uleb128 0x55
 8604 000c 17       		.uleb128 0x17
 8605 000d 11       		.uleb128 0x11
 8606 000e 01       		.uleb128 0x1
 8607 000f 10       		.uleb128 0x10
ARM GAS  C:\Users\Grillmo\AppData\Local\Temp\ccN7xt8j.s 			page 152


 8608 0010 17       		.uleb128 0x17
 8609 0011 00       		.byte	0
 8610 0012 00       		.byte	0
 8611 0013 02       		.uleb128 0x2
 8612 0014 24       		.uleb128 0x24
 8613 0015 00       		.byte	0
 8614 0016 0B       		.uleb128 0xb
 8615 0017 0B       		.uleb128 0xb
 8616 0018 3E       		.uleb128 0x3e
 8617 0019 0B       		.uleb128 0xb
 8618 001a 03       		.uleb128 0x3
 8619 001b 0E       		.uleb128 0xe
 8620 001c 00       		.byte	0
 8621 001d 00       		.byte	0
 8622 001e 03       		.uleb128 0x3
 8623 001f 16       		.uleb128 0x16
 8624 0020 00       		.byte	0
 8625 0021 03       		.uleb128 0x3
 8626 0022 0E       		.uleb128 0xe
 8627 0023 3A       		.uleb128 0x3a
 8628 0024 0B       		.uleb128 0xb
 8629 0025 3B       		.uleb128 0x3b
 8630 0026 0B       		.uleb128 0xb
 8631 0027 49       		.uleb128 0x49
 8632 0028 13       		.uleb128 0x13
 8633 0029 00       		.byte	0
 8634 002a 00       		.byte	0
 8635 002b 04       		.uleb128 0x4
 8636 002c 24       		.uleb128 0x24
 8637 002d 00       		.byte	0
 8638 002e 0B       		.uleb128 0xb
 8639 002f 0B       		.uleb128 0xb
 8640 0030 3E       		.uleb128 0x3e
 8641 0031 0B       		.uleb128 0xb
 8642 0032 03       		.uleb128 0x3
 8643 0033 08       		.uleb128 0x8
 8644 0034 00       		.byte	0
 8645 0035 00       		.byte	0
 8646 0036 05       		.uleb128 0x5
 8647 0037 35       		.uleb128 0x35
 8648 0038 00       		.byte	0
 8649 0039 49       		.uleb128 0x49
 8650 003a 13       		.uleb128 0x13
 8651 003b 00       		.byte	0
 8652 003c 00       		.byte	0
 8653 003d 06       		.uleb128 0x6
 8654 003e 34       		.uleb128 0x34
 8655 003f 00       		.byte	0
 8656 0040 03       		.uleb128 0x3
 8657 0041 0E       		.uleb128 0xe
 8658 0042 3A       		.uleb128 0x3a
 8659 0043 0B       		.uleb128 0xb
 8660 0044 3B       		.uleb128 0x3b
 8661 0045 05       		.uleb128 0x5
 8662 0046 49       		.uleb128 0x49
 8663 0047 13       		.uleb128 0x13
 8664 0048 3F       		.uleb128 0x3f
ARM GAS  C:\Users\Grillmo\AppData\Local\Temp\ccN7xt8j.s 			page 153


 8665 0049 19       		.uleb128 0x19
 8666 004a 3C       		.uleb128 0x3c
 8667 004b 19       		.uleb128 0x19
 8668 004c 00       		.byte	0
 8669 004d 00       		.byte	0
 8670 004e 07       		.uleb128 0x7
 8671 004f 34       		.uleb128 0x34
 8672 0050 00       		.byte	0
 8673 0051 03       		.uleb128 0x3
 8674 0052 0E       		.uleb128 0xe
 8675 0053 3A       		.uleb128 0x3a
 8676 0054 0B       		.uleb128 0xb
 8677 0055 3B       		.uleb128 0x3b
 8678 0056 0B       		.uleb128 0xb
 8679 0057 49       		.uleb128 0x49
 8680 0058 13       		.uleb128 0x13
 8681 0059 3F       		.uleb128 0x3f
 8682 005a 19       		.uleb128 0x19
 8683 005b 3C       		.uleb128 0x3c
 8684 005c 19       		.uleb128 0x19
 8685 005d 00       		.byte	0
 8686 005e 00       		.byte	0
 8687 005f 08       		.uleb128 0x8
 8688 0060 13       		.uleb128 0x13
 8689 0061 01       		.byte	0x1
 8690 0062 0B       		.uleb128 0xb
 8691 0063 0B       		.uleb128 0xb
 8692 0064 3A       		.uleb128 0x3a
 8693 0065 0B       		.uleb128 0xb
 8694 0066 3B       		.uleb128 0x3b
 8695 0067 05       		.uleb128 0x5
 8696 0068 01       		.uleb128 0x1
 8697 0069 13       		.uleb128 0x13
 8698 006a 00       		.byte	0
 8699 006b 00       		.byte	0
 8700 006c 09       		.uleb128 0x9
 8701 006d 0D       		.uleb128 0xd
 8702 006e 00       		.byte	0
 8703 006f 03       		.uleb128 0x3
 8704 0070 08       		.uleb128 0x8
 8705 0071 3A       		.uleb128 0x3a
 8706 0072 0B       		.uleb128 0xb
 8707 0073 3B       		.uleb128 0x3b
 8708 0074 05       		.uleb128 0x5
 8709 0075 49       		.uleb128 0x49
 8710 0076 13       		.uleb128 0x13
 8711 0077 38       		.uleb128 0x38
 8712 0078 0B       		.uleb128 0xb
 8713 0079 00       		.byte	0
 8714 007a 00       		.byte	0
 8715 007b 0A       		.uleb128 0xa
 8716 007c 0D       		.uleb128 0xd
 8717 007d 00       		.byte	0
 8718 007e 03       		.uleb128 0x3
 8719 007f 0E       		.uleb128 0xe
 8720 0080 3A       		.uleb128 0x3a
 8721 0081 0B       		.uleb128 0xb
ARM GAS  C:\Users\Grillmo\AppData\Local\Temp\ccN7xt8j.s 			page 154


 8722 0082 3B       		.uleb128 0x3b
 8723 0083 05       		.uleb128 0x5
 8724 0084 49       		.uleb128 0x49
 8725 0085 13       		.uleb128 0x13
 8726 0086 38       		.uleb128 0x38
 8727 0087 0B       		.uleb128 0xb
 8728 0088 00       		.byte	0
 8729 0089 00       		.byte	0
 8730 008a 0B       		.uleb128 0xb
 8731 008b 16       		.uleb128 0x16
 8732 008c 00       		.byte	0
 8733 008d 03       		.uleb128 0x3
 8734 008e 0E       		.uleb128 0xe
 8735 008f 3A       		.uleb128 0x3a
 8736 0090 0B       		.uleb128 0xb
 8737 0091 3B       		.uleb128 0x3b
 8738 0092 05       		.uleb128 0x5
 8739 0093 49       		.uleb128 0x49
 8740 0094 13       		.uleb128 0x13
 8741 0095 00       		.byte	0
 8742 0096 00       		.byte	0
 8743 0097 0C       		.uleb128 0xc
 8744 0098 04       		.uleb128 0x4
 8745 0099 01       		.byte	0x1
 8746 009a 0B       		.uleb128 0xb
 8747 009b 0B       		.uleb128 0xb
 8748 009c 49       		.uleb128 0x49
 8749 009d 13       		.uleb128 0x13
 8750 009e 3A       		.uleb128 0x3a
 8751 009f 0B       		.uleb128 0xb
 8752 00a0 3B       		.uleb128 0x3b
 8753 00a1 0B       		.uleb128 0xb
 8754 00a2 01       		.uleb128 0x1
 8755 00a3 13       		.uleb128 0x13
 8756 00a4 00       		.byte	0
 8757 00a5 00       		.byte	0
 8758 00a6 0D       		.uleb128 0xd
 8759 00a7 28       		.uleb128 0x28
 8760 00a8 00       		.byte	0
 8761 00a9 03       		.uleb128 0x3
 8762 00aa 0E       		.uleb128 0xe
 8763 00ab 1C       		.uleb128 0x1c
 8764 00ac 0B       		.uleb128 0xb
 8765 00ad 00       		.byte	0
 8766 00ae 00       		.byte	0
 8767 00af 0E       		.uleb128 0xe
 8768 00b0 28       		.uleb128 0x28
 8769 00b1 00       		.byte	0
 8770 00b2 03       		.uleb128 0x3
 8771 00b3 08       		.uleb128 0x8
 8772 00b4 1C       		.uleb128 0x1c
 8773 00b5 0B       		.uleb128 0xb
 8774 00b6 00       		.byte	0
 8775 00b7 00       		.byte	0
 8776 00b8 0F       		.uleb128 0xf
 8777 00b9 13       		.uleb128 0x13
 8778 00ba 01       		.byte	0x1
ARM GAS  C:\Users\Grillmo\AppData\Local\Temp\ccN7xt8j.s 			page 155


 8779 00bb 0B       		.uleb128 0xb
 8780 00bc 0B       		.uleb128 0xb
 8781 00bd 3A       		.uleb128 0x3a
 8782 00be 0B       		.uleb128 0xb
 8783 00bf 3B       		.uleb128 0x3b
 8784 00c0 0B       		.uleb128 0xb
 8785 00c1 01       		.uleb128 0x1
 8786 00c2 13       		.uleb128 0x13
 8787 00c3 00       		.byte	0
 8788 00c4 00       		.byte	0
 8789 00c5 10       		.uleb128 0x10
 8790 00c6 0D       		.uleb128 0xd
 8791 00c7 00       		.byte	0
 8792 00c8 03       		.uleb128 0x3
 8793 00c9 0E       		.uleb128 0xe
 8794 00ca 3A       		.uleb128 0x3a
 8795 00cb 0B       		.uleb128 0xb
 8796 00cc 3B       		.uleb128 0x3b
 8797 00cd 0B       		.uleb128 0xb
 8798 00ce 49       		.uleb128 0x49
 8799 00cf 13       		.uleb128 0x13
 8800 00d0 38       		.uleb128 0x38
 8801 00d1 0B       		.uleb128 0xb
 8802 00d2 00       		.byte	0
 8803 00d3 00       		.byte	0
 8804 00d4 11       		.uleb128 0x11
 8805 00d5 2E       		.uleb128 0x2e
 8806 00d6 01       		.byte	0x1
 8807 00d7 03       		.uleb128 0x3
 8808 00d8 0E       		.uleb128 0xe
 8809 00d9 3A       		.uleb128 0x3a
 8810 00da 0B       		.uleb128 0xb
 8811 00db 3B       		.uleb128 0x3b
 8812 00dc 05       		.uleb128 0x5
 8813 00dd 27       		.uleb128 0x27
 8814 00de 19       		.uleb128 0x19
 8815 00df 20       		.uleb128 0x20
 8816 00e0 0B       		.uleb128 0xb
 8817 00e1 01       		.uleb128 0x1
 8818 00e2 13       		.uleb128 0x13
 8819 00e3 00       		.byte	0
 8820 00e4 00       		.byte	0
 8821 00e5 12       		.uleb128 0x12
 8822 00e6 05       		.uleb128 0x5
 8823 00e7 00       		.byte	0
 8824 00e8 03       		.uleb128 0x3
 8825 00e9 0E       		.uleb128 0xe
 8826 00ea 3A       		.uleb128 0x3a
 8827 00eb 0B       		.uleb128 0xb
 8828 00ec 3B       		.uleb128 0x3b
 8829 00ed 05       		.uleb128 0x5
 8830 00ee 49       		.uleb128 0x49
 8831 00ef 13       		.uleb128 0x13
 8832 00f0 00       		.byte	0
 8833 00f1 00       		.byte	0
 8834 00f2 13       		.uleb128 0x13
 8835 00f3 34       		.uleb128 0x34
ARM GAS  C:\Users\Grillmo\AppData\Local\Temp\ccN7xt8j.s 			page 156


 8836 00f4 00       		.byte	0
 8837 00f5 03       		.uleb128 0x3
 8838 00f6 0E       		.uleb128 0xe
 8839 00f7 3A       		.uleb128 0x3a
 8840 00f8 0B       		.uleb128 0xb
 8841 00f9 3B       		.uleb128 0x3b
 8842 00fa 05       		.uleb128 0x5
 8843 00fb 49       		.uleb128 0x49
 8844 00fc 13       		.uleb128 0x13
 8845 00fd 00       		.byte	0
 8846 00fe 00       		.byte	0
 8847 00ff 14       		.uleb128 0x14
 8848 0100 34       		.uleb128 0x34
 8849 0101 00       		.byte	0
 8850 0102 03       		.uleb128 0x3
 8851 0103 08       		.uleb128 0x8
 8852 0104 3A       		.uleb128 0x3a
 8853 0105 0B       		.uleb128 0xb
 8854 0106 3B       		.uleb128 0x3b
 8855 0107 05       		.uleb128 0x5
 8856 0108 49       		.uleb128 0x49
 8857 0109 13       		.uleb128 0x13
 8858 010a 00       		.byte	0
 8859 010b 00       		.byte	0
 8860 010c 15       		.uleb128 0x15
 8861 010d 0F       		.uleb128 0xf
 8862 010e 00       		.byte	0
 8863 010f 0B       		.uleb128 0xb
 8864 0110 0B       		.uleb128 0xb
 8865 0111 49       		.uleb128 0x49
 8866 0112 13       		.uleb128 0x13
 8867 0113 00       		.byte	0
 8868 0114 00       		.byte	0
 8869 0115 16       		.uleb128 0x16
 8870 0116 2E       		.uleb128 0x2e
 8871 0117 01       		.byte	0x1
 8872 0118 3F       		.uleb128 0x3f
 8873 0119 19       		.uleb128 0x19
 8874 011a 03       		.uleb128 0x3
 8875 011b 0E       		.uleb128 0xe
 8876 011c 3A       		.uleb128 0x3a
 8877 011d 0B       		.uleb128 0xb
 8878 011e 3B       		.uleb128 0x3b
 8879 011f 05       		.uleb128 0x5
 8880 0120 27       		.uleb128 0x27
 8881 0121 19       		.uleb128 0x19
 8882 0122 11       		.uleb128 0x11
 8883 0123 01       		.uleb128 0x1
 8884 0124 12       		.uleb128 0x12
 8885 0125 06       		.uleb128 0x6
 8886 0126 40       		.uleb128 0x40
 8887 0127 18       		.uleb128 0x18
 8888 0128 9742     		.uleb128 0x2117
 8889 012a 19       		.uleb128 0x19
 8890 012b 01       		.uleb128 0x1
 8891 012c 13       		.uleb128 0x13
 8892 012d 00       		.byte	0
ARM GAS  C:\Users\Grillmo\AppData\Local\Temp\ccN7xt8j.s 			page 157


 8893 012e 00       		.byte	0
 8894 012f 17       		.uleb128 0x17
 8895 0130 05       		.uleb128 0x5
 8896 0131 00       		.byte	0
 8897 0132 03       		.uleb128 0x3
 8898 0133 0E       		.uleb128 0xe
 8899 0134 3A       		.uleb128 0x3a
 8900 0135 0B       		.uleb128 0xb
 8901 0136 3B       		.uleb128 0x3b
 8902 0137 05       		.uleb128 0x5
 8903 0138 49       		.uleb128 0x49
 8904 0139 13       		.uleb128 0x13
 8905 013a 02       		.uleb128 0x2
 8906 013b 18       		.uleb128 0x18
 8907 013c 00       		.byte	0
 8908 013d 00       		.byte	0
 8909 013e 18       		.uleb128 0x18
 8910 013f 05       		.uleb128 0x5
 8911 0140 00       		.byte	0
 8912 0141 03       		.uleb128 0x3
 8913 0142 0E       		.uleb128 0xe
 8914 0143 3A       		.uleb128 0x3a
 8915 0144 0B       		.uleb128 0xb
 8916 0145 3B       		.uleb128 0x3b
 8917 0146 05       		.uleb128 0x5
 8918 0147 49       		.uleb128 0x49
 8919 0148 13       		.uleb128 0x13
 8920 0149 02       		.uleb128 0x2
 8921 014a 17       		.uleb128 0x17
 8922 014b 00       		.byte	0
 8923 014c 00       		.byte	0
 8924 014d 19       		.uleb128 0x19
 8925 014e 34       		.uleb128 0x34
 8926 014f 00       		.byte	0
 8927 0150 03       		.uleb128 0x3
 8928 0151 0E       		.uleb128 0xe
 8929 0152 3A       		.uleb128 0x3a
 8930 0153 0B       		.uleb128 0xb
 8931 0154 3B       		.uleb128 0x3b
 8932 0155 05       		.uleb128 0x5
 8933 0156 49       		.uleb128 0x49
 8934 0157 13       		.uleb128 0x13
 8935 0158 02       		.uleb128 0x2
 8936 0159 17       		.uleb128 0x17
 8937 015a 00       		.byte	0
 8938 015b 00       		.byte	0
 8939 015c 1A       		.uleb128 0x1a
 8940 015d 2E       		.uleb128 0x2e
 8941 015e 01       		.byte	0x1
 8942 015f 3F       		.uleb128 0x3f
 8943 0160 19       		.uleb128 0x19
 8944 0161 03       		.uleb128 0x3
 8945 0162 0E       		.uleb128 0xe
 8946 0163 3A       		.uleb128 0x3a
 8947 0164 0B       		.uleb128 0xb
 8948 0165 3B       		.uleb128 0x3b
 8949 0166 05       		.uleb128 0x5
ARM GAS  C:\Users\Grillmo\AppData\Local\Temp\ccN7xt8j.s 			page 158


 8950 0167 27       		.uleb128 0x27
 8951 0168 19       		.uleb128 0x19
 8952 0169 20       		.uleb128 0x20
 8953 016a 0B       		.uleb128 0xb
 8954 016b 01       		.uleb128 0x1
 8955 016c 13       		.uleb128 0x13
 8956 016d 00       		.byte	0
 8957 016e 00       		.byte	0
 8958 016f 1B       		.uleb128 0x1b
 8959 0170 1D       		.uleb128 0x1d
 8960 0171 01       		.byte	0x1
 8961 0172 31       		.uleb128 0x31
 8962 0173 13       		.uleb128 0x13
 8963 0174 11       		.uleb128 0x11
 8964 0175 01       		.uleb128 0x1
 8965 0176 12       		.uleb128 0x12
 8966 0177 06       		.uleb128 0x6
 8967 0178 58       		.uleb128 0x58
 8968 0179 0B       		.uleb128 0xb
 8969 017a 59       		.uleb128 0x59
 8970 017b 05       		.uleb128 0x5
 8971 017c 00       		.byte	0
 8972 017d 00       		.byte	0
 8973 017e 1C       		.uleb128 0x1c
 8974 017f 05       		.uleb128 0x5
 8975 0180 00       		.byte	0
 8976 0181 31       		.uleb128 0x31
 8977 0182 13       		.uleb128 0x13
 8978 0183 02       		.uleb128 0x2
 8979 0184 17       		.uleb128 0x17
 8980 0185 00       		.byte	0
 8981 0186 00       		.byte	0
 8982 0187 1D       		.uleb128 0x1d
 8983 0188 0B       		.uleb128 0xb
 8984 0189 01       		.byte	0x1
 8985 018a 11       		.uleb128 0x11
 8986 018b 01       		.uleb128 0x1
 8987 018c 12       		.uleb128 0x12
 8988 018d 06       		.uleb128 0x6
 8989 018e 00       		.byte	0
 8990 018f 00       		.byte	0
 8991 0190 1E       		.uleb128 0x1e
 8992 0191 34       		.uleb128 0x34
 8993 0192 00       		.byte	0
 8994 0193 31       		.uleb128 0x31
 8995 0194 13       		.uleb128 0x13
 8996 0195 02       		.uleb128 0x2
 8997 0196 17       		.uleb128 0x17
 8998 0197 00       		.byte	0
 8999 0198 00       		.byte	0
 9000 0199 1F       		.uleb128 0x1f
 9001 019a 1D       		.uleb128 0x1d
 9002 019b 01       		.byte	0x1
 9003 019c 31       		.uleb128 0x31
 9004 019d 13       		.uleb128 0x13
 9005 019e 11       		.uleb128 0x11
 9006 019f 01       		.uleb128 0x1
ARM GAS  C:\Users\Grillmo\AppData\Local\Temp\ccN7xt8j.s 			page 159


 9007 01a0 12       		.uleb128 0x12
 9008 01a1 06       		.uleb128 0x6
 9009 01a2 58       		.uleb128 0x58
 9010 01a3 0B       		.uleb128 0xb
 9011 01a4 59       		.uleb128 0x59
 9012 01a5 05       		.uleb128 0x5
 9013 01a6 01       		.uleb128 0x1
 9014 01a7 13       		.uleb128 0x13
 9015 01a8 00       		.byte	0
 9016 01a9 00       		.byte	0
 9017 01aa 20       		.uleb128 0x20
 9018 01ab 05       		.uleb128 0x5
 9019 01ac 00       		.byte	0
 9020 01ad 31       		.uleb128 0x31
 9021 01ae 13       		.uleb128 0x13
 9022 01af 1C       		.uleb128 0x1c
 9023 01b0 0B       		.uleb128 0xb
 9024 01b1 00       		.byte	0
 9025 01b2 00       		.byte	0
 9026 01b3 21       		.uleb128 0x21
 9027 01b4 05       		.uleb128 0x5
 9028 01b5 00       		.byte	0
 9029 01b6 31       		.uleb128 0x31
 9030 01b7 13       		.uleb128 0x13
 9031 01b8 02       		.uleb128 0x2
 9032 01b9 18       		.uleb128 0x18
 9033 01ba 00       		.byte	0
 9034 01bb 00       		.byte	0
 9035 01bc 22       		.uleb128 0x22
 9036 01bd 2E       		.uleb128 0x2e
 9037 01be 01       		.byte	0x1
 9038 01bf 3F       		.uleb128 0x3f
 9039 01c0 19       		.uleb128 0x19
 9040 01c1 03       		.uleb128 0x3
 9041 01c2 0E       		.uleb128 0xe
 9042 01c3 3A       		.uleb128 0x3a
 9043 01c4 0B       		.uleb128 0xb
 9044 01c5 3B       		.uleb128 0x3b
 9045 01c6 05       		.uleb128 0x5
 9046 01c7 27       		.uleb128 0x27
 9047 01c8 19       		.uleb128 0x19
 9048 01c9 49       		.uleb128 0x49
 9049 01ca 13       		.uleb128 0x13
 9050 01cb 11       		.uleb128 0x11
 9051 01cc 01       		.uleb128 0x1
 9052 01cd 12       		.uleb128 0x12
 9053 01ce 06       		.uleb128 0x6
 9054 01cf 40       		.uleb128 0x40
 9055 01d0 18       		.uleb128 0x18
 9056 01d1 9742     		.uleb128 0x2117
 9057 01d3 19       		.uleb128 0x19
 9058 01d4 01       		.uleb128 0x1
 9059 01d5 13       		.uleb128 0x13
 9060 01d6 00       		.byte	0
 9061 01d7 00       		.byte	0
 9062 01d8 23       		.uleb128 0x23
 9063 01d9 2E       		.uleb128 0x2e
ARM GAS  C:\Users\Grillmo\AppData\Local\Temp\ccN7xt8j.s 			page 160


 9064 01da 01       		.byte	0x1
 9065 01db 3F       		.uleb128 0x3f
 9066 01dc 19       		.uleb128 0x19
 9067 01dd 03       		.uleb128 0x3
 9068 01de 0E       		.uleb128 0xe
 9069 01df 3A       		.uleb128 0x3a
 9070 01e0 0B       		.uleb128 0xb
 9071 01e1 3B       		.uleb128 0x3b
 9072 01e2 05       		.uleb128 0x5
 9073 01e3 27       		.uleb128 0x27
 9074 01e4 19       		.uleb128 0x19
 9075 01e5 01       		.uleb128 0x1
 9076 01e6 13       		.uleb128 0x13
 9077 01e7 00       		.byte	0
 9078 01e8 00       		.byte	0
 9079 01e9 24       		.uleb128 0x24
 9080 01ea 1D       		.uleb128 0x1d
 9081 01eb 01       		.byte	0x1
 9082 01ec 31       		.uleb128 0x31
 9083 01ed 13       		.uleb128 0x13
 9084 01ee 52       		.uleb128 0x52
 9085 01ef 01       		.uleb128 0x1
 9086 01f0 55       		.uleb128 0x55
 9087 01f1 17       		.uleb128 0x17
 9088 01f2 58       		.uleb128 0x58
 9089 01f3 0B       		.uleb128 0xb
 9090 01f4 59       		.uleb128 0x59
 9091 01f5 05       		.uleb128 0x5
 9092 01f6 01       		.uleb128 0x1
 9093 01f7 13       		.uleb128 0x13
 9094 01f8 00       		.byte	0
 9095 01f9 00       		.byte	0
 9096 01fa 25       		.uleb128 0x25
 9097 01fb 0B       		.uleb128 0xb
 9098 01fc 01       		.byte	0x1
 9099 01fd 55       		.uleb128 0x55
 9100 01fe 17       		.uleb128 0x17
 9101 01ff 00       		.byte	0
 9102 0200 00       		.byte	0
 9103 0201 26       		.uleb128 0x26
 9104 0202 34       		.uleb128 0x34
 9105 0203 00       		.byte	0
 9106 0204 03       		.uleb128 0x3
 9107 0205 08       		.uleb128 0x8
 9108 0206 3A       		.uleb128 0x3a
 9109 0207 0B       		.uleb128 0xb
 9110 0208 3B       		.uleb128 0x3b
 9111 0209 05       		.uleb128 0x5
 9112 020a 49       		.uleb128 0x49
 9113 020b 13       		.uleb128 0x13
 9114 020c 02       		.uleb128 0x2
 9115 020d 17       		.uleb128 0x17
 9116 020e 00       		.byte	0
 9117 020f 00       		.byte	0
 9118 0210 27       		.uleb128 0x27
 9119 0211 2E       		.uleb128 0x2e
 9120 0212 01       		.byte	0x1
ARM GAS  C:\Users\Grillmo\AppData\Local\Temp\ccN7xt8j.s 			page 161


 9121 0213 3F       		.uleb128 0x3f
 9122 0214 19       		.uleb128 0x19
 9123 0215 03       		.uleb128 0x3
 9124 0216 0E       		.uleb128 0xe
 9125 0217 3A       		.uleb128 0x3a
 9126 0218 0B       		.uleb128 0xb
 9127 0219 3B       		.uleb128 0x3b
 9128 021a 0B       		.uleb128 0xb
 9129 021b 27       		.uleb128 0x27
 9130 021c 19       		.uleb128 0x19
 9131 021d 11       		.uleb128 0x11
 9132 021e 01       		.uleb128 0x1
 9133 021f 12       		.uleb128 0x12
 9134 0220 06       		.uleb128 0x6
 9135 0221 40       		.uleb128 0x40
 9136 0222 18       		.uleb128 0x18
 9137 0223 9742     		.uleb128 0x2117
 9138 0225 19       		.uleb128 0x19
 9139 0226 01       		.uleb128 0x1
 9140 0227 13       		.uleb128 0x13
 9141 0228 00       		.byte	0
 9142 0229 00       		.byte	0
 9143 022a 28       		.uleb128 0x28
 9144 022b 05       		.uleb128 0x5
 9145 022c 00       		.byte	0
 9146 022d 03       		.uleb128 0x3
 9147 022e 0E       		.uleb128 0xe
 9148 022f 3A       		.uleb128 0x3a
 9149 0230 0B       		.uleb128 0xb
 9150 0231 3B       		.uleb128 0x3b
 9151 0232 0B       		.uleb128 0xb
 9152 0233 49       		.uleb128 0x49
 9153 0234 13       		.uleb128 0x13
 9154 0235 02       		.uleb128 0x2
 9155 0236 17       		.uleb128 0x17
 9156 0237 00       		.byte	0
 9157 0238 00       		.byte	0
 9158 0239 29       		.uleb128 0x29
 9159 023a 898201   		.uleb128 0x4109
 9160 023d 01       		.byte	0x1
 9161 023e 11       		.uleb128 0x11
 9162 023f 01       		.uleb128 0x1
 9163 0240 31       		.uleb128 0x31
 9164 0241 13       		.uleb128 0x13
 9165 0242 01       		.uleb128 0x1
 9166 0243 13       		.uleb128 0x13
 9167 0244 00       		.byte	0
 9168 0245 00       		.byte	0
 9169 0246 2A       		.uleb128 0x2a
 9170 0247 8A8201   		.uleb128 0x410a
 9171 024a 00       		.byte	0
 9172 024b 02       		.uleb128 0x2
 9173 024c 18       		.uleb128 0x18
 9174 024d 9142     		.uleb128 0x2111
 9175 024f 18       		.uleb128 0x18
 9176 0250 00       		.byte	0
 9177 0251 00       		.byte	0
ARM GAS  C:\Users\Grillmo\AppData\Local\Temp\ccN7xt8j.s 			page 162


 9178 0252 2B       		.uleb128 0x2b
 9179 0253 898201   		.uleb128 0x4109
 9180 0256 01       		.byte	0x1
 9181 0257 11       		.uleb128 0x11
 9182 0258 01       		.uleb128 0x1
 9183 0259 9542     		.uleb128 0x2115
 9184 025b 19       		.uleb128 0x19
 9185 025c 31       		.uleb128 0x31
 9186 025d 13       		.uleb128 0x13
 9187 025e 01       		.uleb128 0x1
 9188 025f 13       		.uleb128 0x13
 9189 0260 00       		.byte	0
 9190 0261 00       		.byte	0
 9191 0262 2C       		.uleb128 0x2c
 9192 0263 898201   		.uleb128 0x4109
 9193 0266 01       		.byte	0x1
 9194 0267 11       		.uleb128 0x11
 9195 0268 01       		.uleb128 0x1
 9196 0269 9542     		.uleb128 0x2115
 9197 026b 19       		.uleb128 0x19
 9198 026c 31       		.uleb128 0x31
 9199 026d 13       		.uleb128 0x13
 9200 026e 00       		.byte	0
 9201 026f 00       		.byte	0
 9202 0270 2D       		.uleb128 0x2d
 9203 0271 2E       		.uleb128 0x2e
 9204 0272 01       		.byte	0x1
 9205 0273 31       		.uleb128 0x31
 9206 0274 13       		.uleb128 0x13
 9207 0275 11       		.uleb128 0x11
 9208 0276 01       		.uleb128 0x1
 9209 0277 12       		.uleb128 0x12
 9210 0278 06       		.uleb128 0x6
 9211 0279 40       		.uleb128 0x40
 9212 027a 18       		.uleb128 0x18
 9213 027b 9742     		.uleb128 0x2117
 9214 027d 19       		.uleb128 0x19
 9215 027e 01       		.uleb128 0x1
 9216 027f 13       		.uleb128 0x13
 9217 0280 00       		.byte	0
 9218 0281 00       		.byte	0
 9219 0282 2E       		.uleb128 0x2e
 9220 0283 2E       		.uleb128 0x2e
 9221 0284 00       		.byte	0
 9222 0285 3F       		.uleb128 0x3f
 9223 0286 19       		.uleb128 0x19
 9224 0287 3C       		.uleb128 0x3c
 9225 0288 19       		.uleb128 0x19
 9226 0289 6E       		.uleb128 0x6e
 9227 028a 0E       		.uleb128 0xe
 9228 028b 03       		.uleb128 0x3
 9229 028c 0E       		.uleb128 0xe
 9230 028d 3A       		.uleb128 0x3a
 9231 028e 0B       		.uleb128 0xb
 9232 028f 3B       		.uleb128 0x3b
 9233 0290 05       		.uleb128 0x5
 9234 0291 00       		.byte	0
ARM GAS  C:\Users\Grillmo\AppData\Local\Temp\ccN7xt8j.s 			page 163


 9235 0292 00       		.byte	0
 9236 0293 00       		.byte	0
 9237              		.section	.debug_loc,"",%progbits
 9238              	.Ldebug_loc0:
 9239              	.LLST213:
 9240 0000 00000000 		.4byte	.LVL425
 9241 0004 30000000 		.4byte	.LVL432
 9242 0008 0100     		.2byte	0x1
 9243 000a 51       		.byte	0x51
 9244 000b 30000000 		.4byte	.LVL432
 9245 000f 38000000 		.4byte	.LFE197
 9246 0013 0400     		.2byte	0x4
 9247 0015 F3       		.byte	0xf3
 9248 0016 01       		.uleb128 0x1
 9249 0017 51       		.byte	0x51
 9250 0018 9F       		.byte	0x9f
 9251 0019 00000000 		.4byte	0
 9252 001d 00000000 		.4byte	0
 9253              	.LLST214:
 9254 0021 00000000 		.4byte	.LVL425
 9255 0025 18000000 		.4byte	.LVL429
 9256 0029 0100     		.2byte	0x1
 9257 002b 53       		.byte	0x53
 9258 002c 18000000 		.4byte	.LVL429
 9259 0030 38000000 		.4byte	.LFE197
 9260 0034 0400     		.2byte	0x4
 9261 0036 F3       		.byte	0xf3
 9262 0037 01       		.uleb128 0x1
 9263 0038 53       		.byte	0x53
 9264 0039 9F       		.byte	0x9f
 9265 003a 00000000 		.4byte	0
 9266 003e 00000000 		.4byte	0
 9267              	.LLST215:
 9268 0042 00000000 		.4byte	.LVL425
 9269 0046 04000000 		.4byte	.LVL426
 9270 004a 0200     		.2byte	0x2
 9271 004c 30       		.byte	0x30
 9272 004d 9F       		.byte	0x9f
 9273 004e 04000000 		.4byte	.LVL426
 9274 0052 28000000 		.4byte	.LVL431
 9275 0056 0100     		.2byte	0x1
 9276 0058 57       		.byte	0x57
 9277 0059 28000000 		.4byte	.LVL431
 9278 005d 30000000 		.4byte	.LVL432
 9279 0061 0600     		.2byte	0x6
 9280 0063 71       		.byte	0x71
 9281 0064 00       		.sleb128 0
 9282 0065 76       		.byte	0x76
 9283 0066 00       		.sleb128 0
 9284 0067 21       		.byte	0x21
 9285 0068 9F       		.byte	0x9f
 9286 0069 30000000 		.4byte	.LVL432
 9287 006d 38000000 		.4byte	.LFE197
 9288 0071 0700     		.2byte	0x7
 9289 0073 F3       		.byte	0xf3
 9290 0074 01       		.uleb128 0x1
 9291 0075 51       		.byte	0x51
ARM GAS  C:\Users\Grillmo\AppData\Local\Temp\ccN7xt8j.s 			page 164


 9292 0076 76       		.byte	0x76
 9293 0077 00       		.sleb128 0
 9294 0078 21       		.byte	0x21
 9295 0079 9F       		.byte	0x9f
 9296 007a 00000000 		.4byte	0
 9297 007e 00000000 		.4byte	0
 9298              	.LLST216:
 9299 0082 00000000 		.4byte	.LVL425
 9300 0086 06000000 		.4byte	.LVL427
 9301 008a 0200     		.2byte	0x2
 9302 008c 30       		.byte	0x30
 9303 008d 9F       		.byte	0x9f
 9304 008e 06000000 		.4byte	.LVL427
 9305 0092 20000000 		.4byte	.LVL430
 9306 0096 0100     		.2byte	0x1
 9307 0098 56       		.byte	0x56
 9308 0099 00000000 		.4byte	0
 9309 009d 00000000 		.4byte	0
 9310              	.LLST217:
 9311 00a1 00000000 		.4byte	.LVL425
 9312 00a5 0A000000 		.4byte	.LVL428
 9313 00a9 0200     		.2byte	0x2
 9314 00ab 30       		.byte	0x30
 9315 00ac 9F       		.byte	0x9f
 9316 00ad 0A000000 		.4byte	.LVL428
 9317 00b1 28000000 		.4byte	.LVL431
 9318 00b5 0100     		.2byte	0x1
 9319 00b7 5E       		.byte	0x5e
 9320 00b8 28000000 		.4byte	.LVL431
 9321 00bc 38000000 		.4byte	.LFE197
 9322 00c0 1000     		.2byte	0x10
 9323 00c2 F3       		.byte	0xf3
 9324 00c3 01       		.uleb128 0x1
 9325 00c4 53       		.byte	0x53
 9326 00c5 34       		.byte	0x34
 9327 00c6 24       		.byte	0x24
 9328 00c7 7E       		.byte	0x7e
 9329 00c8 00       		.sleb128 0
 9330 00c9 0A       		.byte	0xa
 9331 00ca DDFF     		.2byte	0xffdd
 9332 00cc 1A       		.byte	0x1a
 9333 00cd 21       		.byte	0x21
 9334 00ce 72       		.byte	0x72
 9335 00cf 00       		.sleb128 0
 9336 00d0 21       		.byte	0x21
 9337 00d1 9F       		.byte	0x9f
 9338 00d2 00000000 		.4byte	0
 9339 00d6 00000000 		.4byte	0
 9340              	.LLST209:
 9341 00da 00000000 		.4byte	.LVL417
 9342 00de 0E000000 		.4byte	.LVL418
 9343 00e2 0100     		.2byte	0x1
 9344 00e4 51       		.byte	0x51
 9345 00e5 0E000000 		.4byte	.LVL418
 9346 00e9 12000000 		.4byte	.LFE195
 9347 00ed 0400     		.2byte	0x4
 9348 00ef F3       		.byte	0xf3
ARM GAS  C:\Users\Grillmo\AppData\Local\Temp\ccN7xt8j.s 			page 165


 9349 00f0 01       		.uleb128 0x1
 9350 00f1 51       		.byte	0x51
 9351 00f2 9F       		.byte	0x9f
 9352 00f3 00000000 		.4byte	0
 9353 00f7 00000000 		.4byte	0
 9354              	.LLST208:
 9355 00fb 00000000 		.4byte	.LVL415
 9356 00ff 0E000000 		.4byte	.LVL416
 9357 0103 0100     		.2byte	0x1
 9358 0105 51       		.byte	0x51
 9359 0106 0E000000 		.4byte	.LVL416
 9360 010a 12000000 		.4byte	.LFE194
 9361 010e 0400     		.2byte	0x4
 9362 0110 F3       		.byte	0xf3
 9363 0111 01       		.uleb128 0x1
 9364 0112 51       		.byte	0x51
 9365 0113 9F       		.byte	0x9f
 9366 0114 00000000 		.4byte	0
 9367 0118 00000000 		.4byte	0
 9368              	.LLST207:
 9369 011c 00000000 		.4byte	.LVL413
 9370 0120 0E000000 		.4byte	.LVL414
 9371 0124 0100     		.2byte	0x1
 9372 0126 51       		.byte	0x51
 9373 0127 0E000000 		.4byte	.LVL414
 9374 012b 12000000 		.4byte	.LFE193
 9375 012f 0400     		.2byte	0x4
 9376 0131 F3       		.byte	0xf3
 9377 0132 01       		.uleb128 0x1
 9378 0133 51       		.byte	0x51
 9379 0134 9F       		.byte	0x9f
 9380 0135 00000000 		.4byte	0
 9381 0139 00000000 		.4byte	0
 9382              	.LLST198:
 9383 013d 00000000 		.4byte	.LVL403
 9384 0141 0A000000 		.4byte	.LVL406
 9385 0145 0100     		.2byte	0x1
 9386 0147 51       		.byte	0x51
 9387 0148 0A000000 		.4byte	.LVL406
 9388 014c 20000000 		.4byte	.LFE191
 9389 0150 0400     		.2byte	0x4
 9390 0152 F3       		.byte	0xf3
 9391 0153 01       		.uleb128 0x1
 9392 0154 51       		.byte	0x51
 9393 0155 9F       		.byte	0x9f
 9394 0156 00000000 		.4byte	0
 9395 015a 00000000 		.4byte	0
 9396              	.LLST199:
 9397 015e 00000000 		.4byte	.LVL403
 9398 0162 08000000 		.4byte	.LVL405
 9399 0166 0100     		.2byte	0x1
 9400 0168 53       		.byte	0x53
 9401 0169 08000000 		.4byte	.LVL405
 9402 016d 20000000 		.4byte	.LFE191
 9403 0171 0400     		.2byte	0x4
 9404 0173 F3       		.byte	0xf3
 9405 0174 01       		.uleb128 0x1
ARM GAS  C:\Users\Grillmo\AppData\Local\Temp\ccN7xt8j.s 			page 166


 9406 0175 53       		.byte	0x53
 9407 0176 9F       		.byte	0x9f
 9408 0177 00000000 		.4byte	0
 9409 017b 00000000 		.4byte	0
 9410              	.LLST200:
 9411 017f 00000000 		.4byte	.LVL403
 9412 0183 08000000 		.4byte	.LVL405
 9413 0187 0100     		.2byte	0x1
 9414 0189 53       		.byte	0x53
 9415 018a 08000000 		.4byte	.LVL405
 9416 018e 12000000 		.4byte	.LVL408
 9417 0192 0400     		.2byte	0x4
 9418 0194 F3       		.byte	0xf3
 9419 0195 01       		.uleb128 0x1
 9420 0196 53       		.byte	0x53
 9421 0197 9F       		.byte	0x9f
 9422 0198 00000000 		.4byte	0
 9423 019c 00000000 		.4byte	0
 9424              	.LLST201:
 9425 01a0 00000000 		.4byte	.LVL403
 9426 01a4 12000000 		.4byte	.LVL408
 9427 01a8 0100     		.2byte	0x1
 9428 01aa 52       		.byte	0x52
 9429 01ab 00000000 		.4byte	0
 9430 01af 00000000 		.4byte	0
 9431              	.LLST202:
 9432 01b3 00000000 		.4byte	.LVL403
 9433 01b7 0A000000 		.4byte	.LVL406
 9434 01bb 0100     		.2byte	0x1
 9435 01bd 51       		.byte	0x51
 9436 01be 0A000000 		.4byte	.LVL406
 9437 01c2 12000000 		.4byte	.LVL408
 9438 01c6 0400     		.2byte	0x4
 9439 01c8 F3       		.byte	0xf3
 9440 01c9 01       		.uleb128 0x1
 9441 01ca 51       		.byte	0x51
 9442 01cb 9F       		.byte	0x9f
 9443 01cc 00000000 		.4byte	0
 9444 01d0 00000000 		.4byte	0
 9445              	.LLST203:
 9446 01d4 00000000 		.4byte	.LVL403
 9447 01d8 12000000 		.4byte	.LVL408
 9448 01dc 0100     		.2byte	0x1
 9449 01de 50       		.byte	0x50
 9450 01df 00000000 		.4byte	0
 9451 01e3 00000000 		.4byte	0
 9452              	.LLST204:
 9453 01e7 00000000 		.4byte	.LVL403
 9454 01eb 04000000 		.4byte	.LVL404
 9455 01ef 0200     		.2byte	0x2
 9456 01f1 30       		.byte	0x30
 9457 01f2 9F       		.byte	0x9f
 9458 01f3 04000000 		.4byte	.LVL404
 9459 01f7 0C000000 		.4byte	.LVL407
 9460 01fb 0100     		.2byte	0x1
 9461 01fd 54       		.byte	0x54
 9462 01fe 0C000000 		.4byte	.LVL407
ARM GAS  C:\Users\Grillmo\AppData\Local\Temp\ccN7xt8j.s 			page 167


 9463 0202 12000000 		.4byte	.LVL408
 9464 0206 1000     		.2byte	0x10
 9465 0208 F3       		.byte	0xf3
 9466 0209 01       		.uleb128 0x1
 9467 020a 53       		.byte	0x53
 9468 020b 38       		.byte	0x38
 9469 020c 24       		.byte	0x24
 9470 020d 72       		.byte	0x72
 9471 020e 00       		.sleb128 0
 9472 020f 21       		.byte	0x21
 9473 0210 F3       		.byte	0xf3
 9474 0211 01       		.uleb128 0x1
 9475 0212 51       		.byte	0x51
 9476 0213 21       		.byte	0x21
 9477 0214 74       		.byte	0x74
 9478 0215 00       		.sleb128 0
 9479 0216 21       		.byte	0x21
 9480 0217 9F       		.byte	0x9f
 9481 0218 00000000 		.4byte	0
 9482 021c 00000000 		.4byte	0
 9483              	.LLST190:
 9484 0220 00000000 		.4byte	.LVL393
 9485 0224 0A000000 		.4byte	.LVL396
 9486 0228 0100     		.2byte	0x1
 9487 022a 51       		.byte	0x51
 9488 022b 0A000000 		.4byte	.LVL396
 9489 022f 26000000 		.4byte	.LFE190
 9490 0233 0400     		.2byte	0x4
 9491 0235 F3       		.byte	0xf3
 9492 0236 01       		.uleb128 0x1
 9493 0237 51       		.byte	0x51
 9494 0238 9F       		.byte	0x9f
 9495 0239 00000000 		.4byte	0
 9496 023d 00000000 		.4byte	0
 9497              	.LLST191:
 9498 0241 00000000 		.4byte	.LVL393
 9499 0245 08000000 		.4byte	.LVL395
 9500 0249 0100     		.2byte	0x1
 9501 024b 53       		.byte	0x53
 9502 024c 08000000 		.4byte	.LVL395
 9503 0250 26000000 		.4byte	.LFE190
 9504 0254 0400     		.2byte	0x4
 9505 0256 F3       		.byte	0xf3
 9506 0257 01       		.uleb128 0x1
 9507 0258 53       		.byte	0x53
 9508 0259 9F       		.byte	0x9f
 9509 025a 00000000 		.4byte	0
 9510 025e 00000000 		.4byte	0
 9511              	.LLST192:
 9512 0262 00000000 		.4byte	.LVL393
 9513 0266 14000000 		.4byte	.LVL399
 9514 026a 0200     		.2byte	0x2
 9515 026c 30       		.byte	0x30
 9516 026d 9F       		.byte	0x9f
 9517 026e 14000000 		.4byte	.LVL399
 9518 0272 1C000000 		.4byte	.LVL400
 9519 0276 0500     		.2byte	0x5
ARM GAS  C:\Users\Grillmo\AppData\Local\Temp\ccN7xt8j.s 			page 168


 9520 0278 73       		.byte	0x73
 9521 0279 00       		.sleb128 0
 9522 027a 37       		.byte	0x37
 9523 027b 21       		.byte	0x21
 9524 027c 9F       		.byte	0x9f
 9525 027d 1E000000 		.4byte	.LVL401
 9526 0281 22000000 		.4byte	.LVL402
 9527 0285 0600     		.2byte	0x6
 9528 0287 73       		.byte	0x73
 9529 0288 00       		.sleb128 0
 9530 0289 08       		.byte	0x8
 9531 028a 77       		.byte	0x77
 9532 028b 21       		.byte	0x21
 9533 028c 9F       		.byte	0x9f
 9534 028d 00000000 		.4byte	0
 9535 0291 00000000 		.4byte	0
 9536              	.LLST193:
 9537 0295 00000000 		.4byte	.LVL393
 9538 0299 08000000 		.4byte	.LVL395
 9539 029d 0100     		.2byte	0x1
 9540 029f 53       		.byte	0x53
 9541 02a0 08000000 		.4byte	.LVL395
 9542 02a4 12000000 		.4byte	.LVL398
 9543 02a8 0400     		.2byte	0x4
 9544 02aa F3       		.byte	0xf3
 9545 02ab 01       		.uleb128 0x1
 9546 02ac 53       		.byte	0x53
 9547 02ad 9F       		.byte	0x9f
 9548 02ae 00000000 		.4byte	0
 9549 02b2 00000000 		.4byte	0
 9550              	.LLST194:
 9551 02b6 00000000 		.4byte	.LVL393
 9552 02ba 12000000 		.4byte	.LVL398
 9553 02be 0100     		.2byte	0x1
 9554 02c0 52       		.byte	0x52
 9555 02c1 00000000 		.4byte	0
 9556 02c5 00000000 		.4byte	0
 9557              	.LLST195:
 9558 02c9 00000000 		.4byte	.LVL393
 9559 02cd 0A000000 		.4byte	.LVL396
 9560 02d1 0100     		.2byte	0x1
 9561 02d3 51       		.byte	0x51
 9562 02d4 0A000000 		.4byte	.LVL396
 9563 02d8 12000000 		.4byte	.LVL398
 9564 02dc 0400     		.2byte	0x4
 9565 02de F3       		.byte	0xf3
 9566 02df 01       		.uleb128 0x1
 9567 02e0 51       		.byte	0x51
 9568 02e1 9F       		.byte	0x9f
 9569 02e2 00000000 		.4byte	0
 9570 02e6 00000000 		.4byte	0
 9571              	.LLST196:
 9572 02ea 00000000 		.4byte	.LVL393
 9573 02ee 12000000 		.4byte	.LVL398
 9574 02f2 0100     		.2byte	0x1
 9575 02f4 50       		.byte	0x50
 9576 02f5 00000000 		.4byte	0
ARM GAS  C:\Users\Grillmo\AppData\Local\Temp\ccN7xt8j.s 			page 169


 9577 02f9 00000000 		.4byte	0
 9578              	.LLST197:
 9579 02fd 00000000 		.4byte	.LVL393
 9580 0301 04000000 		.4byte	.LVL394
 9581 0305 0200     		.2byte	0x2
 9582 0307 30       		.byte	0x30
 9583 0308 9F       		.byte	0x9f
 9584 0309 04000000 		.4byte	.LVL394
 9585 030d 0C000000 		.4byte	.LVL397
 9586 0311 0100     		.2byte	0x1
 9587 0313 54       		.byte	0x54
 9588 0314 0C000000 		.4byte	.LVL397
 9589 0318 12000000 		.4byte	.LVL398
 9590 031c 1000     		.2byte	0x10
 9591 031e F3       		.byte	0xf3
 9592 031f 01       		.uleb128 0x1
 9593 0320 53       		.byte	0x53
 9594 0321 38       		.byte	0x38
 9595 0322 24       		.byte	0x24
 9596 0323 72       		.byte	0x72
 9597 0324 00       		.sleb128 0
 9598 0325 21       		.byte	0x21
 9599 0326 F3       		.byte	0xf3
 9600 0327 01       		.uleb128 0x1
 9601 0328 51       		.byte	0x51
 9602 0329 21       		.byte	0x21
 9603 032a 74       		.byte	0x74
 9604 032b 00       		.sleb128 0
 9605 032c 21       		.byte	0x21
 9606 032d 9F       		.byte	0x9f
 9607 032e 00000000 		.4byte	0
 9608 0332 00000000 		.4byte	0
 9609              	.LLST173:
 9610 0336 00000000 		.4byte	.LVL372
 9611 033a 3E000000 		.4byte	.LVL384
 9612 033e 0100     		.2byte	0x1
 9613 0340 51       		.byte	0x51
 9614 0341 3E000000 		.4byte	.LVL384
 9615 0345 4C000000 		.4byte	.LVL386
 9616 0349 0400     		.2byte	0x4
 9617 034b F3       		.byte	0xf3
 9618 034c 01       		.uleb128 0x1
 9619 034d 51       		.byte	0x51
 9620 034e 9F       		.byte	0x9f
 9621 034f 4C000000 		.4byte	.LVL386
 9622 0353 80000000 		.4byte	.LFE189
 9623 0357 0100     		.2byte	0x1
 9624 0359 51       		.byte	0x51
 9625 035a 00000000 		.4byte	0
 9626 035e 00000000 		.4byte	0
 9627              	.LLST174:
 9628 0362 00000000 		.4byte	.LVL372
 9629 0366 26000000 		.4byte	.LVL379
 9630 036a 0100     		.2byte	0x1
 9631 036c 52       		.byte	0x52
 9632 036d 26000000 		.4byte	.LVL379
 9633 0371 4C000000 		.4byte	.LVL386
ARM GAS  C:\Users\Grillmo\AppData\Local\Temp\ccN7xt8j.s 			page 170


 9634 0375 0400     		.2byte	0x4
 9635 0377 F3       		.byte	0xf3
 9636 0378 01       		.uleb128 0x1
 9637 0379 52       		.byte	0x52
 9638 037a 9F       		.byte	0x9f
 9639 037b 4C000000 		.4byte	.LVL386
 9640 037f 6E000000 		.4byte	.LVL392
 9641 0383 0100     		.2byte	0x1
 9642 0385 52       		.byte	0x52
 9643 0386 6E000000 		.4byte	.LVL392
 9644 038a 80000000 		.4byte	.LFE189
 9645 038e 0400     		.2byte	0x4
 9646 0390 F3       		.byte	0xf3
 9647 0391 01       		.uleb128 0x1
 9648 0392 52       		.byte	0x52
 9649 0393 9F       		.byte	0x9f
 9650 0394 00000000 		.4byte	0
 9651 0398 00000000 		.4byte	0
 9652              	.LLST175:
 9653 039c 00000000 		.4byte	.LVL372
 9654 03a0 34000000 		.4byte	.LVL381
 9655 03a4 0100     		.2byte	0x1
 9656 03a6 53       		.byte	0x53
 9657 03a7 34000000 		.4byte	.LVL381
 9658 03ab 4C000000 		.4byte	.LVL386
 9659 03af 0400     		.2byte	0x4
 9660 03b1 F3       		.byte	0xf3
 9661 03b2 01       		.uleb128 0x1
 9662 03b3 53       		.byte	0x53
 9663 03b4 9F       		.byte	0x9f
 9664 03b5 4C000000 		.4byte	.LVL386
 9665 03b9 6A000000 		.4byte	.LVL391
 9666 03bd 0100     		.2byte	0x1
 9667 03bf 53       		.byte	0x53
 9668 03c0 6A000000 		.4byte	.LVL391
 9669 03c4 80000000 		.4byte	.LFE189
 9670 03c8 0400     		.2byte	0x4
 9671 03ca F3       		.byte	0xf3
 9672 03cb 01       		.uleb128 0x1
 9673 03cc 53       		.byte	0x53
 9674 03cd 9F       		.byte	0x9f
 9675 03ce 00000000 		.4byte	0
 9676 03d2 00000000 		.4byte	0
 9677              	.LLST176:
 9678 03d6 06000000 		.4byte	.LVL373
 9679 03da 34000000 		.4byte	.LVL381
 9680 03de 0100     		.2byte	0x1
 9681 03e0 53       		.byte	0x53
 9682 03e1 00000000 		.4byte	0
 9683 03e5 00000000 		.4byte	0
 9684              	.LLST177:
 9685 03e9 06000000 		.4byte	.LVL373
 9686 03ed 34000000 		.4byte	.LVL381
 9687 03f1 0200     		.2byte	0x2
 9688 03f3 31       		.byte	0x31
 9689 03f4 9F       		.byte	0x9f
 9690 03f5 00000000 		.4byte	0
ARM GAS  C:\Users\Grillmo\AppData\Local\Temp\ccN7xt8j.s 			page 171


 9691 03f9 00000000 		.4byte	0
 9692              	.LLST178:
 9693 03fd 06000000 		.4byte	.LVL373
 9694 0401 26000000 		.4byte	.LVL379
 9695 0405 0100     		.2byte	0x1
 9696 0407 52       		.byte	0x52
 9697 0408 26000000 		.4byte	.LVL379
 9698 040c 34000000 		.4byte	.LVL381
 9699 0410 0400     		.2byte	0x4
 9700 0412 F3       		.byte	0xf3
 9701 0413 01       		.uleb128 0x1
 9702 0414 52       		.byte	0x52
 9703 0415 9F       		.byte	0x9f
 9704 0416 00000000 		.4byte	0
 9705 041a 00000000 		.4byte	0
 9706              	.LLST179:
 9707 041e 06000000 		.4byte	.LVL373
 9708 0422 34000000 		.4byte	.LVL381
 9709 0426 0100     		.2byte	0x1
 9710 0428 50       		.byte	0x50
 9711 0429 00000000 		.4byte	0
 9712 042d 00000000 		.4byte	0
 9713              	.LLST180:
 9714 0431 06000000 		.4byte	.LVL373
 9715 0435 12000000 		.4byte	.LVL374
 9716 0439 0200     		.2byte	0x2
 9717 043b 30       		.byte	0x30
 9718 043c 9F       		.byte	0x9f
 9719 043d 12000000 		.4byte	.LVL374
 9720 0441 1A000000 		.4byte	.LVL376
 9721 0445 0100     		.2byte	0x1
 9722 0447 55       		.byte	0x55
 9723 0448 1A000000 		.4byte	.LVL376
 9724 044c 1E000000 		.4byte	.LVL377
 9725 0450 0A00     		.2byte	0xa
 9726 0452 73       		.byte	0x73
 9727 0453 00       		.sleb128 0
 9728 0454 34       		.byte	0x34
 9729 0455 24       		.byte	0x24
 9730 0456 74       		.byte	0x74
 9731 0457 00       		.sleb128 0
 9732 0458 21       		.byte	0x21
 9733 0459 31       		.byte	0x31
 9734 045a 21       		.byte	0x21
 9735 045b 9F       		.byte	0x9f
 9736 045c 1E000000 		.4byte	.LVL377
 9737 0460 22000000 		.4byte	.LVL378
 9738 0464 0E00     		.2byte	0xe
 9739 0466 73       		.byte	0x73
 9740 0467 00       		.sleb128 0
 9741 0468 34       		.byte	0x34
 9742 0469 24       		.byte	0x24
 9743 046a 75       		.byte	0x75
 9744 046b 00       		.sleb128 0
 9745 046c 0A       		.byte	0xa
 9746 046d 0CFF     		.2byte	0xff0c
 9747 046f 1A       		.byte	0x1a
ARM GAS  C:\Users\Grillmo\AppData\Local\Temp\ccN7xt8j.s 			page 172


 9748 0470 21       		.byte	0x21
 9749 0471 31       		.byte	0x31
 9750 0472 21       		.byte	0x21
 9751 0473 9F       		.byte	0x9f
 9752 0474 00000000 		.4byte	0
 9753 0478 00000000 		.4byte	0
 9754              	.LLST181:
 9755 047c 06000000 		.4byte	.LVL373
 9756 0480 14000000 		.4byte	.LVL375
 9757 0484 0200     		.2byte	0x2
 9758 0486 30       		.byte	0x30
 9759 0487 9F       		.byte	0x9f
 9760 0488 14000000 		.4byte	.LVL375
 9761 048c 28000000 		.4byte	.LVL380
 9762 0490 0100     		.2byte	0x1
 9763 0492 56       		.byte	0x56
 9764 0493 00000000 		.4byte	0
 9765 0497 00000000 		.4byte	0
 9766              	.LLST182:
 9767 049b 34000000 		.4byte	.LVL381
 9768 049f 3E000000 		.4byte	.LVL384
 9769 04a3 0100     		.2byte	0x1
 9770 04a5 51       		.byte	0x51
 9771 04a6 3E000000 		.4byte	.LVL384
 9772 04aa 40000000 		.4byte	.LVL385
 9773 04ae 0400     		.2byte	0x4
 9774 04b0 F3       		.byte	0xf3
 9775 04b1 01       		.uleb128 0x1
 9776 04b2 51       		.byte	0x51
 9777 04b3 9F       		.byte	0x9f
 9778 04b4 00000000 		.4byte	0
 9779 04b8 00000000 		.4byte	0
 9780              	.LLST183:
 9781 04bc 34000000 		.4byte	.LVL381
 9782 04c0 40000000 		.4byte	.LVL385
 9783 04c4 0100     		.2byte	0x1
 9784 04c6 50       		.byte	0x50
 9785 04c7 00000000 		.4byte	0
 9786 04cb 00000000 		.4byte	0
 9787              	.LLST184:
 9788 04cf 34000000 		.4byte	.LVL381
 9789 04d3 36000000 		.4byte	.LVL382
 9790 04d7 0200     		.2byte	0x2
 9791 04d9 30       		.byte	0x30
 9792 04da 9F       		.byte	0x9f
 9793 04db 36000000 		.4byte	.LVL382
 9794 04df 3C000000 		.4byte	.LVL383
 9795 04e3 0100     		.2byte	0x1
 9796 04e5 52       		.byte	0x52
 9797 04e6 3C000000 		.4byte	.LVL383
 9798 04ea 3E000000 		.4byte	.LVL384
 9799 04ee 0600     		.2byte	0x6
 9800 04f0 71       		.byte	0x71
 9801 04f1 00       		.sleb128 0
 9802 04f2 73       		.byte	0x73
 9803 04f3 00       		.sleb128 0
 9804 04f4 21       		.byte	0x21
ARM GAS  C:\Users\Grillmo\AppData\Local\Temp\ccN7xt8j.s 			page 173


 9805 04f5 9F       		.byte	0x9f
 9806 04f6 3E000000 		.4byte	.LVL384
 9807 04fa 40000000 		.4byte	.LVL385
 9808 04fe 0700     		.2byte	0x7
 9809 0500 F3       		.byte	0xf3
 9810 0501 01       		.uleb128 0x1
 9811 0502 51       		.byte	0x51
 9812 0503 73       		.byte	0x73
 9813 0504 00       		.sleb128 0
 9814 0505 21       		.byte	0x21
 9815 0506 9F       		.byte	0x9f
 9816 0507 00000000 		.4byte	0
 9817 050b 00000000 		.4byte	0
 9818              	.LLST185:
 9819 050f 4C000000 		.4byte	.LVL386
 9820 0513 6A000000 		.4byte	.LVL391
 9821 0517 0100     		.2byte	0x1
 9822 0519 53       		.byte	0x53
 9823 051a 6A000000 		.4byte	.LVL391
 9824 051e 80000000 		.4byte	.LFE189
 9825 0522 0400     		.2byte	0x4
 9826 0524 F3       		.byte	0xf3
 9827 0525 01       		.uleb128 0x1
 9828 0526 53       		.byte	0x53
 9829 0527 9F       		.byte	0x9f
 9830 0528 00000000 		.4byte	0
 9831 052c 00000000 		.4byte	0
 9832              	.LLST186:
 9833 0530 4C000000 		.4byte	.LVL386
 9834 0534 6E000000 		.4byte	.LVL392
 9835 0538 0100     		.2byte	0x1
 9836 053a 52       		.byte	0x52
 9837 053b 6E000000 		.4byte	.LVL392
 9838 053f 80000000 		.4byte	.LFE189
 9839 0543 0400     		.2byte	0x4
 9840 0545 F3       		.byte	0xf3
 9841 0546 01       		.uleb128 0x1
 9842 0547 52       		.byte	0x52
 9843 0548 9F       		.byte	0x9f
 9844 0549 00000000 		.4byte	0
 9845 054d 00000000 		.4byte	0
 9846              	.LLST187:
 9847 0551 4C000000 		.4byte	.LVL386
 9848 0555 58000000 		.4byte	.LVL387
 9849 0559 0200     		.2byte	0x2
 9850 055b 30       		.byte	0x30
 9851 055c 9F       		.byte	0x9f
 9852 055d 58000000 		.4byte	.LVL387
 9853 0561 64000000 		.4byte	.LVL389
 9854 0565 0100     		.2byte	0x1
 9855 0567 54       		.byte	0x54
 9856 0568 64000000 		.4byte	.LVL389
 9857 056c 6A000000 		.4byte	.LVL391
 9858 0570 0C00     		.2byte	0xc
 9859 0572 73       		.byte	0x73
 9860 0573 00       		.sleb128 0
 9861 0574 3C       		.byte	0x3c
ARM GAS  C:\Users\Grillmo\AppData\Local\Temp\ccN7xt8j.s 			page 174


 9862 0575 24       		.byte	0x24
 9863 0576 74       		.byte	0x74
 9864 0577 00       		.sleb128 0
 9865 0578 21       		.byte	0x21
 9866 0579 0A       		.byte	0xa
 9867 057a 0001     		.2byte	0x100
 9868 057c 21       		.byte	0x21
 9869 057d 9F       		.byte	0x9f
 9870 057e 6A000000 		.4byte	.LVL391
 9871 0582 80000000 		.4byte	.LFE189
 9872 0586 0D00     		.2byte	0xd
 9873 0588 F3       		.byte	0xf3
 9874 0589 01       		.uleb128 0x1
 9875 058a 53       		.byte	0x53
 9876 058b 3C       		.byte	0x3c
 9877 058c 24       		.byte	0x24
 9878 058d 74       		.byte	0x74
 9879 058e 00       		.sleb128 0
 9880 058f 21       		.byte	0x21
 9881 0590 0A       		.byte	0xa
 9882 0591 0001     		.2byte	0x100
 9883 0593 21       		.byte	0x21
 9884 0594 9F       		.byte	0x9f
 9885 0595 00000000 		.4byte	0
 9886 0599 00000000 		.4byte	0
 9887              	.LLST188:
 9888 059d 4C000000 		.4byte	.LVL386
 9889 05a1 5A000000 		.4byte	.LVL388
 9890 05a5 0200     		.2byte	0x2
 9891 05a7 30       		.byte	0x30
 9892 05a8 9F       		.byte	0x9f
 9893 05a9 5A000000 		.4byte	.LVL388
 9894 05ad 66000000 		.4byte	.LVL390
 9895 05b1 0100     		.2byte	0x1
 9896 05b3 56       		.byte	0x56
 9897 05b4 66000000 		.4byte	.LVL390
 9898 05b8 6E000000 		.4byte	.LVL392
 9899 05bc 0A00     		.2byte	0xa
 9900 05be 72       		.byte	0x72
 9901 05bf 00       		.sleb128 0
 9902 05c0 34       		.byte	0x34
 9903 05c1 24       		.byte	0x24
 9904 05c2 75       		.byte	0x75
 9905 05c3 00       		.sleb128 0
 9906 05c4 21       		.byte	0x21
 9907 05c5 40       		.byte	0x40
 9908 05c6 21       		.byte	0x21
 9909 05c7 9F       		.byte	0x9f
 9910 05c8 6E000000 		.4byte	.LVL392
 9911 05cc 80000000 		.4byte	.LFE189
 9912 05d0 0B00     		.2byte	0xb
 9913 05d2 F3       		.byte	0xf3
 9914 05d3 01       		.uleb128 0x1
 9915 05d4 52       		.byte	0x52
 9916 05d5 34       		.byte	0x34
 9917 05d6 24       		.byte	0x24
 9918 05d7 75       		.byte	0x75
ARM GAS  C:\Users\Grillmo\AppData\Local\Temp\ccN7xt8j.s 			page 175


 9919 05d8 00       		.sleb128 0
 9920 05d9 21       		.byte	0x21
 9921 05da 40       		.byte	0x40
 9922 05db 21       		.byte	0x21
 9923 05dc 9F       		.byte	0x9f
 9924 05dd 00000000 		.4byte	0
 9925 05e1 00000000 		.4byte	0
 9926              	.LLST189:
 9927 05e5 4C000000 		.4byte	.LVL386
 9928 05e9 5A000000 		.4byte	.LVL388
 9929 05ed 0200     		.2byte	0x2
 9930 05ef 30       		.byte	0x30
 9931 05f0 9F       		.byte	0x9f
 9932 05f1 5A000000 		.4byte	.LVL388
 9933 05f5 6E000000 		.4byte	.LVL392
 9934 05f9 0500     		.2byte	0x5
 9935 05fb 72       		.byte	0x72
 9936 05fc 00       		.sleb128 0
 9937 05fd 34       		.byte	0x34
 9938 05fe 24       		.byte	0x24
 9939 05ff 9F       		.byte	0x9f
 9940 0600 6E000000 		.4byte	.LVL392
 9941 0604 80000000 		.4byte	.LFE189
 9942 0608 0600     		.2byte	0x6
 9943 060a F3       		.byte	0xf3
 9944 060b 01       		.uleb128 0x1
 9945 060c 52       		.byte	0x52
 9946 060d 34       		.byte	0x34
 9947 060e 24       		.byte	0x24
 9948 060f 9F       		.byte	0x9f
 9949 0610 00000000 		.4byte	0
 9950 0614 00000000 		.4byte	0
 9951              	.LLST169:
 9952 0618 00000000 		.4byte	.LVL367
 9953 061c 0A000000 		.4byte	.LVL370
 9954 0620 0100     		.2byte	0x1
 9955 0622 51       		.byte	0x51
 9956 0623 0A000000 		.4byte	.LVL370
 9957 0627 16000000 		.4byte	.LFE188
 9958 062b 0400     		.2byte	0x4
 9959 062d F3       		.byte	0xf3
 9960 062e 01       		.uleb128 0x1
 9961 062f 51       		.byte	0x51
 9962 0630 9F       		.byte	0x9f
 9963 0631 00000000 		.4byte	0
 9964 0635 00000000 		.4byte	0
 9965              	.LLST170:
 9966 0639 00000000 		.4byte	.LVL367
 9967 063d 0A000000 		.4byte	.LVL370
 9968 0641 0100     		.2byte	0x1
 9969 0643 51       		.byte	0x51
 9970 0644 0A000000 		.4byte	.LVL370
 9971 0648 0C000000 		.4byte	.LVL371
 9972 064c 0400     		.2byte	0x4
 9973 064e F3       		.byte	0xf3
 9974 064f 01       		.uleb128 0x1
 9975 0650 51       		.byte	0x51
ARM GAS  C:\Users\Grillmo\AppData\Local\Temp\ccN7xt8j.s 			page 176


 9976 0651 9F       		.byte	0x9f
 9977 0652 00000000 		.4byte	0
 9978 0656 00000000 		.4byte	0
 9979              	.LLST171:
 9980 065a 00000000 		.4byte	.LVL367
 9981 065e 0C000000 		.4byte	.LVL371
 9982 0662 0100     		.2byte	0x1
 9983 0664 50       		.byte	0x50
 9984 0665 00000000 		.4byte	0
 9985 0669 00000000 		.4byte	0
 9986              	.LLST172:
 9987 066d 00000000 		.4byte	.LVL367
 9988 0671 02000000 		.4byte	.LVL368
 9989 0675 0200     		.2byte	0x2
 9990 0677 30       		.byte	0x30
 9991 0678 9F       		.byte	0x9f
 9992 0679 02000000 		.4byte	.LVL368
 9993 067d 08000000 		.4byte	.LVL369
 9994 0681 0100     		.2byte	0x1
 9995 0683 52       		.byte	0x52
 9996 0684 08000000 		.4byte	.LVL369
 9997 0688 0A000000 		.4byte	.LVL370
 9998 068c 0600     		.2byte	0x6
 9999 068e 71       		.byte	0x71
 10000 068f 00       		.sleb128 0
 10001 0690 73       		.byte	0x73
 10002 0691 00       		.sleb128 0
 10003 0692 21       		.byte	0x21
 10004 0693 9F       		.byte	0x9f
 10005 0694 0A000000 		.4byte	.LVL370
 10006 0698 0C000000 		.4byte	.LVL371
 10007 069c 0700     		.2byte	0x7
 10008 069e F3       		.byte	0xf3
 10009 069f 01       		.uleb128 0x1
 10010 06a0 51       		.byte	0x51
 10011 06a1 73       		.byte	0x73
 10012 06a2 00       		.sleb128 0
 10013 06a3 21       		.byte	0x21
 10014 06a4 9F       		.byte	0x9f
 10015 06a5 00000000 		.4byte	0
 10016 06a9 00000000 		.4byte	0
 10017              	.LLST168:
 10018 06ad 00000000 		.4byte	.LVL361
 10019 06b1 06000000 		.4byte	.LVL362
 10020 06b5 0100     		.2byte	0x1
 10021 06b7 51       		.byte	0x51
 10022 06b8 06000000 		.4byte	.LVL362
 10023 06bc 0E000000 		.4byte	.LVL363
 10024 06c0 0400     		.2byte	0x4
 10025 06c2 F3       		.byte	0xf3
 10026 06c3 01       		.uleb128 0x1
 10027 06c4 51       		.byte	0x51
 10028 06c5 9F       		.byte	0x9f
 10029 06c6 0E000000 		.4byte	.LVL363
 10030 06ca 12000000 		.4byte	.LVL364
 10031 06ce 0100     		.2byte	0x1
 10032 06d0 51       		.byte	0x51
ARM GAS  C:\Users\Grillmo\AppData\Local\Temp\ccN7xt8j.s 			page 177


 10033 06d1 12000000 		.4byte	.LVL364
 10034 06d5 16000000 		.4byte	.LFE185
 10035 06d9 0400     		.2byte	0x4
 10036 06db F3       		.byte	0xf3
 10037 06dc 01       		.uleb128 0x1
 10038 06dd 51       		.byte	0x51
 10039 06de 9F       		.byte	0x9f
 10040 06df 00000000 		.4byte	0
 10041 06e3 00000000 		.4byte	0
 10042              	.LLST167:
 10043 06e7 00000000 		.4byte	.LVL359
 10044 06eb 02000000 		.4byte	.LVL360
 10045 06ef 0100     		.2byte	0x1
 10046 06f1 52       		.byte	0x52
 10047 06f2 02000000 		.4byte	.LVL360
 10048 06f6 06000000 		.4byte	.LFE184
 10049 06fa 0400     		.2byte	0x4
 10050 06fc F3       		.byte	0xf3
 10051 06fd 01       		.uleb128 0x1
 10052 06fe 52       		.byte	0x52
 10053 06ff 9F       		.byte	0x9f
 10054 0700 00000000 		.4byte	0
 10055 0704 00000000 		.4byte	0
 10056              	.LLST162:
 10057 0708 00000000 		.4byte	.LVL352
 10058 070c 08000000 		.4byte	.LVL355
 10059 0710 0100     		.2byte	0x1
 10060 0712 50       		.byte	0x50
 10061 0713 08000000 		.4byte	.LVL355
 10062 0717 14000000 		.4byte	.LFE182
 10063 071b 0400     		.2byte	0x4
 10064 071d F3       		.byte	0xf3
 10065 071e 01       		.uleb128 0x1
 10066 071f 50       		.byte	0x50
 10067 0720 9F       		.byte	0x9f
 10068 0721 00000000 		.4byte	0
 10069 0725 00000000 		.4byte	0
 10070              	.LLST163:
 10071 0729 00000000 		.4byte	.LVL352
 10072 072d 12000000 		.4byte	.LVL356
 10073 0731 0200     		.2byte	0x2
 10074 0733 30       		.byte	0x30
 10075 0734 9F       		.byte	0x9f
 10076 0735 12000000 		.4byte	.LVL356
 10077 0739 14000000 		.4byte	.LFE182
 10078 073d 0100     		.2byte	0x1
 10079 073f 50       		.byte	0x50
 10080 0740 00000000 		.4byte	0
 10081 0744 00000000 		.4byte	0
 10082              	.LLST164:
 10083 0748 00000000 		.4byte	.LVL352
 10084 074c 02000000 		.4byte	.LVL353
 10085 0750 0200     		.2byte	0x2
 10086 0752 30       		.byte	0x30
 10087 0753 9F       		.byte	0x9f
 10088 0754 02000000 		.4byte	.LVL353
 10089 0758 14000000 		.4byte	.LFE182
ARM GAS  C:\Users\Grillmo\AppData\Local\Temp\ccN7xt8j.s 			page 178


 10090 075c 0600     		.2byte	0x6
 10091 075e 73       		.byte	0x73
 10092 075f 00       		.sleb128 0
 10093 0760 71       		.byte	0x71
 10094 0761 00       		.sleb128 0
 10095 0762 1A       		.byte	0x1a
 10096 0763 9F       		.byte	0x9f
 10097 0764 00000000 		.4byte	0
 10098 0768 00000000 		.4byte	0
 10099              	.LLST165:
 10100 076c 00000000 		.4byte	.LVL352
 10101 0770 04000000 		.4byte	.LVL354
 10102 0774 0200     		.2byte	0x2
 10103 0776 30       		.byte	0x30
 10104 0777 9F       		.byte	0x9f
 10105 0778 04000000 		.4byte	.LVL354
 10106 077c 14000000 		.4byte	.LFE182
 10107 0780 0600     		.2byte	0x6
 10108 0782 72       		.byte	0x72
 10109 0783 00       		.sleb128 0
 10110 0784 71       		.byte	0x71
 10111 0785 00       		.sleb128 0
 10112 0786 1A       		.byte	0x1a
 10113 0787 9F       		.byte	0x9f
 10114 0788 00000000 		.4byte	0
 10115 078c 00000000 		.4byte	0
 10116              	.LLST160:
 10117 0790 00000000 		.4byte	.LVL349
 10118 0794 08000000 		.4byte	.LVL351
 10119 0798 0100     		.2byte	0x1
 10120 079a 50       		.byte	0x50
 10121 079b 08000000 		.4byte	.LVL351
 10122 079f 0C000000 		.4byte	.LFE180
 10123 07a3 0400     		.2byte	0x4
 10124 07a5 F3       		.byte	0xf3
 10125 07a6 01       		.uleb128 0x1
 10126 07a7 50       		.byte	0x50
 10127 07a8 9F       		.byte	0x9f
 10128 07a9 00000000 		.4byte	0
 10129 07ad 00000000 		.4byte	0
 10130              	.LLST161:
 10131 07b1 00000000 		.4byte	.LVL349
 10132 07b5 02000000 		.4byte	.LVL350
 10133 07b9 0200     		.2byte	0x2
 10134 07bb 30       		.byte	0x30
 10135 07bc 9F       		.byte	0x9f
 10136 07bd 02000000 		.4byte	.LVL350
 10137 07c1 0C000000 		.4byte	.LFE180
 10138 07c5 0C00     		.2byte	0xc
 10139 07c7 71       		.byte	0x71
 10140 07c8 00       		.sleb128 0
 10141 07c9 0A       		.byte	0xa
 10142 07ca FFFF     		.2byte	0xffff
 10143 07cc 1A       		.byte	0x1a
 10144 07cd 73       		.byte	0x73
 10145 07ce 00       		.sleb128 0
 10146 07cf 1A       		.byte	0x1a
ARM GAS  C:\Users\Grillmo\AppData\Local\Temp\ccN7xt8j.s 			page 179


 10147 07d0 30       		.byte	0x30
 10148 07d1 2E       		.byte	0x2e
 10149 07d2 9F       		.byte	0x9f
 10150 07d3 00000000 		.4byte	0
 10151 07d7 00000000 		.4byte	0
 10152              	.LLST159:
 10153 07db 00000000 		.4byte	.LVL342
 10154 07df 10000000 		.4byte	.LVL343
 10155 07e3 0100     		.2byte	0x1
 10156 07e5 51       		.byte	0x51
 10157 07e6 10000000 		.4byte	.LVL343
 10158 07ea 24000000 		.4byte	.LFE173
 10159 07ee 0400     		.2byte	0x4
 10160 07f0 F3       		.byte	0xf3
 10161 07f1 01       		.uleb128 0x1
 10162 07f2 51       		.byte	0x51
 10163 07f3 9F       		.byte	0x9f
 10164 07f4 00000000 		.4byte	0
 10165 07f8 00000000 		.4byte	0
 10166              	.LLST154:
 10167 07fc 00000000 		.4byte	.LVL332
 10168 0800 02000000 		.4byte	.LVL333
 10169 0804 0100     		.2byte	0x1
 10170 0806 50       		.byte	0x50
 10171 0807 02000000 		.4byte	.LVL333
 10172 080b 04000000 		.4byte	.LFE168
 10173 080f 0400     		.2byte	0x4
 10174 0811 F3       		.byte	0xf3
 10175 0812 01       		.uleb128 0x1
 10176 0813 50       		.byte	0x50
 10177 0814 9F       		.byte	0x9f
 10178 0815 00000000 		.4byte	0
 10179 0819 00000000 		.4byte	0
 10180              	.LLST153:
 10181 081d 00000000 		.4byte	.LVL330
 10182 0821 02000000 		.4byte	.LVL331
 10183 0825 0100     		.2byte	0x1
 10184 0827 50       		.byte	0x50
 10185 0828 02000000 		.4byte	.LVL331
 10186 082c 04000000 		.4byte	.LFE167
 10187 0830 0400     		.2byte	0x4
 10188 0832 F3       		.byte	0xf3
 10189 0833 01       		.uleb128 0x1
 10190 0834 50       		.byte	0x50
 10191 0835 9F       		.byte	0x9f
 10192 0836 00000000 		.4byte	0
 10193 083a 00000000 		.4byte	0
 10194              	.LLST152:
 10195 083e 00000000 		.4byte	.LVL328
 10196 0842 02000000 		.4byte	.LVL329
 10197 0846 0100     		.2byte	0x1
 10198 0848 50       		.byte	0x50
 10199 0849 02000000 		.4byte	.LVL329
 10200 084d 04000000 		.4byte	.LFE166
 10201 0851 0400     		.2byte	0x4
 10202 0853 F3       		.byte	0xf3
 10203 0854 01       		.uleb128 0x1
ARM GAS  C:\Users\Grillmo\AppData\Local\Temp\ccN7xt8j.s 			page 180


 10204 0855 50       		.byte	0x50
 10205 0856 9F       		.byte	0x9f
 10206 0857 00000000 		.4byte	0
 10207 085b 00000000 		.4byte	0
 10208              	.LLST151:
 10209 085f 00000000 		.4byte	.LVL326
 10210 0863 02000000 		.4byte	.LVL327
 10211 0867 0100     		.2byte	0x1
 10212 0869 50       		.byte	0x50
 10213 086a 02000000 		.4byte	.LVL327
 10214 086e 04000000 		.4byte	.LFE165
 10215 0872 0400     		.2byte	0x4
 10216 0874 F3       		.byte	0xf3
 10217 0875 01       		.uleb128 0x1
 10218 0876 50       		.byte	0x50
 10219 0877 9F       		.byte	0x9f
 10220 0878 00000000 		.4byte	0
 10221 087c 00000000 		.4byte	0
 10222              	.LLST115:
 10223 0880 00000000 		.4byte	.LVL278
 10224 0884 26000000 		.4byte	.LVL282
 10225 0888 0100     		.2byte	0x1
 10226 088a 51       		.byte	0x51
 10227 088b 26000000 		.4byte	.LVL282
 10228 088f AC000000 		.4byte	.LVL303
 10229 0893 0400     		.2byte	0x4
 10230 0895 F3       		.byte	0xf3
 10231 0896 01       		.uleb128 0x1
 10232 0897 51       		.byte	0x51
 10233 0898 9F       		.byte	0x9f
 10234 0899 AC000000 		.4byte	.LVL303
 10235 089d B2000000 		.4byte	.LVL305
 10236 08a1 0100     		.2byte	0x1
 10237 08a3 51       		.byte	0x51
 10238 08a4 B2000000 		.4byte	.LVL305
 10239 08a8 34010000 		.4byte	.LFE164
 10240 08ac 0400     		.2byte	0x4
 10241 08ae F3       		.byte	0xf3
 10242 08af 01       		.uleb128 0x1
 10243 08b0 51       		.byte	0x51
 10244 08b1 9F       		.byte	0x9f
 10245 08b2 00000000 		.4byte	0
 10246 08b6 00000000 		.4byte	0
 10247              	.LLST116:
 10248 08ba 00000000 		.4byte	.LVL278
 10249 08be 14000000 		.4byte	.LVL279
 10250 08c2 0200     		.2byte	0x2
 10251 08c4 30       		.byte	0x30
 10252 08c5 9F       		.byte	0x9f
 10253 08c6 14000000 		.4byte	.LVL279
 10254 08ca 94000000 		.4byte	.LVL299
 10255 08ce 0100     		.2byte	0x1
 10256 08d0 54       		.byte	0x54
 10257 08d1 AC000000 		.4byte	.LVL303
 10258 08d5 16010000 		.4byte	.LVL322
 10259 08d9 0100     		.2byte	0x1
 10260 08db 54       		.byte	0x54
ARM GAS  C:\Users\Grillmo\AppData\Local\Temp\ccN7xt8j.s 			page 181


 10261 08dc 00000000 		.4byte	0
 10262 08e0 00000000 		.4byte	0
 10263              	.LLST117:
 10264 08e4 00000000 		.4byte	.LVL278
 10265 08e8 1C000000 		.4byte	.LVL280
 10266 08ec 0200     		.2byte	0x2
 10267 08ee 31       		.byte	0x31
 10268 08ef 9F       		.byte	0x9f
 10269 08f0 1C000000 		.4byte	.LVL280
 10270 08f4 1A010000 		.4byte	.LVL323
 10271 08f8 0100     		.2byte	0x1
 10272 08fa 55       		.byte	0x55
 10273 08fb 00000000 		.4byte	0
 10274 08ff 00000000 		.4byte	0
 10275              	.LLST118:
 10276 0903 24000000 		.4byte	.LVL281
 10277 0907 5A000000 		.4byte	.LVL292
 10278 090b 0100     		.2byte	0x1
 10279 090d 56       		.byte	0x56
 10280 090e 00000000 		.4byte	0
 10281 0912 00000000 		.4byte	0
 10282              	.LLST119:
 10283 0916 24000000 		.4byte	.LVL281
 10284 091a 5A000000 		.4byte	.LVL292
 10285 091e 0100     		.2byte	0x1
 10286 0920 57       		.byte	0x57
 10287 0921 00000000 		.4byte	0
 10288 0925 00000000 		.4byte	0
 10289              	.LLST120:
 10290 0929 24000000 		.4byte	.LVL281
 10291 092d 5A000000 		.4byte	.LVL292
 10292 0931 0100     		.2byte	0x1
 10293 0933 5E       		.byte	0x5e
 10294 0934 00000000 		.4byte	0
 10295 0938 00000000 		.4byte	0
 10296              	.LLST121:
 10297 093c 24000000 		.4byte	.LVL281
 10298 0940 5A000000 		.4byte	.LVL292
 10299 0944 0100     		.2byte	0x1
 10300 0946 50       		.byte	0x50
 10301 0947 00000000 		.4byte	0
 10302 094b 00000000 		.4byte	0
 10303              	.LLST122:
 10304 094f 24000000 		.4byte	.LVL281
 10305 0953 30000000 		.4byte	.LVL283
 10306 0957 0200     		.2byte	0x2
 10307 0959 30       		.byte	0x30
 10308 095a 9F       		.byte	0x9f
 10309 095b 30000000 		.4byte	.LVL283
 10310 095f 3A000000 		.4byte	.LVL284
 10311 0963 0100     		.2byte	0x1
 10312 0965 52       		.byte	0x52
 10313 0966 3C000000 		.4byte	.LVL285
 10314 096a 40000000 		.4byte	.LVL286
 10315 096e 0100     		.2byte	0x1
 10316 0970 52       		.byte	0x52
 10317 0971 46000000 		.4byte	.LVL288
ARM GAS  C:\Users\Grillmo\AppData\Local\Temp\ccN7xt8j.s 			page 182


 10318 0975 4E000000 		.4byte	.LVL289
 10319 0979 0800     		.2byte	0x8
 10320 097b 77       		.byte	0x77
 10321 097c 00       		.sleb128 0
 10322 097d 38       		.byte	0x38
 10323 097e 24       		.byte	0x24
 10324 097f 72       		.byte	0x72
 10325 0980 00       		.sleb128 0
 10326 0981 21       		.byte	0x21
 10327 0982 9F       		.byte	0x9f
 10328 0983 00000000 		.4byte	0
 10329 0987 00000000 		.4byte	0
 10330              	.LLST123:
 10331 098b 24000000 		.4byte	.LVL281
 10332 098f 3C000000 		.4byte	.LVL285
 10333 0993 0200     		.2byte	0x2
 10334 0995 30       		.byte	0x30
 10335 0996 9F       		.byte	0x9f
 10336 0997 3C000000 		.4byte	.LVL285
 10337 099b 44000000 		.4byte	.LVL287
 10338 099f 0100     		.2byte	0x1
 10339 09a1 53       		.byte	0x53
 10340 09a2 50000000 		.4byte	.LVL290
 10341 09a6 56000000 		.4byte	.LVL291
 10342 09aa 0500     		.2byte	0x5
 10343 09ac 73       		.byte	0x73
 10344 09ad 00       		.sleb128 0
 10345 09ae 40       		.byte	0x40
 10346 09af 21       		.byte	0x21
 10347 09b0 9F       		.byte	0x9f
 10348 09b1 00000000 		.4byte	0
 10349 09b5 00000000 		.4byte	0
 10350              	.LLST124:
 10351 09b9 24000000 		.4byte	.LVL281
 10352 09bd 3C000000 		.4byte	.LVL285
 10353 09c1 0200     		.2byte	0x2
 10354 09c3 30       		.byte	0x30
 10355 09c4 9F       		.byte	0x9f
 10356 09c5 3C000000 		.4byte	.LVL285
 10357 09c9 5A000000 		.4byte	.LVL292
 10358 09cd 0500     		.2byte	0x5
 10359 09cf 7E       		.byte	0x7e
 10360 09d0 00       		.sleb128 0
 10361 09d1 34       		.byte	0x34
 10362 09d2 24       		.byte	0x24
 10363 09d3 9F       		.byte	0x9f
 10364 09d4 00000000 		.4byte	0
 10365 09d8 00000000 		.4byte	0
 10366              	.LLST125:
 10367 09dc 5A000000 		.4byte	.LVL292
 10368 09e0 6E000000 		.4byte	.LVL293
 10369 09e4 0100     		.2byte	0x1
 10370 09e6 51       		.byte	0x51
 10371 09e7 00000000 		.4byte	0
 10372 09eb 00000000 		.4byte	0
 10373              	.LLST126:
 10374 09ef 5A000000 		.4byte	.LVL292
ARM GAS  C:\Users\Grillmo\AppData\Local\Temp\ccN7xt8j.s 			page 183


 10375 09f3 6E000000 		.4byte	.LVL293
 10376 09f7 0100     		.2byte	0x1
 10377 09f9 50       		.byte	0x50
 10378 09fa 00000000 		.4byte	0
 10379 09fe 00000000 		.4byte	0
 10380              	.LLST127:
 10381 0a02 6E000000 		.4byte	.LVL293
 10382 0a06 88000000 		.4byte	.LVL297
 10383 0a0a 0100     		.2byte	0x1
 10384 0a0c 56       		.byte	0x56
 10385 0a0d 88000000 		.4byte	.LVL297
 10386 0a11 9A000000 		.4byte	.LVL301
 10387 0a15 0500     		.2byte	0x5
 10388 0a17 F3       		.byte	0xf3
 10389 0a18 01       		.uleb128 0x1
 10390 0a19 51       		.byte	0x51
 10391 0a1a 23       		.byte	0x23
 10392 0a1b 08       		.uleb128 0x8
 10393 0a1c 00000000 		.4byte	0
 10394 0a20 00000000 		.4byte	0
 10395              	.LLST128:
 10396 0a24 6E000000 		.4byte	.LVL293
 10397 0a28 9A000000 		.4byte	.LVL301
 10398 0a2c 0100     		.2byte	0x1
 10399 0a2e 55       		.byte	0x55
 10400 0a2f 00000000 		.4byte	0
 10401 0a33 00000000 		.4byte	0
 10402              	.LLST129:
 10403 0a37 6E000000 		.4byte	.LVL293
 10404 0a3b 94000000 		.4byte	.LVL299
 10405 0a3f 0100     		.2byte	0x1
 10406 0a41 54       		.byte	0x54
 10407 0a42 00000000 		.4byte	0
 10408 0a46 00000000 		.4byte	0
 10409              	.LLST130:
 10410 0a4a 6E000000 		.4byte	.LVL293
 10411 0a4e 9A000000 		.4byte	.LVL301
 10412 0a52 0100     		.2byte	0x1
 10413 0a54 50       		.byte	0x50
 10414 0a55 00000000 		.4byte	0
 10415 0a59 00000000 		.4byte	0
 10416              	.LLST131:
 10417 0a5d 6E000000 		.4byte	.LVL293
 10418 0a61 7E000000 		.4byte	.LVL294
 10419 0a65 0200     		.2byte	0x2
 10420 0a67 30       		.byte	0x30
 10421 0a68 9F       		.byte	0x9f
 10422 0a69 7E000000 		.4byte	.LVL294
 10423 0a6d 82000000 		.4byte	.LVL295
 10424 0a71 0100     		.2byte	0x1
 10425 0a73 53       		.byte	0x53
 10426 0a74 92000000 		.4byte	.LVL298
 10427 0a78 96000000 		.4byte	.LVL300
 10428 0a7c 0600     		.2byte	0x6
 10429 0a7e 75       		.byte	0x75
 10430 0a7f 00       		.sleb128 0
 10431 0a80 76       		.byte	0x76
ARM GAS  C:\Users\Grillmo\AppData\Local\Temp\ccN7xt8j.s 			page 184


 10432 0a81 00       		.sleb128 0
 10433 0a82 21       		.byte	0x21
 10434 0a83 9F       		.byte	0x9f
 10435 0a84 00000000 		.4byte	0
 10436 0a88 00000000 		.4byte	0
 10437              	.LLST132:
 10438 0a8c 6E000000 		.4byte	.LVL293
 10439 0a90 84000000 		.4byte	.LVL296
 10440 0a94 0200     		.2byte	0x2
 10441 0a96 30       		.byte	0x30
 10442 0a97 9F       		.byte	0x9f
 10443 0a98 84000000 		.4byte	.LVL296
 10444 0a9c 92000000 		.4byte	.LVL298
 10445 0aa0 0100     		.2byte	0x1
 10446 0aa2 52       		.byte	0x52
 10447 0aa3 92000000 		.4byte	.LVL298
 10448 0aa7 94000000 		.4byte	.LVL299
 10449 0aab 0600     		.2byte	0x6
 10450 0aad 74       		.byte	0x74
 10451 0aae 00       		.sleb128 0
 10452 0aaf 73       		.byte	0x73
 10453 0ab0 00       		.sleb128 0
 10454 0ab1 21       		.byte	0x21
 10455 0ab2 9F       		.byte	0x9f
 10456 0ab3 00000000 		.4byte	0
 10457 0ab7 00000000 		.4byte	0
 10458              	.LLST133:
 10459 0abb 9A000000 		.4byte	.LVL301
 10460 0abf A8000000 		.4byte	.LVL302
 10461 0ac3 0100     		.2byte	0x1
 10462 0ac5 51       		.byte	0x51
 10463 0ac6 A8000000 		.4byte	.LVL302
 10464 0aca AC000000 		.4byte	.LVL303
 10465 0ace 0500     		.2byte	0x5
 10466 0ad0 F3       		.byte	0xf3
 10467 0ad1 01       		.uleb128 0x1
 10468 0ad2 51       		.byte	0x51
 10469 0ad3 23       		.byte	0x23
 10470 0ad4 06       		.uleb128 0x6
 10471 0ad5 00000000 		.4byte	0
 10472 0ad9 00000000 		.4byte	0
 10473              	.LLST134:
 10474 0add 9A000000 		.4byte	.LVL301
 10475 0ae1 AC000000 		.4byte	.LVL303
 10476 0ae5 0100     		.2byte	0x1
 10477 0ae7 50       		.byte	0x50
 10478 0ae8 00000000 		.4byte	0
 10479 0aec 00000000 		.4byte	0
 10480              	.LLST135:
 10481 0af0 B0000000 		.4byte	.LVL304
 10482 0af4 DE000000 		.4byte	.LVL314
 10483 0af8 0100     		.2byte	0x1
 10484 0afa 56       		.byte	0x56
 10485 0afb 00000000 		.4byte	0
 10486 0aff 00000000 		.4byte	0
 10487              	.LLST136:
 10488 0b03 B0000000 		.4byte	.LVL304
ARM GAS  C:\Users\Grillmo\AppData\Local\Temp\ccN7xt8j.s 			page 185


 10489 0b07 D0000000 		.4byte	.LVL310
 10490 0b0b 0100     		.2byte	0x1
 10491 0b0d 57       		.byte	0x57
 10492 0b0e 00000000 		.4byte	0
 10493 0b12 00000000 		.4byte	0
 10494              	.LLST137:
 10495 0b16 B0000000 		.4byte	.LVL304
 10496 0b1a D6000000 		.4byte	.LVL312
 10497 0b1e 0100     		.2byte	0x1
 10498 0b20 5E       		.byte	0x5e
 10499 0b21 00000000 		.4byte	0
 10500 0b25 00000000 		.4byte	0
 10501              	.LLST138:
 10502 0b29 B0000000 		.4byte	.LVL304
 10503 0b2d DE000000 		.4byte	.LVL314
 10504 0b31 0100     		.2byte	0x1
 10505 0b33 50       		.byte	0x50
 10506 0b34 00000000 		.4byte	0
 10507 0b38 00000000 		.4byte	0
 10508              	.LLST139:
 10509 0b3c B0000000 		.4byte	.LVL304
 10510 0b40 C0000000 		.4byte	.LVL306
 10511 0b44 0200     		.2byte	0x2
 10512 0b46 30       		.byte	0x30
 10513 0b47 9F       		.byte	0x9f
 10514 0b48 C0000000 		.4byte	.LVL306
 10515 0b4c C4000000 		.4byte	.LVL307
 10516 0b50 0700     		.2byte	0x7
 10517 0b52 72       		.byte	0x72
 10518 0b53 00       		.sleb128 0
 10519 0b54 0B       		.byte	0xb
 10520 0b55 0CFF     		.2byte	0xff0c
 10521 0b57 1A       		.byte	0x1a
 10522 0b58 9F       		.byte	0x9f
 10523 0b59 CA000000 		.4byte	.LVL308
 10524 0b5d CC000000 		.4byte	.LVL309
 10525 0b61 0600     		.2byte	0x6
 10526 0b63 77       		.byte	0x77
 10527 0b64 00       		.sleb128 0
 10528 0b65 72       		.byte	0x72
 10529 0b66 00       		.sleb128 0
 10530 0b67 21       		.byte	0x21
 10531 0b68 9F       		.byte	0x9f
 10532 0b69 00000000 		.4byte	0
 10533 0b6d 00000000 		.4byte	0
 10534              	.LLST140:
 10535 0b71 B0000000 		.4byte	.LVL304
 10536 0b75 C0000000 		.4byte	.LVL306
 10537 0b79 0200     		.2byte	0x2
 10538 0b7b 30       		.byte	0x30
 10539 0b7c 9F       		.byte	0x9f
 10540 0b7d C0000000 		.4byte	.LVL306
 10541 0b81 D2000000 		.4byte	.LVL311
 10542 0b85 0100     		.2byte	0x1
 10543 0b87 53       		.byte	0x53
 10544 0b88 D2000000 		.4byte	.LVL311
 10545 0b8c D6000000 		.4byte	.LVL312
ARM GAS  C:\Users\Grillmo\AppData\Local\Temp\ccN7xt8j.s 			page 186


 10546 0b90 0800     		.2byte	0x8
 10547 0b92 7E       		.byte	0x7e
 10548 0b93 00       		.sleb128 0
 10549 0b94 77       		.byte	0x77
 10550 0b95 00       		.sleb128 0
 10551 0b96 21       		.byte	0x21
 10552 0b97 31       		.byte	0x31
 10553 0b98 21       		.byte	0x21
 10554 0b99 9F       		.byte	0x9f
 10555 0b9a D6000000 		.4byte	.LVL312
 10556 0b9e DA000000 		.4byte	.LVL313
 10557 0ba2 0D00     		.2byte	0xd
 10558 0ba4 F3       		.byte	0xf3
 10559 0ba5 01       		.uleb128 0x1
 10560 0ba6 51       		.byte	0x51
 10561 0ba7 23       		.byte	0x23
 10562 0ba8 02       		.uleb128 0x2
 10563 0ba9 94       		.byte	0x94
 10564 0baa 02       		.byte	0x2
 10565 0bab 77       		.byte	0x77
 10566 0bac 00       		.sleb128 0
 10567 0bad 21       		.byte	0x21
 10568 0bae 31       		.byte	0x31
 10569 0baf 21       		.byte	0x21
 10570 0bb0 9F       		.byte	0x9f
 10571 0bb1 DA000000 		.4byte	.LVL313
 10572 0bb5 DE000000 		.4byte	.LVL314
 10573 0bb9 1100     		.2byte	0x11
 10574 0bbb 73       		.byte	0x73
 10575 0bbc 00       		.sleb128 0
 10576 0bbd 0A       		.byte	0xa
 10577 0bbe F5FF     		.2byte	0xfff5
 10578 0bc0 1A       		.byte	0x1a
 10579 0bc1 F3       		.byte	0xf3
 10580 0bc2 01       		.uleb128 0x1
 10581 0bc3 51       		.byte	0x51
 10582 0bc4 23       		.byte	0x23
 10583 0bc5 02       		.uleb128 0x2
 10584 0bc6 94       		.byte	0x94
 10585 0bc7 02       		.byte	0x2
 10586 0bc8 21       		.byte	0x21
 10587 0bc9 31       		.byte	0x31
 10588 0bca 21       		.byte	0x21
 10589 0bcb 9F       		.byte	0x9f
 10590 0bcc 00000000 		.4byte	0
 10591 0bd0 00000000 		.4byte	0
 10592              	.LLST141:
 10593 0bd4 DE000000 		.4byte	.LVL314
 10594 0bd8 EE000000 		.4byte	.LVL315
 10595 0bdc 0100     		.2byte	0x1
 10596 0bde 51       		.byte	0x51
 10597 0bdf 00000000 		.4byte	0
 10598 0be3 00000000 		.4byte	0
 10599              	.LLST142:
 10600 0be7 DE000000 		.4byte	.LVL314
 10601 0beb EE000000 		.4byte	.LVL315
 10602 0bef 0100     		.2byte	0x1
ARM GAS  C:\Users\Grillmo\AppData\Local\Temp\ccN7xt8j.s 			page 187


 10603 0bf1 50       		.byte	0x50
 10604 0bf2 00000000 		.4byte	0
 10605 0bf6 00000000 		.4byte	0
 10606              	.LLST143:
 10607 0bfa EE000000 		.4byte	.LVL315
 10608 0bfe 08010000 		.4byte	.LVL319
 10609 0c02 0100     		.2byte	0x1
 10610 0c04 56       		.byte	0x56
 10611 0c05 08010000 		.4byte	.LVL319
 10612 0c09 1E010000 		.4byte	.LVL324
 10613 0c0d 0500     		.2byte	0x5
 10614 0c0f F3       		.byte	0xf3
 10615 0c10 01       		.uleb128 0x1
 10616 0c11 51       		.byte	0x51
 10617 0c12 23       		.byte	0x23
 10618 0c13 08       		.uleb128 0x8
 10619 0c14 00000000 		.4byte	0
 10620 0c18 00000000 		.4byte	0
 10621              	.LLST144:
 10622 0c1c EE000000 		.4byte	.LVL315
 10623 0c20 1A010000 		.4byte	.LVL323
 10624 0c24 0100     		.2byte	0x1
 10625 0c26 55       		.byte	0x55
 10626 0c27 00000000 		.4byte	0
 10627 0c2b 00000000 		.4byte	0
 10628              	.LLST145:
 10629 0c2f EE000000 		.4byte	.LVL315
 10630 0c33 16010000 		.4byte	.LVL322
 10631 0c37 0100     		.2byte	0x1
 10632 0c39 54       		.byte	0x54
 10633 0c3a 00000000 		.4byte	0
 10634 0c3e 00000000 		.4byte	0
 10635              	.LLST146:
 10636 0c42 EE000000 		.4byte	.LVL315
 10637 0c46 1E010000 		.4byte	.LVL324
 10638 0c4a 0100     		.2byte	0x1
 10639 0c4c 50       		.byte	0x50
 10640 0c4d 00000000 		.4byte	0
 10641 0c51 00000000 		.4byte	0
 10642              	.LLST147:
 10643 0c55 EE000000 		.4byte	.LVL315
 10644 0c59 FA000000 		.4byte	.LVL316
 10645 0c5d 0200     		.2byte	0x2
 10646 0c5f 30       		.byte	0x30
 10647 0c60 9F       		.byte	0x9f
 10648 0c61 FA000000 		.4byte	.LVL316
 10649 0c65 02010000 		.4byte	.LVL317
 10650 0c69 0100     		.2byte	0x1
 10651 0c6b 52       		.byte	0x52
 10652 0c6c 04010000 		.4byte	.LVL318
 10653 0c70 12010000 		.4byte	.LVL321
 10654 0c74 0100     		.2byte	0x1
 10655 0c76 52       		.byte	0x52
 10656 0c77 12010000 		.4byte	.LVL321
 10657 0c7b 1A010000 		.4byte	.LVL323
 10658 0c7f 0800     		.2byte	0x8
 10659 0c81 75       		.byte	0x75
ARM GAS  C:\Users\Grillmo\AppData\Local\Temp\ccN7xt8j.s 			page 188


 10660 0c82 00       		.sleb128 0
 10661 0c83 38       		.byte	0x38
 10662 0c84 24       		.byte	0x24
 10663 0c85 76       		.byte	0x76
 10664 0c86 00       		.sleb128 0
 10665 0c87 21       		.byte	0x21
 10666 0c88 9F       		.byte	0x9f
 10667 0c89 00000000 		.4byte	0
 10668 0c8d 00000000 		.4byte	0
 10669              	.LLST148:
 10670 0c91 EE000000 		.4byte	.LVL315
 10671 0c95 04010000 		.4byte	.LVL318
 10672 0c99 0200     		.2byte	0x2
 10673 0c9b 30       		.byte	0x30
 10674 0c9c 9F       		.byte	0x9f
 10675 0c9d 04010000 		.4byte	.LVL318
 10676 0ca1 0C010000 		.4byte	.LVL320
 10677 0ca5 0100     		.2byte	0x1
 10678 0ca7 53       		.byte	0x53
 10679 0ca8 12010000 		.4byte	.LVL321
 10680 0cac 16010000 		.4byte	.LVL322
 10681 0cb0 0800     		.2byte	0x8
 10682 0cb2 74       		.byte	0x74
 10683 0cb3 00       		.sleb128 0
 10684 0cb4 34       		.byte	0x34
 10685 0cb5 24       		.byte	0x24
 10686 0cb6 73       		.byte	0x73
 10687 0cb7 00       		.sleb128 0
 10688 0cb8 21       		.byte	0x21
 10689 0cb9 9F       		.byte	0x9f
 10690 0cba 00000000 		.4byte	0
 10691 0cbe 00000000 		.4byte	0
 10692              	.LLST149:
 10693 0cc2 EE000000 		.4byte	.LVL315
 10694 0cc6 04010000 		.4byte	.LVL318
 10695 0cca 0200     		.2byte	0x2
 10696 0ccc 30       		.byte	0x30
 10697 0ccd 9F       		.byte	0x9f
 10698 0cce 04010000 		.4byte	.LVL318
 10699 0cd2 16010000 		.4byte	.LVL322
 10700 0cd6 0500     		.2byte	0x5
 10701 0cd8 74       		.byte	0x74
 10702 0cd9 00       		.sleb128 0
 10703 0cda 34       		.byte	0x34
 10704 0cdb 24       		.byte	0x24
 10705 0cdc 9F       		.byte	0x9f
 10706 0cdd 00000000 		.4byte	0
 10707 0ce1 00000000 		.4byte	0
 10708              	.LLST150:
 10709 0ce5 1E010000 		.4byte	.LVL324
 10710 0ce9 2C010000 		.4byte	.LVL325
 10711 0ced 0100     		.2byte	0x1
 10712 0cef 51       		.byte	0x51
 10713 0cf0 2C010000 		.4byte	.LVL325
 10714 0cf4 34010000 		.4byte	.LFE164
 10715 0cf8 0500     		.2byte	0x5
 10716 0cfa F3       		.byte	0xf3
ARM GAS  C:\Users\Grillmo\AppData\Local\Temp\ccN7xt8j.s 			page 189


 10717 0cfb 01       		.uleb128 0x1
 10718 0cfc 51       		.byte	0x51
 10719 0cfd 23       		.byte	0x23
 10720 0cfe 06       		.uleb128 0x6
 10721 0cff 00000000 		.4byte	0
 10722 0d03 00000000 		.4byte	0
 10723              	.LLST81:
 10724 0d07 00000000 		.4byte	.LVL228
 10725 0d0b 1A000000 		.4byte	.LVL230
 10726 0d0f 0100     		.2byte	0x1
 10727 0d11 51       		.byte	0x51
 10728 0d12 1A000000 		.4byte	.LVL230
 10729 0d16 62000000 		.4byte	.LVL241
 10730 0d1a 0400     		.2byte	0x4
 10731 0d1c F3       		.byte	0xf3
 10732 0d1d 01       		.uleb128 0x1
 10733 0d1e 51       		.byte	0x51
 10734 0d1f 9F       		.byte	0x9f
 10735 0d20 62000000 		.4byte	.LVL241
 10736 0d24 6C000000 		.4byte	.LVL244
 10737 0d28 0100     		.2byte	0x1
 10738 0d2a 51       		.byte	0x51
 10739 0d2b 6C000000 		.4byte	.LVL244
 10740 0d2f AA000000 		.4byte	.LVL252
 10741 0d33 0400     		.2byte	0x4
 10742 0d35 F3       		.byte	0xf3
 10743 0d36 01       		.uleb128 0x1
 10744 0d37 51       		.byte	0x51
 10745 0d38 9F       		.byte	0x9f
 10746 0d39 AA000000 		.4byte	.LVL252
 10747 0d3d B4000000 		.4byte	.LVL254
 10748 0d41 0100     		.2byte	0x1
 10749 0d43 51       		.byte	0x51
 10750 0d44 B4000000 		.4byte	.LVL254
 10751 0d48 FE000000 		.4byte	.LVL265
 10752 0d4c 0400     		.2byte	0x4
 10753 0d4e F3       		.byte	0xf3
 10754 0d4f 01       		.uleb128 0x1
 10755 0d50 51       		.byte	0x51
 10756 0d51 9F       		.byte	0x9f
 10757 0d52 FE000000 		.4byte	.LVL265
 10758 0d56 08010000 		.4byte	.LVL267
 10759 0d5a 0100     		.2byte	0x1
 10760 0d5c 51       		.byte	0x51
 10761 0d5d 08010000 		.4byte	.LVL267
 10762 0d61 48010000 		.4byte	.LFE162
 10763 0d65 0400     		.2byte	0x4
 10764 0d67 F3       		.byte	0xf3
 10765 0d68 01       		.uleb128 0x1
 10766 0d69 51       		.byte	0x51
 10767 0d6a 9F       		.byte	0x9f
 10768 0d6b 00000000 		.4byte	0
 10769 0d6f 00000000 		.4byte	0
 10770              	.LLST82:
 10771 0d73 18000000 		.4byte	.LVL229
 10772 0d77 4A000000 		.4byte	.LVL239
 10773 0d7b 0100     		.2byte	0x1
ARM GAS  C:\Users\Grillmo\AppData\Local\Temp\ccN7xt8j.s 			page 190


 10774 0d7d 55       		.byte	0x55
 10775 0d7e 00000000 		.4byte	0
 10776 0d82 00000000 		.4byte	0
 10777              	.LLST83:
 10778 0d86 18000000 		.4byte	.LVL229
 10779 0d8a 4A000000 		.4byte	.LVL239
 10780 0d8e 0100     		.2byte	0x1
 10781 0d90 57       		.byte	0x57
 10782 0d91 00000000 		.4byte	0
 10783 0d95 00000000 		.4byte	0
 10784              	.LLST84:
 10785 0d99 18000000 		.4byte	.LVL229
 10786 0d9d 4A000000 		.4byte	.LVL239
 10787 0da1 0100     		.2byte	0x1
 10788 0da3 56       		.byte	0x56
 10789 0da4 00000000 		.4byte	0
 10790 0da8 00000000 		.4byte	0
 10791              	.LLST85:
 10792 0dac 18000000 		.4byte	.LVL229
 10793 0db0 4A000000 		.4byte	.LVL239
 10794 0db4 0100     		.2byte	0x1
 10795 0db6 50       		.byte	0x50
 10796 0db7 00000000 		.4byte	0
 10797 0dbb 00000000 		.4byte	0
 10798              	.LLST86:
 10799 0dbf 18000000 		.4byte	.LVL229
 10800 0dc3 24000000 		.4byte	.LVL231
 10801 0dc7 0200     		.2byte	0x2
 10802 0dc9 30       		.byte	0x30
 10803 0dca 9F       		.byte	0x9f
 10804 0dcb 24000000 		.4byte	.LVL231
 10805 0dcf 36000000 		.4byte	.LVL235
 10806 0dd3 0100     		.2byte	0x1
 10807 0dd5 52       		.byte	0x52
 10808 0dd6 36000000 		.4byte	.LVL235
 10809 0dda 3E000000 		.4byte	.LVL236
 10810 0dde 0800     		.2byte	0x8
 10811 0de0 75       		.byte	0x75
 10812 0de1 00       		.sleb128 0
 10813 0de2 3C       		.byte	0x3c
 10814 0de3 24       		.byte	0x24
 10815 0de4 72       		.byte	0x72
 10816 0de5 00       		.sleb128 0
 10817 0de6 21       		.byte	0x21
 10818 0de7 9F       		.byte	0x9f
 10819 0de8 00000000 		.4byte	0
 10820 0dec 00000000 		.4byte	0
 10821              	.LLST87:
 10822 0df0 18000000 		.4byte	.LVL229
 10823 0df4 26000000 		.4byte	.LVL232
 10824 0df8 0200     		.2byte	0x2
 10825 0dfa 30       		.byte	0x30
 10826 0dfb 9F       		.byte	0x9f
 10827 0dfc 26000000 		.4byte	.LVL232
 10828 0e00 32000000 		.4byte	.LVL234
 10829 0e04 0100     		.2byte	0x1
 10830 0e06 53       		.byte	0x53
ARM GAS  C:\Users\Grillmo\AppData\Local\Temp\ccN7xt8j.s 			page 191


 10831 0e07 40000000 		.4byte	.LVL237
 10832 0e0b 46000000 		.4byte	.LVL238
 10833 0e0f 0700     		.2byte	0x7
 10834 0e11 73       		.byte	0x73
 10835 0e12 00       		.sleb128 0
 10836 0e13 0A       		.byte	0xa
 10837 0e14 0010     		.2byte	0x1000
 10838 0e16 21       		.byte	0x21
 10839 0e17 9F       		.byte	0x9f
 10840 0e18 00000000 		.4byte	0
 10841 0e1c 00000000 		.4byte	0
 10842              	.LLST88:
 10843 0e20 18000000 		.4byte	.LVL229
 10844 0e24 26000000 		.4byte	.LVL232
 10845 0e28 0200     		.2byte	0x2
 10846 0e2a 30       		.byte	0x30
 10847 0e2b 9F       		.byte	0x9f
 10848 0e2c 26000000 		.4byte	.LVL232
 10849 0e30 4A000000 		.4byte	.LVL239
 10850 0e34 0500     		.2byte	0x5
 10851 0e36 76       		.byte	0x76
 10852 0e37 00       		.sleb128 0
 10853 0e38 3C       		.byte	0x3c
 10854 0e39 24       		.byte	0x24
 10855 0e3a 9F       		.byte	0x9f
 10856 0e3b 00000000 		.4byte	0
 10857 0e3f 00000000 		.4byte	0
 10858              	.LLST89:
 10859 0e43 4A000000 		.4byte	.LVL239
 10860 0e47 5E000000 		.4byte	.LVL240
 10861 0e4b 0100     		.2byte	0x1
 10862 0e4d 51       		.byte	0x51
 10863 0e4e 00000000 		.4byte	0
 10864 0e52 00000000 		.4byte	0
 10865              	.LLST90:
 10866 0e56 4A000000 		.4byte	.LVL239
 10867 0e5a 5E000000 		.4byte	.LVL240
 10868 0e5e 0100     		.2byte	0x1
 10869 0e60 50       		.byte	0x50
 10870 0e61 00000000 		.4byte	0
 10871 0e65 00000000 		.4byte	0
 10872              	.LLST91:
 10873 0e69 6A000000 		.4byte	.LVL243
 10874 0e6d 96000000 		.4byte	.LVL251
 10875 0e71 0100     		.2byte	0x1
 10876 0e73 57       		.byte	0x57
 10877 0e74 00000000 		.4byte	0
 10878 0e78 00000000 		.4byte	0
 10879              	.LLST92:
 10880 0e7c 6A000000 		.4byte	.LVL243
 10881 0e80 96000000 		.4byte	.LVL251
 10882 0e84 0100     		.2byte	0x1
 10883 0e86 54       		.byte	0x54
 10884 0e87 00000000 		.4byte	0
 10885 0e8b 00000000 		.4byte	0
 10886              	.LLST93:
 10887 0e8f 6A000000 		.4byte	.LVL243
ARM GAS  C:\Users\Grillmo\AppData\Local\Temp\ccN7xt8j.s 			page 192


 10888 0e93 8A000000 		.4byte	.LVL247
 10889 0e97 0100     		.2byte	0x1
 10890 0e99 55       		.byte	0x55
 10891 0e9a 8A000000 		.4byte	.LVL247
 10892 0e9e 96000000 		.4byte	.LVL251
 10893 0ea2 0500     		.2byte	0x5
 10894 0ea4 F3       		.byte	0xf3
 10895 0ea5 01       		.uleb128 0x1
 10896 0ea6 51       		.byte	0x51
 10897 0ea7 23       		.byte	0x23
 10898 0ea8 02       		.uleb128 0x2
 10899 0ea9 00000000 		.4byte	0
 10900 0ead 00000000 		.4byte	0
 10901              	.LLST94:
 10902 0eb1 68000000 		.4byte	.LVL242
 10903 0eb5 96000000 		.4byte	.LVL251
 10904 0eb9 0100     		.2byte	0x1
 10905 0ebb 50       		.byte	0x50
 10906 0ebc 00000000 		.4byte	0
 10907 0ec0 00000000 		.4byte	0
 10908              	.LLST95:
 10909 0ec4 6A000000 		.4byte	.LVL243
 10910 0ec8 7A000000 		.4byte	.LVL245
 10911 0ecc 0200     		.2byte	0x2
 10912 0ece 30       		.byte	0x30
 10913 0ecf 9F       		.byte	0x9f
 10914 0ed0 7A000000 		.4byte	.LVL245
 10915 0ed4 7E000000 		.4byte	.LVL246
 10916 0ed8 0700     		.2byte	0x7
 10917 0eda 73       		.byte	0x73
 10918 0edb 00       		.sleb128 0
 10919 0edc 0B       		.byte	0xb
 10920 0edd 0CFF     		.2byte	0xff0c
 10921 0edf 1A       		.byte	0x1a
 10922 0ee0 9F       		.byte	0x9f
 10923 0ee1 8E000000 		.4byte	.LVL248
 10924 0ee5 90000000 		.4byte	.LVL249
 10925 0ee9 0600     		.2byte	0x6
 10926 0eeb 74       		.byte	0x74
 10927 0eec 00       		.sleb128 0
 10928 0eed 73       		.byte	0x73
 10929 0eee 00       		.sleb128 0
 10930 0eef 21       		.byte	0x21
 10931 0ef0 9F       		.byte	0x9f
 10932 0ef1 00000000 		.4byte	0
 10933 0ef5 00000000 		.4byte	0
 10934              	.LLST96:
 10935 0ef9 6A000000 		.4byte	.LVL243
 10936 0efd 7A000000 		.4byte	.LVL245
 10937 0f01 0200     		.2byte	0x2
 10938 0f03 30       		.byte	0x30
 10939 0f04 9F       		.byte	0x9f
 10940 0f05 7A000000 		.4byte	.LVL245
 10941 0f09 8E000000 		.4byte	.LVL248
 10942 0f0d 0100     		.2byte	0x1
 10943 0f0f 56       		.byte	0x56
 10944 0f10 8E000000 		.4byte	.LVL248
ARM GAS  C:\Users\Grillmo\AppData\Local\Temp\ccN7xt8j.s 			page 193


 10945 0f14 92000000 		.4byte	.LVL250
 10946 0f18 0D00     		.2byte	0xd
 10947 0f1a F3       		.byte	0xf3
 10948 0f1b 01       		.uleb128 0x1
 10949 0f1c 51       		.byte	0x51
 10950 0f1d 23       		.byte	0x23
 10951 0f1e 02       		.uleb128 0x2
 10952 0f1f 94       		.byte	0x94
 10953 0f20 02       		.byte	0x2
 10954 0f21 72       		.byte	0x72
 10955 0f22 00       		.sleb128 0
 10956 0f23 21       		.byte	0x21
 10957 0f24 31       		.byte	0x31
 10958 0f25 21       		.byte	0x21
 10959 0f26 9F       		.byte	0x9f
 10960 0f27 92000000 		.4byte	.LVL250
 10961 0f2b 96000000 		.4byte	.LVL251
 10962 0f2f 1100     		.2byte	0x11
 10963 0f31 76       		.byte	0x76
 10964 0f32 00       		.sleb128 0
 10965 0f33 0A       		.byte	0xa
 10966 0f34 F5FF     		.2byte	0xfff5
 10967 0f36 1A       		.byte	0x1a
 10968 0f37 F3       		.byte	0xf3
 10969 0f38 01       		.uleb128 0x1
 10970 0f39 51       		.byte	0x51
 10971 0f3a 23       		.byte	0x23
 10972 0f3b 02       		.uleb128 0x2
 10973 0f3c 94       		.byte	0x94
 10974 0f3d 02       		.byte	0x2
 10975 0f3e 21       		.byte	0x21
 10976 0f3f 31       		.byte	0x31
 10977 0f40 21       		.byte	0x21
 10978 0f41 9F       		.byte	0x9f
 10979 0f42 00000000 		.4byte	0
 10980 0f46 00000000 		.4byte	0
 10981              	.LLST97:
 10982 0f4a 96000000 		.4byte	.LVL251
 10983 0f4e AA000000 		.4byte	.LVL252
 10984 0f52 0100     		.2byte	0x1
 10985 0f54 51       		.byte	0x51
 10986 0f55 00000000 		.4byte	0
 10987 0f59 00000000 		.4byte	0
 10988              	.LLST98:
 10989 0f5d 96000000 		.4byte	.LVL251
 10990 0f61 AA000000 		.4byte	.LVL252
 10991 0f65 0100     		.2byte	0x1
 10992 0f67 50       		.byte	0x50
 10993 0f68 00000000 		.4byte	0
 10994 0f6c 00000000 		.4byte	0
 10995              	.LLST99:
 10996 0f70 B2000000 		.4byte	.LVL253
 10997 0f74 E6000000 		.4byte	.LVL264
 10998 0f78 0100     		.2byte	0x1
 10999 0f7a 57       		.byte	0x57
 11000 0f7b 00000000 		.4byte	0
 11001 0f7f 00000000 		.4byte	0
ARM GAS  C:\Users\Grillmo\AppData\Local\Temp\ccN7xt8j.s 			page 194


 11002              	.LLST100:
 11003 0f83 B2000000 		.4byte	.LVL253
 11004 0f87 E6000000 		.4byte	.LVL264
 11005 0f8b 0100     		.2byte	0x1
 11006 0f8d 55       		.byte	0x55
 11007 0f8e 00000000 		.4byte	0
 11008 0f92 00000000 		.4byte	0
 11009              	.LLST101:
 11010 0f96 B2000000 		.4byte	.LVL253
 11011 0f9a E6000000 		.4byte	.LVL264
 11012 0f9e 0100     		.2byte	0x1
 11013 0fa0 56       		.byte	0x56
 11014 0fa1 00000000 		.4byte	0
 11015 0fa5 00000000 		.4byte	0
 11016              	.LLST102:
 11017 0fa9 B2000000 		.4byte	.LVL253
 11018 0fad E6000000 		.4byte	.LVL264
 11019 0fb1 0100     		.2byte	0x1
 11020 0fb3 50       		.byte	0x50
 11021 0fb4 00000000 		.4byte	0
 11022 0fb8 00000000 		.4byte	0
 11023              	.LLST103:
 11024 0fbc B2000000 		.4byte	.LVL253
 11025 0fc0 BE000000 		.4byte	.LVL255
 11026 0fc4 0200     		.2byte	0x2
 11027 0fc6 30       		.byte	0x30
 11028 0fc7 9F       		.byte	0x9f
 11029 0fc8 BE000000 		.4byte	.LVL255
 11030 0fcc C6000000 		.4byte	.LVL256
 11031 0fd0 0100     		.2byte	0x1
 11032 0fd2 52       		.byte	0x52
 11033 0fd3 C8000000 		.4byte	.LVL257
 11034 0fd7 CC000000 		.4byte	.LVL258
 11035 0fdb 0100     		.2byte	0x1
 11036 0fdd 52       		.byte	0x52
 11037 0fde D6000000 		.4byte	.LVL260
 11038 0fe2 DA000000 		.4byte	.LVL261
 11039 0fe6 0800     		.2byte	0x8
 11040 0fe8 75       		.byte	0x75
 11041 0fe9 00       		.sleb128 0
 11042 0fea 38       		.byte	0x38
 11043 0feb 24       		.byte	0x24
 11044 0fec 72       		.byte	0x72
 11045 0fed 00       		.sleb128 0
 11046 0fee 21       		.byte	0x21
 11047 0fef 9F       		.byte	0x9f
 11048 0ff0 00000000 		.4byte	0
 11049 0ff4 00000000 		.4byte	0
 11050              	.LLST104:
 11051 0ff8 B2000000 		.4byte	.LVL253
 11052 0ffc C8000000 		.4byte	.LVL257
 11053 1000 0200     		.2byte	0x2
 11054 1002 30       		.byte	0x30
 11055 1003 9F       		.byte	0x9f
 11056 1004 C8000000 		.4byte	.LVL257
 11057 1008 D0000000 		.4byte	.LVL259
 11058 100c 0100     		.2byte	0x1
ARM GAS  C:\Users\Grillmo\AppData\Local\Temp\ccN7xt8j.s 			page 195


 11059 100e 53       		.byte	0x53
 11060 100f DC000000 		.4byte	.LVL262
 11061 1013 E2000000 		.4byte	.LVL263
 11062 1017 0500     		.2byte	0x5
 11063 1019 73       		.byte	0x73
 11064 101a 00       		.sleb128 0
 11065 101b 40       		.byte	0x40
 11066 101c 21       		.byte	0x21
 11067 101d 9F       		.byte	0x9f
 11068 101e 00000000 		.4byte	0
 11069 1022 00000000 		.4byte	0
 11070              	.LLST105:
 11071 1026 B2000000 		.4byte	.LVL253
 11072 102a C8000000 		.4byte	.LVL257
 11073 102e 0200     		.2byte	0x2
 11074 1030 30       		.byte	0x30
 11075 1031 9F       		.byte	0x9f
 11076 1032 C8000000 		.4byte	.LVL257
 11077 1036 E6000000 		.4byte	.LVL264
 11078 103a 0500     		.2byte	0x5
 11079 103c 76       		.byte	0x76
 11080 103d 00       		.sleb128 0
 11081 103e 34       		.byte	0x34
 11082 103f 24       		.byte	0x24
 11083 1040 9F       		.byte	0x9f
 11084 1041 00000000 		.4byte	0
 11085 1045 00000000 		.4byte	0
 11086              	.LLST106:
 11087 1049 E6000000 		.4byte	.LVL264
 11088 104d FE000000 		.4byte	.LVL265
 11089 1051 0100     		.2byte	0x1
 11090 1053 51       		.byte	0x51
 11091 1054 00000000 		.4byte	0
 11092 1058 00000000 		.4byte	0
 11093              	.LLST107:
 11094 105c E6000000 		.4byte	.LVL264
 11095 1060 FE000000 		.4byte	.LVL265
 11096 1064 0100     		.2byte	0x1
 11097 1066 50       		.byte	0x50
 11098 1067 00000000 		.4byte	0
 11099 106b 00000000 		.4byte	0
 11100              	.LLST108:
 11101 106f 06010000 		.4byte	.LVL266
 11102 1073 36010000 		.4byte	.LVL276
 11103 1077 0100     		.2byte	0x1
 11104 1079 57       		.byte	0x57
 11105 107a 00000000 		.4byte	0
 11106 107e 00000000 		.4byte	0
 11107              	.LLST109:
 11108 1082 06010000 		.4byte	.LVL266
 11109 1086 36010000 		.4byte	.LVL276
 11110 108a 0100     		.2byte	0x1
 11111 108c 54       		.byte	0x54
 11112 108d 00000000 		.4byte	0
 11113 1091 00000000 		.4byte	0
 11114              	.LLST110:
 11115 1095 06010000 		.4byte	.LVL266
ARM GAS  C:\Users\Grillmo\AppData\Local\Temp\ccN7xt8j.s 			page 196


 11116 1099 36010000 		.4byte	.LVL276
 11117 109d 0100     		.2byte	0x1
 11118 109f 56       		.byte	0x56
 11119 10a0 00000000 		.4byte	0
 11120 10a4 00000000 		.4byte	0
 11121              	.LLST111:
 11122 10a8 06010000 		.4byte	.LVL266
 11123 10ac 36010000 		.4byte	.LVL276
 11124 10b0 0100     		.2byte	0x1
 11125 10b2 50       		.byte	0x50
 11126 10b3 00000000 		.4byte	0
 11127 10b7 00000000 		.4byte	0
 11128              	.LLST112:
 11129 10bb 06010000 		.4byte	.LVL266
 11130 10bf 16010000 		.4byte	.LVL268
 11131 10c3 0200     		.2byte	0x2
 11132 10c5 30       		.byte	0x30
 11133 10c6 9F       		.byte	0x9f
 11134 10c7 16010000 		.4byte	.LVL268
 11135 10cb 18010000 		.4byte	.LVL269
 11136 10cf 0100     		.2byte	0x1
 11137 10d1 52       		.byte	0x52
 11138 10d2 18010000 		.4byte	.LVL269
 11139 10d6 1C010000 		.4byte	.LVL270
 11140 10da 0700     		.2byte	0x7
 11141 10dc 72       		.byte	0x72
 11142 10dd 00       		.sleb128 0
 11143 10de 0B       		.byte	0xb
 11144 10df 0CFF     		.2byte	0xff0c
 11145 10e1 1A       		.byte	0x1a
 11146 10e2 9F       		.byte	0x9f
 11147 10e3 2A010000 		.4byte	.LVL272
 11148 10e7 2E010000 		.4byte	.LVL274
 11149 10eb 0600     		.2byte	0x6
 11150 10ed 74       		.byte	0x74
 11151 10ee 00       		.sleb128 0
 11152 10ef 72       		.byte	0x72
 11153 10f0 00       		.sleb128 0
 11154 10f1 21       		.byte	0x21
 11155 10f2 9F       		.byte	0x9f
 11156 10f3 00000000 		.4byte	0
 11157 10f7 00000000 		.4byte	0
 11158              	.LLST113:
 11159 10fb 06010000 		.4byte	.LVL266
 11160 10ff 18010000 		.4byte	.LVL269
 11161 1103 0200     		.2byte	0x2
 11162 1105 30       		.byte	0x30
 11163 1106 9F       		.byte	0x9f
 11164 1107 18010000 		.4byte	.LVL269
 11165 110b 20010000 		.4byte	.LVL271
 11166 110f 0100     		.2byte	0x1
 11167 1111 53       		.byte	0x53
 11168 1112 2C010000 		.4byte	.LVL273
 11169 1116 32010000 		.4byte	.LVL275
 11170 111a 0700     		.2byte	0x7
 11171 111c 73       		.byte	0x73
 11172 111d 00       		.sleb128 0
ARM GAS  C:\Users\Grillmo\AppData\Local\Temp\ccN7xt8j.s 			page 197


 11173 111e 0A       		.byte	0xa
 11174 111f 0001     		.2byte	0x100
 11175 1121 21       		.byte	0x21
 11176 1122 9F       		.byte	0x9f
 11177 1123 00000000 		.4byte	0
 11178 1127 00000000 		.4byte	0
 11179              	.LLST114:
 11180 112b 06010000 		.4byte	.LVL266
 11181 112f 18010000 		.4byte	.LVL269
 11182 1133 0200     		.2byte	0x2
 11183 1135 30       		.byte	0x30
 11184 1136 9F       		.byte	0x9f
 11185 1137 18010000 		.4byte	.LVL269
 11186 113b 36010000 		.4byte	.LVL276
 11187 113f 0500     		.2byte	0x5
 11188 1141 76       		.byte	0x76
 11189 1142 00       		.sleb128 0
 11190 1143 38       		.byte	0x38
 11191 1144 24       		.byte	0x24
 11192 1145 9F       		.byte	0x9f
 11193 1146 00000000 		.4byte	0
 11194 114a 00000000 		.4byte	0
 11195              	.LLST78:
 11196 114e 00000000 		.4byte	.LVL225
 11197 1152 14000000 		.4byte	.LVL226
 11198 1156 0100     		.2byte	0x1
 11199 1158 51       		.byte	0x51
 11200 1159 14000000 		.4byte	.LVL226
 11201 115d 22000000 		.4byte	.LFE161
 11202 1161 0400     		.2byte	0x4
 11203 1163 F3       		.byte	0xf3
 11204 1164 01       		.uleb128 0x1
 11205 1165 51       		.byte	0x51
 11206 1166 9F       		.byte	0x9f
 11207 1167 00000000 		.4byte	0
 11208 116b 00000000 		.4byte	0
 11209              	.LLST79:
 11210 116f 00000000 		.4byte	.LVL225
 11211 1173 16000000 		.4byte	.LVL227
 11212 1177 0100     		.2byte	0x1
 11213 1179 52       		.byte	0x52
 11214 117a 16000000 		.4byte	.LVL227
 11215 117e 22000000 		.4byte	.LFE161
 11216 1182 0400     		.2byte	0x4
 11217 1184 F3       		.byte	0xf3
 11218 1185 01       		.uleb128 0x1
 11219 1186 52       		.byte	0x52
 11220 1187 9F       		.byte	0x9f
 11221 1188 00000000 		.4byte	0
 11222 118c 00000000 		.4byte	0
 11223              	.LLST80:
 11224 1190 00000000 		.4byte	.LVL225
 11225 1194 14000000 		.4byte	.LVL226
 11226 1198 0500     		.2byte	0x5
 11227 119a 34       		.byte	0x34
 11228 119b 71       		.byte	0x71
 11229 119c 00       		.sleb128 0
ARM GAS  C:\Users\Grillmo\AppData\Local\Temp\ccN7xt8j.s 			page 198


 11230 119d 24       		.byte	0x24
 11231 119e 9F       		.byte	0x9f
 11232 119f 14000000 		.4byte	.LVL226
 11233 11a3 22000000 		.4byte	.LFE161
 11234 11a7 0600     		.2byte	0x6
 11235 11a9 34       		.byte	0x34
 11236 11aa F3       		.byte	0xf3
 11237 11ab 01       		.uleb128 0x1
 11238 11ac 51       		.byte	0x51
 11239 11ad 24       		.byte	0x24
 11240 11ae 9F       		.byte	0x9f
 11241 11af 00000000 		.4byte	0
 11242 11b3 00000000 		.4byte	0
 11243              	.LLST75:
 11244 11b7 00000000 		.4byte	.LVL222
 11245 11bb 14000000 		.4byte	.LVL223
 11246 11bf 0100     		.2byte	0x1
 11247 11c1 51       		.byte	0x51
 11248 11c2 14000000 		.4byte	.LVL223
 11249 11c6 22000000 		.4byte	.LFE160
 11250 11ca 0400     		.2byte	0x4
 11251 11cc F3       		.byte	0xf3
 11252 11cd 01       		.uleb128 0x1
 11253 11ce 51       		.byte	0x51
 11254 11cf 9F       		.byte	0x9f
 11255 11d0 00000000 		.4byte	0
 11256 11d4 00000000 		.4byte	0
 11257              	.LLST76:
 11258 11d8 00000000 		.4byte	.LVL222
 11259 11dc 16000000 		.4byte	.LVL224
 11260 11e0 0100     		.2byte	0x1
 11261 11e2 52       		.byte	0x52
 11262 11e3 16000000 		.4byte	.LVL224
 11263 11e7 22000000 		.4byte	.LFE160
 11264 11eb 0400     		.2byte	0x4
 11265 11ed F3       		.byte	0xf3
 11266 11ee 01       		.uleb128 0x1
 11267 11ef 52       		.byte	0x52
 11268 11f0 9F       		.byte	0x9f
 11269 11f1 00000000 		.4byte	0
 11270 11f5 00000000 		.4byte	0
 11271              	.LLST77:
 11272 11f9 00000000 		.4byte	.LVL222
 11273 11fd 14000000 		.4byte	.LVL223
 11274 1201 0500     		.2byte	0x5
 11275 1203 31       		.byte	0x31
 11276 1204 71       		.byte	0x71
 11277 1205 00       		.sleb128 0
 11278 1206 24       		.byte	0x24
 11279 1207 9F       		.byte	0x9f
 11280 1208 14000000 		.4byte	.LVL223
 11281 120c 22000000 		.4byte	.LFE160
 11282 1210 0600     		.2byte	0x6
 11283 1212 31       		.byte	0x31
 11284 1213 F3       		.byte	0xf3
 11285 1214 01       		.uleb128 0x1
 11286 1215 51       		.byte	0x51
ARM GAS  C:\Users\Grillmo\AppData\Local\Temp\ccN7xt8j.s 			page 199


 11287 1216 24       		.byte	0x24
 11288 1217 9F       		.byte	0x9f
 11289 1218 00000000 		.4byte	0
 11290 121c 00000000 		.4byte	0
 11291              	.LLST73:
 11292 1220 00000000 		.4byte	.LVL218
 11293 1224 0C000000 		.4byte	.LVL221
 11294 1228 0100     		.2byte	0x1
 11295 122a 51       		.byte	0x51
 11296 122b 0C000000 		.4byte	.LVL221
 11297 122f 12000000 		.4byte	.LFE159
 11298 1233 0400     		.2byte	0x4
 11299 1235 F3       		.byte	0xf3
 11300 1236 01       		.uleb128 0x1
 11301 1237 51       		.byte	0x51
 11302 1238 9F       		.byte	0x9f
 11303 1239 00000000 		.4byte	0
 11304 123d 00000000 		.4byte	0
 11305              	.LLST74:
 11306 1241 00000000 		.4byte	.LVL218
 11307 1245 02000000 		.4byte	.LVL219
 11308 1249 0200     		.2byte	0x2
 11309 124b 30       		.byte	0x30
 11310 124c 9F       		.byte	0x9f
 11311 124d 02000000 		.4byte	.LVL219
 11312 1251 08000000 		.4byte	.LVL220
 11313 1255 0100     		.2byte	0x1
 11314 1257 52       		.byte	0x52
 11315 1258 08000000 		.4byte	.LVL220
 11316 125c 0C000000 		.4byte	.LVL221
 11317 1260 0800     		.2byte	0x8
 11318 1262 71       		.byte	0x71
 11319 1263 00       		.sleb128 0
 11320 1264 3C       		.byte	0x3c
 11321 1265 24       		.byte	0x24
 11322 1266 73       		.byte	0x73
 11323 1267 00       		.sleb128 0
 11324 1268 21       		.byte	0x21
 11325 1269 9F       		.byte	0x9f
 11326 126a 0C000000 		.4byte	.LVL221
 11327 126e 12000000 		.4byte	.LFE159
 11328 1272 0900     		.2byte	0x9
 11329 1274 F3       		.byte	0xf3
 11330 1275 01       		.uleb128 0x1
 11331 1276 51       		.byte	0x51
 11332 1277 3C       		.byte	0x3c
 11333 1278 24       		.byte	0x24
 11334 1279 73       		.byte	0x73
 11335 127a 00       		.sleb128 0
 11336 127b 21       		.byte	0x21
 11337 127c 9F       		.byte	0x9f
 11338 127d 00000000 		.4byte	0
 11339 1281 00000000 		.4byte	0
 11340              	.LLST71:
 11341 1285 00000000 		.4byte	.LVL214
 11342 1289 0C000000 		.4byte	.LVL217
 11343 128d 0100     		.2byte	0x1
ARM GAS  C:\Users\Grillmo\AppData\Local\Temp\ccN7xt8j.s 			page 200


 11344 128f 51       		.byte	0x51
 11345 1290 0C000000 		.4byte	.LVL217
 11346 1294 12000000 		.4byte	.LFE158
 11347 1298 0400     		.2byte	0x4
 11348 129a F3       		.byte	0xf3
 11349 129b 01       		.uleb128 0x1
 11350 129c 51       		.byte	0x51
 11351 129d 9F       		.byte	0x9f
 11352 129e 00000000 		.4byte	0
 11353 12a2 00000000 		.4byte	0
 11354              	.LLST72:
 11355 12a6 00000000 		.4byte	.LVL214
 11356 12aa 02000000 		.4byte	.LVL215
 11357 12ae 0200     		.2byte	0x2
 11358 12b0 30       		.byte	0x30
 11359 12b1 9F       		.byte	0x9f
 11360 12b2 02000000 		.4byte	.LVL215
 11361 12b6 08000000 		.4byte	.LVL216
 11362 12ba 0100     		.2byte	0x1
 11363 12bc 52       		.byte	0x52
 11364 12bd 08000000 		.4byte	.LVL216
 11365 12c1 0C000000 		.4byte	.LVL217
 11366 12c5 0800     		.2byte	0x8
 11367 12c7 71       		.byte	0x71
 11368 12c8 00       		.sleb128 0
 11369 12c9 38       		.byte	0x38
 11370 12ca 24       		.byte	0x24
 11371 12cb 73       		.byte	0x73
 11372 12cc 00       		.sleb128 0
 11373 12cd 21       		.byte	0x21
 11374 12ce 9F       		.byte	0x9f
 11375 12cf 0C000000 		.4byte	.LVL217
 11376 12d3 12000000 		.4byte	.LFE158
 11377 12d7 0900     		.2byte	0x9
 11378 12d9 F3       		.byte	0xf3
 11379 12da 01       		.uleb128 0x1
 11380 12db 51       		.byte	0x51
 11381 12dc 38       		.byte	0x38
 11382 12dd 24       		.byte	0x24
 11383 12de 73       		.byte	0x73
 11384 12df 00       		.sleb128 0
 11385 12e0 21       		.byte	0x21
 11386 12e1 9F       		.byte	0x9f
 11387 12e2 00000000 		.4byte	0
 11388 12e6 00000000 		.4byte	0
 11389              	.LLST69:
 11390 12ea 00000000 		.4byte	.LVL210
 11391 12ee 0C000000 		.4byte	.LVL213
 11392 12f2 0100     		.2byte	0x1
 11393 12f4 51       		.byte	0x51
 11394 12f5 0C000000 		.4byte	.LVL213
 11395 12f9 12000000 		.4byte	.LFE157
 11396 12fd 0400     		.2byte	0x4
 11397 12ff F3       		.byte	0xf3
 11398 1300 01       		.uleb128 0x1
 11399 1301 51       		.byte	0x51
 11400 1302 9F       		.byte	0x9f
ARM GAS  C:\Users\Grillmo\AppData\Local\Temp\ccN7xt8j.s 			page 201


 11401 1303 00000000 		.4byte	0
 11402 1307 00000000 		.4byte	0
 11403              	.LLST70:
 11404 130b 00000000 		.4byte	.LVL210
 11405 130f 02000000 		.4byte	.LVL211
 11406 1313 0200     		.2byte	0x2
 11407 1315 30       		.byte	0x30
 11408 1316 9F       		.byte	0x9f
 11409 1317 02000000 		.4byte	.LVL211
 11410 131b 08000000 		.4byte	.LVL212
 11411 131f 0100     		.2byte	0x1
 11412 1321 52       		.byte	0x52
 11413 1322 08000000 		.4byte	.LVL212
 11414 1326 0C000000 		.4byte	.LVL213
 11415 132a 0800     		.2byte	0x8
 11416 132c 71       		.byte	0x71
 11417 132d 00       		.sleb128 0
 11418 132e 38       		.byte	0x38
 11419 132f 24       		.byte	0x24
 11420 1330 73       		.byte	0x73
 11421 1331 00       		.sleb128 0
 11422 1332 21       		.byte	0x21
 11423 1333 9F       		.byte	0x9f
 11424 1334 0C000000 		.4byte	.LVL213
 11425 1338 12000000 		.4byte	.LFE157
 11426 133c 0900     		.2byte	0x9
 11427 133e F3       		.byte	0xf3
 11428 133f 01       		.uleb128 0x1
 11429 1340 51       		.byte	0x51
 11430 1341 38       		.byte	0x38
 11431 1342 24       		.byte	0x24
 11432 1343 73       		.byte	0x73
 11433 1344 00       		.sleb128 0
 11434 1345 21       		.byte	0x21
 11435 1346 9F       		.byte	0x9f
 11436 1347 00000000 		.4byte	0
 11437 134b 00000000 		.4byte	0
 11438              	.LLST67:
 11439 134f 00000000 		.4byte	.LVL206
 11440 1353 0C000000 		.4byte	.LVL209
 11441 1357 0100     		.2byte	0x1
 11442 1359 51       		.byte	0x51
 11443 135a 0C000000 		.4byte	.LVL209
 11444 135e 12000000 		.4byte	.LFE156
 11445 1362 0400     		.2byte	0x4
 11446 1364 F3       		.byte	0xf3
 11447 1365 01       		.uleb128 0x1
 11448 1366 51       		.byte	0x51
 11449 1367 9F       		.byte	0x9f
 11450 1368 00000000 		.4byte	0
 11451 136c 00000000 		.4byte	0
 11452              	.LLST68:
 11453 1370 00000000 		.4byte	.LVL206
 11454 1374 02000000 		.4byte	.LVL207
 11455 1378 0200     		.2byte	0x2
 11456 137a 30       		.byte	0x30
 11457 137b 9F       		.byte	0x9f
ARM GAS  C:\Users\Grillmo\AppData\Local\Temp\ccN7xt8j.s 			page 202


 11458 137c 02000000 		.4byte	.LVL207
 11459 1380 08000000 		.4byte	.LVL208
 11460 1384 0100     		.2byte	0x1
 11461 1386 52       		.byte	0x52
 11462 1387 08000000 		.4byte	.LVL208
 11463 138b 0C000000 		.4byte	.LVL209
 11464 138f 0800     		.2byte	0x8
 11465 1391 71       		.byte	0x71
 11466 1392 00       		.sleb128 0
 11467 1393 34       		.byte	0x34
 11468 1394 24       		.byte	0x24
 11469 1395 73       		.byte	0x73
 11470 1396 00       		.sleb128 0
 11471 1397 21       		.byte	0x21
 11472 1398 9F       		.byte	0x9f
 11473 1399 0C000000 		.4byte	.LVL209
 11474 139d 12000000 		.4byte	.LFE156
 11475 13a1 0900     		.2byte	0x9
 11476 13a3 F3       		.byte	0xf3
 11477 13a4 01       		.uleb128 0x1
 11478 13a5 51       		.byte	0x51
 11479 13a6 34       		.byte	0x34
 11480 13a7 24       		.byte	0x24
 11481 13a8 73       		.byte	0x73
 11482 13a9 00       		.sleb128 0
 11483 13aa 21       		.byte	0x21
 11484 13ab 9F       		.byte	0x9f
 11485 13ac 00000000 		.4byte	0
 11486 13b0 00000000 		.4byte	0
 11487              	.LLST65:
 11488 13b4 00000000 		.4byte	.LVL202
 11489 13b8 0C000000 		.4byte	.LVL205
 11490 13bc 0100     		.2byte	0x1
 11491 13be 51       		.byte	0x51
 11492 13bf 0C000000 		.4byte	.LVL205
 11493 13c3 12000000 		.4byte	.LFE155
 11494 13c7 0400     		.2byte	0x4
 11495 13c9 F3       		.byte	0xf3
 11496 13ca 01       		.uleb128 0x1
 11497 13cb 51       		.byte	0x51
 11498 13cc 9F       		.byte	0x9f
 11499 13cd 00000000 		.4byte	0
 11500 13d1 00000000 		.4byte	0
 11501              	.LLST66:
 11502 13d5 00000000 		.4byte	.LVL202
 11503 13d9 02000000 		.4byte	.LVL203
 11504 13dd 0200     		.2byte	0x2
 11505 13df 30       		.byte	0x30
 11506 13e0 9F       		.byte	0x9f
 11507 13e1 02000000 		.4byte	.LVL203
 11508 13e5 08000000 		.4byte	.LVL204
 11509 13e9 0100     		.2byte	0x1
 11510 13eb 52       		.byte	0x52
 11511 13ec 08000000 		.4byte	.LVL204
 11512 13f0 0C000000 		.4byte	.LVL205
 11513 13f4 0800     		.2byte	0x8
 11514 13f6 71       		.byte	0x71
ARM GAS  C:\Users\Grillmo\AppData\Local\Temp\ccN7xt8j.s 			page 203


 11515 13f7 00       		.sleb128 0
 11516 13f8 34       		.byte	0x34
 11517 13f9 24       		.byte	0x24
 11518 13fa 73       		.byte	0x73
 11519 13fb 00       		.sleb128 0
 11520 13fc 21       		.byte	0x21
 11521 13fd 9F       		.byte	0x9f
 11522 13fe 0C000000 		.4byte	.LVL205
 11523 1402 12000000 		.4byte	.LFE155
 11524 1406 0900     		.2byte	0x9
 11525 1408 F3       		.byte	0xf3
 11526 1409 01       		.uleb128 0x1
 11527 140a 51       		.byte	0x51
 11528 140b 34       		.byte	0x34
 11529 140c 24       		.byte	0x24
 11530 140d 73       		.byte	0x73
 11531 140e 00       		.sleb128 0
 11532 140f 21       		.byte	0x21
 11533 1410 9F       		.byte	0x9f
 11534 1411 00000000 		.4byte	0
 11535 1415 00000000 		.4byte	0
 11536              	.LLST63:
 11537 1419 00000000 		.4byte	.LVL198
 11538 141d 0A000000 		.4byte	.LVL201
 11539 1421 0100     		.2byte	0x1
 11540 1423 51       		.byte	0x51
 11541 1424 0A000000 		.4byte	.LVL201
 11542 1428 0E000000 		.4byte	.LFE154
 11543 142c 0400     		.2byte	0x4
 11544 142e F3       		.byte	0xf3
 11545 142f 01       		.uleb128 0x1
 11546 1430 51       		.byte	0x51
 11547 1431 9F       		.byte	0x9f
 11548 1432 00000000 		.4byte	0
 11549 1436 00000000 		.4byte	0
 11550              	.LLST64:
 11551 143a 00000000 		.4byte	.LVL198
 11552 143e 02000000 		.4byte	.LVL199
 11553 1442 0200     		.2byte	0x2
 11554 1444 30       		.byte	0x30
 11555 1445 9F       		.byte	0x9f
 11556 1446 02000000 		.4byte	.LVL199
 11557 144a 08000000 		.4byte	.LVL200
 11558 144e 0100     		.2byte	0x1
 11559 1450 52       		.byte	0x52
 11560 1451 08000000 		.4byte	.LVL200
 11561 1455 0A000000 		.4byte	.LVL201
 11562 1459 0600     		.2byte	0x6
 11563 145b 71       		.byte	0x71
 11564 145c 00       		.sleb128 0
 11565 145d 73       		.byte	0x73
 11566 145e 00       		.sleb128 0
 11567 145f 21       		.byte	0x21
 11568 1460 9F       		.byte	0x9f
 11569 1461 0A000000 		.4byte	.LVL201
 11570 1465 0E000000 		.4byte	.LFE154
 11571 1469 0700     		.2byte	0x7
ARM GAS  C:\Users\Grillmo\AppData\Local\Temp\ccN7xt8j.s 			page 204


 11572 146b F3       		.byte	0xf3
 11573 146c 01       		.uleb128 0x1
 11574 146d 51       		.byte	0x51
 11575 146e 73       		.byte	0x73
 11576 146f 00       		.sleb128 0
 11577 1470 21       		.byte	0x21
 11578 1471 9F       		.byte	0x9f
 11579 1472 00000000 		.4byte	0
 11580 1476 00000000 		.4byte	0
 11581              	.LLST61:
 11582 147a 00000000 		.4byte	.LVL194
 11583 147e 0A000000 		.4byte	.LVL197
 11584 1482 0100     		.2byte	0x1
 11585 1484 51       		.byte	0x51
 11586 1485 0A000000 		.4byte	.LVL197
 11587 1489 0E000000 		.4byte	.LFE153
 11588 148d 0400     		.2byte	0x4
 11589 148f F3       		.byte	0xf3
 11590 1490 01       		.uleb128 0x1
 11591 1491 51       		.byte	0x51
 11592 1492 9F       		.byte	0x9f
 11593 1493 00000000 		.4byte	0
 11594 1497 00000000 		.4byte	0
 11595              	.LLST62:
 11596 149b 00000000 		.4byte	.LVL194
 11597 149f 02000000 		.4byte	.LVL195
 11598 14a3 0200     		.2byte	0x2
 11599 14a5 30       		.byte	0x30
 11600 14a6 9F       		.byte	0x9f
 11601 14a7 02000000 		.4byte	.LVL195
 11602 14ab 08000000 		.4byte	.LVL196
 11603 14af 0100     		.2byte	0x1
 11604 14b1 52       		.byte	0x52
 11605 14b2 08000000 		.4byte	.LVL196
 11606 14b6 0A000000 		.4byte	.LVL197
 11607 14ba 0600     		.2byte	0x6
 11608 14bc 71       		.byte	0x71
 11609 14bd 00       		.sleb128 0
 11610 14be 73       		.byte	0x73
 11611 14bf 00       		.sleb128 0
 11612 14c0 21       		.byte	0x21
 11613 14c1 9F       		.byte	0x9f
 11614 14c2 0A000000 		.4byte	.LVL197
 11615 14c6 0E000000 		.4byte	.LFE153
 11616 14ca 0700     		.2byte	0x7
 11617 14cc F3       		.byte	0xf3
 11618 14cd 01       		.uleb128 0x1
 11619 14ce 51       		.byte	0x51
 11620 14cf 73       		.byte	0x73
 11621 14d0 00       		.sleb128 0
 11622 14d1 21       		.byte	0x21
 11623 14d2 9F       		.byte	0x9f
 11624 14d3 00000000 		.4byte	0
 11625 14d7 00000000 		.4byte	0
 11626              	.LLST59:
 11627 14db 00000000 		.4byte	.LVL190
 11628 14df 0A000000 		.4byte	.LVL193
ARM GAS  C:\Users\Grillmo\AppData\Local\Temp\ccN7xt8j.s 			page 205


 11629 14e3 0100     		.2byte	0x1
 11630 14e5 51       		.byte	0x51
 11631 14e6 0A000000 		.4byte	.LVL193
 11632 14ea 10000000 		.4byte	.LFE152
 11633 14ee 0400     		.2byte	0x4
 11634 14f0 F3       		.byte	0xf3
 11635 14f1 01       		.uleb128 0x1
 11636 14f2 51       		.byte	0x51
 11637 14f3 9F       		.byte	0x9f
 11638 14f4 00000000 		.4byte	0
 11639 14f8 00000000 		.4byte	0
 11640              	.LLST60:
 11641 14fc 00000000 		.4byte	.LVL190
 11642 1500 02000000 		.4byte	.LVL191
 11643 1504 0200     		.2byte	0x2
 11644 1506 30       		.byte	0x30
 11645 1507 9F       		.byte	0x9f
 11646 1508 02000000 		.4byte	.LVL191
 11647 150c 06000000 		.4byte	.LVL192
 11648 1510 0100     		.2byte	0x1
 11649 1512 53       		.byte	0x53
 11650 1513 06000000 		.4byte	.LVL192
 11651 1517 0A000000 		.4byte	.LVL193
 11652 151b 0800     		.2byte	0x8
 11653 151d 71       		.byte	0x71
 11654 151e 00       		.sleb128 0
 11655 151f 38       		.byte	0x38
 11656 1520 24       		.byte	0x24
 11657 1521 73       		.byte	0x73
 11658 1522 00       		.sleb128 0
 11659 1523 21       		.byte	0x21
 11660 1524 9F       		.byte	0x9f
 11661 1525 0A000000 		.4byte	.LVL193
 11662 1529 10000000 		.4byte	.LFE152
 11663 152d 0900     		.2byte	0x9
 11664 152f F3       		.byte	0xf3
 11665 1530 01       		.uleb128 0x1
 11666 1531 51       		.byte	0x51
 11667 1532 38       		.byte	0x38
 11668 1533 24       		.byte	0x24
 11669 1534 73       		.byte	0x73
 11670 1535 00       		.sleb128 0
 11671 1536 21       		.byte	0x21
 11672 1537 9F       		.byte	0x9f
 11673 1538 00000000 		.4byte	0
 11674 153c 00000000 		.4byte	0
 11675              	.LLST57:
 11676 1540 00000000 		.4byte	.LVL186
 11677 1544 0A000000 		.4byte	.LVL189
 11678 1548 0100     		.2byte	0x1
 11679 154a 51       		.byte	0x51
 11680 154b 0A000000 		.4byte	.LVL189
 11681 154f 0E000000 		.4byte	.LFE151
 11682 1553 0400     		.2byte	0x4
 11683 1555 F3       		.byte	0xf3
 11684 1556 01       		.uleb128 0x1
 11685 1557 51       		.byte	0x51
ARM GAS  C:\Users\Grillmo\AppData\Local\Temp\ccN7xt8j.s 			page 206


 11686 1558 9F       		.byte	0x9f
 11687 1559 00000000 		.4byte	0
 11688 155d 00000000 		.4byte	0
 11689              	.LLST58:
 11690 1561 00000000 		.4byte	.LVL186
 11691 1565 02000000 		.4byte	.LVL187
 11692 1569 0200     		.2byte	0x2
 11693 156b 30       		.byte	0x30
 11694 156c 9F       		.byte	0x9f
 11695 156d 02000000 		.4byte	.LVL187
 11696 1571 08000000 		.4byte	.LVL188
 11697 1575 0100     		.2byte	0x1
 11698 1577 52       		.byte	0x52
 11699 1578 08000000 		.4byte	.LVL188
 11700 157c 0A000000 		.4byte	.LVL189
 11701 1580 0600     		.2byte	0x6
 11702 1582 71       		.byte	0x71
 11703 1583 00       		.sleb128 0
 11704 1584 73       		.byte	0x73
 11705 1585 00       		.sleb128 0
 11706 1586 21       		.byte	0x21
 11707 1587 9F       		.byte	0x9f
 11708 1588 0A000000 		.4byte	.LVL189
 11709 158c 0E000000 		.4byte	.LFE151
 11710 1590 0700     		.2byte	0x7
 11711 1592 F3       		.byte	0xf3
 11712 1593 01       		.uleb128 0x1
 11713 1594 51       		.byte	0x51
 11714 1595 73       		.byte	0x73
 11715 1596 00       		.sleb128 0
 11716 1597 21       		.byte	0x21
 11717 1598 9F       		.byte	0x9f
 11718 1599 00000000 		.4byte	0
 11719 159d 00000000 		.4byte	0
 11720              	.LLST55:
 11721 15a1 00000000 		.4byte	.LVL182
 11722 15a5 0A000000 		.4byte	.LVL185
 11723 15a9 0100     		.2byte	0x1
 11724 15ab 51       		.byte	0x51
 11725 15ac 0A000000 		.4byte	.LVL185
 11726 15b0 10000000 		.4byte	.LFE150
 11727 15b4 0400     		.2byte	0x4
 11728 15b6 F3       		.byte	0xf3
 11729 15b7 01       		.uleb128 0x1
 11730 15b8 51       		.byte	0x51
 11731 15b9 9F       		.byte	0x9f
 11732 15ba 00000000 		.4byte	0
 11733 15be 00000000 		.4byte	0
 11734              	.LLST56:
 11735 15c2 00000000 		.4byte	.LVL182
 11736 15c6 02000000 		.4byte	.LVL183
 11737 15ca 0200     		.2byte	0x2
 11738 15cc 30       		.byte	0x30
 11739 15cd 9F       		.byte	0x9f
 11740 15ce 02000000 		.4byte	.LVL183
 11741 15d2 06000000 		.4byte	.LVL184
 11742 15d6 0100     		.2byte	0x1
ARM GAS  C:\Users\Grillmo\AppData\Local\Temp\ccN7xt8j.s 			page 207


 11743 15d8 53       		.byte	0x53
 11744 15d9 06000000 		.4byte	.LVL184
 11745 15dd 0A000000 		.4byte	.LVL185
 11746 15e1 0800     		.2byte	0x8
 11747 15e3 71       		.byte	0x71
 11748 15e4 00       		.sleb128 0
 11749 15e5 38       		.byte	0x38
 11750 15e6 24       		.byte	0x24
 11751 15e7 73       		.byte	0x73
 11752 15e8 00       		.sleb128 0
 11753 15e9 21       		.byte	0x21
 11754 15ea 9F       		.byte	0x9f
 11755 15eb 0A000000 		.4byte	.LVL185
 11756 15ef 10000000 		.4byte	.LFE150
 11757 15f3 0900     		.2byte	0x9
 11758 15f5 F3       		.byte	0xf3
 11759 15f6 01       		.uleb128 0x1
 11760 15f7 51       		.byte	0x51
 11761 15f8 38       		.byte	0x38
 11762 15f9 24       		.byte	0x24
 11763 15fa 73       		.byte	0x73
 11764 15fb 00       		.sleb128 0
 11765 15fc 21       		.byte	0x21
 11766 15fd 9F       		.byte	0x9f
 11767 15fe 00000000 		.4byte	0
 11768 1602 00000000 		.4byte	0
 11769              	.LLST53:
 11770 1606 00000000 		.4byte	.LVL178
 11771 160a 0A000000 		.4byte	.LVL181
 11772 160e 0100     		.2byte	0x1
 11773 1610 51       		.byte	0x51
 11774 1611 0A000000 		.4byte	.LVL181
 11775 1615 0E000000 		.4byte	.LFE149
 11776 1619 0400     		.2byte	0x4
 11777 161b F3       		.byte	0xf3
 11778 161c 01       		.uleb128 0x1
 11779 161d 51       		.byte	0x51
 11780 161e 9F       		.byte	0x9f
 11781 161f 00000000 		.4byte	0
 11782 1623 00000000 		.4byte	0
 11783              	.LLST54:
 11784 1627 00000000 		.4byte	.LVL178
 11785 162b 02000000 		.4byte	.LVL179
 11786 162f 0200     		.2byte	0x2
 11787 1631 30       		.byte	0x30
 11788 1632 9F       		.byte	0x9f
 11789 1633 02000000 		.4byte	.LVL179
 11790 1637 08000000 		.4byte	.LVL180
 11791 163b 0100     		.2byte	0x1
 11792 163d 52       		.byte	0x52
 11793 163e 08000000 		.4byte	.LVL180
 11794 1642 0A000000 		.4byte	.LVL181
 11795 1646 0600     		.2byte	0x6
 11796 1648 71       		.byte	0x71
 11797 1649 00       		.sleb128 0
 11798 164a 73       		.byte	0x73
 11799 164b 00       		.sleb128 0
ARM GAS  C:\Users\Grillmo\AppData\Local\Temp\ccN7xt8j.s 			page 208


 11800 164c 21       		.byte	0x21
 11801 164d 9F       		.byte	0x9f
 11802 164e 0A000000 		.4byte	.LVL181
 11803 1652 0E000000 		.4byte	.LFE149
 11804 1656 0700     		.2byte	0x7
 11805 1658 F3       		.byte	0xf3
 11806 1659 01       		.uleb128 0x1
 11807 165a 51       		.byte	0x51
 11808 165b 73       		.byte	0x73
 11809 165c 00       		.sleb128 0
 11810 165d 21       		.byte	0x21
 11811 165e 9F       		.byte	0x9f
 11812 165f 00000000 		.4byte	0
 11813 1663 00000000 		.4byte	0
 11814              	.LLST51:
 11815 1667 00000000 		.4byte	.LVL174
 11816 166b 0C000000 		.4byte	.LVL177
 11817 166f 0100     		.2byte	0x1
 11818 1671 51       		.byte	0x51
 11819 1672 0C000000 		.4byte	.LVL177
 11820 1676 12000000 		.4byte	.LFE148
 11821 167a 0400     		.2byte	0x4
 11822 167c F3       		.byte	0xf3
 11823 167d 01       		.uleb128 0x1
 11824 167e 51       		.byte	0x51
 11825 167f 9F       		.byte	0x9f
 11826 1680 00000000 		.4byte	0
 11827 1684 00000000 		.4byte	0
 11828              	.LLST52:
 11829 1688 00000000 		.4byte	.LVL174
 11830 168c 02000000 		.4byte	.LVL175
 11831 1690 0200     		.2byte	0x2
 11832 1692 30       		.byte	0x30
 11833 1693 9F       		.byte	0x9f
 11834 1694 02000000 		.4byte	.LVL175
 11835 1698 08000000 		.4byte	.LVL176
 11836 169c 0100     		.2byte	0x1
 11837 169e 52       		.byte	0x52
 11838 169f 08000000 		.4byte	.LVL176
 11839 16a3 0C000000 		.4byte	.LVL177
 11840 16a7 0800     		.2byte	0x8
 11841 16a9 71       		.byte	0x71
 11842 16aa 00       		.sleb128 0
 11843 16ab 38       		.byte	0x38
 11844 16ac 24       		.byte	0x24
 11845 16ad 73       		.byte	0x73
 11846 16ae 00       		.sleb128 0
 11847 16af 21       		.byte	0x21
 11848 16b0 9F       		.byte	0x9f
 11849 16b1 0C000000 		.4byte	.LVL177
 11850 16b5 12000000 		.4byte	.LFE148
 11851 16b9 0900     		.2byte	0x9
 11852 16bb F3       		.byte	0xf3
 11853 16bc 01       		.uleb128 0x1
 11854 16bd 51       		.byte	0x51
 11855 16be 38       		.byte	0x38
 11856 16bf 24       		.byte	0x24
ARM GAS  C:\Users\Grillmo\AppData\Local\Temp\ccN7xt8j.s 			page 209


 11857 16c0 73       		.byte	0x73
 11858 16c1 00       		.sleb128 0
 11859 16c2 21       		.byte	0x21
 11860 16c3 9F       		.byte	0x9f
 11861 16c4 00000000 		.4byte	0
 11862 16c8 00000000 		.4byte	0
 11863              	.LLST49:
 11864 16cc 00000000 		.4byte	.LVL170
 11865 16d0 0A000000 		.4byte	.LVL173
 11866 16d4 0100     		.2byte	0x1
 11867 16d6 51       		.byte	0x51
 11868 16d7 0A000000 		.4byte	.LVL173
 11869 16db 0E000000 		.4byte	.LFE147
 11870 16df 0400     		.2byte	0x4
 11871 16e1 F3       		.byte	0xf3
 11872 16e2 01       		.uleb128 0x1
 11873 16e3 51       		.byte	0x51
 11874 16e4 9F       		.byte	0x9f
 11875 16e5 00000000 		.4byte	0
 11876 16e9 00000000 		.4byte	0
 11877              	.LLST50:
 11878 16ed 00000000 		.4byte	.LVL170
 11879 16f1 02000000 		.4byte	.LVL171
 11880 16f5 0200     		.2byte	0x2
 11881 16f7 30       		.byte	0x30
 11882 16f8 9F       		.byte	0x9f
 11883 16f9 02000000 		.4byte	.LVL171
 11884 16fd 08000000 		.4byte	.LVL172
 11885 1701 0100     		.2byte	0x1
 11886 1703 52       		.byte	0x52
 11887 1704 08000000 		.4byte	.LVL172
 11888 1708 0A000000 		.4byte	.LVL173
 11889 170c 0600     		.2byte	0x6
 11890 170e 71       		.byte	0x71
 11891 170f 00       		.sleb128 0
 11892 1710 73       		.byte	0x73
 11893 1711 00       		.sleb128 0
 11894 1712 21       		.byte	0x21
 11895 1713 9F       		.byte	0x9f
 11896 1714 0A000000 		.4byte	.LVL173
 11897 1718 0E000000 		.4byte	.LFE147
 11898 171c 0700     		.2byte	0x7
 11899 171e F3       		.byte	0xf3
 11900 171f 01       		.uleb128 0x1
 11901 1720 51       		.byte	0x51
 11902 1721 73       		.byte	0x73
 11903 1722 00       		.sleb128 0
 11904 1723 21       		.byte	0x21
 11905 1724 9F       		.byte	0x9f
 11906 1725 00000000 		.4byte	0
 11907 1729 00000000 		.4byte	0
 11908              	.LLST47:
 11909 172d 00000000 		.4byte	.LVL166
 11910 1731 0C000000 		.4byte	.LVL169
 11911 1735 0100     		.2byte	0x1
 11912 1737 51       		.byte	0x51
 11913 1738 0C000000 		.4byte	.LVL169
ARM GAS  C:\Users\Grillmo\AppData\Local\Temp\ccN7xt8j.s 			page 210


 11914 173c 12000000 		.4byte	.LFE146
 11915 1740 0400     		.2byte	0x4
 11916 1742 F3       		.byte	0xf3
 11917 1743 01       		.uleb128 0x1
 11918 1744 51       		.byte	0x51
 11919 1745 9F       		.byte	0x9f
 11920 1746 00000000 		.4byte	0
 11921 174a 00000000 		.4byte	0
 11922              	.LLST48:
 11923 174e 00000000 		.4byte	.LVL166
 11924 1752 02000000 		.4byte	.LVL167
 11925 1756 0200     		.2byte	0x2
 11926 1758 30       		.byte	0x30
 11927 1759 9F       		.byte	0x9f
 11928 175a 02000000 		.4byte	.LVL167
 11929 175e 08000000 		.4byte	.LVL168
 11930 1762 0100     		.2byte	0x1
 11931 1764 52       		.byte	0x52
 11932 1765 08000000 		.4byte	.LVL168
 11933 1769 0C000000 		.4byte	.LVL169
 11934 176d 0800     		.2byte	0x8
 11935 176f 71       		.byte	0x71
 11936 1770 00       		.sleb128 0
 11937 1771 38       		.byte	0x38
 11938 1772 24       		.byte	0x24
 11939 1773 73       		.byte	0x73
 11940 1774 00       		.sleb128 0
 11941 1775 21       		.byte	0x21
 11942 1776 9F       		.byte	0x9f
 11943 1777 0C000000 		.4byte	.LVL169
 11944 177b 12000000 		.4byte	.LFE146
 11945 177f 0900     		.2byte	0x9
 11946 1781 F3       		.byte	0xf3
 11947 1782 01       		.uleb128 0x1
 11948 1783 51       		.byte	0x51
 11949 1784 38       		.byte	0x38
 11950 1785 24       		.byte	0x24
 11951 1786 73       		.byte	0x73
 11952 1787 00       		.sleb128 0
 11953 1788 21       		.byte	0x21
 11954 1789 9F       		.byte	0x9f
 11955 178a 00000000 		.4byte	0
 11956 178e 00000000 		.4byte	0
 11957              	.LLST45:
 11958 1792 00000000 		.4byte	.LVL162
 11959 1796 0A000000 		.4byte	.LVL165
 11960 179a 0100     		.2byte	0x1
 11961 179c 51       		.byte	0x51
 11962 179d 0A000000 		.4byte	.LVL165
 11963 17a1 0E000000 		.4byte	.LFE145
 11964 17a5 0400     		.2byte	0x4
 11965 17a7 F3       		.byte	0xf3
 11966 17a8 01       		.uleb128 0x1
 11967 17a9 51       		.byte	0x51
 11968 17aa 9F       		.byte	0x9f
 11969 17ab 00000000 		.4byte	0
 11970 17af 00000000 		.4byte	0
ARM GAS  C:\Users\Grillmo\AppData\Local\Temp\ccN7xt8j.s 			page 211


 11971              	.LLST46:
 11972 17b3 00000000 		.4byte	.LVL162
 11973 17b7 02000000 		.4byte	.LVL163
 11974 17bb 0200     		.2byte	0x2
 11975 17bd 30       		.byte	0x30
 11976 17be 9F       		.byte	0x9f
 11977 17bf 02000000 		.4byte	.LVL163
 11978 17c3 08000000 		.4byte	.LVL164
 11979 17c7 0100     		.2byte	0x1
 11980 17c9 52       		.byte	0x52
 11981 17ca 08000000 		.4byte	.LVL164
 11982 17ce 0A000000 		.4byte	.LVL165
 11983 17d2 0600     		.2byte	0x6
 11984 17d4 71       		.byte	0x71
 11985 17d5 00       		.sleb128 0
 11986 17d6 73       		.byte	0x73
 11987 17d7 00       		.sleb128 0
 11988 17d8 21       		.byte	0x21
 11989 17d9 9F       		.byte	0x9f
 11990 17da 0A000000 		.4byte	.LVL165
 11991 17de 0E000000 		.4byte	.LFE145
 11992 17e2 0700     		.2byte	0x7
 11993 17e4 F3       		.byte	0xf3
 11994 17e5 01       		.uleb128 0x1
 11995 17e6 51       		.byte	0x51
 11996 17e7 73       		.byte	0x73
 11997 17e8 00       		.sleb128 0
 11998 17e9 21       		.byte	0x21
 11999 17ea 9F       		.byte	0x9f
 12000 17eb 00000000 		.4byte	0
 12001 17ef 00000000 		.4byte	0
 12002              	.LLST43:
 12003 17f3 00000000 		.4byte	.LVL158
 12004 17f7 0C000000 		.4byte	.LVL161
 12005 17fb 0100     		.2byte	0x1
 12006 17fd 51       		.byte	0x51
 12007 17fe 0C000000 		.4byte	.LVL161
 12008 1802 12000000 		.4byte	.LFE144
 12009 1806 0400     		.2byte	0x4
 12010 1808 F3       		.byte	0xf3
 12011 1809 01       		.uleb128 0x1
 12012 180a 51       		.byte	0x51
 12013 180b 9F       		.byte	0x9f
 12014 180c 00000000 		.4byte	0
 12015 1810 00000000 		.4byte	0
 12016              	.LLST44:
 12017 1814 00000000 		.4byte	.LVL158
 12018 1818 02000000 		.4byte	.LVL159
 12019 181c 0200     		.2byte	0x2
 12020 181e 30       		.byte	0x30
 12021 181f 9F       		.byte	0x9f
 12022 1820 02000000 		.4byte	.LVL159
 12023 1824 08000000 		.4byte	.LVL160
 12024 1828 0100     		.2byte	0x1
 12025 182a 52       		.byte	0x52
 12026 182b 08000000 		.4byte	.LVL160
 12027 182f 0C000000 		.4byte	.LVL161
ARM GAS  C:\Users\Grillmo\AppData\Local\Temp\ccN7xt8j.s 			page 212


 12028 1833 0800     		.2byte	0x8
 12029 1835 71       		.byte	0x71
 12030 1836 00       		.sleb128 0
 12031 1837 38       		.byte	0x38
 12032 1838 24       		.byte	0x24
 12033 1839 73       		.byte	0x73
 12034 183a 00       		.sleb128 0
 12035 183b 21       		.byte	0x21
 12036 183c 9F       		.byte	0x9f
 12037 183d 0C000000 		.4byte	.LVL161
 12038 1841 12000000 		.4byte	.LFE144
 12039 1845 0900     		.2byte	0x9
 12040 1847 F3       		.byte	0xf3
 12041 1848 01       		.uleb128 0x1
 12042 1849 51       		.byte	0x51
 12043 184a 38       		.byte	0x38
 12044 184b 24       		.byte	0x24
 12045 184c 73       		.byte	0x73
 12046 184d 00       		.sleb128 0
 12047 184e 21       		.byte	0x21
 12048 184f 9F       		.byte	0x9f
 12049 1850 00000000 		.4byte	0
 12050 1854 00000000 		.4byte	0
 12051              	.LLST41:
 12052 1858 00000000 		.4byte	.LVL154
 12053 185c 0A000000 		.4byte	.LVL157
 12054 1860 0100     		.2byte	0x1
 12055 1862 51       		.byte	0x51
 12056 1863 0A000000 		.4byte	.LVL157
 12057 1867 0E000000 		.4byte	.LFE143
 12058 186b 0400     		.2byte	0x4
 12059 186d F3       		.byte	0xf3
 12060 186e 01       		.uleb128 0x1
 12061 186f 51       		.byte	0x51
 12062 1870 9F       		.byte	0x9f
 12063 1871 00000000 		.4byte	0
 12064 1875 00000000 		.4byte	0
 12065              	.LLST42:
 12066 1879 00000000 		.4byte	.LVL154
 12067 187d 02000000 		.4byte	.LVL155
 12068 1881 0200     		.2byte	0x2
 12069 1883 30       		.byte	0x30
 12070 1884 9F       		.byte	0x9f
 12071 1885 02000000 		.4byte	.LVL155
 12072 1889 08000000 		.4byte	.LVL156
 12073 188d 0100     		.2byte	0x1
 12074 188f 52       		.byte	0x52
 12075 1890 08000000 		.4byte	.LVL156
 12076 1894 0A000000 		.4byte	.LVL157
 12077 1898 0600     		.2byte	0x6
 12078 189a 71       		.byte	0x71
 12079 189b 00       		.sleb128 0
 12080 189c 73       		.byte	0x73
 12081 189d 00       		.sleb128 0
 12082 189e 21       		.byte	0x21
 12083 189f 9F       		.byte	0x9f
 12084 18a0 0A000000 		.4byte	.LVL157
ARM GAS  C:\Users\Grillmo\AppData\Local\Temp\ccN7xt8j.s 			page 213


 12085 18a4 0E000000 		.4byte	.LFE143
 12086 18a8 0700     		.2byte	0x7
 12087 18aa F3       		.byte	0xf3
 12088 18ab 01       		.uleb128 0x1
 12089 18ac 51       		.byte	0x51
 12090 18ad 73       		.byte	0x73
 12091 18ae 00       		.sleb128 0
 12092 18af 21       		.byte	0x21
 12093 18b0 9F       		.byte	0x9f
 12094 18b1 00000000 		.4byte	0
 12095 18b5 00000000 		.4byte	0
 12096              	.LLST39:
 12097 18b9 00000000 		.4byte	.LVL150
 12098 18bd 0C000000 		.4byte	.LVL153
 12099 18c1 0100     		.2byte	0x1
 12100 18c3 51       		.byte	0x51
 12101 18c4 0C000000 		.4byte	.LVL153
 12102 18c8 12000000 		.4byte	.LFE142
 12103 18cc 0400     		.2byte	0x4
 12104 18ce F3       		.byte	0xf3
 12105 18cf 01       		.uleb128 0x1
 12106 18d0 51       		.byte	0x51
 12107 18d1 9F       		.byte	0x9f
 12108 18d2 00000000 		.4byte	0
 12109 18d6 00000000 		.4byte	0
 12110              	.LLST40:
 12111 18da 00000000 		.4byte	.LVL150
 12112 18de 02000000 		.4byte	.LVL151
 12113 18e2 0200     		.2byte	0x2
 12114 18e4 30       		.byte	0x30
 12115 18e5 9F       		.byte	0x9f
 12116 18e6 02000000 		.4byte	.LVL151
 12117 18ea 08000000 		.4byte	.LVL152
 12118 18ee 0100     		.2byte	0x1
 12119 18f0 52       		.byte	0x52
 12120 18f1 08000000 		.4byte	.LVL152
 12121 18f5 0C000000 		.4byte	.LVL153
 12122 18f9 0800     		.2byte	0x8
 12123 18fb 71       		.byte	0x71
 12124 18fc 00       		.sleb128 0
 12125 18fd 38       		.byte	0x38
 12126 18fe 24       		.byte	0x24
 12127 18ff 73       		.byte	0x73
 12128 1900 00       		.sleb128 0
 12129 1901 21       		.byte	0x21
 12130 1902 9F       		.byte	0x9f
 12131 1903 0C000000 		.4byte	.LVL153
 12132 1907 12000000 		.4byte	.LFE142
 12133 190b 0900     		.2byte	0x9
 12134 190d F3       		.byte	0xf3
 12135 190e 01       		.uleb128 0x1
 12136 190f 51       		.byte	0x51
 12137 1910 38       		.byte	0x38
 12138 1911 24       		.byte	0x24
 12139 1912 73       		.byte	0x73
 12140 1913 00       		.sleb128 0
 12141 1914 21       		.byte	0x21
ARM GAS  C:\Users\Grillmo\AppData\Local\Temp\ccN7xt8j.s 			page 214


 12142 1915 9F       		.byte	0x9f
 12143 1916 00000000 		.4byte	0
 12144 191a 00000000 		.4byte	0
 12145              	.LLST37:
 12146 191e 00000000 		.4byte	.LVL146
 12147 1922 0A000000 		.4byte	.LVL149
 12148 1926 0100     		.2byte	0x1
 12149 1928 51       		.byte	0x51
 12150 1929 0A000000 		.4byte	.LVL149
 12151 192d 0E000000 		.4byte	.LFE141
 12152 1931 0400     		.2byte	0x4
 12153 1933 F3       		.byte	0xf3
 12154 1934 01       		.uleb128 0x1
 12155 1935 51       		.byte	0x51
 12156 1936 9F       		.byte	0x9f
 12157 1937 00000000 		.4byte	0
 12158 193b 00000000 		.4byte	0
 12159              	.LLST38:
 12160 193f 00000000 		.4byte	.LVL146
 12161 1943 02000000 		.4byte	.LVL147
 12162 1947 0200     		.2byte	0x2
 12163 1949 30       		.byte	0x30
 12164 194a 9F       		.byte	0x9f
 12165 194b 02000000 		.4byte	.LVL147
 12166 194f 08000000 		.4byte	.LVL148
 12167 1953 0100     		.2byte	0x1
 12168 1955 52       		.byte	0x52
 12169 1956 08000000 		.4byte	.LVL148
 12170 195a 0A000000 		.4byte	.LVL149
 12171 195e 0600     		.2byte	0x6
 12172 1960 71       		.byte	0x71
 12173 1961 00       		.sleb128 0
 12174 1962 73       		.byte	0x73
 12175 1963 00       		.sleb128 0
 12176 1964 21       		.byte	0x21
 12177 1965 9F       		.byte	0x9f
 12178 1966 0A000000 		.4byte	.LVL149
 12179 196a 0E000000 		.4byte	.LFE141
 12180 196e 0700     		.2byte	0x7
 12181 1970 F3       		.byte	0xf3
 12182 1971 01       		.uleb128 0x1
 12183 1972 51       		.byte	0x51
 12184 1973 73       		.byte	0x73
 12185 1974 00       		.sleb128 0
 12186 1975 21       		.byte	0x21
 12187 1976 9F       		.byte	0x9f
 12188 1977 00000000 		.4byte	0
 12189 197b 00000000 		.4byte	0
 12190              	.LLST35:
 12191 197f 00000000 		.4byte	.LVL142
 12192 1983 0C000000 		.4byte	.LVL145
 12193 1987 0100     		.2byte	0x1
 12194 1989 51       		.byte	0x51
 12195 198a 0C000000 		.4byte	.LVL145
 12196 198e 12000000 		.4byte	.LFE140
 12197 1992 0400     		.2byte	0x4
 12198 1994 F3       		.byte	0xf3
ARM GAS  C:\Users\Grillmo\AppData\Local\Temp\ccN7xt8j.s 			page 215


 12199 1995 01       		.uleb128 0x1
 12200 1996 51       		.byte	0x51
 12201 1997 9F       		.byte	0x9f
 12202 1998 00000000 		.4byte	0
 12203 199c 00000000 		.4byte	0
 12204              	.LLST36:
 12205 19a0 00000000 		.4byte	.LVL142
 12206 19a4 02000000 		.4byte	.LVL143
 12207 19a8 0200     		.2byte	0x2
 12208 19aa 30       		.byte	0x30
 12209 19ab 9F       		.byte	0x9f
 12210 19ac 02000000 		.4byte	.LVL143
 12211 19b0 08000000 		.4byte	.LVL144
 12212 19b4 0100     		.2byte	0x1
 12213 19b6 52       		.byte	0x52
 12214 19b7 08000000 		.4byte	.LVL144
 12215 19bb 0C000000 		.4byte	.LVL145
 12216 19bf 0800     		.2byte	0x8
 12217 19c1 71       		.byte	0x71
 12218 19c2 00       		.sleb128 0
 12219 19c3 38       		.byte	0x38
 12220 19c4 24       		.byte	0x24
 12221 19c5 73       		.byte	0x73
 12222 19c6 00       		.sleb128 0
 12223 19c7 21       		.byte	0x21
 12224 19c8 9F       		.byte	0x9f
 12225 19c9 0C000000 		.4byte	.LVL145
 12226 19cd 12000000 		.4byte	.LFE140
 12227 19d1 0900     		.2byte	0x9
 12228 19d3 F3       		.byte	0xf3
 12229 19d4 01       		.uleb128 0x1
 12230 19d5 51       		.byte	0x51
 12231 19d6 38       		.byte	0x38
 12232 19d7 24       		.byte	0x24
 12233 19d8 73       		.byte	0x73
 12234 19d9 00       		.sleb128 0
 12235 19da 21       		.byte	0x21
 12236 19db 9F       		.byte	0x9f
 12237 19dc 00000000 		.4byte	0
 12238 19e0 00000000 		.4byte	0
 12239              	.LLST33:
 12240 19e4 00000000 		.4byte	.LVL138
 12241 19e8 0A000000 		.4byte	.LVL141
 12242 19ec 0100     		.2byte	0x1
 12243 19ee 51       		.byte	0x51
 12244 19ef 0A000000 		.4byte	.LVL141
 12245 19f3 0E000000 		.4byte	.LFE139
 12246 19f7 0400     		.2byte	0x4
 12247 19f9 F3       		.byte	0xf3
 12248 19fa 01       		.uleb128 0x1
 12249 19fb 51       		.byte	0x51
 12250 19fc 9F       		.byte	0x9f
 12251 19fd 00000000 		.4byte	0
 12252 1a01 00000000 		.4byte	0
 12253              	.LLST34:
 12254 1a05 00000000 		.4byte	.LVL138
 12255 1a09 02000000 		.4byte	.LVL139
ARM GAS  C:\Users\Grillmo\AppData\Local\Temp\ccN7xt8j.s 			page 216


 12256 1a0d 0200     		.2byte	0x2
 12257 1a0f 30       		.byte	0x30
 12258 1a10 9F       		.byte	0x9f
 12259 1a11 02000000 		.4byte	.LVL139
 12260 1a15 08000000 		.4byte	.LVL140
 12261 1a19 0100     		.2byte	0x1
 12262 1a1b 52       		.byte	0x52
 12263 1a1c 08000000 		.4byte	.LVL140
 12264 1a20 0A000000 		.4byte	.LVL141
 12265 1a24 0600     		.2byte	0x6
 12266 1a26 71       		.byte	0x71
 12267 1a27 00       		.sleb128 0
 12268 1a28 73       		.byte	0x73
 12269 1a29 00       		.sleb128 0
 12270 1a2a 21       		.byte	0x21
 12271 1a2b 9F       		.byte	0x9f
 12272 1a2c 0A000000 		.4byte	.LVL141
 12273 1a30 0E000000 		.4byte	.LFE139
 12274 1a34 0700     		.2byte	0x7
 12275 1a36 F3       		.byte	0xf3
 12276 1a37 01       		.uleb128 0x1
 12277 1a38 51       		.byte	0x51
 12278 1a39 73       		.byte	0x73
 12279 1a3a 00       		.sleb128 0
 12280 1a3b 21       		.byte	0x21
 12281 1a3c 9F       		.byte	0x9f
 12282 1a3d 00000000 		.4byte	0
 12283 1a41 00000000 		.4byte	0
 12284              	.LLST31:
 12285 1a45 00000000 		.4byte	.LVL134
 12286 1a49 0C000000 		.4byte	.LVL137
 12287 1a4d 0100     		.2byte	0x1
 12288 1a4f 51       		.byte	0x51
 12289 1a50 0C000000 		.4byte	.LVL137
 12290 1a54 12000000 		.4byte	.LFE138
 12291 1a58 0400     		.2byte	0x4
 12292 1a5a F3       		.byte	0xf3
 12293 1a5b 01       		.uleb128 0x1
 12294 1a5c 51       		.byte	0x51
 12295 1a5d 9F       		.byte	0x9f
 12296 1a5e 00000000 		.4byte	0
 12297 1a62 00000000 		.4byte	0
 12298              	.LLST32:
 12299 1a66 00000000 		.4byte	.LVL134
 12300 1a6a 02000000 		.4byte	.LVL135
 12301 1a6e 0200     		.2byte	0x2
 12302 1a70 30       		.byte	0x30
 12303 1a71 9F       		.byte	0x9f
 12304 1a72 02000000 		.4byte	.LVL135
 12305 1a76 08000000 		.4byte	.LVL136
 12306 1a7a 0100     		.2byte	0x1
 12307 1a7c 52       		.byte	0x52
 12308 1a7d 08000000 		.4byte	.LVL136
 12309 1a81 0C000000 		.4byte	.LVL137
 12310 1a85 0800     		.2byte	0x8
 12311 1a87 71       		.byte	0x71
 12312 1a88 00       		.sleb128 0
ARM GAS  C:\Users\Grillmo\AppData\Local\Temp\ccN7xt8j.s 			page 217


 12313 1a89 38       		.byte	0x38
 12314 1a8a 24       		.byte	0x24
 12315 1a8b 73       		.byte	0x73
 12316 1a8c 00       		.sleb128 0
 12317 1a8d 21       		.byte	0x21
 12318 1a8e 9F       		.byte	0x9f
 12319 1a8f 0C000000 		.4byte	.LVL137
 12320 1a93 12000000 		.4byte	.LFE138
 12321 1a97 0900     		.2byte	0x9
 12322 1a99 F3       		.byte	0xf3
 12323 1a9a 01       		.uleb128 0x1
 12324 1a9b 51       		.byte	0x51
 12325 1a9c 38       		.byte	0x38
 12326 1a9d 24       		.byte	0x24
 12327 1a9e 73       		.byte	0x73
 12328 1a9f 00       		.sleb128 0
 12329 1aa0 21       		.byte	0x21
 12330 1aa1 9F       		.byte	0x9f
 12331 1aa2 00000000 		.4byte	0
 12332 1aa6 00000000 		.4byte	0
 12333              	.LLST29:
 12334 1aaa 00000000 		.4byte	.LVL130
 12335 1aae 0A000000 		.4byte	.LVL133
 12336 1ab2 0100     		.2byte	0x1
 12337 1ab4 51       		.byte	0x51
 12338 1ab5 0A000000 		.4byte	.LVL133
 12339 1ab9 0E000000 		.4byte	.LFE137
 12340 1abd 0400     		.2byte	0x4
 12341 1abf F3       		.byte	0xf3
 12342 1ac0 01       		.uleb128 0x1
 12343 1ac1 51       		.byte	0x51
 12344 1ac2 9F       		.byte	0x9f
 12345 1ac3 00000000 		.4byte	0
 12346 1ac7 00000000 		.4byte	0
 12347              	.LLST30:
 12348 1acb 00000000 		.4byte	.LVL130
 12349 1acf 02000000 		.4byte	.LVL131
 12350 1ad3 0200     		.2byte	0x2
 12351 1ad5 30       		.byte	0x30
 12352 1ad6 9F       		.byte	0x9f
 12353 1ad7 02000000 		.4byte	.LVL131
 12354 1adb 08000000 		.4byte	.LVL132
 12355 1adf 0100     		.2byte	0x1
 12356 1ae1 52       		.byte	0x52
 12357 1ae2 08000000 		.4byte	.LVL132
 12358 1ae6 0A000000 		.4byte	.LVL133
 12359 1aea 0600     		.2byte	0x6
 12360 1aec 71       		.byte	0x71
 12361 1aed 00       		.sleb128 0
 12362 1aee 73       		.byte	0x73
 12363 1aef 00       		.sleb128 0
 12364 1af0 21       		.byte	0x21
 12365 1af1 9F       		.byte	0x9f
 12366 1af2 0A000000 		.4byte	.LVL133
 12367 1af6 0E000000 		.4byte	.LFE137
 12368 1afa 0700     		.2byte	0x7
 12369 1afc F3       		.byte	0xf3
ARM GAS  C:\Users\Grillmo\AppData\Local\Temp\ccN7xt8j.s 			page 218


 12370 1afd 01       		.uleb128 0x1
 12371 1afe 51       		.byte	0x51
 12372 1aff 73       		.byte	0x73
 12373 1b00 00       		.sleb128 0
 12374 1b01 21       		.byte	0x21
 12375 1b02 9F       		.byte	0x9f
 12376 1b03 00000000 		.4byte	0
 12377 1b07 00000000 		.4byte	0
 12378              	.LLST24:
 12379 1b0b 00000000 		.4byte	.LVL118
 12380 1b0f 16000000 		.4byte	.LVL119
 12381 1b13 0100     		.2byte	0x1
 12382 1b15 50       		.byte	0x50
 12383 1b16 16000000 		.4byte	.LVL119
 12384 1b1a 50000000 		.4byte	.LFE132
 12385 1b1e 0300     		.2byte	0x3
 12386 1b20 70       		.byte	0x70
 12387 1b21 68       		.sleb128 -24
 12388 1b22 9F       		.byte	0x9f
 12389 1b23 00000000 		.4byte	0
 12390 1b27 00000000 		.4byte	0
 12391              	.LLST25:
 12392 1b2b 00000000 		.4byte	.LVL118
 12393 1b2f 1A000000 		.4byte	.LVL121
 12394 1b33 0100     		.2byte	0x1
 12395 1b35 51       		.byte	0x51
 12396 1b36 1A000000 		.4byte	.LVL121
 12397 1b3a 38000000 		.4byte	.LVL123
 12398 1b3e 0400     		.2byte	0x4
 12399 1b40 F3       		.byte	0xf3
 12400 1b41 01       		.uleb128 0x1
 12401 1b42 51       		.byte	0x51
 12402 1b43 9F       		.byte	0x9f
 12403 1b44 38000000 		.4byte	.LVL123
 12404 1b48 3A000000 		.4byte	.LVL124
 12405 1b4c 0100     		.2byte	0x1
 12406 1b4e 51       		.byte	0x51
 12407 1b4f 3A000000 		.4byte	.LVL124
 12408 1b53 50000000 		.4byte	.LFE132
 12409 1b57 0400     		.2byte	0x4
 12410 1b59 F3       		.byte	0xf3
 12411 1b5a 01       		.uleb128 0x1
 12412 1b5b 51       		.byte	0x51
 12413 1b5c 9F       		.byte	0x9f
 12414 1b5d 00000000 		.4byte	0
 12415 1b61 00000000 		.4byte	0
 12416              	.LLST26:
 12417 1b65 00000000 		.4byte	.LVL118
 12418 1b69 2A000000 		.4byte	.LVL122
 12419 1b6d 0100     		.2byte	0x1
 12420 1b6f 52       		.byte	0x52
 12421 1b70 2A000000 		.4byte	.LVL122
 12422 1b74 38000000 		.4byte	.LVL123
 12423 1b78 0400     		.2byte	0x4
 12424 1b7a F3       		.byte	0xf3
 12425 1b7b 01       		.uleb128 0x1
 12426 1b7c 52       		.byte	0x52
ARM GAS  C:\Users\Grillmo\AppData\Local\Temp\ccN7xt8j.s 			page 219


 12427 1b7d 9F       		.byte	0x9f
 12428 1b7e 38000000 		.4byte	.LVL123
 12429 1b82 4C000000 		.4byte	.LVL125
 12430 1b86 0100     		.2byte	0x1
 12431 1b88 52       		.byte	0x52
 12432 1b89 4C000000 		.4byte	.LVL125
 12433 1b8d 50000000 		.4byte	.LFE132
 12434 1b91 0400     		.2byte	0x4
 12435 1b93 F3       		.byte	0xf3
 12436 1b94 01       		.uleb128 0x1
 12437 1b95 52       		.byte	0x52
 12438 1b96 9F       		.byte	0x9f
 12439 1b97 00000000 		.4byte	0
 12440 1b9b 00000000 		.4byte	0
 12441              	.LLST27:
 12442 1b9f 00000000 		.4byte	.LVL118
 12443 1ba3 18000000 		.4byte	.LVL120
 12444 1ba7 0100     		.2byte	0x1
 12445 1ba9 50       		.byte	0x50
 12446 1baa 18000000 		.4byte	.LVL120
 12447 1bae 1A000000 		.4byte	.LVL121
 12448 1bb2 0C00     		.2byte	0xc
 12449 1bb4 71       		.byte	0x71
 12450 1bb5 7C       		.sleb128 -4
 12451 1bb6 31       		.byte	0x31
 12452 1bb7 25       		.byte	0x25
 12453 1bb8 0A       		.byte	0xa
 12454 1bb9 FFFF     		.2byte	0xffff
 12455 1bbb 1A       		.byte	0x1a
 12456 1bbc 70       		.byte	0x70
 12457 1bbd 00       		.sleb128 0
 12458 1bbe 22       		.byte	0x22
 12459 1bbf 9F       		.byte	0x9f
 12460 1bc0 1A000000 		.4byte	.LVL121
 12461 1bc4 38000000 		.4byte	.LVL123
 12462 1bc8 0F00     		.2byte	0xf
 12463 1bca F3       		.byte	0xf3
 12464 1bcb 01       		.uleb128 0x1
 12465 1bcc 51       		.byte	0x51
 12466 1bcd 34       		.byte	0x34
 12467 1bce 1C       		.byte	0x1c
 12468 1bcf 31       		.byte	0x31
 12469 1bd0 25       		.byte	0x25
 12470 1bd1 0A       		.byte	0xa
 12471 1bd2 FFFF     		.2byte	0xffff
 12472 1bd4 1A       		.byte	0x1a
 12473 1bd5 70       		.byte	0x70
 12474 1bd6 00       		.sleb128 0
 12475 1bd7 22       		.byte	0x22
 12476 1bd8 9F       		.byte	0x9f
 12477 1bd9 38000000 		.4byte	.LVL123
 12478 1bdd 3A000000 		.4byte	.LVL124
 12479 1be1 0C00     		.2byte	0xc
 12480 1be3 71       		.byte	0x71
 12481 1be4 00       		.sleb128 0
 12482 1be5 31       		.byte	0x31
 12483 1be6 25       		.byte	0x25
ARM GAS  C:\Users\Grillmo\AppData\Local\Temp\ccN7xt8j.s 			page 220


 12484 1be7 0A       		.byte	0xa
 12485 1be8 FFFF     		.2byte	0xffff
 12486 1bea 1A       		.byte	0x1a
 12487 1beb 70       		.byte	0x70
 12488 1bec 00       		.sleb128 0
 12489 1bed 22       		.byte	0x22
 12490 1bee 9F       		.byte	0x9f
 12491 1bef 3A000000 		.4byte	.LVL124
 12492 1bf3 50000000 		.4byte	.LFE132
 12493 1bf7 0D00     		.2byte	0xd
 12494 1bf9 F3       		.byte	0xf3
 12495 1bfa 01       		.uleb128 0x1
 12496 1bfb 51       		.byte	0x51
 12497 1bfc 31       		.byte	0x31
 12498 1bfd 25       		.byte	0x25
 12499 1bfe 0A       		.byte	0xa
 12500 1bff FFFF     		.2byte	0xffff
 12501 1c01 1A       		.byte	0x1a
 12502 1c02 70       		.byte	0x70
 12503 1c03 00       		.sleb128 0
 12504 1c04 22       		.byte	0x22
 12505 1c05 9F       		.byte	0x9f
 12506 1c06 00000000 		.4byte	0
 12507 1c0a 00000000 		.4byte	0
 12508              	.LLST28:
 12509 1c0e 00000000 		.4byte	.LVL118
 12510 1c12 16000000 		.4byte	.LVL119
 12511 1c16 0200     		.2byte	0x2
 12512 1c18 30       		.byte	0x30
 12513 1c19 9F       		.byte	0x9f
 12514 1c1a 16000000 		.4byte	.LVL119
 12515 1c1e 1A000000 		.4byte	.LVL121
 12516 1c22 0500     		.2byte	0x5
 12517 1c24 31       		.byte	0x31
 12518 1c25 71       		.byte	0x71
 12519 1c26 00       		.sleb128 0
 12520 1c27 24       		.byte	0x24
 12521 1c28 9F       		.byte	0x9f
 12522 1c29 1A000000 		.4byte	.LVL121
 12523 1c2d 38000000 		.4byte	.LVL123
 12524 1c31 0600     		.2byte	0x6
 12525 1c33 31       		.byte	0x31
 12526 1c34 F3       		.byte	0xf3
 12527 1c35 01       		.uleb128 0x1
 12528 1c36 51       		.byte	0x51
 12529 1c37 24       		.byte	0x24
 12530 1c38 9F       		.byte	0x9f
 12531 1c39 38000000 		.4byte	.LVL123
 12532 1c3d 3A000000 		.4byte	.LVL124
 12533 1c41 0500     		.2byte	0x5
 12534 1c43 31       		.byte	0x31
 12535 1c44 71       		.byte	0x71
 12536 1c45 00       		.sleb128 0
 12537 1c46 24       		.byte	0x24
 12538 1c47 9F       		.byte	0x9f
 12539 1c48 3A000000 		.4byte	.LVL124
 12540 1c4c 50000000 		.4byte	.LFE132
ARM GAS  C:\Users\Grillmo\AppData\Local\Temp\ccN7xt8j.s 			page 221


 12541 1c50 0600     		.2byte	0x6
 12542 1c52 31       		.byte	0x31
 12543 1c53 F3       		.byte	0xf3
 12544 1c54 01       		.uleb128 0x1
 12545 1c55 51       		.byte	0x51
 12546 1c56 24       		.byte	0x24
 12547 1c57 9F       		.byte	0x9f
 12548 1c58 00000000 		.4byte	0
 12549 1c5c 00000000 		.4byte	0
 12550              	.LLST20:
 12551 1c60 00000000 		.4byte	.LVL108
 12552 1c64 46000000 		.4byte	.LVL112
 12553 1c68 0100     		.2byte	0x1
 12554 1c6a 51       		.byte	0x51
 12555 1c6b 46000000 		.4byte	.LVL112
 12556 1c6f 50000000 		.4byte	.LVL113
 12557 1c73 0400     		.2byte	0x4
 12558 1c75 F3       		.byte	0xf3
 12559 1c76 01       		.uleb128 0x1
 12560 1c77 51       		.byte	0x51
 12561 1c78 9F       		.byte	0x9f
 12562 1c79 50000000 		.4byte	.LVL113
 12563 1c7d 68000000 		.4byte	.LFE130
 12564 1c81 0100     		.2byte	0x1
 12565 1c83 51       		.byte	0x51
 12566 1c84 00000000 		.4byte	0
 12567 1c88 00000000 		.4byte	0
 12568              	.LLST21:
 12569 1c8c 00000000 		.4byte	.LVL108
 12570 1c90 3A000000 		.4byte	.LVL110
 12571 1c94 0200     		.2byte	0x2
 12572 1c96 30       		.byte	0x30
 12573 1c97 9F       		.byte	0x9f
 12574 1c98 3C000000 		.4byte	.LVL111
 12575 1c9c 68000000 		.4byte	.LFE130
 12576 1ca0 0100     		.2byte	0x1
 12577 1ca2 52       		.byte	0x52
 12578 1ca3 00000000 		.4byte	0
 12579 1ca7 00000000 		.4byte	0
 12580              	.LLST22:
 12581 1cab 00000000 		.4byte	.LVL108
 12582 1caf 14000000 		.4byte	.LVL109
 12583 1cb3 0200     		.2byte	0x2
 12584 1cb5 30       		.byte	0x30
 12585 1cb6 9F       		.byte	0x9f
 12586 1cb7 14000000 		.4byte	.LVL109
 12587 1cbb 3C000000 		.4byte	.LVL111
 12588 1cbf 0100     		.2byte	0x1
 12589 1cc1 5E       		.byte	0x5e
 12590 1cc2 3C000000 		.4byte	.LVL111
 12591 1cc6 68000000 		.4byte	.LFE130
 12592 1cca 0100     		.2byte	0x1
 12593 1ccc 53       		.byte	0x53
 12594 1ccd 00000000 		.4byte	0
 12595 1cd1 00000000 		.4byte	0
 12596              	.LLST23:
 12597 1cd5 00000000 		.4byte	.LVL108
ARM GAS  C:\Users\Grillmo\AppData\Local\Temp\ccN7xt8j.s 			page 222


 12598 1cd9 3A000000 		.4byte	.LVL110
 12599 1cdd 0200     		.2byte	0x2
 12600 1cdf 30       		.byte	0x30
 12601 1ce0 9F       		.byte	0x9f
 12602 1ce1 3A000000 		.4byte	.LVL110
 12603 1ce5 5A000000 		.4byte	.LVL115
 12604 1ce9 0100     		.2byte	0x1
 12605 1ceb 54       		.byte	0x54
 12606 1cec 5C000000 		.4byte	.LVL116
 12607 1cf0 68000000 		.4byte	.LFE130
 12608 1cf4 0100     		.2byte	0x1
 12609 1cf6 54       		.byte	0x54
 12610 1cf7 00000000 		.4byte	0
 12611 1cfb 00000000 		.4byte	0
 12612              	.LLST16:
 12613 1cff 00000000 		.4byte	.LVL96
 12614 1d03 46000000 		.4byte	.LVL100
 12615 1d07 0100     		.2byte	0x1
 12616 1d09 51       		.byte	0x51
 12617 1d0a 46000000 		.4byte	.LVL100
 12618 1d0e 50000000 		.4byte	.LVL101
 12619 1d12 0400     		.2byte	0x4
 12620 1d14 F3       		.byte	0xf3
 12621 1d15 01       		.uleb128 0x1
 12622 1d16 51       		.byte	0x51
 12623 1d17 9F       		.byte	0x9f
 12624 1d18 50000000 		.4byte	.LVL101
 12625 1d1c 80000000 		.4byte	.LFE129
 12626 1d20 0100     		.2byte	0x1
 12627 1d22 51       		.byte	0x51
 12628 1d23 00000000 		.4byte	0
 12629 1d27 00000000 		.4byte	0
 12630              	.LLST17:
 12631 1d2b 00000000 		.4byte	.LVL96
 12632 1d2f 36000000 		.4byte	.LVL98
 12633 1d33 0200     		.2byte	0x2
 12634 1d35 30       		.byte	0x30
 12635 1d36 9F       		.byte	0x9f
 12636 1d37 36000000 		.4byte	.LVL98
 12637 1d3b 80000000 		.4byte	.LFE129
 12638 1d3f 0100     		.2byte	0x1
 12639 1d41 52       		.byte	0x52
 12640 1d42 00000000 		.4byte	0
 12641 1d46 00000000 		.4byte	0
 12642              	.LLST18:
 12643 1d4a 00000000 		.4byte	.LVL96
 12644 1d4e 12000000 		.4byte	.LVL97
 12645 1d52 0200     		.2byte	0x2
 12646 1d54 30       		.byte	0x30
 12647 1d55 9F       		.byte	0x9f
 12648 1d56 12000000 		.4byte	.LVL97
 12649 1d5a 3A000000 		.4byte	.LVL99
 12650 1d5e 0100     		.2byte	0x1
 12651 1d60 5E       		.byte	0x5e
 12652 1d61 3A000000 		.4byte	.LVL99
 12653 1d65 64000000 		.4byte	.LVL104
 12654 1d69 0100     		.2byte	0x1
ARM GAS  C:\Users\Grillmo\AppData\Local\Temp\ccN7xt8j.s 			page 223


 12655 1d6b 53       		.byte	0x53
 12656 1d6c 64000000 		.4byte	.LVL104
 12657 1d70 76000000 		.4byte	.LVL106
 12658 1d74 0100     		.2byte	0x1
 12659 1d76 56       		.byte	0x56
 12660 1d77 76000000 		.4byte	.LVL106
 12661 1d7b 80000000 		.4byte	.LFE129
 12662 1d7f 0100     		.2byte	0x1
 12663 1d81 53       		.byte	0x53
 12664 1d82 00000000 		.4byte	0
 12665 1d86 00000000 		.4byte	0
 12666              	.LLST19:
 12667 1d8a 00000000 		.4byte	.LVL96
 12668 1d8e 36000000 		.4byte	.LVL98
 12669 1d92 0200     		.2byte	0x2
 12670 1d94 30       		.byte	0x30
 12671 1d95 9F       		.byte	0x9f
 12672 1d96 36000000 		.4byte	.LVL98
 12673 1d9a 6A000000 		.4byte	.LVL105
 12674 1d9e 0100     		.2byte	0x1
 12675 1da0 55       		.byte	0x55
 12676 1da1 78000000 		.4byte	.LVL107
 12677 1da5 80000000 		.4byte	.LFE129
 12678 1da9 0100     		.2byte	0x1
 12679 1dab 55       		.byte	0x55
 12680 1dac 00000000 		.4byte	0
 12681 1db0 00000000 		.4byte	0
 12682              	.LLST12:
 12683 1db4 00000000 		.4byte	.LVL84
 12684 1db8 48000000 		.4byte	.LVL88
 12685 1dbc 0100     		.2byte	0x1
 12686 1dbe 51       		.byte	0x51
 12687 1dbf 48000000 		.4byte	.LVL88
 12688 1dc3 52000000 		.4byte	.LVL89
 12689 1dc7 0400     		.2byte	0x4
 12690 1dc9 F3       		.byte	0xf3
 12691 1dca 01       		.uleb128 0x1
 12692 1dcb 51       		.byte	0x51
 12693 1dcc 9F       		.byte	0x9f
 12694 1dcd 52000000 		.4byte	.LVL89
 12695 1dd1 80000000 		.4byte	.LFE128
 12696 1dd5 0100     		.2byte	0x1
 12697 1dd7 51       		.byte	0x51
 12698 1dd8 00000000 		.4byte	0
 12699 1ddc 00000000 		.4byte	0
 12700              	.LLST13:
 12701 1de0 00000000 		.4byte	.LVL84
 12702 1de4 3A000000 		.4byte	.LVL86
 12703 1de8 0200     		.2byte	0x2
 12704 1dea 30       		.byte	0x30
 12705 1deb 9F       		.byte	0x9f
 12706 1dec 3C000000 		.4byte	.LVL87
 12707 1df0 80000000 		.4byte	.LFE128
 12708 1df4 0100     		.2byte	0x1
 12709 1df6 52       		.byte	0x52
 12710 1df7 00000000 		.4byte	0
 12711 1dfb 00000000 		.4byte	0
ARM GAS  C:\Users\Grillmo\AppData\Local\Temp\ccN7xt8j.s 			page 224


 12712              	.LLST14:
 12713 1dff 00000000 		.4byte	.LVL84
 12714 1e03 14000000 		.4byte	.LVL85
 12715 1e07 0200     		.2byte	0x2
 12716 1e09 30       		.byte	0x30
 12717 1e0a 9F       		.byte	0x9f
 12718 1e0b 14000000 		.4byte	.LVL85
 12719 1e0f 3C000000 		.4byte	.LVL87
 12720 1e13 0100     		.2byte	0x1
 12721 1e15 5E       		.byte	0x5e
 12722 1e16 3C000000 		.4byte	.LVL87
 12723 1e1a 66000000 		.4byte	.LVL92
 12724 1e1e 0100     		.2byte	0x1
 12725 1e20 53       		.byte	0x53
 12726 1e21 66000000 		.4byte	.LVL92
 12727 1e25 78000000 		.4byte	.LVL94
 12728 1e29 0100     		.2byte	0x1
 12729 1e2b 55       		.byte	0x55
 12730 1e2c 78000000 		.4byte	.LVL94
 12731 1e30 80000000 		.4byte	.LFE128
 12732 1e34 0100     		.2byte	0x1
 12733 1e36 53       		.byte	0x53
 12734 1e37 00000000 		.4byte	0
 12735 1e3b 00000000 		.4byte	0
 12736              	.LLST15:
 12737 1e3f 00000000 		.4byte	.LVL84
 12738 1e43 3A000000 		.4byte	.LVL86
 12739 1e47 0200     		.2byte	0x2
 12740 1e49 30       		.byte	0x30
 12741 1e4a 9F       		.byte	0x9f
 12742 1e4b 3A000000 		.4byte	.LVL86
 12743 1e4f 6C000000 		.4byte	.LVL93
 12744 1e53 0100     		.2byte	0x1
 12745 1e55 54       		.byte	0x54
 12746 1e56 7A000000 		.4byte	.LVL95
 12747 1e5a 80000000 		.4byte	.LFE128
 12748 1e5e 0100     		.2byte	0x1
 12749 1e60 54       		.byte	0x54
 12750 1e61 00000000 		.4byte	0
 12751 1e65 00000000 		.4byte	0
 12752              	.LLST8:
 12753 1e69 00000000 		.4byte	.LVL72
 12754 1e6d 42000000 		.4byte	.LVL76
 12755 1e71 0100     		.2byte	0x1
 12756 1e73 51       		.byte	0x51
 12757 1e74 42000000 		.4byte	.LVL76
 12758 1e78 4C000000 		.4byte	.LVL77
 12759 1e7c 0400     		.2byte	0x4
 12760 1e7e F3       		.byte	0xf3
 12761 1e7f 01       		.uleb128 0x1
 12762 1e80 51       		.byte	0x51
 12763 1e81 9F       		.byte	0x9f
 12764 1e82 4C000000 		.4byte	.LVL77
 12765 1e86 74000000 		.4byte	.LFE127
 12766 1e8a 0100     		.2byte	0x1
 12767 1e8c 51       		.byte	0x51
 12768 1e8d 00000000 		.4byte	0
ARM GAS  C:\Users\Grillmo\AppData\Local\Temp\ccN7xt8j.s 			page 225


 12769 1e91 00000000 		.4byte	0
 12770              	.LLST9:
 12771 1e95 00000000 		.4byte	.LVL72
 12772 1e99 34000000 		.4byte	.LVL74
 12773 1e9d 0200     		.2byte	0x2
 12774 1e9f 30       		.byte	0x30
 12775 1ea0 9F       		.byte	0x9f
 12776 1ea1 34000000 		.4byte	.LVL74
 12777 1ea5 74000000 		.4byte	.LFE127
 12778 1ea9 0100     		.2byte	0x1
 12779 1eab 54       		.byte	0x54
 12780 1eac 00000000 		.4byte	0
 12781 1eb0 00000000 		.4byte	0
 12782              	.LLST10:
 12783 1eb4 00000000 		.4byte	.LVL72
 12784 1eb8 10000000 		.4byte	.LVL73
 12785 1ebc 0200     		.2byte	0x2
 12786 1ebe 30       		.byte	0x30
 12787 1ebf 9F       		.byte	0x9f
 12788 1ec0 10000000 		.4byte	.LVL73
 12789 1ec4 38000000 		.4byte	.LVL75
 12790 1ec8 0100     		.2byte	0x1
 12791 1eca 5E       		.byte	0x5e
 12792 1ecb 38000000 		.4byte	.LVL75
 12793 1ecf 74000000 		.4byte	.LFE127
 12794 1ed3 0100     		.2byte	0x1
 12795 1ed5 53       		.byte	0x53
 12796 1ed6 00000000 		.4byte	0
 12797 1eda 00000000 		.4byte	0
 12798              	.LLST11:
 12799 1ede 00000000 		.4byte	.LVL72
 12800 1ee2 34000000 		.4byte	.LVL74
 12801 1ee6 0200     		.2byte	0x2
 12802 1ee8 30       		.byte	0x30
 12803 1ee9 9F       		.byte	0x9f
 12804 1eea 34000000 		.4byte	.LVL74
 12805 1eee 5C000000 		.4byte	.LVL80
 12806 1ef2 0100     		.2byte	0x1
 12807 1ef4 52       		.byte	0x52
 12808 1ef5 6A000000 		.4byte	.LVL83
 12809 1ef9 74000000 		.4byte	.LFE127
 12810 1efd 0100     		.2byte	0x1
 12811 1eff 52       		.byte	0x52
 12812 1f00 00000000 		.4byte	0
 12813 1f04 00000000 		.4byte	0
 12814              	.LLST7:
 12815 1f08 00000000 		.4byte	.LVL69
 12816 1f0c 0E000000 		.4byte	.LVL70
 12817 1f10 0100     		.2byte	0x1
 12818 1f12 51       		.byte	0x51
 12819 1f13 0E000000 		.4byte	.LVL70
 12820 1f17 12000000 		.4byte	.LFE125
 12821 1f1b 0400     		.2byte	0x4
 12822 1f1d F3       		.byte	0xf3
 12823 1f1e 01       		.uleb128 0x1
 12824 1f1f 51       		.byte	0x51
 12825 1f20 9F       		.byte	0x9f
ARM GAS  C:\Users\Grillmo\AppData\Local\Temp\ccN7xt8j.s 			page 226


 12826 1f21 00000000 		.4byte	0
 12827 1f25 00000000 		.4byte	0
 12828              	.LLST6:
 12829 1f29 00000000 		.4byte	.LVL67
 12830 1f2d 0E000000 		.4byte	.LVL68
 12831 1f31 0100     		.2byte	0x1
 12832 1f33 51       		.byte	0x51
 12833 1f34 0E000000 		.4byte	.LVL68
 12834 1f38 12000000 		.4byte	.LFE124
 12835 1f3c 0400     		.2byte	0x4
 12836 1f3e F3       		.byte	0xf3
 12837 1f3f 01       		.uleb128 0x1
 12838 1f40 51       		.byte	0x51
 12839 1f41 9F       		.byte	0x9f
 12840 1f42 00000000 		.4byte	0
 12841 1f46 00000000 		.4byte	0
 12842              	.LLST5:
 12843 1f4a 00000000 		.4byte	.LVL62
 12844 1f4e 02000000 		.4byte	.LVL63
 12845 1f52 0100     		.2byte	0x1
 12846 1f54 50       		.byte	0x50
 12847 1f55 02000000 		.4byte	.LVL63
 12848 1f59 06000000 		.4byte	.LFE120
 12849 1f5d 0400     		.2byte	0x4
 12850 1f5f F3       		.byte	0xf3
 12851 1f60 01       		.uleb128 0x1
 12852 1f61 50       		.byte	0x50
 12853 1f62 9F       		.byte	0x9f
 12854 1f63 00000000 		.4byte	0
 12855 1f67 00000000 		.4byte	0
 12856              	.LLST4:
 12857 1f6b 00000000 		.4byte	.LVL60
 12858 1f6f 02000000 		.4byte	.LVL61
 12859 1f73 0100     		.2byte	0x1
 12860 1f75 50       		.byte	0x50
 12861 1f76 02000000 		.4byte	.LVL61
 12862 1f7a 04000000 		.4byte	.LFE119
 12863 1f7e 0400     		.2byte	0x4
 12864 1f80 F3       		.byte	0xf3
 12865 1f81 01       		.uleb128 0x1
 12866 1f82 50       		.byte	0x50
 12867 1f83 9F       		.byte	0x9f
 12868 1f84 00000000 		.4byte	0
 12869 1f88 00000000 		.4byte	0
 12870              	.LLST2:
 12871 1f8c 00000000 		.4byte	.LVL54
 12872 1f90 0A000000 		.4byte	.LVL57
 12873 1f94 0100     		.2byte	0x1
 12874 1f96 51       		.byte	0x51
 12875 1f97 0A000000 		.4byte	.LVL57
 12876 1f9b 0E000000 		.4byte	.LFE116
 12877 1f9f 0400     		.2byte	0x4
 12878 1fa1 F3       		.byte	0xf3
 12879 1fa2 01       		.uleb128 0x1
 12880 1fa3 51       		.byte	0x51
 12881 1fa4 9F       		.byte	0x9f
 12882 1fa5 00000000 		.4byte	0
ARM GAS  C:\Users\Grillmo\AppData\Local\Temp\ccN7xt8j.s 			page 227


 12883 1fa9 00000000 		.4byte	0
 12884              	.LLST3:
 12885 1fad 00000000 		.4byte	.LVL54
 12886 1fb1 02000000 		.4byte	.LVL55
 12887 1fb5 0200     		.2byte	0x2
 12888 1fb7 30       		.byte	0x30
 12889 1fb8 9F       		.byte	0x9f
 12890 1fb9 02000000 		.4byte	.LVL55
 12891 1fbd 08000000 		.4byte	.LVL56
 12892 1fc1 0100     		.2byte	0x1
 12893 1fc3 52       		.byte	0x52
 12894 1fc4 08000000 		.4byte	.LVL56
 12895 1fc8 0A000000 		.4byte	.LVL57
 12896 1fcc 0600     		.2byte	0x6
 12897 1fce 71       		.byte	0x71
 12898 1fcf 00       		.sleb128 0
 12899 1fd0 73       		.byte	0x73
 12900 1fd1 00       		.sleb128 0
 12901 1fd2 21       		.byte	0x21
 12902 1fd3 9F       		.byte	0x9f
 12903 1fd4 0A000000 		.4byte	.LVL57
 12904 1fd8 0E000000 		.4byte	.LFE116
 12905 1fdc 0700     		.2byte	0x7
 12906 1fde F3       		.byte	0xf3
 12907 1fdf 01       		.uleb128 0x1
 12908 1fe0 51       		.byte	0x51
 12909 1fe1 73       		.byte	0x73
 12910 1fe2 00       		.sleb128 0
 12911 1fe3 21       		.byte	0x21
 12912 1fe4 9F       		.byte	0x9f
 12913 1fe5 00000000 		.4byte	0
 12914 1fe9 00000000 		.4byte	0
 12915              	.LLST1:
 12916 1fed 00000000 		.4byte	.LVL43
 12917 1ff1 08000000 		.4byte	.LVL44
 12918 1ff5 0200     		.2byte	0x2
 12919 1ff7 30       		.byte	0x30
 12920 1ff8 9F       		.byte	0x9f
 12921 1ff9 08000000 		.4byte	.LVL44
 12922 1ffd 4C000000 		.4byte	.LVL47
 12923 2001 0100     		.2byte	0x1
 12924 2003 53       		.byte	0x53
 12925 2004 58000000 		.4byte	.LVL48
 12926 2008 5A000000 		.4byte	.LVL49
 12927 200c 0800     		.2byte	0x8
 12928 200e 71       		.byte	0x71
 12929 200f 08       		.sleb128 8
 12930 2010 94       		.byte	0x94
 12931 2011 02       		.byte	0x2
 12932 2012 73       		.byte	0x73
 12933 2013 00       		.sleb128 0
 12934 2014 21       		.byte	0x21
 12935 2015 9F       		.byte	0x9f
 12936 2016 7E000000 		.4byte	.LVL50
 12937 201a 84000000 		.4byte	.LVL51
 12938 201e 0100     		.2byte	0x1
 12939 2020 53       		.byte	0x53
ARM GAS  C:\Users\Grillmo\AppData\Local\Temp\ccN7xt8j.s 			page 228


 12940 2021 00000000 		.4byte	0
 12941 2025 00000000 		.4byte	0
 12942              	.LLST0:
 12943 2029 00000000 		.4byte	.LVL0
 12944 202d 62000000 		.4byte	.LVL1
 12945 2031 0100     		.2byte	0x1
 12946 2033 50       		.byte	0x50
 12947 2034 62000000 		.4byte	.LVL1
 12948 2038 74000000 		.4byte	.LVL3
 12949 203c 0400     		.2byte	0x4
 12950 203e F3       		.byte	0xf3
 12951 203f 01       		.uleb128 0x1
 12952 2040 50       		.byte	0x50
 12953 2041 9F       		.byte	0x9f
 12954 2042 74000000 		.4byte	.LVL3
 12955 2046 78000000 		.4byte	.LVL4
 12956 204a 0100     		.2byte	0x1
 12957 204c 50       		.byte	0x50
 12958 204d 78000000 		.4byte	.LVL4
 12959 2051 88000000 		.4byte	.LVL6
 12960 2055 0400     		.2byte	0x4
 12961 2057 F3       		.byte	0xf3
 12962 2058 01       		.uleb128 0x1
 12963 2059 50       		.byte	0x50
 12964 205a 9F       		.byte	0x9f
 12965 205b 88000000 		.4byte	.LVL6
 12966 205f 8C000000 		.4byte	.LVL7
 12967 2063 0100     		.2byte	0x1
 12968 2065 50       		.byte	0x50
 12969 2066 8C000000 		.4byte	.LVL7
 12970 206a 9C000000 		.4byte	.LVL9
 12971 206e 0400     		.2byte	0x4
 12972 2070 F3       		.byte	0xf3
 12973 2071 01       		.uleb128 0x1
 12974 2072 50       		.byte	0x50
 12975 2073 9F       		.byte	0x9f
 12976 2074 9C000000 		.4byte	.LVL9
 12977 2078 A0000000 		.4byte	.LVL10
 12978 207c 0100     		.2byte	0x1
 12979 207e 50       		.byte	0x50
 12980 207f A0000000 		.4byte	.LVL10
 12981 2083 B0000000 		.4byte	.LVL12
 12982 2087 0400     		.2byte	0x4
 12983 2089 F3       		.byte	0xf3
 12984 208a 01       		.uleb128 0x1
 12985 208b 50       		.byte	0x50
 12986 208c 9F       		.byte	0x9f
 12987 208d B0000000 		.4byte	.LVL12
 12988 2091 B4000000 		.4byte	.LVL13
 12989 2095 0100     		.2byte	0x1
 12990 2097 50       		.byte	0x50
 12991 2098 B4000000 		.4byte	.LVL13
 12992 209c C4000000 		.4byte	.LVL15
 12993 20a0 0400     		.2byte	0x4
 12994 20a2 F3       		.byte	0xf3
 12995 20a3 01       		.uleb128 0x1
 12996 20a4 50       		.byte	0x50
ARM GAS  C:\Users\Grillmo\AppData\Local\Temp\ccN7xt8j.s 			page 229


 12997 20a5 9F       		.byte	0x9f
 12998 20a6 C4000000 		.4byte	.LVL15
 12999 20aa C8000000 		.4byte	.LVL16
 13000 20ae 0100     		.2byte	0x1
 13001 20b0 50       		.byte	0x50
 13002 20b1 C8000000 		.4byte	.LVL16
 13003 20b5 D8000000 		.4byte	.LVL18
 13004 20b9 0400     		.2byte	0x4
 13005 20bb F3       		.byte	0xf3
 13006 20bc 01       		.uleb128 0x1
 13007 20bd 50       		.byte	0x50
 13008 20be 9F       		.byte	0x9f
 13009 20bf D8000000 		.4byte	.LVL18
 13010 20c3 DC000000 		.4byte	.LVL19
 13011 20c7 0100     		.2byte	0x1
 13012 20c9 50       		.byte	0x50
 13013 20ca DC000000 		.4byte	.LVL19
 13014 20ce EC000000 		.4byte	.LVL21
 13015 20d2 0400     		.2byte	0x4
 13016 20d4 F3       		.byte	0xf3
 13017 20d5 01       		.uleb128 0x1
 13018 20d6 50       		.byte	0x50
 13019 20d7 9F       		.byte	0x9f
 13020 20d8 EC000000 		.4byte	.LVL21
 13021 20dc F0000000 		.4byte	.LVL22
 13022 20e0 0100     		.2byte	0x1
 13023 20e2 50       		.byte	0x50
 13024 20e3 F0000000 		.4byte	.LVL22
 13025 20e7 00010000 		.4byte	.LVL24
 13026 20eb 0400     		.2byte	0x4
 13027 20ed F3       		.byte	0xf3
 13028 20ee 01       		.uleb128 0x1
 13029 20ef 50       		.byte	0x50
 13030 20f0 9F       		.byte	0x9f
 13031 20f1 00010000 		.4byte	.LVL24
 13032 20f5 04010000 		.4byte	.LVL25
 13033 20f9 0100     		.2byte	0x1
 13034 20fb 50       		.byte	0x50
 13035 20fc 04010000 		.4byte	.LVL25
 13036 2100 14010000 		.4byte	.LVL27
 13037 2104 0400     		.2byte	0x4
 13038 2106 F3       		.byte	0xf3
 13039 2107 01       		.uleb128 0x1
 13040 2108 50       		.byte	0x50
 13041 2109 9F       		.byte	0x9f
 13042 210a 14010000 		.4byte	.LVL27
 13043 210e 1A010000 		.4byte	.LVL28
 13044 2112 0100     		.2byte	0x1
 13045 2114 50       		.byte	0x50
 13046 2115 1A010000 		.4byte	.LVL28
 13047 2119 2C010000 		.4byte	.LVL30
 13048 211d 0400     		.2byte	0x4
 13049 211f F3       		.byte	0xf3
 13050 2120 01       		.uleb128 0x1
 13051 2121 50       		.byte	0x50
 13052 2122 9F       		.byte	0x9f
 13053 2123 2C010000 		.4byte	.LVL30
ARM GAS  C:\Users\Grillmo\AppData\Local\Temp\ccN7xt8j.s 			page 230


 13054 2127 32010000 		.4byte	.LVL31
 13055 212b 0100     		.2byte	0x1
 13056 212d 50       		.byte	0x50
 13057 212e 32010000 		.4byte	.LVL31
 13058 2132 44010000 		.4byte	.LVL33
 13059 2136 0400     		.2byte	0x4
 13060 2138 F3       		.byte	0xf3
 13061 2139 01       		.uleb128 0x1
 13062 213a 50       		.byte	0x50
 13063 213b 9F       		.byte	0x9f
 13064 213c 44010000 		.4byte	.LVL33
 13065 2140 4A010000 		.4byte	.LVL34
 13066 2144 0100     		.2byte	0x1
 13067 2146 50       		.byte	0x50
 13068 2147 4A010000 		.4byte	.LVL34
 13069 214b 5C010000 		.4byte	.LVL36
 13070 214f 0400     		.2byte	0x4
 13071 2151 F3       		.byte	0xf3
 13072 2152 01       		.uleb128 0x1
 13073 2153 50       		.byte	0x50
 13074 2154 9F       		.byte	0x9f
 13075 2155 5C010000 		.4byte	.LVL36
 13076 2159 60010000 		.4byte	.LVL37
 13077 215d 0100     		.2byte	0x1
 13078 215f 50       		.byte	0x50
 13079 2160 60010000 		.4byte	.LVL37
 13080 2164 70010000 		.4byte	.LVL39
 13081 2168 0400     		.2byte	0x4
 13082 216a F3       		.byte	0xf3
 13083 216b 01       		.uleb128 0x1
 13084 216c 50       		.byte	0x50
 13085 216d 9F       		.byte	0x9f
 13086 216e 70010000 		.4byte	.LVL39
 13087 2172 74010000 		.4byte	.LVL40
 13088 2176 0100     		.2byte	0x1
 13089 2178 50       		.byte	0x50
 13090 2179 74010000 		.4byte	.LVL40
 13091 217d B8010000 		.4byte	.LFE112
 13092 2181 0400     		.2byte	0x4
 13093 2183 F3       		.byte	0xf3
 13094 2184 01       		.uleb128 0x1
 13095 2185 50       		.byte	0x50
 13096 2186 9F       		.byte	0x9f
 13097 2187 00000000 		.4byte	0
 13098 218b 00000000 		.4byte	0
 13099              	.LLST155:
 13100 218f 00000000 		.4byte	.LVL334
 13101 2193 0E000000 		.4byte	.LVL335
 13102 2197 0100     		.2byte	0x1
 13103 2199 51       		.byte	0x51
 13104 219a 0E000000 		.4byte	.LVL335
 13105 219e 12000000 		.4byte	.LFE169
 13106 21a2 0400     		.2byte	0x4
 13107 21a4 F3       		.byte	0xf3
 13108 21a5 01       		.uleb128 0x1
 13109 21a6 51       		.byte	0x51
 13110 21a7 9F       		.byte	0x9f
ARM GAS  C:\Users\Grillmo\AppData\Local\Temp\ccN7xt8j.s 			page 231


 13111 21a8 00000000 		.4byte	0
 13112 21ac 00000000 		.4byte	0
 13113              	.LLST156:
 13114 21b0 00000000 		.4byte	.LVL336
 13115 21b4 0E000000 		.4byte	.LVL337
 13116 21b8 0100     		.2byte	0x1
 13117 21ba 51       		.byte	0x51
 13118 21bb 0E000000 		.4byte	.LVL337
 13119 21bf 16000000 		.4byte	.LFE170
 13120 21c3 0400     		.2byte	0x4
 13121 21c5 F3       		.byte	0xf3
 13122 21c6 01       		.uleb128 0x1
 13123 21c7 51       		.byte	0x51
 13124 21c8 9F       		.byte	0x9f
 13125 21c9 00000000 		.4byte	0
 13126 21cd 00000000 		.4byte	0
 13127              	.LLST157:
 13128 21d1 00000000 		.4byte	.LVL338
 13129 21d5 0E000000 		.4byte	.LVL339
 13130 21d9 0100     		.2byte	0x1
 13131 21db 51       		.byte	0x51
 13132 21dc 0E000000 		.4byte	.LVL339
 13133 21e0 12000000 		.4byte	.LFE171
 13134 21e4 0400     		.2byte	0x4
 13135 21e6 F3       		.byte	0xf3
 13136 21e7 01       		.uleb128 0x1
 13137 21e8 51       		.byte	0x51
 13138 21e9 9F       		.byte	0x9f
 13139 21ea 00000000 		.4byte	0
 13140 21ee 00000000 		.4byte	0
 13141              	.LLST158:
 13142 21f2 00000000 		.4byte	.LVL340
 13143 21f6 0E000000 		.4byte	.LVL341
 13144 21fa 0100     		.2byte	0x1
 13145 21fc 51       		.byte	0x51
 13146 21fd 0E000000 		.4byte	.LVL341
 13147 2201 16000000 		.4byte	.LFE172
 13148 2205 0400     		.2byte	0x4
 13149 2207 F3       		.byte	0xf3
 13150 2208 01       		.uleb128 0x1
 13151 2209 51       		.byte	0x51
 13152 220a 9F       		.byte	0x9f
 13153 220b 00000000 		.4byte	0
 13154 220f 00000000 		.4byte	0
 13155              	.LLST166:
 13156 2213 00000000 		.4byte	.LVL357
 13157 2217 02000000 		.4byte	.LVL358
 13158 221b 0100     		.2byte	0x1
 13159 221d 51       		.byte	0x51
 13160 221e 02000000 		.4byte	.LVL358
 13161 2222 08000000 		.4byte	.LFE183
 13162 2226 0400     		.2byte	0x4
 13163 2228 F3       		.byte	0xf3
 13164 2229 01       		.uleb128 0x1
 13165 222a 51       		.byte	0x51
 13166 222b 9F       		.byte	0x9f
 13167 222c 00000000 		.4byte	0
ARM GAS  C:\Users\Grillmo\AppData\Local\Temp\ccN7xt8j.s 			page 232


 13168 2230 00000000 		.4byte	0
 13169              	.LLST205:
 13170 2234 00000000 		.4byte	.LVL409
 13171 2238 0A000000 		.4byte	.LVL412
 13172 223c 0100     		.2byte	0x1
 13173 223e 51       		.byte	0x51
 13174 223f 0A000000 		.4byte	.LVL412
 13175 2243 0E000000 		.4byte	.LFE192
 13176 2247 0400     		.2byte	0x4
 13177 2249 F3       		.byte	0xf3
 13178 224a 01       		.uleb128 0x1
 13179 224b 51       		.byte	0x51
 13180 224c 9F       		.byte	0x9f
 13181 224d 00000000 		.4byte	0
 13182 2251 00000000 		.4byte	0
 13183              	.LLST206:
 13184 2255 00000000 		.4byte	.LVL409
 13185 2259 02000000 		.4byte	.LVL410
 13186 225d 0200     		.2byte	0x2
 13187 225f 30       		.byte	0x30
 13188 2260 9F       		.byte	0x9f
 13189 2261 02000000 		.4byte	.LVL410
 13190 2265 08000000 		.4byte	.LVL411
 13191 2269 0100     		.2byte	0x1
 13192 226b 52       		.byte	0x52
 13193 226c 08000000 		.4byte	.LVL411
 13194 2270 0A000000 		.4byte	.LVL412
 13195 2274 0600     		.2byte	0x6
 13196 2276 71       		.byte	0x71
 13197 2277 00       		.sleb128 0
 13198 2278 73       		.byte	0x73
 13199 2279 00       		.sleb128 0
 13200 227a 21       		.byte	0x21
 13201 227b 9F       		.byte	0x9f
 13202 227c 0A000000 		.4byte	.LVL412
 13203 2280 0E000000 		.4byte	.LFE192
 13204 2284 0700     		.2byte	0x7
 13205 2286 F3       		.byte	0xf3
 13206 2287 01       		.uleb128 0x1
 13207 2288 51       		.byte	0x51
 13208 2289 73       		.byte	0x73
 13209 228a 00       		.sleb128 0
 13210 228b 21       		.byte	0x21
 13211 228c 9F       		.byte	0x9f
 13212 228d 00000000 		.4byte	0
 13213 2291 00000000 		.4byte	0
 13214              	.LLST210:
 13215 2295 00000000 		.4byte	.LVL419
 13216 2299 06000000 		.4byte	.LVL421
 13217 229d 0100     		.2byte	0x1
 13218 229f 52       		.byte	0x52
 13219 22a0 06000000 		.4byte	.LVL421
 13220 22a4 18000000 		.4byte	.LFE196
 13221 22a8 0400     		.2byte	0x4
 13222 22aa F3       		.byte	0xf3
 13223 22ab 01       		.uleb128 0x1
 13224 22ac 52       		.byte	0x52
ARM GAS  C:\Users\Grillmo\AppData\Local\Temp\ccN7xt8j.s 			page 233


 13225 22ad 9F       		.byte	0x9f
 13226 22ae 00000000 		.4byte	0
 13227 22b2 00000000 		.4byte	0
 13228              	.LLST211:
 13229 22b6 00000000 		.4byte	.LVL419
 13230 22ba 0C000000 		.4byte	.LVL423
 13231 22be 0100     		.2byte	0x1
 13232 22c0 53       		.byte	0x53
 13233 22c1 0C000000 		.4byte	.LVL423
 13234 22c5 18000000 		.4byte	.LFE196
 13235 22c9 0400     		.2byte	0x4
 13236 22cb F3       		.byte	0xf3
 13237 22cc 01       		.uleb128 0x1
 13238 22cd 53       		.byte	0x53
 13239 22ce 9F       		.byte	0x9f
 13240 22cf 00000000 		.4byte	0
 13241 22d3 00000000 		.4byte	0
 13242              	.LLST212:
 13243 22d7 00000000 		.4byte	.LVL419
 13244 22db 04000000 		.4byte	.LVL420
 13245 22df 0200     		.2byte	0x2
 13246 22e1 30       		.byte	0x30
 13247 22e2 9F       		.byte	0x9f
 13248 22e3 04000000 		.4byte	.LVL420
 13249 22e7 08000000 		.4byte	.LVL422
 13250 22eb 0100     		.2byte	0x1
 13251 22ed 54       		.byte	0x54
 13252 22ee 08000000 		.4byte	.LVL422
 13253 22f2 0C000000 		.4byte	.LVL423
 13254 22f6 0F00     		.2byte	0xf
 13255 22f8 73       		.byte	0x73
 13256 22f9 00       		.sleb128 0
 13257 22fa 38       		.byte	0x38
 13258 22fb 24       		.byte	0x24
 13259 22fc 71       		.byte	0x71
 13260 22fd 00       		.sleb128 0
 13261 22fe 21       		.byte	0x21
 13262 22ff F3       		.byte	0xf3
 13263 2300 01       		.uleb128 0x1
 13264 2301 52       		.byte	0x52
 13265 2302 21       		.byte	0x21
 13266 2303 74       		.byte	0x74
 13267 2304 00       		.sleb128 0
 13268 2305 21       		.byte	0x21
 13269 2306 9F       		.byte	0x9f
 13270 2307 0C000000 		.4byte	.LVL423
 13271 230b 16000000 		.4byte	.LVL424
 13272 230f 1000     		.2byte	0x10
 13273 2311 F3       		.byte	0xf3
 13274 2312 01       		.uleb128 0x1
 13275 2313 53       		.byte	0x53
 13276 2314 38       		.byte	0x38
 13277 2315 24       		.byte	0x24
 13278 2316 71       		.byte	0x71
 13279 2317 00       		.sleb128 0
 13280 2318 21       		.byte	0x21
 13281 2319 F3       		.byte	0xf3
ARM GAS  C:\Users\Grillmo\AppData\Local\Temp\ccN7xt8j.s 			page 234


 13282 231a 01       		.uleb128 0x1
 13283 231b 52       		.byte	0x52
 13284 231c 21       		.byte	0x21
 13285 231d 74       		.byte	0x74
 13286 231e 00       		.sleb128 0
 13287 231f 21       		.byte	0x21
 13288 2320 9F       		.byte	0x9f
 13289 2321 00000000 		.4byte	0
 13290 2325 00000000 		.4byte	0
 13291              		.section	.debug_aranges,"",%progbits
 13292 0000 C4020000 		.4byte	0x2c4
 13293 0004 0200     		.2byte	0x2
 13294 0006 00000000 		.4byte	.Ldebug_info0
 13295 000a 04       		.byte	0x4
 13296 000b 00       		.byte	0
 13297 000c 0000     		.2byte	0
 13298 000e 0000     		.2byte	0
 13299 0010 00000000 		.4byte	.LFB112
 13300 0014 B8010000 		.4byte	.LFE112-.LFB112
 13301 0018 00000000 		.4byte	.LFB113
 13302 001c 9C000000 		.4byte	.LFE113-.LFB113
 13303 0020 00000000 		.4byte	.LFB114
 13304 0024 12000000 		.4byte	.LFE114-.LFB114
 13305 0028 00000000 		.4byte	.LFB115
 13306 002c 06000000 		.4byte	.LFE115-.LFB115
 13307 0030 00000000 		.4byte	.LFB116
 13308 0034 0E000000 		.4byte	.LFE116-.LFB116
 13309 0038 00000000 		.4byte	.LFB117
 13310 003c 04000000 		.4byte	.LFE117-.LFB117
 13311 0040 00000000 		.4byte	.LFB118
 13312 0044 04000000 		.4byte	.LFE118-.LFB118
 13313 0048 00000000 		.4byte	.LFB119
 13314 004c 04000000 		.4byte	.LFE119-.LFB119
 13315 0050 00000000 		.4byte	.LFB120
 13316 0054 06000000 		.4byte	.LFE120-.LFB120
 13317 0058 00000000 		.4byte	.LFB121
 13318 005c 16000000 		.4byte	.LFE121-.LFB121
 13319 0060 00000000 		.4byte	.LFB122
 13320 0064 16000000 		.4byte	.LFE122-.LFB122
 13321 0068 00000000 		.4byte	.LFB123
 13322 006c 16000000 		.4byte	.LFE123-.LFB123
 13323 0070 00000000 		.4byte	.LFB124
 13324 0074 12000000 		.4byte	.LFE124-.LFB124
 13325 0078 00000000 		.4byte	.LFB125
 13326 007c 12000000 		.4byte	.LFE125-.LFB125
 13327 0080 00000000 		.4byte	.LFB126
 13328 0084 16000000 		.4byte	.LFE126-.LFB126
 13329 0088 00000000 		.4byte	.LFB127
 13330 008c 74000000 		.4byte	.LFE127-.LFB127
 13331 0090 00000000 		.4byte	.LFB128
 13332 0094 80000000 		.4byte	.LFE128-.LFB128
 13333 0098 00000000 		.4byte	.LFB129
 13334 009c 80000000 		.4byte	.LFE129-.LFB129
 13335 00a0 00000000 		.4byte	.LFB130
 13336 00a4 68000000 		.4byte	.LFE130-.LFB130
 13337 00a8 00000000 		.4byte	.LFB131
 13338 00ac 14000000 		.4byte	.LFE131-.LFB131
ARM GAS  C:\Users\Grillmo\AppData\Local\Temp\ccN7xt8j.s 			page 235


 13339 00b0 00000000 		.4byte	.LFB132
 13340 00b4 50000000 		.4byte	.LFE132-.LFB132
 13341 00b8 00000000 		.4byte	.LFB133
 13342 00bc 04000000 		.4byte	.LFE133-.LFB133
 13343 00c0 00000000 		.4byte	.LFB134
 13344 00c4 04000000 		.4byte	.LFE134-.LFB134
 13345 00c8 00000000 		.4byte	.LFB135
 13346 00cc 04000000 		.4byte	.LFE135-.LFB135
 13347 00d0 00000000 		.4byte	.LFB136
 13348 00d4 04000000 		.4byte	.LFE136-.LFB136
 13349 00d8 00000000 		.4byte	.LFB137
 13350 00dc 0E000000 		.4byte	.LFE137-.LFB137
 13351 00e0 00000000 		.4byte	.LFB138
 13352 00e4 12000000 		.4byte	.LFE138-.LFB138
 13353 00e8 00000000 		.4byte	.LFB139
 13354 00ec 0E000000 		.4byte	.LFE139-.LFB139
 13355 00f0 00000000 		.4byte	.LFB140
 13356 00f4 12000000 		.4byte	.LFE140-.LFB140
 13357 00f8 00000000 		.4byte	.LFB141
 13358 00fc 0E000000 		.4byte	.LFE141-.LFB141
 13359 0100 00000000 		.4byte	.LFB142
 13360 0104 12000000 		.4byte	.LFE142-.LFB142
 13361 0108 00000000 		.4byte	.LFB143
 13362 010c 0E000000 		.4byte	.LFE143-.LFB143
 13363 0110 00000000 		.4byte	.LFB144
 13364 0114 12000000 		.4byte	.LFE144-.LFB144
 13365 0118 00000000 		.4byte	.LFB145
 13366 011c 0E000000 		.4byte	.LFE145-.LFB145
 13367 0120 00000000 		.4byte	.LFB146
 13368 0124 12000000 		.4byte	.LFE146-.LFB146
 13369 0128 00000000 		.4byte	.LFB147
 13370 012c 0E000000 		.4byte	.LFE147-.LFB147
 13371 0130 00000000 		.4byte	.LFB148
 13372 0134 12000000 		.4byte	.LFE148-.LFB148
 13373 0138 00000000 		.4byte	.LFB149
 13374 013c 0E000000 		.4byte	.LFE149-.LFB149
 13375 0140 00000000 		.4byte	.LFB150
 13376 0144 10000000 		.4byte	.LFE150-.LFB150
 13377 0148 00000000 		.4byte	.LFB151
 13378 014c 0E000000 		.4byte	.LFE151-.LFB151
 13379 0150 00000000 		.4byte	.LFB152
 13380 0154 10000000 		.4byte	.LFE152-.LFB152
 13381 0158 00000000 		.4byte	.LFB153
 13382 015c 0E000000 		.4byte	.LFE153-.LFB153
 13383 0160 00000000 		.4byte	.LFB154
 13384 0164 0E000000 		.4byte	.LFE154-.LFB154
 13385 0168 00000000 		.4byte	.LFB155
 13386 016c 12000000 		.4byte	.LFE155-.LFB155
 13387 0170 00000000 		.4byte	.LFB156
 13388 0174 12000000 		.4byte	.LFE156-.LFB156
 13389 0178 00000000 		.4byte	.LFB157
 13390 017c 12000000 		.4byte	.LFE157-.LFB157
 13391 0180 00000000 		.4byte	.LFB158
 13392 0184 12000000 		.4byte	.LFE158-.LFB158
 13393 0188 00000000 		.4byte	.LFB159
 13394 018c 12000000 		.4byte	.LFE159-.LFB159
 13395 0190 00000000 		.4byte	.LFB160
ARM GAS  C:\Users\Grillmo\AppData\Local\Temp\ccN7xt8j.s 			page 236


 13396 0194 22000000 		.4byte	.LFE160-.LFB160
 13397 0198 00000000 		.4byte	.LFB161
 13398 019c 22000000 		.4byte	.LFE161-.LFB161
 13399 01a0 00000000 		.4byte	.LFB162
 13400 01a4 48010000 		.4byte	.LFE162-.LFB162
 13401 01a8 00000000 		.4byte	.LFB163
 13402 01ac 10000000 		.4byte	.LFE163-.LFB163
 13403 01b0 00000000 		.4byte	.LFB164
 13404 01b4 34010000 		.4byte	.LFE164-.LFB164
 13405 01b8 00000000 		.4byte	.LFB165
 13406 01bc 04000000 		.4byte	.LFE165-.LFB165
 13407 01c0 00000000 		.4byte	.LFB166
 13408 01c4 04000000 		.4byte	.LFE166-.LFB166
 13409 01c8 00000000 		.4byte	.LFB167
 13410 01cc 04000000 		.4byte	.LFE167-.LFB167
 13411 01d0 00000000 		.4byte	.LFB168
 13412 01d4 04000000 		.4byte	.LFE168-.LFB168
 13413 01d8 00000000 		.4byte	.LFB169
 13414 01dc 12000000 		.4byte	.LFE169-.LFB169
 13415 01e0 00000000 		.4byte	.LFB170
 13416 01e4 16000000 		.4byte	.LFE170-.LFB170
 13417 01e8 00000000 		.4byte	.LFB171
 13418 01ec 12000000 		.4byte	.LFE171-.LFB171
 13419 01f0 00000000 		.4byte	.LFB172
 13420 01f4 16000000 		.4byte	.LFE172-.LFB172
 13421 01f8 00000000 		.4byte	.LFB173
 13422 01fc 24000000 		.4byte	.LFE173-.LFB173
 13423 0200 00000000 		.4byte	.LFB174
 13424 0204 12000000 		.4byte	.LFE174-.LFB174
 13425 0208 00000000 		.4byte	.LFB175
 13426 020c 14000000 		.4byte	.LFE175-.LFB175
 13427 0210 00000000 		.4byte	.LFB176
 13428 0214 16000000 		.4byte	.LFE176-.LFB176
 13429 0218 00000000 		.4byte	.LFB177
 13430 021c 16000000 		.4byte	.LFE177-.LFB177
 13431 0220 00000000 		.4byte	.LFB179
 13432 0224 04000000 		.4byte	.LFE179-.LFB179
 13433 0228 00000000 		.4byte	.LFB180
 13434 022c 0C000000 		.4byte	.LFE180-.LFB180
 13435 0230 00000000 		.4byte	.LFB182
 13436 0234 14000000 		.4byte	.LFE182-.LFB182
 13437 0238 00000000 		.4byte	.LFB183
 13438 023c 08000000 		.4byte	.LFE183-.LFB183
 13439 0240 00000000 		.4byte	.LFB184
 13440 0244 06000000 		.4byte	.LFE184-.LFB184
 13441 0248 00000000 		.4byte	.LFB185
 13442 024c 16000000 		.4byte	.LFE185-.LFB185
 13443 0250 00000000 		.4byte	.LFB186
 13444 0254 16000000 		.4byte	.LFE186-.LFB186
 13445 0258 00000000 		.4byte	.LFB187
 13446 025c 0C000000 		.4byte	.LFE187-.LFB187
 13447 0260 00000000 		.4byte	.LFB188
 13448 0264 16000000 		.4byte	.LFE188-.LFB188
 13449 0268 00000000 		.4byte	.LFB189
 13450 026c 80000000 		.4byte	.LFE189-.LFB189
 13451 0270 00000000 		.4byte	.LFB190
 13452 0274 26000000 		.4byte	.LFE190-.LFB190
ARM GAS  C:\Users\Grillmo\AppData\Local\Temp\ccN7xt8j.s 			page 237


 13453 0278 00000000 		.4byte	.LFB191
 13454 027c 20000000 		.4byte	.LFE191-.LFB191
 13455 0280 00000000 		.4byte	.LFB192
 13456 0284 0E000000 		.4byte	.LFE192-.LFB192
 13457 0288 00000000 		.4byte	.LFB193
 13458 028c 12000000 		.4byte	.LFE193-.LFB193
 13459 0290 00000000 		.4byte	.LFB194
 13460 0294 12000000 		.4byte	.LFE194-.LFB194
 13461 0298 00000000 		.4byte	.LFB195
 13462 029c 12000000 		.4byte	.LFE195-.LFB195
 13463 02a0 00000000 		.4byte	.LFB196
 13464 02a4 18000000 		.4byte	.LFE196-.LFB196
 13465 02a8 00000000 		.4byte	.LFB197
 13466 02ac 38000000 		.4byte	.LFE197-.LFB197
 13467 02b0 00000000 		.4byte	.LFB198
 13468 02b4 16000000 		.4byte	.LFE198-.LFB198
 13469 02b8 00000000 		.4byte	.LFB199
 13470 02bc 04000000 		.4byte	.LFE199-.LFB199
 13471 02c0 00000000 		.4byte	0
 13472 02c4 00000000 		.4byte	0
 13473              		.section	.debug_ranges,"",%progbits
 13474              	.Ldebug_ranges0:
 13475 0000 10000000 		.4byte	.LBB46
 13476 0004 12000000 		.4byte	.LBE46
 13477 0008 1A000000 		.4byte	.LBB49
 13478 000c 4A000000 		.4byte	.LBE49
 13479 0010 00000000 		.4byte	0
 13480 0014 00000000 		.4byte	0
 13481 0018 62000000 		.4byte	.LBB52
 13482 001c 64000000 		.4byte	.LBE52
 13483 0020 6C000000 		.4byte	.LBB55
 13484 0024 96000000 		.4byte	.LBE55
 13485 0028 00000000 		.4byte	0
 13486 002c 00000000 		.4byte	0
 13487 0030 AA000000 		.4byte	.LBB58
 13488 0034 AC000000 		.4byte	.LBE58
 13489 0038 B4000000 		.4byte	.LBB61
 13490 003c E6000000 		.4byte	.LBE61
 13491 0040 00000000 		.4byte	0
 13492 0044 00000000 		.4byte	0
 13493 0048 FE000000 		.4byte	.LBB64
 13494 004c 00010000 		.4byte	.LBE64
 13495 0050 08010000 		.4byte	.LBB67
 13496 0054 36010000 		.4byte	.LBE67
 13497 0058 00000000 		.4byte	0
 13498 005c 00000000 		.4byte	0
 13499 0060 20000000 		.4byte	.LBB70
 13500 0064 22000000 		.4byte	.LBE70
 13501 0068 26000000 		.4byte	.LBB73
 13502 006c 5A000000 		.4byte	.LBE73
 13503 0070 00000000 		.4byte	0
 13504 0074 00000000 		.4byte	0
 13505 0078 AC000000 		.4byte	.LBB80
 13506 007c AE000000 		.4byte	.LBE80
 13507 0080 B2000000 		.4byte	.LBB83
 13508 0084 DE000000 		.4byte	.LBE83
 13509 0088 00000000 		.4byte	0
ARM GAS  C:\Users\Grillmo\AppData\Local\Temp\ccN7xt8j.s 			page 238


 13510 008c 00000000 		.4byte	0
 13511 0090 00000000 		.4byte	.LFB112
 13512 0094 B8010000 		.4byte	.LFE112
 13513 0098 00000000 		.4byte	.LFB113
 13514 009c 9C000000 		.4byte	.LFE113
 13515 00a0 00000000 		.4byte	.LFB114
 13516 00a4 12000000 		.4byte	.LFE114
 13517 00a8 00000000 		.4byte	.LFB115
 13518 00ac 06000000 		.4byte	.LFE115
 13519 00b0 00000000 		.4byte	.LFB116
 13520 00b4 0E000000 		.4byte	.LFE116
 13521 00b8 00000000 		.4byte	.LFB117
 13522 00bc 04000000 		.4byte	.LFE117
 13523 00c0 00000000 		.4byte	.LFB118
 13524 00c4 04000000 		.4byte	.LFE118
 13525 00c8 00000000 		.4byte	.LFB119
 13526 00cc 04000000 		.4byte	.LFE119
 13527 00d0 00000000 		.4byte	.LFB120
 13528 00d4 06000000 		.4byte	.LFE120
 13529 00d8 00000000 		.4byte	.LFB121
 13530 00dc 16000000 		.4byte	.LFE121
 13531 00e0 00000000 		.4byte	.LFB122
 13532 00e4 16000000 		.4byte	.LFE122
 13533 00e8 00000000 		.4byte	.LFB123
 13534 00ec 16000000 		.4byte	.LFE123
 13535 00f0 00000000 		.4byte	.LFB124
 13536 00f4 12000000 		.4byte	.LFE124
 13537 00f8 00000000 		.4byte	.LFB125
 13538 00fc 12000000 		.4byte	.LFE125
 13539 0100 00000000 		.4byte	.LFB126
 13540 0104 16000000 		.4byte	.LFE126
 13541 0108 00000000 		.4byte	.LFB127
 13542 010c 74000000 		.4byte	.LFE127
 13543 0110 00000000 		.4byte	.LFB128
 13544 0114 80000000 		.4byte	.LFE128
 13545 0118 00000000 		.4byte	.LFB129
 13546 011c 80000000 		.4byte	.LFE129
 13547 0120 00000000 		.4byte	.LFB130
 13548 0124 68000000 		.4byte	.LFE130
 13549 0128 00000000 		.4byte	.LFB131
 13550 012c 14000000 		.4byte	.LFE131
 13551 0130 00000000 		.4byte	.LFB132
 13552 0134 50000000 		.4byte	.LFE132
 13553 0138 00000000 		.4byte	.LFB133
 13554 013c 04000000 		.4byte	.LFE133
 13555 0140 00000000 		.4byte	.LFB134
 13556 0144 04000000 		.4byte	.LFE134
 13557 0148 00000000 		.4byte	.LFB135
 13558 014c 04000000 		.4byte	.LFE135
 13559 0150 00000000 		.4byte	.LFB136
 13560 0154 04000000 		.4byte	.LFE136
 13561 0158 00000000 		.4byte	.LFB137
 13562 015c 0E000000 		.4byte	.LFE137
 13563 0160 00000000 		.4byte	.LFB138
 13564 0164 12000000 		.4byte	.LFE138
 13565 0168 00000000 		.4byte	.LFB139
 13566 016c 0E000000 		.4byte	.LFE139
ARM GAS  C:\Users\Grillmo\AppData\Local\Temp\ccN7xt8j.s 			page 239


 13567 0170 00000000 		.4byte	.LFB140
 13568 0174 12000000 		.4byte	.LFE140
 13569 0178 00000000 		.4byte	.LFB141
 13570 017c 0E000000 		.4byte	.LFE141
 13571 0180 00000000 		.4byte	.LFB142
 13572 0184 12000000 		.4byte	.LFE142
 13573 0188 00000000 		.4byte	.LFB143
 13574 018c 0E000000 		.4byte	.LFE143
 13575 0190 00000000 		.4byte	.LFB144
 13576 0194 12000000 		.4byte	.LFE144
 13577 0198 00000000 		.4byte	.LFB145
 13578 019c 0E000000 		.4byte	.LFE145
 13579 01a0 00000000 		.4byte	.LFB146
 13580 01a4 12000000 		.4byte	.LFE146
 13581 01a8 00000000 		.4byte	.LFB147
 13582 01ac 0E000000 		.4byte	.LFE147
 13583 01b0 00000000 		.4byte	.LFB148
 13584 01b4 12000000 		.4byte	.LFE148
 13585 01b8 00000000 		.4byte	.LFB149
 13586 01bc 0E000000 		.4byte	.LFE149
 13587 01c0 00000000 		.4byte	.LFB150
 13588 01c4 10000000 		.4byte	.LFE150
 13589 01c8 00000000 		.4byte	.LFB151
 13590 01cc 0E000000 		.4byte	.LFE151
 13591 01d0 00000000 		.4byte	.LFB152
 13592 01d4 10000000 		.4byte	.LFE152
 13593 01d8 00000000 		.4byte	.LFB153
 13594 01dc 0E000000 		.4byte	.LFE153
 13595 01e0 00000000 		.4byte	.LFB154
 13596 01e4 0E000000 		.4byte	.LFE154
 13597 01e8 00000000 		.4byte	.LFB155
 13598 01ec 12000000 		.4byte	.LFE155
 13599 01f0 00000000 		.4byte	.LFB156
 13600 01f4 12000000 		.4byte	.LFE156
 13601 01f8 00000000 		.4byte	.LFB157
 13602 01fc 12000000 		.4byte	.LFE157
 13603 0200 00000000 		.4byte	.LFB158
 13604 0204 12000000 		.4byte	.LFE158
 13605 0208 00000000 		.4byte	.LFB159
 13606 020c 12000000 		.4byte	.LFE159
 13607 0210 00000000 		.4byte	.LFB160
 13608 0214 22000000 		.4byte	.LFE160
 13609 0218 00000000 		.4byte	.LFB161
 13610 021c 22000000 		.4byte	.LFE161
 13611 0220 00000000 		.4byte	.LFB162
 13612 0224 48010000 		.4byte	.LFE162
 13613 0228 00000000 		.4byte	.LFB163
 13614 022c 10000000 		.4byte	.LFE163
 13615 0230 00000000 		.4byte	.LFB164
 13616 0234 34010000 		.4byte	.LFE164
 13617 0238 00000000 		.4byte	.LFB165
 13618 023c 04000000 		.4byte	.LFE165
 13619 0240 00000000 		.4byte	.LFB166
 13620 0244 04000000 		.4byte	.LFE166
 13621 0248 00000000 		.4byte	.LFB167
 13622 024c 04000000 		.4byte	.LFE167
 13623 0250 00000000 		.4byte	.LFB168
ARM GAS  C:\Users\Grillmo\AppData\Local\Temp\ccN7xt8j.s 			page 240


 13624 0254 04000000 		.4byte	.LFE168
 13625 0258 00000000 		.4byte	.LFB169
 13626 025c 12000000 		.4byte	.LFE169
 13627 0260 00000000 		.4byte	.LFB170
 13628 0264 16000000 		.4byte	.LFE170
 13629 0268 00000000 		.4byte	.LFB171
 13630 026c 12000000 		.4byte	.LFE171
 13631 0270 00000000 		.4byte	.LFB172
 13632 0274 16000000 		.4byte	.LFE172
 13633 0278 00000000 		.4byte	.LFB173
 13634 027c 24000000 		.4byte	.LFE173
 13635 0280 00000000 		.4byte	.LFB174
 13636 0284 12000000 		.4byte	.LFE174
 13637 0288 00000000 		.4byte	.LFB175
 13638 028c 14000000 		.4byte	.LFE175
 13639 0290 00000000 		.4byte	.LFB176
 13640 0294 16000000 		.4byte	.LFE176
 13641 0298 00000000 		.4byte	.LFB177
 13642 029c 16000000 		.4byte	.LFE177
 13643 02a0 00000000 		.4byte	.LFB179
 13644 02a4 04000000 		.4byte	.LFE179
 13645 02a8 00000000 		.4byte	.LFB180
 13646 02ac 0C000000 		.4byte	.LFE180
 13647 02b0 00000000 		.4byte	.LFB182
 13648 02b4 14000000 		.4byte	.LFE182
 13649 02b8 00000000 		.4byte	.LFB183
 13650 02bc 08000000 		.4byte	.LFE183
 13651 02c0 00000000 		.4byte	.LFB184
 13652 02c4 06000000 		.4byte	.LFE184
 13653 02c8 00000000 		.4byte	.LFB185
 13654 02cc 16000000 		.4byte	.LFE185
 13655 02d0 00000000 		.4byte	.LFB186
 13656 02d4 16000000 		.4byte	.LFE186
 13657 02d8 00000000 		.4byte	.LFB187
 13658 02dc 0C000000 		.4byte	.LFE187
 13659 02e0 00000000 		.4byte	.LFB188
 13660 02e4 16000000 		.4byte	.LFE188
 13661 02e8 00000000 		.4byte	.LFB189
 13662 02ec 80000000 		.4byte	.LFE189
 13663 02f0 00000000 		.4byte	.LFB190
 13664 02f4 26000000 		.4byte	.LFE190
 13665 02f8 00000000 		.4byte	.LFB191
 13666 02fc 20000000 		.4byte	.LFE191
 13667 0300 00000000 		.4byte	.LFB192
 13668 0304 0E000000 		.4byte	.LFE192
 13669 0308 00000000 		.4byte	.LFB193
 13670 030c 12000000 		.4byte	.LFE193
 13671 0310 00000000 		.4byte	.LFB194
 13672 0314 12000000 		.4byte	.LFE194
 13673 0318 00000000 		.4byte	.LFB195
 13674 031c 12000000 		.4byte	.LFE195
 13675 0320 00000000 		.4byte	.LFB196
 13676 0324 18000000 		.4byte	.LFE196
 13677 0328 00000000 		.4byte	.LFB197
 13678 032c 38000000 		.4byte	.LFE197
 13679 0330 00000000 		.4byte	.LFB198
 13680 0334 16000000 		.4byte	.LFE198
ARM GAS  C:\Users\Grillmo\AppData\Local\Temp\ccN7xt8j.s 			page 241


 13681 0338 00000000 		.4byte	.LFB199
 13682 033c 04000000 		.4byte	.LFE199
 13683 0340 00000000 		.4byte	0
 13684 0344 00000000 		.4byte	0
 13685              		.section	.debug_line,"",%progbits
 13686              	.Ldebug_line0:
 13687 0000 F50B0000 		.section	.debug_str,"MS",%progbits,1
 13687      0200E801 
 13687      00000201 
 13687      FB0E0D00 
 13687      01010101 
 13688              	.LASF195:
 13689 0000 54494D5F 		.ascii	"TIM_OPMode\000"
 13689      4F504D6F 
 13689      646500
 13690              	.LASF78:
 13691 000b 4E657753 		.ascii	"NewState\000"
 13691      74617465 
 13691      00
 13692              	.LASF171:
 13693 0014 54494D5F 		.ascii	"TIM_ForcedOC2Config\000"
 13693      466F7263 
 13693      65644F43 
 13693      32436F6E 
 13693      66696700 
 13694              	.LASF194:
 13695 0028 54494D5F 		.ascii	"TIM_SelectOnePulseMode\000"
 13695      53656C65 
 13695      63744F6E 
 13695      6550756C 
 13695      73654D6F 
 13696              	.LASF104:
 13697 003f 54494D5F 		.ascii	"TIM_DMACmd\000"
 13697      444D4143 
 13697      6D6400
 13698              	.LASF21:
 13699 004a 44494552 		.ascii	"DIER\000"
 13699      00
 13700              	.LASF169:
 13701 004f 54494D5F 		.ascii	"TIM_ForcedAction\000"
 13701      466F7263 
 13701      65644163 
 13701      74696F6E 
 13701      00
 13702              	.LASF95:
 13703 0060 54494D5F 		.ascii	"TIM_InputTriggerSource\000"
 13703      496E7075 
 13703      74547269 
 13703      67676572 
 13703      536F7572 
 13704              	.LASF92:
 13705 0077 54494D5F 		.ascii	"TIM_TRGOSource\000"
 13705      5452474F 
 13705      536F7572 
 13705      636500
 13706              	.LASF39:
 13707 0086 54494D5F 		.ascii	"TIM_CounterMode\000"
ARM GAS  C:\Users\Grillmo\AppData\Local\Temp\ccN7xt8j.s 			page 242


 13707      436F756E 
 13707      7465724D 
 13707      6F646500 
 13708              	.LASF203:
 13709 0096 4175746F 		.ascii	"Autoreload\000"
 13709      72656C6F 
 13709      616400
 13710              	.LASF168:
 13711 00a1 54494D5F 		.ascii	"TIM_ForcedOC4Config\000"
 13711      466F7263 
 13711      65644F43 
 13711      34436F6E 
 13711      66696700 
 13712              	.LASF157:
 13713 00b5 54494D5F 		.ascii	"TIM_ClearOC1Ref\000"
 13713      436C6561 
 13713      724F4331 
 13713      52656600 
 13714              	.LASF33:
 13715 00c5 466C6167 		.ascii	"FlagStatus\000"
 13715      53746174 
 13715      757300
 13716              	.LASF3:
 13717 00d0 5F5F7569 		.ascii	"__uint8_t\000"
 13717      6E74385F 
 13717      7400
 13718              	.LASF114:
 13719 00da 54494D5F 		.ascii	"TIM_FLAG\000"
 13719      464C4147 
 13719      00
 13720              	.LASF180:
 13721 00e3 436F6D70 		.ascii	"Compare1\000"
 13721      61726531 
 13721      00
 13722              	.LASF179:
 13723 00ec 54494D5F 		.ascii	"TIM_SetCompare1\000"
 13723      53657443 
 13723      6F6D7061 
 13723      72653100 
 13724              	.LASF82:
 13725 00fc 54494D5F 		.ascii	"TIM_IC2Polarity\000"
 13725      49433250 
 13725      6F6C6172 
 13725      69747900 
 13726              	.LASF199:
 13727 010c 54494D5F 		.ascii	"TIM_UpdateDisableConfig\000"
 13727      55706461 
 13727      74654469 
 13727      7361626C 
 13727      65436F6E 
 13728              	.LASF176:
 13729 0124 436F6D70 		.ascii	"Compare3\000"
 13729      61726533 
 13729      00
 13730              	.LASF47:
 13731 012d 54494D5F 		.ascii	"TIM_Pulse\000"
 13731      50756C73 
ARM GAS  C:\Users\Grillmo\AppData\Local\Temp\ccN7xt8j.s 			page 243


 13731      6500
 13732              	.LASF215:
 13733 0137 5243435F 		.ascii	"RCC_APB1PeriphResetCmd\000"
 13733      41504231 
 13733      50657269 
 13733      70685265 
 13733      73657443 
 13734              	.LASF73:
 13735 014e 746D7063 		.ascii	"tmpccmr1\000"
 13735      636D7231 
 13735      00
 13736              	.LASF68:
 13737 0157 746D7063 		.ascii	"tmpccmr2\000"
 13737      636D7232 
 13737      00
 13738              	.LASF207:
 13739 0160 746D7063 		.ascii	"tmpcr1\000"
 13739      723100
 13740              	.LASF35:
 13741 0167 44495341 		.ascii	"DISABLE\000"
 13741      424C4500 
 13742              	.LASF94:
 13743 016f 54494D5F 		.ascii	"TIM_SelectInputTrigger\000"
 13743      53656C65 
 13743      6374496E 
 13743      70757454 
 13743      72696767 
 13744              	.LASF11:
 13745 0186 6C6F6E67 		.ascii	"long long unsigned int\000"
 13745      206C6F6E 
 13745      6720756E 
 13745      7369676E 
 13745      65642069 
 13746              	.LASF57:
 13747 019d 54494D5F 		.ascii	"TIM_ICFilter\000"
 13747      49434669 
 13747      6C746572 
 13747      00
 13748              	.LASF102:
 13749 01aa 54494D5F 		.ascii	"TIM_InternalClockConfig\000"
 13749      496E7465 
 13749      726E616C 
 13749      436C6F63 
 13749      6B436F6E 
 13750              	.LASF150:
 13751 01c2 54494D5F 		.ascii	"TIM_OC2PolarityConfig\000"
 13751      4F433250 
 13751      6F6C6172 
 13751      69747943 
 13751      6F6E6669 
 13752              	.LASF196:
 13753 01d8 54494D5F 		.ascii	"TIM_ARRPreloadConfig\000"
 13753      41525250 
 13753      72656C6F 
 13753      6164436F 
 13753      6E666967 
 13754              	.LASF18:
ARM GAS  C:\Users\Grillmo\AppData\Local\Temp\ccN7xt8j.s 			page 244


 13755 01ed 49544D5F 		.ascii	"ITM_RxBuffer\000"
 13755      52784275 
 13755      66666572 
 13755      00
 13756              	.LASF55:
 13757 01fa 54494D5F 		.ascii	"TIM_ICSelection\000"
 13757      49435365 
 13757      6C656374 
 13757      696F6E00 
 13758              	.LASF182:
 13759 020a 746D7031 		.ascii	"tmp1\000"
 13759      00
 13760              	.LASF79:
 13761 020f 54494D5F 		.ascii	"TIM_EncoderInterfaceConfig\000"
 13761      456E636F 
 13761      64657249 
 13761      6E746572 
 13761      66616365 
 13762              	.LASF166:
 13763 022a 54494D5F 		.ascii	"TIM_OC2PreloadConfig\000"
 13763      4F433250 
 13763      72656C6F 
 13763      6164436F 
 13763      6E666967 
 13764              	.LASF117:
 13765 023f 54494D5F 		.ascii	"TIM_GenerateEvent\000"
 13765      47656E65 
 13765      72617465 
 13765      4576656E 
 13765      7400
 13766              	.LASF81:
 13767 0251 54494D5F 		.ascii	"TIM_IC1Polarity\000"
 13767      49433150 
 13767      6F6C6172 
 13767      69747900 
 13768              	.LASF159:
 13769 0261 54494D5F 		.ascii	"TIM_OCFast\000"
 13769      4F434661 
 13769      737400
 13770              	.LASF53:
 13771 026c 54494D5F 		.ascii	"TIM_Channel\000"
 13771      4368616E 
 13771      6E656C00 
 13772              	.LASF22:
 13773 0278 43434D52 		.ascii	"CCMR1\000"
 13773      3100
 13774              	.LASF23:
 13775 027e 43434D52 		.ascii	"CCMR2\000"
 13775      3200
 13776              	.LASF206:
 13777 0284 54494D5F 		.ascii	"TIM_CounterModeConfig\000"
 13777      436F756E 
 13777      7465724D 
 13777      6F646543 
 13777      6F6E6669 
 13778              	.LASF0:
 13779 029a 7369676E 		.ascii	"signed char\000"
ARM GAS  C:\Users\Grillmo\AppData\Local\Temp\ccN7xt8j.s 			page 245


 13779      65642063 
 13779      68617200 
 13780              	.LASF106:
 13781 02a6 54494D5F 		.ascii	"TIM_DMAConfig\000"
 13781      444D4143 
 13781      6F6E6669 
 13781      6700
 13782              	.LASF144:
 13783 02b4 54494D5F 		.ascii	"TIM_CCxCmd\000"
 13783      43437843 
 13783      6D6400
 13784              	.LASF164:
 13785 02bf 54494D5F 		.ascii	"TIM_OCPreload\000"
 13785      4F435072 
 13785      656C6F61 
 13785      6400
 13786              	.LASF188:
 13787 02cd 54494D5F 		.ascii	"TIM_OC3Init\000"
 13787      4F433349 
 13787      6E697400 
 13788              	.LASF110:
 13789 02d9 54494D5F 		.ascii	"TIM_IT\000"
 13789      495400
 13790              	.LASF97:
 13791 02e0 54494D5F 		.ascii	"TIM_ETRClockMode1Config\000"
 13791      45545243 
 13791      6C6F636B 
 13791      4D6F6465 
 13791      31436F6E 
 13792              	.LASF7:
 13793 02f8 6C6F6E67 		.ascii	"long int\000"
 13793      20696E74 
 13793      00
 13794              	.LASF46:
 13795 0301 54494D5F 		.ascii	"TIM_OutputNState\000"
 13795      4F757470 
 13795      75744E53 
 13795      74617465 
 13795      00
 13796              	.LASF36:
 13797 0312 454E4142 		.ascii	"ENABLE\000"
 13797      4C4500
 13798              	.LASF186:
 13799 0319 746D7063 		.ascii	"tmpccmrx\000"
 13799      636D7278 
 13799      00
 13800              	.LASF24:
 13801 0322 43434552 		.ascii	"CCER\000"
 13801      00
 13802              	.LASF10:
 13803 0327 6C6F6E67 		.ascii	"long long int\000"
 13803      206C6F6E 
 13803      6720696E 
 13803      7400
 13804              	.LASF14:
 13805 0335 75696E74 		.ascii	"uint16_t\000"
 13805      31365F74 
ARM GAS  C:\Users\Grillmo\AppData\Local\Temp\ccN7xt8j.s 			page 246


 13805      00
 13806              	.LASF193:
 13807 033e 54494D5F 		.ascii	"TIM_CKD\000"
 13807      434B4400 
 13808              	.LASF202:
 13809 0346 54494D5F 		.ascii	"TIM_SetAutoreload\000"
 13809      53657441 
 13809      75746F72 
 13809      656C6F61 
 13809      6400
 13810              	.LASF140:
 13811 0358 54494D5F 		.ascii	"TIM_ICStructInit\000"
 13811      49435374 
 13811      72756374 
 13811      496E6974 
 13811      00
 13812              	.LASF134:
 13813 0369 54494D5F 		.ascii	"TIM_GetCapture2\000"
 13813      47657443 
 13813      61707475 
 13813      72653200 
 13814              	.LASF133:
 13815 0379 54494D5F 		.ascii	"TIM_GetCapture3\000"
 13815      47657443 
 13815      61707475 
 13815      72653300 
 13816              	.LASF132:
 13817 0389 54494D5F 		.ascii	"TIM_GetCapture4\000"
 13817      47657443 
 13817      61707475 
 13817      72653400 
 13818              	.LASF138:
 13819 0399 69636F70 		.ascii	"icoppositepolarity\000"
 13819      706F7369 
 13819      7465706F 
 13819      6C617269 
 13819      747900
 13820              	.LASF198:
 13821 03ac 54494D5F 		.ascii	"TIM_UpdateSource\000"
 13821      55706461 
 13821      7465536F 
 13821      75726365 
 13821      00
 13822              	.LASF143:
 13823 03bd 54494D5F 		.ascii	"TIM_CCxN\000"
 13823      4343784E 
 13823      00
 13824              	.LASF103:
 13825 03c6 54494D5F 		.ascii	"TIM_SelectCCDMA\000"
 13825      53656C65 
 13825      63744343 
 13825      444D4100 
 13826              	.LASF4:
 13827 03d6 5F5F7569 		.ascii	"__uint16_t\000"
 13827      6E743136 
 13827      5F7400
 13828              	.LASF31:
ARM GAS  C:\Users\Grillmo\AppData\Local\Temp\ccN7xt8j.s 			page 247


 13829 03e1 54494D5F 		.ascii	"TIM_TypeDef\000"
 13829      54797065 
 13829      44656600 
 13830              	.LASF8:
 13831 03ed 5F5F7569 		.ascii	"__uint32_t\000"
 13831      6E743332 
 13831      5F7400
 13832              	.LASF167:
 13833 03f8 54494D5F 		.ascii	"TIM_OC1PreloadConfig\000"
 13833      4F433150 
 13833      72656C6F 
 13833      6164436F 
 13833      6E666967 
 13834              	.LASF108:
 13835 040d 54494D5F 		.ascii	"TIM_DMABurstLength\000"
 13835      444D4142 
 13835      75727374 
 13835      4C656E67 
 13835      746800
 13836              	.LASF119:
 13837 0420 54494D5F 		.ascii	"TIM_ClearFlag\000"
 13837      436C6561 
 13837      72466C61 
 13837      6700
 13838              	.LASF177:
 13839 042e 54494D5F 		.ascii	"TIM_SetCompare2\000"
 13839      53657443 
 13839      6F6D7061 
 13839      72653200 
 13840              	.LASF175:
 13841 043e 54494D5F 		.ascii	"TIM_SetCompare3\000"
 13841      53657443 
 13841      6F6D7061 
 13841      72653300 
 13842              	.LASF122:
 13843 044e 54494D5F 		.ascii	"TIM_SelectCOM\000"
 13843      53656C65 
 13843      6374434F 
 13843      4D00
 13844              	.LASF69:
 13845 045c 746D7063 		.ascii	"tmpccer\000"
 13845      63657200 
 13846              	.LASF149:
 13847 0464 54494D5F 		.ascii	"TIM_OC2NPolarityConfig\000"
 13847      4F43324E 
 13847      506F6C61 
 13847      72697479 
 13847      436F6E66 
 13848              	.LASF12:
 13849 047b 756E7369 		.ascii	"unsigned int\000"
 13849      676E6564 
 13849      20696E74 
 13849      00
 13850              	.LASF70:
 13851 0488 5449345F 		.ascii	"TI4_Config\000"
 13851      436F6E66 
 13851      696700
ARM GAS  C:\Users\Grillmo\AppData\Local\Temp\ccN7xt8j.s 			page 248


 13852              	.LASF48:
 13853 0493 54494D5F 		.ascii	"TIM_OCPolarity\000"
 13853      4F43506F 
 13853      6C617269 
 13853      747900
 13854              	.LASF41:
 13855 04a2 54494D5F 		.ascii	"TIM_ClockDivision\000"
 13855      436C6F63 
 13855      6B446976 
 13855      6973696F 
 13855      6E00
 13856              	.LASF200:
 13857 04b4 54494D5F 		.ascii	"TIM_GetPrescaler\000"
 13857      47657450 
 13857      72657363 
 13857      616C6572 
 13857      00
 13858              	.LASF201:
 13859 04c5 54494D5F 		.ascii	"TIM_GetCounter\000"
 13859      47657443 
 13859      6F756E74 
 13859      657200
 13860              	.LASF211:
 13861 04d4 54494D5F 		.ascii	"TIM_TimeBaseStructInit\000"
 13861      54696D65 
 13861      42617365 
 13861      53747275 
 13861      6374496E 
 13862              	.LASF135:
 13863 04eb 54494D5F 		.ascii	"TIM_GetCapture1\000"
 13863      47657443 
 13863      61707475 
 13863      72653100 
 13864              	.LASF88:
 13865 04fb 54494D5F 		.ascii	"TIM_MasterSlaveMode\000"
 13865      4D617374 
 13865      6572536C 
 13865      6176654D 
 13865      6F646500 
 13866              	.LASF217:
 13867 050f 474E5520 		.ascii	"GNU C99 6.3.1 20170215 (release) [ARM/embedded-6-br"
 13867      43393920 
 13867      362E332E 
 13867      31203230 
 13867      31373032 
 13868 0542 616E6368 		.ascii	"anch revision 245512] -mcpu=cortex-m4 -mfloat-abi=h"
 13868      20726576 
 13868      6973696F 
 13868      6E203234 
 13868      35353132 
 13869 0575 61726420 		.ascii	"ard -mfpu=fpv4-sp-d16 -mno-thumb-interwork -mthumb "
 13869      2D6D6670 
 13869      753D6670 
 13869      76342D73 
 13869      702D6431 
 13870 05a8 2D676764 		.ascii	"-ggdb -O2 -std=gnu99 -fomit-frame-pointer -falign-f"
 13870      62202D4F 
ARM GAS  C:\Users\Grillmo\AppData\Local\Temp\ccN7xt8j.s 			page 249


 13870      32202D73 
 13870      74643D67 
 13870      6E753939 
 13871 05db 756E6374 		.ascii	"unctions=16 -ffunction-sections -fdata-sections -fn"
 13871      696F6E73 
 13871      3D313620 
 13871      2D666675 
 13871      6E637469 
 13872 060e 6F2D636F 		.ascii	"o-common -fsingle-precision-constant\000"
 13872      6D6D6F6E 
 13872      202D6673 
 13872      696E676C 
 13872      652D7072 
 13873              	.LASF89:
 13874 0633 54494D5F 		.ascii	"TIM_SelectSlaveMode\000"
 13874      53656C65 
 13874      6374536C 
 13874      6176654D 
 13874      6F646500 
 13875              	.LASF87:
 13876 0647 54494D5F 		.ascii	"TIM_SelectMasterSlaveMode\000"
 13876      53656C65 
 13876      63744D61 
 13876      73746572 
 13876      536C6176 
 13877              	.LASF116:
 13878 0661 54494D5F 		.ascii	"TIM_GetFlagStatus\000"
 13878      47657446 
 13878      6C616753 
 13878      74617475 
 13878      7300
 13879              	.LASF66:
 13880 0673 54494D5F 		.ascii	"TIM_BDTRInitTypeDef\000"
 13880      42445452 
 13880      496E6974 
 13880      54797065 
 13880      44656600 
 13881              	.LASF184:
 13882 0687 54494D5F 		.ascii	"TIM_OCInitStruct\000"
 13882      4F43496E 
 13882      69745374 
 13882      72756374 
 13882      00
 13883              	.LASF20:
 13884 0698 534D4352 		.ascii	"SMCR\000"
 13884      00
 13885              	.LASF59:
 13886 069d 54494D5F 		.ascii	"TIM_OSSRState\000"
 13886      4F535352 
 13886      53746174 
 13886      6500
 13887              	.LASF67:
 13888 06ab 54494D78 		.ascii	"TIMx\000"
 13888      00
 13889              	.LASF80:
 13890 06b0 54494D5F 		.ascii	"TIM_EncoderMode\000"
 13890      456E636F 
ARM GAS  C:\Users\Grillmo\AppData\Local\Temp\ccN7xt8j.s 			page 250


 13890      6465724D 
 13890      6F646500 
 13891              	.LASF146:
 13892 06c0 54494D5F 		.ascii	"TIM_OC4PolarityConfig\000"
 13892      4F433450 
 13892      6F6C6172 
 13892      69747943 
 13892      6F6E6669 
 13893              	.LASF65:
 13894 06d6 54494D5F 		.ascii	"TIM_AutomaticOutput\000"
 13894      4175746F 
 13894      6D617469 
 13894      634F7574 
 13894      70757400 
 13895              	.LASF91:
 13896 06ea 54494D5F 		.ascii	"TIM_SelectOutputTrigger\000"
 13896      53656C65 
 13896      63744F75 
 13896      74707574 
 13896      54726967 
 13897              	.LASF131:
 13898 0702 54494D5F 		.ascii	"TIM_SetIC1Prescaler\000"
 13898      53657449 
 13898      43315072 
 13898      65736361 
 13898      6C657200 
 13899              	.LASF136:
 13900 0716 54494D5F 		.ascii	"TIM_PWMIConfig\000"
 13900      50574D49 
 13900      436F6E66 
 13900      696700
 13901              	.LASF71:
 13902 0725 5449335F 		.ascii	"TI3_Config\000"
 13902      436F6E66 
 13902      696700
 13903              	.LASF105:
 13904 0730 54494D5F 		.ascii	"TIM_DMASource\000"
 13904      444D4153 
 13904      6F757263 
 13904      6500
 13905              	.LASF183:
 13906 073e 54494D5F 		.ascii	"TIM_OCStructInit\000"
 13906      4F435374 
 13906      72756374 
 13906      496E6974 
 13906      00
 13907              	.LASF210:
 13908 074f 54494D5F 		.ascii	"TIM_PSCReloadMode\000"
 13908      50534352 
 13908      656C6F61 
 13908      644D6F64 
 13908      6500
 13909              	.LASF32:
 13910 0761 52455345 		.ascii	"RESET\000"
 13910      5400
 13911              	.LASF83:
 13912 0767 746D7073 		.ascii	"tmpsmcr\000"
ARM GAS  C:\Users\Grillmo\AppData\Local\Temp\ccN7xt8j.s 			page 251


 13912      6D637200 
 13913              	.LASF85:
 13914 076f 54494D5F 		.ascii	"TIM_ExtTRGPolarity\000"
 13914      45787454 
 13914      5247506F 
 13914      6C617269 
 13914      747900
 13915              	.LASF124:
 13916 0782 54494D5F 		.ascii	"TIM_BDTRStructInit\000"
 13916      42445452 
 13916      53747275 
 13916      6374496E 
 13916      697400
 13917              	.LASF137:
 13918 0795 54494D5F 		.ascii	"TIM_ICInitStruct\000"
 13918      4943496E 
 13918      69745374 
 13918      72756374 
 13918      00
 13919              	.LASF187:
 13920 07a6 746D7063 		.ascii	"tmpcr2\000"
 13920      723200
 13921              	.LASF17:
 13922 07ad 73697A65 		.ascii	"sizetype\000"
 13922      74797065 
 13922      00
 13923              	.LASF84:
 13924 07b6 54494D5F 		.ascii	"TIM_ExtTRGPrescaler\000"
 13924      45787454 
 13924      52475072 
 13924      65736361 
 13924      6C657200 
 13925              	.LASF63:
 13926 07ca 54494D5F 		.ascii	"TIM_Break\000"
 13926      42726561 
 13926      6B00
 13927              	.LASF62:
 13928 07d4 54494D5F 		.ascii	"TIM_DeadTime\000"
 13928      44656164 
 13928      54696D65 
 13928      00
 13929              	.LASF152:
 13930 07e1 54494D5F 		.ascii	"TIM_OC1PolarityConfig\000"
 13930      4F433150 
 13930      6F6C6172 
 13930      69747943 
 13930      6F6E6669 
 13931              	.LASF172:
 13932 07f7 54494D5F 		.ascii	"TIM_ForcedOC1Config\000"
 13932      466F7263 
 13932      65644F43 
 13932      31436F6E 
 13932      66696700 
 13933              	.LASF170:
 13934 080b 54494D5F 		.ascii	"TIM_ForcedOC3Config\000"
 13934      466F7263 
 13934      65644F43 
ARM GAS  C:\Users\Grillmo\AppData\Local\Temp\ccN7xt8j.s 			page 252


 13934      33436F6E 
 13934      66696700 
 13935              	.LASF56:
 13936 081f 54494D5F 		.ascii	"TIM_ICPrescaler\000"
 13936      49435072 
 13936      65736361 
 13936      6C657200 
 13937              	.LASF142:
 13938 082f 54494D5F 		.ascii	"TIM_CCxNCmd\000"
 13938      4343784E 
 13938      436D6400 
 13939              	.LASF174:
 13940 083b 436F6D70 		.ascii	"Compare4\000"
 13940      61726534 
 13940      00
 13941              	.LASF51:
 13942 0844 54494D5F 		.ascii	"TIM_OCNIdleState\000"
 13942      4F434E49 
 13942      646C6553 
 13942      74617465 
 13942      00
 13943              	.LASF112:
 13944 0855 69747374 		.ascii	"itstatus\000"
 13944      61747573 
 13944      00
 13945              	.LASF107:
 13946 085e 54494D5F 		.ascii	"TIM_DMABase\000"
 13946      444D4142 
 13946      61736500 
 13947              	.LASF139:
 13948 086a 69636F70 		.ascii	"icoppositeselection\000"
 13948      706F7369 
 13948      74657365 
 13948      6C656374 
 13948      696F6E00 
 13949              	.LASF37:
 13950 087e 46756E63 		.ascii	"FunctionalState\000"
 13950      74696F6E 
 13950      616C5374 
 13950      61746500 
 13951              	.LASF75:
 13952 088e 54494D5F 		.ascii	"TIM_Remap\000"
 13952      52656D61 
 13952      7000
 13953              	.LASF115:
 13954 0898 54494D5F 		.ascii	"TIM_GetITStatus\000"
 13954      47657449 
 13954      54537461 
 13954      74757300 
 13955              	.LASF212:
 13956 08a8 54494D5F 		.ascii	"TIM_TimeBaseInitStruct\000"
 13956      54696D65 
 13956      42617365 
 13956      496E6974 
 13956      53747275 
 13957              	.LASF216:
 13958 08bf 5243435F 		.ascii	"RCC_APB2PeriphResetCmd\000"
ARM GAS  C:\Users\Grillmo\AppData\Local\Temp\ccN7xt8j.s 			page 253


 13958      41504232 
 13958      50657269 
 13958      70685265 
 13958      73657443 
 13959              	.LASF192:
 13960 08d6 54494D5F 		.ascii	"TIM_SetClockDivision\000"
 13960      53657443 
 13960      6C6F636B 
 13960      44697669 
 13960      73696F6E 
 13961              	.LASF145:
 13962 08eb 54494D5F 		.ascii	"TIM_CCx\000"
 13962      43437800 
 13963              	.LASF219:
 13964 08f3 443A5C65 		.ascii	"D:\\ebikeSystem\000"
 13964      62696B65 
 13964      53797374 
 13964      656D00
 13965              	.LASF205:
 13966 0902 436F756E 		.ascii	"Counter\000"
 13966      74657200 
 13967              	.LASF178:
 13968 090a 436F6D70 		.ascii	"Compare2\000"
 13968      61726532 
 13968      00
 13969              	.LASF45:
 13970 0913 54494D5F 		.ascii	"TIM_OutputState\000"
 13970      4F757470 
 13970      75745374 
 13970      61746500 
 13971              	.LASF118:
 13972 0923 54494D5F 		.ascii	"TIM_EventSource\000"
 13972      4576656E 
 13972      74536F75 
 13972      72636500 
 13973              	.LASF54:
 13974 0933 54494D5F 		.ascii	"TIM_ICPolarity\000"
 13974      4943506F 
 13974      6C617269 
 13974      747900
 13975              	.LASF34:
 13976 0942 49545374 		.ascii	"ITStatus\000"
 13976      61747573 
 13976      00
 13977              	.LASF74:
 13978 094b 5449315F 		.ascii	"TI1_Config\000"
 13978      436F6E66 
 13978      696700
 13979              	.LASF154:
 13980 0956 54494D5F 		.ascii	"TIM_OCClear\000"
 13980      4F43436C 
 13980      65617200 
 13981              	.LASF38:
 13982 0962 54494D5F 		.ascii	"TIM_Prescaler\000"
 13982      50726573 
 13982      63616C65 
 13982      7200
ARM GAS  C:\Users\Grillmo\AppData\Local\Temp\ccN7xt8j.s 			page 254


 13983              	.LASF98:
 13984 0970 54494D5F 		.ascii	"TIM_TIxExternalClockConfig\000"
 13984      54497845 
 13984      78746572 
 13984      6E616C43 
 13984      6C6F636B 
 13985              	.LASF15:
 13986 098b 696E7433 		.ascii	"int32_t\000"
 13986      325F7400 
 13987              	.LASF1:
 13988 0993 756E7369 		.ascii	"unsigned char\000"
 13988      676E6564 
 13988      20636861 
 13988      7200
 13989              	.LASF61:
 13990 09a1 54494D5F 		.ascii	"TIM_LOCKLevel\000"
 13990      4C4F434B 
 13990      4C657665 
 13990      6C00
 13991              	.LASF120:
 13992 09af 54494D5F 		.ascii	"TIM_ITConfig\000"
 13992      4954436F 
 13992      6E666967 
 13992      00
 13993              	.LASF126:
 13994 09bc 54494D5F 		.ascii	"TIM_BDTRConfig\000"
 13994      42445452 
 13994      436F6E66 
 13994      696700
 13995              	.LASF2:
 13996 09cb 73686F72 		.ascii	"short int\000"
 13996      7420696E 
 13996      7400
 13997              	.LASF29:
 13998 09d5 42445452 		.ascii	"BDTR\000"
 13998      00
 13999              	.LASF130:
 14000 09da 54494D5F 		.ascii	"TIM_SetIC2Prescaler\000"
 14000      53657449 
 14000      43325072 
 14000      65736361 
 14000      6C657200 
 14001              	.LASF208:
 14002 09ee 54494D5F 		.ascii	"TIM_PrescalerConfig\000"
 14002      50726573 
 14002      63616C65 
 14002      72436F6E 
 14002      66696700 
 14003              	.LASF101:
 14004 0a02 54494D5F 		.ascii	"TIM_ITRxExternalClockConfig\000"
 14004      49545278 
 14004      45787465 
 14004      726E616C 
 14004      436C6F63 
 14005              	.LASF147:
 14006 0a1e 54494D5F 		.ascii	"TIM_OC3NPolarityConfig\000"
 14006      4F43334E 
ARM GAS  C:\Users\Grillmo\AppData\Local\Temp\ccN7xt8j.s 			page 255


 14006      506F6C61 
 14006      72697479 
 14006      436F6E66 
 14007              	.LASF218:
 14008 0a35 43686962 		.ascii	"ChibiOS_3.0.2/ext/stdperiph_stm32f4/src/stm32f4xx_t"
 14008      694F535F 
 14008      332E302E 
 14008      322F6578 
 14008      742F7374 
 14009 0a68 696D2E63 		.ascii	"im.c\000"
 14009      00
 14010              	.LASF60:
 14011 0a6d 54494D5F 		.ascii	"TIM_OSSIState\000"
 14011      4F535349 
 14011      53746174 
 14011      6500
 14012              	.LASF5:
 14013 0a7b 73686F72 		.ascii	"short unsigned int\000"
 14013      7420756E 
 14013      7369676E 
 14013      65642069 
 14013      6E7400
 14014              	.LASF213:
 14015 0a8e 54494D5F 		.ascii	"TIM_TimeBaseInit\000"
 14015      54696D65 
 14015      42617365 
 14015      496E6974 
 14015      00
 14016              	.LASF99:
 14017 0a9f 54494D5F 		.ascii	"TIM_TIxExternalCLKSource\000"
 14017      54497845 
 14017      78746572 
 14017      6E616C43 
 14017      4C4B536F 
 14018              	.LASF125:
 14019 0ab8 54494D5F 		.ascii	"TIM_BDTRInitStruct\000"
 14019      42445452 
 14019      496E6974 
 14019      53747275 
 14019      637400
 14020              	.LASF72:
 14021 0acb 5449325F 		.ascii	"TI2_Config\000"
 14021      436F6E66 
 14021      696700
 14022              	.LASF161:
 14023 0ad6 54494D5F 		.ascii	"TIM_OC2FastConfig\000"
 14023      4F433246 
 14023      61737443 
 14023      6F6E6669 
 14023      6700
 14024              	.LASF158:
 14025 0ae8 54494D5F 		.ascii	"TIM_OC4FastConfig\000"
 14025      4F433446 
 14025      61737443 
 14025      6F6E6669 
 14025      6700
 14026              	.LASF9:
ARM GAS  C:\Users\Grillmo\AppData\Local\Temp\ccN7xt8j.s 			page 256


 14027 0afa 6C6F6E67 		.ascii	"long unsigned int\000"
 14027      20756E73 
 14027      69676E65 
 14027      6420696E 
 14027      7400
 14028              	.LASF49:
 14029 0b0c 54494D5F 		.ascii	"TIM_OCNPolarity\000"
 14029      4F434E50 
 14029      6F6C6172 
 14029      69747900 
 14030              	.LASF96:
 14031 0b1c 54494D5F 		.ascii	"TIM_ETRClockMode2Config\000"
 14031      45545243 
 14031      6C6F636B 
 14031      4D6F6465 
 14031      32436F6E 
 14032              	.LASF191:
 14033 0b34 54494D5F 		.ascii	"TIM_Cmd\000"
 14033      436D6400 
 14034              	.LASF30:
 14035 0b3c 444D4152 		.ascii	"DMAR\000"
 14035      00
 14036              	.LASF129:
 14037 0b41 54494D5F 		.ascii	"TIM_SetIC3Prescaler\000"
 14037      53657449 
 14037      43335072 
 14037      65736361 
 14037      6C657200 
 14038              	.LASF189:
 14039 0b55 54494D5F 		.ascii	"TIM_OC2Init\000"
 14039      4F433249 
 14039      6E697400 
 14040              	.LASF40:
 14041 0b61 54494D5F 		.ascii	"TIM_Period\000"
 14041      50657269 
 14041      6F6400
 14042              	.LASF43:
 14043 0b6c 54494D5F 		.ascii	"TIM_TimeBaseInitTypeDef\000"
 14043      54696D65 
 14043      42617365 
 14043      496E6974 
 14043      54797065 
 14044              	.LASF109:
 14045 0b84 54494D5F 		.ascii	"TIM_ClearITPendingBit\000"
 14045      436C6561 
 14045      72495450 
 14045      656E6469 
 14045      6E674269 
 14046              	.LASF6:
 14047 0b9a 5F5F696E 		.ascii	"__int32_t\000"
 14047      7433325F 
 14047      7400
 14048              	.LASF58:
 14049 0ba4 54494D5F 		.ascii	"TIM_ICInitTypeDef\000"
 14049      4943496E 
 14049      69745479 
 14049      70654465 
ARM GAS  C:\Users\Grillmo\AppData\Local\Temp\ccN7xt8j.s 			page 257


 14049      6600
 14050              	.LASF185:
 14051 0bb6 54494D5F 		.ascii	"TIM_OC4Init\000"
 14051      4F433449 
 14051      6E697400 
 14052              	.LASF141:
 14053 0bc2 54494D5F 		.ascii	"TIM_ICInit\000"
 14053      4943496E 
 14053      697400
 14054              	.LASF173:
 14055 0bcd 54494D5F 		.ascii	"TIM_SetCompare4\000"
 14055      53657443 
 14055      6F6D7061 
 14055      72653400 
 14056              	.LASF181:
 14057 0bdd 54494D5F 		.ascii	"TIM_SelectOCxM\000"
 14057      53656C65 
 14057      63744F43 
 14057      784D00
 14058              	.LASF197:
 14059 0bec 54494D5F 		.ascii	"TIM_UpdateRequestConfig\000"
 14059      55706461 
 14059      74655265 
 14059      71756573 
 14059      74436F6E 
 14060              	.LASF209:
 14061 0c04 50726573 		.ascii	"Prescaler\000"
 14061      63616C65 
 14061      7200
 14062              	.LASF163:
 14063 0c0e 54494D5F 		.ascii	"TIM_OC4PreloadConfig\000"
 14063      4F433450 
 14063      72656C6F 
 14063      6164436F 
 14063      6E666967 
 14064              	.LASF155:
 14065 0c23 54494D5F 		.ascii	"TIM_ClearOC3Ref\000"
 14065      436C6561 
 14065      724F4333 
 14065      52656600 
 14066              	.LASF90:
 14067 0c33 54494D5F 		.ascii	"TIM_SlaveMode\000"
 14067      536C6176 
 14067      654D6F64 
 14067      6500
 14068              	.LASF44:
 14069 0c41 54494D5F 		.ascii	"TIM_OCMode\000"
 14069      4F434D6F 
 14069      646500
 14070              	.LASF153:
 14071 0c4c 54494D5F 		.ascii	"TIM_ClearOC4Ref\000"
 14071      436C6561 
 14071      724F4334 
 14071      52656600 
 14072              	.LASF64:
 14073 0c5c 54494D5F 		.ascii	"TIM_BreakPolarity\000"
 14073      42726561 
ARM GAS  C:\Users\Grillmo\AppData\Local\Temp\ccN7xt8j.s 			page 258


 14073      6B506F6C 
 14073      61726974 
 14073      7900
 14074              	.LASF151:
 14075 0c6e 54494D5F 		.ascii	"TIM_OC1NPolarityConfig\000"
 14075      4F43314E 
 14075      506F6C61 
 14075      72697479 
 14075      436F6E66 
 14076              	.LASF121:
 14077 0c85 54494D5F 		.ascii	"TIM_CCPreloadControl\000"
 14077      43435072 
 14077      656C6F61 
 14077      64436F6E 
 14077      74726F6C 
 14078              	.LASF19:
 14079 0c9a 53797374 		.ascii	"SystemCoreClock\000"
 14079      656D436F 
 14079      7265436C 
 14079      6F636B00 
 14080              	.LASF16:
 14081 0caa 75696E74 		.ascii	"uint32_t\000"
 14081      33325F74 
 14081      00
 14082              	.LASF25:
 14083 0cb3 43435231 		.ascii	"CCR1\000"
 14083      00
 14084              	.LASF26:
 14085 0cb8 43435232 		.ascii	"CCR2\000"
 14085      00
 14086              	.LASF27:
 14087 0cbd 43435233 		.ascii	"CCR3\000"
 14087      00
 14088              	.LASF28:
 14089 0cc2 43435234 		.ascii	"CCR4\000"
 14089      00
 14090              	.LASF52:
 14091 0cc7 54494D5F 		.ascii	"TIM_OCInitTypeDef\000"
 14091      4F43496E 
 14091      69745479 
 14091      70654465 
 14091      6600
 14092              	.LASF204:
 14093 0cd9 54494D5F 		.ascii	"TIM_SetCounter\000"
 14093      53657443 
 14093      6F756E74 
 14093      657200
 14094              	.LASF113:
 14095 0ce8 6974656E 		.ascii	"itenable\000"
 14095      61626C65 
 14095      00
 14096              	.LASF13:
 14097 0cf1 75696E74 		.ascii	"uint8_t\000"
 14097      385F7400 
 14098              	.LASF148:
 14099 0cf9 54494D5F 		.ascii	"TIM_OC3PolarityConfig\000"
 14099      4F433350 
ARM GAS  C:\Users\Grillmo\AppData\Local\Temp\ccN7xt8j.s 			page 259


 14099      6F6C6172 
 14099      69747943 
 14099      6F6E6669 
 14100              	.LASF76:
 14101 0d0f 54494D5F 		.ascii	"TIM_RemapConfig\000"
 14101      52656D61 
 14101      70436F6E 
 14101      66696700 
 14102              	.LASF190:
 14103 0d1f 54494D5F 		.ascii	"TIM_OC1Init\000"
 14103      4F433149 
 14103      6E697400 
 14104              	.LASF42:
 14105 0d2b 54494D5F 		.ascii	"TIM_RepetitionCounter\000"
 14105      52657065 
 14105      74697469 
 14105      6F6E436F 
 14105      756E7465 
 14106              	.LASF77:
 14107 0d41 54494D5F 		.ascii	"TIM_SelectHallSensor\000"
 14107      53656C65 
 14107      63744861 
 14107      6C6C5365 
 14107      6E736F72 
 14108              	.LASF111:
 14109 0d56 62697473 		.ascii	"bitstatus\000"
 14109      74617475 
 14109      7300
 14110              	.LASF100:
 14111 0d60 49434669 		.ascii	"ICFilter\000"
 14111      6C746572 
 14111      00
 14112              	.LASF156:
 14113 0d69 54494D5F 		.ascii	"TIM_ClearOC2Ref\000"
 14113      436C6561 
 14113      724F4332 
 14113      52656600 
 14114              	.LASF86:
 14115 0d79 45787454 		.ascii	"ExtTRGFilter\000"
 14115      52474669 
 14115      6C746572 
 14115      00
 14116              	.LASF50:
 14117 0d86 54494D5F 		.ascii	"TIM_OCIdleState\000"
 14117      4F434964 
 14117      6C655374 
 14117      61746500 
 14118              	.LASF123:
 14119 0d96 54494D5F 		.ascii	"TIM_CtrlPWMOutputs\000"
 14119      4374726C 
 14119      50574D4F 
 14119      75747075 
 14119      747300
 14120              	.LASF128:
 14121 0da9 54494D5F 		.ascii	"TIM_ICPSC\000"
 14121      49435053 
 14121      4300
ARM GAS  C:\Users\Grillmo\AppData\Local\Temp\ccN7xt8j.s 			page 260


 14122              	.LASF93:
 14123 0db3 54494D5F 		.ascii	"TIM_ETRConfig\000"
 14123      45545243 
 14123      6F6E6669 
 14123      6700
 14124              	.LASF214:
 14125 0dc1 54494D5F 		.ascii	"TIM_DeInit\000"
 14125      4465496E 
 14125      697400
 14126              	.LASF160:
 14127 0dcc 54494D5F 		.ascii	"TIM_OC3FastConfig\000"
 14127      4F433346 
 14127      61737443 
 14127      6F6E6669 
 14127      6700
 14128              	.LASF165:
 14129 0dde 54494D5F 		.ascii	"TIM_OC3PreloadConfig\000"
 14129      4F433350 
 14129      72656C6F 
 14129      6164436F 
 14129      6E666967 
 14130              	.LASF127:
 14131 0df3 54494D5F 		.ascii	"TIM_SetIC4Prescaler\000"
 14131      53657449 
 14131      43345072 
 14131      65736361 
 14131      6C657200 
 14132              	.LASF162:
 14133 0e07 54494D5F 		.ascii	"TIM_OC1FastConfig\000"
 14133      4F433146 
 14133      61737443 
 14133      6F6E6669 
 14133      6700
 14134              		.ident	"GCC: (GNU Tools for ARM Embedded Processors 6-2017-q1-update) 6.3.1 20170215 (release) [AR
ARM GAS  C:\Users\Grillmo\AppData\Local\Temp\ccN7xt8j.s 			page 261


DEFINED SYMBOLS
                            *ABS*:00000000 stm32f4xx_tim.c
C:\Users\Grillmo\AppData\Local\Temp\ccN7xt8j.s:18     .text.TIM_DeInit:00000000 $t
C:\Users\Grillmo\AppData\Local\Temp\ccN7xt8j.s:26     .text.TIM_DeInit:00000000 TIM_DeInit
C:\Users\Grillmo\AppData\Local\Temp\ccN7xt8j.s:375    .text.TIM_DeInit:00000184 $d
C:\Users\Grillmo\AppData\Local\Temp\ccN7xt8j.s:392    .text.TIM_TimeBaseInit:00000000 $t
C:\Users\Grillmo\AppData\Local\Temp\ccN7xt8j.s:400    .text.TIM_TimeBaseInit:00000000 TIM_TimeBaseInit
C:\Users\Grillmo\AppData\Local\Temp\ccN7xt8j.s:539    .text.TIM_TimeBaseInit:00000090 $d
C:\Users\Grillmo\AppData\Local\Temp\ccN7xt8j.s:546    .text.TIM_TimeBaseStructInit:00000000 $t
C:\Users\Grillmo\AppData\Local\Temp\ccN7xt8j.s:554    .text.TIM_TimeBaseStructInit:00000000 TIM_TimeBaseStructInit
C:\Users\Grillmo\AppData\Local\Temp\ccN7xt8j.s:580    .text.TIM_PrescalerConfig:00000000 $t
C:\Users\Grillmo\AppData\Local\Temp\ccN7xt8j.s:588    .text.TIM_PrescalerConfig:00000000 TIM_PrescalerConfig
C:\Users\Grillmo\AppData\Local\Temp\ccN7xt8j.s:605    .text.TIM_CounterModeConfig:00000000 $t
C:\Users\Grillmo\AppData\Local\Temp\ccN7xt8j.s:613    .text.TIM_CounterModeConfig:00000000 TIM_CounterModeConfig
C:\Users\Grillmo\AppData\Local\Temp\ccN7xt8j.s:637    .text.TIM_SetCounter:00000000 $t
C:\Users\Grillmo\AppData\Local\Temp\ccN7xt8j.s:645    .text.TIM_SetCounter:00000000 TIM_SetCounter
C:\Users\Grillmo\AppData\Local\Temp\ccN7xt8j.s:660    .text.TIM_SetAutoreload:00000000 $t
C:\Users\Grillmo\AppData\Local\Temp\ccN7xt8j.s:668    .text.TIM_SetAutoreload:00000000 TIM_SetAutoreload
C:\Users\Grillmo\AppData\Local\Temp\ccN7xt8j.s:683    .text.TIM_GetCounter:00000000 $t
C:\Users\Grillmo\AppData\Local\Temp\ccN7xt8j.s:691    .text.TIM_GetCounter:00000000 TIM_GetCounter
C:\Users\Grillmo\AppData\Local\Temp\ccN7xt8j.s:708    .text.TIM_GetPrescaler:00000000 $t
C:\Users\Grillmo\AppData\Local\Temp\ccN7xt8j.s:716    .text.TIM_GetPrescaler:00000000 TIM_GetPrescaler
C:\Users\Grillmo\AppData\Local\Temp\ccN7xt8j.s:734    .text.TIM_UpdateDisableConfig:00000000 $t
C:\Users\Grillmo\AppData\Local\Temp\ccN7xt8j.s:742    .text.TIM_UpdateDisableConfig:00000000 TIM_UpdateDisableConfig
C:\Users\Grillmo\AppData\Local\Temp\ccN7xt8j.s:768    .text.TIM_UpdateRequestConfig:00000000 $t
C:\Users\Grillmo\AppData\Local\Temp\ccN7xt8j.s:776    .text.TIM_UpdateRequestConfig:00000000 TIM_UpdateRequestConfig
C:\Users\Grillmo\AppData\Local\Temp\ccN7xt8j.s:802    .text.TIM_ARRPreloadConfig:00000000 $t
C:\Users\Grillmo\AppData\Local\Temp\ccN7xt8j.s:810    .text.TIM_ARRPreloadConfig:00000000 TIM_ARRPreloadConfig
C:\Users\Grillmo\AppData\Local\Temp\ccN7xt8j.s:836    .text.TIM_SelectOnePulseMode:00000000 $t
C:\Users\Grillmo\AppData\Local\Temp\ccN7xt8j.s:844    .text.TIM_SelectOnePulseMode:00000000 TIM_SelectOnePulseMode
C:\Users\Grillmo\AppData\Local\Temp\ccN7xt8j.s:867    .text.TIM_SetClockDivision:00000000 $t
C:\Users\Grillmo\AppData\Local\Temp\ccN7xt8j.s:875    .text.TIM_SetClockDivision:00000000 TIM_SetClockDivision
C:\Users\Grillmo\AppData\Local\Temp\ccN7xt8j.s:898    .text.TIM_Cmd:00000000 $t
C:\Users\Grillmo\AppData\Local\Temp\ccN7xt8j.s:906    .text.TIM_Cmd:00000000 TIM_Cmd
C:\Users\Grillmo\AppData\Local\Temp\ccN7xt8j.s:932    .text.TIM_OC1Init:00000000 $t
C:\Users\Grillmo\AppData\Local\Temp\ccN7xt8j.s:940    .text.TIM_OC1Init:00000000 TIM_OC1Init
C:\Users\Grillmo\AppData\Local\Temp\ccN7xt8j.s:1050   .text.TIM_OC1Init:0000006c $d
C:\Users\Grillmo\AppData\Local\Temp\ccN7xt8j.s:1056   .text.TIM_OC2Init:00000000 $t
C:\Users\Grillmo\AppData\Local\Temp\ccN7xt8j.s:1064   .text.TIM_OC2Init:00000000 TIM_OC2Init
C:\Users\Grillmo\AppData\Local\Temp\ccN7xt8j.s:1181   .text.TIM_OC2Init:0000007c $d
C:\Users\Grillmo\AppData\Local\Temp\ccN7xt8j.s:1186   .text.TIM_OC3Init:00000000 $t
C:\Users\Grillmo\AppData\Local\Temp\ccN7xt8j.s:1194   .text.TIM_OC3Init:00000000 TIM_OC3Init
C:\Users\Grillmo\AppData\Local\Temp\ccN7xt8j.s:1309   .text.TIM_OC3Init:0000007c $d
C:\Users\Grillmo\AppData\Local\Temp\ccN7xt8j.s:1314   .text.TIM_OC4Init:00000000 $t
C:\Users\Grillmo\AppData\Local\Temp\ccN7xt8j.s:1322   .text.TIM_OC4Init:00000000 TIM_OC4Init
C:\Users\Grillmo\AppData\Local\Temp\ccN7xt8j.s:1416   .text.TIM_OC4Init:00000060 $d
C:\Users\Grillmo\AppData\Local\Temp\ccN7xt8j.s:1422   .text.TIM_OCStructInit:00000000 $t
C:\Users\Grillmo\AppData\Local\Temp\ccN7xt8j.s:1430   .text.TIM_OCStructInit:00000000 TIM_OCStructInit
C:\Users\Grillmo\AppData\Local\Temp\ccN7xt8j.s:1460   .text.TIM_SelectOCxM:00000000 $t
C:\Users\Grillmo\AppData\Local\Temp\ccN7xt8j.s:1468   .text.TIM_SelectOCxM:00000000 TIM_SelectOCxM
C:\Users\Grillmo\AppData\Local\Temp\ccN7xt8j.s:1549   .text.TIM_SetCompare1:00000000 $t
C:\Users\Grillmo\AppData\Local\Temp\ccN7xt8j.s:1557   .text.TIM_SetCompare1:00000000 TIM_SetCompare1
C:\Users\Grillmo\AppData\Local\Temp\ccN7xt8j.s:1572   .text.TIM_SetCompare2:00000000 $t
C:\Users\Grillmo\AppData\Local\Temp\ccN7xt8j.s:1580   .text.TIM_SetCompare2:00000000 TIM_SetCompare2
C:\Users\Grillmo\AppData\Local\Temp\ccN7xt8j.s:1595   .text.TIM_SetCompare3:00000000 $t
C:\Users\Grillmo\AppData\Local\Temp\ccN7xt8j.s:1603   .text.TIM_SetCompare3:00000000 TIM_SetCompare3
C:\Users\Grillmo\AppData\Local\Temp\ccN7xt8j.s:1618   .text.TIM_SetCompare4:00000000 $t
ARM GAS  C:\Users\Grillmo\AppData\Local\Temp\ccN7xt8j.s 			page 262


C:\Users\Grillmo\AppData\Local\Temp\ccN7xt8j.s:1626   .text.TIM_SetCompare4:00000000 TIM_SetCompare4
C:\Users\Grillmo\AppData\Local\Temp\ccN7xt8j.s:1641   .text.TIM_ForcedOC1Config:00000000 $t
C:\Users\Grillmo\AppData\Local\Temp\ccN7xt8j.s:1649   .text.TIM_ForcedOC1Config:00000000 TIM_ForcedOC1Config
C:\Users\Grillmo\AppData\Local\Temp\ccN7xt8j.s:1673   .text.TIM_ForcedOC2Config:00000000 $t
C:\Users\Grillmo\AppData\Local\Temp\ccN7xt8j.s:1681   .text.TIM_ForcedOC2Config:00000000 TIM_ForcedOC2Config
C:\Users\Grillmo\AppData\Local\Temp\ccN7xt8j.s:1707   .text.TIM_ForcedOC3Config:00000000 $t
C:\Users\Grillmo\AppData\Local\Temp\ccN7xt8j.s:1715   .text.TIM_ForcedOC3Config:00000000 TIM_ForcedOC3Config
C:\Users\Grillmo\AppData\Local\Temp\ccN7xt8j.s:1739   .text.TIM_ForcedOC4Config:00000000 $t
C:\Users\Grillmo\AppData\Local\Temp\ccN7xt8j.s:1747   .text.TIM_ForcedOC4Config:00000000 TIM_ForcedOC4Config
C:\Users\Grillmo\AppData\Local\Temp\ccN7xt8j.s:1773   .text.TIM_OC1PreloadConfig:00000000 $t
C:\Users\Grillmo\AppData\Local\Temp\ccN7xt8j.s:1781   .text.TIM_OC1PreloadConfig:00000000 TIM_OC1PreloadConfig
C:\Users\Grillmo\AppData\Local\Temp\ccN7xt8j.s:1805   .text.TIM_OC2PreloadConfig:00000000 $t
C:\Users\Grillmo\AppData\Local\Temp\ccN7xt8j.s:1813   .text.TIM_OC2PreloadConfig:00000000 TIM_OC2PreloadConfig
C:\Users\Grillmo\AppData\Local\Temp\ccN7xt8j.s:1839   .text.TIM_OC3PreloadConfig:00000000 $t
C:\Users\Grillmo\AppData\Local\Temp\ccN7xt8j.s:1847   .text.TIM_OC3PreloadConfig:00000000 TIM_OC3PreloadConfig
C:\Users\Grillmo\AppData\Local\Temp\ccN7xt8j.s:1871   .text.TIM_OC4PreloadConfig:00000000 $t
C:\Users\Grillmo\AppData\Local\Temp\ccN7xt8j.s:1879   .text.TIM_OC4PreloadConfig:00000000 TIM_OC4PreloadConfig
C:\Users\Grillmo\AppData\Local\Temp\ccN7xt8j.s:1905   .text.TIM_OC1FastConfig:00000000 $t
C:\Users\Grillmo\AppData\Local\Temp\ccN7xt8j.s:1913   .text.TIM_OC1FastConfig:00000000 TIM_OC1FastConfig
C:\Users\Grillmo\AppData\Local\Temp\ccN7xt8j.s:1937   .text.TIM_OC2FastConfig:00000000 $t
C:\Users\Grillmo\AppData\Local\Temp\ccN7xt8j.s:1945   .text.TIM_OC2FastConfig:00000000 TIM_OC2FastConfig
C:\Users\Grillmo\AppData\Local\Temp\ccN7xt8j.s:1971   .text.TIM_OC3FastConfig:00000000 $t
C:\Users\Grillmo\AppData\Local\Temp\ccN7xt8j.s:1979   .text.TIM_OC3FastConfig:00000000 TIM_OC3FastConfig
C:\Users\Grillmo\AppData\Local\Temp\ccN7xt8j.s:2003   .text.TIM_OC4FastConfig:00000000 $t
C:\Users\Grillmo\AppData\Local\Temp\ccN7xt8j.s:2011   .text.TIM_OC4FastConfig:00000000 TIM_OC4FastConfig
C:\Users\Grillmo\AppData\Local\Temp\ccN7xt8j.s:2037   .text.TIM_ClearOC1Ref:00000000 $t
C:\Users\Grillmo\AppData\Local\Temp\ccN7xt8j.s:2045   .text.TIM_ClearOC1Ref:00000000 TIM_ClearOC1Ref
C:\Users\Grillmo\AppData\Local\Temp\ccN7xt8j.s:2069   .text.TIM_ClearOC2Ref:00000000 $t
C:\Users\Grillmo\AppData\Local\Temp\ccN7xt8j.s:2077   .text.TIM_ClearOC2Ref:00000000 TIM_ClearOC2Ref
C:\Users\Grillmo\AppData\Local\Temp\ccN7xt8j.s:2102   .text.TIM_ClearOC3Ref:00000000 $t
C:\Users\Grillmo\AppData\Local\Temp\ccN7xt8j.s:2110   .text.TIM_ClearOC3Ref:00000000 TIM_ClearOC3Ref
C:\Users\Grillmo\AppData\Local\Temp\ccN7xt8j.s:2134   .text.TIM_ClearOC4Ref:00000000 $t
C:\Users\Grillmo\AppData\Local\Temp\ccN7xt8j.s:2142   .text.TIM_ClearOC4Ref:00000000 TIM_ClearOC4Ref
C:\Users\Grillmo\AppData\Local\Temp\ccN7xt8j.s:2167   .text.TIM_OC1PolarityConfig:00000000 $t
C:\Users\Grillmo\AppData\Local\Temp\ccN7xt8j.s:2175   .text.TIM_OC1PolarityConfig:00000000 TIM_OC1PolarityConfig
C:\Users\Grillmo\AppData\Local\Temp\ccN7xt8j.s:2199   .text.TIM_OC1NPolarityConfig:00000000 $t
C:\Users\Grillmo\AppData\Local\Temp\ccN7xt8j.s:2207   .text.TIM_OC1NPolarityConfig:00000000 TIM_OC1NPolarityConfig
C:\Users\Grillmo\AppData\Local\Temp\ccN7xt8j.s:2231   .text.TIM_OC2PolarityConfig:00000000 $t
C:\Users\Grillmo\AppData\Local\Temp\ccN7xt8j.s:2239   .text.TIM_OC2PolarityConfig:00000000 TIM_OC2PolarityConfig
C:\Users\Grillmo\AppData\Local\Temp\ccN7xt8j.s:2265   .text.TIM_OC2NPolarityConfig:00000000 $t
C:\Users\Grillmo\AppData\Local\Temp\ccN7xt8j.s:2273   .text.TIM_OC2NPolarityConfig:00000000 TIM_OC2NPolarityConfig
C:\Users\Grillmo\AppData\Local\Temp\ccN7xt8j.s:2299   .text.TIM_OC3PolarityConfig:00000000 $t
C:\Users\Grillmo\AppData\Local\Temp\ccN7xt8j.s:2307   .text.TIM_OC3PolarityConfig:00000000 TIM_OC3PolarityConfig
C:\Users\Grillmo\AppData\Local\Temp\ccN7xt8j.s:2333   .text.TIM_OC3NPolarityConfig:00000000 $t
C:\Users\Grillmo\AppData\Local\Temp\ccN7xt8j.s:2341   .text.TIM_OC3NPolarityConfig:00000000 TIM_OC3NPolarityConfig
C:\Users\Grillmo\AppData\Local\Temp\ccN7xt8j.s:2367   .text.TIM_OC4PolarityConfig:00000000 $t
C:\Users\Grillmo\AppData\Local\Temp\ccN7xt8j.s:2375   .text.TIM_OC4PolarityConfig:00000000 TIM_OC4PolarityConfig
C:\Users\Grillmo\AppData\Local\Temp\ccN7xt8j.s:2401   .text.TIM_CCxCmd:00000000 $t
C:\Users\Grillmo\AppData\Local\Temp\ccN7xt8j.s:2409   .text.TIM_CCxCmd:00000000 TIM_CCxCmd
C:\Users\Grillmo\AppData\Local\Temp\ccN7xt8j.s:2449   .text.TIM_CCxNCmd:00000000 $t
C:\Users\Grillmo\AppData\Local\Temp\ccN7xt8j.s:2457   .text.TIM_CCxNCmd:00000000 TIM_CCxNCmd
C:\Users\Grillmo\AppData\Local\Temp\ccN7xt8j.s:2497   .text.TIM_ICInit:00000000 $t
C:\Users\Grillmo\AppData\Local\Temp\ccN7xt8j.s:2505   .text.TIM_ICInit:00000000 TIM_ICInit
C:\Users\Grillmo\AppData\Local\Temp\ccN7xt8j.s:2858   .text.TIM_ICStructInit:00000000 $t
C:\Users\Grillmo\AppData\Local\Temp\ccN7xt8j.s:2866   .text.TIM_ICStructInit:00000000 TIM_ICStructInit
C:\Users\Grillmo\AppData\Local\Temp\ccN7xt8j.s:2892   .text.TIM_PWMIConfig:00000000 $t
C:\Users\Grillmo\AppData\Local\Temp\ccN7xt8j.s:2900   .text.TIM_PWMIConfig:00000000 TIM_PWMIConfig
ARM GAS  C:\Users\Grillmo\AppData\Local\Temp\ccN7xt8j.s 			page 263


C:\Users\Grillmo\AppData\Local\Temp\ccN7xt8j.s:3196   .text.TIM_GetCapture1:00000000 $t
C:\Users\Grillmo\AppData\Local\Temp\ccN7xt8j.s:3204   .text.TIM_GetCapture1:00000000 TIM_GetCapture1
C:\Users\Grillmo\AppData\Local\Temp\ccN7xt8j.s:3221   .text.TIM_GetCapture2:00000000 $t
C:\Users\Grillmo\AppData\Local\Temp\ccN7xt8j.s:3229   .text.TIM_GetCapture2:00000000 TIM_GetCapture2
C:\Users\Grillmo\AppData\Local\Temp\ccN7xt8j.s:3246   .text.TIM_GetCapture3:00000000 $t
C:\Users\Grillmo\AppData\Local\Temp\ccN7xt8j.s:3254   .text.TIM_GetCapture3:00000000 TIM_GetCapture3
C:\Users\Grillmo\AppData\Local\Temp\ccN7xt8j.s:3271   .text.TIM_GetCapture4:00000000 $t
C:\Users\Grillmo\AppData\Local\Temp\ccN7xt8j.s:3279   .text.TIM_GetCapture4:00000000 TIM_GetCapture4
C:\Users\Grillmo\AppData\Local\Temp\ccN7xt8j.s:3296   .text.TIM_SetIC1Prescaler:00000000 $t
C:\Users\Grillmo\AppData\Local\Temp\ccN7xt8j.s:3304   .text.TIM_SetIC1Prescaler:00000000 TIM_SetIC1Prescaler
C:\Users\Grillmo\AppData\Local\Temp\ccN7xt8j.s:3327   .text.TIM_SetIC2Prescaler:00000000 $t
C:\Users\Grillmo\AppData\Local\Temp\ccN7xt8j.s:3335   .text.TIM_SetIC2Prescaler:00000000 TIM_SetIC2Prescaler
C:\Users\Grillmo\AppData\Local\Temp\ccN7xt8j.s:3360   .text.TIM_SetIC3Prescaler:00000000 $t
C:\Users\Grillmo\AppData\Local\Temp\ccN7xt8j.s:3368   .text.TIM_SetIC3Prescaler:00000000 TIM_SetIC3Prescaler
C:\Users\Grillmo\AppData\Local\Temp\ccN7xt8j.s:3391   .text.TIM_SetIC4Prescaler:00000000 $t
C:\Users\Grillmo\AppData\Local\Temp\ccN7xt8j.s:3399   .text.TIM_SetIC4Prescaler:00000000 TIM_SetIC4Prescaler
C:\Users\Grillmo\AppData\Local\Temp\ccN7xt8j.s:3424   .text.TIM_BDTRConfig:00000000 $t
C:\Users\Grillmo\AppData\Local\Temp\ccN7xt8j.s:3432   .text.TIM_BDTRConfig:00000000 TIM_BDTRConfig
C:\Users\Grillmo\AppData\Local\Temp\ccN7xt8j.s:3476   .text.TIM_BDTRStructInit:00000000 $t
C:\Users\Grillmo\AppData\Local\Temp\ccN7xt8j.s:3484   .text.TIM_BDTRStructInit:00000000 TIM_BDTRStructInit
C:\Users\Grillmo\AppData\Local\Temp\ccN7xt8j.s:3512   .text.TIM_CtrlPWMOutputs:00000000 $t
C:\Users\Grillmo\AppData\Local\Temp\ccN7xt8j.s:3520   .text.TIM_CtrlPWMOutputs:00000000 TIM_CtrlPWMOutputs
C:\Users\Grillmo\AppData\Local\Temp\ccN7xt8j.s:3545   .text.TIM_SelectCOM:00000000 $t
C:\Users\Grillmo\AppData\Local\Temp\ccN7xt8j.s:3553   .text.TIM_SelectCOM:00000000 TIM_SelectCOM
C:\Users\Grillmo\AppData\Local\Temp\ccN7xt8j.s:3579   .text.TIM_CCPreloadControl:00000000 $t
C:\Users\Grillmo\AppData\Local\Temp\ccN7xt8j.s:3587   .text.TIM_CCPreloadControl:00000000 TIM_CCPreloadControl
C:\Users\Grillmo\AppData\Local\Temp\ccN7xt8j.s:3613   .text.TIM_GenerateEvent:00000000 $t
C:\Users\Grillmo\AppData\Local\Temp\ccN7xt8j.s:3621   .text.TIM_GenerateEvent:00000000 TIM_GenerateEvent
C:\Users\Grillmo\AppData\Local\Temp\ccN7xt8j.s:3636   .text.TIM_GetFlagStatus:00000000 $t
C:\Users\Grillmo\AppData\Local\Temp\ccN7xt8j.s:3644   .text.TIM_GetFlagStatus:00000000 TIM_GetFlagStatus
C:\Users\Grillmo\AppData\Local\Temp\ccN7xt8j.s:3666   .text.TIM_ClearFlag:00000000 $t
C:\Users\Grillmo\AppData\Local\Temp\ccN7xt8j.s:3674   .text.TIM_ClearFlag:00000000 TIM_ClearFlag
C:\Users\Grillmo\AppData\Local\Temp\ccN7xt8j.s:3688   .text.TIM_GetITStatus:00000000 $t
C:\Users\Grillmo\AppData\Local\Temp\ccN7xt8j.s:3696   .text.TIM_GetITStatus:00000000 TIM_GetITStatus
C:\Users\Grillmo\AppData\Local\Temp\ccN7xt8j.s:3727   .text.TIM_ClearITPendingBit:00000000 $t
C:\Users\Grillmo\AppData\Local\Temp\ccN7xt8j.s:3735   .text.TIM_ClearITPendingBit:00000000 TIM_ClearITPendingBit
C:\Users\Grillmo\AppData\Local\Temp\ccN7xt8j.s:3753   .text.TIM_DMAConfig:00000000 $t
C:\Users\Grillmo\AppData\Local\Temp\ccN7xt8j.s:3761   .text.TIM_DMAConfig:00000000 TIM_DMAConfig
C:\Users\Grillmo\AppData\Local\Temp\ccN7xt8j.s:3778   .text.TIM_DMACmd:00000000 $t
C:\Users\Grillmo\AppData\Local\Temp\ccN7xt8j.s:3786   .text.TIM_DMACmd:00000000 TIM_DMACmd
C:\Users\Grillmo\AppData\Local\Temp\ccN7xt8j.s:3816   .text.TIM_ITConfig:00000000 $t
C:\Users\Grillmo\AppData\Local\Temp\ccN7xt8j.s:3824   .text.TIM_ITConfig:00000000 TIM_ITConfig
C:\Users\Grillmo\AppData\Local\Temp\ccN7xt8j.s:3835   .text.TIM_SelectCCDMA:00000000 $t
C:\Users\Grillmo\AppData\Local\Temp\ccN7xt8j.s:3843   .text.TIM_SelectCCDMA:00000000 TIM_SelectCCDMA
C:\Users\Grillmo\AppData\Local\Temp\ccN7xt8j.s:3869   .text.TIM_InternalClockConfig:00000000 $t
C:\Users\Grillmo\AppData\Local\Temp\ccN7xt8j.s:3877   .text.TIM_InternalClockConfig:00000000 TIM_InternalClockConfig
C:\Users\Grillmo\AppData\Local\Temp\ccN7xt8j.s:3895   .text.TIM_ITRxExternalClockConfig:00000000 $t
C:\Users\Grillmo\AppData\Local\Temp\ccN7xt8j.s:3903   .text.TIM_ITRxExternalClockConfig:00000000 TIM_ITRxExternalClockConfig
C:\Users\Grillmo\AppData\Local\Temp\ccN7xt8j.s:3936   .text.TIM_TIxExternalClockConfig:00000000 $t
C:\Users\Grillmo\AppData\Local\Temp\ccN7xt8j.s:3944   .text.TIM_TIxExternalClockConfig:00000000 TIM_TIxExternalClockConfig
C:\Users\Grillmo\AppData\Local\Temp\ccN7xt8j.s:4086   .text.TIM_ETRClockMode1Config:00000000 $t
C:\Users\Grillmo\AppData\Local\Temp\ccN7xt8j.s:4094   .text.TIM_ETRClockMode1Config:00000000 TIM_ETRClockMode1Config
C:\Users\Grillmo\AppData\Local\Temp\ccN7xt8j.s:4147   .text.TIM_ETRClockMode2Config:00000000 $t
C:\Users\Grillmo\AppData\Local\Temp\ccN7xt8j.s:4155   .text.TIM_ETRClockMode2Config:00000000 TIM_ETRClockMode2Config
C:\Users\Grillmo\AppData\Local\Temp\ccN7xt8j.s:4202   .text.TIM_SelectInputTrigger:00000000 $t
C:\Users\Grillmo\AppData\Local\Temp\ccN7xt8j.s:4210   .text.TIM_SelectInputTrigger:00000000 TIM_SelectInputTrigger
C:\Users\Grillmo\AppData\Local\Temp\ccN7xt8j.s:4234   .text.TIM_SelectOutputTrigger:00000000 $t
ARM GAS  C:\Users\Grillmo\AppData\Local\Temp\ccN7xt8j.s 			page 264


C:\Users\Grillmo\AppData\Local\Temp\ccN7xt8j.s:4242   .text.TIM_SelectOutputTrigger:00000000 TIM_SelectOutputTrigger
C:\Users\Grillmo\AppData\Local\Temp\ccN7xt8j.s:4265   .text.TIM_SelectSlaveMode:00000000 $t
C:\Users\Grillmo\AppData\Local\Temp\ccN7xt8j.s:4273   .text.TIM_SelectSlaveMode:00000000 TIM_SelectSlaveMode
C:\Users\Grillmo\AppData\Local\Temp\ccN7xt8j.s:4296   .text.TIM_SelectMasterSlaveMode:00000000 $t
C:\Users\Grillmo\AppData\Local\Temp\ccN7xt8j.s:4304   .text.TIM_SelectMasterSlaveMode:00000000 TIM_SelectMasterSlaveMode
C:\Users\Grillmo\AppData\Local\Temp\ccN7xt8j.s:4327   .text.TIM_ETRConfig:00000000 $t
C:\Users\Grillmo\AppData\Local\Temp\ccN7xt8j.s:4335   .text.TIM_ETRConfig:00000000 TIM_ETRConfig
C:\Users\Grillmo\AppData\Local\Temp\ccN7xt8j.s:4372   .text.TIM_EncoderInterfaceConfig:00000000 $t
C:\Users\Grillmo\AppData\Local\Temp\ccN7xt8j.s:4380   .text.TIM_EncoderInterfaceConfig:00000000 TIM_EncoderInterfaceConfig
C:\Users\Grillmo\AppData\Local\Temp\ccN7xt8j.s:4440   .text.TIM_SelectHallSensor:00000000 $t
C:\Users\Grillmo\AppData\Local\Temp\ccN7xt8j.s:4448   .text.TIM_SelectHallSensor:00000000 TIM_SelectHallSensor
C:\Users\Grillmo\AppData\Local\Temp\ccN7xt8j.s:4474   .text.TIM_RemapConfig:00000000 $t
C:\Users\Grillmo\AppData\Local\Temp\ccN7xt8j.s:4482   .text.TIM_RemapConfig:00000000 TIM_RemapConfig
                     .debug_frame:00000010 $d

UNDEFINED SYMBOLS
RCC_APB1PeriphResetCmd
RCC_APB2PeriphResetCmd
