ARM GAS  /var/tmp//cc1bx9Rl.s 			page 1


   1              		.cpu cortex-m4
   2              		.eabi_attribute 27, 1
   3              		.eabi_attribute 28, 1
   4              		.eabi_attribute 20, 1
   5              		.eabi_attribute 21, 1
   6              		.eabi_attribute 23, 3
   7              		.eabi_attribute 24, 1
   8              		.eabi_attribute 25, 1
   9              		.eabi_attribute 26, 1
  10              		.eabi_attribute 30, 2
  11              		.eabi_attribute 34, 1
  12              		.eabi_attribute 18, 4
  13              		.file	"stm32f4xx_syscfg.c"
  14              		.text
  15              	.Ltext0:
  16              		.cfi_sections	.debug_frame
  17              		.section	.text.SYSCFG_DeInit,"ax",%progbits
  18              		.align	1
  19              		.p2align 4,,15
  20              		.global	SYSCFG_DeInit
  21              		.syntax unified
  22              		.thumb
  23              		.thumb_func
  24              		.fpu fpv4-sp-d16
  25              		.type	SYSCFG_DeInit, %function
  26              	SYSCFG_DeInit:
  27              	.LFB112:
  28              		.file 1 "ChibiOS_3.0.2/ext/stdperiph_stm32f4/src/stm32f4xx_syscfg.c"
  29              		.loc 1 104 0
  30              		.cfi_startproc
  31              		@ args = 0, pretend = 0, frame = 0
  32              		@ frame_needed = 0, uses_anonymous_args = 0
  33 0000 08B5     		push	{r3, lr}
  34              		.cfi_def_cfa_offset 8
  35              		.cfi_offset 3, -8
  36              		.cfi_offset 14, -4
  37              		.loc 1 105 0
  38 0002 0121     		movs	r1, #1
  39 0004 4FF48040 		mov	r0, #16384
  40 0008 FFF7FEFF 		bl	RCC_APB2PeriphResetCmd
  41              	.LVL0:
  42              		.loc 1 106 0
  43 000c 0021     		movs	r1, #0
  44 000e 4FF48040 		mov	r0, #16384
  45              		.loc 1 107 0
  46 0012 BDE80840 		pop	{r3, lr}
  47              		.cfi_restore 14
  48              		.cfi_restore 3
  49              		.cfi_def_cfa_offset 0
  50              		.loc 1 106 0
  51 0016 FFF7FEBF 		b	RCC_APB2PeriphResetCmd
  52              	.LVL1:
  53              		.cfi_endproc
  54              	.LFE112:
  55              		.size	SYSCFG_DeInit, .-SYSCFG_DeInit
  56 001a 00BF     		.section	.text.SYSCFG_MemoryRemapConfig,"ax",%progbits
  57              		.align	1
ARM GAS  /var/tmp//cc1bx9Rl.s 			page 2


  58              		.p2align 4,,15
  59              		.global	SYSCFG_MemoryRemapConfig
  60              		.syntax unified
  61              		.thumb
  62              		.thumb_func
  63              		.fpu fpv4-sp-d16
  64              		.type	SYSCFG_MemoryRemapConfig, %function
  65              	SYSCFG_MemoryRemapConfig:
  66              	.LFB113:
  67              		.loc 1 123 0
  68              		.cfi_startproc
  69              		@ args = 0, pretend = 0, frame = 0
  70              		@ frame_needed = 0, uses_anonymous_args = 0
  71              		@ link register save eliminated.
  72              	.LVL2:
  73              		.loc 1 127 0
  74 0000 014B     		ldr	r3, .L4
  75 0002 1860     		str	r0, [r3]
  76 0004 7047     		bx	lr
  77              	.L5:
  78 0006 00BF     		.align	2
  79              	.L4:
  80 0008 00380140 		.word	1073821696
  81              		.cfi_endproc
  82              	.LFE113:
  83              		.size	SYSCFG_MemoryRemapConfig, .-SYSCFG_MemoryRemapConfig
  84              		.section	.text.SYSCFG_MemorySwappingBank,"ax",%progbits
  85              		.align	1
  86              		.p2align 4,,15
  87              		.global	SYSCFG_MemorySwappingBank
  88              		.syntax unified
  89              		.thumb
  90              		.thumb_func
  91              		.fpu fpv4-sp-d16
  92              		.type	SYSCFG_MemorySwappingBank, %function
  93              	SYSCFG_MemorySwappingBank:
  94              	.LFB114:
  95              		.loc 1 144 0
  96              		.cfi_startproc
  97              		@ args = 0, pretend = 0, frame = 0
  98              		@ frame_needed = 0, uses_anonymous_args = 0
  99              		@ link register save eliminated.
 100              	.LVL3:
 101              		.loc 1 148 0
 102 0000 014B     		ldr	r3, .L7
 103 0002 1860     		str	r0, [r3]
 104 0004 7047     		bx	lr
 105              	.L8:
 106 0006 00BF     		.align	2
 107              	.L7:
 108 0008 20002742 		.word	1109852192
 109              		.cfi_endproc
 110              	.LFE114:
 111              		.size	SYSCFG_MemorySwappingBank, .-SYSCFG_MemorySwappingBank
 112              		.section	.text.SYSCFG_EXTILineConfig,"ax",%progbits
 113              		.align	1
 114              		.p2align 4,,15
ARM GAS  /var/tmp//cc1bx9Rl.s 			page 3


 115              		.global	SYSCFG_EXTILineConfig
 116              		.syntax unified
 117              		.thumb
 118              		.thumb_func
 119              		.fpu fpv4-sp-d16
 120              		.type	SYSCFG_EXTILineConfig, %function
 121              	SYSCFG_EXTILineConfig:
 122              	.LFB115:
 123              		.loc 1 167 0
 124              		.cfi_startproc
 125              		@ args = 0, pretend = 0, frame = 0
 126              		@ frame_needed = 0, uses_anonymous_args = 0
 127              		@ link register save eliminated.
 128              	.LVL4:
 129 0000 01F0FC03 		and	r3, r1, #252
 130 0004 03F18043 		add	r3, r3, #1073741824
 131 0008 03F59C33 		add	r3, r3, #79872
 132              		.loc 1 174 0
 133 000c 01F00301 		and	r1, r1, #3
 134              	.LVL5:
 135              		.loc 1 167 0
 136 0010 10B4     		push	{r4}
 137              		.cfi_def_cfa_offset 4
 138              		.cfi_offset 4, -4
 139              		.loc 1 175 0
 140 0012 9A68     		ldr	r2, [r3, #8]
 141              		.loc 1 174 0
 142 0014 8900     		lsls	r1, r1, #2
 143              	.LVL6:
 144 0016 0F24     		movs	r4, #15
 145 0018 8C40     		lsls	r4, r4, r1
 146              	.LVL7:
 147              		.loc 1 175 0
 148 001a 22EA0402 		bic	r2, r2, r4
 149 001e 9A60     		str	r2, [r3, #8]
 150              		.loc 1 176 0
 151 0020 9A68     		ldr	r2, [r3, #8]
 152              		.loc 1 177 0
 153 0022 5DF8044B 		ldr	r4, [sp], #4
 154              		.cfi_restore 4
 155              		.cfi_def_cfa_offset 0
 156              	.LVL8:
 157              		.loc 1 176 0
 158 0026 00FA01F1 		lsl	r1, r0, r1
 159              	.LVL9:
 160 002a 1143     		orrs	r1, r1, r2
 161 002c 9960     		str	r1, [r3, #8]
 162              		.loc 1 177 0
 163 002e 7047     		bx	lr
 164              		.cfi_endproc
 165              	.LFE115:
 166              		.size	SYSCFG_EXTILineConfig, .-SYSCFG_EXTILineConfig
 167              		.section	.text.SYSCFG_ETH_MediaInterfaceConfig,"ax",%progbits
 168              		.align	1
 169              		.p2align 4,,15
 170              		.global	SYSCFG_ETH_MediaInterfaceConfig
 171              		.syntax unified
ARM GAS  /var/tmp//cc1bx9Rl.s 			page 4


 172              		.thumb
 173              		.thumb_func
 174              		.fpu fpv4-sp-d16
 175              		.type	SYSCFG_ETH_MediaInterfaceConfig, %function
 176              	SYSCFG_ETH_MediaInterfaceConfig:
 177              	.LFB116:
 178              		.loc 1 188 0
 179              		.cfi_startproc
 180              		@ args = 0, pretend = 0, frame = 0
 181              		@ frame_needed = 0, uses_anonymous_args = 0
 182              		@ link register save eliminated.
 183              	.LVL10:
 184              		.loc 1 191 0
 185 0000 014B     		ldr	r3, .L12
 186 0002 1860     		str	r0, [r3]
 187 0004 7047     		bx	lr
 188              	.L13:
 189 0006 00BF     		.align	2
 190              	.L12:
 191 0008 DC002742 		.word	1109852380
 192              		.cfi_endproc
 193              	.LFE116:
 194              		.size	SYSCFG_ETH_MediaInterfaceConfig, .-SYSCFG_ETH_MediaInterfaceConfig
 195              		.section	.text.SYSCFG_CompensationCellCmd,"ax",%progbits
 196              		.align	1
 197              		.p2align 4,,15
 198              		.global	SYSCFG_CompensationCellCmd
 199              		.syntax unified
 200              		.thumb
 201              		.thumb_func
 202              		.fpu fpv4-sp-d16
 203              		.type	SYSCFG_CompensationCellCmd, %function
 204              	SYSCFG_CompensationCellCmd:
 205              	.LFB117:
 206              		.loc 1 205 0
 207              		.cfi_startproc
 208              		@ args = 0, pretend = 0, frame = 0
 209              		@ frame_needed = 0, uses_anonymous_args = 0
 210              		@ link register save eliminated.
 211              	.LVL11:
 212              		.loc 1 209 0
 213 0000 014B     		ldr	r3, .L15
 214 0002 1860     		str	r0, [r3]
 215 0004 7047     		bx	lr
 216              	.L16:
 217 0006 00BF     		.align	2
 218              	.L15:
 219 0008 00042742 		.word	1109853184
 220              		.cfi_endproc
 221              	.LFE117:
 222              		.size	SYSCFG_CompensationCellCmd, .-SYSCFG_CompensationCellCmd
 223              		.section	.text.SYSCFG_GetCompensationCellStatus,"ax",%progbits
 224              		.align	1
 225              		.p2align 4,,15
 226              		.global	SYSCFG_GetCompensationCellStatus
 227              		.syntax unified
 228              		.thumb
ARM GAS  /var/tmp//cc1bx9Rl.s 			page 5


 229              		.thumb_func
 230              		.fpu fpv4-sp-d16
 231              		.type	SYSCFG_GetCompensationCellStatus, %function
 232              	SYSCFG_GetCompensationCellStatus:
 233              	.LFB118:
 234              		.loc 1 218 0
 235              		.cfi_startproc
 236              		@ args = 0, pretend = 0, frame = 0
 237              		@ frame_needed = 0, uses_anonymous_args = 0
 238              		@ link register save eliminated.
 239              	.LVL12:
 240              		.loc 1 221 0
 241 0000 024B     		ldr	r3, .L18
 242 0002 186A     		ldr	r0, [r3, #32]
 243              	.LVL13:
 244              		.loc 1 230 0
 245 0004 C0F30020 		ubfx	r0, r0, #8, #1
 246              	.LVL14:
 247 0008 7047     		bx	lr
 248              	.L19:
 249 000a 00BF     		.align	2
 250              	.L18:
 251 000c 00380140 		.word	1073821696
 252              		.cfi_endproc
 253              	.LFE118:
 254              		.size	SYSCFG_GetCompensationCellStatus, .-SYSCFG_GetCompensationCellStatus
 255              		.text
 256              	.Letext0:
 257              		.file 2 "/usr/local/gcc_arm/gcc-arm-none-eabi-6-2017-q2-update/arm-none-eabi/include/machine/_defa
 258              		.file 3 "/usr/local/gcc_arm/gcc-arm-none-eabi-6-2017-q2-update/arm-none-eabi/include/sys/_stdint.h
 259              		.file 4 "ChibiOS_3.0.2/os/ext/CMSIS/include/core_cm4.h"
 260              		.file 5 "ChibiOS_3.0.2/os/ext/CMSIS/ST/system_stm32f4xx.h"
 261              		.file 6 "ChibiOS_3.0.2/os/ext/CMSIS/ST/stm32f407xx.h"
 262              		.file 7 "ChibiOS_3.0.2/os/ext/CMSIS/ST/stm32f4xx.h"
 263              		.file 8 "ChibiOS_3.0.2/ext/stdperiph_stm32f4/inc/stm32f4xx_rcc.h"
 264              		.section	.debug_info,"",%progbits
 265              	.Ldebug_info0:
 266 0000 DE020000 		.4byte	0x2de
 267 0004 0400     		.2byte	0x4
 268 0006 00000000 		.4byte	.Ldebug_abbrev0
 269 000a 04       		.byte	0x4
 270 000b 01       		.uleb128 0x1
 271 000c 00000000 		.4byte	.LASF40
 272 0010 0C       		.byte	0xc
 273 0011 00030000 		.4byte	.LASF41
 274 0015 7C020000 		.4byte	.LASF42
 275 0019 00000000 		.4byte	.Ldebug_ranges0+0
 276 001d 00000000 		.4byte	0
 277 0021 00000000 		.4byte	.Ldebug_line0
 278 0025 02       		.uleb128 0x2
 279 0026 01       		.byte	0x1
 280 0027 06       		.byte	0x6
 281 0028 3B030000 		.4byte	.LASF0
 282 002c 03       		.uleb128 0x3
 283 002d 24010000 		.4byte	.LASF4
 284 0031 02       		.byte	0x2
 285 0032 2B       		.byte	0x2b
ARM GAS  /var/tmp//cc1bx9Rl.s 			page 6


 286 0033 37000000 		.4byte	0x37
 287 0037 02       		.uleb128 0x2
 288 0038 01       		.byte	0x1
 289 0039 08       		.byte	0x8
 290 003a 0D020000 		.4byte	.LASF1
 291 003e 02       		.uleb128 0x2
 292 003f 02       		.byte	0x2
 293 0040 05       		.byte	0x5
 294 0041 89030000 		.4byte	.LASF2
 295 0045 02       		.uleb128 0x2
 296 0046 02       		.byte	0x2
 297 0047 07       		.byte	0x7
 298 0048 73010000 		.4byte	.LASF3
 299 004c 03       		.uleb128 0x3
 300 004d 4E010000 		.4byte	.LASF5
 301 0051 02       		.byte	0x2
 302 0052 4D       		.byte	0x4d
 303 0053 57000000 		.4byte	0x57
 304 0057 02       		.uleb128 0x2
 305 0058 04       		.byte	0x4
 306 0059 05       		.byte	0x5
 307 005a C9030000 		.4byte	.LASF6
 308 005e 03       		.uleb128 0x3
 309 005f DF010000 		.4byte	.LASF7
 310 0063 02       		.byte	0x2
 311 0064 4F       		.byte	0x4f
 312 0065 69000000 		.4byte	0x69
 313 0069 02       		.uleb128 0x2
 314 006a 04       		.byte	0x4
 315 006b 07       		.byte	0x7
 316 006c 26020000 		.4byte	.LASF8
 317 0070 02       		.uleb128 0x2
 318 0071 08       		.byte	0x8
 319 0072 05       		.byte	0x5
 320 0073 58030000 		.4byte	.LASF9
 321 0077 02       		.uleb128 0x2
 322 0078 08       		.byte	0x8
 323 0079 07       		.byte	0x7
 324 007a E1020000 		.4byte	.LASF10
 325 007e 04       		.uleb128 0x4
 326 007f 04       		.byte	0x4
 327 0080 05       		.byte	0x5
 328 0081 696E7400 		.ascii	"int\000"
 329 0085 02       		.uleb128 0x2
 330 0086 04       		.byte	0x4
 331 0087 07       		.byte	0x7
 332 0088 CE020000 		.4byte	.LASF11
 333 008c 03       		.uleb128 0x3
 334 008d F8020000 		.4byte	.LASF12
 335 0091 03       		.byte	0x3
 336 0092 18       		.byte	0x18
 337 0093 2C000000 		.4byte	0x2c
 338 0097 03       		.uleb128 0x3
 339 0098 47030000 		.4byte	.LASF13
 340 009c 03       		.byte	0x3
 341 009d 2C       		.byte	0x2c
 342 009e 4C000000 		.4byte	0x4c
ARM GAS  /var/tmp//cc1bx9Rl.s 			page 7


 343 00a2 05       		.uleb128 0x5
 344 00a3 97000000 		.4byte	0x97
 345 00a7 03       		.uleb128 0x3
 346 00a8 C0030000 		.4byte	.LASF14
 347 00ac 03       		.byte	0x3
 348 00ad 30       		.byte	0x30
 349 00ae 5E000000 		.4byte	0x5e
 350 00b2 05       		.uleb128 0x5
 351 00b3 A7000000 		.4byte	0xa7
 352 00b7 02       		.uleb128 0x2
 353 00b8 04       		.byte	0x4
 354 00b9 07       		.byte	0x7
 355 00ba 4F030000 		.4byte	.LASF15
 356 00be 06       		.uleb128 0x6
 357 00bf A7000000 		.4byte	0xa7
 358 00c3 CE000000 		.4byte	0xce
 359 00c7 07       		.uleb128 0x7
 360 00c8 B7000000 		.4byte	0xb7
 361 00cc 01       		.byte	0x1
 362 00cd 00       		.byte	0
 363 00ce 08       		.uleb128 0x8
 364 00cf 56020000 		.4byte	.LASF16
 365 00d3 04       		.byte	0x4
 366 00d4 A706     		.2byte	0x6a7
 367 00d6 A2000000 		.4byte	0xa2
 368 00da 09       		.uleb128 0x9
 369 00db 66030000 		.4byte	.LASF17
 370 00df 05       		.byte	0x5
 371 00e0 4C       		.byte	0x4c
 372 00e1 A7000000 		.4byte	0xa7
 373 00e5 0A       		.uleb128 0xa
 374 00e6 24       		.byte	0x24
 375 00e7 06       		.byte	0x6
 376 00e8 3202     		.2byte	0x232
 377 00ea 30010000 		.4byte	0x130
 378 00ee 0B       		.uleb128 0xb
 379 00ef 38020000 		.4byte	.LASF18
 380 00f3 06       		.byte	0x6
 381 00f4 3402     		.2byte	0x234
 382 00f6 B2000000 		.4byte	0xb2
 383 00fa 00       		.byte	0
 384 00fb 0C       		.uleb128 0xc
 385 00fc 504D4300 		.ascii	"PMC\000"
 386 0100 06       		.byte	0x6
 387 0101 3502     		.2byte	0x235
 388 0103 B2000000 		.4byte	0xb2
 389 0107 04       		.byte	0x4
 390 0108 0B       		.uleb128 0xb
 391 0109 C7020000 		.4byte	.LASF19
 392 010d 06       		.byte	0x6
 393 010e 3602     		.2byte	0x236
 394 0110 40010000 		.4byte	0x140
 395 0114 08       		.byte	0x8
 396 0115 0B       		.uleb128 0xb
 397 0116 73020000 		.4byte	.LASF20
 398 011a 06       		.byte	0x6
 399 011b 3702     		.2byte	0x237
ARM GAS  /var/tmp//cc1bx9Rl.s 			page 8


 400 011d BE000000 		.4byte	0xbe
 401 0121 18       		.byte	0x18
 402 0122 0B       		.uleb128 0xb
 403 0123 07020000 		.4byte	.LASF21
 404 0127 06       		.byte	0x6
 405 0128 3802     		.2byte	0x238
 406 012a B2000000 		.4byte	0xb2
 407 012e 20       		.byte	0x20
 408 012f 00       		.byte	0
 409 0130 06       		.uleb128 0x6
 410 0131 B2000000 		.4byte	0xb2
 411 0135 40010000 		.4byte	0x140
 412 0139 07       		.uleb128 0x7
 413 013a B7000000 		.4byte	0xb7
 414 013e 03       		.byte	0x3
 415 013f 00       		.byte	0
 416 0140 05       		.uleb128 0x5
 417 0141 30010000 		.4byte	0x130
 418 0145 0D       		.uleb128 0xd
 419 0146 9C030000 		.4byte	.LASF22
 420 014a 06       		.byte	0x6
 421 014b 3902     		.2byte	0x239
 422 014d E5000000 		.4byte	0xe5
 423 0151 0E       		.uleb128 0xe
 424 0152 01       		.byte	0x1
 425 0153 37000000 		.4byte	0x37
 426 0157 07       		.byte	0x7
 427 0158 A2       		.byte	0xa2
 428 0159 6A010000 		.4byte	0x16a
 429 015d 0F       		.uleb128 0xf
 430 015e DB020000 		.4byte	.LASF23
 431 0162 00       		.byte	0
 432 0163 10       		.uleb128 0x10
 433 0164 53455400 		.ascii	"SET\000"
 434 0168 01       		.byte	0x1
 435 0169 00       		.byte	0
 436 016a 03       		.uleb128 0x3
 437 016b 1B020000 		.4byte	.LASF24
 438 016f 07       		.byte	0x7
 439 0170 A5       		.byte	0xa5
 440 0171 51010000 		.4byte	0x151
 441 0175 0E       		.uleb128 0xe
 442 0176 01       		.byte	0x1
 443 0177 37000000 		.4byte	0x37
 444 017b 07       		.byte	0x7
 445 017c A8       		.byte	0xa8
 446 017d 8E010000 		.4byte	0x18e
 447 0181 0F       		.uleb128 0xf
 448 0182 D2030000 		.4byte	.LASF25
 449 0186 00       		.byte	0
 450 0187 0F       		.uleb128 0xf
 451 0188 EA010000 		.4byte	.LASF26
 452 018c 01       		.byte	0x1
 453 018d 00       		.byte	0
 454 018e 03       		.uleb128 0x3
 455 018f A7010000 		.4byte	.LASF27
 456 0193 07       		.byte	0x7
ARM GAS  /var/tmp//cc1bx9Rl.s 			page 9


 457 0194 AB       		.byte	0xab
 458 0195 75010000 		.4byte	0x175
 459 0199 11       		.uleb128 0x11
 460 019a 86010000 		.4byte	.LASF43
 461 019e 01       		.byte	0x1
 462 019f D9       		.byte	0xd9
 463 01a0 6A010000 		.4byte	0x16a
 464 01a4 00000000 		.4byte	.LFB118
 465 01a8 10000000 		.4byte	.LFE118-.LFB118
 466 01ac 01       		.uleb128 0x1
 467 01ad 9C       		.byte	0x9c
 468 01ae C2010000 		.4byte	0x1c2
 469 01b2 12       		.uleb128 0x12
 470 01b3 DA030000 		.4byte	.LASF35
 471 01b7 01       		.byte	0x1
 472 01b8 DB       		.byte	0xdb
 473 01b9 6A010000 		.4byte	0x16a
 474 01bd 00000000 		.4byte	.LLST2
 475 01c1 00       		.byte	0
 476 01c2 13       		.uleb128 0x13
 477 01c3 58010000 		.4byte	.LASF28
 478 01c7 01       		.byte	0x1
 479 01c8 CC       		.byte	0xcc
 480 01c9 00000000 		.4byte	.LFB117
 481 01cd 0C000000 		.4byte	.LFE117-.LFB117
 482 01d1 01       		.uleb128 0x1
 483 01d2 9C       		.byte	0x9c
 484 01d3 E5010000 		.4byte	0x1e5
 485 01d7 14       		.uleb128 0x14
 486 01d8 93030000 		.4byte	.LASF30
 487 01dc 01       		.byte	0x1
 488 01dd CC       		.byte	0xcc
 489 01de 8E010000 		.4byte	0x18e
 490 01e2 01       		.uleb128 0x1
 491 01e3 50       		.byte	0x50
 492 01e4 00       		.byte	0
 493 01e5 13       		.uleb128 0x13
 494 01e6 2E010000 		.4byte	.LASF29
 495 01ea 01       		.byte	0x1
 496 01eb BB       		.byte	0xbb
 497 01ec 00000000 		.4byte	.LFB116
 498 01f0 0C000000 		.4byte	.LFE116-.LFB116
 499 01f4 01       		.uleb128 0x1
 500 01f5 9C       		.byte	0x9c
 501 01f6 08020000 		.4byte	0x208
 502 01fa 14       		.uleb128 0x14
 503 01fb C5010000 		.4byte	.LASF31
 504 01ff 01       		.byte	0x1
 505 0200 BB       		.byte	0xbb
 506 0201 A7000000 		.4byte	0xa7
 507 0205 01       		.uleb128 0x1
 508 0206 50       		.byte	0x50
 509 0207 00       		.byte	0
 510 0208 13       		.uleb128 0x13
 511 0209 F1010000 		.4byte	.LASF32
 512 020d 01       		.byte	0x1
 513 020e A6       		.byte	0xa6
ARM GAS  /var/tmp//cc1bx9Rl.s 			page 10


 514 020f 00000000 		.4byte	.LFB115
 515 0213 30000000 		.4byte	.LFE115-.LFB115
 516 0217 01       		.uleb128 0x1
 517 0218 9C       		.byte	0x9c
 518 0219 49020000 		.4byte	0x249
 519 021d 14       		.uleb128 0x14
 520 021e AB030000 		.4byte	.LASF33
 521 0222 01       		.byte	0x1
 522 0223 A6       		.byte	0xa6
 523 0224 8C000000 		.4byte	0x8c
 524 0228 01       		.uleb128 0x1
 525 0229 50       		.byte	0x50
 526 022a 15       		.uleb128 0x15
 527 022b 63020000 		.4byte	.LASF34
 528 022f 01       		.byte	0x1
 529 0230 A6       		.byte	0xa6
 530 0231 8C000000 		.4byte	0x8c
 531 0235 27000000 		.4byte	.LLST0
 532 0239 16       		.uleb128 0x16
 533 023a 746D7000 		.ascii	"tmp\000"
 534 023e 01       		.byte	0x1
 535 023f A8       		.byte	0xa8
 536 0240 A7000000 		.4byte	0xa7
 537 0244 48000000 		.4byte	.LLST1
 538 0248 00       		.byte	0
 539 0249 13       		.uleb128 0x13
 540 024a E4030000 		.4byte	.LASF36
 541 024e 01       		.byte	0x1
 542 024f 8F       		.byte	0x8f
 543 0250 00000000 		.4byte	.LFB114
 544 0254 0C000000 		.4byte	.LFE114-.LFB114
 545 0258 01       		.uleb128 0x1
 546 0259 9C       		.byte	0x9c
 547 025a 6C020000 		.4byte	0x26c
 548 025e 14       		.uleb128 0x14
 549 025f 93030000 		.4byte	.LASF30
 550 0263 01       		.byte	0x1
 551 0264 8F       		.byte	0x8f
 552 0265 8E010000 		.4byte	0x18e
 553 0269 01       		.uleb128 0x1
 554 026a 50       		.byte	0x50
 555 026b 00       		.byte	0
 556 026c 13       		.uleb128 0x13
 557 026d FE030000 		.4byte	.LASF37
 558 0271 01       		.byte	0x1
 559 0272 7A       		.byte	0x7a
 560 0273 00000000 		.4byte	.LFB113
 561 0277 0C000000 		.4byte	.LFE113-.LFB113
 562 027b 01       		.uleb128 0x1
 563 027c 9C       		.byte	0x9c
 564 027d 8F020000 		.4byte	0x28f
 565 0281 14       		.uleb128 0x14
 566 0282 76030000 		.4byte	.LASF38
 567 0286 01       		.byte	0x1
 568 0287 7A       		.byte	0x7a
 569 0288 8C000000 		.4byte	0x8c
 570 028c 01       		.uleb128 0x1
ARM GAS  /var/tmp//cc1bx9Rl.s 			page 11


 571 028d 50       		.byte	0x50
 572 028e 00       		.byte	0
 573 028f 13       		.uleb128 0x13
 574 0290 B7010000 		.4byte	.LASF39
 575 0294 01       		.byte	0x1
 576 0295 67       		.byte	0x67
 577 0296 00000000 		.4byte	.LFB112
 578 029a 1A000000 		.4byte	.LFE112-.LFB112
 579 029e 01       		.uleb128 0x1
 580 029f 9C       		.byte	0x9c
 581 02a0 D5020000 		.4byte	0x2d5
 582 02a4 17       		.uleb128 0x17
 583 02a5 0C000000 		.4byte	.LVL0
 584 02a9 D5020000 		.4byte	0x2d5
 585 02ad BE020000 		.4byte	0x2be
 586 02b1 18       		.uleb128 0x18
 587 02b2 01       		.uleb128 0x1
 588 02b3 50       		.byte	0x50
 589 02b4 03       		.uleb128 0x3
 590 02b5 0A       		.byte	0xa
 591 02b6 0040     		.2byte	0x4000
 592 02b8 18       		.uleb128 0x18
 593 02b9 01       		.uleb128 0x1
 594 02ba 51       		.byte	0x51
 595 02bb 01       		.uleb128 0x1
 596 02bc 31       		.byte	0x31
 597 02bd 00       		.byte	0
 598 02be 19       		.uleb128 0x19
 599 02bf 1A000000 		.4byte	.LVL1
 600 02c3 D5020000 		.4byte	0x2d5
 601 02c7 18       		.uleb128 0x18
 602 02c8 01       		.uleb128 0x1
 603 02c9 50       		.byte	0x50
 604 02ca 03       		.uleb128 0x3
 605 02cb 0A       		.byte	0xa
 606 02cc 0040     		.2byte	0x4000
 607 02ce 18       		.uleb128 0x18
 608 02cf 01       		.uleb128 0x1
 609 02d0 51       		.byte	0x51
 610 02d1 01       		.uleb128 0x1
 611 02d2 30       		.byte	0x30
 612 02d3 00       		.byte	0
 613 02d4 00       		.byte	0
 614 02d5 1A       		.uleb128 0x1a
 615 02d6 3F020000 		.4byte	.LASF44
 616 02da 3F020000 		.4byte	.LASF44
 617 02de 08       		.byte	0x8
 618 02df 6203     		.2byte	0x362
 619 02e1 00       		.byte	0
 620              		.section	.debug_abbrev,"",%progbits
 621              	.Ldebug_abbrev0:
 622 0000 01       		.uleb128 0x1
 623 0001 11       		.uleb128 0x11
 624 0002 01       		.byte	0x1
 625 0003 25       		.uleb128 0x25
 626 0004 0E       		.uleb128 0xe
 627 0005 13       		.uleb128 0x13
ARM GAS  /var/tmp//cc1bx9Rl.s 			page 12


 628 0006 0B       		.uleb128 0xb
 629 0007 03       		.uleb128 0x3
 630 0008 0E       		.uleb128 0xe
 631 0009 1B       		.uleb128 0x1b
 632 000a 0E       		.uleb128 0xe
 633 000b 55       		.uleb128 0x55
 634 000c 17       		.uleb128 0x17
 635 000d 11       		.uleb128 0x11
 636 000e 01       		.uleb128 0x1
 637 000f 10       		.uleb128 0x10
 638 0010 17       		.uleb128 0x17
 639 0011 00       		.byte	0
 640 0012 00       		.byte	0
 641 0013 02       		.uleb128 0x2
 642 0014 24       		.uleb128 0x24
 643 0015 00       		.byte	0
 644 0016 0B       		.uleb128 0xb
 645 0017 0B       		.uleb128 0xb
 646 0018 3E       		.uleb128 0x3e
 647 0019 0B       		.uleb128 0xb
 648 001a 03       		.uleb128 0x3
 649 001b 0E       		.uleb128 0xe
 650 001c 00       		.byte	0
 651 001d 00       		.byte	0
 652 001e 03       		.uleb128 0x3
 653 001f 16       		.uleb128 0x16
 654 0020 00       		.byte	0
 655 0021 03       		.uleb128 0x3
 656 0022 0E       		.uleb128 0xe
 657 0023 3A       		.uleb128 0x3a
 658 0024 0B       		.uleb128 0xb
 659 0025 3B       		.uleb128 0x3b
 660 0026 0B       		.uleb128 0xb
 661 0027 49       		.uleb128 0x49
 662 0028 13       		.uleb128 0x13
 663 0029 00       		.byte	0
 664 002a 00       		.byte	0
 665 002b 04       		.uleb128 0x4
 666 002c 24       		.uleb128 0x24
 667 002d 00       		.byte	0
 668 002e 0B       		.uleb128 0xb
 669 002f 0B       		.uleb128 0xb
 670 0030 3E       		.uleb128 0x3e
 671 0031 0B       		.uleb128 0xb
 672 0032 03       		.uleb128 0x3
 673 0033 08       		.uleb128 0x8
 674 0034 00       		.byte	0
 675 0035 00       		.byte	0
 676 0036 05       		.uleb128 0x5
 677 0037 35       		.uleb128 0x35
 678 0038 00       		.byte	0
 679 0039 49       		.uleb128 0x49
 680 003a 13       		.uleb128 0x13
 681 003b 00       		.byte	0
 682 003c 00       		.byte	0
 683 003d 06       		.uleb128 0x6
 684 003e 01       		.uleb128 0x1
ARM GAS  /var/tmp//cc1bx9Rl.s 			page 13


 685 003f 01       		.byte	0x1
 686 0040 49       		.uleb128 0x49
 687 0041 13       		.uleb128 0x13
 688 0042 01       		.uleb128 0x1
 689 0043 13       		.uleb128 0x13
 690 0044 00       		.byte	0
 691 0045 00       		.byte	0
 692 0046 07       		.uleb128 0x7
 693 0047 21       		.uleb128 0x21
 694 0048 00       		.byte	0
 695 0049 49       		.uleb128 0x49
 696 004a 13       		.uleb128 0x13
 697 004b 2F       		.uleb128 0x2f
 698 004c 0B       		.uleb128 0xb
 699 004d 00       		.byte	0
 700 004e 00       		.byte	0
 701 004f 08       		.uleb128 0x8
 702 0050 34       		.uleb128 0x34
 703 0051 00       		.byte	0
 704 0052 03       		.uleb128 0x3
 705 0053 0E       		.uleb128 0xe
 706 0054 3A       		.uleb128 0x3a
 707 0055 0B       		.uleb128 0xb
 708 0056 3B       		.uleb128 0x3b
 709 0057 05       		.uleb128 0x5
 710 0058 49       		.uleb128 0x49
 711 0059 13       		.uleb128 0x13
 712 005a 3F       		.uleb128 0x3f
 713 005b 19       		.uleb128 0x19
 714 005c 3C       		.uleb128 0x3c
 715 005d 19       		.uleb128 0x19
 716 005e 00       		.byte	0
 717 005f 00       		.byte	0
 718 0060 09       		.uleb128 0x9
 719 0061 34       		.uleb128 0x34
 720 0062 00       		.byte	0
 721 0063 03       		.uleb128 0x3
 722 0064 0E       		.uleb128 0xe
 723 0065 3A       		.uleb128 0x3a
 724 0066 0B       		.uleb128 0xb
 725 0067 3B       		.uleb128 0x3b
 726 0068 0B       		.uleb128 0xb
 727 0069 49       		.uleb128 0x49
 728 006a 13       		.uleb128 0x13
 729 006b 3F       		.uleb128 0x3f
 730 006c 19       		.uleb128 0x19
 731 006d 3C       		.uleb128 0x3c
 732 006e 19       		.uleb128 0x19
 733 006f 00       		.byte	0
 734 0070 00       		.byte	0
 735 0071 0A       		.uleb128 0xa
 736 0072 13       		.uleb128 0x13
 737 0073 01       		.byte	0x1
 738 0074 0B       		.uleb128 0xb
 739 0075 0B       		.uleb128 0xb
 740 0076 3A       		.uleb128 0x3a
 741 0077 0B       		.uleb128 0xb
ARM GAS  /var/tmp//cc1bx9Rl.s 			page 14


 742 0078 3B       		.uleb128 0x3b
 743 0079 05       		.uleb128 0x5
 744 007a 01       		.uleb128 0x1
 745 007b 13       		.uleb128 0x13
 746 007c 00       		.byte	0
 747 007d 00       		.byte	0
 748 007e 0B       		.uleb128 0xb
 749 007f 0D       		.uleb128 0xd
 750 0080 00       		.byte	0
 751 0081 03       		.uleb128 0x3
 752 0082 0E       		.uleb128 0xe
 753 0083 3A       		.uleb128 0x3a
 754 0084 0B       		.uleb128 0xb
 755 0085 3B       		.uleb128 0x3b
 756 0086 05       		.uleb128 0x5
 757 0087 49       		.uleb128 0x49
 758 0088 13       		.uleb128 0x13
 759 0089 38       		.uleb128 0x38
 760 008a 0B       		.uleb128 0xb
 761 008b 00       		.byte	0
 762 008c 00       		.byte	0
 763 008d 0C       		.uleb128 0xc
 764 008e 0D       		.uleb128 0xd
 765 008f 00       		.byte	0
 766 0090 03       		.uleb128 0x3
 767 0091 08       		.uleb128 0x8
 768 0092 3A       		.uleb128 0x3a
 769 0093 0B       		.uleb128 0xb
 770 0094 3B       		.uleb128 0x3b
 771 0095 05       		.uleb128 0x5
 772 0096 49       		.uleb128 0x49
 773 0097 13       		.uleb128 0x13
 774 0098 38       		.uleb128 0x38
 775 0099 0B       		.uleb128 0xb
 776 009a 00       		.byte	0
 777 009b 00       		.byte	0
 778 009c 0D       		.uleb128 0xd
 779 009d 16       		.uleb128 0x16
 780 009e 00       		.byte	0
 781 009f 03       		.uleb128 0x3
 782 00a0 0E       		.uleb128 0xe
 783 00a1 3A       		.uleb128 0x3a
 784 00a2 0B       		.uleb128 0xb
 785 00a3 3B       		.uleb128 0x3b
 786 00a4 05       		.uleb128 0x5
 787 00a5 49       		.uleb128 0x49
 788 00a6 13       		.uleb128 0x13
 789 00a7 00       		.byte	0
 790 00a8 00       		.byte	0
 791 00a9 0E       		.uleb128 0xe
 792 00aa 04       		.uleb128 0x4
 793 00ab 01       		.byte	0x1
 794 00ac 0B       		.uleb128 0xb
 795 00ad 0B       		.uleb128 0xb
 796 00ae 49       		.uleb128 0x49
 797 00af 13       		.uleb128 0x13
 798 00b0 3A       		.uleb128 0x3a
ARM GAS  /var/tmp//cc1bx9Rl.s 			page 15


 799 00b1 0B       		.uleb128 0xb
 800 00b2 3B       		.uleb128 0x3b
 801 00b3 0B       		.uleb128 0xb
 802 00b4 01       		.uleb128 0x1
 803 00b5 13       		.uleb128 0x13
 804 00b6 00       		.byte	0
 805 00b7 00       		.byte	0
 806 00b8 0F       		.uleb128 0xf
 807 00b9 28       		.uleb128 0x28
 808 00ba 00       		.byte	0
 809 00bb 03       		.uleb128 0x3
 810 00bc 0E       		.uleb128 0xe
 811 00bd 1C       		.uleb128 0x1c
 812 00be 0B       		.uleb128 0xb
 813 00bf 00       		.byte	0
 814 00c0 00       		.byte	0
 815 00c1 10       		.uleb128 0x10
 816 00c2 28       		.uleb128 0x28
 817 00c3 00       		.byte	0
 818 00c4 03       		.uleb128 0x3
 819 00c5 08       		.uleb128 0x8
 820 00c6 1C       		.uleb128 0x1c
 821 00c7 0B       		.uleb128 0xb
 822 00c8 00       		.byte	0
 823 00c9 00       		.byte	0
 824 00ca 11       		.uleb128 0x11
 825 00cb 2E       		.uleb128 0x2e
 826 00cc 01       		.byte	0x1
 827 00cd 3F       		.uleb128 0x3f
 828 00ce 19       		.uleb128 0x19
 829 00cf 03       		.uleb128 0x3
 830 00d0 0E       		.uleb128 0xe
 831 00d1 3A       		.uleb128 0x3a
 832 00d2 0B       		.uleb128 0xb
 833 00d3 3B       		.uleb128 0x3b
 834 00d4 0B       		.uleb128 0xb
 835 00d5 27       		.uleb128 0x27
 836 00d6 19       		.uleb128 0x19
 837 00d7 49       		.uleb128 0x49
 838 00d8 13       		.uleb128 0x13
 839 00d9 11       		.uleb128 0x11
 840 00da 01       		.uleb128 0x1
 841 00db 12       		.uleb128 0x12
 842 00dc 06       		.uleb128 0x6
 843 00dd 40       		.uleb128 0x40
 844 00de 18       		.uleb128 0x18
 845 00df 9742     		.uleb128 0x2117
 846 00e1 19       		.uleb128 0x19
 847 00e2 01       		.uleb128 0x1
 848 00e3 13       		.uleb128 0x13
 849 00e4 00       		.byte	0
 850 00e5 00       		.byte	0
 851 00e6 12       		.uleb128 0x12
 852 00e7 34       		.uleb128 0x34
 853 00e8 00       		.byte	0
 854 00e9 03       		.uleb128 0x3
 855 00ea 0E       		.uleb128 0xe
ARM GAS  /var/tmp//cc1bx9Rl.s 			page 16


 856 00eb 3A       		.uleb128 0x3a
 857 00ec 0B       		.uleb128 0xb
 858 00ed 3B       		.uleb128 0x3b
 859 00ee 0B       		.uleb128 0xb
 860 00ef 49       		.uleb128 0x49
 861 00f0 13       		.uleb128 0x13
 862 00f1 02       		.uleb128 0x2
 863 00f2 17       		.uleb128 0x17
 864 00f3 00       		.byte	0
 865 00f4 00       		.byte	0
 866 00f5 13       		.uleb128 0x13
 867 00f6 2E       		.uleb128 0x2e
 868 00f7 01       		.byte	0x1
 869 00f8 3F       		.uleb128 0x3f
 870 00f9 19       		.uleb128 0x19
 871 00fa 03       		.uleb128 0x3
 872 00fb 0E       		.uleb128 0xe
 873 00fc 3A       		.uleb128 0x3a
 874 00fd 0B       		.uleb128 0xb
 875 00fe 3B       		.uleb128 0x3b
 876 00ff 0B       		.uleb128 0xb
 877 0100 27       		.uleb128 0x27
 878 0101 19       		.uleb128 0x19
 879 0102 11       		.uleb128 0x11
 880 0103 01       		.uleb128 0x1
 881 0104 12       		.uleb128 0x12
 882 0105 06       		.uleb128 0x6
 883 0106 40       		.uleb128 0x40
 884 0107 18       		.uleb128 0x18
 885 0108 9742     		.uleb128 0x2117
 886 010a 19       		.uleb128 0x19
 887 010b 01       		.uleb128 0x1
 888 010c 13       		.uleb128 0x13
 889 010d 00       		.byte	0
 890 010e 00       		.byte	0
 891 010f 14       		.uleb128 0x14
 892 0110 05       		.uleb128 0x5
 893 0111 00       		.byte	0
 894 0112 03       		.uleb128 0x3
 895 0113 0E       		.uleb128 0xe
 896 0114 3A       		.uleb128 0x3a
 897 0115 0B       		.uleb128 0xb
 898 0116 3B       		.uleb128 0x3b
 899 0117 0B       		.uleb128 0xb
 900 0118 49       		.uleb128 0x49
 901 0119 13       		.uleb128 0x13
 902 011a 02       		.uleb128 0x2
 903 011b 18       		.uleb128 0x18
 904 011c 00       		.byte	0
 905 011d 00       		.byte	0
 906 011e 15       		.uleb128 0x15
 907 011f 05       		.uleb128 0x5
 908 0120 00       		.byte	0
 909 0121 03       		.uleb128 0x3
 910 0122 0E       		.uleb128 0xe
 911 0123 3A       		.uleb128 0x3a
 912 0124 0B       		.uleb128 0xb
ARM GAS  /var/tmp//cc1bx9Rl.s 			page 17


 913 0125 3B       		.uleb128 0x3b
 914 0126 0B       		.uleb128 0xb
 915 0127 49       		.uleb128 0x49
 916 0128 13       		.uleb128 0x13
 917 0129 02       		.uleb128 0x2
 918 012a 17       		.uleb128 0x17
 919 012b 00       		.byte	0
 920 012c 00       		.byte	0
 921 012d 16       		.uleb128 0x16
 922 012e 34       		.uleb128 0x34
 923 012f 00       		.byte	0
 924 0130 03       		.uleb128 0x3
 925 0131 08       		.uleb128 0x8
 926 0132 3A       		.uleb128 0x3a
 927 0133 0B       		.uleb128 0xb
 928 0134 3B       		.uleb128 0x3b
 929 0135 0B       		.uleb128 0xb
 930 0136 49       		.uleb128 0x49
 931 0137 13       		.uleb128 0x13
 932 0138 02       		.uleb128 0x2
 933 0139 17       		.uleb128 0x17
 934 013a 00       		.byte	0
 935 013b 00       		.byte	0
 936 013c 17       		.uleb128 0x17
 937 013d 898201   		.uleb128 0x4109
 938 0140 01       		.byte	0x1
 939 0141 11       		.uleb128 0x11
 940 0142 01       		.uleb128 0x1
 941 0143 31       		.uleb128 0x31
 942 0144 13       		.uleb128 0x13
 943 0145 01       		.uleb128 0x1
 944 0146 13       		.uleb128 0x13
 945 0147 00       		.byte	0
 946 0148 00       		.byte	0
 947 0149 18       		.uleb128 0x18
 948 014a 8A8201   		.uleb128 0x410a
 949 014d 00       		.byte	0
 950 014e 02       		.uleb128 0x2
 951 014f 18       		.uleb128 0x18
 952 0150 9142     		.uleb128 0x2111
 953 0152 18       		.uleb128 0x18
 954 0153 00       		.byte	0
 955 0154 00       		.byte	0
 956 0155 19       		.uleb128 0x19
 957 0156 898201   		.uleb128 0x4109
 958 0159 01       		.byte	0x1
 959 015a 11       		.uleb128 0x11
 960 015b 01       		.uleb128 0x1
 961 015c 9542     		.uleb128 0x2115
 962 015e 19       		.uleb128 0x19
 963 015f 31       		.uleb128 0x31
 964 0160 13       		.uleb128 0x13
 965 0161 00       		.byte	0
 966 0162 00       		.byte	0
 967 0163 1A       		.uleb128 0x1a
 968 0164 2E       		.uleb128 0x2e
 969 0165 00       		.byte	0
ARM GAS  /var/tmp//cc1bx9Rl.s 			page 18


 970 0166 3F       		.uleb128 0x3f
 971 0167 19       		.uleb128 0x19
 972 0168 3C       		.uleb128 0x3c
 973 0169 19       		.uleb128 0x19
 974 016a 6E       		.uleb128 0x6e
 975 016b 0E       		.uleb128 0xe
 976 016c 03       		.uleb128 0x3
 977 016d 0E       		.uleb128 0xe
 978 016e 3A       		.uleb128 0x3a
 979 016f 0B       		.uleb128 0xb
 980 0170 3B       		.uleb128 0x3b
 981 0171 05       		.uleb128 0x5
 982 0172 00       		.byte	0
 983 0173 00       		.byte	0
 984 0174 00       		.byte	0
 985              		.section	.debug_loc,"",%progbits
 986              	.Ldebug_loc0:
 987              	.LLST2:
 988 0000 00000000 		.4byte	.LVL12
 989 0004 04000000 		.4byte	.LVL13
 990 0008 0200     		.2byte	0x2
 991 000a 30       		.byte	0x30
 992 000b 9F       		.byte	0x9f
 993 000c 04000000 		.4byte	.LVL13
 994 0010 08000000 		.4byte	.LVL14
 995 0014 0900     		.2byte	0x9
 996 0016 70       		.byte	0x70
 997 0017 00       		.sleb128 0
 998 0018 0A       		.byte	0xa
 999 0019 0001     		.2byte	0x100
 1000 001b 1A       		.byte	0x1a
 1001 001c 30       		.byte	0x30
 1002 001d 2E       		.byte	0x2e
 1003 001e 9F       		.byte	0x9f
 1004 001f 00000000 		.4byte	0
 1005 0023 00000000 		.4byte	0
 1006              	.LLST0:
 1007 0027 00000000 		.4byte	.LVL4
 1008 002b 10000000 		.4byte	.LVL5
 1009 002f 0100     		.2byte	0x1
 1010 0031 51       		.byte	0x51
 1011 0032 10000000 		.4byte	.LVL5
 1012 0036 30000000 		.4byte	.LFE115
 1013 003a 0400     		.2byte	0x4
 1014 003c F3       		.byte	0xf3
 1015 003d 01       		.uleb128 0x1
 1016 003e 51       		.byte	0x51
 1017 003f 9F       		.byte	0x9f
 1018 0040 00000000 		.4byte	0
 1019 0044 00000000 		.4byte	0
 1020              	.LLST1:
 1021 0048 00000000 		.4byte	.LVL4
 1022 004c 16000000 		.4byte	.LVL6
 1023 0050 0200     		.2byte	0x2
 1024 0052 30       		.byte	0x30
 1025 0053 9F       		.byte	0x9f
 1026 0054 16000000 		.4byte	.LVL6
ARM GAS  /var/tmp//cc1bx9Rl.s 			page 19


 1027 0058 1A000000 		.4byte	.LVL7
 1028 005c 0500     		.2byte	0x5
 1029 005e 3F       		.byte	0x3f
 1030 005f 71       		.byte	0x71
 1031 0060 00       		.sleb128 0
 1032 0061 24       		.byte	0x24
 1033 0062 9F       		.byte	0x9f
 1034 0063 1A000000 		.4byte	.LVL7
 1035 0067 26000000 		.4byte	.LVL8
 1036 006b 0100     		.2byte	0x1
 1037 006d 54       		.byte	0x54
 1038 006e 26000000 		.4byte	.LVL8
 1039 0072 2A000000 		.4byte	.LVL9
 1040 0076 0500     		.2byte	0x5
 1041 0078 3F       		.byte	0x3f
 1042 0079 71       		.byte	0x71
 1043 007a 00       		.sleb128 0
 1044 007b 24       		.byte	0x24
 1045 007c 9F       		.byte	0x9f
 1046 007d 00000000 		.4byte	0
 1047 0081 00000000 		.4byte	0
 1048              		.section	.debug_aranges,"",%progbits
 1049 0000 4C000000 		.4byte	0x4c
 1050 0004 0200     		.2byte	0x2
 1051 0006 00000000 		.4byte	.Ldebug_info0
 1052 000a 04       		.byte	0x4
 1053 000b 00       		.byte	0
 1054 000c 0000     		.2byte	0
 1055 000e 0000     		.2byte	0
 1056 0010 00000000 		.4byte	.LFB112
 1057 0014 1A000000 		.4byte	.LFE112-.LFB112
 1058 0018 00000000 		.4byte	.LFB113
 1059 001c 0C000000 		.4byte	.LFE113-.LFB113
 1060 0020 00000000 		.4byte	.LFB114
 1061 0024 0C000000 		.4byte	.LFE114-.LFB114
 1062 0028 00000000 		.4byte	.LFB115
 1063 002c 30000000 		.4byte	.LFE115-.LFB115
 1064 0030 00000000 		.4byte	.LFB116
 1065 0034 0C000000 		.4byte	.LFE116-.LFB116
 1066 0038 00000000 		.4byte	.LFB117
 1067 003c 0C000000 		.4byte	.LFE117-.LFB117
 1068 0040 00000000 		.4byte	.LFB118
 1069 0044 10000000 		.4byte	.LFE118-.LFB118
 1070 0048 00000000 		.4byte	0
 1071 004c 00000000 		.4byte	0
 1072              		.section	.debug_ranges,"",%progbits
 1073              	.Ldebug_ranges0:
 1074 0000 00000000 		.4byte	.LFB112
 1075 0004 1A000000 		.4byte	.LFE112
 1076 0008 00000000 		.4byte	.LFB113
 1077 000c 0C000000 		.4byte	.LFE113
 1078 0010 00000000 		.4byte	.LFB114
 1079 0014 0C000000 		.4byte	.LFE114
 1080 0018 00000000 		.4byte	.LFB115
 1081 001c 30000000 		.4byte	.LFE115
 1082 0020 00000000 		.4byte	.LFB116
 1083 0024 0C000000 		.4byte	.LFE116
ARM GAS  /var/tmp//cc1bx9Rl.s 			page 20


 1084 0028 00000000 		.4byte	.LFB117
 1085 002c 0C000000 		.4byte	.LFE117
 1086 0030 00000000 		.4byte	.LFB118
 1087 0034 10000000 		.4byte	.LFE118
 1088 0038 00000000 		.4byte	0
 1089 003c 00000000 		.4byte	0
 1090              		.section	.debug_line,"",%progbits
 1091              	.Ldebug_line0:
 1092 0000 63020000 		.section	.debug_str,"MS",%progbits,1
 1092      0200D601 
 1092      00000201 
 1092      FB0E0D00 
 1092      01010101 
 1093              	.LASF40:
 1094 0000 474E5520 		.ascii	"GNU C99 6.3.1 20170620 (release) [ARM/embedded-6-br"
 1094      43393920 
 1094      362E332E 
 1094      31203230 
 1094      31373036 
 1095 0033 616E6368 		.ascii	"anch revision 249437] -mcpu=cortex-m4 -mfloat-abi=h"
 1095      20726576 
 1095      6973696F 
 1095      6E203234 
 1095      39343337 
 1096 0066 61726420 		.ascii	"ard -mfpu=fpv4-sp-d16 -mno-thumb-interwork -mthumb "
 1096      2D6D6670 
 1096      753D6670 
 1096      76342D73 
 1096      702D6431 
 1097 0099 2D676764 		.ascii	"-ggdb -O2 -std=gnu99 -fomit-frame-pointer -falign-f"
 1097      62202D4F 
 1097      32202D73 
 1097      74643D67 
 1097      6E753939 
 1098 00cc 756E6374 		.ascii	"unctions=16 -ffunction-sections -fdata-sections -fn"
 1098      696F6E73 
 1098      3D313620 
 1098      2D666675 
 1098      6E637469 
 1099 00ff 6F2D636F 		.ascii	"o-common -fsingle-precision-constant\000"
 1099      6D6D6F6E 
 1099      202D6673 
 1099      696E676C 
 1099      652D7072 
 1100              	.LASF4:
 1101 0124 5F5F7569 		.ascii	"__uint8_t\000"
 1101      6E74385F 
 1101      7400
 1102              	.LASF29:
 1103 012e 53595343 		.ascii	"SYSCFG_ETH_MediaInterfaceConfig\000"
 1103      46475F45 
 1103      54485F4D 
 1103      65646961 
 1103      496E7465 
 1104              	.LASF5:
 1105 014e 5F5F696E 		.ascii	"__int32_t\000"
 1105      7433325F 
ARM GAS  /var/tmp//cc1bx9Rl.s 			page 21


 1105      7400
 1106              	.LASF28:
 1107 0158 53595343 		.ascii	"SYSCFG_CompensationCellCmd\000"
 1107      46475F43 
 1107      6F6D7065 
 1107      6E736174 
 1107      696F6E43 
 1108              	.LASF3:
 1109 0173 73686F72 		.ascii	"short unsigned int\000"
 1109      7420756E 
 1109      7369676E 
 1109      65642069 
 1109      6E7400
 1110              	.LASF43:
 1111 0186 53595343 		.ascii	"SYSCFG_GetCompensationCellStatus\000"
 1111      46475F47 
 1111      6574436F 
 1111      6D70656E 
 1111      73617469 
 1112              	.LASF27:
 1113 01a7 46756E63 		.ascii	"FunctionalState\000"
 1113      74696F6E 
 1113      616C5374 
 1113      61746500 
 1114              	.LASF39:
 1115 01b7 53595343 		.ascii	"SYSCFG_DeInit\000"
 1115      46475F44 
 1115      65496E69 
 1115      7400
 1116              	.LASF31:
 1117 01c5 53595343 		.ascii	"SYSCFG_ETH_MediaInterface\000"
 1117      46475F45 
 1117      54485F4D 
 1117      65646961 
 1117      496E7465 
 1118              	.LASF7:
 1119 01df 5F5F7569 		.ascii	"__uint32_t\000"
 1119      6E743332 
 1119      5F7400
 1120              	.LASF26:
 1121 01ea 454E4142 		.ascii	"ENABLE\000"
 1121      4C4500
 1122              	.LASF32:
 1123 01f1 53595343 		.ascii	"SYSCFG_EXTILineConfig\000"
 1123      46475F45 
 1123      5854494C 
 1123      696E6543 
 1123      6F6E6669 
 1124              	.LASF21:
 1125 0207 434D5043 		.ascii	"CMPCR\000"
 1125      5200
 1126              	.LASF1:
 1127 020d 756E7369 		.ascii	"unsigned char\000"
 1127      676E6564 
 1127      20636861 
 1127      7200
 1128              	.LASF24:
ARM GAS  /var/tmp//cc1bx9Rl.s 			page 22


 1129 021b 466C6167 		.ascii	"FlagStatus\000"
 1129      53746174 
 1129      757300
 1130              	.LASF8:
 1131 0226 6C6F6E67 		.ascii	"long unsigned int\000"
 1131      20756E73 
 1131      69676E65 
 1131      6420696E 
 1131      7400
 1132              	.LASF18:
 1133 0238 4D454D52 		.ascii	"MEMRMP\000"
 1133      4D5000
 1134              	.LASF44:
 1135 023f 5243435F 		.ascii	"RCC_APB2PeriphResetCmd\000"
 1135      41504232 
 1135      50657269 
 1135      70685265 
 1135      73657443 
 1136              	.LASF16:
 1137 0256 49544D5F 		.ascii	"ITM_RxBuffer\000"
 1137      52784275 
 1137      66666572 
 1137      00
 1138              	.LASF34:
 1139 0263 45585449 		.ascii	"EXTI_PinSourcex\000"
 1139      5F50696E 
 1139      536F7572 
 1139      63657800 
 1140              	.LASF20:
 1141 0273 52455345 		.ascii	"RESERVED\000"
 1141      52564544 
 1141      00
 1142              	.LASF42:
 1143 027c 2F557365 		.ascii	"/Users/yanrudall/Documents/eBike/eBikeTestApplicati"
 1143      72732F79 
 1143      616E7275 
 1143      64616C6C 
 1143      2F446F63 
 1144 02af 6F6E2F65 		.ascii	"on/eBikeTestApplication\000"
 1144      42696B65 
 1144      54657374 
 1144      4170706C 
 1144      69636174 
 1145              	.LASF19:
 1146 02c7 45585449 		.ascii	"EXTICR\000"
 1146      435200
 1147              	.LASF11:
 1148 02ce 756E7369 		.ascii	"unsigned int\000"
 1148      676E6564 
 1148      20696E74 
 1148      00
 1149              	.LASF23:
 1150 02db 52455345 		.ascii	"RESET\000"
 1150      5400
 1151              	.LASF10:
 1152 02e1 6C6F6E67 		.ascii	"long long unsigned int\000"
 1152      206C6F6E 
ARM GAS  /var/tmp//cc1bx9Rl.s 			page 23


 1152      6720756E 
 1152      7369676E 
 1152      65642069 
 1153              	.LASF12:
 1154 02f8 75696E74 		.ascii	"uint8_t\000"
 1154      385F7400 
 1155              	.LASF41:
 1156 0300 43686962 		.ascii	"ChibiOS_3.0.2/ext/stdperiph_stm32f4/src/stm32f4xx_s"
 1156      694F535F 
 1156      332E302E 
 1156      322F6578 
 1156      742F7374 
 1157 0333 79736366 		.ascii	"yscfg.c\000"
 1157      672E6300 
 1158              	.LASF0:
 1159 033b 7369676E 		.ascii	"signed char\000"
 1159      65642063 
 1159      68617200 
 1160              	.LASF13:
 1161 0347 696E7433 		.ascii	"int32_t\000"
 1161      325F7400 
 1162              	.LASF15:
 1163 034f 73697A65 		.ascii	"sizetype\000"
 1163      74797065 
 1163      00
 1164              	.LASF9:
 1165 0358 6C6F6E67 		.ascii	"long long int\000"
 1165      206C6F6E 
 1165      6720696E 
 1165      7400
 1166              	.LASF17:
 1167 0366 53797374 		.ascii	"SystemCoreClock\000"
 1167      656D436F 
 1167      7265436C 
 1167      6F636B00 
 1168              	.LASF38:
 1169 0376 53595343 		.ascii	"SYSCFG_MemoryRemap\000"
 1169      46475F4D 
 1169      656D6F72 
 1169      7952656D 
 1169      617000
 1170              	.LASF2:
 1171 0389 73686F72 		.ascii	"short int\000"
 1171      7420696E 
 1171      7400
 1172              	.LASF30:
 1173 0393 4E657753 		.ascii	"NewState\000"
 1173      74617465 
 1173      00
 1174              	.LASF22:
 1175 039c 53595343 		.ascii	"SYSCFG_TypeDef\000"
 1175      46475F54 
 1175      79706544 
 1175      656600
 1176              	.LASF33:
 1177 03ab 45585449 		.ascii	"EXTI_PortSourceGPIOx\000"
 1177      5F506F72 
ARM GAS  /var/tmp//cc1bx9Rl.s 			page 24


 1177      74536F75 
 1177      72636547 
 1177      50494F78 
 1178              	.LASF14:
 1179 03c0 75696E74 		.ascii	"uint32_t\000"
 1179      33325F74 
 1179      00
 1180              	.LASF6:
 1181 03c9 6C6F6E67 		.ascii	"long int\000"
 1181      20696E74 
 1181      00
 1182              	.LASF25:
 1183 03d2 44495341 		.ascii	"DISABLE\000"
 1183      424C4500 
 1184              	.LASF35:
 1185 03da 62697473 		.ascii	"bitstatus\000"
 1185      74617475 
 1185      7300
 1186              	.LASF36:
 1187 03e4 53595343 		.ascii	"SYSCFG_MemorySwappingBank\000"
 1187      46475F4D 
 1187      656D6F72 
 1187      79537761 
 1187      7070696E 
 1188              	.LASF37:
 1189 03fe 53595343 		.ascii	"SYSCFG_MemoryRemapConfig\000"
 1189      46475F4D 
 1189      656D6F72 
 1189      7952656D 
 1189      6170436F 
 1190              		.ident	"GCC: (GNU Tools for ARM Embedded Processors 6-2017-q2-update) 6.3.1 20170620 (release) [AR
ARM GAS  /var/tmp//cc1bx9Rl.s 			page 25


DEFINED SYMBOLS
                            *ABS*:0000000000000000 stm32f4xx_syscfg.c
/var/tmp//cc1bx9Rl.s:18     .text.SYSCFG_DeInit:0000000000000000 $t
/var/tmp//cc1bx9Rl.s:26     .text.SYSCFG_DeInit:0000000000000000 SYSCFG_DeInit
/var/tmp//cc1bx9Rl.s:57     .text.SYSCFG_MemoryRemapConfig:0000000000000000 $t
/var/tmp//cc1bx9Rl.s:65     .text.SYSCFG_MemoryRemapConfig:0000000000000000 SYSCFG_MemoryRemapConfig
/var/tmp//cc1bx9Rl.s:80     .text.SYSCFG_MemoryRemapConfig:0000000000000008 $d
/var/tmp//cc1bx9Rl.s:85     .text.SYSCFG_MemorySwappingBank:0000000000000000 $t
/var/tmp//cc1bx9Rl.s:93     .text.SYSCFG_MemorySwappingBank:0000000000000000 SYSCFG_MemorySwappingBank
/var/tmp//cc1bx9Rl.s:108    .text.SYSCFG_MemorySwappingBank:0000000000000008 $d
/var/tmp//cc1bx9Rl.s:113    .text.SYSCFG_EXTILineConfig:0000000000000000 $t
/var/tmp//cc1bx9Rl.s:121    .text.SYSCFG_EXTILineConfig:0000000000000000 SYSCFG_EXTILineConfig
/var/tmp//cc1bx9Rl.s:168    .text.SYSCFG_ETH_MediaInterfaceConfig:0000000000000000 $t
/var/tmp//cc1bx9Rl.s:176    .text.SYSCFG_ETH_MediaInterfaceConfig:0000000000000000 SYSCFG_ETH_MediaInterfaceConfig
/var/tmp//cc1bx9Rl.s:191    .text.SYSCFG_ETH_MediaInterfaceConfig:0000000000000008 $d
/var/tmp//cc1bx9Rl.s:196    .text.SYSCFG_CompensationCellCmd:0000000000000000 $t
/var/tmp//cc1bx9Rl.s:204    .text.SYSCFG_CompensationCellCmd:0000000000000000 SYSCFG_CompensationCellCmd
/var/tmp//cc1bx9Rl.s:219    .text.SYSCFG_CompensationCellCmd:0000000000000008 $d
/var/tmp//cc1bx9Rl.s:224    .text.SYSCFG_GetCompensationCellStatus:0000000000000000 $t
/var/tmp//cc1bx9Rl.s:232    .text.SYSCFG_GetCompensationCellStatus:0000000000000000 SYSCFG_GetCompensationCellStatus
/var/tmp//cc1bx9Rl.s:251    .text.SYSCFG_GetCompensationCellStatus:000000000000000c $d
                     .debug_frame:0000000000000010 $d

UNDEFINED SYMBOLS
RCC_APB2PeriphResetCmd
