ARM GAS  /var/tmp//ccR1QleB.s 			page 1


   1              		.cpu cortex-m4
   2              		.eabi_attribute 27, 1
   3              		.eabi_attribute 28, 1
   4              		.eabi_attribute 20, 1
   5              		.eabi_attribute 21, 1
   6              		.eabi_attribute 23, 3
   7              		.eabi_attribute 24, 1
   8              		.eabi_attribute 25, 1
   9              		.eabi_attribute 26, 1
  10              		.eabi_attribute 30, 2
  11              		.eabi_attribute 34, 1
  12              		.eabi_attribute 18, 4
  13              		.file	"stm32f4xx_adc.c"
  14              		.text
  15              	.Ltext0:
  16              		.cfi_sections	.debug_frame
  17              		.section	.text.ADC_DeInit,"ax",%progbits
  18              		.align	1
  19              		.p2align 4,,15
  20              		.global	ADC_DeInit
  21              		.syntax unified
  22              		.thumb
  23              		.thumb_func
  24              		.fpu fpv4-sp-d16
  25              		.type	ADC_DeInit, %function
  26              	ADC_DeInit:
  27              	.LFB112:
  28              		.file 1 "ChibiOS_3.0.2/ext/stdperiph_stm32f4/src/stm32f4xx_adc.c"
  29              		.loc 1 218 0
  30              		.cfi_startproc
  31              		@ args = 0, pretend = 0, frame = 0
  32              		@ frame_needed = 0, uses_anonymous_args = 0
  33 0000 08B5     		push	{r3, lr}
  34              		.cfi_def_cfa_offset 8
  35              		.cfi_offset 3, -8
  36              		.cfi_offset 14, -4
  37              		.loc 1 220 0
  38 0002 0121     		movs	r1, #1
  39 0004 4FF48070 		mov	r0, #256
  40 0008 FFF7FEFF 		bl	RCC_APB2PeriphResetCmd
  41              	.LVL0:
  42              		.loc 1 223 0
  43 000c 0021     		movs	r1, #0
  44 000e 4FF48070 		mov	r0, #256
  45              		.loc 1 224 0
  46 0012 BDE80840 		pop	{r3, lr}
  47              		.cfi_restore 14
  48              		.cfi_restore 3
  49              		.cfi_def_cfa_offset 0
  50              		.loc 1 223 0
  51 0016 FFF7FEBF 		b	RCC_APB2PeriphResetCmd
  52              	.LVL1:
  53              		.cfi_endproc
  54              	.LFE112:
  55              		.size	ADC_DeInit, .-ADC_DeInit
  56 001a 00BF     		.section	.text.ADC_Init,"ax",%progbits
  57              		.align	1
ARM GAS  /var/tmp//ccR1QleB.s 			page 2


  58              		.p2align 4,,15
  59              		.global	ADC_Init
  60              		.syntax unified
  61              		.thumb
  62              		.thumb_func
  63              		.fpu fpv4-sp-d16
  64              		.type	ADC_Init, %function
  65              	ADC_Init:
  66              	.LFB113:
  67              		.loc 1 240 0
  68              		.cfi_startproc
  69              		@ args = 0, pretend = 0, frame = 0
  70              		@ frame_needed = 0, uses_anonymous_args = 0
  71              	.LVL2:
  72              		.loc 1 255 0
  73 0000 4268     		ldr	r2, [r0, #4]
  74              	.LVL3:
  75 0002 0B69     		ldr	r3, [r1, #16]
  76              		.loc 1 240 0
  77 0004 F0B5     		push	{r4, r5, r6, r7, lr}
  78              		.cfi_def_cfa_offset 20
  79              		.cfi_offset 4, -20
  80              		.cfi_offset 5, -16
  81              		.cfi_offset 6, -12
  82              		.cfi_offset 7, -8
  83              		.cfi_offset 14, -4
  84              		.loc 1 258 0
  85 0006 22F04072 		bic	r2, r2, #50331648
  86              	.LVL4:
  87              		.loc 1 263 0
  88 000a 91F804E0 		ldrb	lr, [r1, #4]	@ zero_extendqisi2
  89 000e 0E68     		ldr	r6, [r1]
  90 0010 CF68     		ldr	r7, [r1, #12]
  91 0012 8C68     		ldr	r4, [r1, #8]
  92              		.loc 1 272 0
  93 0014 0C4D     		ldr	r5, .L5
  94              		.loc 1 258 0
  95 0016 22F48072 		bic	r2, r2, #256
  96 001a 42EA0E22 		orr	r2, r2, lr, lsl #8
  97              		.loc 1 263 0
  98 001e 3243     		orrs	r2, r2, r6
  99              	.LVL5:
 100              		.loc 1 266 0
 101 0020 4260     		str	r2, [r0, #4]
 102              		.loc 1 269 0
 103 0022 8668     		ldr	r6, [r0, #8]
 104              	.LVL6:
 105              		.loc 1 283 0
 106 0024 4A79     		ldrb	r2, [r1, #5]	@ zero_extendqisi2
 107 0026 3B43     		orrs	r3, r3, r7
 108              		.loc 1 272 0
 109 0028 3540     		ands	r5, r5, r6
 110              	.LVL7:
 111 002a 2343     		orrs	r3, r3, r4
 112 002c 2B43     		orrs	r3, r3, r5
 113              		.loc 1 280 0
 114 002e 43EA4203 		orr	r3, r3, r2, lsl #1
ARM GAS  /var/tmp//ccR1QleB.s 			page 3


 115              	.LVL8:
 116              		.loc 1 286 0
 117 0032 8360     		str	r3, [r0, #8]
 118              		.loc 1 296 0
 119 0034 0A7D     		ldrb	r2, [r1, #20]	@ zero_extendqisi2
 120              		.loc 1 289 0
 121 0036 C36A     		ldr	r3, [r0, #44]
 122              	.LVL9:
 123              		.loc 1 296 0
 124 0038 013A     		subs	r2, r2, #1
 125              		.loc 1 297 0
 126 003a D2B2     		uxtb	r2, r2
 127              		.loc 1 292 0
 128 003c 23F47003 		bic	r3, r3, #15728640
 129              	.LVL10:
 130              		.loc 1 297 0
 131 0040 43EA0253 		orr	r3, r3, r2, lsl #20
 132              	.LVL11:
 133              		.loc 1 300 0
 134 0044 C362     		str	r3, [r0, #44]
 135              	.LVL12:
 136 0046 F0BD     		pop	{r4, r5, r6, r7, pc}
 137              	.L6:
 138              		.align	2
 139              	.L5:
 140 0048 FDF7FFC0 		.word	-1056966659
 141              		.cfi_endproc
 142              	.LFE113:
 143              		.size	ADC_Init, .-ADC_Init
 144              		.section	.text.ADC_StructInit,"ax",%progbits
 145              		.align	1
 146              		.p2align 4,,15
 147              		.global	ADC_StructInit
 148              		.syntax unified
 149              		.thumb
 150              		.thumb_func
 151              		.fpu fpv4-sp-d16
 152              		.type	ADC_StructInit, %function
 153              	ADC_StructInit:
 154              	.LFB114:
 155              		.loc 1 315 0
 156              		.cfi_startproc
 157              		@ args = 0, pretend = 0, frame = 0
 158              		@ frame_needed = 0, uses_anonymous_args = 0
 159              		@ link register save eliminated.
 160              	.LVL13:
 161              		.loc 1 317 0
 162 0000 0023     		movs	r3, #0
 163              		.loc 1 335 0
 164 0002 0122     		movs	r2, #1
 165 0004 0275     		strb	r2, [r0, #20]
 166              		.loc 1 317 0
 167 0006 0360     		str	r3, [r0]
 168              		.loc 1 320 0
 169 0008 0371     		strb	r3, [r0, #4]
 170              		.loc 1 323 0
 171 000a 4371     		strb	r3, [r0, #5]
ARM GAS  /var/tmp//ccR1QleB.s 			page 4


 172              		.loc 1 326 0
 173 000c 8360     		str	r3, [r0, #8]
 174              		.loc 1 329 0
 175 000e C360     		str	r3, [r0, #12]
 176              		.loc 1 332 0
 177 0010 0361     		str	r3, [r0, #16]
 178 0012 7047     		bx	lr
 179              		.cfi_endproc
 180              	.LFE114:
 181              		.size	ADC_StructInit, .-ADC_StructInit
 182              		.section	.text.ADC_CommonInit,"ax",%progbits
 183              		.align	1
 184              		.p2align 4,,15
 185              		.global	ADC_CommonInit
 186              		.syntax unified
 187              		.thumb
 188              		.thumb_func
 189              		.fpu fpv4-sp-d16
 190              		.type	ADC_CommonInit, %function
 191              	ADC_CommonInit:
 192              	.LFB115:
 193              		.loc 1 346 0
 194              		.cfi_startproc
 195              		@ args = 0, pretend = 0, frame = 0
 196              		@ frame_needed = 0, uses_anonymous_args = 0
 197              		@ link register save eliminated.
 198              	.LVL14:
 199              		.loc 1 355 0
 200 0000 0749     		ldr	r1, .L10
 201              		.loc 1 358 0
 202 0002 084A     		ldr	r2, .L10+4
 203              		.loc 1 346 0
 204 0004 70B4     		push	{r4, r5, r6}
 205              		.cfi_def_cfa_offset 12
 206              		.cfi_offset 4, -12
 207              		.cfi_offset 5, -8
 208              		.cfi_offset 6, -4
 209              		.loc 1 366 0
 210 0006 90E84800 		ldm	r0, {r3, r6}
 211              		.loc 1 355 0
 212 000a 4D68     		ldr	r5, [r1, #4]
 213              	.LVL15:
 214 000c 8468     		ldr	r4, [r0, #8]
 215              		.loc 1 366 0
 216 000e C068     		ldr	r0, [r0, #12]
 217              	.LVL16:
 218 0010 3343     		orrs	r3, r3, r6
 219              		.loc 1 358 0
 220 0012 2A40     		ands	r2, r2, r5
 221              	.LVL17:
 222 0014 1343     		orrs	r3, r3, r2
 223 0016 2343     		orrs	r3, r3, r4
 224              		.loc 1 366 0
 225 0018 0343     		orrs	r3, r3, r0
 226              	.LVL18:
 227              		.loc 1 372 0
 228 001a 4B60     		str	r3, [r1, #4]
ARM GAS  /var/tmp//ccR1QleB.s 			page 5


 229              		.loc 1 373 0
 230 001c 70BC     		pop	{r4, r5, r6}
 231              		.cfi_restore 6
 232              		.cfi_restore 5
 233              		.cfi_restore 4
 234              		.cfi_def_cfa_offset 0
 235 001e 7047     		bx	lr
 236              	.L11:
 237              		.align	2
 238              	.L10:
 239 0020 00230140 		.word	1073816320
 240 0024 E030FCFF 		.word	-249632
 241              		.cfi_endproc
 242              	.LFE115:
 243              		.size	ADC_CommonInit, .-ADC_CommonInit
 244              		.section	.text.ADC_CommonStructInit,"ax",%progbits
 245              		.align	1
 246              		.p2align 4,,15
 247              		.global	ADC_CommonStructInit
 248              		.syntax unified
 249              		.thumb
 250              		.thumb_func
 251              		.fpu fpv4-sp-d16
 252              		.type	ADC_CommonStructInit, %function
 253              	ADC_CommonStructInit:
 254              	.LFB116:
 255              		.loc 1 382 0
 256              		.cfi_startproc
 257              		@ args = 0, pretend = 0, frame = 0
 258              		@ frame_needed = 0, uses_anonymous_args = 0
 259              		@ link register save eliminated.
 260              	.LVL19:
 261              		.loc 1 384 0
 262 0000 0023     		movs	r3, #0
 263 0002 0360     		str	r3, [r0]
 264              		.loc 1 387 0
 265 0004 4360     		str	r3, [r0, #4]
 266              		.loc 1 390 0
 267 0006 8360     		str	r3, [r0, #8]
 268              		.loc 1 393 0
 269 0008 C360     		str	r3, [r0, #12]
 270 000a 7047     		bx	lr
 271              		.cfi_endproc
 272              	.LFE116:
 273              		.size	ADC_CommonStructInit, .-ADC_CommonStructInit
 274              		.section	.text.ADC_Cmd,"ax",%progbits
 275              		.align	1
 276              		.p2align 4,,15
 277              		.global	ADC_Cmd
 278              		.syntax unified
 279              		.thumb
 280              		.thumb_func
 281              		.fpu fpv4-sp-d16
 282              		.type	ADC_Cmd, %function
 283              	ADC_Cmd:
 284              	.LFB117:
 285              		.loc 1 404 0
ARM GAS  /var/tmp//ccR1QleB.s 			page 6


 286              		.cfi_startproc
 287              		@ args = 0, pretend = 0, frame = 0
 288              		@ frame_needed = 0, uses_anonymous_args = 0
 289              		@ link register save eliminated.
 290              	.LVL20:
 291              		.loc 1 411 0
 292 0000 8368     		ldr	r3, [r0, #8]
 293              		.loc 1 408 0
 294 0002 19B9     		cbnz	r1, .L17
 295              		.loc 1 416 0
 296 0004 23F00103 		bic	r3, r3, #1
 297 0008 8360     		str	r3, [r0, #8]
 298 000a 7047     		bx	lr
 299              	.L17:
 300              		.loc 1 411 0
 301 000c 43F00103 		orr	r3, r3, #1
 302 0010 8360     		str	r3, [r0, #8]
 303 0012 7047     		bx	lr
 304              		.cfi_endproc
 305              	.LFE117:
 306              		.size	ADC_Cmd, .-ADC_Cmd
 307              		.section	.text.ADC_AnalogWatchdogCmd,"ax",%progbits
 308              		.align	1
 309              		.p2align 4,,15
 310              		.global	ADC_AnalogWatchdogCmd
 311              		.syntax unified
 312              		.thumb
 313              		.thumb_func
 314              		.fpu fpv4-sp-d16
 315              		.type	ADC_AnalogWatchdogCmd, %function
 316              	ADC_AnalogWatchdogCmd:
 317              	.LFB118:
 318              		.loc 1 460 0
 319              		.cfi_startproc
 320              		@ args = 0, pretend = 0, frame = 0
 321              		@ frame_needed = 0, uses_anonymous_args = 0
 322              		@ link register save eliminated.
 323              	.LVL21:
 324              		.loc 1 467 0
 325 0000 4368     		ldr	r3, [r0, #4]
 326              	.LVL22:
 327              		.loc 1 470 0
 328 0002 23F44003 		bic	r3, r3, #12582912
 329              	.LVL23:
 330 0006 23F40073 		bic	r3, r3, #512
 331              	.LVL24:
 332              		.loc 1 473 0
 333 000a 1943     		orrs	r1, r1, r3
 334              	.LVL25:
 335              		.loc 1 476 0
 336 000c 4160     		str	r1, [r0, #4]
 337 000e 7047     		bx	lr
 338              		.cfi_endproc
 339              	.LFE118:
 340              		.size	ADC_AnalogWatchdogCmd, .-ADC_AnalogWatchdogCmd
 341              		.section	.text.ADC_AnalogWatchdogThresholdsConfig,"ax",%progbits
 342              		.align	1
ARM GAS  /var/tmp//ccR1QleB.s 			page 7


 343              		.p2align 4,,15
 344              		.global	ADC_AnalogWatchdogThresholdsConfig
 345              		.syntax unified
 346              		.thumb
 347              		.thumb_func
 348              		.fpu fpv4-sp-d16
 349              		.type	ADC_AnalogWatchdogThresholdsConfig, %function
 350              	ADC_AnalogWatchdogThresholdsConfig:
 351              	.LFB119:
 352              		.loc 1 490 0
 353              		.cfi_startproc
 354              		@ args = 0, pretend = 0, frame = 0
 355              		@ frame_needed = 0, uses_anonymous_args = 0
 356              		@ link register save eliminated.
 357              	.LVL26:
 358              		.loc 1 497 0
 359 0000 4162     		str	r1, [r0, #36]
 360              		.loc 1 500 0
 361 0002 8262     		str	r2, [r0, #40]
 362 0004 7047     		bx	lr
 363              		.cfi_endproc
 364              	.LFE119:
 365              		.size	ADC_AnalogWatchdogThresholdsConfig, .-ADC_AnalogWatchdogThresholdsConfig
 366              		.section	.text.ADC_AnalogWatchdogSingleChannelConfig,"ax",%progbits
 367              		.align	1
 368              		.p2align 4,,15
 369              		.global	ADC_AnalogWatchdogSingleChannelConfig
 370              		.syntax unified
 371              		.thumb
 372              		.thumb_func
 373              		.fpu fpv4-sp-d16
 374              		.type	ADC_AnalogWatchdogSingleChannelConfig, %function
 375              	ADC_AnalogWatchdogSingleChannelConfig:
 376              	.LFB120:
 377              		.loc 1 530 0
 378              		.cfi_startproc
 379              		@ args = 0, pretend = 0, frame = 0
 380              		@ frame_needed = 0, uses_anonymous_args = 0
 381              		@ link register save eliminated.
 382              	.LVL27:
 383              		.loc 1 537 0
 384 0000 4368     		ldr	r3, [r0, #4]
 385              	.LVL28:
 386              		.loc 1 540 0
 387 0002 23F01F03 		bic	r3, r3, #31
 388              	.LVL29:
 389              		.loc 1 543 0
 390 0006 1943     		orrs	r1, r1, r3
 391              	.LVL30:
 392              		.loc 1 546 0
 393 0008 4160     		str	r1, [r0, #4]
 394 000a 7047     		bx	lr
 395              		.cfi_endproc
 396              	.LFE120:
 397              		.size	ADC_AnalogWatchdogSingleChannelConfig, .-ADC_AnalogWatchdogSingleChannelConfig
 398              		.section	.text.ADC_TempSensorVrefintCmd,"ax",%progbits
 399              		.align	1
ARM GAS  /var/tmp//ccR1QleB.s 			page 8


 400              		.p2align 4,,15
 401              		.global	ADC_TempSensorVrefintCmd
 402              		.syntax unified
 403              		.thumb
 404              		.thumb_func
 405              		.fpu fpv4-sp-d16
 406              		.type	ADC_TempSensorVrefintCmd, %function
 407              	ADC_TempSensorVrefintCmd:
 408              	.LFB121:
 409              		.loc 1 594 0
 410              		.cfi_startproc
 411              		@ args = 0, pretend = 0, frame = 0
 412              		@ frame_needed = 0, uses_anonymous_args = 0
 413              		@ link register save eliminated.
 414              	.LVL31:
 415              		.loc 1 600 0
 416 0000 054A     		ldr	r2, .L25
 417 0002 5368     		ldr	r3, [r2, #4]
 418              		.loc 1 597 0
 419 0004 18B9     		cbnz	r0, .L24
 420              		.loc 1 605 0
 421 0006 23F40003 		bic	r3, r3, #8388608
 422 000a 5360     		str	r3, [r2, #4]
 423 000c 7047     		bx	lr
 424              	.L24:
 425              		.loc 1 600 0
 426 000e 43F40003 		orr	r3, r3, #8388608
 427 0012 5360     		str	r3, [r2, #4]
 428 0014 7047     		bx	lr
 429              	.L26:
 430 0016 00BF     		.align	2
 431              	.L25:
 432 0018 00230140 		.word	1073816320
 433              		.cfi_endproc
 434              	.LFE121:
 435              		.size	ADC_TempSensorVrefintCmd, .-ADC_TempSensorVrefintCmd
 436              		.section	.text.ADC_VBATCmd,"ax",%progbits
 437              		.align	1
 438              		.p2align 4,,15
 439              		.global	ADC_VBATCmd
 440              		.syntax unified
 441              		.thumb
 442              		.thumb_func
 443              		.fpu fpv4-sp-d16
 444              		.type	ADC_VBATCmd, %function
 445              	ADC_VBATCmd:
 446              	.LFB122:
 447              		.loc 1 620 0
 448              		.cfi_startproc
 449              		@ args = 0, pretend = 0, frame = 0
 450              		@ frame_needed = 0, uses_anonymous_args = 0
 451              		@ link register save eliminated.
 452              	.LVL32:
 453              		.loc 1 626 0
 454 0000 054A     		ldr	r2, .L31
 455 0002 5368     		ldr	r3, [r2, #4]
 456              		.loc 1 623 0
ARM GAS  /var/tmp//ccR1QleB.s 			page 9


 457 0004 18B9     		cbnz	r0, .L30
 458              		.loc 1 631 0
 459 0006 23F48003 		bic	r3, r3, #4194304
 460 000a 5360     		str	r3, [r2, #4]
 461 000c 7047     		bx	lr
 462              	.L30:
 463              		.loc 1 626 0
 464 000e 43F48003 		orr	r3, r3, #4194304
 465 0012 5360     		str	r3, [r2, #4]
 466 0014 7047     		bx	lr
 467              	.L32:
 468 0016 00BF     		.align	2
 469              	.L31:
 470 0018 00230140 		.word	1073816320
 471              		.cfi_endproc
 472              	.LFE122:
 473              		.size	ADC_VBATCmd, .-ADC_VBATCmd
 474              		.section	.text.ADC_RegularChannelConfig,"ax",%progbits
 475              		.align	1
 476              		.p2align 4,,15
 477              		.global	ADC_RegularChannelConfig
 478              		.syntax unified
 479              		.thumb
 480              		.thumb_func
 481              		.fpu fpv4-sp-d16
 482              		.type	ADC_RegularChannelConfig, %function
 483              	ADC_RegularChannelConfig:
 484              	.LFB123:
 485              		.loc 1 720 0
 486              		.cfi_startproc
 487              		@ args = 0, pretend = 0, frame = 0
 488              		@ frame_needed = 0, uses_anonymous_args = 0
 489              		@ link register save eliminated.
 490              	.LVL33:
 491              		.loc 1 729 0
 492 0000 0929     		cmp	r1, #9
 493              		.loc 1 720 0
 494 0002 70B4     		push	{r4, r5, r6}
 495              		.cfi_def_cfa_offset 12
 496              		.cfi_offset 4, -12
 497              		.cfi_offset 5, -8
 498              		.cfi_offset 6, -4
 499              		.loc 1 729 0
 500 0004 1CD9     		bls	.L34
 501              		.loc 1 735 0
 502 0006 A1F10A04 		sub	r4, r1, #10
 503 000a 04EB4404 		add	r4, r4, r4, lsl #1
 504              		.loc 1 732 0
 505 000e C568     		ldr	r5, [r0, #12]
 506              	.LVL34:
 507              		.loc 1 735 0
 508 0010 0726     		movs	r6, #7
 509 0012 A640     		lsls	r6, r6, r4
 510              	.LVL35:
 511              		.loc 1 741 0
 512 0014 A340     		lsls	r3, r3, r4
 513              	.LVL36:
ARM GAS  /var/tmp//ccR1QleB.s 			page 10


 514              		.loc 1 738 0
 515 0016 25EA0604 		bic	r4, r5, r6
 516              	.LVL37:
 517              		.loc 1 744 0
 518 001a 2343     		orrs	r3, r3, r4
 519              	.LVL38:
 520              		.loc 1 770 0
 521 001c 062A     		cmp	r2, #6
 522              		.loc 1 747 0
 523 001e C360     		str	r3, [r0, #12]
 524              		.loc 1 770 0
 525 0020 1AD9     		bls	.L40
 526              	.L36:
 527              		.loc 1 791 0
 528 0022 0C2A     		cmp	r2, #12
 529 0024 25D9     		bls	.L41
 530              		.loc 1 818 0
 531 0026 0D3A     		subs	r2, r2, #13
 532              	.LVL39:
 533 0028 02EB8202 		add	r2, r2, r2, lsl #2
 534              		.loc 1 815 0
 535 002c C36A     		ldr	r3, [r0, #44]
 536              	.LVL40:
 537              		.loc 1 818 0
 538 002e 1F24     		movs	r4, #31
 539 0030 9440     		lsls	r4, r4, r2
 540              	.LVL41:
 541              		.loc 1 824 0
 542 0032 9140     		lsls	r1, r1, r2
 543              	.LVL42:
 544              		.loc 1 821 0
 545 0034 23EA0402 		bic	r2, r3, r4
 546              	.LVL43:
 547              		.loc 1 827 0
 548 0038 1143     		orrs	r1, r1, r2
 549              	.LVL44:
 550              		.loc 1 830 0
 551 003a C162     		str	r1, [r0, #44]
 552              		.loc 1 832 0
 553 003c 70BC     		pop	{r4, r5, r6}
 554              		.cfi_remember_state
 555              		.cfi_restore 6
 556              		.cfi_restore 5
 557              		.cfi_restore 4
 558              		.cfi_def_cfa_offset 0
 559 003e 7047     		bx	lr
 560              	.LVL45:
 561              	.L34:
 562              		.cfi_restore_state
 563              		.loc 1 755 0
 564 0040 01EB4106 		add	r6, r1, r1, lsl #1
 565              		.loc 1 752 0
 566 0044 0469     		ldr	r4, [r0, #16]
 567              	.LVL46:
 568              		.loc 1 755 0
 569 0046 0725     		movs	r5, #7
 570 0048 B540     		lsls	r5, r5, r6
ARM GAS  /var/tmp//ccR1QleB.s 			page 11


 571              	.LVL47:
 572              		.loc 1 761 0
 573 004a B340     		lsls	r3, r3, r6
 574              	.LVL48:
 575              		.loc 1 758 0
 576 004c 24EA0504 		bic	r4, r4, r5
 577              	.LVL49:
 578              		.loc 1 764 0
 579 0050 2343     		orrs	r3, r3, r4
 580              	.LVL50:
 581              		.loc 1 770 0
 582 0052 062A     		cmp	r2, #6
 583              		.loc 1 767 0
 584 0054 0361     		str	r3, [r0, #16]
 585              		.loc 1 770 0
 586 0056 E4D8     		bhi	.L36
 587              	.L40:
 588              		.loc 1 776 0
 589 0058 013A     		subs	r2, r2, #1
 590              	.LVL51:
 591 005a 02EB8202 		add	r2, r2, r2, lsl #2
 592              		.loc 1 773 0
 593 005e 436B     		ldr	r3, [r0, #52]
 594              	.LVL52:
 595              		.loc 1 776 0
 596 0060 1F24     		movs	r4, #31
 597 0062 9440     		lsls	r4, r4, r2
 598              	.LVL53:
 599              		.loc 1 782 0
 600 0064 9140     		lsls	r1, r1, r2
 601              	.LVL54:
 602              		.loc 1 779 0
 603 0066 23EA0402 		bic	r2, r3, r4
 604              	.LVL55:
 605              		.loc 1 785 0
 606 006a 1143     		orrs	r1, r1, r2
 607              	.LVL56:
 608              		.loc 1 788 0
 609 006c 4163     		str	r1, [r0, #52]
 610              		.loc 1 832 0
 611 006e 70BC     		pop	{r4, r5, r6}
 612              		.cfi_remember_state
 613              		.cfi_restore 4
 614              		.cfi_restore 5
 615              		.cfi_restore 6
 616              		.cfi_def_cfa_offset 0
 617 0070 7047     		bx	lr
 618              	.LVL57:
 619              	.L41:
 620              		.cfi_restore_state
 621              		.loc 1 797 0
 622 0072 073A     		subs	r2, r2, #7
 623              	.LVL58:
 624 0074 02EB8202 		add	r2, r2, r2, lsl #2
 625              		.loc 1 794 0
 626 0078 036B     		ldr	r3, [r0, #48]
 627              	.LVL59:
ARM GAS  /var/tmp//ccR1QleB.s 			page 12


 628              		.loc 1 797 0
 629 007a 1F24     		movs	r4, #31
 630 007c 9440     		lsls	r4, r4, r2
 631              	.LVL60:
 632              		.loc 1 803 0
 633 007e 9140     		lsls	r1, r1, r2
 634              	.LVL61:
 635              		.loc 1 800 0
 636 0080 23EA0402 		bic	r2, r3, r4
 637              	.LVL62:
 638              		.loc 1 806 0
 639 0084 1143     		orrs	r1, r1, r2
 640              	.LVL63:
 641              		.loc 1 809 0
 642 0086 0163     		str	r1, [r0, #48]
 643              		.loc 1 832 0
 644 0088 70BC     		pop	{r4, r5, r6}
 645              		.cfi_restore 4
 646              		.cfi_restore 5
 647              		.cfi_restore 6
 648              		.cfi_def_cfa_offset 0
 649 008a 7047     		bx	lr
 650              		.cfi_endproc
 651              	.LFE123:
 652              		.size	ADC_RegularChannelConfig, .-ADC_RegularChannelConfig
 653              		.section	.text.ADC_SoftwareStartConv,"ax",%progbits
 654              		.align	1
 655              		.p2align 4,,15
 656              		.global	ADC_SoftwareStartConv
 657              		.syntax unified
 658              		.thumb
 659              		.thumb_func
 660              		.fpu fpv4-sp-d16
 661              		.type	ADC_SoftwareStartConv, %function
 662              	ADC_SoftwareStartConv:
 663              	.LFB124:
 664              		.loc 1 840 0
 665              		.cfi_startproc
 666              		@ args = 0, pretend = 0, frame = 0
 667              		@ frame_needed = 0, uses_anonymous_args = 0
 668              		@ link register save eliminated.
 669              	.LVL64:
 670              		.loc 1 845 0
 671 0000 8368     		ldr	r3, [r0, #8]
 672 0002 43F08043 		orr	r3, r3, #1073741824
 673 0006 8360     		str	r3, [r0, #8]
 674 0008 7047     		bx	lr
 675              		.cfi_endproc
 676              	.LFE124:
 677              		.size	ADC_SoftwareStartConv, .-ADC_SoftwareStartConv
 678 000a 00BF     		.section	.text.ADC_GetSoftwareStartConvStatus,"ax",%progbits
 679              		.align	1
 680              		.p2align 4,,15
 681              		.global	ADC_GetSoftwareStartConvStatus
 682              		.syntax unified
 683              		.thumb
 684              		.thumb_func
ARM GAS  /var/tmp//ccR1QleB.s 			page 13


 685              		.fpu fpv4-sp-d16
 686              		.type	ADC_GetSoftwareStartConvStatus, %function
 687              	ADC_GetSoftwareStartConvStatus:
 688              	.LFB125:
 689              		.loc 1 854 0
 690              		.cfi_startproc
 691              		@ args = 0, pretend = 0, frame = 0
 692              		@ frame_needed = 0, uses_anonymous_args = 0
 693              		@ link register save eliminated.
 694              	.LVL65:
 695              		.loc 1 860 0
 696 0000 8068     		ldr	r0, [r0, #8]
 697              	.LVL66:
 698              		.loc 1 873 0
 699 0002 C0F38070 		ubfx	r0, r0, #30, #1
 700              	.LVL67:
 701 0006 7047     		bx	lr
 702              		.cfi_endproc
 703              	.LFE125:
 704              		.size	ADC_GetSoftwareStartConvStatus, .-ADC_GetSoftwareStartConvStatus
 705              		.section	.text.ADC_EOCOnEachRegularChannelCmd,"ax",%progbits
 706              		.align	1
 707              		.p2align 4,,15
 708              		.global	ADC_EOCOnEachRegularChannelCmd
 709              		.syntax unified
 710              		.thumb
 711              		.thumb_func
 712              		.fpu fpv4-sp-d16
 713              		.type	ADC_EOCOnEachRegularChannelCmd, %function
 714              	ADC_EOCOnEachRegularChannelCmd:
 715              	.LFB126:
 716              		.loc 1 884 0
 717              		.cfi_startproc
 718              		@ args = 0, pretend = 0, frame = 0
 719              		@ frame_needed = 0, uses_anonymous_args = 0
 720              		@ link register save eliminated.
 721              	.LVL68:
 722              		.loc 1 892 0
 723 0000 8368     		ldr	r3, [r0, #8]
 724              		.loc 1 889 0
 725 0002 19B9     		cbnz	r1, .L47
 726              		.loc 1 897 0
 727 0004 23F48063 		bic	r3, r3, #1024
 728 0008 8360     		str	r3, [r0, #8]
 729 000a 7047     		bx	lr
 730              	.L47:
 731              		.loc 1 892 0
 732 000c 43F48063 		orr	r3, r3, #1024
 733 0010 8360     		str	r3, [r0, #8]
 734 0012 7047     		bx	lr
 735              		.cfi_endproc
 736              	.LFE126:
 737              		.size	ADC_EOCOnEachRegularChannelCmd, .-ADC_EOCOnEachRegularChannelCmd
 738              		.section	.text.ADC_ContinuousModeCmd,"ax",%progbits
 739              		.align	1
 740              		.p2align 4,,15
 741              		.global	ADC_ContinuousModeCmd
ARM GAS  /var/tmp//ccR1QleB.s 			page 14


 742              		.syntax unified
 743              		.thumb
 744              		.thumb_func
 745              		.fpu fpv4-sp-d16
 746              		.type	ADC_ContinuousModeCmd, %function
 747              	ADC_ContinuousModeCmd:
 748              	.LFB127:
 749              		.loc 1 909 0
 750              		.cfi_startproc
 751              		@ args = 0, pretend = 0, frame = 0
 752              		@ frame_needed = 0, uses_anonymous_args = 0
 753              		@ link register save eliminated.
 754              	.LVL69:
 755              		.loc 1 917 0
 756 0000 8368     		ldr	r3, [r0, #8]
 757              		.loc 1 914 0
 758 0002 19B9     		cbnz	r1, .L51
 759              		.loc 1 922 0
 760 0004 23F00203 		bic	r3, r3, #2
 761 0008 8360     		str	r3, [r0, #8]
 762 000a 7047     		bx	lr
 763              	.L51:
 764              		.loc 1 917 0
 765 000c 43F00203 		orr	r3, r3, #2
 766 0010 8360     		str	r3, [r0, #8]
 767 0012 7047     		bx	lr
 768              		.cfi_endproc
 769              	.LFE127:
 770              		.size	ADC_ContinuousModeCmd, .-ADC_ContinuousModeCmd
 771              		.section	.text.ADC_DiscModeChannelCountConfig,"ax",%progbits
 772              		.align	1
 773              		.p2align 4,,15
 774              		.global	ADC_DiscModeChannelCountConfig
 775              		.syntax unified
 776              		.thumb
 777              		.thumb_func
 778              		.fpu fpv4-sp-d16
 779              		.type	ADC_DiscModeChannelCountConfig, %function
 780              	ADC_DiscModeChannelCountConfig:
 781              	.LFB128:
 782              		.loc 1 935 0
 783              		.cfi_startproc
 784              		@ args = 0, pretend = 0, frame = 0
 785              		@ frame_needed = 0, uses_anonymous_args = 0
 786              		@ link register save eliminated.
 787              	.LVL70:
 788              		.loc 1 950 0
 789 0000 4B1E     		subs	r3, r1, #1
 790              		.loc 1 944 0
 791 0002 4168     		ldr	r1, [r0, #4]
 792              	.LVL71:
 793              		.loc 1 947 0
 794 0004 21F46041 		bic	r1, r1, #57344
 795              	.LVL72:
 796              		.loc 1 951 0
 797 0008 41EA4331 		orr	r1, r1, r3, lsl #13
 798              	.LVL73:
ARM GAS  /var/tmp//ccR1QleB.s 			page 15


 799              		.loc 1 954 0
 800 000c 4160     		str	r1, [r0, #4]
 801 000e 7047     		bx	lr
 802              		.cfi_endproc
 803              	.LFE128:
 804              		.size	ADC_DiscModeChannelCountConfig, .-ADC_DiscModeChannelCountConfig
 805              		.section	.text.ADC_DiscModeCmd,"ax",%progbits
 806              		.align	1
 807              		.p2align 4,,15
 808              		.global	ADC_DiscModeCmd
 809              		.syntax unified
 810              		.thumb
 811              		.thumb_func
 812              		.fpu fpv4-sp-d16
 813              		.type	ADC_DiscModeCmd, %function
 814              	ADC_DiscModeCmd:
 815              	.LFB129:
 816              		.loc 1 967 0
 817              		.cfi_startproc
 818              		@ args = 0, pretend = 0, frame = 0
 819              		@ frame_needed = 0, uses_anonymous_args = 0
 820              		@ link register save eliminated.
 821              	.LVL74:
 822              		.loc 1 975 0
 823 0000 4368     		ldr	r3, [r0, #4]
 824              		.loc 1 972 0
 825 0002 19B9     		cbnz	r1, .L56
 826              		.loc 1 980 0
 827 0004 23F40063 		bic	r3, r3, #2048
 828 0008 4360     		str	r3, [r0, #4]
 829 000a 7047     		bx	lr
 830              	.L56:
 831              		.loc 1 975 0
 832 000c 43F40063 		orr	r3, r3, #2048
 833 0010 4360     		str	r3, [r0, #4]
 834 0012 7047     		bx	lr
 835              		.cfi_endproc
 836              	.LFE129:
 837              		.size	ADC_DiscModeCmd, .-ADC_DiscModeCmd
 838              		.section	.text.ADC_GetConversionValue,"ax",%progbits
 839              		.align	1
 840              		.p2align 4,,15
 841              		.global	ADC_GetConversionValue
 842              		.syntax unified
 843              		.thumb
 844              		.thumb_func
 845              		.fpu fpv4-sp-d16
 846              		.type	ADC_GetConversionValue, %function
 847              	ADC_GetConversionValue:
 848              	.LFB130:
 849              		.loc 1 990 0
 850              		.cfi_startproc
 851              		@ args = 0, pretend = 0, frame = 0
 852              		@ frame_needed = 0, uses_anonymous_args = 0
 853              		@ link register save eliminated.
 854              	.LVL75:
 855              		.loc 1 995 0
ARM GAS  /var/tmp//ccR1QleB.s 			page 16


 856 0000 C06C     		ldr	r0, [r0, #76]
 857              	.LVL76:
 858              		.loc 1 996 0
 859 0002 80B2     		uxth	r0, r0
 860 0004 7047     		bx	lr
 861              		.cfi_endproc
 862              	.LFE130:
 863              		.size	ADC_GetConversionValue, .-ADC_GetConversionValue
 864 0006 00BF     		.section	.text.ADC_GetMultiModeConversionValue,"ax",%progbits
 865              		.align	1
 866              		.p2align 4,,15
 867              		.global	ADC_GetMultiModeConversionValue
 868              		.syntax unified
 869              		.thumb
 870              		.thumb_func
 871              		.fpu fpv4-sp-d16
 872              		.type	ADC_GetMultiModeConversionValue, %function
 873              	ADC_GetMultiModeConversionValue:
 874              	.LFB131:
 875              		.loc 1 1011 0
 876              		.cfi_startproc
 877              		@ args = 0, pretend = 0, frame = 0
 878              		@ frame_needed = 0, uses_anonymous_args = 0
 879              		@ link register save eliminated.
 880              		.loc 1 1013 0
 881 0000 014B     		ldr	r3, .L59
 882 0002 1868     		ldr	r0, [r3]
 883              		.loc 1 1014 0
 884 0004 7047     		bx	lr
 885              	.L60:
 886 0006 00BF     		.align	2
 887              	.L59:
 888 0008 08230140 		.word	1073816328
 889              		.cfi_endproc
 890              	.LFE131:
 891              		.size	ADC_GetMultiModeConversionValue, .-ADC_GetMultiModeConversionValue
 892              		.section	.text.ADC_DMACmd,"ax",%progbits
 893              		.align	1
 894              		.p2align 4,,15
 895              		.global	ADC_DMACmd
 896              		.syntax unified
 897              		.thumb
 898              		.thumb_func
 899              		.fpu fpv4-sp-d16
 900              		.type	ADC_DMACmd, %function
 901              	ADC_DMACmd:
 902              	.LFB132:
 903              		.loc 1 1057 0
 904              		.cfi_startproc
 905              		@ args = 0, pretend = 0, frame = 0
 906              		@ frame_needed = 0, uses_anonymous_args = 0
 907              		@ link register save eliminated.
 908              	.LVL77:
 909              		.loc 1 1064 0
 910 0000 8368     		ldr	r3, [r0, #8]
 911              		.loc 1 1061 0
 912 0002 19B9     		cbnz	r1, .L64
ARM GAS  /var/tmp//ccR1QleB.s 			page 17


 913              		.loc 1 1069 0
 914 0004 23F48073 		bic	r3, r3, #256
 915 0008 8360     		str	r3, [r0, #8]
 916 000a 7047     		bx	lr
 917              	.L64:
 918              		.loc 1 1064 0
 919 000c 43F48073 		orr	r3, r3, #256
 920 0010 8360     		str	r3, [r0, #8]
 921 0012 7047     		bx	lr
 922              		.cfi_endproc
 923              	.LFE132:
 924              		.size	ADC_DMACmd, .-ADC_DMACmd
 925              		.section	.text.ADC_DMARequestAfterLastTransferCmd,"ax",%progbits
 926              		.align	1
 927              		.p2align 4,,15
 928              		.global	ADC_DMARequestAfterLastTransferCmd
 929              		.syntax unified
 930              		.thumb
 931              		.thumb_func
 932              		.fpu fpv4-sp-d16
 933              		.type	ADC_DMARequestAfterLastTransferCmd, %function
 934              	ADC_DMARequestAfterLastTransferCmd:
 935              	.LFB133:
 936              		.loc 1 1081 0
 937              		.cfi_startproc
 938              		@ args = 0, pretend = 0, frame = 0
 939              		@ frame_needed = 0, uses_anonymous_args = 0
 940              		@ link register save eliminated.
 941              	.LVL78:
 942              		.loc 1 1088 0
 943 0000 8368     		ldr	r3, [r0, #8]
 944              		.loc 1 1085 0
 945 0002 19B9     		cbnz	r1, .L68
 946              		.loc 1 1093 0
 947 0004 23F40073 		bic	r3, r3, #512
 948 0008 8360     		str	r3, [r0, #8]
 949 000a 7047     		bx	lr
 950              	.L68:
 951              		.loc 1 1088 0
 952 000c 43F40073 		orr	r3, r3, #512
 953 0010 8360     		str	r3, [r0, #8]
 954 0012 7047     		bx	lr
 955              		.cfi_endproc
 956              	.LFE133:
 957              		.size	ADC_DMARequestAfterLastTransferCmd, .-ADC_DMARequestAfterLastTransferCmd
 958              		.section	.text.ADC_MultiModeDMARequestAfterLastTransferCmd,"ax",%progbits
 959              		.align	1
 960              		.p2align 4,,15
 961              		.global	ADC_MultiModeDMARequestAfterLastTransferCmd
 962              		.syntax unified
 963              		.thumb
 964              		.thumb_func
 965              		.fpu fpv4-sp-d16
 966              		.type	ADC_MultiModeDMARequestAfterLastTransferCmd, %function
 967              	ADC_MultiModeDMARequestAfterLastTransferCmd:
 968              	.LFB134:
 969              		.loc 1 1108 0
ARM GAS  /var/tmp//ccR1QleB.s 			page 18


 970              		.cfi_startproc
 971              		@ args = 0, pretend = 0, frame = 0
 972              		@ frame_needed = 0, uses_anonymous_args = 0
 973              		@ link register save eliminated.
 974              	.LVL79:
 975              		.loc 1 1114 0
 976 0000 054A     		ldr	r2, .L73
 977 0002 5368     		ldr	r3, [r2, #4]
 978              		.loc 1 1111 0
 979 0004 18B9     		cbnz	r0, .L72
 980              		.loc 1 1119 0
 981 0006 23F40053 		bic	r3, r3, #8192
 982 000a 5360     		str	r3, [r2, #4]
 983 000c 7047     		bx	lr
 984              	.L72:
 985              		.loc 1 1114 0
 986 000e 43F40053 		orr	r3, r3, #8192
 987 0012 5360     		str	r3, [r2, #4]
 988 0014 7047     		bx	lr
 989              	.L74:
 990 0016 00BF     		.align	2
 991              	.L73:
 992 0018 00230140 		.word	1073816320
 993              		.cfi_endproc
 994              	.LFE134:
 995              		.size	ADC_MultiModeDMARequestAfterLastTransferCmd, .-ADC_MultiModeDMARequestAfterLastTransferCmd
 996              		.section	.text.ADC_InjectedChannelConfig,"ax",%progbits
 997              		.align	1
 998              		.p2align 4,,15
 999              		.global	ADC_InjectedChannelConfig
 1000              		.syntax unified
 1001              		.thumb
 1002              		.thumb_func
 1003              		.fpu fpv4-sp-d16
 1004              		.type	ADC_InjectedChannelConfig, %function
 1005              	ADC_InjectedChannelConfig:
 1006              	.LFB135:
 1007              		.loc 1 1195 0
 1008              		.cfi_startproc
 1009              		@ args = 0, pretend = 0, frame = 0
 1010              		@ frame_needed = 0, uses_anonymous_args = 0
 1011              		@ link register save eliminated.
 1012              	.LVL80:
 1013              		.loc 1 1203 0
 1014 0000 0929     		cmp	r1, #9
 1015              		.loc 1 1195 0
 1016 0002 70B4     		push	{r4, r5, r6}
 1017              		.cfi_def_cfa_offset 12
 1018              		.cfi_offset 4, -12
 1019              		.cfi_offset 5, -8
 1020              		.cfi_offset 6, -4
 1021              		.loc 1 1203 0
 1022 0004 1AD8     		bhi	.L79
 1023              		.loc 1 1223 0
 1024 0006 01EB4106 		add	r6, r1, r1, lsl #1
 1025              		.loc 1 1221 0
 1026 000a 0469     		ldr	r4, [r0, #16]
ARM GAS  /var/tmp//ccR1QleB.s 			page 19


 1027              	.LVL81:
 1028              		.loc 1 1223 0
 1029 000c 0725     		movs	r5, #7
 1030 000e B540     		lsls	r5, r5, r6
 1031              	.LVL82:
 1032              		.loc 1 1227 0
 1033 0010 B340     		lsls	r3, r3, r6
 1034              	.LVL83:
 1035              		.loc 1 1225 0
 1036 0012 24EA0504 		bic	r4, r4, r5
 1037              	.LVL84:
 1038              		.loc 1 1229 0
 1039 0016 2343     		orrs	r3, r3, r4
 1040              	.LVL85:
 1041              		.loc 1 1231 0
 1042 0018 0361     		str	r3, [r0, #16]
 1043              	.L77:
 1044              		.loc 1 1235 0
 1045 001a 836B     		ldr	r3, [r0, #56]
 1046              	.LVL86:
 1047              		.loc 1 1239 0
 1048 001c 0232     		adds	r2, r2, #2
 1049              	.LVL87:
 1050              		.loc 1 1237 0
 1051 001e C3F30154 		ubfx	r4, r3, #20, #2
 1052              		.loc 1 1239 0
 1053 0022 121B     		subs	r2, r2, r4
 1054 0024 D2B2     		uxtb	r2, r2
 1055 0026 02EB8202 		add	r2, r2, r2, lsl #2
 1056              	.LVL88:
 1057 002a 1F24     		movs	r4, #31
 1058 002c 9440     		lsls	r4, r4, r2
 1059              	.LVL89:
 1060              		.loc 1 1241 0
 1061 002e 23EA0403 		bic	r3, r3, r4
 1062              	.LVL90:
 1063              		.loc 1 1243 0
 1064 0032 9140     		lsls	r1, r1, r2
 1065              	.LVL91:
 1066              		.loc 1 1245 0
 1067 0034 1943     		orrs	r1, r1, r3
 1068              	.LVL92:
 1069              		.loc 1 1247 0
 1070 0036 8163     		str	r1, [r0, #56]
 1071              		.loc 1 1248 0
 1072 0038 70BC     		pop	{r4, r5, r6}
 1073              		.cfi_remember_state
 1074              		.cfi_restore 6
 1075              		.cfi_restore 5
 1076              		.cfi_restore 4
 1077              		.cfi_def_cfa_offset 0
 1078 003a 7047     		bx	lr
 1079              	.LVL93:
 1080              	.L79:
 1081              		.cfi_restore_state
 1082              		.loc 1 1208 0
 1083 003c A1F10A04 		sub	r4, r1, #10
ARM GAS  /var/tmp//ccR1QleB.s 			page 20


 1084 0040 04EB4404 		add	r4, r4, r4, lsl #1
 1085              		.loc 1 1206 0
 1086 0044 C568     		ldr	r5, [r0, #12]
 1087              	.LVL94:
 1088              		.loc 1 1208 0
 1089 0046 0726     		movs	r6, #7
 1090 0048 A640     		lsls	r6, r6, r4
 1091              	.LVL95:
 1092              		.loc 1 1212 0
 1093 004a A340     		lsls	r3, r3, r4
 1094              	.LVL96:
 1095              		.loc 1 1210 0
 1096 004c 25EA0604 		bic	r4, r5, r6
 1097              	.LVL97:
 1098              		.loc 1 1214 0
 1099 0050 2343     		orrs	r3, r3, r4
 1100              	.LVL98:
 1101              		.loc 1 1216 0
 1102 0052 C360     		str	r3, [r0, #12]
 1103 0054 E1E7     		b	.L77
 1104              		.cfi_endproc
 1105              	.LFE135:
 1106              		.size	ADC_InjectedChannelConfig, .-ADC_InjectedChannelConfig
 1107 0056 00BF     		.section	.text.ADC_InjectedSequencerLengthConfig,"ax",%progbits
 1108              		.align	1
 1109              		.p2align 4,,15
 1110              		.global	ADC_InjectedSequencerLengthConfig
 1111              		.syntax unified
 1112              		.thumb
 1113              		.thumb_func
 1114              		.fpu fpv4-sp-d16
 1115              		.type	ADC_InjectedSequencerLengthConfig, %function
 1116              	ADC_InjectedSequencerLengthConfig:
 1117              	.LFB136:
 1118              		.loc 1 1258 0
 1119              		.cfi_startproc
 1120              		@ args = 0, pretend = 0, frame = 0
 1121              		@ frame_needed = 0, uses_anonymous_args = 0
 1122              		@ link register save eliminated.
 1123              	.LVL99:
 1124              		.loc 1 1272 0
 1125 0000 4B1E     		subs	r3, r1, #1
 1126              		.loc 1 1266 0
 1127 0002 816B     		ldr	r1, [r0, #56]
 1128              	.LVL100:
 1129              		.loc 1 1269 0
 1130 0004 21F44011 		bic	r1, r1, #3145728
 1131              	.LVL101:
 1132              		.loc 1 1273 0
 1133 0008 41EA0351 		orr	r1, r1, r3, lsl #20
 1134              	.LVL102:
 1135              		.loc 1 1276 0
 1136 000c 8163     		str	r1, [r0, #56]
 1137 000e 7047     		bx	lr
 1138              		.cfi_endproc
 1139              	.LFE136:
 1140              		.size	ADC_InjectedSequencerLengthConfig, .-ADC_InjectedSequencerLengthConfig
ARM GAS  /var/tmp//ccR1QleB.s 			page 21


 1141              		.section	.text.ADC_SetInjectedOffset,"ax",%progbits
 1142              		.align	1
 1143              		.p2align 4,,15
 1144              		.global	ADC_SetInjectedOffset
 1145              		.syntax unified
 1146              		.thumb
 1147              		.thumb_func
 1148              		.fpu fpv4-sp-d16
 1149              		.type	ADC_SetInjectedOffset, %function
 1150              	ADC_SetInjectedOffset:
 1151              	.LFB137:
 1152              		.loc 1 1293 0
 1153              		.cfi_startproc
 1154              		@ args = 0, pretend = 0, frame = 8
 1155              		@ frame_needed = 0, uses_anonymous_args = 0
 1156              		@ link register save eliminated.
 1157              	.LVL103:
 1158 0000 82B0     		sub	sp, sp, #8
 1159              		.cfi_def_cfa_offset 8
 1160              		.loc 1 1294 0
 1161 0002 0023     		movs	r3, #0
 1162 0004 0193     		str	r3, [sp, #4]
 1163              		.loc 1 1300 0
 1164 0006 0190     		str	r0, [sp, #4]
 1165              		.loc 1 1301 0
 1166 0008 019B     		ldr	r3, [sp, #4]
 1167 000a 1944     		add	r1, r1, r3
 1168              	.LVL104:
 1169 000c 0191     		str	r1, [sp, #4]
 1170              		.loc 1 1304 0
 1171 000e 019B     		ldr	r3, [sp, #4]
 1172 0010 1A60     		str	r2, [r3]
 1173              		.loc 1 1305 0
 1174 0012 02B0     		add	sp, sp, #8
 1175              		.cfi_def_cfa_offset 0
 1176              		@ sp needed
 1177 0014 7047     		bx	lr
 1178              		.cfi_endproc
 1179              	.LFE137:
 1180              		.size	ADC_SetInjectedOffset, .-ADC_SetInjectedOffset
 1181 0016 00BF     		.section	.text.ADC_ExternalTrigInjectedConvConfig,"ax",%progbits
 1182              		.align	1
 1183              		.p2align 4,,15
 1184              		.global	ADC_ExternalTrigInjectedConvConfig
 1185              		.syntax unified
 1186              		.thumb
 1187              		.thumb_func
 1188              		.fpu fpv4-sp-d16
 1189              		.type	ADC_ExternalTrigInjectedConvConfig, %function
 1190              	ADC_ExternalTrigInjectedConvConfig:
 1191              	.LFB138:
 1192              		.loc 1 1331 0
 1193              		.cfi_startproc
 1194              		@ args = 0, pretend = 0, frame = 0
 1195              		@ frame_needed = 0, uses_anonymous_args = 0
 1196              		@ link register save eliminated.
 1197              	.LVL105:
ARM GAS  /var/tmp//ccR1QleB.s 			page 22


 1198              		.loc 1 1338 0
 1199 0000 8368     		ldr	r3, [r0, #8]
 1200              	.LVL106:
 1201              		.loc 1 1341 0
 1202 0002 23F47023 		bic	r3, r3, #983040
 1203              	.LVL107:
 1204              		.loc 1 1344 0
 1205 0006 1943     		orrs	r1, r1, r3
 1206              	.LVL108:
 1207              		.loc 1 1347 0
 1208 0008 8160     		str	r1, [r0, #8]
 1209 000a 7047     		bx	lr
 1210              		.cfi_endproc
 1211              	.LFE138:
 1212              		.size	ADC_ExternalTrigInjectedConvConfig, .-ADC_ExternalTrigInjectedConvConfig
 1213              		.section	.text.ADC_ExternalTrigInjectedConvEdgeConfig,"ax",%progbits
 1214              		.align	1
 1215              		.p2align 4,,15
 1216              		.global	ADC_ExternalTrigInjectedConvEdgeConfig
 1217              		.syntax unified
 1218              		.thumb
 1219              		.thumb_func
 1220              		.fpu fpv4-sp-d16
 1221              		.type	ADC_ExternalTrigInjectedConvEdgeConfig, %function
 1222              	ADC_ExternalTrigInjectedConvEdgeConfig:
 1223              	.LFB139:
 1224              		.loc 1 1365 0
 1225              		.cfi_startproc
 1226              		@ args = 0, pretend = 0, frame = 0
 1227              		@ frame_needed = 0, uses_anonymous_args = 0
 1228              		@ link register save eliminated.
 1229              	.LVL109:
 1230              		.loc 1 1371 0
 1231 0000 8368     		ldr	r3, [r0, #8]
 1232              	.LVL110:
 1233              		.loc 1 1373 0
 1234 0002 23F44013 		bic	r3, r3, #3145728
 1235              	.LVL111:
 1236              		.loc 1 1375 0
 1237 0006 1943     		orrs	r1, r1, r3
 1238              	.LVL112:
 1239              		.loc 1 1377 0
 1240 0008 8160     		str	r1, [r0, #8]
 1241 000a 7047     		bx	lr
 1242              		.cfi_endproc
 1243              	.LFE139:
 1244              		.size	ADC_ExternalTrigInjectedConvEdgeConfig, .-ADC_ExternalTrigInjectedConvEdgeConfig
 1245              		.section	.text.ADC_SoftwareStartInjectedConv,"ax",%progbits
 1246              		.align	1
 1247              		.p2align 4,,15
 1248              		.global	ADC_SoftwareStartInjectedConv
 1249              		.syntax unified
 1250              		.thumb
 1251              		.thumb_func
 1252              		.fpu fpv4-sp-d16
 1253              		.type	ADC_SoftwareStartInjectedConv, %function
 1254              	ADC_SoftwareStartInjectedConv:
ARM GAS  /var/tmp//ccR1QleB.s 			page 23


 1255              	.LFB140:
 1256              		.loc 1 1386 0
 1257              		.cfi_startproc
 1258              		@ args = 0, pretend = 0, frame = 0
 1259              		@ frame_needed = 0, uses_anonymous_args = 0
 1260              		@ link register save eliminated.
 1261              	.LVL113:
 1262              		.loc 1 1390 0
 1263 0000 8368     		ldr	r3, [r0, #8]
 1264 0002 43F48003 		orr	r3, r3, #4194304
 1265 0006 8360     		str	r3, [r0, #8]
 1266 0008 7047     		bx	lr
 1267              		.cfi_endproc
 1268              	.LFE140:
 1269              		.size	ADC_SoftwareStartInjectedConv, .-ADC_SoftwareStartInjectedConv
 1270 000a 00BF     		.section	.text.ADC_GetSoftwareStartInjectedConvCmdStatus,"ax",%progbits
 1271              		.align	1
 1272              		.p2align 4,,15
 1273              		.global	ADC_GetSoftwareStartInjectedConvCmdStatus
 1274              		.syntax unified
 1275              		.thumb
 1276              		.thumb_func
 1277              		.fpu fpv4-sp-d16
 1278              		.type	ADC_GetSoftwareStartInjectedConvCmdStatus, %function
 1279              	ADC_GetSoftwareStartInjectedConvCmdStatus:
 1280              	.LFB141:
 1281              		.loc 1 1399 0
 1282              		.cfi_startproc
 1283              		@ args = 0, pretend = 0, frame = 0
 1284              		@ frame_needed = 0, uses_anonymous_args = 0
 1285              		@ link register save eliminated.
 1286              	.LVL114:
 1287              		.loc 1 1405 0
 1288 0000 8068     		ldr	r0, [r0, #8]
 1289              	.LVL115:
 1290              		.loc 1 1417 0
 1291 0002 C0F38050 		ubfx	r0, r0, #22, #1
 1292              	.LVL116:
 1293 0006 7047     		bx	lr
 1294              		.cfi_endproc
 1295              	.LFE141:
 1296              		.size	ADC_GetSoftwareStartInjectedConvCmdStatus, .-ADC_GetSoftwareStartInjectedConvCmdStatus
 1297              		.section	.text.ADC_AutoInjectedConvCmd,"ax",%progbits
 1298              		.align	1
 1299              		.p2align 4,,15
 1300              		.global	ADC_AutoInjectedConvCmd
 1301              		.syntax unified
 1302              		.thumb
 1303              		.thumb_func
 1304              		.fpu fpv4-sp-d16
 1305              		.type	ADC_AutoInjectedConvCmd, %function
 1306              	ADC_AutoInjectedConvCmd:
 1307              	.LFB142:
 1308              		.loc 1 1428 0
 1309              		.cfi_startproc
 1310              		@ args = 0, pretend = 0, frame = 0
 1311              		@ frame_needed = 0, uses_anonymous_args = 0
ARM GAS  /var/tmp//ccR1QleB.s 			page 24


 1312              		@ link register save eliminated.
 1313              	.LVL117:
 1314              		.loc 1 1435 0
 1315 0000 4368     		ldr	r3, [r0, #4]
 1316              		.loc 1 1432 0
 1317 0002 19B9     		cbnz	r1, .L90
 1318              		.loc 1 1440 0
 1319 0004 23F48063 		bic	r3, r3, #1024
 1320 0008 4360     		str	r3, [r0, #4]
 1321 000a 7047     		bx	lr
 1322              	.L90:
 1323              		.loc 1 1435 0
 1324 000c 43F48063 		orr	r3, r3, #1024
 1325 0010 4360     		str	r3, [r0, #4]
 1326 0012 7047     		bx	lr
 1327              		.cfi_endproc
 1328              	.LFE142:
 1329              		.size	ADC_AutoInjectedConvCmd, .-ADC_AutoInjectedConvCmd
 1330              		.section	.text.ADC_InjectedDiscModeCmd,"ax",%progbits
 1331              		.align	1
 1332              		.p2align 4,,15
 1333              		.global	ADC_InjectedDiscModeCmd
 1334              		.syntax unified
 1335              		.thumb
 1336              		.thumb_func
 1337              		.fpu fpv4-sp-d16
 1338              		.type	ADC_InjectedDiscModeCmd, %function
 1339              	ADC_InjectedDiscModeCmd:
 1340              	.LFB143:
 1341              		.loc 1 1454 0
 1342              		.cfi_startproc
 1343              		@ args = 0, pretend = 0, frame = 0
 1344              		@ frame_needed = 0, uses_anonymous_args = 0
 1345              		@ link register save eliminated.
 1346              	.LVL118:
 1347              		.loc 1 1461 0
 1348 0000 4368     		ldr	r3, [r0, #4]
 1349              		.loc 1 1458 0
 1350 0002 19B9     		cbnz	r1, .L94
 1351              		.loc 1 1466 0
 1352 0004 23F48053 		bic	r3, r3, #4096
 1353 0008 4360     		str	r3, [r0, #4]
 1354 000a 7047     		bx	lr
 1355              	.L94:
 1356              		.loc 1 1461 0
 1357 000c 43F48053 		orr	r3, r3, #4096
 1358 0010 4360     		str	r3, [r0, #4]
 1359 0012 7047     		bx	lr
 1360              		.cfi_endproc
 1361              	.LFE143:
 1362              		.size	ADC_InjectedDiscModeCmd, .-ADC_InjectedDiscModeCmd
 1363              		.section	.text.ADC_GetInjectedConversionValue,"ax",%progbits
 1364              		.align	1
 1365              		.p2align 4,,15
 1366              		.global	ADC_GetInjectedConversionValue
 1367              		.syntax unified
 1368              		.thumb
ARM GAS  /var/tmp//ccR1QleB.s 			page 25


 1369              		.thumb_func
 1370              		.fpu fpv4-sp-d16
 1371              		.type	ADC_GetInjectedConversionValue, %function
 1372              	ADC_GetInjectedConversionValue:
 1373              	.LFB144:
 1374              		.loc 1 1482 0
 1375              		.cfi_startproc
 1376              		@ args = 0, pretend = 0, frame = 8
 1377              		@ frame_needed = 0, uses_anonymous_args = 0
 1378              		@ link register save eliminated.
 1379              	.LVL119:
 1380 0000 82B0     		sub	sp, sp, #8
 1381              		.cfi_def_cfa_offset 8
 1382              		.loc 1 1483 0
 1383 0002 0023     		movs	r3, #0
 1384 0004 0193     		str	r3, [sp, #4]
 1385              		.loc 1 1489 0
 1386 0006 0190     		str	r0, [sp, #4]
 1387              		.loc 1 1490 0
 1388 0008 019B     		ldr	r3, [sp, #4]
 1389 000a 2833     		adds	r3, r3, #40
 1390 000c 1944     		add	r1, r1, r3
 1391              	.LVL120:
 1392 000e 0191     		str	r1, [sp, #4]
 1393              		.loc 1 1493 0
 1394 0010 019B     		ldr	r3, [sp, #4]
 1395 0012 1868     		ldr	r0, [r3]
 1396              	.LVL121:
 1397              		.loc 1 1494 0
 1398 0014 80B2     		uxth	r0, r0
 1399 0016 02B0     		add	sp, sp, #8
 1400              		.cfi_def_cfa_offset 0
 1401              		@ sp needed
 1402 0018 7047     		bx	lr
 1403              		.cfi_endproc
 1404              	.LFE144:
 1405              		.size	ADC_GetInjectedConversionValue, .-ADC_GetInjectedConversionValue
 1406 001a 00BF     		.section	.text.ADC_ITConfig,"ax",%progbits
 1407              		.align	1
 1408              		.p2align 4,,15
 1409              		.global	ADC_ITConfig
 1410              		.syntax unified
 1411              		.thumb
 1412              		.thumb_func
 1413              		.fpu fpv4-sp-d16
 1414              		.type	ADC_ITConfig, %function
 1415              	ADC_ITConfig:
 1416              	.LFB145:
 1417              		.loc 1 1589 0
 1418              		.cfi_startproc
 1419              		@ args = 0, pretend = 0, frame = 0
 1420              		@ frame_needed = 0, uses_anonymous_args = 0
 1421              		@ link register save eliminated.
 1422              	.LVL122:
 1423              		.loc 1 1597 0
 1424 0000 C9B2     		uxtb	r1, r1
 1425              	.LVL123:
ARM GAS  /var/tmp//ccR1QleB.s 			page 26


 1426              		.loc 1 1598 0
 1427 0002 0123     		movs	r3, #1
 1428 0004 8B40     		lsls	r3, r3, r1
 1429              	.LVL124:
 1430              		.loc 1 1603 0
 1431 0006 4168     		ldr	r1, [r0, #4]
 1432              		.loc 1 1600 0
 1433 0008 1AB9     		cbnz	r2, .L100
 1434              		.loc 1 1608 0
 1435 000a 21EA0303 		bic	r3, r1, r3
 1436              	.LVL125:
 1437 000e 4360     		str	r3, [r0, #4]
 1438 0010 7047     		bx	lr
 1439              	.LVL126:
 1440              	.L100:
 1441              		.loc 1 1603 0
 1442 0012 0B43     		orrs	r3, r3, r1
 1443              	.LVL127:
 1444 0014 4360     		str	r3, [r0, #4]
 1445 0016 7047     		bx	lr
 1446              		.cfi_endproc
 1447              	.LFE145:
 1448              		.size	ADC_ITConfig, .-ADC_ITConfig
 1449              		.section	.text.ADC_GetFlagStatus,"ax",%progbits
 1450              		.align	1
 1451              		.p2align 4,,15
 1452              		.global	ADC_GetFlagStatus
 1453              		.syntax unified
 1454              		.thumb
 1455              		.thumb_func
 1456              		.fpu fpv4-sp-d16
 1457              		.type	ADC_GetFlagStatus, %function
 1458              	ADC_GetFlagStatus:
 1459              	.LFB146:
 1460              		.loc 1 1626 0
 1461              		.cfi_startproc
 1462              		@ args = 0, pretend = 0, frame = 0
 1463              		@ frame_needed = 0, uses_anonymous_args = 0
 1464              		@ link register save eliminated.
 1465              	.LVL128:
 1466              		.loc 1 1633 0
 1467 0000 0368     		ldr	r3, [r0]
 1468              	.LVL129:
 1469 0002 1942     		tst	r1, r3
 1470              		.loc 1 1645 0
 1471 0004 14BF     		ite	ne
 1472 0006 0120     		movne	r0, #1
 1473              	.LVL130:
 1474 0008 0020     		moveq	r0, #0
 1475 000a 7047     		bx	lr
 1476              		.cfi_endproc
 1477              	.LFE146:
 1478              		.size	ADC_GetFlagStatus, .-ADC_GetFlagStatus
 1479              		.section	.text.ADC_ClearFlag,"ax",%progbits
 1480              		.align	1
 1481              		.p2align 4,,15
 1482              		.global	ADC_ClearFlag
ARM GAS  /var/tmp//ccR1QleB.s 			page 27


 1483              		.syntax unified
 1484              		.thumb
 1485              		.thumb_func
 1486              		.fpu fpv4-sp-d16
 1487              		.type	ADC_ClearFlag, %function
 1488              	ADC_ClearFlag:
 1489              	.LFB147:
 1490              		.loc 1 1661 0
 1491              		.cfi_startproc
 1492              		@ args = 0, pretend = 0, frame = 0
 1493              		@ frame_needed = 0, uses_anonymous_args = 0
 1494              		@ link register save eliminated.
 1495              	.LVL131:
 1496              		.loc 1 1667 0
 1497 0000 C943     		mvns	r1, r1
 1498              	.LVL132:
 1499 0002 0160     		str	r1, [r0]
 1500 0004 7047     		bx	lr
 1501              		.cfi_endproc
 1502              	.LFE147:
 1503              		.size	ADC_ClearFlag, .-ADC_ClearFlag
 1504 0006 00BF     		.section	.text.ADC_GetITStatus,"ax",%progbits
 1505              		.align	1
 1506              		.p2align 4,,15
 1507              		.global	ADC_GetITStatus
 1508              		.syntax unified
 1509              		.thumb
 1510              		.thumb_func
 1511              		.fpu fpv4-sp-d16
 1512              		.type	ADC_GetITStatus, %function
 1513              	ADC_GetITStatus:
 1514              	.LFB148:
 1515              		.loc 1 1682 0
 1516              		.cfi_startproc
 1517              		@ args = 0, pretend = 0, frame = 0
 1518              		@ frame_needed = 0, uses_anonymous_args = 0
 1519              		@ link register save eliminated.
 1520              	.LVL133:
 1521              		.loc 1 1694 0
 1522 0000 4268     		ldr	r2, [r0, #4]
 1523              	.LVL134:
 1524              		.loc 1 1697 0
 1525 0002 0068     		ldr	r0, [r0]
 1526              	.LVL135:
 1527 0004 10EA1120 		ands	r0, r0, r1, lsr #8
 1528 0008 07D0     		beq	.L104
 1529              		.loc 1 1694 0 discriminator 1
 1530 000a 0123     		movs	r3, #1
 1531 000c C9B2     		uxtb	r1, r1
 1532              	.LVL136:
 1533 000e 03FA01F1 		lsl	r1, r3, r1
 1534              	.LVL137:
 1535              		.loc 1 1697 0 discriminator 1
 1536 0012 1142     		tst	r1, r2
 1537 0014 14BF     		ite	ne
 1538 0016 1846     		movne	r0, r3
 1539 0018 0020     		moveq	r0, #0
ARM GAS  /var/tmp//ccR1QleB.s 			page 28


 1540              	.L104:
 1541              	.LVL138:
 1542              		.loc 1 1709 0
 1543 001a 7047     		bx	lr
 1544              		.cfi_endproc
 1545              	.LFE148:
 1546              		.size	ADC_GetITStatus, .-ADC_GetITStatus
 1547              		.section	.text.ADC_ClearITPendingBit,"ax",%progbits
 1548              		.align	1
 1549              		.p2align 4,,15
 1550              		.global	ADC_ClearITPendingBit
 1551              		.syntax unified
 1552              		.thumb
 1553              		.thumb_func
 1554              		.fpu fpv4-sp-d16
 1555              		.type	ADC_ClearITPendingBit, %function
 1556              	ADC_ClearITPendingBit:
 1557              	.LFB149:
 1558              		.loc 1 1723 0
 1559              		.cfi_startproc
 1560              		@ args = 0, pretend = 0, frame = 0
 1561              		@ frame_needed = 0, uses_anonymous_args = 0
 1562              		@ link register save eliminated.
 1563              	.LVL139:
 1564              		.loc 1 1731 0
 1565 0000 6FEA1121 		mvn	r1, r1, lsr #8
 1566              	.LVL140:
 1567 0004 0160     		str	r1, [r0]
 1568 0006 7047     		bx	lr
 1569              		.cfi_endproc
 1570              	.LFE149:
 1571              		.size	ADC_ClearITPendingBit, .-ADC_ClearITPendingBit
 1572              		.text
 1573              	.Letext0:
 1574              		.file 2 "/usr/local/gcc_arm/gcc-arm-none-eabi-6-2017-q2-update/arm-none-eabi/include/machine/_defa
 1575              		.file 3 "/usr/local/gcc_arm/gcc-arm-none-eabi-6-2017-q2-update/arm-none-eabi/include/sys/_stdint.h
 1576              		.file 4 "ChibiOS_3.0.2/os/ext/CMSIS/include/core_cm4.h"
 1577              		.file 5 "ChibiOS_3.0.2/os/ext/CMSIS/ST/system_stm32f4xx.h"
 1578              		.file 6 "ChibiOS_3.0.2/os/ext/CMSIS/ST/stm32f407xx.h"
 1579              		.file 7 "ChibiOS_3.0.2/os/ext/CMSIS/ST/stm32f4xx.h"
 1580              		.file 8 "ChibiOS_3.0.2/ext/stdperiph_stm32f4/inc/stm32f4xx_adc.h"
 1581              		.file 9 "ChibiOS_3.0.2/ext/stdperiph_stm32f4/inc/stm32f4xx_rcc.h"