ARM GAS  /var/tmp//ccM7fHpp.s 			page 1


   1              		.cpu cortex-m4
   2              		.eabi_attribute 27, 1
   3              		.eabi_attribute 28, 1
   4              		.eabi_attribute 20, 1
   5              		.eabi_attribute 21, 1
   6              		.eabi_attribute 23, 3
   7              		.eabi_attribute 24, 1
   8              		.eabi_attribute 25, 1
   9              		.eabi_attribute 26, 1
  10              		.eabi_attribute 30, 2
  11              		.eabi_attribute 34, 1
  12              		.eabi_attribute 18, 4
  13              		.file	"stm32f4xx_dma.c"
  14              		.text
  15              	.Ltext0:
  16              		.cfi_sections	.debug_frame
  17              		.section	.text.DMA_DeInit,"ax",%progbits
  18              		.align	1
  19              		.p2align 4,,15
  20              		.global	DMA_DeInit
  21              		.syntax unified
  22              		.thumb
  23              		.thumb_func
  24              		.fpu fpv4-sp-d16
  25              		.type	DMA_DeInit, %function
  26              	DMA_DeInit:
  27              	.LFB112:
  28              		.file 1 "ChibiOS_3.0.2/ext/stdperiph_stm32f4/src/stm32f4xx_dma.c"
  29              		.loc 1 201 0
  30              		.cfi_startproc
  31              		@ args = 0, pretend = 0, frame = 0
  32              		@ frame_needed = 0, uses_anonymous_args = 0
  33              		@ link register save eliminated.
  34              	.LVL0:
  35              		.loc 1 206 0
  36 0000 0268     		ldr	r2, [r0]
  37              		.loc 1 227 0
  38 0002 3749     		ldr	r1, .L29
  39              		.loc 1 209 0
  40 0004 0023     		movs	r3, #0
  41              		.loc 1 201 0
  42 0006 10B4     		push	{r4}
  43              		.cfi_def_cfa_offset 4
  44              		.cfi_offset 4, -4
  45              		.loc 1 206 0
  46 0008 22F00102 		bic	r2, r2, #1
  47              		.loc 1 224 0
  48 000c 2124     		movs	r4, #33
  49              		.loc 1 227 0
  50 000e 8842     		cmp	r0, r1
  51              		.loc 1 206 0
  52 0010 0260     		str	r2, [r0]
  53              		.loc 1 209 0
  54 0012 0360     		str	r3, [r0]
  55              		.loc 1 212 0
  56 0014 4360     		str	r3, [r0, #4]
  57              		.loc 1 215 0
ARM GAS  /var/tmp//ccM7fHpp.s 			page 2


  58 0016 8360     		str	r3, [r0, #8]
  59              		.loc 1 218 0
  60 0018 C360     		str	r3, [r0, #12]
  61              		.loc 1 221 0
  62 001a 0361     		str	r3, [r0, #16]
  63              		.loc 1 224 0
  64 001c 4461     		str	r4, [r0, #20]
  65              		.loc 1 227 0
  66 001e 4DD0     		beq	.L27
  67              		.loc 1 232 0
  68 0020 304B     		ldr	r3, .L29+4
  69 0022 9842     		cmp	r0, r3
  70 0024 35D0     		beq	.L19
  71              		.loc 1 237 0
  72 0026 304B     		ldr	r3, .L29+8
  73 0028 9842     		cmp	r0, r3
  74 002a 39D0     		beq	.L20
  75              		.loc 1 242 0
  76 002c 2F4B     		ldr	r3, .L29+12
  77 002e 9842     		cmp	r0, r3
  78 0030 3DD0     		beq	.L21
  79              		.loc 1 247 0
  80 0032 2F4B     		ldr	r3, .L29+16
  81 0034 9842     		cmp	r0, r3
  82 0036 47D0     		beq	.L22
  83              		.loc 1 252 0
  84 0038 2E4B     		ldr	r3, .L29+20
  85 003a 9842     		cmp	r0, r3
  86 003c 48D0     		beq	.L23
  87              		.loc 1 257 0
  88 003e 2E4B     		ldr	r3, .L29+24
  89 0040 9842     		cmp	r0, r3
  90 0042 1DD0     		beq	.L24
  91              		.loc 1 262 0
  92 0044 2D4B     		ldr	r3, .L29+28
  93 0046 9842     		cmp	r0, r3
  94 0048 1ED0     		beq	.L25
  95              		.loc 1 267 0
  96 004a 2D4B     		ldr	r3, .L29+32
  97 004c 9842     		cmp	r0, r3
  98 004e 43D0     		beq	.L28
  99              		.loc 1 272 0
 100 0050 2C4B     		ldr	r3, .L29+36
 101 0052 9842     		cmp	r0, r3
 102 0054 1DD0     		beq	.L19
 103              		.loc 1 277 0
 104 0056 2C4B     		ldr	r3, .L29+40
 105 0058 9842     		cmp	r0, r3
 106 005a 21D0     		beq	.L20
 107              		.loc 1 282 0
 108 005c 2B4B     		ldr	r3, .L29+44
 109 005e 9842     		cmp	r0, r3
 110 0060 25D0     		beq	.L21
 111              		.loc 1 287 0
 112 0062 2B4B     		ldr	r3, .L29+48
 113 0064 9842     		cmp	r0, r3
 114 0066 2FD0     		beq	.L22
ARM GAS  /var/tmp//ccM7fHpp.s 			page 3


 115              		.loc 1 292 0
 116 0068 2A4B     		ldr	r3, .L29+52
 117 006a 9842     		cmp	r0, r3
 118 006c 30D0     		beq	.L23
 119              		.loc 1 297 0
 120 006e 2A4B     		ldr	r3, .L29+56
 121 0070 9842     		cmp	r0, r3
 122 0072 05D0     		beq	.L24
 123              		.loc 1 304 0
 124 0074 294B     		ldr	r3, .L29+60
 125 0076 9842     		cmp	r0, r3
 126 0078 06D0     		beq	.L25
 127              	.L1:
 128              		.loc 1 310 0
 129 007a 5DF8044B 		ldr	r4, [sp], #4
 130              		.cfi_remember_state
 131              		.cfi_restore 4
 132              		.cfi_def_cfa_offset 0
 133 007e 7047     		bx	lr
 134              	.L24:
 135              		.cfi_restore_state
 136              		.loc 1 300 0
 137 0080 274A     		ldr	r2, .L29+64
 138 0082 43F8942C 		str	r2, [r3, #-148]
 139 0086 F8E7     		b	.L1
 140              	.L25:
 141              		.loc 1 307 0
 142 0088 4FF03D52 		mov	r2, #792723456
 143 008c 43F8AC2C 		str	r2, [r3, #-172]
 144              		.loc 1 310 0
 145 0090 F3E7     		b	.L1
 146              	.L19:
 147              		.loc 1 275 0
 148 0092 4FF47462 		mov	r2, #3904
 149 0096 43F8202C 		str	r2, [r3, #-32]
 150              		.loc 1 310 0
 151 009a 5DF8044B 		ldr	r4, [sp], #4
 152              		.cfi_remember_state
 153              		.cfi_restore 4
 154              		.cfi_def_cfa_offset 0
 155 009e 7047     		bx	lr
 156              	.L20:
 157              		.cfi_restore_state
 158              		.loc 1 280 0
 159 00a0 4FF47412 		mov	r2, #3997696
 160 00a4 43F8382C 		str	r2, [r3, #-56]
 161              		.loc 1 310 0
 162 00a8 5DF8044B 		ldr	r4, [sp], #4
 163              		.cfi_remember_state
 164              		.cfi_restore 4
 165              		.cfi_def_cfa_offset 0
 166 00ac 7047     		bx	lr
 167              	.L21:
 168              		.cfi_restore_state
 169              		.loc 1 285 0
 170 00ae 4FF07462 		mov	r2, #255852544
 171 00b2 43F8502C 		str	r2, [r3, #-80]
ARM GAS  /var/tmp//ccM7fHpp.s 			page 4


 172              		.loc 1 310 0
 173 00b6 5DF8044B 		ldr	r4, [sp], #4
 174              		.cfi_remember_state
 175              		.cfi_restore 4
 176              		.cfi_def_cfa_offset 0
 177 00ba 7047     		bx	lr
 178              	.L27:
 179              		.cfi_restore_state
 180              		.loc 1 230 0
 181 00bc 194B     		ldr	r3, .L29+68
 182              		.loc 1 310 0
 183 00be 5DF8044B 		ldr	r4, [sp], #4
 184              		.cfi_remember_state
 185              		.cfi_restore 4
 186              		.cfi_def_cfa_offset 0
 187              		.loc 1 230 0
 188 00c2 3D22     		movs	r2, #61
 189 00c4 9A60     		str	r2, [r3, #8]
 190              		.loc 1 310 0
 191 00c6 7047     		bx	lr
 192              	.L22:
 193              		.cfi_restore_state
 194              		.loc 1 290 0
 195 00c8 174A     		ldr	r2, .L29+72
 196 00ca 43F8642C 		str	r2, [r3, #-100]
 197 00ce D4E7     		b	.L1
 198              	.L23:
 199              		.loc 1 295 0
 200 00d0 164A     		ldr	r2, .L29+76
 201 00d2 43F87C2C 		str	r2, [r3, #-124]
 202 00d6 D0E7     		b	.L1
 203              	.L28:
 204              		.loc 1 270 0
 205 00d8 3D22     		movs	r2, #61
 206 00da 43F8082C 		str	r2, [r3, #-8]
 207 00de CCE7     		b	.L1
 208              	.L30:
 209              		.align	2
 210              	.L29:
 211 00e0 10600240 		.word	1073897488
 212 00e4 28600240 		.word	1073897512
 213 00e8 40600240 		.word	1073897536
 214 00ec 58600240 		.word	1073897560
 215 00f0 70600240 		.word	1073897584
 216 00f4 88600240 		.word	1073897608
 217 00f8 A0600240 		.word	1073897632
 218 00fc B8600240 		.word	1073897656
 219 0100 10640240 		.word	1073898512
 220 0104 28640240 		.word	1073898536
 221 0108 40640240 		.word	1073898560
 222 010c 58640240 		.word	1073898584
 223 0110 70640240 		.word	1073898608
 224 0114 88640240 		.word	1073898632
 225 0118 A0640240 		.word	1073898656
 226 011c B8640240 		.word	1073898680
 227 0120 00003D20 		.word	540868608
 228 0124 00600240 		.word	1073897472
ARM GAS  /var/tmp//ccM7fHpp.s 			page 5


 229 0128 3D000020 		.word	536870973
 230 012c 400F0020 		.word	536874816
 231              		.cfi_endproc
 232              	.LFE112:
 233              		.size	DMA_DeInit, .-DMA_DeInit
 234              		.section	.text.DMA_Init,"ax",%progbits
 235              		.align	1
 236              		.p2align 4,,15
 237              		.global	DMA_Init
 238              		.syntax unified
 239              		.thumb
 240              		.thumb_func
 241              		.fpu fpv4-sp-d16
 242              		.type	DMA_Init, %function
 243              	DMA_Init:
 244              	.LFB113:
 245              		.loc 1 324 0
 246              		.cfi_startproc
 247              		@ args = 0, pretend = 0, frame = 0
 248              		@ frame_needed = 0, uses_anonymous_args = 0
 249              		@ link register save eliminated.
 250              	.LVL1:
 251              		.loc 1 364 0
 252 0000 0B68     		ldr	r3, [r1]
 253              		.loc 1 365 0
 254 0002 CA69     		ldr	r2, [r1, #28]
 255              		.loc 1 324 0
 256 0004 F0B4     		push	{r4, r5, r6, r7}
 257              		.cfi_def_cfa_offset 16
 258              		.cfi_offset 4, -16
 259              		.cfi_offset 5, -12
 260              		.cfi_offset 6, -8
 261              		.cfi_offset 7, -4
 262              		.loc 1 364 0
 263 0006 CE68     		ldr	r6, [r1, #12]
 264 0008 4D69     		ldr	r5, [r1, #20]
 265              		.loc 1 365 0
 266 000a 8C69     		ldr	r4, [r1, #24]
 267              		.loc 1 366 0
 268 000c 0F6A     		ldr	r7, [r1, #32]
 269              		.loc 1 364 0
 270 000e 3343     		orrs	r3, r3, r6
 271 0010 2B43     		orrs	r3, r3, r5
 272              		.loc 1 365 0
 273 0012 2343     		orrs	r3, r3, r4
 274              		.loc 1 366 0
 275 0014 4E6A     		ldr	r6, [r1, #36]
 276              		.loc 1 367 0
 277 0016 8D6A     		ldr	r5, [r1, #40]
 278 0018 4C6B     		ldr	r4, [r1, #52]
 279              		.loc 1 365 0
 280 001a 1343     		orrs	r3, r3, r2
 281              		.loc 1 366 0
 282 001c 3B43     		orrs	r3, r3, r7
 283 001e 3343     		orrs	r3, r3, r6
 284              		.loc 1 368 0
 285 0020 8A6B     		ldr	r2, [r1, #56]
ARM GAS  /var/tmp//ccM7fHpp.s 			page 6


 286              		.loc 1 345 0
 287 0022 0768     		ldr	r7, [r0]
 288              	.LVL2:
 289              		.loc 1 348 0
 290 0024 0B4E     		ldr	r6, .L33
 291              		.loc 1 367 0
 292 0026 2B43     		orrs	r3, r3, r5
 293 0028 2343     		orrs	r3, r3, r4
 294              		.loc 1 348 0
 295 002a 3E40     		ands	r6, r6, r7
 296              	.LVL3:
 297              		.loc 1 368 0
 298 002c 1343     		orrs	r3, r3, r2
 299              		.loc 1 364 0
 300 002e 3343     		orrs	r3, r3, r6
 301              	.LVL4:
 302              		.loc 1 383 0
 303 0030 CD6A     		ldr	r5, [r1, #44]
 304              		.loc 1 371 0
 305 0032 0360     		str	r3, [r0]
 306              		.loc 1 375 0
 307 0034 4269     		ldr	r2, [r0, #20]
 308              	.LVL5:
 309              		.loc 1 383 0
 310 0036 0B6B     		ldr	r3, [r1, #48]
 311              		.loc 1 390 0
 312 0038 0E69     		ldr	r6, [r1, #16]
 313              		.loc 1 394 0
 314 003a 4C68     		ldr	r4, [r1, #4]
 315              		.loc 1 398 0
 316 003c 8968     		ldr	r1, [r1, #8]
 317              	.LVL6:
 318              		.loc 1 383 0
 319 003e 2B43     		orrs	r3, r3, r5
 320              		.loc 1 378 0
 321 0040 22F00702 		bic	r2, r2, #7
 322              	.LVL7:
 323              		.loc 1 383 0
 324 0044 1343     		orrs	r3, r3, r2
 325              	.LVL8:
 326              		.loc 1 386 0
 327 0046 4361     		str	r3, [r0, #20]
 328              		.loc 1 390 0
 329 0048 4660     		str	r6, [r0, #4]
 330              		.loc 1 394 0
 331 004a 8460     		str	r4, [r0, #8]
 332              		.loc 1 398 0
 333 004c C160     		str	r1, [r0, #12]
 334              		.loc 1 399 0
 335 004e F0BC     		pop	{r4, r5, r6, r7}
 336              		.cfi_restore 7
 337              		.cfi_restore 6
 338              		.cfi_restore 5
 339              		.cfi_restore 4
 340              		.cfi_def_cfa_offset 0
 341 0050 7047     		bx	lr
 342              	.L34:
ARM GAS  /var/tmp//ccM7fHpp.s 			page 7


 343 0052 00BF     		.align	2
 344              	.L33:
 345 0054 3F801CF0 		.word	-266567617
 346              		.cfi_endproc
 347              	.LFE113:
 348              		.size	DMA_Init, .-DMA_Init
 349              		.section	.text.DMA_StructInit,"ax",%progbits
 350              		.align	1
 351              		.p2align 4,,15
 352              		.global	DMA_StructInit
 353              		.syntax unified
 354              		.thumb
 355              		.thumb_func
 356              		.fpu fpv4-sp-d16
 357              		.type	DMA_StructInit, %function
 358              	DMA_StructInit:
 359              	.LFB114:
 360              		.loc 1 408 0
 361              		.cfi_startproc
 362              		@ args = 0, pretend = 0, frame = 0
 363              		@ frame_needed = 0, uses_anonymous_args = 0
 364              		@ link register save eliminated.
 365              	.LVL9:
 366              		.loc 1 411 0
 367 0000 0023     		movs	r3, #0
 368 0002 0360     		str	r3, [r0]
 369              		.loc 1 414 0
 370 0004 4360     		str	r3, [r0, #4]
 371              		.loc 1 417 0
 372 0006 8360     		str	r3, [r0, #8]
 373              		.loc 1 420 0
 374 0008 C360     		str	r3, [r0, #12]
 375              		.loc 1 423 0
 376 000a 0361     		str	r3, [r0, #16]
 377              		.loc 1 426 0
 378 000c 4361     		str	r3, [r0, #20]
 379              		.loc 1 429 0
 380 000e 8361     		str	r3, [r0, #24]
 381              		.loc 1 432 0
 382 0010 C361     		str	r3, [r0, #28]
 383              		.loc 1 435 0
 384 0012 0362     		str	r3, [r0, #32]
 385              		.loc 1 438 0
 386 0014 4362     		str	r3, [r0, #36]
 387              		.loc 1 441 0
 388 0016 8362     		str	r3, [r0, #40]
 389              		.loc 1 444 0
 390 0018 C362     		str	r3, [r0, #44]
 391              		.loc 1 447 0
 392 001a 0363     		str	r3, [r0, #48]
 393              		.loc 1 450 0
 394 001c 4363     		str	r3, [r0, #52]
 395              		.loc 1 453 0
 396 001e 8363     		str	r3, [r0, #56]
 397 0020 7047     		bx	lr
 398              		.cfi_endproc
 399              	.LFE114:
ARM GAS  /var/tmp//ccM7fHpp.s 			page 8


 400              		.size	DMA_StructInit, .-DMA_StructInit
 401 0022 00BF     		.section	.text.DMA_Cmd,"ax",%progbits
 402              		.align	1
 403              		.p2align 4,,15
 404              		.global	DMA_Cmd
 405              		.syntax unified
 406              		.thumb
 407              		.thumb_func
 408              		.fpu fpv4-sp-d16
 409              		.type	DMA_Cmd, %function
 410              	DMA_Cmd:
 411              	.LFB115:
 412              		.loc 1 483 0
 413              		.cfi_startproc
 414              		@ args = 0, pretend = 0, frame = 0
 415              		@ frame_needed = 0, uses_anonymous_args = 0
 416              		@ link register save eliminated.
 417              	.LVL10:
 418              		.loc 1 491 0
 419 0000 0368     		ldr	r3, [r0]
 420              		.loc 1 488 0
 421 0002 19B9     		cbnz	r1, .L39
 422              		.loc 1 496 0
 423 0004 23F00103 		bic	r3, r3, #1
 424 0008 0360     		str	r3, [r0]
 425 000a 7047     		bx	lr
 426              	.L39:
 427              		.loc 1 491 0
 428 000c 43F00103 		orr	r3, r3, #1
 429 0010 0360     		str	r3, [r0]
 430 0012 7047     		bx	lr
 431              		.cfi_endproc
 432              	.LFE115:
 433              		.size	DMA_Cmd, .-DMA_Cmd
 434              		.section	.text.DMA_PeriphIncOffsetSizeConfig,"ax",%progbits
 435              		.align	1
 436              		.p2align 4,,15
 437              		.global	DMA_PeriphIncOffsetSizeConfig
 438              		.syntax unified
 439              		.thumb
 440              		.thumb_func
 441              		.fpu fpv4-sp-d16
 442              		.type	DMA_PeriphIncOffsetSizeConfig, %function
 443              	DMA_PeriphIncOffsetSizeConfig:
 444              	.LFB116:
 445              		.loc 1 519 0
 446              		.cfi_startproc
 447              		@ args = 0, pretend = 0, frame = 0
 448              		@ frame_needed = 0, uses_anonymous_args = 0
 449              		@ link register save eliminated.
 450              	.LVL11:
 451              		.loc 1 528 0
 452 0000 0368     		ldr	r3, [r0]
 453              		.loc 1 525 0
 454 0002 19B9     		cbnz	r1, .L43
 455              		.loc 1 533 0
 456 0004 23F40043 		bic	r3, r3, #32768
ARM GAS  /var/tmp//ccM7fHpp.s 			page 9


 457 0008 0360     		str	r3, [r0]
 458 000a 7047     		bx	lr
 459              	.L43:
 460              		.loc 1 528 0
 461 000c 43F40043 		orr	r3, r3, #32768
 462 0010 0360     		str	r3, [r0]
 463 0012 7047     		bx	lr
 464              		.cfi_endproc
 465              	.LFE116:
 466              		.size	DMA_PeriphIncOffsetSizeConfig, .-DMA_PeriphIncOffsetSizeConfig
 467              		.section	.text.DMA_FlowControllerConfig,"ax",%progbits
 468              		.align	1
 469              		.p2align 4,,15
 470              		.global	DMA_FlowControllerConfig
 471              		.syntax unified
 472              		.thumb
 473              		.thumb_func
 474              		.fpu fpv4-sp-d16
 475              		.type	DMA_FlowControllerConfig, %function
 476              	DMA_FlowControllerConfig:
 477              	.LFB117:
 478              		.loc 1 555 0
 479              		.cfi_startproc
 480              		@ args = 0, pretend = 0, frame = 0
 481              		@ frame_needed = 0, uses_anonymous_args = 0
 482              		@ link register save eliminated.
 483              	.LVL12:
 484              		.loc 1 564 0
 485 0000 0368     		ldr	r3, [r0]
 486              		.loc 1 561 0
 487 0002 19B9     		cbnz	r1, .L47
 488              		.loc 1 569 0
 489 0004 23F02003 		bic	r3, r3, #32
 490 0008 0360     		str	r3, [r0]
 491 000a 7047     		bx	lr
 492              	.L47:
 493              		.loc 1 564 0
 494 000c 43F02003 		orr	r3, r3, #32
 495 0010 0360     		str	r3, [r0]
 496 0012 7047     		bx	lr
 497              		.cfi_endproc
 498              	.LFE117:
 499              		.size	DMA_FlowControllerConfig, .-DMA_FlowControllerConfig
 500              		.section	.text.DMA_SetCurrDataCounter,"ax",%progbits
 501              		.align	1
 502              		.p2align 4,,15
 503              		.global	DMA_SetCurrDataCounter
 504              		.syntax unified
 505              		.thumb
 506              		.thumb_func
 507              		.fpu fpv4-sp-d16
 508              		.type	DMA_SetCurrDataCounter, %function
 509              	DMA_SetCurrDataCounter:
 510              	.LFB118:
 511              		.loc 1 637 0
 512              		.cfi_startproc
 513              		@ args = 0, pretend = 0, frame = 0
ARM GAS  /var/tmp//ccM7fHpp.s 			page 10


 514              		@ frame_needed = 0, uses_anonymous_args = 0
 515              		@ link register save eliminated.
 516              	.LVL13:
 517              		.loc 1 642 0
 518 0000 4160     		str	r1, [r0, #4]
 519 0002 7047     		bx	lr
 520              		.cfi_endproc
 521              	.LFE118:
 522              		.size	DMA_SetCurrDataCounter, .-DMA_SetCurrDataCounter
 523              		.section	.text.DMA_GetCurrDataCounter,"ax",%progbits
 524              		.align	1
 525              		.p2align 4,,15
 526              		.global	DMA_GetCurrDataCounter
 527              		.syntax unified
 528              		.thumb
 529              		.thumb_func
 530              		.fpu fpv4-sp-d16
 531              		.type	DMA_GetCurrDataCounter, %function
 532              	DMA_GetCurrDataCounter:
 533              	.LFB119:
 534              		.loc 1 652 0
 535              		.cfi_startproc
 536              		@ args = 0, pretend = 0, frame = 0
 537              		@ frame_needed = 0, uses_anonymous_args = 0
 538              		@ link register save eliminated.
 539              	.LVL14:
 540              		.loc 1 657 0
 541 0000 4068     		ldr	r0, [r0, #4]
 542              	.LVL15:
 543              		.loc 1 658 0
 544 0002 80B2     		uxth	r0, r0
 545 0004 7047     		bx	lr
 546              		.cfi_endproc
 547              	.LFE119:
 548              		.size	DMA_GetCurrDataCounter, .-DMA_GetCurrDataCounter
 549 0006 00BF     		.section	.text.DMA_DoubleBufferModeConfig,"ax",%progbits
 550              		.align	1
 551              		.p2align 4,,15
 552              		.global	DMA_DoubleBufferModeConfig
 553              		.syntax unified
 554              		.thumb
 555              		.thumb_func
 556              		.fpu fpv4-sp-d16
 557              		.type	DMA_DoubleBufferModeConfig, %function
 558              	DMA_DoubleBufferModeConfig:
 559              	.LFB120:
 560              		.loc 1 736 0
 561              		.cfi_startproc
 562              		@ args = 0, pretend = 0, frame = 0
 563              		@ frame_needed = 0, uses_anonymous_args = 0
 564              		@ link register save eliminated.
 565              	.LVL16:
 566              		.loc 1 744 0
 567 0000 0368     		ldr	r3, [r0]
 568              		.loc 1 741 0
 569 0002 22B9     		cbnz	r2, .L53
 570              		.loc 1 749 0
ARM GAS  /var/tmp//ccM7fHpp.s 			page 11


 571 0004 23F40023 		bic	r3, r3, #524288
 572 0008 0360     		str	r3, [r0]
 573              		.loc 1 753 0
 574 000a 0161     		str	r1, [r0, #16]
 575 000c 7047     		bx	lr
 576              	.L53:
 577              		.loc 1 744 0
 578 000e 43F40023 		orr	r3, r3, #524288
 579 0012 0360     		str	r3, [r0]
 580              		.loc 1 753 0
 581 0014 0161     		str	r1, [r0, #16]
 582 0016 7047     		bx	lr
 583              		.cfi_endproc
 584              	.LFE120:
 585              		.size	DMA_DoubleBufferModeConfig, .-DMA_DoubleBufferModeConfig
 586              		.section	.text.DMA_DoubleBufferModeCmd,"ax",%progbits
 587              		.align	1
 588              		.p2align 4,,15
 589              		.global	DMA_DoubleBufferModeCmd
 590              		.syntax unified
 591              		.thumb
 592              		.thumb_func
 593              		.fpu fpv4-sp-d16
 594              		.type	DMA_DoubleBufferModeCmd, %function
 595              	DMA_DoubleBufferModeCmd:
 596              	.LFB121:
 597              		.loc 1 766 0
 598              		.cfi_startproc
 599              		@ args = 0, pretend = 0, frame = 0
 600              		@ frame_needed = 0, uses_anonymous_args = 0
 601              		@ link register save eliminated.
 602              	.LVL17:
 603              		.loc 1 775 0
 604 0000 0368     		ldr	r3, [r0]
 605              		.loc 1 772 0
 606 0002 19B9     		cbnz	r1, .L57
 607              		.loc 1 780 0
 608 0004 23F48023 		bic	r3, r3, #262144
 609 0008 0360     		str	r3, [r0]
 610 000a 7047     		bx	lr
 611              	.L57:
 612              		.loc 1 775 0
 613 000c 43F48023 		orr	r3, r3, #262144
 614 0010 0360     		str	r3, [r0]
 615 0012 7047     		bx	lr
 616              		.cfi_endproc
 617              	.LFE121:
 618              		.size	DMA_DoubleBufferModeCmd, .-DMA_DoubleBufferModeCmd
 619              		.section	.text.DMA_MemoryTargetConfig,"ax",%progbits
 620              		.align	1
 621              		.p2align 4,,15
 622              		.global	DMA_MemoryTargetConfig
 623              		.syntax unified
 624              		.thumb
 625              		.thumb_func
 626              		.fpu fpv4-sp-d16
 627              		.type	DMA_MemoryTargetConfig, %function
ARM GAS  /var/tmp//ccM7fHpp.s 			page 12


 628              	DMA_MemoryTargetConfig:
 629              	.LFB122:
 630              		.loc 1 808 0
 631              		.cfi_startproc
 632              		@ args = 0, pretend = 0, frame = 0
 633              		@ frame_needed = 0, uses_anonymous_args = 0
 634              		@ link register save eliminated.
 635              	.LVL18:
 636              		.loc 1 814 0
 637 0000 0AB9     		cbnz	r2, .L61
 638              		.loc 1 822 0
 639 0002 C160     		str	r1, [r0, #12]
 640 0004 7047     		bx	lr
 641              	.L61:
 642              		.loc 1 817 0
 643 0006 0161     		str	r1, [r0, #16]
 644 0008 7047     		bx	lr
 645              		.cfi_endproc
 646              	.LFE122:
 647              		.size	DMA_MemoryTargetConfig, .-DMA_MemoryTargetConfig
 648 000a 00BF     		.section	.text.DMA_GetCurrentMemoryTarget,"ax",%progbits
 649              		.align	1
 650              		.p2align 4,,15
 651              		.global	DMA_GetCurrentMemoryTarget
 652              		.syntax unified
 653              		.thumb
 654              		.thumb_func
 655              		.fpu fpv4-sp-d16
 656              		.type	DMA_GetCurrentMemoryTarget, %function
 657              	DMA_GetCurrentMemoryTarget:
 658              	.LFB123:
 659              		.loc 1 833 0
 660              		.cfi_startproc
 661              		@ args = 0, pretend = 0, frame = 0
 662              		@ frame_needed = 0, uses_anonymous_args = 0
 663              		@ link register save eliminated.
 664              	.LVL19:
 665              		.loc 1 840 0
 666 0000 0068     		ldr	r0, [r0]
 667              	.LVL20:
 668              		.loc 1 851 0
 669 0002 C0F3C040 		ubfx	r0, r0, #19, #1
 670              	.LVL21:
 671 0006 7047     		bx	lr
 672              		.cfi_endproc
 673              	.LFE123:
 674              		.size	DMA_GetCurrentMemoryTarget, .-DMA_GetCurrentMemoryTarget
 675              		.section	.text.DMA_GetCmdStatus,"ax",%progbits
 676              		.align	1
 677              		.p2align 4,,15
 678              		.global	DMA_GetCmdStatus
 679              		.syntax unified
 680              		.thumb
 681              		.thumb_func
 682              		.fpu fpv4-sp-d16
 683              		.type	DMA_GetCmdStatus, %function
 684              	DMA_GetCmdStatus:
ARM GAS  /var/tmp//ccM7fHpp.s 			page 13


 685              	.LFB124:
 686              		.loc 1 948 0
 687              		.cfi_startproc
 688              		@ args = 0, pretend = 0, frame = 0
 689              		@ frame_needed = 0, uses_anonymous_args = 0
 690              		@ link register save eliminated.
 691              	.LVL22:
 692              		.loc 1 954 0
 693 0000 0068     		ldr	r0, [r0]
 694              	.LVL23:
 695              		.loc 1 966 0
 696 0002 00F00100 		and	r0, r0, #1
 697              	.LVL24:
 698 0006 7047     		bx	lr
 699              		.cfi_endproc
 700              	.LFE124:
 701              		.size	DMA_GetCmdStatus, .-DMA_GetCmdStatus
 702              		.section	.text.DMA_GetFIFOStatus,"ax",%progbits
 703              		.align	1
 704              		.p2align 4,,15
 705              		.global	DMA_GetFIFOStatus
 706              		.syntax unified
 707              		.thumb
 708              		.thumb_func
 709              		.fpu fpv4-sp-d16
 710              		.type	DMA_GetFIFOStatus, %function
 711              	DMA_GetFIFOStatus:
 712              	.LFB125:
 713              		.loc 1 982 0
 714              		.cfi_startproc
 715              		@ args = 0, pretend = 0, frame = 0
 716              		@ frame_needed = 0, uses_anonymous_args = 0
 717              		@ link register save eliminated.
 718              	.LVL25:
 719              		.loc 1 989 0
 720 0000 4069     		ldr	r0, [r0, #20]
 721              	.LVL26:
 722              		.loc 1 992 0
 723 0002 00F03800 		and	r0, r0, #56
 724              	.LVL27:
 725 0006 7047     		bx	lr
 726              		.cfi_endproc
 727              	.LFE125:
 728              		.size	DMA_GetFIFOStatus, .-DMA_GetFIFOStatus
 729              		.section	.text.DMA_GetFlagStatus,"ax",%progbits
 730              		.align	1
 731              		.p2align 4,,15
 732              		.global	DMA_GetFlagStatus
 733              		.syntax unified
 734              		.thumb
 735              		.thumb_func
 736              		.fpu fpv4-sp-d16
 737              		.type	DMA_GetFlagStatus, %function
 738              	DMA_GetFlagStatus:
 739              	.LFB126:
 740              		.loc 1 1009 0
 741              		.cfi_startproc
ARM GAS  /var/tmp//ccM7fHpp.s 			page 14


 742              		@ args = 0, pretend = 0, frame = 0
 743              		@ frame_needed = 0, uses_anonymous_args = 0
 744              		@ link register save eliminated.
 745              	.LVL28:
 746              		.loc 1 1027 0
 747 0000 0B4B     		ldr	r3, .L71
 748 0002 0C4A     		ldr	r2, .L71+4
 749              		.loc 1 1009 0
 750 0004 10B4     		push	{r4}
 751              		.cfi_def_cfa_offset 4
 752              		.cfi_offset 4, -4
 753              		.loc 1 1019 0
 754 0006 0C4C     		ldr	r4, .L71+8
 755              		.loc 1 1027 0
 756 0008 A042     		cmp	r0, r4
 757 000a 94BF     		ite	ls
 758 000c 1846     		movls	r0, r3
 759 000e 1046     		movhi	r0, r2
 760              	.LVL29:
 761              		.loc 1 1031 0
 762 0010 8B00     		lsls	r3, r1, #2
 763              		.loc 1 1034 0
 764 0012 4CBF     		ite	mi
 765 0014 4368     		ldrmi	r3, [r0, #4]
 766              	.LVL30:
 767              		.loc 1 1039 0
 768 0016 0368     		ldrpl	r3, [r0]
 769              	.LVL31:
 770              		.loc 1 1059 0
 771 0018 5DF8044B 		ldr	r4, [sp], #4
 772              		.cfi_restore 4
 773              		.cfi_def_cfa_offset 0
 774              		.loc 1 1046 0
 775 001c 21F0F021 		bic	r1, r1, #-268374016
 776              	.LVL32:
 777 0020 21F08211 		bic	r1, r1, #8519810
 778 0024 1942     		tst	r1, r3
 779              		.loc 1 1059 0
 780 0026 14BF     		ite	ne
 781 0028 0120     		movne	r0, #1
 782              	.LVL33:
 783 002a 0020     		moveq	r0, #0
 784 002c 7047     		bx	lr
 785              	.L72:
 786 002e 00BF     		.align	2
 787              	.L71:
 788 0030 00600240 		.word	1073897472
 789 0034 00640240 		.word	1073898496
 790 0038 0F640240 		.word	1073898511
 791              		.cfi_endproc
 792              	.LFE126:
 793              		.size	DMA_GetFlagStatus, .-DMA_GetFlagStatus
 794              		.section	.text.DMA_ITConfig,"ax",%progbits
 795              		.align	1
 796              		.p2align 4,,15
 797              		.global	DMA_ITConfig
 798              		.syntax unified
ARM GAS  /var/tmp//ccM7fHpp.s 			page 15


 799              		.thumb
 800              		.thumb_func
 801              		.fpu fpv4-sp-d16
 802              		.type	DMA_ITConfig, %function
 803              	DMA_ITConfig:
 804              	.LFB128:
 805              		.loc 1 1123 0
 806              		.cfi_startproc
 807              		@ args = 0, pretend = 0, frame = 0
 808              		@ frame_needed = 0, uses_anonymous_args = 0
 809              		@ link register save eliminated.
 810              	.LVL34:
 811              		.loc 1 1130 0
 812 0000 0B06     		lsls	r3, r1, #24
 813 0002 0CD5     		bpl	.L74
 814              		.loc 1 1135 0
 815 0004 4369     		ldr	r3, [r0, #20]
 816              		.loc 1 1132 0
 817 0006 AAB1     		cbz	r2, .L75
 818              		.loc 1 1135 0
 819 0008 43F08003 		orr	r3, r3, #128
 820              		.loc 1 1145 0
 821 000c 8029     		cmp	r1, #128
 822              		.loc 1 1135 0
 823 000e 4361     		str	r3, [r0, #20]
 824              		.loc 1 1145 0
 825 0010 0FD0     		beq	.L73
 826              	.L76:
 827              		.loc 1 1150 0
 828 0012 0368     		ldr	r3, [r0]
 829 0014 01F01E01 		and	r1, r1, #30
 830              	.LVL35:
 831 0018 1943     		orrs	r1, r1, r3
 832 001a 0160     		str	r1, [r0]
 833 001c 7047     		bx	lr
 834              	.LVL36:
 835              	.L74:
 836              		.loc 1 1145 0
 837 001e 8029     		cmp	r1, #128
 838 0020 07D0     		beq	.L73
 839              		.loc 1 1147 0
 840 0022 002A     		cmp	r2, #0
 841 0024 F5D1     		bne	.L76
 842              	.L78:
 843              		.loc 1 1155 0
 844 0026 0368     		ldr	r3, [r0]
 845 0028 01F01E01 		and	r1, r1, #30
 846              	.LVL37:
 847 002c 23EA0101 		bic	r1, r3, r1
 848 0030 0160     		str	r1, [r0]
 849              	.L73:
 850 0032 7047     		bx	lr
 851              	.LVL38:
 852              	.L75:
 853              		.loc 1 1140 0
 854 0034 23F08003 		bic	r3, r3, #128
 855              		.loc 1 1145 0
ARM GAS  /var/tmp//ccM7fHpp.s 			page 16


 856 0038 8029     		cmp	r1, #128
 857              		.loc 1 1140 0
 858 003a 4361     		str	r3, [r0, #20]
 859              		.loc 1 1145 0
 860 003c F3D1     		bne	.L78
 861 003e 7047     		bx	lr
 862              		.cfi_endproc
 863              	.LFE128:
 864              		.size	DMA_ITConfig, .-DMA_ITConfig
 865              		.section	.text.DMA_GetITStatus,"ax",%progbits
 866              		.align	1
 867              		.p2align 4,,15
 868              		.global	DMA_GetITStatus
 869              		.syntax unified
 870              		.thumb
 871              		.thumb_func
 872              		.fpu fpv4-sp-d16
 873              		.type	DMA_GetITStatus, %function
 874              	DMA_GetITStatus:
 875              	.LFB129:
 876              		.loc 1 1175 0
 877              		.cfi_startproc
 878              		@ args = 0, pretend = 0, frame = 0
 879              		@ frame_needed = 0, uses_anonymous_args = 0
 880              		@ link register save eliminated.
 881              	.LVL39:
 882 0000 30B4     		push	{r4, r5}
 883              		.cfi_def_cfa_offset 8
 884              		.cfi_offset 4, -8
 885              		.cfi_offset 5, -4
 886              		.loc 1 1193 0
 887 0002 114B     		ldr	r3, .L93
 888              		.loc 1 1185 0
 889 0004 114D     		ldr	r5, .L93+4
 890              		.loc 1 1193 0
 891 0006 124A     		ldr	r2, .L93+8
 892              		.loc 1 1197 0
 893 0008 21F0F024 		bic	r4, r1, #-268374016
 894 000c 24F0C314 		bic	r4, r4, #12779715
 895              		.loc 1 1193 0
 896 0010 A842     		cmp	r0, r5
 897 0012 98BF     		it	ls
 898 0014 1A46     		movls	r2, r3
 899              	.LVL40:
 900              		.loc 1 1197 0
 901 0016 9CB1     		cbz	r4, .L85
 902              	.LVL41:
 903              		.loc 1 1203 0
 904 0018 0068     		ldr	r0, [r0]
 905              	.LVL42:
 906              		.loc 1 1200 0
 907 001a 00EAD120 		and	r0, r0, r1, lsr #11
 908              		.loc 1 1203 0
 909 001e 00F01E03 		and	r3, r0, #30
 910              	.LVL43:
 911              	.L86:
 912              		.loc 1 1212 0
ARM GAS  /var/tmp//ccM7fHpp.s 			page 17


 913 0022 8800     		lsls	r0, r1, #2
 914              		.loc 1 1215 0
 915 0024 4CBF     		ite	mi
 916 0026 5068     		ldrmi	r0, [r2, #4]
 917              	.LVL44:
 918              		.loc 1 1220 0
 919 0028 1068     		ldrpl	r0, [r2]
 920              	.LVL45:
 921              		.loc 1 1227 0
 922 002a 21F0F021 		bic	r1, r1, #-268374016
 923              	.LVL46:
 924 002e 21F08211 		bic	r1, r1, #8519810
 925 0032 0840     		ands	r0, r1, r0
 926              	.LVL47:
 927 0034 02D0     		beq	.L89
 928              		.loc 1 1227 0 is_stmt 0 discriminator 1
 929 0036 181C     		adds	r0, r3, #0
 930 0038 18BF     		it	ne
 931 003a 0120     		movne	r0, #1
 932              	.L89:
 933              	.LVL48:
 934              		.loc 1 1240 0 is_stmt 1
 935 003c 30BC     		pop	{r4, r5}
 936              		.cfi_remember_state
 937              		.cfi_restore 5
 938              		.cfi_restore 4
 939              		.cfi_def_cfa_offset 0
 940 003e 7047     		bx	lr
 941              	.LVL49:
 942              	.L85:
 943              		.cfi_restore_state
 944              		.loc 1 1208 0
 945 0040 4369     		ldr	r3, [r0, #20]
 946 0042 03F08003 		and	r3, r3, #128
 947              	.LVL50:
 948 0046 ECE7     		b	.L86
 949              	.L94:
 950              		.align	2
 951              	.L93:
 952 0048 00600240 		.word	1073897472
 953 004c 0F640240 		.word	1073898511
 954 0050 00640240 		.word	1073898496
 955              		.cfi_endproc
 956              	.LFE129:
 957              		.size	DMA_GetITStatus, .-DMA_GetITStatus
 958              		.section	.text.DMA_ClearITPendingBit,"ax",%progbits
 959              		.align	1
 960              		.p2align 4,,15
 961              		.global	DMA_ClearITPendingBit
 962              		.syntax unified
 963              		.thumb
 964              		.thumb_func
 965              		.fpu fpv4-sp-d16
 966              		.type	DMA_ClearITPendingBit, %function
 967              	DMA_ClearITPendingBit:
 968              	.LFB130:
 969              		.loc 1 1257 0
ARM GAS  /var/tmp//ccM7fHpp.s 			page 18


 970              		.cfi_startproc
 971              		@ args = 0, pretend = 0, frame = 0
 972              		@ frame_needed = 0, uses_anonymous_args = 0
 973              		@ link register save eliminated.
 974              	.LVL51:
 975 0000 10B4     		push	{r4}
 976              		.cfi_def_cfa_offset 4
 977              		.cfi_offset 4, -4
 978              		.loc 1 1273 0
 979 0002 094B     		ldr	r3, .L101
 980              		.loc 1 1265 0
 981 0004 094C     		ldr	r4, .L101+4
 982              		.loc 1 1273 0
 983 0006 0A4A     		ldr	r2, .L101+8
 984 0008 A042     		cmp	r0, r4
 985 000a 94BF     		ite	ls
 986 000c 1846     		movls	r0, r3
 987 000e 1046     		movhi	r0, r2
 988              	.LVL52:
 989              		.loc 1 1277 0
 990 0010 11F0005F 		tst	r1, #536870912
 991              		.loc 1 1280 0
 992 0014 21F0F021 		bic	r1, r1, #-268374016
 993              	.LVL53:
 994 0018 21F08211 		bic	r1, r1, #8519810
 995 001c 14BF     		ite	ne
 996 001e C160     		strne	r1, [r0, #12]
 997              		.loc 1 1285 0
 998 0020 8160     		streq	r1, [r0, #8]
 999              		.loc 1 1287 0
 1000 0022 5DF8044B 		ldr	r4, [sp], #4
 1001              		.cfi_restore 4
 1002              		.cfi_def_cfa_offset 0
 1003 0026 7047     		bx	lr
 1004              	.L102:
 1005              		.align	2
 1006              	.L101:
 1007 0028 00600240 		.word	1073897472
 1008 002c 0F640240 		.word	1073898511
 1009 0030 00640240 		.word	1073898496
 1010              		.cfi_endproc
 1011              	.LFE130:
 1012              		.size	DMA_ClearITPendingBit, .-DMA_ClearITPendingBit
 1013              		.section	.text.DMA_ClearFlag,"ax",%progbits
 1014              		.align	1
 1015              		.p2align 4,,15
 1016              		.global	DMA_ClearFlag
 1017              		.syntax unified
 1018              		.thumb
 1019              		.thumb_func
 1020              		.fpu fpv4-sp-d16
 1021              		.type	DMA_ClearFlag, %function
 1022              	DMA_ClearFlag:
 1023              	.LFB132:
 1024              		.cfi_startproc
 1025              		@ args = 0, pretend = 0, frame = 0
 1026              		@ frame_needed = 0, uses_anonymous_args = 0
ARM GAS  /var/tmp//ccM7fHpp.s 			page 19


 1027              		@ link register save eliminated.
 1028 0000 FFF7FEBF 		b	DMA_ClearITPendingBit
 1029              		.cfi_endproc
 1030              	.LFE132:
 1031              		.size	DMA_ClearFlag, .-DMA_ClearFlag
 1032              		.text
 1033              	.Letext0:
 1034              		.file 2 "/usr/local/gcc_arm/gcc-arm-none-eabi-6-2017-q2-update/arm-none-eabi/include/machine/_defa
 1035              		.file 3 "/usr/local/gcc_arm/gcc-arm-none-eabi-6-2017-q2-update/arm-none-eabi/include/sys/_stdint.h
 1036              		.file 4 "ChibiOS_3.0.2/os/ext/CMSIS/include/core_cm4.h"
 1037              		.file 5 "ChibiOS_3.0.2/os/ext/CMSIS/ST/system_stm32f4xx.h"
 1038              		.file 6 "ChibiOS_3.0.2/os/ext/CMSIS/ST/stm32f407xx.h"
 1039              		.file 7 "ChibiOS_3.0.2/os/ext/CMSIS/ST/stm32f4xx.h"
 1040              		.file 8 "ChibiOS_3.0.2/ext/stdperiph_stm32f4/inc/stm32f4xx_dma.h"