ARM GAS  /var/tmp//cc8pBBiV.s 			page 1


   1              		.cpu cortex-m4
   2              		.eabi_attribute 27, 1
   3              		.eabi_attribute 28, 1
   4              		.eabi_attribute 20, 1
   5              		.eabi_attribute 21, 1
   6              		.eabi_attribute 23, 3
   7              		.eabi_attribute 24, 1
   8              		.eabi_attribute 25, 1
   9              		.eabi_attribute 26, 1
  10              		.eabi_attribute 30, 2
  11              		.eabi_attribute 34, 1
  12              		.eabi_attribute 18, 4
  13              		.file	"stm32_dma.c"
  14              		.text
  15              	.Ltext0:
  16              		.cfi_sections	.debug_frame
  17              		.section	.text.Vector6C,"ax",%progbits
  18              		.align	1
  19              		.p2align 4,,15
  20              		.global	Vector6C
  21              		.syntax unified
  22              		.thumb
  23              		.thumb_func
  24              		.fpu fpv4-sp-d16
  25              		.type	Vector6C, %function
  26              	Vector6C:
  27              	.LFB256:
  28              		.file 1 "ChibiOS_3.0.2/os/hal/ports/STM32/STM32F4xx/stm32_dma.c"
  29              		.loc 1 127 0
  30              		.cfi_startproc
  31              		@ args = 0, pretend = 0, frame = 0
  32              		@ frame_needed = 0, uses_anonymous_args = 0
  33 0000 08B5     		push	{r3, lr}
  34              		.cfi_def_cfa_offset 8
  35              		.cfi_offset 3, -8
  36              		.cfi_offset 14, -4
  37              		.loc 1 132 0
  38 0002 074B     		ldr	r3, .L8
  39              		.loc 1 134 0
  40 0004 074A     		ldr	r2, .L8+4
  41              		.loc 1 132 0
  42 0006 1968     		ldr	r1, [r3]
  43 0008 01F03D01 		and	r1, r1, #61
  44              	.LVL0:
  45              		.loc 1 133 0
  46 000c 9960     		str	r1, [r3, #8]
  47              		.loc 1 134 0
  48 000e 1368     		ldr	r3, [r2]
  49 0010 0BB1     		cbz	r3, .L2
  50              		.loc 1 135 0
  51 0012 5068     		ldr	r0, [r2, #4]
  52 0014 9847     		blx	r3
  53              	.LVL1:
  54              	.L2:
  55              		.loc 1 138 0
  56 0016 BDE80840 		pop	{r3, lr}
  57              		.cfi_restore 14
ARM GAS  /var/tmp//cc8pBBiV.s 			page 2


  58              		.cfi_restore 3
  59              		.cfi_def_cfa_offset 0
  60              		.loc 1 137 0
  61 001a FFF7FEBF 		b	_port_irq_epilogue
  62              	.LVL2:
  63              	.L9:
  64 001e 00BF     		.align	2
  65              	.L8:
  66 0020 00600240 		.word	1073897472
  67 0024 00000000 		.word	.LANCHOR0
  68              		.cfi_endproc
  69              	.LFE256:
  70              		.size	Vector6C, .-Vector6C
  71              		.section	.text.Vector70,"ax",%progbits
  72              		.align	1
  73              		.p2align 4,,15
  74              		.global	Vector70
  75              		.syntax unified
  76              		.thumb
  77              		.thumb_func
  78              		.fpu fpv4-sp-d16
  79              		.type	Vector70, %function
  80              	Vector70:
  81              	.LFB257:
  82              		.loc 1 145 0
  83              		.cfi_startproc
  84              		@ args = 0, pretend = 0, frame = 0
  85              		@ frame_needed = 0, uses_anonymous_args = 0
  86              		.loc 1 150 0
  87 0000 084B     		ldr	r3, .L16
  88              		.loc 1 152 0
  89 0002 0948     		ldr	r0, .L16+4
  90              		.loc 1 150 0
  91 0004 1968     		ldr	r1, [r3]
  92              		.loc 1 152 0
  93 0006 8268     		ldr	r2, [r0, #8]
  94              		.loc 1 150 0
  95 0008 8909     		lsrs	r1, r1, #6
  96 000a 01F03D01 		and	r1, r1, #61
  97              	.LVL3:
  98              		.loc 1 145 0
  99 000e 10B5     		push	{r4, lr}
 100              		.cfi_def_cfa_offset 8
 101              		.cfi_offset 4, -8
 102              		.cfi_offset 14, -4
 103              		.loc 1 151 0
 104 0010 8C01     		lsls	r4, r1, #6
 105 0012 9C60     		str	r4, [r3, #8]
 106              		.loc 1 152 0
 107 0014 0AB1     		cbz	r2, .L11
 108              		.loc 1 153 0
 109 0016 C068     		ldr	r0, [r0, #12]
 110 0018 9047     		blx	r2
 111              	.LVL4:
 112              	.L11:
 113              		.loc 1 156 0
 114 001a BDE81040 		pop	{r4, lr}
ARM GAS  /var/tmp//cc8pBBiV.s 			page 3


 115              		.cfi_restore 14
 116              		.cfi_restore 4
 117              		.cfi_def_cfa_offset 0
 118              		.loc 1 155 0
 119 001e FFF7FEBF 		b	_port_irq_epilogue
 120              	.LVL5:
 121              	.L17:
 122 0022 00BF     		.align	2
 123              	.L16:
 124 0024 00600240 		.word	1073897472
 125 0028 00000000 		.word	.LANCHOR0
 126              		.cfi_endproc
 127              	.LFE257:
 128              		.size	Vector70, .-Vector70
 129              		.section	.text.Vector74,"ax",%progbits
 130              		.align	1
 131              		.p2align 4,,15
 132              		.global	Vector74
 133              		.syntax unified
 134              		.thumb
 135              		.thumb_func
 136              		.fpu fpv4-sp-d16
 137              		.type	Vector74, %function
 138              	Vector74:
 139              	.LFB258:
 140              		.loc 1 163 0
 141              		.cfi_startproc
 142              		@ args = 0, pretend = 0, frame = 0
 143              		@ frame_needed = 0, uses_anonymous_args = 0
 144              		.loc 1 168 0
 145 0000 084B     		ldr	r3, .L24
 146              		.loc 1 170 0
 147 0002 0948     		ldr	r0, .L24+4
 148              		.loc 1 168 0
 149 0004 1968     		ldr	r1, [r3]
 150              		.loc 1 170 0
 151 0006 0269     		ldr	r2, [r0, #16]
 152              		.loc 1 168 0
 153 0008 090C     		lsrs	r1, r1, #16
 154 000a 01F03D01 		and	r1, r1, #61
 155              	.LVL6:
 156              		.loc 1 163 0
 157 000e 10B5     		push	{r4, lr}
 158              		.cfi_def_cfa_offset 8
 159              		.cfi_offset 4, -8
 160              		.cfi_offset 14, -4
 161              		.loc 1 169 0
 162 0010 0C04     		lsls	r4, r1, #16
 163 0012 9C60     		str	r4, [r3, #8]
 164              		.loc 1 170 0
 165 0014 0AB1     		cbz	r2, .L19
 166              		.loc 1 171 0
 167 0016 4069     		ldr	r0, [r0, #20]
 168 0018 9047     		blx	r2
 169              	.LVL7:
 170              	.L19:
 171              		.loc 1 174 0
ARM GAS  /var/tmp//cc8pBBiV.s 			page 4


 172 001a BDE81040 		pop	{r4, lr}
 173              		.cfi_restore 14
 174              		.cfi_restore 4
 175              		.cfi_def_cfa_offset 0
 176              		.loc 1 173 0
 177 001e FFF7FEBF 		b	_port_irq_epilogue
 178              	.LVL8:
 179              	.L25:
 180 0022 00BF     		.align	2
 181              	.L24:
 182 0024 00600240 		.word	1073897472
 183 0028 00000000 		.word	.LANCHOR0
 184              		.cfi_endproc
 185              	.LFE258:
 186              		.size	Vector74, .-Vector74
 187              		.section	.text.Vector78,"ax",%progbits
 188              		.align	1
 189              		.p2align 4,,15
 190              		.global	Vector78
 191              		.syntax unified
 192              		.thumb
 193              		.thumb_func
 194              		.fpu fpv4-sp-d16
 195              		.type	Vector78, %function
 196              	Vector78:
 197              	.LFB259:
 198              		.loc 1 181 0
 199              		.cfi_startproc
 200              		@ args = 0, pretend = 0, frame = 0
 201              		@ frame_needed = 0, uses_anonymous_args = 0
 202              		.loc 1 186 0
 203 0000 084B     		ldr	r3, .L32
 204              		.loc 1 188 0
 205 0002 0948     		ldr	r0, .L32+4
 206              		.loc 1 186 0
 207 0004 1968     		ldr	r1, [r3]
 208              		.loc 1 188 0
 209 0006 8269     		ldr	r2, [r0, #24]
 210              		.loc 1 186 0
 211 0008 890D     		lsrs	r1, r1, #22
 212 000a 01F03D01 		and	r1, r1, #61
 213              	.LVL9:
 214              		.loc 1 181 0
 215 000e 10B5     		push	{r4, lr}
 216              		.cfi_def_cfa_offset 8
 217              		.cfi_offset 4, -8
 218              		.cfi_offset 14, -4
 219              		.loc 1 187 0
 220 0010 8C05     		lsls	r4, r1, #22
 221 0012 9C60     		str	r4, [r3, #8]
 222              		.loc 1 188 0
 223 0014 0AB1     		cbz	r2, .L27
 224              		.loc 1 189 0
 225 0016 C069     		ldr	r0, [r0, #28]
 226 0018 9047     		blx	r2
 227              	.LVL10:
 228              	.L27:
ARM GAS  /var/tmp//cc8pBBiV.s 			page 5


 229              		.loc 1 192 0
 230 001a BDE81040 		pop	{r4, lr}
 231              		.cfi_restore 14
 232              		.cfi_restore 4
 233              		.cfi_def_cfa_offset 0
 234              		.loc 1 191 0
 235 001e FFF7FEBF 		b	_port_irq_epilogue
 236              	.LVL11:
 237              	.L33:
 238 0022 00BF     		.align	2
 239              	.L32:
 240 0024 00600240 		.word	1073897472
 241 0028 00000000 		.word	.LANCHOR0
 242              		.cfi_endproc
 243              	.LFE259:
 244              		.size	Vector78, .-Vector78
 245              		.section	.text.Vector7C,"ax",%progbits
 246              		.align	1
 247              		.p2align 4,,15
 248              		.global	Vector7C
 249              		.syntax unified
 250              		.thumb
 251              		.thumb_func
 252              		.fpu fpv4-sp-d16
 253              		.type	Vector7C, %function
 254              	Vector7C:
 255              	.LFB260:
 256              		.loc 1 199 0
 257              		.cfi_startproc
 258              		@ args = 0, pretend = 0, frame = 0
 259              		@ frame_needed = 0, uses_anonymous_args = 0
 260 0000 08B5     		push	{r3, lr}
 261              		.cfi_def_cfa_offset 8
 262              		.cfi_offset 3, -8
 263              		.cfi_offset 14, -4
 264              		.loc 1 204 0
 265 0002 074B     		ldr	r3, .L40
 266              		.loc 1 206 0
 267 0004 0748     		ldr	r0, .L40+4
 268              		.loc 1 204 0
 269 0006 5968     		ldr	r1, [r3, #4]
 270              		.loc 1 206 0
 271 0008 026A     		ldr	r2, [r0, #32]
 272              		.loc 1 204 0
 273 000a 01F03D01 		and	r1, r1, #61
 274              	.LVL12:
 275              		.loc 1 205 0
 276 000e D960     		str	r1, [r3, #12]
 277              		.loc 1 206 0
 278 0010 0AB1     		cbz	r2, .L35
 279              		.loc 1 207 0
 280 0012 406A     		ldr	r0, [r0, #36]
 281 0014 9047     		blx	r2
 282              	.LVL13:
 283              	.L35:
 284              		.loc 1 210 0
 285 0016 BDE80840 		pop	{r3, lr}
ARM GAS  /var/tmp//cc8pBBiV.s 			page 6


 286              		.cfi_restore 14
 287              		.cfi_restore 3
 288              		.cfi_def_cfa_offset 0
 289              		.loc 1 209 0
 290 001a FFF7FEBF 		b	_port_irq_epilogue
 291              	.LVL14:
 292              	.L41:
 293 001e 00BF     		.align	2
 294              	.L40:
 295 0020 00600240 		.word	1073897472
 296 0024 00000000 		.word	.LANCHOR0
 297              		.cfi_endproc
 298              	.LFE260:
 299              		.size	Vector7C, .-Vector7C
 300              		.section	.text.Vector80,"ax",%progbits
 301              		.align	1
 302              		.p2align 4,,15
 303              		.global	Vector80
 304              		.syntax unified
 305              		.thumb
 306              		.thumb_func
 307              		.fpu fpv4-sp-d16
 308              		.type	Vector80, %function
 309              	Vector80:
 310              	.LFB261:
 311              		.loc 1 217 0
 312              		.cfi_startproc
 313              		@ args = 0, pretend = 0, frame = 0
 314              		@ frame_needed = 0, uses_anonymous_args = 0
 315              		.loc 1 222 0
 316 0000 084B     		ldr	r3, .L48
 317              		.loc 1 224 0
 318 0002 0948     		ldr	r0, .L48+4
 319              		.loc 1 222 0
 320 0004 5968     		ldr	r1, [r3, #4]
 321              		.loc 1 224 0
 322 0006 826A     		ldr	r2, [r0, #40]
 323              		.loc 1 222 0
 324 0008 8909     		lsrs	r1, r1, #6
 325 000a 01F03D01 		and	r1, r1, #61
 326              	.LVL15:
 327              		.loc 1 217 0
 328 000e 10B5     		push	{r4, lr}
 329              		.cfi_def_cfa_offset 8
 330              		.cfi_offset 4, -8
 331              		.cfi_offset 14, -4
 332              		.loc 1 223 0
 333 0010 8C01     		lsls	r4, r1, #6
 334 0012 DC60     		str	r4, [r3, #12]
 335              		.loc 1 224 0
 336 0014 0AB1     		cbz	r2, .L43
 337              		.loc 1 225 0
 338 0016 C06A     		ldr	r0, [r0, #44]
 339 0018 9047     		blx	r2
 340              	.LVL16:
 341              	.L43:
 342              		.loc 1 228 0
ARM GAS  /var/tmp//cc8pBBiV.s 			page 7


 343 001a BDE81040 		pop	{r4, lr}
 344              		.cfi_restore 14
 345              		.cfi_restore 4
 346              		.cfi_def_cfa_offset 0
 347              		.loc 1 227 0
 348 001e FFF7FEBF 		b	_port_irq_epilogue
 349              	.LVL17:
 350              	.L49:
 351 0022 00BF     		.align	2
 352              	.L48:
 353 0024 00600240 		.word	1073897472
 354 0028 00000000 		.word	.LANCHOR0
 355              		.cfi_endproc
 356              	.LFE261:
 357              		.size	Vector80, .-Vector80
 358              		.section	.text.Vector84,"ax",%progbits
 359              		.align	1
 360              		.p2align 4,,15
 361              		.global	Vector84
 362              		.syntax unified
 363              		.thumb
 364              		.thumb_func
 365              		.fpu fpv4-sp-d16
 366              		.type	Vector84, %function
 367              	Vector84:
 368              	.LFB262:
 369              		.loc 1 235 0
 370              		.cfi_startproc
 371              		@ args = 0, pretend = 0, frame = 0
 372              		@ frame_needed = 0, uses_anonymous_args = 0
 373              		.loc 1 240 0
 374 0000 084B     		ldr	r3, .L56
 375              		.loc 1 242 0
 376 0002 0948     		ldr	r0, .L56+4
 377              		.loc 1 240 0
 378 0004 5968     		ldr	r1, [r3, #4]
 379              		.loc 1 242 0
 380 0006 026B     		ldr	r2, [r0, #48]
 381              		.loc 1 240 0
 382 0008 090C     		lsrs	r1, r1, #16
 383 000a 01F03D01 		and	r1, r1, #61
 384              	.LVL18:
 385              		.loc 1 235 0
 386 000e 10B5     		push	{r4, lr}
 387              		.cfi_def_cfa_offset 8
 388              		.cfi_offset 4, -8
 389              		.cfi_offset 14, -4
 390              		.loc 1 241 0
 391 0010 0C04     		lsls	r4, r1, #16
 392 0012 DC60     		str	r4, [r3, #12]
 393              		.loc 1 242 0
 394 0014 0AB1     		cbz	r2, .L51
 395              		.loc 1 243 0
 396 0016 406B     		ldr	r0, [r0, #52]
 397 0018 9047     		blx	r2
 398              	.LVL19:
 399              	.L51:
ARM GAS  /var/tmp//cc8pBBiV.s 			page 8


 400              		.loc 1 246 0
 401 001a BDE81040 		pop	{r4, lr}
 402              		.cfi_restore 14
 403              		.cfi_restore 4
 404              		.cfi_def_cfa_offset 0
 405              		.loc 1 245 0
 406 001e FFF7FEBF 		b	_port_irq_epilogue
 407              	.LVL20:
 408              	.L57:
 409 0022 00BF     		.align	2
 410              	.L56:
 411 0024 00600240 		.word	1073897472
 412 0028 00000000 		.word	.LANCHOR0
 413              		.cfi_endproc
 414              	.LFE262:
 415              		.size	Vector84, .-Vector84
 416              		.section	.text.VectorFC,"ax",%progbits
 417              		.align	1
 418              		.p2align 4,,15
 419              		.global	VectorFC
 420              		.syntax unified
 421              		.thumb
 422              		.thumb_func
 423              		.fpu fpv4-sp-d16
 424              		.type	VectorFC, %function
 425              	VectorFC:
 426              	.LFB263:
 427              		.loc 1 253 0
 428              		.cfi_startproc
 429              		@ args = 0, pretend = 0, frame = 0
 430              		@ frame_needed = 0, uses_anonymous_args = 0
 431              		.loc 1 258 0
 432 0000 084B     		ldr	r3, .L64
 433              		.loc 1 260 0
 434 0002 0948     		ldr	r0, .L64+4
 435              		.loc 1 258 0
 436 0004 5968     		ldr	r1, [r3, #4]
 437              		.loc 1 260 0
 438 0006 826B     		ldr	r2, [r0, #56]
 439              		.loc 1 258 0
 440 0008 890D     		lsrs	r1, r1, #22
 441 000a 01F03D01 		and	r1, r1, #61
 442              	.LVL21:
 443              		.loc 1 253 0
 444 000e 10B5     		push	{r4, lr}
 445              		.cfi_def_cfa_offset 8
 446              		.cfi_offset 4, -8
 447              		.cfi_offset 14, -4
 448              		.loc 1 259 0
 449 0010 8C05     		lsls	r4, r1, #22
 450 0012 DC60     		str	r4, [r3, #12]
 451              		.loc 1 260 0
 452 0014 0AB1     		cbz	r2, .L59
 453              		.loc 1 261 0
 454 0016 C06B     		ldr	r0, [r0, #60]
 455 0018 9047     		blx	r2
 456              	.LVL22:
ARM GAS  /var/tmp//cc8pBBiV.s 			page 9


 457              	.L59:
 458              		.loc 1 264 0
 459 001a BDE81040 		pop	{r4, lr}
 460              		.cfi_restore 14
 461              		.cfi_restore 4
 462              		.cfi_def_cfa_offset 0
 463              		.loc 1 263 0
 464 001e FFF7FEBF 		b	_port_irq_epilogue
 465              	.LVL23:
 466              	.L65:
 467 0022 00BF     		.align	2
 468              	.L64:
 469 0024 00600240 		.word	1073897472
 470 0028 00000000 		.word	.LANCHOR0
 471              		.cfi_endproc
 472              	.LFE263:
 473              		.size	VectorFC, .-VectorFC
 474              		.section	.text.Vector120,"ax",%progbits
 475              		.align	1
 476              		.p2align 4,,15
 477              		.global	Vector120
 478              		.syntax unified
 479              		.thumb
 480              		.thumb_func
 481              		.fpu fpv4-sp-d16
 482              		.type	Vector120, %function
 483              	Vector120:
 484              	.LFB264:
 485              		.loc 1 271 0
 486              		.cfi_startproc
 487              		@ args = 0, pretend = 0, frame = 0
 488              		@ frame_needed = 0, uses_anonymous_args = 0
 489 0000 08B5     		push	{r3, lr}
 490              		.cfi_def_cfa_offset 8
 491              		.cfi_offset 3, -8
 492              		.cfi_offset 14, -4
 493              		.loc 1 276 0
 494 0002 074B     		ldr	r3, .L72
 495              		.loc 1 278 0
 496 0004 0748     		ldr	r0, .L72+4
 497              		.loc 1 276 0
 498 0006 1968     		ldr	r1, [r3]
 499              		.loc 1 278 0
 500 0008 026C     		ldr	r2, [r0, #64]
 501              		.loc 1 276 0
 502 000a 01F03D01 		and	r1, r1, #61
 503              	.LVL24:
 504              		.loc 1 277 0
 505 000e 9960     		str	r1, [r3, #8]
 506              		.loc 1 278 0
 507 0010 0AB1     		cbz	r2, .L67
 508              		.loc 1 279 0
 509 0012 406C     		ldr	r0, [r0, #68]
 510 0014 9047     		blx	r2
 511              	.LVL25:
 512              	.L67:
 513              		.loc 1 282 0
ARM GAS  /var/tmp//cc8pBBiV.s 			page 10


 514 0016 BDE80840 		pop	{r3, lr}
 515              		.cfi_restore 14
 516              		.cfi_restore 3
 517              		.cfi_def_cfa_offset 0
 518              		.loc 1 281 0
 519 001a FFF7FEBF 		b	_port_irq_epilogue
 520              	.LVL26:
 521              	.L73:
 522 001e 00BF     		.align	2
 523              	.L72:
 524 0020 00640240 		.word	1073898496
 525 0024 00000000 		.word	.LANCHOR0
 526              		.cfi_endproc
 527              	.LFE264:
 528              		.size	Vector120, .-Vector120
 529              		.section	.text.Vector124,"ax",%progbits
 530              		.align	1
 531              		.p2align 4,,15
 532              		.global	Vector124
 533              		.syntax unified
 534              		.thumb
 535              		.thumb_func
 536              		.fpu fpv4-sp-d16
 537              		.type	Vector124, %function
 538              	Vector124:
 539              	.LFB265:
 540              		.loc 1 289 0
 541              		.cfi_startproc
 542              		@ args = 0, pretend = 0, frame = 0
 543              		@ frame_needed = 0, uses_anonymous_args = 0
 544              		.loc 1 294 0
 545 0000 084B     		ldr	r3, .L80
 546              		.loc 1 296 0
 547 0002 0948     		ldr	r0, .L80+4
 548              		.loc 1 294 0
 549 0004 1968     		ldr	r1, [r3]
 550              		.loc 1 296 0
 551 0006 826C     		ldr	r2, [r0, #72]
 552              		.loc 1 294 0
 553 0008 8909     		lsrs	r1, r1, #6
 554 000a 01F03D01 		and	r1, r1, #61
 555              	.LVL27:
 556              		.loc 1 289 0
 557 000e 10B5     		push	{r4, lr}
 558              		.cfi_def_cfa_offset 8
 559              		.cfi_offset 4, -8
 560              		.cfi_offset 14, -4
 561              		.loc 1 295 0
 562 0010 8C01     		lsls	r4, r1, #6
 563 0012 9C60     		str	r4, [r3, #8]
 564              		.loc 1 296 0
 565 0014 0AB1     		cbz	r2, .L75
 566              		.loc 1 297 0
 567 0016 C06C     		ldr	r0, [r0, #76]
 568 0018 9047     		blx	r2
 569              	.LVL28:
 570              	.L75:
ARM GAS  /var/tmp//cc8pBBiV.s 			page 11


 571              		.loc 1 300 0
 572 001a BDE81040 		pop	{r4, lr}
 573              		.cfi_restore 14
 574              		.cfi_restore 4
 575              		.cfi_def_cfa_offset 0
 576              		.loc 1 299 0
 577 001e FFF7FEBF 		b	_port_irq_epilogue
 578              	.LVL29:
 579              	.L81:
 580 0022 00BF     		.align	2
 581              	.L80:
 582 0024 00640240 		.word	1073898496
 583 0028 00000000 		.word	.LANCHOR0
 584              		.cfi_endproc
 585              	.LFE265:
 586              		.size	Vector124, .-Vector124
 587              		.section	.text.Vector128,"ax",%progbits
 588              		.align	1
 589              		.p2align 4,,15
 590              		.global	Vector128
 591              		.syntax unified
 592              		.thumb
 593              		.thumb_func
 594              		.fpu fpv4-sp-d16
 595              		.type	Vector128, %function
 596              	Vector128:
 597              	.LFB266:
 598              		.loc 1 307 0
 599              		.cfi_startproc
 600              		@ args = 0, pretend = 0, frame = 0
 601              		@ frame_needed = 0, uses_anonymous_args = 0
 602              		.loc 1 312 0
 603 0000 084B     		ldr	r3, .L88
 604              		.loc 1 314 0
 605 0002 0948     		ldr	r0, .L88+4
 606              		.loc 1 312 0
 607 0004 1968     		ldr	r1, [r3]
 608              		.loc 1 314 0
 609 0006 026D     		ldr	r2, [r0, #80]
 610              		.loc 1 312 0
 611 0008 090C     		lsrs	r1, r1, #16
 612 000a 01F03D01 		and	r1, r1, #61
 613              	.LVL30:
 614              		.loc 1 307 0
 615 000e 10B5     		push	{r4, lr}
 616              		.cfi_def_cfa_offset 8
 617              		.cfi_offset 4, -8
 618              		.cfi_offset 14, -4
 619              		.loc 1 313 0
 620 0010 0C04     		lsls	r4, r1, #16
 621 0012 9C60     		str	r4, [r3, #8]
 622              		.loc 1 314 0
 623 0014 0AB1     		cbz	r2, .L83
 624              		.loc 1 315 0
 625 0016 406D     		ldr	r0, [r0, #84]
 626 0018 9047     		blx	r2
 627              	.LVL31:
ARM GAS  /var/tmp//cc8pBBiV.s 			page 12


 628              	.L83:
 629              		.loc 1 318 0
 630 001a BDE81040 		pop	{r4, lr}
 631              		.cfi_restore 14
 632              		.cfi_restore 4
 633              		.cfi_def_cfa_offset 0
 634              		.loc 1 317 0
 635 001e FFF7FEBF 		b	_port_irq_epilogue
 636              	.LVL32:
 637              	.L89:
 638 0022 00BF     		.align	2
 639              	.L88:
 640 0024 00640240 		.word	1073898496
 641 0028 00000000 		.word	.LANCHOR0
 642              		.cfi_endproc
 643              	.LFE266:
 644              		.size	Vector128, .-Vector128
 645              		.section	.text.Vector12C,"ax",%progbits
 646              		.align	1
 647              		.p2align 4,,15
 648              		.global	Vector12C
 649              		.syntax unified
 650              		.thumb
 651              		.thumb_func
 652              		.fpu fpv4-sp-d16
 653              		.type	Vector12C, %function
 654              	Vector12C:
 655              	.LFB267:
 656              		.loc 1 325 0
 657              		.cfi_startproc
 658              		@ args = 0, pretend = 0, frame = 0
 659              		@ frame_needed = 0, uses_anonymous_args = 0
 660              		.loc 1 330 0
 661 0000 084B     		ldr	r3, .L96
 662              		.loc 1 332 0
 663 0002 0948     		ldr	r0, .L96+4
 664              		.loc 1 330 0
 665 0004 1968     		ldr	r1, [r3]
 666              		.loc 1 332 0
 667 0006 826D     		ldr	r2, [r0, #88]
 668              		.loc 1 330 0
 669 0008 890D     		lsrs	r1, r1, #22
 670 000a 01F03D01 		and	r1, r1, #61
 671              	.LVL33:
 672              		.loc 1 325 0
 673 000e 10B5     		push	{r4, lr}
 674              		.cfi_def_cfa_offset 8
 675              		.cfi_offset 4, -8
 676              		.cfi_offset 14, -4
 677              		.loc 1 331 0
 678 0010 8C05     		lsls	r4, r1, #22
 679 0012 9C60     		str	r4, [r3, #8]
 680              		.loc 1 332 0
 681 0014 0AB1     		cbz	r2, .L91
 682              		.loc 1 333 0
 683 0016 C06D     		ldr	r0, [r0, #92]
 684 0018 9047     		blx	r2
ARM GAS  /var/tmp//cc8pBBiV.s 			page 13


 685              	.LVL34:
 686              	.L91:
 687              		.loc 1 336 0
 688 001a BDE81040 		pop	{r4, lr}
 689              		.cfi_restore 14
 690              		.cfi_restore 4
 691              		.cfi_def_cfa_offset 0
 692              		.loc 1 335 0
 693 001e FFF7FEBF 		b	_port_irq_epilogue
 694              	.LVL35:
 695              	.L97:
 696 0022 00BF     		.align	2
 697              	.L96:
 698 0024 00640240 		.word	1073898496
 699 0028 00000000 		.word	.LANCHOR0
 700              		.cfi_endproc
 701              	.LFE267:
 702              		.size	Vector12C, .-Vector12C
 703              		.section	.text.Vector130,"ax",%progbits
 704              		.align	1
 705              		.p2align 4,,15
 706              		.global	Vector130
 707              		.syntax unified
 708              		.thumb
 709              		.thumb_func
 710              		.fpu fpv4-sp-d16
 711              		.type	Vector130, %function
 712              	Vector130:
 713              	.LFB268:
 714              		.loc 1 343 0
 715              		.cfi_startproc
 716              		@ args = 0, pretend = 0, frame = 0
 717              		@ frame_needed = 0, uses_anonymous_args = 0
 718 0000 08B5     		push	{r3, lr}
 719              		.cfi_def_cfa_offset 8
 720              		.cfi_offset 3, -8
 721              		.cfi_offset 14, -4
 722              		.loc 1 348 0
 723 0002 074B     		ldr	r3, .L104
 724              		.loc 1 350 0
 725 0004 0748     		ldr	r0, .L104+4
 726              		.loc 1 348 0
 727 0006 5968     		ldr	r1, [r3, #4]
 728              		.loc 1 350 0
 729 0008 026E     		ldr	r2, [r0, #96]
 730              		.loc 1 348 0
 731 000a 01F03D01 		and	r1, r1, #61
 732              	.LVL36:
 733              		.loc 1 349 0
 734 000e D960     		str	r1, [r3, #12]
 735              		.loc 1 350 0
 736 0010 0AB1     		cbz	r2, .L99
 737              		.loc 1 351 0
 738 0012 406E     		ldr	r0, [r0, #100]
 739 0014 9047     		blx	r2
 740              	.LVL37:
 741              	.L99:
ARM GAS  /var/tmp//cc8pBBiV.s 			page 14


 742              		.loc 1 354 0
 743 0016 BDE80840 		pop	{r3, lr}
 744              		.cfi_restore 14
 745              		.cfi_restore 3
 746              		.cfi_def_cfa_offset 0
 747              		.loc 1 353 0
 748 001a FFF7FEBF 		b	_port_irq_epilogue
 749              	.LVL38:
 750              	.L105:
 751 001e 00BF     		.align	2
 752              	.L104:
 753 0020 00640240 		.word	1073898496
 754 0024 00000000 		.word	.LANCHOR0
 755              		.cfi_endproc
 756              	.LFE268:
 757              		.size	Vector130, .-Vector130
 758              		.section	.text.Vector150,"ax",%progbits
 759              		.align	1
 760              		.p2align 4,,15
 761              		.global	Vector150
 762              		.syntax unified
 763              		.thumb
 764              		.thumb_func
 765              		.fpu fpv4-sp-d16
 766              		.type	Vector150, %function
 767              	Vector150:
 768              	.LFB269:
 769              		.loc 1 361 0
 770              		.cfi_startproc
 771              		@ args = 0, pretend = 0, frame = 0
 772              		@ frame_needed = 0, uses_anonymous_args = 0
 773              		.loc 1 366 0
 774 0000 084B     		ldr	r3, .L112
 775              		.loc 1 368 0
 776 0002 0948     		ldr	r0, .L112+4
 777              		.loc 1 366 0
 778 0004 5968     		ldr	r1, [r3, #4]
 779              		.loc 1 368 0
 780 0006 826E     		ldr	r2, [r0, #104]
 781              		.loc 1 366 0
 782 0008 8909     		lsrs	r1, r1, #6
 783 000a 01F03D01 		and	r1, r1, #61
 784              	.LVL39:
 785              		.loc 1 361 0
 786 000e 10B5     		push	{r4, lr}
 787              		.cfi_def_cfa_offset 8
 788              		.cfi_offset 4, -8
 789              		.cfi_offset 14, -4
 790              		.loc 1 367 0
 791 0010 8C01     		lsls	r4, r1, #6
 792 0012 DC60     		str	r4, [r3, #12]
 793              		.loc 1 368 0
 794 0014 0AB1     		cbz	r2, .L107
 795              		.loc 1 369 0
 796 0016 C06E     		ldr	r0, [r0, #108]
 797 0018 9047     		blx	r2
 798              	.LVL40:
ARM GAS  /var/tmp//cc8pBBiV.s 			page 15


 799              	.L107:
 800              		.loc 1 372 0
 801 001a BDE81040 		pop	{r4, lr}
 802              		.cfi_restore 14
 803              		.cfi_restore 4
 804              		.cfi_def_cfa_offset 0
 805              		.loc 1 371 0
 806 001e FFF7FEBF 		b	_port_irq_epilogue
 807              	.LVL41:
 808              	.L113:
 809 0022 00BF     		.align	2
 810              	.L112:
 811 0024 00640240 		.word	1073898496
 812 0028 00000000 		.word	.LANCHOR0
 813              		.cfi_endproc
 814              	.LFE269:
 815              		.size	Vector150, .-Vector150
 816              		.section	.text.Vector154,"ax",%progbits
 817              		.align	1
 818              		.p2align 4,,15
 819              		.global	Vector154
 820              		.syntax unified
 821              		.thumb
 822              		.thumb_func
 823              		.fpu fpv4-sp-d16
 824              		.type	Vector154, %function
 825              	Vector154:
 826              	.LFB270:
 827              		.loc 1 379 0
 828              		.cfi_startproc
 829              		@ args = 0, pretend = 0, frame = 0
 830              		@ frame_needed = 0, uses_anonymous_args = 0
 831              		.loc 1 384 0
 832 0000 084B     		ldr	r3, .L120
 833              		.loc 1 386 0
 834 0002 0948     		ldr	r0, .L120+4
 835              		.loc 1 384 0
 836 0004 5968     		ldr	r1, [r3, #4]
 837              		.loc 1 386 0
 838 0006 026F     		ldr	r2, [r0, #112]
 839              		.loc 1 384 0
 840 0008 090C     		lsrs	r1, r1, #16
 841 000a 01F03D01 		and	r1, r1, #61
 842              	.LVL42:
 843              		.loc 1 379 0
 844 000e 10B5     		push	{r4, lr}
 845              		.cfi_def_cfa_offset 8
 846              		.cfi_offset 4, -8
 847              		.cfi_offset 14, -4
 848              		.loc 1 385 0
 849 0010 0C04     		lsls	r4, r1, #16
 850 0012 DC60     		str	r4, [r3, #12]
 851              		.loc 1 386 0
 852 0014 0AB1     		cbz	r2, .L115
 853              		.loc 1 387 0
 854 0016 406F     		ldr	r0, [r0, #116]
 855 0018 9047     		blx	r2
ARM GAS  /var/tmp//cc8pBBiV.s 			page 16


 856              	.LVL43:
 857              	.L115:
 858              		.loc 1 390 0
 859 001a BDE81040 		pop	{r4, lr}
 860              		.cfi_restore 14
 861              		.cfi_restore 4
 862              		.cfi_def_cfa_offset 0
 863              		.loc 1 389 0
 864 001e FFF7FEBF 		b	_port_irq_epilogue
 865              	.LVL44:
 866              	.L121:
 867 0022 00BF     		.align	2
 868              	.L120:
 869 0024 00640240 		.word	1073898496
 870 0028 00000000 		.word	.LANCHOR0
 871              		.cfi_endproc
 872              	.LFE270:
 873              		.size	Vector154, .-Vector154
 874              		.section	.text.Vector158,"ax",%progbits
 875              		.align	1
 876              		.p2align 4,,15
 877              		.global	Vector158
 878              		.syntax unified
 879              		.thumb
 880              		.thumb_func
 881              		.fpu fpv4-sp-d16
 882              		.type	Vector158, %function
 883              	Vector158:
 884              	.LFB271:
 885              		.loc 1 397 0
 886              		.cfi_startproc
 887              		@ args = 0, pretend = 0, frame = 0
 888              		@ frame_needed = 0, uses_anonymous_args = 0
 889              		.loc 1 402 0
 890 0000 084B     		ldr	r3, .L128
 891              		.loc 1 404 0
 892 0002 0948     		ldr	r0, .L128+4
 893              		.loc 1 402 0
 894 0004 5968     		ldr	r1, [r3, #4]
 895              		.loc 1 404 0
 896 0006 826F     		ldr	r2, [r0, #120]
 897              		.loc 1 402 0
 898 0008 890D     		lsrs	r1, r1, #22
 899 000a 01F03D01 		and	r1, r1, #61
 900              	.LVL45:
 901              		.loc 1 397 0
 902 000e 10B5     		push	{r4, lr}
 903              		.cfi_def_cfa_offset 8
 904              		.cfi_offset 4, -8
 905              		.cfi_offset 14, -4
 906              		.loc 1 403 0
 907 0010 8C05     		lsls	r4, r1, #22
 908 0012 DC60     		str	r4, [r3, #12]
 909              		.loc 1 404 0
 910 0014 0AB1     		cbz	r2, .L123
 911              		.loc 1 405 0
 912 0016 C06F     		ldr	r0, [r0, #124]
ARM GAS  /var/tmp//cc8pBBiV.s 			page 17


 913 0018 9047     		blx	r2
 914              	.LVL46:
 915              	.L123:
 916              		.loc 1 408 0
 917 001a BDE81040 		pop	{r4, lr}
 918              		.cfi_restore 14
 919              		.cfi_restore 4
 920              		.cfi_def_cfa_offset 0
 921              		.loc 1 407 0
 922 001e FFF7FEBF 		b	_port_irq_epilogue
 923              	.LVL47:
 924              	.L129:
 925 0022 00BF     		.align	2
 926              	.L128:
 927 0024 00640240 		.word	1073898496
 928 0028 00000000 		.word	.LANCHOR0
 929              		.cfi_endproc
 930              	.LFE271:
 931              		.size	Vector158, .-Vector158
 932              		.section	.text.dmaInit,"ax",%progbits
 933              		.align	1
 934              		.p2align 4,,15
 935              		.global	dmaInit
 936              		.syntax unified
 937              		.thumb
 938              		.thumb_func
 939              		.fpu fpv4-sp-d16
 940              		.type	dmaInit, %function
 941              	dmaInit:
 942              	.LFB272:
 943              		.loc 1 419 0
 944              		.cfi_startproc
 945              		@ args = 0, pretend = 0, frame = 0
 946              		@ frame_needed = 0, uses_anonymous_args = 0
 947              		@ link register save eliminated.
 948              		.loc 1 422 0
 949 0000 0E49     		ldr	r1, .L136
 950 0002 0F4A     		ldr	r2, .L136+4
 951 0004 0F48     		ldr	r0, .L136+8
 952 0006 0023     		movs	r3, #0
 953              		.loc 1 419 0
 954 0008 10B4     		push	{r4}
 955              		.cfi_def_cfa_offset 4
 956              		.cfi_offset 4, -4
 957              		.loc 1 422 0
 958 000a 0B60     		str	r3, [r1]
 959              	.LVL48:
 960 000c 0E4C     		ldr	r4, .L136+12
 961              		.loc 1 424 0
 962 000e 1946     		mov	r1, r3
 963 0010 01E0     		b	.L132
 964              	.LVL49:
 965              	.L135:
 966 0012 52F80C0C 		ldr	r0, [r2, #-12]
 967              	.LVL50:
 968              	.L132:
 969              		.loc 1 424 0 is_stmt 0 discriminator 3
ARM GAS  /var/tmp//cc8pBBiV.s 			page 18


 970 0016 0160     		str	r1, [r0]
 971              		.loc 1 425 0 is_stmt 1 discriminator 3
 972 0018 44F83310 		str	r1, [r4, r3, lsl #3]
 973              		.loc 1 423 0 discriminator 3
 974 001c 0133     		adds	r3, r3, #1
 975              	.LVL51:
 976 001e 102B     		cmp	r3, #16
 977 0020 02F10C02 		add	r2, r2, #12
 978 0024 F5D1     		bne	.L135
 979              		.loc 1 427 0
 980 0026 0949     		ldr	r1, .L136+16
 981              		.loc 1 429 0
 982 0028 094A     		ldr	r2, .L136+20
 983              		.loc 1 431 0
 984 002a 5DF8044B 		ldr	r4, [sp], #4
 985              		.cfi_restore 4
 986              		.cfi_def_cfa_offset 0
 987              		.loc 1 427 0
 988 002e 4FF0FF33 		mov	r3, #-1
 989              	.LVL52:
 990 0032 8B60     		str	r3, [r1, #8]
 991              		.loc 1 428 0
 992 0034 CB60     		str	r3, [r1, #12]
 993              		.loc 1 429 0
 994 0036 9360     		str	r3, [r2, #8]
 995              		.loc 1 430 0
 996 0038 D360     		str	r3, [r2, #12]
 997              		.loc 1 431 0
 998 003a 7047     		bx	lr
 999              	.L137:
 1000              		.align	2
 1001              	.L136:
 1002 003c 00000000 		.word	.LANCHOR1
 1003 0040 0C000000 		.word	.LANCHOR2+12
 1004 0044 10600240 		.word	1073897488
 1005 0048 00000000 		.word	.LANCHOR0
 1006 004c 00600240 		.word	1073897472
 1007 0050 00640240 		.word	1073898496
 1008              		.cfi_endproc
 1009              	.LFE272:
 1010              		.size	dmaInit, .-dmaInit
 1011              		.section	.text.dmaStreamAllocate,"ax",%progbits
 1012              		.align	1
 1013              		.p2align 4,,15
 1014              		.global	dmaStreamAllocate
 1015              		.syntax unified
 1016              		.thumb
 1017              		.thumb_func
 1018              		.fpu fpv4-sp-d16
 1019              		.type	dmaStreamAllocate, %function
 1020              	dmaStreamAllocate:
 1021              	.LFB273:
 1022              		.loc 1 460 0
 1023              		.cfi_startproc
 1024              		@ args = 0, pretend = 0, frame = 0
 1025              		@ frame_needed = 0, uses_anonymous_args = 0
 1026              	.LVL53:
ARM GAS  /var/tmp//cc8pBBiV.s 			page 19


 1027 0000 F8B5     		push	{r3, r4, r5, r6, r7, lr}
 1028              		.cfi_def_cfa_offset 24
 1029              		.cfi_offset 3, -24
 1030              		.cfi_offset 4, -20
 1031              		.cfi_offset 5, -16
 1032              		.cfi_offset 6, -12
 1033              		.cfi_offset 7, -8
 1034              		.cfi_offset 14, -4
 1035              		.loc 1 465 0
 1036 0002 204F     		ldr	r7, .L154
 1037 0004 467A     		ldrb	r6, [r0, #9]	@ zero_extendqisi2
 1038 0006 D7F800E0 		ldr	lr, [r7]
 1039 000a 0124     		movs	r4, #1
 1040 000c 04FA06F5 		lsl	r5, r4, r6
 1041 0010 15EA0E0F 		tst	r5, lr
 1042 0014 31D1     		bne	.L143
 1043              		.loc 1 469 0
 1044 0016 1C4C     		ldr	r4, .L154+4
 1045              		.loc 1 471 0
 1046 0018 45EA0E05 		orr	r5, r5, lr
 1047              		.loc 1 470 0
 1048 001c 04EBC60E 		add	lr, r4, r6, lsl #3
 1049              		.loc 1 474 0
 1050 0020 15F0FF0F 		tst	r5, #255
 1051              		.loc 1 471 0
 1052 0024 3D60     		str	r5, [r7]
 1053              		.loc 1 469 0
 1054 0026 44F83620 		str	r2, [r4, r6, lsl #3]
 1055              		.loc 1 470 0
 1056 002a CEF80430 		str	r3, [lr, #4]
 1057              		.loc 1 474 0
 1058 002e 04D0     		beq	.L140
 1059              		.loc 1 475 0
 1060 0030 164C     		ldr	r4, .L154+8
 1061 0032 236B     		ldr	r3, [r4, #48]
 1062              	.LVL54:
 1063 0034 43F40013 		orr	r3, r3, #2097152
 1064 0038 2363     		str	r3, [r4, #48]
 1065              	.L140:
 1066              		.loc 1 476 0
 1067 003a 15F47F4F 		tst	r5, #65280
 1068 003e 16D1     		bne	.L153
 1069              	.L141:
 1070              		.loc 1 480 0
 1071 0040 0568     		ldr	r5, [r0]
 1072 0042 2B68     		ldr	r3, [r5]
 1073 0044 23F01F03 		bic	r3, r3, #31
 1074 0048 2B60     		str	r3, [r5]
 1075              	.L142:
 1076              		.loc 1 480 0 is_stmt 0 discriminator 2
 1077 004a 2C68     		ldr	r4, [r5]
 1078 004c 14F00104 		ands	r4, r4, #1
 1079 0050 FBD1     		bne	.L142
 1080              		.loc 1 480 0 discriminator 3
 1081 0052 077A     		ldrb	r7, [r0, #8]	@ zero_extendqisi2
 1082 0054 4668     		ldr	r6, [r0, #4]
 1083 0056 3D23     		movs	r3, #61
ARM GAS  /var/tmp//cc8pBBiV.s 			page 20


 1084 0058 BB40     		lsls	r3, r3, r7
 1085              		.loc 1 482 0 is_stmt 1 discriminator 3
 1086 005a 2127     		movs	r7, #33
 1087              		.loc 1 480 0 discriminator 3
 1088 005c 3360     		str	r3, [r6]
 1089              		.loc 1 481 0 discriminator 3
 1090 005e 2C60     		str	r4, [r5]
 1091              		.loc 1 482 0 discriminator 3
 1092 0060 6F61     		str	r7, [r5, #20]
 1093              		.loc 1 485 0 discriminator 3
 1094 0062 62B1     		cbz	r2, .L144
 1095              		.loc 1 486 0
 1096 0064 807A     		ldrb	r0, [r0, #10]	@ zero_extendqisi2
 1097              	.LVL55:
 1098 0066 FFF7FEFF 		bl	nvicEnableVector
 1099              	.LVL56:
 1100              		.loc 1 488 0
 1101 006a 2046     		mov	r0, r4
 1102 006c F8BD     		pop	{r3, r4, r5, r6, r7, pc}
 1103              	.LVL57:
 1104              	.L153:
 1105              		.loc 1 477 0
 1106 006e 074C     		ldr	r4, .L154+8
 1107 0070 236B     		ldr	r3, [r4, #48]
 1108 0072 43F48003 		orr	r3, r3, #4194304
 1109 0076 2363     		str	r3, [r4, #48]
 1110 0078 E2E7     		b	.L141
 1111              	.LVL58:
 1112              	.L143:
 1113              		.loc 1 466 0
 1114 007a 2046     		mov	r0, r4
 1115              	.LVL59:
 1116 007c F8BD     		pop	{r3, r4, r5, r6, r7, pc}
 1117              	.LVL60:
 1118              	.L144:
 1119              		.loc 1 488 0
 1120 007e 1046     		mov	r0, r2
 1121              	.LVL61:
 1122              		.loc 1 489 0
 1123 0080 F8BD     		pop	{r3, r4, r5, r6, r7, pc}
 1124              	.L155:
 1125 0082 00BF     		.align	2
 1126              	.L154:
 1127 0084 00000000 		.word	.LANCHOR1
 1128 0088 00000000 		.word	.LANCHOR0
 1129 008c 00380240 		.word	1073887232
 1130              		.cfi_endproc
 1131              	.LFE273:
 1132              		.size	dmaStreamAllocate, .-dmaStreamAllocate
 1133              		.section	.text.dmaStreamRelease,"ax",%progbits
 1134              		.align	1
 1135              		.p2align 4,,15
 1136              		.global	dmaStreamRelease
 1137              		.syntax unified
 1138              		.thumb
 1139              		.thumb_func
 1140              		.fpu fpv4-sp-d16
ARM GAS  /var/tmp//cc8pBBiV.s 			page 21


 1141              		.type	dmaStreamRelease, %function
 1142              	dmaStreamRelease:
 1143              	.LFB274:
 1144              		.loc 1 504 0
 1145              		.cfi_startproc
 1146              		@ args = 0, pretend = 0, frame = 0
 1147              		@ frame_needed = 0, uses_anonymous_args = 0
 1148              	.LVL62:
 1149 0000 10B5     		push	{r4, lr}
 1150              		.cfi_def_cfa_offset 8
 1151              		.cfi_offset 4, -8
 1152              		.cfi_offset 14, -4
 1153              		.loc 1 504 0
 1154 0002 0446     		mov	r4, r0
 1155              		.loc 1 513 0
 1156 0004 807A     		ldrb	r0, [r0, #10]	@ zero_extendqisi2
 1157              	.LVL63:
 1158 0006 FFF7FEFF 		bl	nvicDisableVector
 1159              	.LVL64:
 1160              		.loc 1 516 0
 1161 000a 0C49     		ldr	r1, .L160
 1162 000c 607A     		ldrb	r0, [r4, #9]	@ zero_extendqisi2
 1163 000e 0B68     		ldr	r3, [r1]
 1164 0010 0122     		movs	r2, #1
 1165 0012 8240     		lsls	r2, r2, r0
 1166 0014 23EA0203 		bic	r3, r3, r2
 1167              		.loc 1 519 0
 1168 0018 13F0FF0F 		tst	r3, #255
 1169              		.loc 1 516 0
 1170 001c 0B60     		str	r3, [r1]
 1171              		.loc 1 519 0
 1172 001e 04D1     		bne	.L157
 1173              		.loc 1 520 0
 1174 0020 0749     		ldr	r1, .L160+4
 1175 0022 0A6B     		ldr	r2, [r1, #48]
 1176 0024 22F40012 		bic	r2, r2, #2097152
 1177 0028 0A63     		str	r2, [r1, #48]
 1178              	.L157:
 1179              		.loc 1 521 0
 1180 002a 13F47F4F 		tst	r3, #65280
 1181 002e 04D1     		bne	.L156
 1182              		.loc 1 522 0
 1183 0030 034A     		ldr	r2, .L160+4
 1184 0032 136B     		ldr	r3, [r2, #48]
 1185 0034 23F48003 		bic	r3, r3, #4194304
 1186 0038 1363     		str	r3, [r2, #48]
 1187              	.L156:
 1188 003a 10BD     		pop	{r4, pc}
 1189              	.LVL65:
 1190              	.L161:
 1191              		.align	2
 1192              	.L160:
 1193 003c 00000000 		.word	.LANCHOR1
 1194 0040 00380240 		.word	1073887232
 1195              		.cfi_endproc
 1196              	.LFE274:
 1197              		.size	dmaStreamRelease, .-dmaStreamRelease
ARM GAS  /var/tmp//cc8pBBiV.s 			page 22


 1198              		.global	_stm32_dma_streams
 1199              		.section	.bss.dma_isr_redir,"aw",%nobits
 1200              		.align	2
 1201              		.set	.LANCHOR0,. + 0
 1202              		.type	dma_isr_redir, %object
 1203              		.size	dma_isr_redir, 128
 1204              	dma_isr_redir:
 1205 0000 00000000 		.space	128
 1205      00000000 
 1205      00000000 
 1205      00000000 
 1205      00000000 
 1206              		.section	.bss.dma_streams_mask,"aw",%nobits
 1207              		.align	2
 1208              		.set	.LANCHOR1,. + 0
 1209              		.type	dma_streams_mask, %object
 1210              		.size	dma_streams_mask, 4
 1211              	dma_streams_mask:
 1212 0000 00000000 		.space	4
 1213              		.section	.rodata._stm32_dma_streams,"a",%progbits
 1214              		.align	2
 1215              		.set	.LANCHOR2,. + 0
 1216              		.type	_stm32_dma_streams, %object
 1217              		.size	_stm32_dma_streams, 192
 1218              	_stm32_dma_streams:
 1219 0000 10600240 		.word	1073897488
 1220 0004 08600240 		.word	1073897480
 1221 0008 00       		.byte	0
 1222 0009 00       		.byte	0
 1223 000a 0B       		.byte	11
 1224 000b 00       		.space	1
 1225 000c 28600240 		.word	1073897512
 1226 0010 08600240 		.word	1073897480
 1227 0014 06       		.byte	6
 1228 0015 01       		.byte	1
 1229 0016 0C       		.byte	12
 1230 0017 00       		.space	1
 1231 0018 40600240 		.word	1073897536
 1232 001c 08600240 		.word	1073897480
 1233 0020 10       		.byte	16
 1234 0021 02       		.byte	2
 1235 0022 0D       		.byte	13
 1236 0023 00       		.space	1
 1237 0024 58600240 		.word	1073897560
 1238 0028 08600240 		.word	1073897480
 1239 002c 16       		.byte	22
 1240 002d 03       		.byte	3
 1241 002e 0E       		.byte	14
 1242 002f 00       		.space	1
 1243 0030 70600240 		.word	1073897584
 1244 0034 0C600240 		.word	1073897484
 1245 0038 00       		.byte	0
 1246 0039 04       		.byte	4
 1247 003a 0F       		.byte	15
 1248 003b 00       		.space	1
 1249 003c 88600240 		.word	1073897608
 1250 0040 0C600240 		.word	1073897484
ARM GAS  /var/tmp//cc8pBBiV.s 			page 23


 1251 0044 06       		.byte	6
 1252 0045 05       		.byte	5
 1253 0046 10       		.byte	16
 1254 0047 00       		.space	1
 1255 0048 A0600240 		.word	1073897632
 1256 004c 0C600240 		.word	1073897484
 1257 0050 10       		.byte	16
 1258 0051 06       		.byte	6
 1259 0052 11       		.byte	17
 1260 0053 00       		.space	1
 1261 0054 B8600240 		.word	1073897656
 1262 0058 0C600240 		.word	1073897484
 1263 005c 16       		.byte	22
 1264 005d 07       		.byte	7
 1265 005e 2F       		.byte	47
 1266 005f 00       		.space	1
 1267 0060 10640240 		.word	1073898512
 1268 0064 08640240 		.word	1073898504
 1269 0068 00       		.byte	0
 1270 0069 08       		.byte	8
 1271 006a 38       		.byte	56
 1272 006b 00       		.space	1
 1273 006c 28640240 		.word	1073898536
 1274 0070 08640240 		.word	1073898504
 1275 0074 06       		.byte	6
 1276 0075 09       		.byte	9
 1277 0076 39       		.byte	57
 1278 0077 00       		.space	1
 1279 0078 40640240 		.word	1073898560
 1280 007c 08640240 		.word	1073898504
 1281 0080 10       		.byte	16
 1282 0081 0A       		.byte	10
 1283 0082 3A       		.byte	58
 1284 0083 00       		.space	1
 1285 0084 58640240 		.word	1073898584
 1286 0088 08640240 		.word	1073898504
 1287 008c 16       		.byte	22
 1288 008d 0B       		.byte	11
 1289 008e 3B       		.byte	59
 1290 008f 00       		.space	1
 1291 0090 70640240 		.word	1073898608
 1292 0094 0C640240 		.word	1073898508
 1293 0098 00       		.byte	0
 1294 0099 0C       		.byte	12
 1295 009a 3C       		.byte	60
 1296 009b 00       		.space	1
 1297 009c 88640240 		.word	1073898632
 1298 00a0 0C640240 		.word	1073898508
 1299 00a4 06       		.byte	6
 1300 00a5 0D       		.byte	13
 1301 00a6 44       		.byte	68
 1302 00a7 00       		.space	1
 1303 00a8 A0640240 		.word	1073898656
 1304 00ac 0C640240 		.word	1073898508
 1305 00b0 10       		.byte	16
 1306 00b1 0E       		.byte	14
 1307 00b2 45       		.byte	69
ARM GAS  /var/tmp//cc8pBBiV.s 			page 24


 1308 00b3 00       		.space	1
 1309 00b4 B8640240 		.word	1073898680
 1310 00b8 0C640240 		.word	1073898508
 1311 00bc 16       		.byte	22
 1312 00bd 0F       		.byte	15
 1313 00be 46       		.byte	70
 1314 00bf 00       		.space	1
 1315              		.text
 1316              	.Letext0:
 1317              		.file 2 "/usr/local/gcc_arm/gcc-arm-none-eabi-6-2017-q2-update/lib/gcc/arm-none-eabi/6.3.1/include
 1318              		.file 3 "/usr/local/gcc_arm/gcc-arm-none-eabi-6-2017-q2-update/arm-none-eabi/include/machine/_defa
 1319              		.file 4 "/usr/local/gcc_arm/gcc-arm-none-eabi-6-2017-q2-update/arm-none-eabi/include/sys/_stdint.h
 1320              		.file 5 "ChibiOS_3.0.2/os/rt/ports/ARMCMx/compilers/GCC/chtypes.h"
 1321              		.file 6 "ChibiOS_3.0.2/os/rt/include/chsystypes.h"
 1322              		.file 7 "ChibiOS_3.0.2/os/rt/include/chschd.h"
 1323              		.file 8 "ChibiOS_3.0.2/os/ext/CMSIS/include/core_cm4.h"
 1324              		.file 9 "ChibiOS_3.0.2/os/ext/CMSIS/ST/system_stm32f4xx.h"
 1325              		.file 10 "ChibiOS_3.0.2/os/ext/CMSIS/ST/stm32f407xx.h"
 1326              		.file 11 "ChibiOS_3.0.2/os/rt/ports/ARMCMx/chcore.h"
 1327              		.file 12 "ChibiOS_3.0.2/os/rt/ports/ARMCMx/chcore_v7m.h"
 1328              		.file 13 "ChibiOS_3.0.2/os/rt/include/chtm.h"
 1329              		.file 14 "ChibiOS_3.0.2/os/rt/include/chsem.h"
 1330              		.file 15 "ChibiOS_3.0.2/os/rt/include/chmtx.h"
 1331              		.file 16 "ChibiOS_3.0.2/os/rt/include/chregistry.h"
 1332              		.file 17 "ChibiOS_3.0.2/os/rt/include/chevents.h"
 1333              		.file 18 "ChibiOS_3.0.2/os/rt/include/chqueues.h"
 1334              		.file 19 "./conf_general.h"
 1335              		.file 20 "ChibiOS_3.0.2/os/hal/ports/STM32/STM32F4xx/stm32_dma.h"
 1336              		.file 21 "ChibiOS_3.0.2/os/hal/ports/STM32/LLD/GPIOv2/pal_lld.h"
 1337              		.file 22 "ChibiOS_3.0.2/os/hal/include/can.h"
 1338              		.file 23 "ChibiOS_3.0.2/os/hal/ports/STM32/LLD/can_lld.h"
 1339              		.file 24 "ChibiOS_3.0.2/os/hal/include/i2c.h"
 1340              		.file 25 "ChibiOS_3.0.2/os/hal/ports/STM32/LLD/I2Cv1/i2c_lld.h"
 1341              		.file 26 "ChibiOS_3.0.2/os/hal/include/icu.h"
 1342              		.file 27 "ChibiOS_3.0.2/os/hal/ports/STM32/LLD/TIMv1/icu_lld.h"
 1343              		.file 28 "ChibiOS_3.0.2/os/hal/ports/STM32/LLD/TIMv1/stm32_tim.h"
 1344              		.file 29 "ChibiOS_3.0.2/os/hal/include/spi.h"
 1345              		.file 30 "ChibiOS_3.0.2/os/hal/ports/STM32/LLD/SPIv1/spi_lld.h"
 1346              		.file 31 "ChibiOS_3.0.2/os/hal/include/uart.h"
 1347              		.file 32 "ChibiOS_3.0.2/os/hal/ports/STM32/LLD/USARTv1/uart_lld.h"
 1348              		.file 33 "ChibiOS_3.0.2/os/hal/include/usb.h"
 1349              		.file 34 "ChibiOS_3.0.2/os/hal/ports/STM32/LLD/OTGv1/usb_lld.h"
 1350              		.file 35 "ChibiOS_3.0.2/os/hal/ports/STM32/LLD/OTGv1/stm32_otg.h"
 1351              		.file 36 "ChibiOS_3.0.2/os/hal/ports/common/ARMCMx/nvic.h"