ARM GAS  C:\Users\Grillmo\AppData\Local\Temp\ccH8bAZ8.s 			page 1


   1              		.cpu cortex-m4
   2              		.eabi_attribute 27, 1
   3              		.eabi_attribute 28, 1
   4              		.eabi_attribute 20, 1
   5              		.eabi_attribute 21, 1
   6              		.eabi_attribute 23, 3
   7              		.eabi_attribute 24, 1
   8              		.eabi_attribute 25, 1
   9              		.eabi_attribute 26, 1
  10              		.eabi_attribute 30, 2
  11              		.eabi_attribute 34, 1
  12              		.eabi_attribute 18, 4
  13              		.file	"stm32f4xx_rcc.c"
  14              		.text
  15              	.Ltext0:
  16              		.cfi_sections	.debug_frame
  17              		.section	.text.RCC_DeInit,"ax",%progbits
  18              		.align	1
  19              		.p2align 4,,15
  20              		.global	RCC_DeInit
  21              		.syntax unified
  22              		.thumb
  23              		.thumb_func
  24              		.fpu fpv4-sp-d16
  25              		.type	RCC_DeInit, %function
  26              	RCC_DeInit:
  27              	.LFB112:
  28              		.file 1 "ChibiOS_3.0.2/ext/stdperiph_stm32f4/src/stm32f4xx_rcc.c"
  29              		.loc 1 246 0
  30              		.cfi_startproc
  31              		@ args = 0, pretend = 0, frame = 0
  32              		@ frame_needed = 0, uses_anonymous_args = 0
  33              		@ link register save eliminated.
  34              		.loc 1 248 0
  35 0000 0A4B     		ldr	r3, .L2
  36              		.loc 1 257 0
  37 0002 0B48     		ldr	r0, .L2+4
  38              		.loc 1 248 0
  39 0004 1A68     		ldr	r2, [r3]
  40              		.loc 1 251 0
  41 0006 0021     		movs	r1, #0
  42              		.loc 1 248 0
  43 0008 42F00102 		orr	r2, r2, #1
  44 000c 1A60     		str	r2, [r3]
  45              		.loc 1 251 0
  46 000e 9960     		str	r1, [r3, #8]
  47              		.loc 1 254 0
  48 0010 1A68     		ldr	r2, [r3]
  49 0012 22F0A852 		bic	r2, r2, #352321536
  50 0016 22F41022 		bic	r2, r2, #589824
  51 001a 1A60     		str	r2, [r3]
  52              		.loc 1 257 0
  53 001c 5860     		str	r0, [r3, #4]
  54              		.loc 1 270 0
  55 001e 1A68     		ldr	r2, [r3]
  56 0020 22F48022 		bic	r2, r2, #262144
  57 0024 1A60     		str	r2, [r3]
ARM GAS  C:\Users\Grillmo\AppData\Local\Temp\ccH8bAZ8.s 			page 2


  58              		.loc 1 273 0
  59 0026 D960     		str	r1, [r3, #12]
  60 0028 7047     		bx	lr
  61              	.L3:
  62 002a 00BF     		.align	2
  63              	.L2:
  64 002c 00380240 		.word	1073887232
  65 0030 10300024 		.word	603992080
  66              		.cfi_endproc
  67              	.LFE112:
  68              		.size	RCC_DeInit, .-RCC_DeInit
  69              		.section	.text.RCC_HSEConfig,"ax",%progbits
  70              		.align	1
  71              		.p2align 4,,15
  72              		.global	RCC_HSEConfig
  73              		.syntax unified
  74              		.thumb
  75              		.thumb_func
  76              		.fpu fpv4-sp-d16
  77              		.type	RCC_HSEConfig, %function
  78              	RCC_HSEConfig:
  79              	.LFB113:
  80              		.loc 1 297 0
  81              		.cfi_startproc
  82              		@ args = 0, pretend = 0, frame = 0
  83              		@ frame_needed = 0, uses_anonymous_args = 0
  84              		@ link register save eliminated.
  85              	.LVL0:
  86              		.loc 1 302 0
  87 0000 024B     		ldr	r3, .L5
  88 0002 0022     		movs	r2, #0
  89 0004 1A70     		strb	r2, [r3]
  90              		.loc 1 305 0
  91 0006 1870     		strb	r0, [r3]
  92 0008 7047     		bx	lr
  93              	.L6:
  94 000a 00BF     		.align	2
  95              	.L5:
  96 000c 02380240 		.word	1073887234
  97              		.cfi_endproc
  98              	.LFE113:
  99              		.size	RCC_HSEConfig, .-RCC_HSEConfig
 100              		.section	.text.RCC_WaitForHSEStartUp,"ax",%progbits
 101              		.align	1
 102              		.p2align 4,,15
 103              		.global	RCC_WaitForHSEStartUp
 104              		.syntax unified
 105              		.thumb
 106              		.thumb_func
 107              		.fpu fpv4-sp-d16
 108              		.type	RCC_WaitForHSEStartUp, %function
 109              	RCC_WaitForHSEStartUp:
 110              	.LFB114:
 111              		.loc 1 321 0
 112              		.cfi_startproc
 113              		@ args = 0, pretend = 0, frame = 8
 114              		@ frame_needed = 0, uses_anonymous_args = 0
ARM GAS  C:\Users\Grillmo\AppData\Local\Temp\ccH8bAZ8.s 			page 3


 115              		@ link register save eliminated.
 116 0000 82B0     		sub	sp, sp, #8
 117              		.cfi_def_cfa_offset 8
 118              		.loc 1 322 0
 119 0002 0023     		movs	r3, #0
 120              	.LBB6:
 121              	.LBB7:
 122              		.loc 1 2750 0
 123 0004 0A4A     		ldr	r2, .L16
 124              	.LBE7:
 125              	.LBE6:
 126              		.loc 1 322 0
 127 0006 0193     		str	r3, [sp, #4]
 128              	.LVL1:
 129 0008 02E0     		b	.L9
 130              	.LVL2:
 131              	.L15:
 132              		.loc 1 330 0
 133 000a B3F5A04F 		cmp	r3, #20480
 134 000e 08D0     		beq	.L10
 135              	.LVL3:
 136              	.L9:
 137              	.LBB10:
 138              	.LBB8:
 139              		.loc 1 2750 0 discriminator 2
 140 0010 1368     		ldr	r3, [r2]
 141              	.LVL4:
 142              		.loc 1 2763 0 discriminator 2
 143 0012 13F4003F 		tst	r3, #131072
 144              	.LBE8:
 145              	.LBE10:
 146              		.loc 1 329 0 discriminator 2
 147 0016 019B     		ldr	r3, [sp, #4]
 148              	.LVL5:
 149 0018 03F10103 		add	r3, r3, #1
 150 001c 0193     		str	r3, [sp, #4]
 151              		.loc 1 330 0 discriminator 2
 152 001e 019B     		ldr	r3, [sp, #4]
 153              	.LBB11:
 154              	.LBB9:
 155              		.loc 1 2763 0 discriminator 2
 156 0020 F3D0     		beq	.L15
 157              	.L10:
 158              	.LVL6:
 159              	.LBE9:
 160              	.LBE11:
 161              	.LBB12:
 162              	.LBB13:
 163              		.loc 1 2750 0
 164 0022 034B     		ldr	r3, .L16
 165 0024 1868     		ldr	r0, [r3]
 166              	.LVL7:
 167              	.LBE13:
 168              	.LBE12:
 169              		.loc 1 340 0
 170 0026 C0F34040 		ubfx	r0, r0, #17, #1
 171              	.LVL8:
ARM GAS  C:\Users\Grillmo\AppData\Local\Temp\ccH8bAZ8.s 			page 4


 172              		.loc 1 341 0
 173 002a 02B0     		add	sp, sp, #8
 174              		.cfi_def_cfa_offset 0
 175              		@ sp needed
 176 002c 7047     		bx	lr
 177              	.L17:
 178 002e 00BF     		.align	2
 179              	.L16:
 180 0030 00380240 		.word	1073887232
 181              		.cfi_endproc
 182              	.LFE114:
 183              		.size	RCC_WaitForHSEStartUp, .-RCC_WaitForHSEStartUp
 184              		.section	.text.RCC_AdjustHSICalibrationValue,"ax",%progbits
 185              		.align	1
 186              		.p2align 4,,15
 187              		.global	RCC_AdjustHSICalibrationValue
 188              		.syntax unified
 189              		.thumb
 190              		.thumb_func
 191              		.fpu fpv4-sp-d16
 192              		.type	RCC_AdjustHSICalibrationValue, %function
 193              	RCC_AdjustHSICalibrationValue:
 194              	.LFB115:
 195              		.loc 1 352 0
 196              		.cfi_startproc
 197              		@ args = 0, pretend = 0, frame = 0
 198              		@ frame_needed = 0, uses_anonymous_args = 0
 199              		@ link register save eliminated.
 200              	.LVL9:
 201              		.loc 1 357 0
 202 0000 034A     		ldr	r2, .L19
 203 0002 1368     		ldr	r3, [r2]
 204              	.LVL10:
 205              		.loc 1 360 0
 206 0004 23F0F803 		bic	r3, r3, #248
 207              	.LVL11:
 208              		.loc 1 363 0
 209 0008 43EAC000 		orr	r0, r3, r0, lsl #3
 210              	.LVL12:
 211              		.loc 1 366 0
 212 000c 1060     		str	r0, [r2]
 213 000e 7047     		bx	lr
 214              	.L20:
 215              		.align	2
 216              	.L19:
 217 0010 00380240 		.word	1073887232
 218              		.cfi_endproc
 219              	.LFE115:
 220              		.size	RCC_AdjustHSICalibrationValue, .-RCC_AdjustHSICalibrationValue
 221              		.section	.text.RCC_HSICmd,"ax",%progbits
 222              		.align	1
 223              		.p2align 4,,15
 224              		.global	RCC_HSICmd
 225              		.syntax unified
 226              		.thumb
 227              		.thumb_func
 228              		.fpu fpv4-sp-d16
ARM GAS  C:\Users\Grillmo\AppData\Local\Temp\ccH8bAZ8.s 			page 5


 229              		.type	RCC_HSICmd, %function
 230              	RCC_HSICmd:
 231              	.LFB116:
 232              		.loc 1 388 0
 233              		.cfi_startproc
 234              		@ args = 0, pretend = 0, frame = 0
 235              		@ frame_needed = 0, uses_anonymous_args = 0
 236              		@ link register save eliminated.
 237              	.LVL13:
 238              		.loc 1 392 0
 239 0000 014B     		ldr	r3, .L22
 240 0002 1860     		str	r0, [r3]
 241 0004 7047     		bx	lr
 242              	.L23:
 243 0006 00BF     		.align	2
 244              	.L22:
 245 0008 00004742 		.word	1111949312
 246              		.cfi_endproc
 247              	.LFE116:
 248              		.size	RCC_HSICmd, .-RCC_HSICmd
 249              		.section	.text.RCC_LSEConfig,"ax",%progbits
 250              		.align	1
 251              		.p2align 4,,15
 252              		.global	RCC_LSEConfig
 253              		.syntax unified
 254              		.thumb
 255              		.thumb_func
 256              		.fpu fpv4-sp-d16
 257              		.type	RCC_LSEConfig, %function
 258              	RCC_LSEConfig:
 259              	.LFB117:
 260              		.loc 1 413 0
 261              		.cfi_startproc
 262              		@ args = 0, pretend = 0, frame = 0
 263              		@ frame_needed = 0, uses_anonymous_args = 0
 264              		@ link register save eliminated.
 265              	.LVL14:
 266              		.loc 1 419 0
 267 0000 064B     		ldr	r3, .L29
 268 0002 0022     		movs	r2, #0
 269              		.loc 1 425 0
 270 0004 0128     		cmp	r0, #1
 271              		.loc 1 419 0
 272 0006 1A70     		strb	r2, [r3]
 273              		.loc 1 422 0
 274 0008 1A70     		strb	r2, [r3]
 275              		.loc 1 425 0
 276 000a 05D0     		beq	.L26
 277 000c 0428     		cmp	r0, #4
 278 000e 02D1     		bne	.L28
 279              		.loc 1 433 0
 280 0010 0522     		movs	r2, #5
 281 0012 1A70     		strb	r2, [r3]
 282 0014 7047     		bx	lr
 283              	.L28:
 284 0016 7047     		bx	lr
 285              	.L26:
ARM GAS  C:\Users\Grillmo\AppData\Local\Temp\ccH8bAZ8.s 			page 6


 286              		.loc 1 429 0
 287 0018 1870     		strb	r0, [r3]
 288              		.loc 1 430 0
 289 001a 7047     		bx	lr
 290              	.L30:
 291              		.align	2
 292              	.L29:
 293 001c 70380240 		.word	1073887344
 294              		.cfi_endproc
 295              	.LFE117:
 296              		.size	RCC_LSEConfig, .-RCC_LSEConfig
 297              		.section	.text.RCC_LSICmd,"ax",%progbits
 298              		.align	1
 299              		.p2align 4,,15
 300              		.global	RCC_LSICmd
 301              		.syntax unified
 302              		.thumb
 303              		.thumb_func
 304              		.fpu fpv4-sp-d16
 305              		.type	RCC_LSICmd, %function
 306              	RCC_LSICmd:
 307              	.LFB118:
 308              		.loc 1 453 0
 309              		.cfi_startproc
 310              		@ args = 0, pretend = 0, frame = 0
 311              		@ frame_needed = 0, uses_anonymous_args = 0
 312              		@ link register save eliminated.
 313              	.LVL15:
 314              		.loc 1 457 0
 315 0000 014B     		ldr	r3, .L32
 316 0002 1860     		str	r0, [r3]
 317 0004 7047     		bx	lr
 318              	.L33:
 319 0006 00BF     		.align	2
 320              	.L32:
 321 0008 800E4742 		.word	1111953024
 322              		.cfi_endproc
 323              	.LFE118:
 324              		.size	RCC_LSICmd, .-RCC_LSICmd
 325              		.section	.text.RCC_PLLCmd,"ax",%progbits
 326              		.align	1
 327              		.p2align 4,,15
 328              		.global	RCC_PLLCmd
 329              		.syntax unified
 330              		.thumb
 331              		.thumb_func
 332              		.fpu fpv4-sp-d16
 333              		.type	RCC_PLLCmd, %function
 334              	RCC_PLLCmd:
 335              	.LFB119:
 336              		.loc 1 576 0
 337              		.cfi_startproc
 338              		@ args = 0, pretend = 0, frame = 0
 339              		@ frame_needed = 0, uses_anonymous_args = 0
 340              		@ link register save eliminated.
 341              	.LVL16:
 342              		.loc 1 579 0
ARM GAS  C:\Users\Grillmo\AppData\Local\Temp\ccH8bAZ8.s 			page 7


 343 0000 014B     		ldr	r3, .L35
 344 0002 1860     		str	r0, [r3]
 345 0004 7047     		bx	lr
 346              	.L36:
 347 0006 00BF     		.align	2
 348              	.L35:
 349 0008 60004742 		.word	1111949408
 350              		.cfi_endproc
 351              	.LFE119:
 352              		.size	RCC_PLLCmd, .-RCC_PLLCmd
 353              		.section	.text.RCC_PLLI2SCmd,"ax",%progbits
 354              		.align	1
 355              		.p2align 4,,15
 356              		.global	RCC_PLLI2SCmd
 357              		.syntax unified
 358              		.thumb
 359              		.thumb_func
 360              		.fpu fpv4-sp-d16
 361              		.type	RCC_PLLI2SCmd, %function
 362              	RCC_PLLI2SCmd:
 363              	.LFB120:
 364              		.loc 1 745 0
 365              		.cfi_startproc
 366              		@ args = 0, pretend = 0, frame = 0
 367              		@ frame_needed = 0, uses_anonymous_args = 0
 368              		@ link register save eliminated.
 369              	.LVL17:
 370              		.loc 1 748 0
 371 0000 014B     		ldr	r3, .L38
 372 0002 1860     		str	r0, [r3]
 373 0004 7047     		bx	lr
 374              	.L39:
 375 0006 00BF     		.align	2
 376              	.L38:
 377 0008 68004742 		.word	1111949416
 378              		.cfi_endproc
 379              	.LFE120:
 380              		.size	RCC_PLLI2SCmd, .-RCC_PLLI2SCmd
 381              		.section	.text.RCC_PLLSAICmd,"ax",%progbits
 382              		.align	1
 383              		.p2align 4,,15
 384              		.global	RCC_PLLSAICmd
 385              		.syntax unified
 386              		.thumb
 387              		.thumb_func
 388              		.fpu fpv4-sp-d16
 389              		.type	RCC_PLLSAICmd, %function
 390              	RCC_PLLSAICmd:
 391              	.LFB121:
 392              		.loc 1 874 0
 393              		.cfi_startproc
 394              		@ args = 0, pretend = 0, frame = 0
 395              		@ frame_needed = 0, uses_anonymous_args = 0
 396              		@ link register save eliminated.
 397              	.LVL18:
 398              		.loc 1 877 0
 399 0000 014B     		ldr	r3, .L41
ARM GAS  C:\Users\Grillmo\AppData\Local\Temp\ccH8bAZ8.s 			page 8


 400 0002 1860     		str	r0, [r3]
 401 0004 7047     		bx	lr
 402              	.L42:
 403 0006 00BF     		.align	2
 404              	.L41:
 405 0008 70004742 		.word	1111949424
 406              		.cfi_endproc
 407              	.LFE121:
 408              		.size	RCC_PLLSAICmd, .-RCC_PLLSAICmd
 409              		.section	.text.RCC_ClockSecuritySystemCmd,"ax",%progbits
 410              		.align	1
 411              		.p2align 4,,15
 412              		.global	RCC_ClockSecuritySystemCmd
 413              		.syntax unified
 414              		.thumb
 415              		.thumb_func
 416              		.fpu fpv4-sp-d16
 417              		.type	RCC_ClockSecuritySystemCmd, %function
 418              	RCC_ClockSecuritySystemCmd:
 419              	.LFB122:
 420              		.loc 1 892 0
 421              		.cfi_startproc
 422              		@ args = 0, pretend = 0, frame = 0
 423              		@ frame_needed = 0, uses_anonymous_args = 0
 424              		@ link register save eliminated.
 425              	.LVL19:
 426              		.loc 1 895 0
 427 0000 014B     		ldr	r3, .L44
 428 0002 1860     		str	r0, [r3]
 429 0004 7047     		bx	lr
 430              	.L45:
 431 0006 00BF     		.align	2
 432              	.L44:
 433 0008 4C004742 		.word	1111949388
 434              		.cfi_endproc
 435              	.LFE122:
 436              		.size	RCC_ClockSecuritySystemCmd, .-RCC_ClockSecuritySystemCmd
 437              		.section	.text.RCC_MCO1Config,"ax",%progbits
 438              		.align	1
 439              		.p2align 4,,15
 440              		.global	RCC_MCO1Config
 441              		.syntax unified
 442              		.thumb
 443              		.thumb_func
 444              		.fpu fpv4-sp-d16
 445              		.type	RCC_MCO1Config, %function
 446              	RCC_MCO1Config:
 447              	.LFB123:
 448              		.loc 1 917 0
 449              		.cfi_startproc
 450              		@ args = 0, pretend = 0, frame = 0
 451              		@ frame_needed = 0, uses_anonymous_args = 0
 452              		@ link register save eliminated.
 453              	.LVL20:
 454              		.loc 1 924 0
 455 0000 034A     		ldr	r2, .L47
 456 0002 9368     		ldr	r3, [r2, #8]
ARM GAS  C:\Users\Grillmo\AppData\Local\Temp\ccH8bAZ8.s 			page 9


 457              	.LVL21:
 458              		.loc 1 927 0
 459 0004 23F0EC63 		bic	r3, r3, #123731968
 460              	.LVL22:
 461 0008 1943     		orrs	r1, r1, r3
 462              	.LVL23:
 463              		.loc 1 930 0
 464 000a 0143     		orrs	r1, r1, r0
 465              	.LVL24:
 466              		.loc 1 933 0
 467 000c 9160     		str	r1, [r2, #8]
 468 000e 7047     		bx	lr
 469              	.L48:
 470              		.align	2
 471              	.L47:
 472 0010 00380240 		.word	1073887232
 473              		.cfi_endproc
 474              	.LFE123:
 475              		.size	RCC_MCO1Config, .-RCC_MCO1Config
 476              		.section	.text.RCC_MCO2Config,"ax",%progbits
 477              		.align	1
 478              		.p2align 4,,15
 479              		.global	RCC_MCO2Config
 480              		.syntax unified
 481              		.thumb
 482              		.thumb_func
 483              		.fpu fpv4-sp-d16
 484              		.type	RCC_MCO2Config, %function
 485              	RCC_MCO2Config:
 486              	.LFB124:
 487              		.loc 1 962 0
 488              		.cfi_startproc
 489              		@ args = 0, pretend = 0, frame = 0
 490              		@ frame_needed = 0, uses_anonymous_args = 0
 491              		@ link register save eliminated.
 492              	.LVL25:
 493              		.loc 1 969 0
 494 0000 034A     		ldr	r2, .L50
 495 0002 9368     		ldr	r3, [r2, #8]
 496              	.LVL26:
 497              		.loc 1 972 0
 498 0004 23F07843 		bic	r3, r3, #-134217728
 499              	.LVL27:
 500 0008 1943     		orrs	r1, r1, r3
 501              	.LVL28:
 502              		.loc 1 975 0
 503 000a 0143     		orrs	r1, r1, r0
 504              	.LVL29:
 505              		.loc 1 978 0
 506 000c 9160     		str	r1, [r2, #8]
 507 000e 7047     		bx	lr
 508              	.L51:
 509              		.align	2
 510              	.L50:
 511 0010 00380240 		.word	1073887232
 512              		.cfi_endproc
 513              	.LFE124:
ARM GAS  C:\Users\Grillmo\AppData\Local\Temp\ccH8bAZ8.s 			page 10


 514              		.size	RCC_MCO2Config, .-RCC_MCO2Config
 515              		.section	.text.RCC_SYSCLKConfig,"ax",%progbits
 516              		.align	1
 517              		.p2align 4,,15
 518              		.global	RCC_SYSCLKConfig
 519              		.syntax unified
 520              		.thumb
 521              		.thumb_func
 522              		.fpu fpv4-sp-d16
 523              		.type	RCC_SYSCLKConfig, %function
 524              	RCC_SYSCLKConfig:
 525              	.LFB125:
 526              		.loc 1 1162 0
 527              		.cfi_startproc
 528              		@ args = 0, pretend = 0, frame = 0
 529              		@ frame_needed = 0, uses_anonymous_args = 0
 530              		@ link register save eliminated.
 531              	.LVL30:
 532              		.loc 1 1168 0
 533 0000 034A     		ldr	r2, .L53
 534 0002 9368     		ldr	r3, [r2, #8]
 535              	.LVL31:
 536              		.loc 1 1171 0
 537 0004 23F00303 		bic	r3, r3, #3
 538              	.LVL32:
 539              		.loc 1 1174 0
 540 0008 1843     		orrs	r0, r0, r3
 541              	.LVL33:
 542              		.loc 1 1177 0
 543 000a 9060     		str	r0, [r2, #8]
 544 000c 7047     		bx	lr
 545              	.L54:
 546 000e 00BF     		.align	2
 547              	.L53:
 548 0010 00380240 		.word	1073887232
 549              		.cfi_endproc
 550              	.LFE125:
 551              		.size	RCC_SYSCLKConfig, .-RCC_SYSCLKConfig
 552              		.section	.text.RCC_GetSYSCLKSource,"ax",%progbits
 553              		.align	1
 554              		.p2align 4,,15
 555              		.global	RCC_GetSYSCLKSource
 556              		.syntax unified
 557              		.thumb
 558              		.thumb_func
 559              		.fpu fpv4-sp-d16
 560              		.type	RCC_GetSYSCLKSource, %function
 561              	RCC_GetSYSCLKSource:
 562              	.LFB126:
 563              		.loc 1 1191 0
 564              		.cfi_startproc
 565              		@ args = 0, pretend = 0, frame = 0
 566              		@ frame_needed = 0, uses_anonymous_args = 0
 567              		@ link register save eliminated.
 568              		.loc 1 1192 0
 569 0000 024B     		ldr	r3, .L56
 570 0002 9868     		ldr	r0, [r3, #8]
ARM GAS  C:\Users\Grillmo\AppData\Local\Temp\ccH8bAZ8.s 			page 11


 571              		.loc 1 1193 0
 572 0004 00F00C00 		and	r0, r0, #12
 573 0008 7047     		bx	lr
 574              	.L57:
 575 000a 00BF     		.align	2
 576              	.L56:
 577 000c 00380240 		.word	1073887232
 578              		.cfi_endproc
 579              	.LFE126:
 580              		.size	RCC_GetSYSCLKSource, .-RCC_GetSYSCLKSource
 581              		.section	.text.RCC_HCLKConfig,"ax",%progbits
 582              		.align	1
 583              		.p2align 4,,15
 584              		.global	RCC_HCLKConfig
 585              		.syntax unified
 586              		.thumb
 587              		.thumb_func
 588              		.fpu fpv4-sp-d16
 589              		.type	RCC_HCLKConfig, %function
 590              	RCC_HCLKConfig:
 591              	.LFB127:
 592              		.loc 1 1216 0
 593              		.cfi_startproc
 594              		@ args = 0, pretend = 0, frame = 0
 595              		@ frame_needed = 0, uses_anonymous_args = 0
 596              		@ link register save eliminated.
 597              	.LVL34:
 598              		.loc 1 1222 0
 599 0000 034A     		ldr	r2, .L59
 600 0002 9368     		ldr	r3, [r2, #8]
 601              	.LVL35:
 602              		.loc 1 1225 0
 603 0004 23F0F003 		bic	r3, r3, #240
 604              	.LVL36:
 605              		.loc 1 1228 0
 606 0008 1843     		orrs	r0, r0, r3
 607              	.LVL37:
 608              		.loc 1 1231 0
 609 000a 9060     		str	r0, [r2, #8]
 610 000c 7047     		bx	lr
 611              	.L60:
 612 000e 00BF     		.align	2
 613              	.L59:
 614 0010 00380240 		.word	1073887232
 615              		.cfi_endproc
 616              	.LFE127:
 617              		.size	RCC_HCLKConfig, .-RCC_HCLKConfig
 618              		.section	.text.RCC_PCLK1Config,"ax",%progbits
 619              		.align	1
 620              		.p2align 4,,15
 621              		.global	RCC_PCLK1Config
 622              		.syntax unified
 623              		.thumb
 624              		.thumb_func
 625              		.fpu fpv4-sp-d16
 626              		.type	RCC_PCLK1Config, %function
 627              	RCC_PCLK1Config:
ARM GAS  C:\Users\Grillmo\AppData\Local\Temp\ccH8bAZ8.s 			page 12


 628              	.LFB128:
 629              		.loc 1 1247 0
 630              		.cfi_startproc
 631              		@ args = 0, pretend = 0, frame = 0
 632              		@ frame_needed = 0, uses_anonymous_args = 0
 633              		@ link register save eliminated.
 634              	.LVL38:
 635              		.loc 1 1253 0
 636 0000 034A     		ldr	r2, .L62
 637 0002 9368     		ldr	r3, [r2, #8]
 638              	.LVL39:
 639              		.loc 1 1256 0
 640 0004 23F4E053 		bic	r3, r3, #7168
 641              	.LVL40:
 642              		.loc 1 1259 0
 643 0008 1843     		orrs	r0, r0, r3
 644              	.LVL41:
 645              		.loc 1 1262 0
 646 000a 9060     		str	r0, [r2, #8]
 647 000c 7047     		bx	lr
 648              	.L63:
 649 000e 00BF     		.align	2
 650              	.L62:
 651 0010 00380240 		.word	1073887232
 652              		.cfi_endproc
 653              	.LFE128:
 654              		.size	RCC_PCLK1Config, .-RCC_PCLK1Config
 655              		.section	.text.RCC_PCLK2Config,"ax",%progbits
 656              		.align	1
 657              		.p2align 4,,15
 658              		.global	RCC_PCLK2Config
 659              		.syntax unified
 660              		.thumb
 661              		.thumb_func
 662              		.fpu fpv4-sp-d16
 663              		.type	RCC_PCLK2Config, %function
 664              	RCC_PCLK2Config:
 665              	.LFB129:
 666              		.loc 1 1278 0
 667              		.cfi_startproc
 668              		@ args = 0, pretend = 0, frame = 0
 669              		@ frame_needed = 0, uses_anonymous_args = 0
 670              		@ link register save eliminated.
 671              	.LVL42:
 672              		.loc 1 1284 0
 673 0000 034A     		ldr	r2, .L65
 674 0002 9368     		ldr	r3, [r2, #8]
 675              	.LVL43:
 676              		.loc 1 1287 0
 677 0004 23F46043 		bic	r3, r3, #57344
 678              	.LVL44:
 679              		.loc 1 1290 0
 680 0008 43EAC000 		orr	r0, r3, r0, lsl #3
 681              	.LVL45:
 682              		.loc 1 1293 0
 683 000c 9060     		str	r0, [r2, #8]
 684 000e 7047     		bx	lr
ARM GAS  C:\Users\Grillmo\AppData\Local\Temp\ccH8bAZ8.s 			page 13


 685              	.L66:
 686              		.align	2
 687              	.L65:
 688 0010 00380240 		.word	1073887232
 689              		.cfi_endproc
 690              	.LFE129:
 691              		.size	RCC_PCLK2Config, .-RCC_PCLK2Config
 692              		.section	.text.RCC_GetClocksFreq,"ax",%progbits
 693              		.align	1
 694              		.p2align 4,,15
 695              		.global	RCC_GetClocksFreq
 696              		.syntax unified
 697              		.thumb
 698              		.thumb_func
 699              		.fpu fpv4-sp-d16
 700              		.type	RCC_GetClocksFreq, %function
 701              	RCC_GetClocksFreq:
 702              	.LFB130:
 703              		.loc 1 1330 0
 704              		.cfi_startproc
 705              		@ args = 0, pretend = 0, frame = 0
 706              		@ frame_needed = 0, uses_anonymous_args = 0
 707              		@ link register save eliminated.
 708              	.LVL46:
 709              		.loc 1 1337 0
 710 0000 1F4A     		ldr	r2, .L79
 711 0002 9368     		ldr	r3, [r2, #8]
 712              	.LVL47:
 713 0004 03F00C03 		and	r3, r3, #12
 714              	.LVL48:
 715              		.loc 1 1339 0
 716 0008 042B     		cmp	r3, #4
 717              		.loc 1 1330 0
 718 000a 10B4     		push	{r4}
 719              		.cfi_def_cfa_offset 4
 720              		.cfi_offset 4, -4
 721              		.loc 1 1339 0
 722 000c 1BD0     		beq	.L69
 723 000e 082B     		cmp	r3, #8
 724 0010 1CD0     		beq	.L78
 725              		.loc 1 1395 0
 726 0012 1C4B     		ldr	r3, .L79+4
 727              	.LVL49:
 728 0014 0360     		str	r3, [r0]
 729              	.LVL50:
 730              	.L72:
 731              		.loc 1 1401 0
 732 0016 1A4A     		ldr	r2, .L79
 733              		.loc 1 1403 0
 734 0018 1B49     		ldr	r1, .L79+8
 735              		.loc 1 1401 0
 736 001a 9468     		ldr	r4, [r2, #8]
 737              	.LVL51:
 738              		.loc 1 1402 0
 739 001c C4F30314 		ubfx	r4, r4, #4, #4
 740              	.LVL52:
 741              		.loc 1 1403 0
ARM GAS  C:\Users\Grillmo\AppData\Local\Temp\ccH8bAZ8.s 			page 14


 742 0020 0C5D     		ldrb	r4, [r1, r4]	@ zero_extendqisi2
 743              	.LVL53:
 744              		.loc 1 1405 0
 745 0022 E340     		lsrs	r3, r3, r4
 746 0024 4360     		str	r3, [r0, #4]
 747              		.loc 1 1408 0
 748 0026 9468     		ldr	r4, [r2, #8]
 749              	.LVL54:
 750              		.loc 1 1409 0
 751 0028 C4F38224 		ubfx	r4, r4, #10, #3
 752              	.LVL55:
 753              		.loc 1 1410 0
 754 002c 0C5D     		ldrb	r4, [r1, r4]	@ zero_extendqisi2
 755              	.LVL56:
 756              		.loc 1 1412 0
 757 002e 23FA04F4 		lsr	r4, r3, r4
 758              	.LVL57:
 759 0032 8460     		str	r4, [r0, #8]
 760              		.loc 1 1415 0
 761 0034 9268     		ldr	r2, [r2, #8]
 762              	.LVL58:
 763              		.loc 1 1420 0
 764 0036 5DF8044B 		ldr	r4, [sp], #4
 765              		.cfi_remember_state
 766              		.cfi_restore 4
 767              		.cfi_def_cfa_offset 0
 768              		.loc 1 1416 0
 769 003a C2F34232 		ubfx	r2, r2, #13, #3
 770              	.LVL59:
 771              		.loc 1 1417 0
 772 003e 8A5C     		ldrb	r2, [r1, r2]	@ zero_extendqisi2
 773              	.LVL60:
 774              		.loc 1 1419 0
 775 0040 D340     		lsrs	r3, r3, r2
 776 0042 C360     		str	r3, [r0, #12]
 777              		.loc 1 1420 0
 778 0044 7047     		bx	lr
 779              	.LVL61:
 780              	.L69:
 781              		.cfi_restore_state
 782              		.loc 1 1345 0
 783 0046 114B     		ldr	r3, .L79+12
 784              	.LVL62:
 785 0048 0360     		str	r3, [r0]
 786              		.loc 1 1346 0
 787 004a E4E7     		b	.L72
 788              	.LVL63:
 789              	.L78:
 790              		.loc 1 1352 0
 791 004c 5468     		ldr	r4, [r2, #4]
 792              	.LVL64:
 793              		.loc 1 1353 0
 794 004e 5168     		ldr	r1, [r2, #4]
 795              		.loc 1 1358 0
 796 0050 5268     		ldr	r2, [r2, #4]
 797              		.loc 1 1355 0
 798 0052 6302     		lsls	r3, r4, #9
ARM GAS  C:\Users\Grillmo\AppData\Local\Temp\ccH8bAZ8.s 			page 15


 799              	.LVL65:
 800              		.loc 1 1363 0
 801 0054 C2F38812 		ubfx	r2, r2, #6, #9
 802              		.loc 1 1353 0
 803 0058 01F03F01 		and	r1, r1, #63
 804              	.LVL66:
 805              		.loc 1 1358 0
 806 005c 4CBF     		ite	mi
 807 005e 0B4B     		ldrmi	r3, .L79+12
 808              		.loc 1 1363 0
 809 0060 084B     		ldrpl	r3, .L79+4
 810 0062 B3FBF1F3 		udiv	r3, r3, r1
 811 0066 03FB02F3 		mul	r3, r3, r2
 812              	.LVL67:
 813              		.loc 1 1366 0
 814 006a 054A     		ldr	r2, .L79
 815 006c 5268     		ldr	r2, [r2, #4]
 816              	.LVL68:
 817 006e C2F30142 		ubfx	r2, r2, #16, #2
 818              	.LVL69:
 819 0072 0132     		adds	r2, r2, #1
 820 0074 5200     		lsls	r2, r2, #1
 821              		.loc 1 1367 0
 822 0076 B3FBF2F3 		udiv	r3, r3, r2
 823              	.LVL70:
 824 007a 0360     		str	r3, [r0]
 825              		.loc 1 1368 0
 826 007c CBE7     		b	.L72
 827              	.L80:
 828 007e 00BF     		.align	2
 829              	.L79:
 830 0080 00380240 		.word	1073887232
 831 0084 0024F400 		.word	16000000
 832 0088 00000000 		.word	.LANCHOR0
 833 008c 00127A00 		.word	8000000
 834              		.cfi_endproc
 835              	.LFE130:
 836              		.size	RCC_GetClocksFreq, .-RCC_GetClocksFreq
 837              		.section	.text.RCC_RTCCLKConfig,"ax",%progbits
 838              		.align	1
 839              		.p2align 4,,15
 840              		.global	RCC_RTCCLKConfig
 841              		.syntax unified
 842              		.thumb
 843              		.thumb_func
 844              		.fpu fpv4-sp-d16
 845              		.type	RCC_RTCCLKConfig, %function
 846              	RCC_RTCCLKConfig:
 847              	.LFB131:
 848              		.loc 1 1483 0
 849              		.cfi_startproc
 850              		@ args = 0, pretend = 0, frame = 0
 851              		@ frame_needed = 0, uses_anonymous_args = 0
 852              		@ link register save eliminated.
 853              	.LVL71:
 854              		.loc 1 1489 0
 855 0000 00F44073 		and	r3, r0, #768
ARM GAS  C:\Users\Grillmo\AppData\Local\Temp\ccH8bAZ8.s 			page 16


 856 0004 B3F5407F 		cmp	r3, #768
 857 0008 09D1     		bne	.L82
 858              		.loc 1 1491 0
 859 000a 0849     		ldr	r1, .L83
 860 000c 8A68     		ldr	r2, [r1, #8]
 861              	.LVL72:
 862              		.loc 1 1497 0
 863 000e 20F07043 		bic	r3, r0, #-268435456
 864              		.loc 1 1494 0
 865 0012 22F4F812 		bic	r2, r2, #2031616
 866              	.LVL73:
 867              		.loc 1 1497 0
 868 0016 23F44073 		bic	r3, r3, #768
 869 001a 1343     		orrs	r3, r3, r2
 870              	.LVL74:
 871              		.loc 1 1500 0
 872 001c 8B60     		str	r3, [r1, #8]
 873              	.LVL75:
 874              	.L82:
 875              		.loc 1 1504 0
 876 001e 034B     		ldr	r3, .L83
 877 0020 1A6F     		ldr	r2, [r3, #112]
 878 0022 C0F30B00 		ubfx	r0, r0, #0, #12
 879              	.LVL76:
 880 0026 1043     		orrs	r0, r0, r2
 881 0028 1867     		str	r0, [r3, #112]
 882 002a 7047     		bx	lr
 883              	.L84:
 884              		.align	2
 885              	.L83:
 886 002c 00380240 		.word	1073887232
 887              		.cfi_endproc
 888              	.LFE131:
 889              		.size	RCC_RTCCLKConfig, .-RCC_RTCCLKConfig
 890              		.section	.text.RCC_RTCCLKCmd,"ax",%progbits
 891              		.align	1
 892              		.p2align 4,,15
 893              		.global	RCC_RTCCLKCmd
 894              		.syntax unified
 895              		.thumb
 896              		.thumb_func
 897              		.fpu fpv4-sp-d16
 898              		.type	RCC_RTCCLKCmd, %function
 899              	RCC_RTCCLKCmd:
 900              	.LFB132:
 901              		.loc 1 1515 0
 902              		.cfi_startproc
 903              		@ args = 0, pretend = 0, frame = 0
 904              		@ frame_needed = 0, uses_anonymous_args = 0
 905              		@ link register save eliminated.
 906              	.LVL77:
 907              		.loc 1 1519 0
 908 0000 014B     		ldr	r3, .L86
 909 0002 1860     		str	r0, [r3]
 910 0004 7047     		bx	lr
 911              	.L87:
 912 0006 00BF     		.align	2
ARM GAS  C:\Users\Grillmo\AppData\Local\Temp\ccH8bAZ8.s 			page 17


 913              	.L86:
 914 0008 3C0E4742 		.word	1111952956
 915              		.cfi_endproc
 916              	.LFE132:
 917              		.size	RCC_RTCCLKCmd, .-RCC_RTCCLKCmd
 918              		.section	.text.RCC_BackupResetCmd,"ax",%progbits
 919              		.align	1
 920              		.p2align 4,,15
 921              		.global	RCC_BackupResetCmd
 922              		.syntax unified
 923              		.thumb
 924              		.thumb_func
 925              		.fpu fpv4-sp-d16
 926              		.type	RCC_BackupResetCmd, %function
 927              	RCC_BackupResetCmd:
 928              	.LFB133:
 929              		.loc 1 1532 0
 930              		.cfi_startproc
 931              		@ args = 0, pretend = 0, frame = 0
 932              		@ frame_needed = 0, uses_anonymous_args = 0
 933              		@ link register save eliminated.
 934              	.LVL78:
 935              		.loc 1 1535 0
 936 0000 014B     		ldr	r3, .L89
 937 0002 1860     		str	r0, [r3]
 938 0004 7047     		bx	lr
 939              	.L90:
 940 0006 00BF     		.align	2
 941              	.L89:
 942 0008 400E4742 		.word	1111952960
 943              		.cfi_endproc
 944              	.LFE133:
 945              		.size	RCC_BackupResetCmd, .-RCC_BackupResetCmd
 946              		.section	.text.RCC_TIMCLKPresConfig,"ax",%progbits
 947              		.align	1
 948              		.p2align 4,,15
 949              		.global	RCC_TIMCLKPresConfig
 950              		.syntax unified
 951              		.thumb
 952              		.thumb_func
 953              		.fpu fpv4-sp-d16
 954              		.type	RCC_TIMCLKPresConfig, %function
 955              	RCC_TIMCLKPresConfig:
 956              	.LFB134:
 957              		.loc 1 1756 0
 958              		.cfi_startproc
 959              		@ args = 0, pretend = 0, frame = 0
 960              		@ frame_needed = 0, uses_anonymous_args = 0
 961              		@ link register save eliminated.
 962              	.LVL79:
 963              		.loc 1 1760 0
 964 0000 014B     		ldr	r3, .L92
 965 0002 1860     		str	r0, [r3]
 966 0004 7047     		bx	lr
 967              	.L93:
 968 0006 00BF     		.align	2
 969              	.L92:
ARM GAS  C:\Users\Grillmo\AppData\Local\Temp\ccH8bAZ8.s 			page 18


 970 0008 E0114742 		.word	1111953888
 971              		.cfi_endproc
 972              	.LFE134:
 973              		.size	RCC_TIMCLKPresConfig, .-RCC_TIMCLKPresConfig
 974              		.section	.text.RCC_AHB1PeriphClockCmd,"ax",%progbits
 975              		.align	1
 976              		.p2align 4,,15
 977              		.global	RCC_AHB1PeriphClockCmd
 978              		.syntax unified
 979              		.thumb
 980              		.thumb_func
 981              		.fpu fpv4-sp-d16
 982              		.type	RCC_AHB1PeriphClockCmd, %function
 983              	RCC_AHB1PeriphClockCmd:
 984              	.LFB135:
 985              		.loc 1 1798 0
 986              		.cfi_startproc
 987              		@ args = 0, pretend = 0, frame = 0
 988              		@ frame_needed = 0, uses_anonymous_args = 0
 989              		@ link register save eliminated.
 990              	.LVL80:
 991              		.loc 1 1805 0
 992 0000 044A     		ldr	r2, .L98
 993 0002 136B     		ldr	r3, [r2, #48]
 994              		.loc 1 1803 0
 995 0004 19B9     		cbnz	r1, .L97
 996              		.loc 1 1809 0
 997 0006 23EA0000 		bic	r0, r3, r0
 998              	.LVL81:
 999 000a 1063     		str	r0, [r2, #48]
 1000 000c 7047     		bx	lr
 1001              	.LVL82:
 1002              	.L97:
 1003              		.loc 1 1805 0
 1004 000e 1843     		orrs	r0, r0, r3
 1005              	.LVL83:
 1006 0010 1063     		str	r0, [r2, #48]
 1007 0012 7047     		bx	lr
 1008              	.L99:
 1009              		.align	2
 1010              	.L98:
 1011 0014 00380240 		.word	1073887232
 1012              		.cfi_endproc
 1013              	.LFE135:
 1014              		.size	RCC_AHB1PeriphClockCmd, .-RCC_AHB1PeriphClockCmd
 1015              		.section	.text.RCC_AHB2PeriphClockCmd,"ax",%progbits
 1016              		.align	1
 1017              		.p2align 4,,15
 1018              		.global	RCC_AHB2PeriphClockCmd
 1019              		.syntax unified
 1020              		.thumb
 1021              		.thumb_func
 1022              		.fpu fpv4-sp-d16
 1023              		.type	RCC_AHB2PeriphClockCmd, %function
 1024              	RCC_AHB2PeriphClockCmd:
 1025              	.LFB136:
 1026              		.loc 1 1830 0
ARM GAS  C:\Users\Grillmo\AppData\Local\Temp\ccH8bAZ8.s 			page 19


 1027              		.cfi_startproc
 1028              		@ args = 0, pretend = 0, frame = 0
 1029              		@ frame_needed = 0, uses_anonymous_args = 0
 1030              		@ link register save eliminated.
 1031              	.LVL84:
 1032              		.loc 1 1837 0
 1033 0000 044A     		ldr	r2, .L104
 1034 0002 536B     		ldr	r3, [r2, #52]
 1035              		.loc 1 1835 0
 1036 0004 19B9     		cbnz	r1, .L103
 1037              		.loc 1 1841 0
 1038 0006 23EA0000 		bic	r0, r3, r0
 1039              	.LVL85:
 1040 000a 5063     		str	r0, [r2, #52]
 1041 000c 7047     		bx	lr
 1042              	.LVL86:
 1043              	.L103:
 1044              		.loc 1 1837 0
 1045 000e 1843     		orrs	r0, r0, r3
 1046              	.LVL87:
 1047 0010 5063     		str	r0, [r2, #52]
 1048 0012 7047     		bx	lr
 1049              	.L105:
 1050              		.align	2
 1051              	.L104:
 1052 0014 00380240 		.word	1073887232
 1053              		.cfi_endproc
 1054              	.LFE136:
 1055              		.size	RCC_AHB2PeriphClockCmd, .-RCC_AHB2PeriphClockCmd
 1056              		.section	.text.RCC_APB1PeriphClockCmd,"ax",%progbits
 1057              		.align	1
 1058              		.p2align 4,,15
 1059              		.global	RCC_APB1PeriphClockCmd
 1060              		.syntax unified
 1061              		.thumb
 1062              		.thumb_func
 1063              		.fpu fpv4-sp-d16
 1064              		.type	RCC_APB1PeriphClockCmd, %function
 1065              	RCC_APB1PeriphClockCmd:
 1066              	.LFB137:
 1067              		.loc 1 1917 0
 1068              		.cfi_startproc
 1069              		@ args = 0, pretend = 0, frame = 0
 1070              		@ frame_needed = 0, uses_anonymous_args = 0
 1071              		@ link register save eliminated.
 1072              	.LVL88:
 1073              		.loc 1 1924 0
 1074 0000 044A     		ldr	r2, .L110
 1075 0002 136C     		ldr	r3, [r2, #64]
 1076              		.loc 1 1922 0
 1077 0004 19B9     		cbnz	r1, .L109
 1078              		.loc 1 1928 0
 1079 0006 23EA0000 		bic	r0, r3, r0
 1080              	.LVL89:
 1081 000a 1064     		str	r0, [r2, #64]
 1082 000c 7047     		bx	lr
 1083              	.LVL90:
ARM GAS  C:\Users\Grillmo\AppData\Local\Temp\ccH8bAZ8.s 			page 20


 1084              	.L109:
 1085              		.loc 1 1924 0
 1086 000e 1843     		orrs	r0, r0, r3
 1087              	.LVL91:
 1088 0010 1064     		str	r0, [r2, #64]
 1089 0012 7047     		bx	lr
 1090              	.L111:
 1091              		.align	2
 1092              	.L110:
 1093 0014 00380240 		.word	1073887232
 1094              		.cfi_endproc
 1095              	.LFE137:
 1096              		.size	RCC_APB1PeriphClockCmd, .-RCC_APB1PeriphClockCmd
 1097              		.section	.text.RCC_APB2PeriphClockCmd,"ax",%progbits
 1098              		.align	1
 1099              		.p2align 4,,15
 1100              		.global	RCC_APB2PeriphClockCmd
 1101              		.syntax unified
 1102              		.thumb
 1103              		.thumb_func
 1104              		.fpu fpv4-sp-d16
 1105              		.type	RCC_APB2PeriphClockCmd, %function
 1106              	RCC_APB2PeriphClockCmd:
 1107              	.LFB138:
 1108              		.loc 1 1964 0
 1109              		.cfi_startproc
 1110              		@ args = 0, pretend = 0, frame = 0
 1111              		@ frame_needed = 0, uses_anonymous_args = 0
 1112              		@ link register save eliminated.
 1113              	.LVL92:
 1114              		.loc 1 1971 0
 1115 0000 044A     		ldr	r2, .L116
 1116 0002 536C     		ldr	r3, [r2, #68]
 1117              		.loc 1 1969 0
 1118 0004 19B9     		cbnz	r1, .L115
 1119              		.loc 1 1975 0
 1120 0006 23EA0000 		bic	r0, r3, r0
 1121              	.LVL93:
 1122 000a 5064     		str	r0, [r2, #68]
 1123 000c 7047     		bx	lr
 1124              	.LVL94:
 1125              	.L115:
 1126              		.loc 1 1971 0
 1127 000e 1843     		orrs	r0, r0, r3
 1128              	.LVL95:
 1129 0010 5064     		str	r0, [r2, #68]
 1130 0012 7047     		bx	lr
 1131              	.L117:
 1132              		.align	2
 1133              	.L116:
 1134 0014 00380240 		.word	1073887232
 1135              		.cfi_endproc
 1136              	.LFE138:
 1137              		.size	RCC_APB2PeriphClockCmd, .-RCC_APB2PeriphClockCmd
 1138              		.section	.text.RCC_AHB1PeriphResetCmd,"ax",%progbits
 1139              		.align	1
 1140              		.p2align 4,,15
ARM GAS  C:\Users\Grillmo\AppData\Local\Temp\ccH8bAZ8.s 			page 21


 1141              		.global	RCC_AHB1PeriphResetCmd
 1142              		.syntax unified
 1143              		.thumb
 1144              		.thumb_func
 1145              		.fpu fpv4-sp-d16
 1146              		.type	RCC_AHB1PeriphResetCmd, %function
 1147              	RCC_AHB1PeriphResetCmd:
 1148              	.LFB139:
 1149              		.loc 1 2007 0
 1150              		.cfi_startproc
 1151              		@ args = 0, pretend = 0, frame = 0
 1152              		@ frame_needed = 0, uses_anonymous_args = 0
 1153              		@ link register save eliminated.
 1154              	.LVL96:
 1155              		.loc 1 2014 0
 1156 0000 044A     		ldr	r2, .L122
 1157 0002 1369     		ldr	r3, [r2, #16]
 1158              		.loc 1 2012 0
 1159 0004 19B9     		cbnz	r1, .L121
 1160              		.loc 1 2018 0
 1161 0006 23EA0000 		bic	r0, r3, r0
 1162              	.LVL97:
 1163 000a 1061     		str	r0, [r2, #16]
 1164 000c 7047     		bx	lr
 1165              	.LVL98:
 1166              	.L121:
 1167              		.loc 1 2014 0
 1168 000e 1843     		orrs	r0, r0, r3
 1169              	.LVL99:
 1170 0010 1061     		str	r0, [r2, #16]
 1171 0012 7047     		bx	lr
 1172              	.L123:
 1173              		.align	2
 1174              	.L122:
 1175 0014 00380240 		.word	1073887232
 1176              		.cfi_endproc
 1177              	.LFE139:
 1178              		.size	RCC_AHB1PeriphResetCmd, .-RCC_AHB1PeriphResetCmd
 1179              		.section	.text.RCC_AHB2PeriphResetCmd,"ax",%progbits
 1180              		.align	1
 1181              		.p2align 4,,15
 1182              		.global	RCC_AHB2PeriphResetCmd
 1183              		.syntax unified
 1184              		.thumb
 1185              		.thumb_func
 1186              		.fpu fpv4-sp-d16
 1187              		.type	RCC_AHB2PeriphResetCmd, %function
 1188              	RCC_AHB2PeriphResetCmd:
 1189              	.LFB140:
 1190              		.loc 1 2036 0
 1191              		.cfi_startproc
 1192              		@ args = 0, pretend = 0, frame = 0
 1193              		@ frame_needed = 0, uses_anonymous_args = 0
 1194              		@ link register save eliminated.
 1195              	.LVL100:
 1196              		.loc 1 2043 0
 1197 0000 044A     		ldr	r2, .L128
ARM GAS  C:\Users\Grillmo\AppData\Local\Temp\ccH8bAZ8.s 			page 22


 1198 0002 5369     		ldr	r3, [r2, #20]
 1199              		.loc 1 2041 0
 1200 0004 19B9     		cbnz	r1, .L127
 1201              		.loc 1 2047 0
 1202 0006 23EA0000 		bic	r0, r3, r0
 1203              	.LVL101:
 1204 000a 5061     		str	r0, [r2, #20]
 1205 000c 7047     		bx	lr
 1206              	.LVL102:
 1207              	.L127:
 1208              		.loc 1 2043 0
 1209 000e 1843     		orrs	r0, r0, r3
 1210              	.LVL103:
 1211 0010 5061     		str	r0, [r2, #20]
 1212 0012 7047     		bx	lr
 1213              	.L129:
 1214              		.align	2
 1215              	.L128:
 1216 0014 00380240 		.word	1073887232
 1217              		.cfi_endproc
 1218              	.LFE140:
 1219              		.size	RCC_AHB2PeriphResetCmd, .-RCC_AHB2PeriphResetCmd
 1220              		.section	.text.RCC_APB1PeriphResetCmd,"ax",%progbits
 1221              		.align	1
 1222              		.p2align 4,,15
 1223              		.global	RCC_APB1PeriphResetCmd
 1224              		.syntax unified
 1225              		.thumb
 1226              		.thumb_func
 1227              		.fpu fpv4-sp-d16
 1228              		.type	RCC_APB1PeriphResetCmd, %function
 1229              	RCC_APB1PeriphResetCmd:
 1230              	.LFB141:
 1231              		.loc 1 2117 0
 1232              		.cfi_startproc
 1233              		@ args = 0, pretend = 0, frame = 0
 1234              		@ frame_needed = 0, uses_anonymous_args = 0
 1235              		@ link register save eliminated.
 1236              	.LVL104:
 1237              		.loc 1 2123 0
 1238 0000 044A     		ldr	r2, .L134
 1239 0002 136A     		ldr	r3, [r2, #32]
 1240              		.loc 1 2121 0
 1241 0004 19B9     		cbnz	r1, .L133
 1242              		.loc 1 2127 0
 1243 0006 23EA0000 		bic	r0, r3, r0
 1244              	.LVL105:
 1245 000a 1062     		str	r0, [r2, #32]
 1246 000c 7047     		bx	lr
 1247              	.LVL106:
 1248              	.L133:
 1249              		.loc 1 2123 0
 1250 000e 1843     		orrs	r0, r0, r3
 1251              	.LVL107:
 1252 0010 1062     		str	r0, [r2, #32]
 1253 0012 7047     		bx	lr
 1254              	.L135:
ARM GAS  C:\Users\Grillmo\AppData\Local\Temp\ccH8bAZ8.s 			page 23


 1255              		.align	2
 1256              	.L134:
 1257 0014 00380240 		.word	1073887232
 1258              		.cfi_endproc
 1259              	.LFE141:
 1260              		.size	RCC_APB1PeriphResetCmd, .-RCC_APB1PeriphResetCmd
 1261              		.section	.text.RCC_APB2PeriphResetCmd,"ax",%progbits
 1262              		.align	1
 1263              		.p2align 4,,15
 1264              		.global	RCC_APB2PeriphResetCmd
 1265              		.syntax unified
 1266              		.thumb
 1267              		.thumb_func
 1268              		.fpu fpv4-sp-d16
 1269              		.type	RCC_APB2PeriphResetCmd, %function
 1270              	RCC_APB2PeriphResetCmd:
 1271              	.LFB142:
 1272              		.loc 1 2160 0
 1273              		.cfi_startproc
 1274              		@ args = 0, pretend = 0, frame = 0
 1275              		@ frame_needed = 0, uses_anonymous_args = 0
 1276              		@ link register save eliminated.
 1277              	.LVL108:
 1278              		.loc 1 2166 0
 1279 0000 044A     		ldr	r2, .L140
 1280 0002 536A     		ldr	r3, [r2, #36]
 1281              		.loc 1 2164 0
 1282 0004 19B9     		cbnz	r1, .L139
 1283              		.loc 1 2170 0
 1284 0006 23EA0000 		bic	r0, r3, r0
 1285              	.LVL109:
 1286 000a 5062     		str	r0, [r2, #36]
 1287 000c 7047     		bx	lr
 1288              	.LVL110:
 1289              	.L139:
 1290              		.loc 1 2166 0
 1291 000e 1843     		orrs	r0, r0, r3
 1292              	.LVL111:
 1293 0010 5062     		str	r0, [r2, #36]
 1294 0012 7047     		bx	lr
 1295              	.L141:
 1296              		.align	2
 1297              	.L140:
 1298 0014 00380240 		.word	1073887232
 1299              		.cfi_endproc
 1300              	.LFE142:
 1301              		.size	RCC_APB2PeriphResetCmd, .-RCC_APB2PeriphResetCmd
 1302              		.section	.text.RCC_AHB1PeriphClockLPModeCmd,"ax",%progbits
 1303              		.align	1
 1304              		.p2align 4,,15
 1305              		.global	RCC_AHB1PeriphClockLPModeCmd
 1306              		.syntax unified
 1307              		.thumb
 1308              		.thumb_func
 1309              		.fpu fpv4-sp-d16
 1310              		.type	RCC_AHB1PeriphClockLPModeCmd, %function
 1311              	RCC_AHB1PeriphClockLPModeCmd:
ARM GAS  C:\Users\Grillmo\AppData\Local\Temp\ccH8bAZ8.s 			page 24


 1312              	.LFB143:
 1313              		.loc 1 2209 0
 1314              		.cfi_startproc
 1315              		@ args = 0, pretend = 0, frame = 0
 1316              		@ frame_needed = 0, uses_anonymous_args = 0
 1317              		@ link register save eliminated.
 1318              	.LVL112:
 1319              		.loc 1 2215 0
 1320 0000 044A     		ldr	r2, .L146
 1321 0002 136D     		ldr	r3, [r2, #80]
 1322              		.loc 1 2213 0
 1323 0004 19B9     		cbnz	r1, .L145
 1324              		.loc 1 2219 0
 1325 0006 23EA0000 		bic	r0, r3, r0
 1326              	.LVL113:
 1327 000a 1065     		str	r0, [r2, #80]
 1328 000c 7047     		bx	lr
 1329              	.LVL114:
 1330              	.L145:
 1331              		.loc 1 2215 0
 1332 000e 1843     		orrs	r0, r0, r3
 1333              	.LVL115:
 1334 0010 1065     		str	r0, [r2, #80]
 1335 0012 7047     		bx	lr
 1336              	.L147:
 1337              		.align	2
 1338              	.L146:
 1339 0014 00380240 		.word	1073887232
 1340              		.cfi_endproc
 1341              	.LFE143:
 1342              		.size	RCC_AHB1PeriphClockLPModeCmd, .-RCC_AHB1PeriphClockLPModeCmd
 1343              		.section	.text.RCC_AHB2PeriphClockLPModeCmd,"ax",%progbits
 1344              		.align	1
 1345              		.p2align 4,,15
 1346              		.global	RCC_AHB2PeriphClockLPModeCmd
 1347              		.syntax unified
 1348              		.thumb
 1349              		.thumb_func
 1350              		.fpu fpv4-sp-d16
 1351              		.type	RCC_AHB2PeriphClockLPModeCmd, %function
 1352              	RCC_AHB2PeriphClockLPModeCmd:
 1353              	.LFB144:
 1354              		.loc 1 2241 0
 1355              		.cfi_startproc
 1356              		@ args = 0, pretend = 0, frame = 0
 1357              		@ frame_needed = 0, uses_anonymous_args = 0
 1358              		@ link register save eliminated.
 1359              	.LVL116:
 1360              		.loc 1 2247 0
 1361 0000 044A     		ldr	r2, .L152
 1362 0002 536D     		ldr	r3, [r2, #84]
 1363              		.loc 1 2245 0
 1364 0004 19B9     		cbnz	r1, .L151
 1365              		.loc 1 2251 0
 1366 0006 23EA0000 		bic	r0, r3, r0
 1367              	.LVL117:
 1368 000a 5065     		str	r0, [r2, #84]
ARM GAS  C:\Users\Grillmo\AppData\Local\Temp\ccH8bAZ8.s 			page 25


 1369 000c 7047     		bx	lr
 1370              	.LVL118:
 1371              	.L151:
 1372              		.loc 1 2247 0
 1373 000e 1843     		orrs	r0, r0, r3
 1374              	.LVL119:
 1375 0010 5065     		str	r0, [r2, #84]
 1376 0012 7047     		bx	lr
 1377              	.L153:
 1378              		.align	2
 1379              	.L152:
 1380 0014 00380240 		.word	1073887232
 1381              		.cfi_endproc
 1382              	.LFE144:
 1383              		.size	RCC_AHB2PeriphClockLPModeCmd, .-RCC_AHB2PeriphClockLPModeCmd
 1384              		.section	.text.RCC_APB1PeriphClockLPModeCmd,"ax",%progbits
 1385              		.align	1
 1386              		.p2align 4,,15
 1387              		.global	RCC_APB1PeriphClockLPModeCmd
 1388              		.syntax unified
 1389              		.thumb
 1390              		.thumb_func
 1391              		.fpu fpv4-sp-d16
 1392              		.type	RCC_APB1PeriphClockLPModeCmd, %function
 1393              	RCC_APB1PeriphClockLPModeCmd:
 1394              	.LFB145:
 1395              		.loc 1 2328 0
 1396              		.cfi_startproc
 1397              		@ args = 0, pretend = 0, frame = 0
 1398              		@ frame_needed = 0, uses_anonymous_args = 0
 1399              		@ link register save eliminated.
 1400              	.LVL120:
 1401              		.loc 1 2334 0
 1402 0000 044A     		ldr	r2, .L158
 1403 0002 136E     		ldr	r3, [r2, #96]
 1404              		.loc 1 2332 0
 1405 0004 19B9     		cbnz	r1, .L157
 1406              		.loc 1 2338 0
 1407 0006 23EA0000 		bic	r0, r3, r0
 1408              	.LVL121:
 1409 000a 1066     		str	r0, [r2, #96]
 1410 000c 7047     		bx	lr
 1411              	.LVL122:
 1412              	.L157:
 1413              		.loc 1 2334 0
 1414 000e 1843     		orrs	r0, r0, r3
 1415              	.LVL123:
 1416 0010 1066     		str	r0, [r2, #96]
 1417 0012 7047     		bx	lr
 1418              	.L159:
 1419              		.align	2
 1420              	.L158:
 1421 0014 00380240 		.word	1073887232
 1422              		.cfi_endproc
 1423              	.LFE145:
 1424              		.size	RCC_APB1PeriphClockLPModeCmd, .-RCC_APB1PeriphClockLPModeCmd
 1425              		.section	.text.RCC_APB2PeriphClockLPModeCmd,"ax",%progbits
ARM GAS  C:\Users\Grillmo\AppData\Local\Temp\ccH8bAZ8.s 			page 26


 1426              		.align	1
 1427              		.p2align 4,,15
 1428              		.global	RCC_APB2PeriphClockLPModeCmd
 1429              		.syntax unified
 1430              		.thumb
 1431              		.thumb_func
 1432              		.fpu fpv4-sp-d16
 1433              		.type	RCC_APB2PeriphClockLPModeCmd, %function
 1434              	RCC_APB2PeriphClockLPModeCmd:
 1435              	.LFB146:
 1436              		.loc 1 2375 0
 1437              		.cfi_startproc
 1438              		@ args = 0, pretend = 0, frame = 0
 1439              		@ frame_needed = 0, uses_anonymous_args = 0
 1440              		@ link register save eliminated.
 1441              	.LVL124:
 1442              		.loc 1 2381 0
 1443 0000 044A     		ldr	r2, .L164
 1444 0002 536E     		ldr	r3, [r2, #100]
 1445              		.loc 1 2379 0
 1446 0004 19B9     		cbnz	r1, .L163
 1447              		.loc 1 2385 0
 1448 0006 23EA0000 		bic	r0, r3, r0
 1449              	.LVL125:
 1450 000a 5066     		str	r0, [r2, #100]
 1451 000c 7047     		bx	lr
 1452              	.LVL126:
 1453              	.L163:
 1454              		.loc 1 2381 0
 1455 000e 1843     		orrs	r0, r0, r3
 1456              	.LVL127:
 1457 0010 5066     		str	r0, [r2, #100]
 1458 0012 7047     		bx	lr
 1459              	.L165:
 1460              		.align	2
 1461              	.L164:
 1462 0014 00380240 		.word	1073887232
 1463              		.cfi_endproc
 1464              	.LFE146:
 1465              		.size	RCC_APB2PeriphClockLPModeCmd, .-RCC_APB2PeriphClockLPModeCmd
 1466              		.section	.text.RCC_LSEModeConfig,"ax",%progbits
 1467              		.align	1
 1468              		.p2align 4,,15
 1469              		.global	RCC_LSEModeConfig
 1470              		.syntax unified
 1471              		.thumb
 1472              		.thumb_func
 1473              		.fpu fpv4-sp-d16
 1474              		.type	RCC_LSEModeConfig, %function
 1475              	RCC_LSEModeConfig:
 1476              	.LFB147:
 1477              		.loc 1 2399 0
 1478              		.cfi_startproc
 1479              		@ args = 0, pretend = 0, frame = 0
 1480              		@ frame_needed = 0, uses_anonymous_args = 0
 1481              		@ link register save eliminated.
 1482              	.LVL128:
ARM GAS  C:\Users\Grillmo\AppData\Local\Temp\ccH8bAZ8.s 			page 27


 1483              		.loc 1 2405 0
 1484 0000 044A     		ldr	r2, .L169
 1485 0002 136F     		ldr	r3, [r2, #112]
 1486              		.loc 1 2403 0
 1487 0004 0128     		cmp	r0, #1
 1488              		.loc 1 2405 0
 1489 0006 0CBF     		ite	eq
 1490 0008 43F00803 		orreq	r3, r3, #8
 1491              		.loc 1 2409 0
 1492 000c 23F00803 		bicne	r3, r3, #8
 1493 0010 1367     		str	r3, [r2, #112]
 1494 0012 7047     		bx	lr
 1495              	.L170:
 1496              		.align	2
 1497              	.L169:
 1498 0014 00380240 		.word	1073887232
 1499              		.cfi_endproc
 1500              	.LFE147:
 1501              		.size	RCC_LSEModeConfig, .-RCC_LSEModeConfig
 1502              		.section	.text.RCC_ITConfig,"ax",%progbits
 1503              		.align	1
 1504              		.p2align 4,,15
 1505              		.global	RCC_ITConfig
 1506              		.syntax unified
 1507              		.thumb
 1508              		.thumb_func
 1509              		.fpu fpv4-sp-d16
 1510              		.type	RCC_ITConfig, %function
 1511              	RCC_ITConfig:
 1512              	.LFB148:
 1513              		.loc 1 2701 0
 1514              		.cfi_startproc
 1515              		@ args = 0, pretend = 0, frame = 0
 1516              		@ frame_needed = 0, uses_anonymous_args = 0
 1517              		@ link register save eliminated.
 1518              	.LVL129:
 1519              		.loc 1 2708 0
 1520 0000 044A     		ldr	r2, .L175
 1521 0002 1378     		ldrb	r3, [r2]	@ zero_extendqisi2
 1522              		.loc 1 2705 0
 1523 0004 19B9     		cbnz	r1, .L174
 1524              		.loc 1 2713 0
 1525 0006 23EA0000 		bic	r0, r3, r0
 1526              	.LVL130:
 1527 000a 1070     		strb	r0, [r2]
 1528 000c 7047     		bx	lr
 1529              	.LVL131:
 1530              	.L174:
 1531              		.loc 1 2708 0
 1532 000e 1843     		orrs	r0, r0, r3
 1533              	.LVL132:
 1534 0010 1070     		strb	r0, [r2]
 1535 0012 7047     		bx	lr
 1536              	.L176:
 1537              		.align	2
 1538              	.L175:
 1539 0014 0D380240 		.word	1073887245
ARM GAS  C:\Users\Grillmo\AppData\Local\Temp\ccH8bAZ8.s 			page 28


 1540              		.cfi_endproc
 1541              	.LFE148:
 1542              		.size	RCC_ITConfig, .-RCC_ITConfig
 1543              		.section	.text.RCC_GetFlagStatus,"ax",%progbits
 1544              		.align	1
 1545              		.p2align 4,,15
 1546              		.global	RCC_GetFlagStatus
 1547              		.syntax unified
 1548              		.thumb
 1549              		.thumb_func
 1550              		.fpu fpv4-sp-d16
 1551              		.type	RCC_GetFlagStatus, %function
 1552              	RCC_GetFlagStatus:
 1553              	.LFB149:
 1554              		.loc 1 2738 0
 1555              		.cfi_startproc
 1556              		@ args = 0, pretend = 0, frame = 0
 1557              		@ frame_needed = 0, uses_anonymous_args = 0
 1558              		@ link register save eliminated.
 1559              	.LVL133:
 1560              		.loc 1 2747 0
 1561 0000 4309     		lsrs	r3, r0, #5
 1562              	.LVL134:
 1563              		.loc 1 2748 0
 1564 0002 012B     		cmp	r3, #1
 1565 0004 0BD0     		beq	.L181
 1566              		.loc 1 2752 0
 1567 0006 022B     		cmp	r3, #2
 1568              		.loc 1 2754 0
 1569 0008 094B     		ldr	r3, .L182
 1570              	.LVL135:
 1571 000a 0CBF     		ite	eq
 1572 000c 1B6F     		ldreq	r3, [r3, #112]
 1573              	.LVL136:
 1574              		.loc 1 2758 0
 1575 000e 5B6F     		ldrne	r3, [r3, #116]
 1576              	.LVL137:
 1577              		.loc 1 2762 0
 1578 0010 00F01F00 		and	r0, r0, #31
 1579              	.LVL138:
 1580              		.loc 1 2763 0
 1581 0014 23FA00F0 		lsr	r0, r3, r0
 1582              		.loc 1 2773 0
 1583 0018 00F00100 		and	r0, r0, #1
 1584 001c 7047     		bx	lr
 1585              	.LVL139:
 1586              	.L181:
 1587              		.loc 1 2750 0
 1588 001e 044B     		ldr	r3, .L182
 1589              	.LVL140:
 1590 0020 1B68     		ldr	r3, [r3]
 1591              	.LVL141:
 1592              		.loc 1 2762 0
 1593 0022 00F01F00 		and	r0, r0, #31
 1594              	.LVL142:
 1595              		.loc 1 2763 0
 1596 0026 23FA00F0 		lsr	r0, r3, r0
ARM GAS  C:\Users\Grillmo\AppData\Local\Temp\ccH8bAZ8.s 			page 29


 1597              		.loc 1 2773 0
 1598 002a 00F00100 		and	r0, r0, #1
 1599 002e 7047     		bx	lr
 1600              	.L183:
 1601              		.align	2
 1602              	.L182:
 1603 0030 00380240 		.word	1073887232
 1604              		.cfi_endproc
 1605              	.LFE149:
 1606              		.size	RCC_GetFlagStatus, .-RCC_GetFlagStatus
 1607              		.section	.text.RCC_ClearFlag,"ax",%progbits
 1608              		.align	1
 1609              		.p2align 4,,15
 1610              		.global	RCC_ClearFlag
 1611              		.syntax unified
 1612              		.thumb
 1613              		.thumb_func
 1614              		.fpu fpv4-sp-d16
 1615              		.type	RCC_ClearFlag, %function
 1616              	RCC_ClearFlag:
 1617              	.LFB150:
 1618              		.loc 1 2783 0
 1619              		.cfi_startproc
 1620              		@ args = 0, pretend = 0, frame = 0
 1621              		@ frame_needed = 0, uses_anonymous_args = 0
 1622              		@ link register save eliminated.
 1623              		.loc 1 2785 0
 1624 0000 024A     		ldr	r2, .L185
 1625 0002 536F     		ldr	r3, [r2, #116]
 1626 0004 43F08073 		orr	r3, r3, #16777216
 1627 0008 5367     		str	r3, [r2, #116]
 1628 000a 7047     		bx	lr
 1629              	.L186:
 1630              		.align	2
 1631              	.L185:
 1632 000c 00380240 		.word	1073887232
 1633              		.cfi_endproc
 1634              	.LFE150:
 1635              		.size	RCC_ClearFlag, .-RCC_ClearFlag
 1636              		.section	.text.RCC_GetITStatus,"ax",%progbits
 1637              		.align	1
 1638              		.p2align 4,,15
 1639              		.global	RCC_GetITStatus
 1640              		.syntax unified
 1641              		.thumb
 1642              		.thumb_func
 1643              		.fpu fpv4-sp-d16
 1644              		.type	RCC_GetITStatus, %function
 1645              	RCC_GetITStatus:
 1646              	.LFB151:
 1647              		.loc 1 2803 0
 1648              		.cfi_startproc
 1649              		@ args = 0, pretend = 0, frame = 0
 1650              		@ frame_needed = 0, uses_anonymous_args = 0
 1651              		@ link register save eliminated.
 1652              	.LVL143:
 1653              		.loc 1 2810 0
ARM GAS  C:\Users\Grillmo\AppData\Local\Temp\ccH8bAZ8.s 			page 30


 1654 0000 034B     		ldr	r3, .L188
 1655 0002 DB68     		ldr	r3, [r3, #12]
 1656              	.LVL144:
 1657 0004 1842     		tst	r0, r3
 1658              		.loc 1 2820 0
 1659 0006 14BF     		ite	ne
 1660 0008 0120     		movne	r0, #1
 1661              	.LVL145:
 1662 000a 0020     		moveq	r0, #0
 1663 000c 7047     		bx	lr
 1664              	.L189:
 1665 000e 00BF     		.align	2
 1666              	.L188:
 1667 0010 00380240 		.word	1073887232
 1668              		.cfi_endproc
 1669              	.LFE151:
 1670              		.size	RCC_GetITStatus, .-RCC_GetITStatus
 1671              		.section	.text.RCC_ClearITPendingBit,"ax",%progbits
 1672              		.align	1
 1673              		.p2align 4,,15
 1674              		.global	RCC_ClearITPendingBit
 1675              		.syntax unified
 1676              		.thumb
 1677              		.thumb_func
 1678              		.fpu fpv4-sp-d16
 1679              		.type	RCC_ClearITPendingBit, %function
 1680              	RCC_ClearITPendingBit:
 1681              	.LFB152:
 1682              		.loc 1 2837 0
 1683              		.cfi_startproc
 1684              		@ args = 0, pretend = 0, frame = 0
 1685              		@ frame_needed = 0, uses_anonymous_args = 0
 1686              		@ link register save eliminated.
 1687              	.LVL146:
 1688              		.loc 1 2843 0
 1689 0000 014B     		ldr	r3, .L191
 1690 0002 1870     		strb	r0, [r3]
 1691 0004 7047     		bx	lr
 1692              	.L192:
 1693 0006 00BF     		.align	2
 1694              	.L191:
 1695 0008 0E380240 		.word	1073887246
 1696              		.cfi_endproc
 1697              	.LFE152:
 1698              		.size	RCC_ClearITPendingBit, .-RCC_ClearITPendingBit
 1699              		.section	.data.APBAHBPrescTable,"aw",%progbits
 1700              		.align	2
 1701              		.set	.LANCHOR0,. + 0
 1702              		.type	APBAHBPrescTable, %object
 1703              		.size	APBAHBPrescTable, 16
 1704              	APBAHBPrescTable:
 1705 0000 00       		.byte	0
 1706 0001 00       		.byte	0
 1707 0002 00       		.byte	0
 1708 0003 00       		.byte	0
 1709 0004 01       		.byte	1
 1710 0005 02       		.byte	2
ARM GAS  C:\Users\Grillmo\AppData\Local\Temp\ccH8bAZ8.s 			page 31


 1711 0006 03       		.byte	3
 1712 0007 04       		.byte	4
 1713 0008 01       		.byte	1
 1714 0009 02       		.byte	2
 1715 000a 03       		.byte	3
 1716 000b 04       		.byte	4
 1717 000c 06       		.byte	6
 1718 000d 07       		.byte	7
 1719 000e 08       		.byte	8
 1720 000f 09       		.byte	9
 1721              		.text
 1722              	.Letext0:
 1723              		.file 2 "c:\\chibistudio\\tools\\gnu tools arm embedded\\6.3 2017q1\\arm-none-eabi\\include\\machi
 1724              		.file 3 "c:\\chibistudio\\tools\\gnu tools arm embedded\\6.3 2017q1\\arm-none-eabi\\include\\sys\\
 1725              		.file 4 "ChibiOS_3.0.2/os/ext/CMSIS/include/core_cm4.h"
 1726              		.file 5 "ChibiOS_3.0.2/os/ext/CMSIS/ST/system_stm32f4xx.h"
 1727              		.file 6 "ChibiOS_3.0.2/os/ext/CMSIS/ST/stm32f407xx.h"
 1728              		.file 7 "ChibiOS_3.0.2/os/ext/CMSIS/ST/stm32f4xx.h"
 1729              		.file 8 "ChibiOS_3.0.2/ext/stdperiph_stm32f4/inc/stm32f4xx_rcc.h"