ARM GAS  /var/tmp//cc1bx9Rl.s 			page 1


   1              		.cpu cortex-m4
   2              		.eabi_attribute 27, 1
   3              		.eabi_attribute 28, 1
   4              		.eabi_attribute 20, 1
   5              		.eabi_attribute 21, 1
   6              		.eabi_attribute 23, 3
   7              		.eabi_attribute 24, 1
   8              		.eabi_attribute 25, 1
   9              		.eabi_attribute 26, 1
  10              		.eabi_attribute 30, 2
  11              		.eabi_attribute 34, 1
  12              		.eabi_attribute 18, 4
  13              		.file	"stm32f4xx_syscfg.c"
  14              		.text
  15              	.Ltext0:
  16              		.cfi_sections	.debug_frame
  17              		.section	.text.SYSCFG_DeInit,"ax",%progbits
  18              		.align	1
  19              		.p2align 4,,15
  20              		.global	SYSCFG_DeInit
  21              		.syntax unified
  22              		.thumb
  23              		.thumb_func
  24              		.fpu fpv4-sp-d16
  25              		.type	SYSCFG_DeInit, %function
  26              	SYSCFG_DeInit:
  27              	.LFB112:
  28              		.file 1 "ChibiOS_3.0.2/ext/stdperiph_stm32f4/src/stm32f4xx_syscfg.c"
  29              		.loc 1 104 0
  30              		.cfi_startproc
  31              		@ args = 0, pretend = 0, frame = 0
  32              		@ frame_needed = 0, uses_anonymous_args = 0
  33 0000 08B5     		push	{r3, lr}
  34              		.cfi_def_cfa_offset 8
  35              		.cfi_offset 3, -8
  36              		.cfi_offset 14, -4
  37              		.loc 1 105 0
  38 0002 0121     		movs	r1, #1
  39 0004 4FF48040 		mov	r0, #16384
  40 0008 FFF7FEFF 		bl	RCC_APB2PeriphResetCmd
  41              	.LVL0:
  42              		.loc 1 106 0
  43 000c 0021     		movs	r1, #0
  44 000e 4FF48040 		mov	r0, #16384
  45              		.loc 1 107 0
  46 0012 BDE80840 		pop	{r3, lr}
  47              		.cfi_restore 14
  48              		.cfi_restore 3
  49              		.cfi_def_cfa_offset 0
  50              		.loc 1 106 0
  51 0016 FFF7FEBF 		b	RCC_APB2PeriphResetCmd
  52              	.LVL1:
  53              		.cfi_endproc
  54              	.LFE112:
  55              		.size	SYSCFG_DeInit, .-SYSCFG_DeInit
  56 001a 00BF     		.section	.text.SYSCFG_MemoryRemapConfig,"ax",%progbits
  57              		.align	1
ARM GAS  /var/tmp//cc1bx9Rl.s 			page 2


  58              		.p2align 4,,15
  59              		.global	SYSCFG_MemoryRemapConfig
  60              		.syntax unified
  61              		.thumb
  62              		.thumb_func
  63              		.fpu fpv4-sp-d16
  64              		.type	SYSCFG_MemoryRemapConfig, %function
  65              	SYSCFG_MemoryRemapConfig:
  66              	.LFB113:
  67              		.loc 1 123 0
  68              		.cfi_startproc
  69              		@ args = 0, pretend = 0, frame = 0
  70              		@ frame_needed = 0, uses_anonymous_args = 0
  71              		@ link register save eliminated.
  72              	.LVL2:
  73              		.loc 1 127 0
  74 0000 014B     		ldr	r3, .L4
  75 0002 1860     		str	r0, [r3]
  76 0004 7047     		bx	lr
  77              	.L5:
  78 0006 00BF     		.align	2
  79              	.L4:
  80 0008 00380140 		.word	1073821696
  81              		.cfi_endproc
  82              	.LFE113:
  83              		.size	SYSCFG_MemoryRemapConfig, .-SYSCFG_MemoryRemapConfig
  84              		.section	.text.SYSCFG_MemorySwappingBank,"ax",%progbits
  85              		.align	1
  86              		.p2align 4,,15
  87              		.global	SYSCFG_MemorySwappingBank
  88              		.syntax unified
  89              		.thumb
  90              		.thumb_func
  91              		.fpu fpv4-sp-d16
  92              		.type	SYSCFG_MemorySwappingBank, %function
  93              	SYSCFG_MemorySwappingBank:
  94              	.LFB114:
  95              		.loc 1 144 0
  96              		.cfi_startproc
  97              		@ args = 0, pretend = 0, frame = 0
  98              		@ frame_needed = 0, uses_anonymous_args = 0
  99              		@ link register save eliminated.
 100              	.LVL3:
 101              		.loc 1 148 0
 102 0000 014B     		ldr	r3, .L7
 103 0002 1860     		str	r0, [r3]
 104 0004 7047     		bx	lr
 105              	.L8:
 106 0006 00BF     		.align	2
 107              	.L7:
 108 0008 20002742 		.word	1109852192
 109              		.cfi_endproc
 110              	.LFE114:
 111              		.size	SYSCFG_MemorySwappingBank, .-SYSCFG_MemorySwappingBank
 112              		.section	.text.SYSCFG_EXTILineConfig,"ax",%progbits
 113              		.align	1
 114              		.p2align 4,,15
ARM GAS  /var/tmp//cc1bx9Rl.s 			page 3


 115              		.global	SYSCFG_EXTILineConfig
 116              		.syntax unified
 117              		.thumb
 118              		.thumb_func
 119              		.fpu fpv4-sp-d16
 120              		.type	SYSCFG_EXTILineConfig, %function
 121              	SYSCFG_EXTILineConfig:
 122              	.LFB115:
 123              		.loc 1 167 0
 124              		.cfi_startproc
 125              		@ args = 0, pretend = 0, frame = 0
 126              		@ frame_needed = 0, uses_anonymous_args = 0
 127              		@ link register save eliminated.
 128              	.LVL4:
 129 0000 01F0FC03 		and	r3, r1, #252
 130 0004 03F18043 		add	r3, r3, #1073741824
 131 0008 03F59C33 		add	r3, r3, #79872
 132              		.loc 1 174 0
 133 000c 01F00301 		and	r1, r1, #3
 134              	.LVL5:
 135              		.loc 1 167 0
 136 0010 10B4     		push	{r4}
 137              		.cfi_def_cfa_offset 4
 138              		.cfi_offset 4, -4
 139              		.loc 1 175 0
 140 0012 9A68     		ldr	r2, [r3, #8]
 141              		.loc 1 174 0
 142 0014 8900     		lsls	r1, r1, #2
 143              	.LVL6:
 144 0016 0F24     		movs	r4, #15
 145 0018 8C40     		lsls	r4, r4, r1
 146              	.LVL7:
 147              		.loc 1 175 0
 148 001a 22EA0402 		bic	r2, r2, r4
 149 001e 9A60     		str	r2, [r3, #8]
 150              		.loc 1 176 0
 151 0020 9A68     		ldr	r2, [r3, #8]
 152              		.loc 1 177 0
 153 0022 5DF8044B 		ldr	r4, [sp], #4
 154              		.cfi_restore 4
 155              		.cfi_def_cfa_offset 0
 156              	.LVL8:
 157              		.loc 1 176 0
 158 0026 00FA01F1 		lsl	r1, r0, r1
 159              	.LVL9:
 160 002a 1143     		orrs	r1, r1, r2
 161 002c 9960     		str	r1, [r3, #8]
 162              		.loc 1 177 0
 163 002e 7047     		bx	lr
 164              		.cfi_endproc
 165              	.LFE115:
 166              		.size	SYSCFG_EXTILineConfig, .-SYSCFG_EXTILineConfig
 167              		.section	.text.SYSCFG_ETH_MediaInterfaceConfig,"ax",%progbits
 168              		.align	1
 169              		.p2align 4,,15
 170              		.global	SYSCFG_ETH_MediaInterfaceConfig
 171              		.syntax unified
ARM GAS  /var/tmp//cc1bx9Rl.s 			page 4


 172              		.thumb
 173              		.thumb_func
 174              		.fpu fpv4-sp-d16
 175              		.type	SYSCFG_ETH_MediaInterfaceConfig, %function
 176              	SYSCFG_ETH_MediaInterfaceConfig:
 177              	.LFB116:
 178              		.loc 1 188 0
 179              		.cfi_startproc
 180              		@ args = 0, pretend = 0, frame = 0
 181              		@ frame_needed = 0, uses_anonymous_args = 0
 182              		@ link register save eliminated.
 183              	.LVL10:
 184              		.loc 1 191 0
 185 0000 014B     		ldr	r3, .L12
 186 0002 1860     		str	r0, [r3]
 187 0004 7047     		bx	lr
 188              	.L13:
 189 0006 00BF     		.align	2
 190              	.L12:
 191 0008 DC002742 		.word	1109852380
 192              		.cfi_endproc
 193              	.LFE116:
 194              		.size	SYSCFG_ETH_MediaInterfaceConfig, .-SYSCFG_ETH_MediaInterfaceConfig
 195              		.section	.text.SYSCFG_CompensationCellCmd,"ax",%progbits
 196              		.align	1
 197              		.p2align 4,,15
 198              		.global	SYSCFG_CompensationCellCmd
 199              		.syntax unified
 200              		.thumb
 201              		.thumb_func
 202              		.fpu fpv4-sp-d16
 203              		.type	SYSCFG_CompensationCellCmd, %function
 204              	SYSCFG_CompensationCellCmd:
 205              	.LFB117:
 206              		.loc 1 205 0
 207              		.cfi_startproc
 208              		@ args = 0, pretend = 0, frame = 0
 209              		@ frame_needed = 0, uses_anonymous_args = 0
 210              		@ link register save eliminated.
 211              	.LVL11:
 212              		.loc 1 209 0
 213 0000 014B     		ldr	r3, .L15
 214 0002 1860     		str	r0, [r3]
 215 0004 7047     		bx	lr
 216              	.L16:
 217 0006 00BF     		.align	2
 218              	.L15:
 219 0008 00042742 		.word	1109853184
 220              		.cfi_endproc
 221              	.LFE117:
 222              		.size	SYSCFG_CompensationCellCmd, .-SYSCFG_CompensationCellCmd
 223              		.section	.text.SYSCFG_GetCompensationCellStatus,"ax",%progbits
 224              		.align	1
 225              		.p2align 4,,15
 226              		.global	SYSCFG_GetCompensationCellStatus
 227              		.syntax unified
 228              		.thumb
ARM GAS  /var/tmp//cc1bx9Rl.s 			page 5


 229              		.thumb_func
 230              		.fpu fpv4-sp-d16
 231              		.type	SYSCFG_GetCompensationCellStatus, %function
 232              	SYSCFG_GetCompensationCellStatus:
 233              	.LFB118:
 234              		.loc 1 218 0
 235              		.cfi_startproc
 236              		@ args = 0, pretend = 0, frame = 0
 237              		@ frame_needed = 0, uses_anonymous_args = 0
 238              		@ link register save eliminated.
 239              	.LVL12:
 240              		.loc 1 221 0
 241 0000 024B     		ldr	r3, .L18
 242 0002 186A     		ldr	r0, [r3, #32]
 243              	.LVL13:
 244              		.loc 1 230 0
 245 0004 C0F30020 		ubfx	r0, r0, #8, #1
 246              	.LVL14:
 247 0008 7047     		bx	lr
 248              	.L19:
 249 000a 00BF     		.align	2
 250              	.L18:
 251 000c 00380140 		.word	1073821696
 252              		.cfi_endproc
 253              	.LFE118:
 254              		.size	SYSCFG_GetCompensationCellStatus, .-SYSCFG_GetCompensationCellStatus
 255              		.text
 256              	.Letext0:
 257              		.file 2 "/usr/local/gcc_arm/gcc-arm-none-eabi-6-2017-q2-update/arm-none-eabi/include/machine/_defa
 258              		.file 3 "/usr/local/gcc_arm/gcc-arm-none-eabi-6-2017-q2-update/arm-none-eabi/include/sys/_stdint.h
 259              		.file 4 "ChibiOS_3.0.2/os/ext/CMSIS/include/core_cm4.h"
 260              		.file 5 "ChibiOS_3.0.2/os/ext/CMSIS/ST/system_stm32f4xx.h"
 261              		.file 6 "ChibiOS_3.0.2/os/ext/CMSIS/ST/stm32f407xx.h"
 262              		.file 7 "ChibiOS_3.0.2/os/ext/CMSIS/ST/stm32f4xx.h"
 263              		.file 8 "ChibiOS_3.0.2/ext/stdperiph_stm32f4/inc/stm32f4xx_rcc.h"