ARM GAS  /var/tmp//cchFKXLG.s 			page 1


   1              		.cpu cortex-m4
   2              		.eabi_attribute 27, 1
   3              		.eabi_attribute 28, 1
   4              		.eabi_attribute 20, 1
   5              		.eabi_attribute 21, 1
   6              		.eabi_attribute 23, 3
   7              		.eabi_attribute 24, 1
   8              		.eabi_attribute 25, 1
   9              		.eabi_attribute 26, 1
  10              		.eabi_attribute 30, 2
  11              		.eabi_attribute 34, 1
  12              		.eabi_attribute 18, 4
  13              		.file	"uart.c"
  14              		.text
  15              	.Ltext0:
  16              		.cfi_sections	.debug_frame
  17              		.section	.text.uartInit,"ax",%progbits
  18              		.align	1
  19              		.p2align 4,,15
  20              		.global	uartInit
  21              		.syntax unified
  22              		.thumb
  23              		.thumb_func
  24              		.fpu fpv4-sp-d16
  25              		.type	uartInit, %function
  26              	uartInit:
  27              	.LFB256:
  28              		.file 1 "ChibiOS_3.0.2/os/hal/src/uart.c"
  29              		.loc 1 56 0
  30              		.cfi_startproc
  31              		@ args = 0, pretend = 0, frame = 0
  32              		@ frame_needed = 0, uses_anonymous_args = 0
  33              		@ link register save eliminated.
  34              		.loc 1 58 0
  35 0000 FFF7FEBF 		b	uart_lld_init
  36              	.LVL0:
  37              		.cfi_endproc
  38              	.LFE256:
  39              		.size	uartInit, .-uartInit
  40              		.section	.text.uartObjectInit,"ax",%progbits
  41              		.align	1
  42              		.p2align 4,,15
  43              		.global	uartObjectInit
  44              		.syntax unified
  45              		.thumb
  46              		.thumb_func
  47              		.fpu fpv4-sp-d16
  48              		.type	uartObjectInit, %function
  49              	uartObjectInit:
  50              	.LFB257:
  51              		.loc 1 68 0
  52              		.cfi_startproc
  53              		@ args = 0, pretend = 0, frame = 0
  54              		@ frame_needed = 0, uses_anonymous_args = 0
  55              		@ link register save eliminated.
  56              	.LVL1:
  57              		.loc 1 71 0
ARM GAS  /var/tmp//cchFKXLG.s 			page 2


  58 0000 0023     		movs	r3, #0
  59              		.loc 1 70 0
  60 0002 0122     		movs	r2, #1
  61 0004 0270     		strb	r2, [r0]
  62              		.loc 1 71 0
  63 0006 4370     		strb	r3, [r0, #1]
  64              		.loc 1 72 0
  65 0008 8370     		strb	r3, [r0, #2]
  66              		.loc 1 73 0
  67 000a 4360     		str	r3, [r0, #4]
  68 000c 7047     		bx	lr
  69              		.cfi_endproc
  70              	.LFE257:
  71              		.size	uartObjectInit, .-uartObjectInit
  72 000e 00BF     		.section	.text.uartStart,"ax",%progbits
  73              		.align	1
  74              		.p2align 4,,15
  75              		.global	uartStart
  76              		.syntax unified
  77              		.thumb
  78              		.thumb_func
  79              		.fpu fpv4-sp-d16
  80              		.type	uartStart, %function
  81              	uartStart:
  82              	.LFB258:
  83              		.loc 1 88 0
  84              		.cfi_startproc
  85              		@ args = 0, pretend = 0, frame = 0
  86              		@ frame_needed = 0, uses_anonymous_args = 0
  87              	.LVL2:
  88 0000 10B5     		push	{r4, lr}
  89              		.cfi_def_cfa_offset 8
  90              		.cfi_offset 4, -8
  91              		.cfi_offset 14, -4
  92              	.LBB102:
  93              	.LBB103:
  94              	.LBB104:
  95              	.LBB105:
  96              	.LBB106:
  97              		.file 2 "ChibiOS_3.0.2/os/ext/CMSIS/include/core_cmFunc.h"
  98              		.loc 2 546 0
  99 0002 2023     		movs	r3, #32
 100              	.LBE106:
 101              	.LBE105:
 102              	.LBE104:
 103              	.LBE103:
 104              	.LBE102:
 105              		.loc 1 88 0
 106 0004 0446     		mov	r4, r0
 107              	.LBB111:
 108              	.LBB110:
 109              	.LBB109:
 110              	.LBB108:
 111              	.LBB107:
 112              		.loc 2 546 0
 113              		.syntax unified
 114              	@ 546 "ChibiOS_3.0.2/os/ext/CMSIS/include/core_cmFunc.h" 1
ARM GAS  /var/tmp//cchFKXLG.s 			page 3


 115 0006 83F31188 		MSR basepri, r3
 116              	@ 0 "" 2
 117              	.LVL3:
 118              		.thumb
 119              		.syntax unified
 120              	.LBE107:
 121              	.LBE108:
 122              	.LBE109:
 123              	.LBE110:
 124              	.LBE111:
 125              		.loc 1 96 0
 126 000a 4160     		str	r1, [r0, #4]
 127              		.loc 1 97 0
 128 000c FFF7FEFF 		bl	uart_lld_start
 129              	.LVL4:
 130              		.loc 1 98 0
 131 0010 0223     		movs	r3, #2
 132 0012 2370     		strb	r3, [r4]
 133              	.LVL5:
 134              	.LBB112:
 135              	.LBB113:
 136              	.LBB114:
 137              	.LBB115:
 138              	.LBB116:
 139              	.LBB117:
 140              		.loc 2 546 0
 141 0014 0023     		movs	r3, #0
 142              		.syntax unified
 143              	@ 546 "ChibiOS_3.0.2/os/ext/CMSIS/include/core_cmFunc.h" 1
 144 0016 83F31188 		MSR basepri, r3
 145              	@ 0 "" 2
 146              	.LVL6:
 147              		.thumb
 148              		.syntax unified
 149 001a 10BD     		pop	{r4, pc}
 150              	.LBE117:
 151              	.LBE116:
 152              	.LBE115:
 153              	.LBE114:
 154              	.LBE113:
 155              	.LBE112:
 156              		.cfi_endproc
 157              	.LFE258:
 158              		.size	uartStart, .-uartStart
 159              		.section	.text.uartStop,"ax",%progbits
 160              		.align	1
 161              		.p2align 4,,15
 162              		.global	uartStop
 163              		.syntax unified
 164              		.thumb
 165              		.thumb_func
 166              		.fpu fpv4-sp-d16
 167              		.type	uartStop, %function
 168              	uartStop:
 169              	.LFB259:
 170              		.loc 1 109 0
 171              		.cfi_startproc
ARM GAS  /var/tmp//cchFKXLG.s 			page 4


 172              		@ args = 0, pretend = 0, frame = 0
 173              		@ frame_needed = 0, uses_anonymous_args = 0
 174              	.LVL7:
 175 0000 10B5     		push	{r4, lr}
 176              		.cfi_def_cfa_offset 8
 177              		.cfi_offset 4, -8
 178              		.cfi_offset 14, -4
 179              	.LBB118:
 180              	.LBB119:
 181              	.LBB120:
 182              	.LBB121:
 183              	.LBB122:
 184              		.loc 2 546 0
 185 0002 2023     		movs	r3, #32
 186              	.LBE122:
 187              	.LBE121:
 188              	.LBE120:
 189              	.LBE119:
 190              	.LBE118:
 191              		.loc 1 109 0
 192 0004 0446     		mov	r4, r0
 193              	.LBB127:
 194              	.LBB126:
 195              	.LBB125:
 196              	.LBB124:
 197              	.LBB123:
 198              		.loc 2 546 0
 199              		.syntax unified
 200              	@ 546 "ChibiOS_3.0.2/os/ext/CMSIS/include/core_cmFunc.h" 1
 201 0006 83F31188 		MSR basepri, r3
 202              	@ 0 "" 2
 203              	.LVL8:
 204              		.thumb
 205              		.syntax unified
 206              	.LBE123:
 207              	.LBE124:
 208              	.LBE125:
 209              	.LBE126:
 210              	.LBE127:
 211              		.loc 1 117 0
 212 000a FFF7FEFF 		bl	uart_lld_stop
 213              	.LVL9:
 214              		.loc 1 119 0
 215 000e 0023     		movs	r3, #0
 216              		.loc 1 118 0
 217 0010 0122     		movs	r2, #1
 218 0012 2270     		strb	r2, [r4]
 219              		.loc 1 119 0
 220 0014 6370     		strb	r3, [r4, #1]
 221              		.loc 1 120 0
 222 0016 A370     		strb	r3, [r4, #2]
 223              	.LVL10:
 224              	.LBB128:
 225              	.LBB129:
 226              	.LBB130:
 227              	.LBB131:
 228              	.LBB132:
ARM GAS  /var/tmp//cchFKXLG.s 			page 5


 229              	.LBB133:
 230              		.loc 2 546 0
 231              		.syntax unified
 232              	@ 546 "ChibiOS_3.0.2/os/ext/CMSIS/include/core_cmFunc.h" 1
 233 0018 83F31188 		MSR basepri, r3
 234              	@ 0 "" 2
 235              	.LVL11:
 236              		.thumb
 237              		.syntax unified
 238 001c 10BD     		pop	{r4, pc}
 239              	.LBE133:
 240              	.LBE132:
 241              	.LBE131:
 242              	.LBE130:
 243              	.LBE129:
 244              	.LBE128:
 245              		.cfi_endproc
 246              	.LFE259:
 247              		.size	uartStop, .-uartStop
 248 001e 00BF     		.section	.text.uartStartSend,"ax",%progbits
 249              		.align	1
 250              		.p2align 4,,15
 251              		.global	uartStartSend
 252              		.syntax unified
 253              		.thumb
 254              		.thumb_func
 255              		.fpu fpv4-sp-d16
 256              		.type	uartStartSend, %function
 257              	uartStartSend:
 258              	.LFB260:
 259              		.loc 1 135 0
 260              		.cfi_startproc
 261              		@ args = 0, pretend = 0, frame = 0
 262              		@ frame_needed = 0, uses_anonymous_args = 0
 263              	.LVL12:
 264 0000 10B5     		push	{r4, lr}
 265              		.cfi_def_cfa_offset 8
 266              		.cfi_offset 4, -8
 267              		.cfi_offset 14, -4
 268              	.LBB134:
 269              	.LBB135:
 270              	.LBB136:
 271              	.LBB137:
 272              	.LBB138:
 273              		.loc 2 546 0
 274 0002 2023     		movs	r3, #32
 275              	.LBE138:
 276              	.LBE137:
 277              	.LBE136:
 278              	.LBE135:
 279              	.LBE134:
 280              		.loc 1 135 0
 281 0004 0446     		mov	r4, r0
 282              	.LBB143:
 283              	.LBB142:
 284              	.LBB141:
 285              	.LBB140:
ARM GAS  /var/tmp//cchFKXLG.s 			page 6


 286              	.LBB139:
 287              		.loc 2 546 0
 288              		.syntax unified
 289              	@ 546 "ChibiOS_3.0.2/os/ext/CMSIS/include/core_cmFunc.h" 1
 290 0006 83F31188 		MSR basepri, r3
 291              	@ 0 "" 2
 292              	.LVL13:
 293              		.thumb
 294              		.syntax unified
 295              	.LBE139:
 296              	.LBE140:
 297              	.LBE141:
 298              	.LBE142:
 299              	.LBE143:
 300              		.loc 1 143 0
 301 000a FFF7FEFF 		bl	uart_lld_start_send
 302              	.LVL14:
 303              		.loc 1 144 0
 304 000e 0123     		movs	r3, #1
 305 0010 6370     		strb	r3, [r4, #1]
 306              	.LVL15:
 307              	.LBB144:
 308              	.LBB145:
 309              	.LBB146:
 310              	.LBB147:
 311              	.LBB148:
 312              	.LBB149:
 313              		.loc 2 546 0
 314 0012 0023     		movs	r3, #0
 315              		.syntax unified
 316              	@ 546 "ChibiOS_3.0.2/os/ext/CMSIS/include/core_cmFunc.h" 1
 317 0014 83F31188 		MSR basepri, r3
 318              	@ 0 "" 2
 319              	.LVL16:
 320              		.thumb
 321              		.syntax unified
 322 0018 10BD     		pop	{r4, pc}
 323              	.LBE149:
 324              	.LBE148:
 325              	.LBE147:
 326              	.LBE146:
 327              	.LBE145:
 328              	.LBE144:
 329              		.cfi_endproc
 330              	.LFE260:
 331              		.size	uartStartSend, .-uartStartSend
 332 001a 00BF     		.section	.text.uartStartSendI,"ax",%progbits
 333              		.align	1
 334              		.p2align 4,,15
 335              		.global	uartStartSendI
 336              		.syntax unified
 337              		.thumb
 338              		.thumb_func
 339              		.fpu fpv4-sp-d16
 340              		.type	uartStartSendI, %function
 341              	uartStartSendI:
 342              	.LFB261:
ARM GAS  /var/tmp//cchFKXLG.s 			page 7


 343              		.loc 1 160 0
 344              		.cfi_startproc
 345              		@ args = 0, pretend = 0, frame = 0
 346              		@ frame_needed = 0, uses_anonymous_args = 0
 347              	.LVL17:
 348 0000 10B5     		push	{r4, lr}
 349              		.cfi_def_cfa_offset 8
 350              		.cfi_offset 4, -8
 351              		.cfi_offset 14, -4
 352              		.loc 1 160 0
 353 0002 0446     		mov	r4, r0
 354              		.loc 1 167 0
 355 0004 FFF7FEFF 		bl	uart_lld_start_send
 356              	.LVL18:
 357              		.loc 1 168 0
 358 0008 0123     		movs	r3, #1
 359 000a 6370     		strb	r3, [r4, #1]
 360 000c 10BD     		pop	{r4, pc}
 361              		.cfi_endproc
 362              	.LFE261:
 363              		.size	uartStartSendI, .-uartStartSendI
 364 000e 00BF     		.section	.text.uartStopSend,"ax",%progbits
 365              		.align	1
 366              		.p2align 4,,15
 367              		.global	uartStopSend
 368              		.syntax unified
 369              		.thumb
 370              		.thumb_func
 371              		.fpu fpv4-sp-d16
 372              		.type	uartStopSend, %function
 373              	uartStopSend:
 374              	.LFB262:
 375              		.loc 1 183 0
 376              		.cfi_startproc
 377              		@ args = 0, pretend = 0, frame = 0
 378              		@ frame_needed = 0, uses_anonymous_args = 0
 379              	.LVL19:
 380              	.LBB150:
 381              	.LBB151:
 382              	.LBB152:
 383              	.LBB153:
 384              	.LBB154:
 385              		.loc 2 546 0
 386 0000 2022     		movs	r2, #32
 387              		.syntax unified
 388              	@ 546 "ChibiOS_3.0.2/os/ext/CMSIS/include/core_cmFunc.h" 1
 389 0002 82F31188 		MSR basepri, r2
 390              	@ 0 "" 2
 391              	.LVL20:
 392              		.thumb
 393              		.syntax unified
 394              	.LBE154:
 395              	.LBE153:
 396              	.LBE152:
 397              	.LBE151:
 398              	.LBE150:
 399              		.loc 1 191 0
ARM GAS  /var/tmp//cchFKXLG.s 			page 8


 400 0006 4278     		ldrb	r2, [r0, #1]	@ zero_extendqisi2
 401 0008 012A     		cmp	r2, #1
 402 000a 04D0     		beq	.L19
 403              		.loc 1 196 0
 404 000c 0020     		movs	r0, #0
 405              	.LVL21:
 406              	.LBB155:
 407              	.LBB156:
 408              	.LBB157:
 409              	.LBB158:
 410              	.LBB159:
 411              	.LBB160:
 412              		.loc 2 546 0
 413 000e 0023     		movs	r3, #0
 414              		.syntax unified
 415              	@ 546 "ChibiOS_3.0.2/os/ext/CMSIS/include/core_cmFunc.h" 1
 416 0010 83F31188 		MSR basepri, r3
 417              	@ 0 "" 2
 418              	.LVL22:
 419              		.thumb
 420              		.syntax unified
 421              	.LBE160:
 422              	.LBE159:
 423              	.LBE158:
 424              	.LBE157:
 425              	.LBE156:
 426              	.LBE155:
 427              		.loc 1 201 0
 428 0014 7047     		bx	lr
 429              	.LVL23:
 430              	.L19:
 431              		.loc 1 183 0
 432 0016 10B5     		push	{r4, lr}
 433              		.cfi_def_cfa_offset 8
 434              		.cfi_offset 4, -8
 435              		.cfi_offset 14, -4
 436 0018 0446     		mov	r4, r0
 437              		.loc 1 192 0
 438 001a FFF7FEFF 		bl	uart_lld_stop_send
 439              	.LVL24:
 440              		.loc 1 193 0
 441 001e 0023     		movs	r3, #0
 442 0020 6370     		strb	r3, [r4, #1]
 443              	.LVL25:
 444              	.LBB166:
 445              	.LBB165:
 446              	.LBB164:
 447              	.LBB163:
 448              	.LBB162:
 449              	.LBB161:
 450              		.loc 2 546 0
 451 0022 0023     		movs	r3, #0
 452              		.syntax unified
 453              	@ 546 "ChibiOS_3.0.2/os/ext/CMSIS/include/core_cmFunc.h" 1
 454 0024 83F31188 		MSR basepri, r3
 455              	@ 0 "" 2
 456              	.LVL26:
ARM GAS  /var/tmp//cchFKXLG.s 			page 9


 457              		.thumb
 458              		.syntax unified
 459              	.LBE161:
 460              	.LBE162:
 461              	.LBE163:
 462              	.LBE164:
 463              	.LBE165:
 464              	.LBE166:
 465              		.loc 1 201 0
 466 0028 10BD     		pop	{r4, pc}
 467              		.cfi_endproc
 468              	.LFE262:
 469              		.size	uartStopSend, .-uartStopSend
 470 002a 00BF     		.section	.text.uartStopSendI,"ax",%progbits
 471              		.align	1
 472              		.p2align 4,,15
 473              		.global	uartStopSendI
 474              		.syntax unified
 475              		.thumb
 476              		.thumb_func
 477              		.fpu fpv4-sp-d16
 478              		.type	uartStopSendI, %function
 479              	uartStopSendI:
 480              	.LFB263:
 481              		.loc 1 216 0
 482              		.cfi_startproc
 483              		@ args = 0, pretend = 0, frame = 0
 484              		@ frame_needed = 0, uses_anonymous_args = 0
 485              	.LVL27:
 486              		.loc 1 222 0
 487 0000 4278     		ldrb	r2, [r0, #1]	@ zero_extendqisi2
 488 0002 012A     		cmp	r2, #1
 489 0004 01D0     		beq	.L27
 490              		.loc 1 227 0
 491 0006 0020     		movs	r0, #0
 492              	.LVL28:
 493 0008 7047     		bx	lr
 494              	.LVL29:
 495              	.L27:
 496              		.loc 1 216 0
 497 000a 10B5     		push	{r4, lr}
 498              		.cfi_def_cfa_offset 8
 499              		.cfi_offset 4, -8
 500              		.cfi_offset 14, -4
 501 000c 0446     		mov	r4, r0
 502              	.LBB167:
 503              		.loc 1 223 0
 504 000e FFF7FEFF 		bl	uart_lld_stop_send
 505              	.LVL30:
 506              		.loc 1 224 0
 507 0012 0023     		movs	r3, #0
 508 0014 6370     		strb	r3, [r4, #1]
 509              		.loc 1 225 0
 510 0016 10BD     		pop	{r4, pc}
 511              	.LBE167:
 512              		.cfi_endproc
 513              	.LFE263:
ARM GAS  /var/tmp//cchFKXLG.s 			page 10


 514              		.size	uartStopSendI, .-uartStopSendI
 515              		.section	.text.uartStartReceive,"ax",%progbits
 516              		.align	1
 517              		.p2align 4,,15
 518              		.global	uartStartReceive
 519              		.syntax unified
 520              		.thumb
 521              		.thumb_func
 522              		.fpu fpv4-sp-d16
 523              		.type	uartStartReceive, %function
 524              	uartStartReceive:
 525              	.LFB264:
 526              		.loc 1 241 0
 527              		.cfi_startproc
 528              		@ args = 0, pretend = 0, frame = 0
 529              		@ frame_needed = 0, uses_anonymous_args = 0
 530              	.LVL31:
 531 0000 10B5     		push	{r4, lr}
 532              		.cfi_def_cfa_offset 8
 533              		.cfi_offset 4, -8
 534              		.cfi_offset 14, -4
 535              	.LBB168:
 536              	.LBB169:
 537              	.LBB170:
 538              	.LBB171:
 539              	.LBB172:
 540              		.loc 2 546 0
 541 0002 2023     		movs	r3, #32
 542              	.LBE172:
 543              	.LBE171:
 544              	.LBE170:
 545              	.LBE169:
 546              	.LBE168:
 547              		.loc 1 241 0
 548 0004 0446     		mov	r4, r0
 549              	.LBB177:
 550              	.LBB176:
 551              	.LBB175:
 552              	.LBB174:
 553              	.LBB173:
 554              		.loc 2 546 0
 555              		.syntax unified
 556              	@ 546 "ChibiOS_3.0.2/os/ext/CMSIS/include/core_cmFunc.h" 1
 557 0006 83F31188 		MSR basepri, r3
 558              	@ 0 "" 2
 559              	.LVL32:
 560              		.thumb
 561              		.syntax unified
 562              	.LBE173:
 563              	.LBE174:
 564              	.LBE175:
 565              	.LBE176:
 566              	.LBE177:
 567              		.loc 1 249 0
 568 000a FFF7FEFF 		bl	uart_lld_start_receive
 569              	.LVL33:
 570              		.loc 1 250 0
ARM GAS  /var/tmp//cchFKXLG.s 			page 11


 571 000e 0123     		movs	r3, #1
 572 0010 A370     		strb	r3, [r4, #2]
 573              	.LVL34:
 574              	.LBB178:
 575              	.LBB179:
 576              	.LBB180:
 577              	.LBB181:
 578              	.LBB182:
 579              	.LBB183:
 580              		.loc 2 546 0
 581 0012 0023     		movs	r3, #0
 582              		.syntax unified
 583              	@ 546 "ChibiOS_3.0.2/os/ext/CMSIS/include/core_cmFunc.h" 1
 584 0014 83F31188 		MSR basepri, r3
 585              	@ 0 "" 2
 586              	.LVL35:
 587              		.thumb
 588              		.syntax unified
 589 0018 10BD     		pop	{r4, pc}
 590              	.LBE183:
 591              	.LBE182:
 592              	.LBE181:
 593              	.LBE180:
 594              	.LBE179:
 595              	.LBE178:
 596              		.cfi_endproc
 597              	.LFE264:
 598              		.size	uartStartReceive, .-uartStartReceive
 599 001a 00BF     		.section	.text.uartStartReceiveI,"ax",%progbits
 600              		.align	1
 601              		.p2align 4,,15
 602              		.global	uartStartReceiveI
 603              		.syntax unified
 604              		.thumb
 605              		.thumb_func
 606              		.fpu fpv4-sp-d16
 607              		.type	uartStartReceiveI, %function
 608              	uartStartReceiveI:
 609              	.LFB265:
 610              		.loc 1 266 0
 611              		.cfi_startproc
 612              		@ args = 0, pretend = 0, frame = 0
 613              		@ frame_needed = 0, uses_anonymous_args = 0
 614              	.LVL36:
 615 0000 10B5     		push	{r4, lr}
 616              		.cfi_def_cfa_offset 8
 617              		.cfi_offset 4, -8
 618              		.cfi_offset 14, -4
 619              		.loc 1 266 0
 620 0002 0446     		mov	r4, r0
 621              		.loc 1 273 0
 622 0004 FFF7FEFF 		bl	uart_lld_start_receive
 623              	.LVL37:
 624              		.loc 1 274 0
 625 0008 0123     		movs	r3, #1
 626 000a A370     		strb	r3, [r4, #2]
 627 000c 10BD     		pop	{r4, pc}
ARM GAS  /var/tmp//cchFKXLG.s 			page 12


 628              		.cfi_endproc
 629              	.LFE265:
 630              		.size	uartStartReceiveI, .-uartStartReceiveI
 631 000e 00BF     		.section	.text.uartStopReceive,"ax",%progbits
 632              		.align	1
 633              		.p2align 4,,15
 634              		.global	uartStopReceive
 635              		.syntax unified
 636              		.thumb
 637              		.thumb_func
 638              		.fpu fpv4-sp-d16
 639              		.type	uartStopReceive, %function
 640              	uartStopReceive:
 641              	.LFB266:
 642              		.loc 1 289 0
 643              		.cfi_startproc
 644              		@ args = 0, pretend = 0, frame = 0
 645              		@ frame_needed = 0, uses_anonymous_args = 0
 646              	.LVL38:
 647              	.LBB184:
 648              	.LBB185:
 649              	.LBB186:
 650              	.LBB187:
 651              	.LBB188:
 652              		.loc 2 546 0
 653 0000 2022     		movs	r2, #32
 654              		.syntax unified
 655              	@ 546 "ChibiOS_3.0.2/os/ext/CMSIS/include/core_cmFunc.h" 1
 656 0002 82F31188 		MSR basepri, r2
 657              	@ 0 "" 2
 658              	.LVL39:
 659              		.thumb
 660              		.syntax unified
 661              	.LBE188:
 662              	.LBE187:
 663              	.LBE186:
 664              	.LBE185:
 665              	.LBE184:
 666              		.loc 1 297 0
 667 0006 8278     		ldrb	r2, [r0, #2]	@ zero_extendqisi2
 668 0008 012A     		cmp	r2, #1
 669 000a 04D0     		beq	.L39
 670              		.loc 1 302 0
 671 000c 0020     		movs	r0, #0
 672              	.LVL40:
 673              	.LBB189:
 674              	.LBB190:
 675              	.LBB191:
 676              	.LBB192:
 677              	.LBB193:
 678              	.LBB194:
 679              		.loc 2 546 0
 680 000e 0023     		movs	r3, #0
 681              		.syntax unified
 682              	@ 546 "ChibiOS_3.0.2/os/ext/CMSIS/include/core_cmFunc.h" 1
 683 0010 83F31188 		MSR basepri, r3
 684              	@ 0 "" 2
ARM GAS  /var/tmp//cchFKXLG.s 			page 13


 685              	.LVL41:
 686              		.thumb
 687              		.syntax unified
 688              	.LBE194:
 689              	.LBE193:
 690              	.LBE192:
 691              	.LBE191:
 692              	.LBE190:
 693              	.LBE189:
 694              		.loc 1 307 0
 695 0014 7047     		bx	lr
 696              	.LVL42:
 697              	.L39:
 698              		.loc 1 289 0
 699 0016 10B5     		push	{r4, lr}
 700              		.cfi_def_cfa_offset 8
 701              		.cfi_offset 4, -8
 702              		.cfi_offset 14, -4
 703 0018 0446     		mov	r4, r0
 704              		.loc 1 298 0
 705 001a FFF7FEFF 		bl	uart_lld_stop_receive
 706              	.LVL43:
 707              		.loc 1 299 0
 708 001e 0023     		movs	r3, #0
 709 0020 A370     		strb	r3, [r4, #2]
 710              	.LVL44:
 711              	.LBB200:
 712              	.LBB199:
 713              	.LBB198:
 714              	.LBB197:
 715              	.LBB196:
 716              	.LBB195:
 717              		.loc 2 546 0
 718 0022 0023     		movs	r3, #0
 719              		.syntax unified
 720              	@ 546 "ChibiOS_3.0.2/os/ext/CMSIS/include/core_cmFunc.h" 1
 721 0024 83F31188 		MSR basepri, r3
 722              	@ 0 "" 2
 723              	.LVL45:
 724              		.thumb
 725              		.syntax unified
 726              	.LBE195:
 727              	.LBE196:
 728              	.LBE197:
 729              	.LBE198:
 730              	.LBE199:
 731              	.LBE200:
 732              		.loc 1 307 0
 733 0028 10BD     		pop	{r4, pc}
 734              		.cfi_endproc
 735              	.LFE266:
 736              		.size	uartStopReceive, .-uartStopReceive
 737 002a 00BF     		.section	.text.uartStopReceiveI,"ax",%progbits
 738              		.align	1
 739              		.p2align 4,,15
 740              		.global	uartStopReceiveI
 741              		.syntax unified
ARM GAS  /var/tmp//cchFKXLG.s 			page 14


 742              		.thumb
 743              		.thumb_func
 744              		.fpu fpv4-sp-d16
 745              		.type	uartStopReceiveI, %function
 746              	uartStopReceiveI:
 747              	.LFB267:
 748              		.loc 1 322 0
 749              		.cfi_startproc
 750              		@ args = 0, pretend = 0, frame = 0
 751              		@ frame_needed = 0, uses_anonymous_args = 0
 752              	.LVL46:
 753              		.loc 1 328 0
 754 0000 8278     		ldrb	r2, [r0, #2]	@ zero_extendqisi2
 755 0002 012A     		cmp	r2, #1
 756 0004 01D0     		beq	.L47
 757              		.loc 1 333 0
 758 0006 0020     		movs	r0, #0
 759              	.LVL47:
 760 0008 7047     		bx	lr
 761              	.LVL48:
 762              	.L47:
 763              		.loc 1 322 0
 764 000a 10B5     		push	{r4, lr}
 765              		.cfi_def_cfa_offset 8
 766              		.cfi_offset 4, -8
 767              		.cfi_offset 14, -4
 768 000c 0446     		mov	r4, r0
 769              	.LBB201:
 770              		.loc 1 329 0
 771 000e FFF7FEFF 		bl	uart_lld_stop_receive
 772              	.LVL49:
 773              		.loc 1 330 0
 774 0012 0023     		movs	r3, #0
 775 0014 A370     		strb	r3, [r4, #2]
 776              		.loc 1 331 0
 777 0016 10BD     		pop	{r4, pc}
 778              	.LBE201:
 779              		.cfi_endproc
 780              	.LFE267:
 781              		.size	uartStopReceiveI, .-uartStopReceiveI
 782              		.text
 783              	.Letext0:
 784              		.file 3 "/usr/local/gcc_arm/gcc-arm-none-eabi-6-2017-q2-update/lib/gcc/arm-none-eabi/6.3.1/include
 785              		.file 4 "/usr/local/gcc_arm/gcc-arm-none-eabi-6-2017-q2-update/arm-none-eabi/include/machine/_defa
 786              		.file 5 "/usr/local/gcc_arm/gcc-arm-none-eabi-6-2017-q2-update/arm-none-eabi/include/sys/_stdint.h
 787              		.file 6 "ChibiOS_3.0.2/os/rt/ports/ARMCMx/compilers/GCC/chtypes.h"
 788              		.file 7 "ChibiOS_3.0.2/os/rt/include/chsystypes.h"
 789              		.file 8 "ChibiOS_3.0.2/os/rt/include/chschd.h"
 790              		.file 9 "ChibiOS_3.0.2/os/ext/CMSIS/include/core_cm4.h"
 791              		.file 10 "ChibiOS_3.0.2/os/ext/CMSIS/ST/system_stm32f4xx.h"
 792              		.file 11 "ChibiOS_3.0.2/os/ext/CMSIS/ST/stm32f407xx.h"
 793              		.file 12 "ChibiOS_3.0.2/os/rt/ports/ARMCMx/chcore.h"
 794              		.file 13 "ChibiOS_3.0.2/os/rt/ports/ARMCMx/chcore_v7m.h"
 795              		.file 14 "ChibiOS_3.0.2/os/rt/include/chtm.h"
 796              		.file 15 "ChibiOS_3.0.2/os/rt/include/chsem.h"
 797              		.file 16 "ChibiOS_3.0.2/os/rt/include/chmtx.h"
 798              		.file 17 "ChibiOS_3.0.2/os/rt/include/chregistry.h"
ARM GAS  /var/tmp//cchFKXLG.s 			page 15


 799              		.file 18 "ChibiOS_3.0.2/os/rt/include/chevents.h"
 800              		.file 19 "ChibiOS_3.0.2/os/rt/include/chqueues.h"
 801              		.file 20 "./conf_general.h"
 802              		.file 21 "ChibiOS_3.0.2/os/hal/ports/STM32/STM32F4xx/stm32_dma.h"
 803              		.file 22 "ChibiOS_3.0.2/os/hal/ports/STM32/LLD/GPIOv2/pal_lld.h"
 804              		.file 23 "ChibiOS_3.0.2/os/hal/include/can.h"
 805              		.file 24 "ChibiOS_3.0.2/os/hal/ports/STM32/LLD/can_lld.h"
 806              		.file 25 "ChibiOS_3.0.2/os/hal/include/i2c.h"
 807              		.file 26 "ChibiOS_3.0.2/os/hal/ports/STM32/LLD/I2Cv1/i2c_lld.h"
 808              		.file 27 "ChibiOS_3.0.2/os/hal/include/icu.h"
 809              		.file 28 "ChibiOS_3.0.2/os/hal/ports/STM32/LLD/TIMv1/icu_lld.h"
 810              		.file 29 "ChibiOS_3.0.2/os/hal/ports/STM32/LLD/TIMv1/stm32_tim.h"
 811              		.file 30 "ChibiOS_3.0.2/os/hal/include/spi.h"
 812              		.file 31 "ChibiOS_3.0.2/os/hal/ports/STM32/LLD/SPIv1/spi_lld.h"
 813              		.file 32 "ChibiOS_3.0.2/os/hal/include/uart.h"
 814              		.file 33 "ChibiOS_3.0.2/os/hal/ports/STM32/LLD/USARTv1/uart_lld.h"
 815              		.file 34 "ChibiOS_3.0.2/os/hal/include/usb.h"
 816              		.file 35 "ChibiOS_3.0.2/os/hal/ports/STM32/LLD/OTGv1/usb_lld.h"
 817              		.file 36 "ChibiOS_3.0.2/os/hal/ports/STM32/LLD/OTGv1/stm32_otg.h"
 818              		.file 37 "ChibiOS_3.0.2/os/hal/osal/rt/osal.h"
 819              		.file 38 "ChibiOS_3.0.2/os/rt/include/chsys.h"