ARM GAS  /var/tmp//cc14nQlK.s 			page 1


   1              		.cpu cortex-m4
   2              		.eabi_attribute 27, 1
   3              		.eabi_attribute 28, 1
   4              		.eabi_attribute 20, 1
   5              		.eabi_attribute 21, 1
   6              		.eabi_attribute 23, 3
   7              		.eabi_attribute 24, 1
   8              		.eabi_attribute 25, 1
   9              		.eabi_attribute 26, 1
  10              		.eabi_attribute 30, 2
  11              		.eabi_attribute 34, 1
  12              		.eabi_attribute 18, 4
  13              		.file	"uart_lld.c"
  14              		.text
  15              	.Ltext0:
  16              		.cfi_sections	.debug_frame
  17              		.section	.text.usart_stop,"ax",%progbits
  18              		.align	1
  19              		.p2align 4,,15
  20              		.syntax unified
  21              		.thumb
  22              		.thumb_func
  23              		.fpu fpv4-sp-d16
  24              		.type	usart_stop, %function
  25              	usart_stop:
  26              	.LFB258:
  27              		.file 1 "ChibiOS_3.0.2/os/hal/ports/STM32/LLD/USARTv1/uart_lld.c"
  28              		.loc 1 180 0
  29              		.cfi_startproc
  30              		@ args = 0, pretend = 0, frame = 0
  31              		@ frame_needed = 0, uses_anonymous_args = 0
  32              		@ link register save eliminated.
  33              	.LVL0:
  34              		.loc 1 183 0
  35 0000 0169     		ldr	r1, [r0, #16]
  36 0002 0A68     		ldr	r2, [r1]
  37 0004 1368     		ldr	r3, [r2]
  38 0006 23F01F03 		bic	r3, r3, #31
  39              		.loc 1 180 0
  40 000a 30B4     		push	{r4, r5}
  41              		.cfi_def_cfa_offset 8
  42              		.cfi_offset 4, -8
  43              		.cfi_offset 5, -4
  44              		.loc 1 183 0
  45 000c 1360     		str	r3, [r2]
  46              	.L2:
  47              		.loc 1 183 0 is_stmt 0 discriminator 2
  48 000e 1368     		ldr	r3, [r2]
  49 0010 DB07     		lsls	r3, r3, #31
  50 0012 FCD4     		bmi	.L2
  51              		.loc 1 183 0 discriminator 3
  52 0014 0D7A     		ldrb	r5, [r1, #8]	@ zero_extendqisi2
  53              		.loc 1 184 0 is_stmt 1 discriminator 3
  54 0016 4469     		ldr	r4, [r0, #20]
  55              		.loc 1 183 0 discriminator 3
  56 0018 4968     		ldr	r1, [r1, #4]
  57              		.loc 1 184 0 discriminator 3
ARM GAS  /var/tmp//cc14nQlK.s 			page 2


  58 001a 2268     		ldr	r2, [r4]
  59              		.loc 1 183 0 discriminator 3
  60 001c 3D23     		movs	r3, #61
  61 001e AB40     		lsls	r3, r3, r5
  62 0020 0B60     		str	r3, [r1]
  63              		.loc 1 184 0 discriminator 3
  64 0022 1368     		ldr	r3, [r2]
  65 0024 23F01F03 		bic	r3, r3, #31
  66 0028 1360     		str	r3, [r2]
  67              	.L3:
  68              		.loc 1 184 0 is_stmt 0 discriminator 2
  69 002a 1368     		ldr	r3, [r2]
  70 002c 13F00103 		ands	r3, r3, #1
  71 0030 FBD1     		bne	.L3
  72              		.loc 1 184 0 discriminator 3
  73 0032 257A     		ldrb	r5, [r4, #8]	@ zero_extendqisi2
  74              		.loc 1 187 0 is_stmt 1 discriminator 3
  75 0034 8268     		ldr	r2, [r0, #8]
  76              		.loc 1 184 0 discriminator 3
  77 0036 6068     		ldr	r0, [r4, #4]
  78              	.LVL1:
  79 0038 3D21     		movs	r1, #61
  80 003a A940     		lsls	r1, r1, r5
  81 003c 0160     		str	r1, [r0]
  82              		.loc 1 190 0 discriminator 3
  83 003e 30BC     		pop	{r4, r5}
  84              		.cfi_restore 5
  85              		.cfi_restore 4
  86              		.cfi_def_cfa_offset 0
  87              		.loc 1 187 0 discriminator 3
  88 0040 D360     		str	r3, [r2, #12]
  89              		.loc 1 188 0 discriminator 3
  90 0042 1361     		str	r3, [r2, #16]
  91              		.loc 1 189 0 discriminator 3
  92 0044 5361     		str	r3, [r2, #20]
  93              		.loc 1 190 0 discriminator 3
  94 0046 7047     		bx	lr
  95              		.cfi_endproc
  96              	.LFE258:
  97              		.size	usart_stop, .-usart_stop
  98              		.section	.text.serve_usart_irq,"ax",%progbits
  99              		.align	1
 100              		.p2align 4,,15
 101              		.syntax unified
 102              		.thumb
 103              		.thumb_func
 104              		.fpu fpv4-sp-d16
 105              		.type	serve_usart_irq, %function
 106              	serve_usart_irq:
 107              	.LFB262:
 108              		.loc 1 310 0
 109              		.cfi_startproc
 110              		@ args = 0, pretend = 0, frame = 0
 111              		@ frame_needed = 0, uses_anonymous_args = 0
 112              	.LVL2:
 113 0000 2DE9F041 		push	{r4, r5, r6, r7, r8, lr}
 114              		.cfi_def_cfa_offset 24
ARM GAS  /var/tmp//cc14nQlK.s 			page 3


 115              		.cfi_offset 4, -24
 116              		.cfi_offset 5, -20
 117              		.cfi_offset 6, -16
 118              		.cfi_offset 7, -12
 119              		.cfi_offset 8, -8
 120              		.cfi_offset 14, -4
 121              		.loc 1 312 0
 122 0004 8468     		ldr	r4, [r0, #8]
 123              	.LVL3:
 124              		.loc 1 313 0
 125 0006 E768     		ldr	r7, [r4, #12]
 126              	.LVL4:
 127              		.loc 1 315 0
 128 0008 2668     		ldr	r6, [r4]
 129              	.LVL5:
 130              		.loc 1 316 0
 131 000a 6268     		ldr	r2, [r4, #4]
 132              		.loc 1 318 0
 133 000c 40F20F13 		movw	r3, #271
 134 0010 1E42     		tst	r6, r3
 135              		.loc 1 310 0
 136 0012 0546     		mov	r5, r0
 137              		.loc 1 318 0
 138 0014 1DD0     		beq	.L10
 139              		.loc 1 321 0
 140 0016 4368     		ldr	r3, [r0, #4]
 141 0018 1A69     		ldr	r2, [r3, #16]
 142              		.loc 1 320 0
 143 001a 6FF48073 		mvn	r3, #256
 144 001e 2360     		str	r3, [r4]
 145              		.loc 1 321 0
 146 0020 BAB1     		cbz	r2, .L10
 147              		.loc 1 315 0
 148 0022 B3B2     		uxth	r3, r6
 149              	.LVL6:
 150              	.LBB18:
 151              	.LBB19:
 152              		.loc 1 142 0
 153 0024 13F0080F 		tst	r3, #8
 154 0028 0CBF     		ite	eq
 155 002a 0021     		moveq	r1, #0
 156 002c 1021     		movne	r1, #16
 157              	.LVL7:
 158              		.loc 1 143 0
 159 002e D807     		lsls	r0, r3, #31
 160              	.LVL8:
 161              		.loc 1 144 0
 162 0030 48BF     		it	mi
 163 0032 41F00401 		orrmi	r1, r1, #4
 164              	.LVL9:
 165              		.loc 1 145 0
 166 0036 9807     		lsls	r0, r3, #30
 167              		.loc 1 146 0
 168 0038 48BF     		it	mi
 169 003a 41F00801 		orrmi	r1, r1, #8
 170              	.LVL10:
 171              		.loc 1 147 0
ARM GAS  /var/tmp//cc14nQlK.s 			page 4


 172 003e 5807     		lsls	r0, r3, #29
 173              		.loc 1 148 0
 174 0040 48BF     		it	mi
 175 0042 41F02001 		orrmi	r1, r1, #32
 176              	.LVL11:
 177              		.loc 1 149 0
 178 0046 D805     		lsls	r0, r3, #23
 179              		.loc 1 150 0
 180 0048 48BF     		it	mi
 181 004a 41F04001 		orrmi	r1, r1, #64
 182              	.LVL12:
 183              	.LBE19:
 184              	.LBE18:
 185              		.loc 1 322 0
 186 004e 2846     		mov	r0, r5
 187 0050 9047     		blx	r2
 188              	.LVL13:
 189              	.L10:
 190              		.loc 1 325 0
 191 0052 7206     		lsls	r2, r6, #25
 192 0054 0ED5     		bpl	.L8
 193              		.loc 1 325 0 is_stmt 0 discriminator 1
 194 0056 7B06     		lsls	r3, r7, #25
 195 0058 0CD5     		bpl	.L8
 196              		.loc 1 331 0 is_stmt 1
 197 005a 6B68     		ldr	r3, [r5, #4]
 198 005c 5B68     		ldr	r3, [r3, #4]
 199              		.loc 1 328 0
 200 005e 27F04007 		bic	r7, r7, #64
 201              	.LVL14:
 202              		.loc 1 327 0
 203 0062 6FF04002 		mvn	r2, #64
 204 0066 2260     		str	r2, [r4]
 205              		.loc 1 328 0
 206 0068 E760     		str	r7, [r4, #12]
 207              		.loc 1 331 0
 208 006a 1BB1     		cbz	r3, .L8
 209              		.loc 1 332 0
 210 006c 2846     		mov	r0, r5
 211              		.loc 1 334 0
 212 006e BDE8F041 		pop	{r4, r5, r6, r7, r8, lr}
 213              		.cfi_remember_state
 214              		.cfi_restore 14
 215              		.cfi_restore 8
 216              		.cfi_restore 7
 217              		.cfi_restore 6
 218              		.cfi_restore 5
 219              		.cfi_restore 4
 220              		.cfi_def_cfa_offset 0
 221              	.LVL15:
 222              		.loc 1 332 0
 223 0072 1847     		bx	r3	@ indirect register sibling call
 224              	.LVL16:
 225              	.L8:
 226              		.cfi_restore_state
 227 0074 BDE8F081 		pop	{r4, r5, r6, r7, r8, pc}
 228              		.cfi_endproc
ARM GAS  /var/tmp//cc14nQlK.s 			page 5


 229              	.LFE262:
 230              		.size	serve_usart_irq, .-serve_usart_irq
 231              		.section	.text.uart_lld_serve_tx_end_irq,"ax",%progbits
 232              		.align	1
 233              		.p2align 4,,15
 234              		.syntax unified
 235              		.thumb
 236              		.thumb_func
 237              		.fpu fpv4-sp-d16
 238              		.type	uart_lld_serve_tx_end_irq, %function
 239              	uart_lld_serve_tx_end_irq:
 240              	.LFB261:
 241              		.loc 1 281 0
 242              		.cfi_startproc
 243              		@ args = 0, pretend = 0, frame = 0
 244              		@ frame_needed = 0, uses_anonymous_args = 0
 245              	.LVL17:
 246              		.loc 1 285 0
 247 0000 11F00C0F 		tst	r1, #12
 248              		.loc 1 281 0
 249 0004 38B5     		push	{r3, r4, r5, lr}
 250              		.cfi_def_cfa_offset 16
 251              		.cfi_offset 3, -16
 252              		.cfi_offset 4, -12
 253              		.cfi_offset 5, -8
 254              		.cfi_offset 14, -4
 255              		.loc 1 281 0
 256 0006 0446     		mov	r4, r0
 257              		.loc 1 285 0
 258 0008 1BD1     		bne	.L57
 259              	.LVL18:
 260              	.L44:
 261              		.loc 1 292 0
 262 000a 6169     		ldr	r1, [r4, #20]
 263 000c 0A68     		ldr	r2, [r1]
 264 000e 1368     		ldr	r3, [r2]
 265 0010 23F01F03 		bic	r3, r3, #31
 266 0014 1360     		str	r3, [r2]
 267              	.L45:
 268              		.loc 1 292 0 is_stmt 0 discriminator 2
 269 0016 1368     		ldr	r3, [r2]
 270 0018 DB07     		lsls	r3, r3, #31
 271 001a FCD4     		bmi	.L45
 272              		.loc 1 296 0 is_stmt 1 discriminator 3
 273 001c 6368     		ldr	r3, [r4, #4]
 274              		.loc 1 292 0 discriminator 3
 275 001e 0D7A     		ldrb	r5, [r1, #8]	@ zero_extendqisi2
 276 0020 4868     		ldr	r0, [r1, #4]
 277              		.loc 1 296 0 discriminator 3
 278 0022 1A68     		ldr	r2, [r3]
 279              		.loc 1 292 0 discriminator 3
 280 0024 3D23     		movs	r3, #61
 281 0026 AB40     		lsls	r3, r3, r5
 282              		.loc 1 295 0 discriminator 3
 283 0028 0221     		movs	r1, #2
 284              		.loc 1 292 0 discriminator 3
 285 002a 0360     		str	r3, [r0]
ARM GAS  /var/tmp//cc14nQlK.s 			page 6


 286              		.loc 1 295 0 discriminator 3
 287 002c 6170     		strb	r1, [r4, #1]
 288              		.loc 1 296 0 discriminator 3
 289 002e 2AB1     		cbz	r2, .L48
 290              		.loc 1 297 0
 291 0030 2046     		mov	r0, r4
 292 0032 9047     		blx	r2
 293              	.LVL19:
 294              		.loc 1 301 0
 295 0034 6378     		ldrb	r3, [r4, #1]	@ zero_extendqisi2
 296 0036 022B     		cmp	r3, #2
 297 0038 00D0     		beq	.L48
 298 003a 38BD     		pop	{r3, r4, r5, pc}
 299              	.LVL20:
 300              	.L48:
 301              		.loc 1 302 0
 302 003c 0023     		movs	r3, #0
 303 003e 6370     		strb	r3, [r4, #1]
 304 0040 38BD     		pop	{r3, r4, r5, pc}
 305              	.LVL21:
 306              	.L57:
 307              	.LBB20:
 308              	.LBB21:
 309              		.file 2 "ChibiOS_3.0.2/os/hal/osal/rt/osal.h"
 310              		.loc 2 462 0
 311 0042 0248     		ldr	r0, .L58
 312              	.LVL22:
 313 0044 FFF7FEFF 		bl	chSysHalt
 314              	.LVL23:
 315 0048 DFE7     		b	.L44
 316              	.L59:
 317 004a 00BF     		.align	2
 318              	.L58:
 319 004c 00000000 		.word	.LC0
 320              	.LBE21:
 321              	.LBE20:
 322              		.cfi_endproc
 323              	.LFE261:
 324              		.size	uart_lld_serve_tx_end_irq, .-uart_lld_serve_tx_end_irq
 325              		.section	.text.uart_lld_serve_rx_end_irq,"ax",%progbits
 326              		.align	1
 327              		.p2align 4,,15
 328              		.syntax unified
 329              		.thumb
 330              		.thumb_func
 331              		.fpu fpv4-sp-d16
 332              		.type	uart_lld_serve_rx_end_irq, %function
 333              	uart_lld_serve_rx_end_irq:
 334              	.LFB260:
 335              		.loc 1 241 0
 336              		.cfi_startproc
 337              		@ args = 0, pretend = 0, frame = 0
 338              		@ frame_needed = 0, uses_anonymous_args = 0
 339              	.LVL24:
 340              		.loc 1 245 0
 341 0000 11F00C0F 		tst	r1, #12
 342              		.loc 1 241 0
ARM GAS  /var/tmp//cc14nQlK.s 			page 7


 343 0004 70B5     		push	{r4, r5, r6, lr}
 344              		.cfi_def_cfa_offset 16
 345              		.cfi_offset 4, -16
 346              		.cfi_offset 5, -12
 347              		.cfi_offset 6, -8
 348              		.cfi_offset 14, -4
 349              		.loc 1 241 0
 350 0006 0446     		mov	r4, r0
 351              		.loc 1 245 0
 352 0008 3BD1     		bne	.L78
 353              	.LVL25:
 354              	.L61:
 355              		.loc 1 252 0
 356 000a A378     		ldrb	r3, [r4, #2]	@ zero_extendqisi2
 357 000c 4BB9     		cbnz	r3, .L62
 358              		.loc 1 255 0
 359 000e 6368     		ldr	r3, [r4, #4]
 360 0010 DB68     		ldr	r3, [r3, #12]
 361 0012 002B     		cmp	r3, #0
 362 0014 34D0     		beq	.L60
 363              		.loc 1 256 0
 364 0016 218B     		ldrh	r1, [r4, #24]
 365 0018 2046     		mov	r0, r4
 366 001a 89B2     		uxth	r1, r1
 367              		.loc 1 273 0
 368 001c BDE87040 		pop	{r4, r5, r6, lr}
 369              		.cfi_remember_state
 370              		.cfi_restore 14
 371              		.cfi_restore 6
 372              		.cfi_restore 5
 373              		.cfi_restore 4
 374              		.cfi_def_cfa_offset 0
 375              	.LVL26:
 376              		.loc 1 256 0
 377 0020 1847     		bx	r3	@ indirect register sibling call
 378              	.LVL27:
 379              	.L62:
 380              		.cfi_restore_state
 381              	.LBB30:
 382              	.LBB31:
 383              		.loc 1 261 0
 384 0022 2169     		ldr	r1, [r4, #16]
 385 0024 0A68     		ldr	r2, [r1]
 386 0026 1368     		ldr	r3, [r2]
 387 0028 23F01F03 		bic	r3, r3, #31
 388 002c 1360     		str	r3, [r2]
 389              	.L65:
 390 002e 1368     		ldr	r3, [r2]
 391 0030 DB07     		lsls	r3, r3, #31
 392 0032 FCD4     		bmi	.L65
 393              		.loc 1 263 0
 394 0034 6068     		ldr	r0, [r4, #4]
 395              		.loc 1 261 0
 396 0036 0D7A     		ldrb	r5, [r1, #8]	@ zero_extendqisi2
 397 0038 4E68     		ldr	r6, [r1, #4]
 398              		.loc 1 263 0
 399 003a 8168     		ldr	r1, [r0, #8]
ARM GAS  /var/tmp//cc14nQlK.s 			page 8


 400              		.loc 1 261 0
 401 003c 3D23     		movs	r3, #61
 402 003e AB40     		lsls	r3, r3, r5
 403              		.loc 1 262 0
 404 0040 0225     		movs	r5, #2
 405              		.loc 1 261 0
 406 0042 3360     		str	r3, [r6]
 407              		.loc 1 262 0
 408 0044 A570     		strb	r5, [r4, #2]
 409              		.loc 1 263 0
 410 0046 39B1     		cbz	r1, .L66
 411              		.loc 1 264 0
 412 0048 2046     		mov	r0, r4
 413 004a 8847     		blx	r1
 414              	.LVL28:
 415              		.loc 1 268 0
 416 004c A378     		ldrb	r3, [r4, #2]	@ zero_extendqisi2
 417 004e AB42     		cmp	r3, r5
 418 0050 16D1     		bne	.L60
 419 0052 2369     		ldr	r3, [r4, #16]
 420 0054 6068     		ldr	r0, [r4, #4]
 421 0056 1A68     		ldr	r2, [r3]
 422              	.L66:
 423              	.LBB32:
 424              	.LBB33:
 425              		.loc 1 164 0
 426 0058 C368     		ldr	r3, [r0, #12]
 427              		.loc 1 170 0
 428 005a E168     		ldr	r1, [r4, #12]
 429              		.loc 1 165 0
 430 005c 002B     		cmp	r3, #0
 431 005e 14BF     		ite	ne
 432 0060 4FF48873 		movne	r3, #272
 433 0064 4FF48073 		moveq	r3, #256
 434              		.loc 1 170 0
 435 0068 0B43     		orrs	r3, r3, r1
 436              	.LBE33:
 437              	.LBE32:
 438              		.loc 1 269 0
 439 006a 0025     		movs	r5, #0
 440              	.LBB36:
 441              	.LBB34:
 442              		.loc 1 169 0
 443 006c 0121     		movs	r1, #1
 444              		.loc 1 168 0
 445 006e 04F11800 		add	r0, r4, #24
 446              	.LBE34:
 447              	.LBE36:
 448              		.loc 1 269 0
 449 0072 A570     		strb	r5, [r4, #2]
 450              	.LVL29:
 451              	.LBB37:
 452              	.LBB35:
 453              		.loc 1 168 0
 454 0074 D060     		str	r0, [r2, #12]
 455              		.loc 1 169 0
 456 0076 5160     		str	r1, [r2, #4]
ARM GAS  /var/tmp//cc14nQlK.s 			page 9


 457              		.loc 1 170 0
 458 0078 1360     		str	r3, [r2]
 459              		.loc 1 171 0
 460 007a 1368     		ldr	r3, [r2]
 461 007c 0B43     		orrs	r3, r3, r1
 462 007e 1360     		str	r3, [r2]
 463              	.LVL30:
 464              	.L60:
 465 0080 70BD     		pop	{r4, r5, r6, pc}
 466              	.LVL31:
 467              	.L78:
 468              	.LBE35:
 469              	.LBE37:
 470              	.LBE31:
 471              	.LBE30:
 472              	.LBB38:
 473              	.LBB39:
 474              		.loc 2 462 0
 475 0082 0248     		ldr	r0, .L79
 476              	.LVL32:
 477 0084 FFF7FEFF 		bl	chSysHalt
 478              	.LVL33:
 479 0088 BFE7     		b	.L61
 480              	.L80:
 481 008a 00BF     		.align	2
 482              	.L79:
 483 008c 00000000 		.word	.LC0
 484              	.LBE39:
 485              	.LBE38:
 486              		.cfi_endproc
 487              	.LFE260:
 488              		.size	uart_lld_serve_rx_end_irq, .-uart_lld_serve_rx_end_irq
 489              		.section	.text.VectorDC,"ax",%progbits
 490              		.align	1
 491              		.p2align 4,,15
 492              		.global	VectorDC
 493              		.syntax unified
 494              		.thumb
 495              		.thumb_func
 496              		.fpu fpv4-sp-d16
 497              		.type	VectorDC, %function
 498              	VectorDC:
 499              	.LFB263:
 500              		.loc 1 387 0
 501              		.cfi_startproc
 502              		@ args = 0, pretend = 0, frame = 0
 503              		@ frame_needed = 0, uses_anonymous_args = 0
 504 0000 08B5     		push	{r3, lr}
 505              		.cfi_def_cfa_offset 8
 506              		.cfi_offset 3, -8
 507              		.cfi_offset 14, -4
 508              		.loc 1 391 0
 509 0002 0348     		ldr	r0, .L83
 510 0004 FFF7FEFF 		bl	serve_usart_irq
 511              	.LVL34:
 512              		.loc 1 394 0
 513 0008 BDE80840 		pop	{r3, lr}
ARM GAS  /var/tmp//cc14nQlK.s 			page 10


 514              		.cfi_restore 14
 515              		.cfi_restore 3
 516              		.cfi_def_cfa_offset 0
 517              		.loc 1 393 0
 518 000c FFF7FEBF 		b	_port_irq_epilogue
 519              	.LVL35:
 520              	.L84:
 521              		.align	2
 522              	.L83:
 523 0010 00000000 		.word	.LANCHOR0
 524              		.cfi_endproc
 525              	.LFE263:
 526              		.size	VectorDC, .-VectorDC
 527              		.section	.text.Vector15C,"ax",%progbits
 528              		.align	1
 529              		.p2align 4,,15
 530              		.global	Vector15C
 531              		.syntax unified
 532              		.thumb
 533              		.thumb_func
 534              		.fpu fpv4-sp-d16
 535              		.type	Vector15C, %function
 536              	Vector15C:
 537              	.LFB264:
 538              		.loc 1 444 0
 539              		.cfi_startproc
 540              		@ args = 0, pretend = 0, frame = 0
 541              		@ frame_needed = 0, uses_anonymous_args = 0
 542 0000 08B5     		push	{r3, lr}
 543              		.cfi_def_cfa_offset 8
 544              		.cfi_offset 3, -8
 545              		.cfi_offset 14, -4
 546              		.loc 1 448 0
 547 0002 0348     		ldr	r0, .L87
 548 0004 FFF7FEFF 		bl	serve_usart_irq
 549              	.LVL36:
 550              		.loc 1 451 0
 551 0008 BDE80840 		pop	{r3, lr}
 552              		.cfi_restore 14
 553              		.cfi_restore 3
 554              		.cfi_def_cfa_offset 0
 555              		.loc 1 450 0
 556 000c FFF7FEBF 		b	_port_irq_epilogue
 557              	.LVL37:
 558              	.L88:
 559              		.align	2
 560              	.L87:
 561 0010 00000000 		.word	.LANCHOR1
 562              		.cfi_endproc
 563              	.LFE264:
 564              		.size	Vector15C, .-Vector15C
 565              		.section	.text.uart_lld_init,"ax",%progbits
 566              		.align	1
 567              		.p2align 4,,15
 568              		.global	uart_lld_init
 569              		.syntax unified
 570              		.thumb
ARM GAS  /var/tmp//cc14nQlK.s 			page 11


 571              		.thumb_func
 572              		.fpu fpv4-sp-d16
 573              		.type	uart_lld_init, %function
 574              	uart_lld_init:
 575              	.LFB265:
 576              		.loc 1 463 0
 577              		.cfi_startproc
 578              		@ args = 0, pretend = 0, frame = 0
 579              		@ frame_needed = 0, uses_anonymous_args = 0
 580 0000 70B5     		push	{r4, r5, r6, lr}
 581              		.cfi_def_cfa_offset 16
 582              		.cfi_offset 4, -16
 583              		.cfi_offset 5, -12
 584              		.cfi_offset 6, -8
 585              		.cfi_offset 14, -4
 586              		.loc 1 482 0
 587 0002 0C4D     		ldr	r5, .L91
 588              		.loc 1 485 0
 589 0004 0C4C     		ldr	r4, .L91+4
 590              		.loc 1 506 0
 591 0006 0D4E     		ldr	r6, .L91+8
 592              		.loc 1 482 0
 593 0008 2846     		mov	r0, r5
 594 000a FFF7FEFF 		bl	uartObjectInit
 595              	.LVL38:
 596              		.loc 1 483 0
 597 000e 0C4B     		ldr	r3, .L91+12
 598 0010 AB60     		str	r3, [r5, #8]
 599              		.loc 1 484 0
 600 0012 0622     		movs	r2, #6
 601              		.loc 1 486 0
 602 0014 04F11803 		add	r3, r4, #24
 603              		.loc 1 506 0
 604 0018 3046     		mov	r0, r6
 605              		.loc 1 485 0
 606 001a 2C61     		str	r4, [r5, #16]
 607              		.loc 1 486 0
 608 001c 6B61     		str	r3, [r5, #20]
 609              		.loc 1 484 0
 610 001e EA60     		str	r2, [r5, #12]
 611              		.loc 1 506 0
 612 0020 FFF7FEFF 		bl	uartObjectInit
 613              	.LVL39:
 614              		.loc 1 507 0
 615 0024 074B     		ldr	r3, .L91+16
 616 0026 B360     		str	r3, [r6, #8]
 617              		.loc 1 508 0
 618 0028 04F16C03 		add	r3, r4, #108
 619              		.loc 1 509 0
 620 002c A834     		adds	r4, r4, #168
 621              		.loc 1 508 0
 622 002e 3361     		str	r3, [r6, #16]
 623              		.loc 1 509 0
 624 0030 7461     		str	r4, [r6, #20]
 625 0032 70BD     		pop	{r4, r5, r6, pc}
 626              	.L92:
 627              		.align	2
ARM GAS  /var/tmp//cc14nQlK.s 			page 12


 628              	.L91:
 629 0034 00000000 		.word	.LANCHOR0
 630 0038 0C000000 		.word	_stm32_dma_streams+12
 631 003c 00000000 		.word	.LANCHOR1
 632 0040 00480040 		.word	1073760256
 633 0044 00140140 		.word	1073812480
 634              		.cfi_endproc
 635              	.LFE265:
 636              		.size	uart_lld_init, .-uart_lld_init
 637              		.section	.text.uart_lld_start,"ax",%progbits
 638              		.align	1
 639              		.p2align 4,,15
 640              		.global	uart_lld_start
 641              		.syntax unified
 642              		.thumb
 643              		.thumb_func
 644              		.fpu fpv4-sp-d16
 645              		.type	uart_lld_start, %function
 646              	uart_lld_start:
 647              	.LFB266:
 648              		.loc 1 520 0
 649              		.cfi_startproc
 650              		@ args = 0, pretend = 0, frame = 0
 651              		@ frame_needed = 0, uses_anonymous_args = 0
 652              	.LVL40:
 653 0000 F8B5     		push	{r3, r4, r5, r6, r7, lr}
 654              		.cfi_def_cfa_offset 24
 655              		.cfi_offset 3, -24
 656              		.cfi_offset 4, -20
 657              		.cfi_offset 5, -16
 658              		.cfi_offset 6, -12
 659              		.cfi_offset 7, -8
 660              		.cfi_offset 14, -4
 661              		.loc 1 522 0
 662 0002 0378     		ldrb	r3, [r0]	@ zero_extendqisi2
 663 0004 012B     		cmp	r3, #1
 664              		.loc 1 520 0
 665 0006 0446     		mov	r4, r0
 666              		.loc 1 522 0
 667 0008 3ED0     		beq	.L94
 668 000a 8568     		ldr	r5, [r0, #8]
 669              	.LVL41:
 670              	.L95:
 671              		.loc 1 664 0
 672 000c 0023     		movs	r3, #0
 673 000e A370     		strb	r3, [r4, #2]
 674              		.loc 1 665 0
 675 0010 6370     		strb	r3, [r4, #1]
 676              	.LVL42:
 677              	.LBB46:
 678              	.LBB47:
 679              		.loc 1 203 0
 680 0012 2046     		mov	r0, r4
 681 0014 FFF7FEFF 		bl	usart_stop
 682              	.LVL43:
 683              		.loc 1 207 0
 684 0018 A368     		ldr	r3, [r4, #8]
ARM GAS  /var/tmp//cc14nQlK.s 			page 13


 685 001a 474A     		ldr	r2, .L108
 686 001c 9342     		cmp	r3, r2
 687 001e 4BD0     		beq	.L99
 688 0020 02F58062 		add	r2, r2, #1024
 689 0024 9342     		cmp	r3, r2
 690 0026 47D0     		beq	.L99
 691              		.loc 1 213 0
 692 0028 6268     		ldr	r2, [r4, #4]
 693 002a 444B     		ldr	r3, .L108+4
 694 002c 5169     		ldr	r1, [r2, #20]
 695 002e B3FBF1F3 		udiv	r3, r3, r1
 696 0032 AB60     		str	r3, [r5, #8]
 697              	.L101:
 698              	.LBB48:
 699              	.LBB49:
 700              		.loc 1 164 0
 701 0034 D768     		ldr	r7, [r2, #12]
 702              	.LBE49:
 703              	.LBE48:
 704              		.loc 1 229 0
 705 0036 138B     		ldrh	r3, [r2, #24]
 706              		.loc 1 222 0
 707 0038 508B     		ldrh	r0, [r2, #26]
 708              		.loc 1 223 0
 709 003a 918B     		ldrh	r1, [r2, #28]
 710              	.LBB57:
 711              	.LBB50:
 712              		.loc 1 168 0
 713 003c 2269     		ldr	r2, [r4, #16]
 714              	.LBE50:
 715              	.LBE57:
 716              		.loc 1 216 0
 717 003e 2E68     		ldr	r6, [r5]
 718              		.loc 1 217 0
 719 0040 6E68     		ldr	r6, [r5, #4]
 720              	.LBB58:
 721              	.LBB51:
 722              		.loc 1 170 0
 723 0042 E668     		ldr	r6, [r4, #12]
 724              		.loc 1 168 0
 725 0044 1268     		ldr	r2, [r2]
 726              		.loc 1 164 0
 727 0046 002F     		cmp	r7, #0
 728              	.LBE51:
 729              	.LBE58:
 730              		.loc 1 229 0
 731 0048 43F40453 		orr	r3, r3, #8448
 732              		.loc 1 218 0
 733 004c 4FF00007 		mov	r7, #0
 734 0050 2F60     		str	r7, [r5]
 735              		.loc 1 222 0
 736 0052 40F04000 		orr	r0, r0, #64
 737              	.LBB59:
 738              	.LBB52:
 739              		.loc 1 165 0
 740 0056 14BF     		ite	ne
 741 0058 4FF48877 		movne	r7, #272
ARM GAS  /var/tmp//cc14nQlK.s 			page 14


 742 005c 4FF48077 		moveq	r7, #256
 743              	.LBE52:
 744              	.LBE59:
 745              		.loc 1 229 0
 746 0060 43F00C03 		orr	r3, r3, #12
 747              		.loc 1 223 0
 748 0064 41F0C101 		orr	r1, r1, #193
 749              		.loc 1 229 0
 750 0068 9BB2     		uxth	r3, r3
 751              	.LBB60:
 752              	.LBB53:
 753              		.loc 1 170 0
 754 006a 3E43     		orrs	r6, r6, r7
 755              	.LBE53:
 756              	.LBE60:
 757              		.loc 1 222 0
 758 006c 80B2     		uxth	r0, r0
 759              	.LBB61:
 760              	.LBB54:
 761              		.loc 1 169 0
 762 006e 0127     		movs	r7, #1
 763              	.LBE54:
 764              	.LBE61:
 765              		.loc 1 223 0
 766 0070 89B2     		uxth	r1, r1
 767              	.LBB62:
 768              	.LBB55:
 769              		.loc 1 168 0
 770 0072 1834     		adds	r4, r4, #24
 771              	.LVL44:
 772              	.LBE55:
 773              	.LBE62:
 774              		.loc 1 222 0
 775 0074 2861     		str	r0, [r5, #16]
 776              		.loc 1 223 0
 777 0076 6961     		str	r1, [r5, #20]
 778              	.LVL45:
 779              		.loc 1 229 0
 780 0078 EB60     		str	r3, [r5, #12]
 781              	.LVL46:
 782              	.LBB63:
 783              	.LBB56:
 784              		.loc 1 168 0
 785 007a D460     		str	r4, [r2, #12]
 786              		.loc 1 169 0
 787 007c 5760     		str	r7, [r2, #4]
 788              		.loc 1 170 0
 789 007e 1660     		str	r6, [r2]
 790              		.loc 1 171 0
 791 0080 1368     		ldr	r3, [r2]
 792 0082 3B43     		orrs	r3, r3, r7
 793 0084 1360     		str	r3, [r2]
 794              	.LVL47:
 795 0086 F8BD     		pop	{r3, r4, r5, r6, r7, pc}
 796              	.LVL48:
 797              	.L94:
 798              	.LBE56:
ARM GAS  /var/tmp//cc14nQlK.s 			page 15


 799              	.LBE63:
 800              	.LBE47:
 801              	.LBE46:
 802              		.loc 1 564 0
 803 0088 2D4B     		ldr	r3, .L108+8
 804 008a 9842     		cmp	r0, r3
 805 008c 3AD0     		beq	.L105
 806              		.loc 1 636 0
 807 008e 2D4B     		ldr	r3, .L108+12
 808 0090 9842     		cmp	r0, r3
 809 0092 1DD0     		beq	.L106
 810              	.LVL49:
 811              	.L97:
 812              		.loc 1 657 0
 813 0094 6368     		ldr	r3, [r4, #4]
 814 0096 1B8B     		ldrh	r3, [r3, #24]
 815 0098 03F4A053 		and	r3, r3, #5120
 816 009c B3F5805F 		cmp	r3, #4096
 817 00a0 11D0     		beq	.L107
 818              	.L98:
 819              		.loc 1 659 0
 820 00a2 2269     		ldr	r2, [r4, #16]
 821              		.loc 1 660 0
 822 00a4 6369     		ldr	r3, [r4, #20]
 823              		.loc 1 659 0
 824 00a6 A568     		ldr	r5, [r4, #8]
 825 00a8 1068     		ldr	r0, [r2]
 826              		.loc 1 660 0
 827 00aa 1968     		ldr	r1, [r3]
 828              		.loc 1 661 0
 829 00ac 0022     		movs	r2, #0
 830              		.loc 1 659 0
 831 00ae 2B1D     		adds	r3, r5, #4
 832 00b0 8360     		str	r3, [r0, #8]
 833              		.loc 1 660 0
 834 00b2 8B60     		str	r3, [r1, #8]
 835              		.loc 1 661 0
 836 00b4 2283     		strh	r2, [r4, #24]	@ movhi
 837 00b6 A9E7     		b	.L95
 838              	.LVL50:
 839              	.L99:
 840              	.LBB65:
 841              	.LBB64:
 842              		.loc 1 211 0
 843 00b8 6268     		ldr	r2, [r4, #4]
 844 00ba 234B     		ldr	r3, .L108+16
 845 00bc 5169     		ldr	r1, [r2, #20]
 846 00be B3FBF1F3 		udiv	r3, r3, r1
 847 00c2 AB60     		str	r3, [r5, #8]
 848 00c4 B6E7     		b	.L101
 849              	.LVL51:
 850              	.L107:
 851              	.LBE64:
 852              	.LBE65:
 853              		.loc 1 658 0
 854 00c6 E368     		ldr	r3, [r4, #12]
 855 00c8 43F42053 		orr	r3, r3, #10240
ARM GAS  /var/tmp//cc14nQlK.s 			page 16


 856 00cc E360     		str	r3, [r4, #12]
 857 00ce E8E7     		b	.L98
 858              	.LVL52:
 859              	.L106:
 860              	.LBB66:
 861              		.loc 1 638 0
 862 00d0 0346     		mov	r3, r0
 863 00d2 1E4A     		ldr	r2, .L108+20
 864 00d4 0069     		ldr	r0, [r0, #16]
 865              	.LVL53:
 866 00d6 0C21     		movs	r1, #12
 867 00d8 FFF7FEFF 		bl	dmaStreamAllocate
 868              	.LVL54:
 869              		.loc 1 643 0
 870 00dc 2346     		mov	r3, r4
 871 00de 1C4A     		ldr	r2, .L108+24
 872 00e0 6069     		ldr	r0, [r4, #20]
 873 00e2 0C21     		movs	r1, #12
 874 00e4 FFF7FEFF 		bl	dmaStreamAllocate
 875              	.LVL55:
 876              		.loc 1 648 0
 877 00e8 1A4A     		ldr	r2, .L108+28
 878 00ea 536C     		ldr	r3, [r2, #68]
 879 00ec 43F02003 		orr	r3, r3, #32
 880 00f0 5364     		str	r3, [r2, #68]
 881              		.loc 1 649 0
 882 00f2 0C21     		movs	r1, #12
 883 00f4 4720     		movs	r0, #71
 884 00f6 FFF7FEFF 		bl	nvicEnableVector
 885              	.LVL56:
 886              		.loc 1 650 0
 887 00fa E368     		ldr	r3, [r4, #12]
 888 00fc 43F02063 		orr	r3, r3, #167772160
 889 0100 E360     		str	r3, [r4, #12]
 890 0102 C7E7     		b	.L97
 891              	.LVL57:
 892              	.L105:
 893              	.LBE66:
 894              	.LBB67:
 895              		.loc 1 566 0
 896 0104 0346     		mov	r3, r0
 897 0106 114A     		ldr	r2, .L108+20
 898 0108 0069     		ldr	r0, [r0, #16]
 899              	.LVL58:
 900 010a 0C21     		movs	r1, #12
 901 010c FFF7FEFF 		bl	dmaStreamAllocate
 902              	.LVL59:
 903              		.loc 1 571 0
 904 0110 2346     		mov	r3, r4
 905 0112 0F4A     		ldr	r2, .L108+24
 906 0114 6069     		ldr	r0, [r4, #20]
 907 0116 0C21     		movs	r1, #12
 908 0118 FFF7FEFF 		bl	dmaStreamAllocate
 909              	.LVL60:
 910              		.loc 1 576 0
 911 011c 0D4A     		ldr	r2, .L108+28
 912 011e 136C     		ldr	r3, [r2, #64]
ARM GAS  /var/tmp//cc14nQlK.s 			page 17


 913 0120 43F48023 		orr	r3, r3, #262144
 914 0124 1364     		str	r3, [r2, #64]
 915              		.loc 1 577 0
 916 0126 0C21     		movs	r1, #12
 917 0128 2720     		movs	r0, #39
 918 012a FFF7FEFF 		bl	nvicEnableVector
 919              	.LVL61:
 920              		.loc 1 578 0
 921 012e E368     		ldr	r3, [r4, #12]
 922 0130 43F00063 		orr	r3, r3, #134217728
 923 0134 E360     		str	r3, [r4, #12]
 924 0136 ADE7     		b	.L97
 925              	.L109:
 926              		.align	2
 927              	.L108:
 928 0138 00100140 		.word	1073811456
 929 013c 80DE8002 		.word	42000000
 930 0140 00000000 		.word	.LANCHOR0
 931 0144 00000000 		.word	.LANCHOR1
 932 0148 00BD0105 		.word	84000000
 933 014c 00000000 		.word	uart_lld_serve_rx_end_irq
 934 0150 00000000 		.word	uart_lld_serve_tx_end_irq
 935 0154 00380240 		.word	1073887232
 936              	.LBE67:
 937              		.cfi_endproc
 938              	.LFE266:
 939              		.size	uart_lld_start, .-uart_lld_start
 940              		.section	.text.uart_lld_stop,"ax",%progbits
 941              		.align	1
 942              		.p2align 4,,15
 943              		.global	uart_lld_stop
 944              		.syntax unified
 945              		.thumb
 946              		.thumb_func
 947              		.fpu fpv4-sp-d16
 948              		.type	uart_lld_stop, %function
 949              	uart_lld_stop:
 950              	.LFB267:
 951              		.loc 1 676 0
 952              		.cfi_startproc
 953              		@ args = 0, pretend = 0, frame = 0
 954              		@ frame_needed = 0, uses_anonymous_args = 0
 955              	.LVL62:
 956              		.loc 1 678 0
 957 0000 0278     		ldrb	r2, [r0]	@ zero_extendqisi2
 958 0002 022A     		cmp	r2, #2
 959 0004 00D0     		beq	.L119
 960 0006 7047     		bx	lr
 961              	.L119:
 962              		.loc 1 676 0
 963 0008 10B5     		push	{r4, lr}
 964              		.cfi_def_cfa_offset 8
 965              		.cfi_offset 4, -8
 966              		.cfi_offset 14, -4
 967 000a 0446     		mov	r4, r0
 968              		.loc 1 679 0
 969 000c FFF7FEFF 		bl	usart_stop
ARM GAS  /var/tmp//cc14nQlK.s 			page 18


 970              	.LVL63:
 971              		.loc 1 680 0
 972 0010 2069     		ldr	r0, [r4, #16]
 973 0012 FFF7FEFF 		bl	dmaStreamRelease
 974              	.LVL64:
 975              		.loc 1 681 0
 976 0016 6069     		ldr	r0, [r4, #20]
 977 0018 FFF7FEFF 		bl	dmaStreamRelease
 978              	.LVL65:
 979              		.loc 1 700 0
 980 001c 0C4B     		ldr	r3, .L122
 981 001e 9C42     		cmp	r4, r3
 982 0020 0CD0     		beq	.L120
 983              		.loc 1 724 0
 984 0022 0C4B     		ldr	r3, .L122+4
 985 0024 9C42     		cmp	r4, r3
 986 0026 00D0     		beq	.L121
 987              	.L110:
 988 0028 10BD     		pop	{r4, pc}
 989              	.LVL66:
 990              	.L121:
 991              		.loc 1 725 0
 992 002a 4720     		movs	r0, #71
 993 002c FFF7FEFF 		bl	nvicDisableVector
 994              	.LVL67:
 995              		.loc 1 726 0
 996 0030 094A     		ldr	r2, .L122+8
 997 0032 536C     		ldr	r3, [r2, #68]
 998 0034 23F02003 		bic	r3, r3, #32
 999 0038 5364     		str	r3, [r2, #68]
 1000              		.loc 1 727 0
 1001 003a F5E7     		b	.L110
 1002              	.L120:
 1003              		.loc 1 701 0
 1004 003c 2720     		movs	r0, #39
 1005 003e FFF7FEFF 		bl	nvicDisableVector
 1006              	.LVL68:
 1007              		.loc 1 702 0
 1008 0042 054A     		ldr	r2, .L122+8
 1009 0044 136C     		ldr	r3, [r2, #64]
 1010 0046 23F48023 		bic	r3, r3, #262144
 1011 004a 1364     		str	r3, [r2, #64]
 1012              		.loc 1 703 0
 1013 004c 10BD     		pop	{r4, pc}
 1014              	.LVL69:
 1015              	.L123:
 1016 004e 00BF     		.align	2
 1017              	.L122:
 1018 0050 00000000 		.word	.LANCHOR0
 1019 0054 00000000 		.word	.LANCHOR1
 1020 0058 00380240 		.word	1073887232
 1021              		.cfi_endproc
 1022              	.LFE267:
 1023              		.size	uart_lld_stop, .-uart_lld_stop
 1024              		.section	.text.uart_lld_start_send,"ax",%progbits
 1025              		.align	1
 1026              		.p2align 4,,15
ARM GAS  /var/tmp//cc14nQlK.s 			page 19


 1027              		.global	uart_lld_start_send
 1028              		.syntax unified
 1029              		.thumb
 1030              		.thumb_func
 1031              		.fpu fpv4-sp-d16
 1032              		.type	uart_lld_start_send, %function
 1033              	uart_lld_start_send:
 1034              	.LFB268:
 1035              		.loc 1 744 0
 1036              		.cfi_startproc
 1037              		@ args = 0, pretend = 0, frame = 0
 1038              		@ frame_needed = 0, uses_anonymous_args = 0
 1039              		@ link register save eliminated.
 1040              	.LVL70:
 1041 0000 30B4     		push	{r4, r5}
 1042              		.cfi_def_cfa_offset 8
 1043              		.cfi_offset 4, -8
 1044              		.cfi_offset 5, -4
 1045              		.loc 1 747 0
 1046 0002 4369     		ldr	r3, [r0, #20]
 1047              		.loc 1 754 0
 1048 0004 4568     		ldr	r5, [r0, #4]
 1049              		.loc 1 749 0
 1050 0006 C468     		ldr	r4, [r0, #12]
 1051              		.loc 1 747 0
 1052 0008 1B68     		ldr	r3, [r3]
 1053              		.loc 1 754 0
 1054 000a 6D68     		ldr	r5, [r5, #4]
 1055              		.loc 1 747 0
 1056 000c DA60     		str	r2, [r3, #12]
 1057              		.loc 1 749 0
 1058 000e 44F48A64 		orr	r4, r4, #1104
 1059              		.loc 1 748 0
 1060 0012 5960     		str	r1, [r3, #4]
 1061              		.loc 1 749 0
 1062 0014 1C60     		str	r4, [r3]
 1063              		.loc 1 754 0
 1064 0016 3DB1     		cbz	r5, .L125
 1065              		.loc 1 755 0
 1066 0018 8268     		ldr	r2, [r0, #8]
 1067              	.LVL71:
 1068 001a 6FF04001 		mvn	r1, #64
 1069              	.LVL72:
 1070 001e 1160     		str	r1, [r2]
 1071              		.loc 1 756 0
 1072 0020 D168     		ldr	r1, [r2, #12]
 1073 0022 41F04001 		orr	r1, r1, #64
 1074 0026 D160     		str	r1, [r2, #12]
 1075              	.L125:
 1076              		.loc 1 760 0
 1077 0028 1A68     		ldr	r2, [r3]
 1078 002a 42F00102 		orr	r2, r2, #1
 1079 002e 1A60     		str	r2, [r3]
 1080              		.loc 1 761 0
 1081 0030 30BC     		pop	{r4, r5}
 1082              		.cfi_restore 5
 1083              		.cfi_restore 4
ARM GAS  /var/tmp//cc14nQlK.s 			page 20


 1084              		.cfi_def_cfa_offset 0
 1085 0032 7047     		bx	lr
 1086              		.cfi_endproc
 1087              	.LFE268:
 1088              		.size	uart_lld_start_send, .-uart_lld_start_send
 1089              		.section	.text.uart_lld_stop_send,"ax",%progbits
 1090              		.align	1
 1091              		.p2align 4,,15
 1092              		.global	uart_lld_stop_send
 1093              		.syntax unified
 1094              		.thumb
 1095              		.thumb_func
 1096              		.fpu fpv4-sp-d16
 1097              		.type	uart_lld_stop_send, %function
 1098              	uart_lld_stop_send:
 1099              	.LFB269:
 1100              		.loc 1 774 0
 1101              		.cfi_startproc
 1102              		@ args = 0, pretend = 0, frame = 0
 1103              		@ frame_needed = 0, uses_anonymous_args = 0
 1104              		@ link register save eliminated.
 1105              	.LVL73:
 1106              		.loc 1 776 0
 1107 0000 4169     		ldr	r1, [r0, #20]
 1108 0002 0A68     		ldr	r2, [r1]
 1109 0004 1368     		ldr	r3, [r2]
 1110 0006 23F01F03 		bic	r3, r3, #31
 1111 000a 1360     		str	r3, [r2]
 1112              	.L131:
 1113              		.loc 1 776 0 is_stmt 0 discriminator 2
 1114 000c 1368     		ldr	r3, [r2]
 1115 000e DB07     		lsls	r3, r3, #31
 1116 0010 FCD4     		bmi	.L131
 1117              		.loc 1 776 0 discriminator 3
 1118 0012 087A     		ldrb	r0, [r1, #8]	@ zero_extendqisi2
 1119              	.LVL74:
 1120 0014 4968     		ldr	r1, [r1, #4]
 1121 0016 3D23     		movs	r3, #61
 1122 0018 8340     		lsls	r3, r3, r0
 1123 001a 0B60     		str	r3, [r1]
 1124              		.loc 1 778 0 is_stmt 1 discriminator 3
 1125 001c 5068     		ldr	r0, [r2, #4]
 1126              		.loc 1 779 0 discriminator 3
 1127 001e 7047     		bx	lr
 1128              		.cfi_endproc
 1129              	.LFE269:
 1130              		.size	uart_lld_stop_send, .-uart_lld_stop_send
 1131              		.section	.text.uart_lld_start_receive,"ax",%progbits
 1132              		.align	1
 1133              		.p2align 4,,15
 1134              		.global	uart_lld_start_receive
 1135              		.syntax unified
 1136              		.thumb
 1137              		.thumb_func
 1138              		.fpu fpv4-sp-d16
 1139              		.type	uart_lld_start_receive, %function
 1140              	uart_lld_start_receive:
ARM GAS  /var/tmp//cc14nQlK.s 			page 21


 1141              	.LFB270:
 1142              		.loc 1 792 0
 1143              		.cfi_startproc
 1144              		@ args = 0, pretend = 0, frame = 0
 1145              		@ frame_needed = 0, uses_anonymous_args = 0
 1146              		@ link register save eliminated.
 1147              	.LVL75:
 1148 0000 70B4     		push	{r4, r5, r6}
 1149              		.cfi_def_cfa_offset 12
 1150              		.cfi_offset 4, -12
 1151              		.cfi_offset 5, -8
 1152              		.cfi_offset 6, -4
 1153              		.loc 1 795 0
 1154 0002 0569     		ldr	r5, [r0, #16]
 1155 0004 2C68     		ldr	r4, [r5]
 1156 0006 2368     		ldr	r3, [r4]
 1157 0008 23F01F03 		bic	r3, r3, #31
 1158 000c 2360     		str	r3, [r4]
 1159              	.L134:
 1160              		.loc 1 795 0 is_stmt 0 discriminator 2
 1161 000e 2368     		ldr	r3, [r4]
 1162 0010 DB07     		lsls	r3, r3, #31
 1163 0012 FCD4     		bmi	.L134
 1164              		.loc 1 795 0 discriminator 3
 1165 0014 2E7A     		ldrb	r6, [r5, #8]	@ zero_extendqisi2
 1166 0016 6D68     		ldr	r5, [r5, #4]
 1167 0018 3D23     		movs	r3, #61
 1168 001a B340     		lsls	r3, r3, r6
 1169 001c 2B60     		str	r3, [r5]
 1170              		.loc 1 800 0 is_stmt 1 discriminator 3
 1171 001e C368     		ldr	r3, [r0, #12]
 1172              		.loc 1 798 0 discriminator 3
 1173 0020 E260     		str	r2, [r4, #12]
 1174              		.loc 1 800 0 discriminator 3
 1175 0022 43F48263 		orr	r3, r3, #1040
 1176              		.loc 1 799 0 discriminator 3
 1177 0026 6160     		str	r1, [r4, #4]
 1178              		.loc 1 800 0 discriminator 3
 1179 0028 2360     		str	r3, [r4]
 1180              		.loc 1 804 0 discriminator 3
 1181 002a 2368     		ldr	r3, [r4]
 1182 002c 43F00103 		orr	r3, r3, #1
 1183 0030 2360     		str	r3, [r4]
 1184              		.loc 1 805 0 discriminator 3
 1185 0032 70BC     		pop	{r4, r5, r6}
 1186              		.cfi_restore 6
 1187              		.cfi_restore 5
 1188              		.cfi_restore 4
 1189              		.cfi_def_cfa_offset 0
 1190 0034 7047     		bx	lr
 1191              		.cfi_endproc
 1192              	.LFE270:
 1193              		.size	uart_lld_start_receive, .-uart_lld_start_receive
 1194 0036 00BF     		.section	.text.uart_lld_stop_receive,"ax",%progbits
 1195              		.align	1
 1196              		.p2align 4,,15
 1197              		.global	uart_lld_stop_receive
ARM GAS  /var/tmp//cc14nQlK.s 			page 22


 1198              		.syntax unified
 1199              		.thumb
 1200              		.thumb_func
 1201              		.fpu fpv4-sp-d16
 1202              		.type	uart_lld_stop_receive, %function
 1203              	uart_lld_stop_receive:
 1204              	.LFB271:
 1205              		.loc 1 818 0
 1206              		.cfi_startproc
 1207              		@ args = 0, pretend = 0, frame = 0
 1208              		@ frame_needed = 0, uses_anonymous_args = 0
 1209              		@ link register save eliminated.
 1210              	.LVL76:
 1211 0000 0146     		mov	r1, r0
 1212              		.loc 1 821 0
 1213 0002 0069     		ldr	r0, [r0, #16]
 1214              	.LVL77:
 1215 0004 0268     		ldr	r2, [r0]
 1216 0006 1368     		ldr	r3, [r2]
 1217 0008 23F01F03 		bic	r3, r3, #31
 1218              		.loc 1 818 0
 1219 000c 30B4     		push	{r4, r5}
 1220              		.cfi_def_cfa_offset 8
 1221              		.cfi_offset 4, -8
 1222              		.cfi_offset 5, -4
 1223              		.loc 1 821 0
 1224 000e 1360     		str	r3, [r2]
 1225              	.L138:
 1226              		.loc 1 821 0 is_stmt 0 discriminator 2
 1227 0010 1368     		ldr	r3, [r2]
 1228 0012 DB07     		lsls	r3, r3, #31
 1229 0014 FCD4     		bmi	.L138
 1230              	.LBB68:
 1231              	.LBB69:
 1232              		.loc 1 164 0 is_stmt 1 discriminator 3
 1233 0016 4B68     		ldr	r3, [r1, #4]
 1234              	.LBE69:
 1235              	.LBE68:
 1236              		.loc 1 821 0 discriminator 3
 1237 0018 047A     		ldrb	r4, [r0, #8]	@ zero_extendqisi2
 1238              	.LBB73:
 1239              	.LBB70:
 1240              		.loc 1 164 0 discriminator 3
 1241 001a DD68     		ldr	r5, [r3, #12]
 1242              	.LBE70:
 1243              	.LBE73:
 1244              		.loc 1 821 0 discriminator 3
 1245 001c 4068     		ldr	r0, [r0, #4]
 1246 001e 3D23     		movs	r3, #61
 1247 0020 A340     		lsls	r3, r3, r4
 1248 0022 0360     		str	r3, [r0]
 1249              	.LBB74:
 1250              	.LBB71:
 1251              		.loc 1 170 0 discriminator 3
 1252 0024 CC68     		ldr	r4, [r1, #12]
 1253              	.LBE71:
 1254              	.LBE74:
ARM GAS  /var/tmp//cc14nQlK.s 			page 23


 1255              		.loc 1 822 0 discriminator 3
 1256 0026 5068     		ldr	r0, [r2, #4]
 1257              	.LVL78:
 1258              	.LBB75:
 1259              	.LBB72:
 1260              		.loc 1 167 0 discriminator 3
 1261 0028 002D     		cmp	r5, #0
 1262 002a 0CBF     		ite	eq
 1263 002c 4FF48073 		moveq	r3, #256
 1264 0030 4FF48873 		movne	r3, #272
 1265              	.LVL79:
 1266              		.loc 1 170 0 discriminator 3
 1267 0034 2343     		orrs	r3, r3, r4
 1268              	.LVL80:
 1269              		.loc 1 168 0 discriminator 3
 1270 0036 1831     		adds	r1, r1, #24
 1271              	.LVL81:
 1272              		.loc 1 169 0 discriminator 3
 1273 0038 0124     		movs	r4, #1
 1274              		.loc 1 168 0 discriminator 3
 1275 003a D160     		str	r1, [r2, #12]
 1276              	.LVL82:
 1277              		.loc 1 169 0 discriminator 3
 1278 003c 5460     		str	r4, [r2, #4]
 1279              		.loc 1 170 0 discriminator 3
 1280 003e 1360     		str	r3, [r2]
 1281              		.loc 1 171 0 discriminator 3
 1282 0040 1368     		ldr	r3, [r2]
 1283 0042 2343     		orrs	r3, r3, r4
 1284 0044 1360     		str	r3, [r2]
 1285              	.LVL83:
 1286              	.LBE72:
 1287              	.LBE75:
 1288              		.loc 1 826 0 discriminator 3
 1289 0046 30BC     		pop	{r4, r5}
 1290              		.cfi_restore 5
 1291              		.cfi_restore 4
 1292              		.cfi_def_cfa_offset 0
 1293 0048 7047     		bx	lr
 1294              		.cfi_endproc
 1295              	.LFE271:
 1296              		.size	uart_lld_stop_receive, .-uart_lld_stop_receive
 1297              		.global	UARTD6
 1298              		.global	UARTD3
 1299 004a 00BF     		.section	.bss.UARTD3,"aw",%nobits
 1300              		.align	2
 1301              		.set	.LANCHOR0,. + 0
 1302              		.type	UARTD3, %object
 1303              		.size	UARTD3, 28
 1304              	UARTD3:
 1305 0000 00000000 		.space	28
 1305      00000000 
 1305      00000000 
 1305      00000000 
 1305      00000000 
 1306              		.section	.bss.UARTD6,"aw",%nobits
 1307              		.align	2
ARM GAS  /var/tmp//cc14nQlK.s 			page 24


 1308              		.set	.LANCHOR1,. + 0
 1309              		.type	UARTD6, %object
 1310              		.size	UARTD6, 28
 1311              	UARTD6:
 1312 0000 00000000 		.space	28
 1312      00000000 
 1312      00000000 
 1312      00000000 
 1312      00000000 
 1313              		.section	.rodata.uart_lld_serve_tx_end_irq.str1.4,"aMS",%progbits,1
 1314              		.align	2
 1315              	.LC0:
 1316 0000 444D4120 		.ascii	"DMA failure\000"
 1316      6661696C 
 1316      75726500 
 1317              		.text
 1318              	.Letext0:
 1319              		.file 3 "/usr/local/gcc_arm/gcc-arm-none-eabi-6-2017-q2-update/lib/gcc/arm-none-eabi/6.3.1/include
 1320              		.file 4 "/usr/local/gcc_arm/gcc-arm-none-eabi-6-2017-q2-update/arm-none-eabi/include/machine/_defa
 1321              		.file 5 "/usr/local/gcc_arm/gcc-arm-none-eabi-6-2017-q2-update/arm-none-eabi/include/sys/_stdint.h
 1322              		.file 6 "ChibiOS_3.0.2/os/rt/ports/ARMCMx/compilers/GCC/chtypes.h"
 1323              		.file 7 "ChibiOS_3.0.2/os/rt/include/chsystypes.h"
 1324              		.file 8 "ChibiOS_3.0.2/os/rt/include/chschd.h"
 1325              		.file 9 "ChibiOS_3.0.2/os/ext/CMSIS/include/core_cm4.h"
 1326              		.file 10 "ChibiOS_3.0.2/os/ext/CMSIS/ST/system_stm32f4xx.h"
 1327              		.file 11 "ChibiOS_3.0.2/os/ext/CMSIS/ST/stm32f407xx.h"
 1328              		.file 12 "ChibiOS_3.0.2/os/rt/ports/ARMCMx/chcore.h"
 1329              		.file 13 "ChibiOS_3.0.2/os/rt/ports/ARMCMx/chcore_v7m.h"
 1330              		.file 14 "ChibiOS_3.0.2/os/rt/include/chtm.h"
 1331              		.file 15 "ChibiOS_3.0.2/os/rt/include/chsem.h"
 1332              		.file 16 "ChibiOS_3.0.2/os/rt/include/chmtx.h"
 1333              		.file 17 "ChibiOS_3.0.2/os/rt/include/chregistry.h"
 1334              		.file 18 "ChibiOS_3.0.2/os/rt/include/chevents.h"
 1335              		.file 19 "ChibiOS_3.0.2/os/rt/include/chqueues.h"
 1336              		.file 20 "./conf_general.h"
 1337              		.file 21 "ChibiOS_3.0.2/os/hal/ports/STM32/STM32F4xx/stm32_dma.h"
 1338              		.file 22 "ChibiOS_3.0.2/os/hal/ports/STM32/LLD/GPIOv2/pal_lld.h"
 1339              		.file 23 "ChibiOS_3.0.2/os/hal/include/can.h"
 1340              		.file 24 "ChibiOS_3.0.2/os/hal/ports/STM32/LLD/can_lld.h"
 1341              		.file 25 "ChibiOS_3.0.2/os/hal/include/i2c.h"
 1342              		.file 26 "ChibiOS_3.0.2/os/hal/ports/STM32/LLD/I2Cv1/i2c_lld.h"
 1343              		.file 27 "ChibiOS_3.0.2/os/hal/include/icu.h"
 1344              		.file 28 "ChibiOS_3.0.2/os/hal/ports/STM32/LLD/TIMv1/icu_lld.h"
 1345              		.file 29 "ChibiOS_3.0.2/os/hal/ports/STM32/LLD/TIMv1/stm32_tim.h"
 1346              		.file 30 "ChibiOS_3.0.2/os/hal/include/spi.h"
 1347              		.file 31 "ChibiOS_3.0.2/os/hal/ports/STM32/LLD/SPIv1/spi_lld.h"
 1348              		.file 32 "ChibiOS_3.0.2/os/hal/include/uart.h"
 1349              		.file 33 "ChibiOS_3.0.2/os/hal/ports/STM32/LLD/USARTv1/uart_lld.h"
 1350              		.file 34 "ChibiOS_3.0.2/os/hal/include/usb.h"
 1351              		.file 35 "ChibiOS_3.0.2/os/hal/ports/STM32/LLD/OTGv1/usb_lld.h"
 1352              		.file 36 "ChibiOS_3.0.2/os/hal/ports/STM32/LLD/OTGv1/stm32_otg.h"
 1353              		.file 37 "ChibiOS_3.0.2/os/hal/ports/common/ARMCMx/nvic.h"
 1354              		.file 38 "ChibiOS_3.0.2/os/rt/include/chsys.h"