ARM GAS  C:\Users\Grillmo\AppData\Local\Temp\ccX6Q3Iw.s 			page 1


   1              		.cpu cortex-m4
   2              		.eabi_attribute 27, 1
   3              		.eabi_attribute 28, 1
   4              		.eabi_attribute 20, 1
   5              		.eabi_attribute 21, 1
   6              		.eabi_attribute 23, 3
   7              		.eabi_attribute 24, 1
   8              		.eabi_attribute 25, 1
   9              		.eabi_attribute 26, 1
  10              		.eabi_attribute 30, 2
  11              		.eabi_attribute 34, 1
  12              		.eabi_attribute 18, 4
  13              		.file	"usb.c"
  14              		.text
  15              	.Ltext0:
  16              		.cfi_sections	.debug_frame
  17              		.section	.text.usbInit,"ax",%progbits
  18              		.align	1
  19              		.p2align 4,,15
  20              		.global	usbInit
  21              		.syntax unified
  22              		.thumb
  23              		.thumb_func
  24              		.fpu fpv4-sp-d16
  25              		.type	usbInit, %function
  26              	usbInit:
  27              	.LFB259:
  28              		.file 1 "ChibiOS_3.0.2/os/hal/src/usb.c"
  29              		.loc 1 254 0
  30              		.cfi_startproc
  31              		@ args = 0, pretend = 0, frame = 0
  32              		@ frame_needed = 0, uses_anonymous_args = 0
  33              		@ link register save eliminated.
  34              		.loc 1 256 0
  35 0000 FFF7FEBF 		b	usb_lld_init
  36              	.LVL0:
  37              		.cfi_endproc
  38              	.LFE259:
  39              		.size	usbInit, .-usbInit
  40              		.section	.text.usbObjectInit,"ax",%progbits
  41              		.align	1
  42              		.p2align 4,,15
  43              		.global	usbObjectInit
  44              		.syntax unified
  45              		.thumb
  46              		.thumb_func
  47              		.fpu fpv4-sp-d16
  48              		.type	usbObjectInit, %function
  49              	usbObjectInit:
  50              	.LFB260:
  51              		.loc 1 266 0
  52              		.cfi_startproc
  53              		@ args = 0, pretend = 0, frame = 0
  54              		@ frame_needed = 0, uses_anonymous_args = 0
  55              		@ link register save eliminated.
  56              	.LVL1:
  57              		.loc 1 270 0
ARM GAS  C:\Users\Grillmo\AppData\Local\Temp\ccX6Q3Iw.s 			page 2


  58 0000 0023     		movs	r3, #0
  59              		.loc 1 269 0
  60 0002 0122     		movs	r2, #1
  61 0004 0270     		strb	r2, [r0]
  62              		.loc 1 270 0
  63 0006 4360     		str	r3, [r0, #4]
  64              	.LVL2:
  65              		.loc 1 272 0
  66 0008 C361     		str	r3, [r0, #28]
  67              		.loc 1 273 0
  68 000a 8362     		str	r3, [r0, #40]
  69              	.LVL3:
  70              		.loc 1 272 0
  71 000c 0362     		str	r3, [r0, #32]
  72              		.loc 1 273 0
  73 000e C362     		str	r3, [r0, #44]
  74              	.LVL4:
  75              		.loc 1 272 0
  76 0010 4362     		str	r3, [r0, #36]
  77              		.loc 1 273 0
  78 0012 0363     		str	r3, [r0, #48]
  79              	.LVL5:
  80              		.loc 1 275 0
  81 0014 0381     		strh	r3, [r0, #8]	@ movhi
  82              		.loc 1 276 0
  83 0016 4381     		strh	r3, [r0, #10]	@ movhi
  84 0018 7047     		bx	lr
  85              		.cfi_endproc
  86              	.LFE260:
  87              		.size	usbObjectInit, .-usbObjectInit
  88 001a 00BF     		.section	.text.usbStart,"ax",%progbits
  89              		.align	1
  90              		.p2align 4,,15
  91              		.global	usbStart
  92              		.syntax unified
  93              		.thumb
  94              		.thumb_func
  95              		.fpu fpv4-sp-d16
  96              		.type	usbStart, %function
  97              	usbStart:
  98              	.LFB261:
  99              		.loc 1 287 0
 100              		.cfi_startproc
 101              		@ args = 0, pretend = 0, frame = 0
 102              		@ frame_needed = 0, uses_anonymous_args = 0
 103              	.LVL6:
 104 0000 38B5     		push	{r3, r4, r5, lr}
 105              		.cfi_def_cfa_offset 16
 106              		.cfi_offset 3, -16
 107              		.cfi_offset 4, -12
 108              		.cfi_offset 5, -8
 109              		.cfi_offset 14, -4
 110              		.loc 1 287 0
 111 0002 0446     		mov	r4, r0
 112              	.LBB212:
 113              	.LBB213:
 114              	.LBB214:
ARM GAS  C:\Users\Grillmo\AppData\Local\Temp\ccX6Q3Iw.s 			page 3


 115              	.LBB215:
 116              	.LBB216:
 117              		.file 2 "ChibiOS_3.0.2/os/ext/CMSIS/include/core_cmFunc.h"
 118              		.loc 2 546 0
 119 0004 2023     		movs	r3, #32
 120              		.syntax unified
 121              	@ 546 "ChibiOS_3.0.2/os/ext/CMSIS/include/core_cmFunc.h" 1
 122 0006 83F31188 		MSR basepri, r3
 123              	@ 0 "" 2
 124              	.LVL7:
 125              		.thumb
 126              		.syntax unified
 127              	.LBE216:
 128              	.LBE215:
 129              	.LBE214:
 130              	.LBE213:
 131              	.LBE212:
 132              		.loc 1 297 0
 133 000a 0025     		movs	r5, #0
 134              		.loc 1 295 0
 135 000c 4160     		str	r1, [r0, #4]
 136              	.LVL8:
 137              		.loc 1 297 0
 138 000e C560     		str	r5, [r0, #12]
 139              	.LVL9:
 140 0010 0561     		str	r5, [r0, #16]
 141              	.LVL10:
 142 0012 4561     		str	r5, [r0, #20]
 143              	.LVL11:
 144 0014 8561     		str	r5, [r0, #24]
 145              	.LVL12:
 146              		.loc 1 299 0
 147 0016 FFF7FEFF 		bl	usb_lld_start
 148              	.LVL13:
 149              		.loc 1 300 0
 150 001a 0223     		movs	r3, #2
 151 001c 2370     		strb	r3, [r4]
 152              	.LVL14:
 153              	.LBB217:
 154              	.LBB218:
 155              	.LBB219:
 156              	.LBB220:
 157              	.LBB221:
 158              	.LBB222:
 159              		.loc 2 546 0
 160              		.syntax unified
 161              	@ 546 "ChibiOS_3.0.2/os/ext/CMSIS/include/core_cmFunc.h" 1
 162 001e 85F31188 		MSR basepri, r5
 163              	@ 0 "" 2
 164              	.LVL15:
 165              		.thumb
 166              		.syntax unified
 167 0022 38BD     		pop	{r3, r4, r5, pc}
 168              	.LBE222:
 169              	.LBE221:
 170              	.LBE220:
 171              	.LBE219:
ARM GAS  C:\Users\Grillmo\AppData\Local\Temp\ccX6Q3Iw.s 			page 4


 172              	.LBE218:
 173              	.LBE217:
 174              		.cfi_endproc
 175              	.LFE261:
 176              		.size	usbStart, .-usbStart
 177              		.section	.text.usbStop,"ax",%progbits
 178              		.align	1
 179              		.p2align 4,,15
 180              		.global	usbStop
 181              		.syntax unified
 182              		.thumb
 183              		.thumb_func
 184              		.fpu fpv4-sp-d16
 185              		.type	usbStop, %function
 186              	usbStop:
 187              	.LFB262:
 188              		.loc 1 311 0
 189              		.cfi_startproc
 190              		@ args = 0, pretend = 0, frame = 0
 191              		@ frame_needed = 0, uses_anonymous_args = 0
 192              	.LVL16:
 193 0000 10B5     		push	{r4, lr}
 194              		.cfi_def_cfa_offset 8
 195              		.cfi_offset 4, -8
 196              		.cfi_offset 14, -4
 197              	.LBB223:
 198              	.LBB224:
 199              	.LBB225:
 200              	.LBB226:
 201              	.LBB227:
 202              		.loc 2 546 0
 203 0002 2023     		movs	r3, #32
 204              	.LBE227:
 205              	.LBE226:
 206              	.LBE225:
 207              	.LBE224:
 208              	.LBE223:
 209              		.loc 1 311 0
 210 0004 0446     		mov	r4, r0
 211              	.LBB232:
 212              	.LBB231:
 213              	.LBB230:
 214              	.LBB229:
 215              	.LBB228:
 216              		.loc 2 546 0
 217              		.syntax unified
 218              	@ 546 "ChibiOS_3.0.2/os/ext/CMSIS/include/core_cmFunc.h" 1
 219 0006 83F31188 		MSR basepri, r3
 220              	@ 0 "" 2
 221              	.LVL17:
 222              		.thumb
 223              		.syntax unified
 224              	.LBE228:
 225              	.LBE229:
 226              	.LBE230:
 227              	.LBE231:
 228              	.LBE232:
ARM GAS  C:\Users\Grillmo\AppData\Local\Temp\ccX6Q3Iw.s 			page 5


 229              		.loc 1 319 0
 230 000a FFF7FEFF 		bl	usb_lld_stop
 231              	.LVL18:
 232              		.loc 1 320 0
 233 000e 0123     		movs	r3, #1
 234 0010 2370     		strb	r3, [r4]
 235              	.LVL19:
 236              	.LBB233:
 237              	.LBB234:
 238              	.LBB235:
 239              	.LBB236:
 240              	.LBB237:
 241              	.LBB238:
 242              		.loc 2 546 0
 243 0012 0023     		movs	r3, #0
 244              		.syntax unified
 245              	@ 546 "ChibiOS_3.0.2/os/ext/CMSIS/include/core_cmFunc.h" 1
 246 0014 83F31188 		MSR basepri, r3
 247              	@ 0 "" 2
 248              	.LVL20:
 249              		.thumb
 250              		.syntax unified
 251 0018 10BD     		pop	{r4, pc}
 252              	.LBE238:
 253              	.LBE237:
 254              	.LBE236:
 255              	.LBE235:
 256              	.LBE234:
 257              	.LBE233:
 258              		.cfi_endproc
 259              	.LFE262:
 260              		.size	usbStop, .-usbStop
 261 001a 00BF     		.section	.text.usbInitEndpointI,"ax",%progbits
 262              		.align	1
 263              		.p2align 4,,15
 264              		.global	usbInitEndpointI
 265              		.syntax unified
 266              		.thumb
 267              		.thumb_func
 268              		.fpu fpv4-sp-d16
 269              		.type	usbInitEndpointI, %function
 270              	usbInitEndpointI:
 271              	.LFB263:
 272              		.loc 1 338 0
 273              		.cfi_startproc
 274              		@ args = 0, pretend = 0, frame = 0
 275              		@ frame_needed = 0, uses_anonymous_args = 0
 276              		@ link register save eliminated.
 277              	.LVL21:
 278              		.loc 1 347 0
 279 0000 5369     		ldr	r3, [r2, #20]
 280              		.loc 1 338 0
 281 0002 10B4     		push	{r4}
 282              		.cfi_def_cfa_offset 4
 283              		.cfi_offset 4, -4
 284              		.loc 1 347 0
 285 0004 2BB1     		cbz	r3, .L8
ARM GAS  C:\Users\Grillmo\AppData\Local\Temp\ccX6Q3Iw.s 			page 6


 286              		.loc 1 348 0
 287 0006 0024     		movs	r4, #0
 288 0008 1C60     		str	r4, [r3]	@ unaligned
 289 000a 5C60     		str	r4, [r3, #4]	@ unaligned
 290 000c 9C60     		str	r4, [r3, #8]	@ unaligned
 291 000e DC60     		str	r4, [r3, #12]	@ unaligned
 292 0010 1C61     		str	r4, [r3, #16]	@ unaligned
 293              	.L8:
 294              		.loc 1 350 0
 295 0012 9369     		ldr	r3, [r2, #24]
 296 0014 2BB1     		cbz	r3, .L9
 297              		.loc 1 351 0
 298 0016 0024     		movs	r4, #0
 299 0018 1C60     		str	r4, [r3]	@ unaligned
 300 001a 5C60     		str	r4, [r3, #4]	@ unaligned
 301 001c 9C60     		str	r4, [r3, #8]	@ unaligned
 302 001e DC60     		str	r4, [r3, #12]	@ unaligned
 303 0020 1C61     		str	r4, [r3, #16]	@ unaligned
 304              	.L9:
 305              		.loc 1 354 0
 306 0022 00EB8103 		add	r3, r0, r1, lsl #2
 307              		.loc 1 358 0
 308 0026 5DF8044B 		ldr	r4, [sp], #4
 309              		.cfi_restore 4
 310              		.cfi_def_cfa_offset 0
 311              		.loc 1 354 0
 312 002a DA60     		str	r2, [r3, #12]
 313              		.loc 1 357 0
 314 002c FFF7FEBF 		b	usb_lld_init_endpoint
 315              	.LVL22:
 316              		.cfi_endproc
 317              	.LFE263:
 318              		.size	usbInitEndpointI, .-usbInitEndpointI
 319              		.section	.text.usbDisableEndpointsI,"ax",%progbits
 320              		.align	1
 321              		.p2align 4,,15
 322              		.global	usbDisableEndpointsI
 323              		.syntax unified
 324              		.thumb
 325              		.thumb_func
 326              		.fpu fpv4-sp-d16
 327              		.type	usbDisableEndpointsI, %function
 328              	usbDisableEndpointsI:
 329              	.LFB264:
 330              		.loc 1 371 0
 331              		.cfi_startproc
 332              		@ args = 0, pretend = 0, frame = 0
 333              		@ frame_needed = 0, uses_anonymous_args = 0
 334              		@ link register save eliminated.
 335              	.LVL23:
 336 0000 10B4     		push	{r4}
 337              		.cfi_def_cfa_offset 4
 338              		.cfi_offset 4, -4
 339              		.loc 1 379 0
 340 0002 4189     		ldrh	r1, [r0, #10]
 341              		.loc 1 378 0
 342 0004 0489     		ldrh	r4, [r0, #8]
ARM GAS  C:\Users\Grillmo\AppData\Local\Temp\ccX6Q3Iw.s 			page 7


 343              		.loc 1 381 0
 344 0006 0022     		movs	r2, #0
 345              		.loc 1 378 0
 346 0008 24F00104 		bic	r4, r4, #1
 347              		.loc 1 379 0
 348 000c 21F00101 		bic	r1, r1, #1
 349              		.loc 1 378 0
 350 0010 0481     		strh	r4, [r0, #8]	@ movhi
 351              		.loc 1 381 0
 352 0012 0261     		str	r2, [r0, #16]
 353              		.loc 1 379 0
 354 0014 4181     		strh	r1, [r0, #10]	@ movhi
 355              	.LVL24:
 356              		.loc 1 381 0
 357 0016 4261     		str	r2, [r0, #20]
 358              	.LVL25:
 359 0018 8261     		str	r2, [r0, #24]
 360              	.LVL26:
 361              		.loc 1 386 0
 362 001a 5DF8044B 		ldr	r4, [sp], #4
 363              		.cfi_restore 4
 364              		.cfi_def_cfa_offset 0
 365              		.loc 1 385 0
 366 001e FFF7FEBF 		b	usb_lld_disable_endpoints
 367              	.LVL27:
 368              		.cfi_endproc
 369              	.LFE264:
 370              		.size	usbDisableEndpointsI, .-usbDisableEndpointsI
 371 0022 00BF     		.section	.text.usbPrepareReceive,"ax",%progbits
 372              		.align	1
 373              		.p2align 4,,15
 374              		.global	usbPrepareReceive
 375              		.syntax unified
 376              		.thumb
 377              		.thumb_func
 378              		.fpu fpv4-sp-d16
 379              		.type	usbPrepareReceive, %function
 380              	usbPrepareReceive:
 381              	.LFB265:
 382              		.loc 1 400 0
 383              		.cfi_startproc
 384              		@ args = 0, pretend = 0, frame = 0
 385              		@ frame_needed = 0, uses_anonymous_args = 0
 386              		@ link register save eliminated.
 387              	.LVL28:
 388 0000 30B4     		push	{r4, r5}
 389              		.cfi_def_cfa_offset 8
 390              		.cfi_offset 4, -8
 391              		.cfi_offset 5, -4
 392              		.loc 1 401 0
 393 0002 00EB8104 		add	r4, r0, r1, lsl #2
 394              		.loc 1 403 0
 395 0006 0025     		movs	r5, #0
 396              		.loc 1 401 0
 397 0008 E468     		ldr	r4, [r4, #12]
 398 000a A469     		ldr	r4, [r4, #24]
 399              	.LVL29:
ARM GAS  C:\Users\Grillmo\AppData\Local\Temp\ccX6Q3Iw.s 			page 8


 400              		.loc 1 404 0
 401 000c E260     		str	r2, [r4, #12]
 402              		.loc 1 405 0
 403 000e 6360     		str	r3, [r4, #4]
 404              		.loc 1 403 0
 405 0010 2570     		strb	r5, [r4]
 406              		.loc 1 406 0
 407 0012 A560     		str	r5, [r4, #8]
 408              		.loc 1 409 0
 409 0014 30BC     		pop	{r4, r5}
 410              		.cfi_restore 5
 411              		.cfi_restore 4
 412              		.cfi_def_cfa_offset 0
 413              	.LVL30:
 414              		.loc 1 408 0
 415 0016 FFF7FEBF 		b	usb_lld_prepare_receive
 416              	.LVL31:
 417              		.cfi_endproc
 418              	.LFE265:
 419              		.size	usbPrepareReceive, .-usbPrepareReceive
 420 001a 00BF     		.section	.text.usbPrepareTransmit,"ax",%progbits
 421              		.align	1
 422              		.p2align 4,,15
 423              		.global	usbPrepareTransmit
 424              		.syntax unified
 425              		.thumb
 426              		.thumb_func
 427              		.fpu fpv4-sp-d16
 428              		.type	usbPrepareTransmit, %function
 429              	usbPrepareTransmit:
 430              	.LFB266:
 431              		.loc 1 426 0
 432              		.cfi_startproc
 433              		@ args = 0, pretend = 0, frame = 0
 434              		@ frame_needed = 0, uses_anonymous_args = 0
 435              		@ link register save eliminated.
 436              	.LVL32:
 437 0000 30B4     		push	{r4, r5}
 438              		.cfi_def_cfa_offset 8
 439              		.cfi_offset 4, -8
 440              		.cfi_offset 5, -4
 441              		.loc 1 427 0
 442 0002 00EB8104 		add	r4, r0, r1, lsl #2
 443              		.loc 1 429 0
 444 0006 0025     		movs	r5, #0
 445              		.loc 1 427 0
 446 0008 E468     		ldr	r4, [r4, #12]
 447 000a 6469     		ldr	r4, [r4, #20]
 448              	.LVL33:
 449              		.loc 1 430 0
 450 000c E260     		str	r2, [r4, #12]
 451              		.loc 1 431 0
 452 000e 6360     		str	r3, [r4, #4]
 453              		.loc 1 429 0
 454 0010 2570     		strb	r5, [r4]
 455              		.loc 1 432 0
 456 0012 A560     		str	r5, [r4, #8]
ARM GAS  C:\Users\Grillmo\AppData\Local\Temp\ccX6Q3Iw.s 			page 9


 457              		.loc 1 435 0
 458 0014 30BC     		pop	{r4, r5}
 459              		.cfi_restore 5
 460              		.cfi_restore 4
 461              		.cfi_def_cfa_offset 0
 462              	.LVL34:
 463              		.loc 1 434 0
 464 0016 FFF7FEBF 		b	usb_lld_prepare_transmit
 465              	.LVL35:
 466              		.cfi_endproc
 467              	.LFE266:
 468              		.size	usbPrepareTransmit, .-usbPrepareTransmit
 469 001a 00BF     		.section	.text.usbPrepareQueuedReceive,"ax",%progbits
 470              		.align	1
 471              		.p2align 4,,15
 472              		.global	usbPrepareQueuedReceive
 473              		.syntax unified
 474              		.thumb
 475              		.thumb_func
 476              		.fpu fpv4-sp-d16
 477              		.type	usbPrepareQueuedReceive, %function
 478              	usbPrepareQueuedReceive:
 479              	.LFB267:
 480              		.loc 1 455 0
 481              		.cfi_startproc
 482              		@ args = 0, pretend = 0, frame = 0
 483              		@ frame_needed = 0, uses_anonymous_args = 0
 484              		@ link register save eliminated.
 485              	.LVL36:
 486 0000 70B4     		push	{r4, r5, r6}
 487              		.cfi_def_cfa_offset 12
 488              		.cfi_offset 4, -12
 489              		.cfi_offset 5, -8
 490              		.cfi_offset 6, -4
 491              		.loc 1 456 0
 492 0002 00EB8104 		add	r4, r0, r1, lsl #2
 493              		.loc 1 458 0
 494 0006 0126     		movs	r6, #1
 495              		.loc 1 456 0
 496 0008 E468     		ldr	r4, [r4, #12]
 497 000a A469     		ldr	r4, [r4, #24]
 498              	.LVL37:
 499              		.loc 1 461 0
 500 000c 0025     		movs	r5, #0
 501              		.loc 1 459 0
 502 000e E260     		str	r2, [r4, #12]
 503              		.loc 1 460 0
 504 0010 6360     		str	r3, [r4, #4]
 505              		.loc 1 458 0
 506 0012 2670     		strb	r6, [r4]
 507              		.loc 1 461 0
 508 0014 A560     		str	r5, [r4, #8]
 509              		.loc 1 464 0
 510 0016 70BC     		pop	{r4, r5, r6}
 511              		.cfi_restore 6
 512              		.cfi_restore 5
 513              		.cfi_restore 4
ARM GAS  C:\Users\Grillmo\AppData\Local\Temp\ccX6Q3Iw.s 			page 10


 514              		.cfi_def_cfa_offset 0
 515              	.LVL38:
 516              		.loc 1 463 0
 517 0018 FFF7FEBF 		b	usb_lld_prepare_receive
 518              	.LVL39:
 519              		.cfi_endproc
 520              	.LFE267:
 521              		.size	usbPrepareQueuedReceive, .-usbPrepareQueuedReceive
 522              		.section	.text.usbPrepareQueuedTransmit,"ax",%progbits
 523              		.align	1
 524              		.p2align 4,,15
 525              		.global	usbPrepareQueuedTransmit
 526              		.syntax unified
 527              		.thumb
 528              		.thumb_func
 529              		.fpu fpv4-sp-d16
 530              		.type	usbPrepareQueuedTransmit, %function
 531              	usbPrepareQueuedTransmit:
 532              	.LFB268:
 533              		.loc 1 481 0
 534              		.cfi_startproc
 535              		@ args = 0, pretend = 0, frame = 0
 536              		@ frame_needed = 0, uses_anonymous_args = 0
 537              		@ link register save eliminated.
 538              	.LVL40:
 539 0000 70B4     		push	{r4, r5, r6}
 540              		.cfi_def_cfa_offset 12
 541              		.cfi_offset 4, -12
 542              		.cfi_offset 5, -8
 543              		.cfi_offset 6, -4
 544              		.loc 1 482 0
 545 0002 00EB8104 		add	r4, r0, r1, lsl #2
 546              		.loc 1 484 0
 547 0006 0126     		movs	r6, #1
 548              		.loc 1 482 0
 549 0008 E468     		ldr	r4, [r4, #12]
 550 000a 6469     		ldr	r4, [r4, #20]
 551              	.LVL41:
 552              		.loc 1 487 0
 553 000c 0025     		movs	r5, #0
 554              		.loc 1 485 0
 555 000e E260     		str	r2, [r4, #12]
 556              		.loc 1 486 0
 557 0010 6360     		str	r3, [r4, #4]
 558              		.loc 1 484 0
 559 0012 2670     		strb	r6, [r4]
 560              		.loc 1 487 0
 561 0014 A560     		str	r5, [r4, #8]
 562              		.loc 1 490 0
 563 0016 70BC     		pop	{r4, r5, r6}
 564              		.cfi_restore 6
 565              		.cfi_restore 5
 566              		.cfi_restore 4
 567              		.cfi_def_cfa_offset 0
 568              	.LVL42:
 569              		.loc 1 489 0
 570 0018 FFF7FEBF 		b	usb_lld_prepare_transmit
ARM GAS  C:\Users\Grillmo\AppData\Local\Temp\ccX6Q3Iw.s 			page 11


 571              	.LVL43:
 572              		.cfi_endproc
 573              	.LFE268:
 574              		.size	usbPrepareQueuedTransmit, .-usbPrepareQueuedTransmit
 575              		.section	.text.usbStartReceiveI,"ax",%progbits
 576              		.align	1
 577              		.p2align 4,,15
 578              		.global	usbStartReceiveI
 579              		.syntax unified
 580              		.thumb
 581              		.thumb_func
 582              		.fpu fpv4-sp-d16
 583              		.type	usbStartReceiveI, %function
 584              	usbStartReceiveI:
 585              	.LFB269:
 586              		.loc 1 506 0
 587              		.cfi_startproc
 588              		@ args = 0, pretend = 0, frame = 0
 589              		@ frame_needed = 0, uses_anonymous_args = 0
 590              	.LVL44:
 591              		.loc 1 511 0
 592 0000 0122     		movs	r2, #1
 593              		.loc 1 506 0
 594 0002 70B5     		push	{r4, r5, r6, lr}
 595              		.cfi_def_cfa_offset 16
 596              		.cfi_offset 4, -16
 597              		.cfi_offset 5, -12
 598              		.cfi_offset 6, -8
 599              		.cfi_offset 14, -4
 600              		.loc 1 511 0
 601 0004 02FA01F3 		lsl	r3, r2, r1
 602 0008 4489     		ldrh	r4, [r0, #10]
 603 000a 9BB2     		uxth	r3, r3
 604 000c 14EA0306 		ands	r6, r4, r3
 605 0010 01D0     		beq	.L32
 606              		.loc 1 512 0
 607 0012 1046     		mov	r0, r2
 608              	.LVL45:
 609              		.loc 1 518 0
 610 0014 70BD     		pop	{r4, r5, r6, pc}
 611              	.LVL46:
 612              	.L32:
 613              		.loc 1 515 0
 614 0016 2343     		orrs	r3, r3, r4
 615 0018 4381     		strh	r3, [r0, #10]	@ movhi
 616              		.loc 1 516 0
 617 001a FFF7FEFF 		bl	usb_lld_start_out
 618              	.LVL47:
 619              		.loc 1 517 0
 620 001e 3046     		mov	r0, r6
 621 0020 70BD     		pop	{r4, r5, r6, pc}
 622              		.cfi_endproc
 623              	.LFE269:
 624              		.size	usbStartReceiveI, .-usbStartReceiveI
 625 0022 00BF     		.section	.text.usbStartTransmitI,"ax",%progbits
 626              		.align	1
 627              		.p2align 4,,15
ARM GAS  C:\Users\Grillmo\AppData\Local\Temp\ccX6Q3Iw.s 			page 12


 628              		.global	usbStartTransmitI
 629              		.syntax unified
 630              		.thumb
 631              		.thumb_func
 632              		.fpu fpv4-sp-d16
 633              		.type	usbStartTransmitI, %function
 634              	usbStartTransmitI:
 635              	.LFB270:
 636              		.loc 1 534 0
 637              		.cfi_startproc
 638              		@ args = 0, pretend = 0, frame = 0
 639              		@ frame_needed = 0, uses_anonymous_args = 0
 640              	.LVL48:
 641              		.loc 1 539 0
 642 0000 0122     		movs	r2, #1
 643              		.loc 1 534 0
 644 0002 70B5     		push	{r4, r5, r6, lr}
 645              		.cfi_def_cfa_offset 16
 646              		.cfi_offset 4, -16
 647              		.cfi_offset 5, -12
 648              		.cfi_offset 6, -8
 649              		.cfi_offset 14, -4
 650              		.loc 1 539 0
 651 0004 02FA01F3 		lsl	r3, r2, r1
 652 0008 0489     		ldrh	r4, [r0, #8]
 653 000a 9BB2     		uxth	r3, r3
 654 000c 14EA0306 		ands	r6, r4, r3
 655 0010 01D0     		beq	.L37
 656              		.loc 1 540 0
 657 0012 1046     		mov	r0, r2
 658              	.LVL49:
 659              		.loc 1 546 0
 660 0014 70BD     		pop	{r4, r5, r6, pc}
 661              	.LVL50:
 662              	.L37:
 663              		.loc 1 543 0
 664 0016 2343     		orrs	r3, r3, r4
 665 0018 0381     		strh	r3, [r0, #8]	@ movhi
 666              		.loc 1 544 0
 667 001a FFF7FEFF 		bl	usb_lld_start_in
 668              	.LVL51:
 669              		.loc 1 545 0
 670 001e 3046     		mov	r0, r6
 671 0020 70BD     		pop	{r4, r5, r6, pc}
 672              		.cfi_endproc
 673              	.LFE270:
 674              		.size	usbStartTransmitI, .-usbStartTransmitI
 675 0022 00BF     		.section	.text.usbStallReceiveI,"ax",%progbits
 676              		.align	1
 677              		.p2align 4,,15
 678              		.global	usbStallReceiveI
 679              		.syntax unified
 680              		.thumb
 681              		.thumb_func
 682              		.fpu fpv4-sp-d16
 683              		.type	usbStallReceiveI, %function
 684              	usbStallReceiveI:
ARM GAS  C:\Users\Grillmo\AppData\Local\Temp\ccX6Q3Iw.s 			page 13


 685              	.LFB271:
 686              		.loc 1 560 0
 687              		.cfi_startproc
 688              		@ args = 0, pretend = 0, frame = 0
 689              		@ frame_needed = 0, uses_anonymous_args = 0
 690              	.LVL52:
 691 0000 10B5     		push	{r4, lr}
 692              		.cfi_def_cfa_offset 8
 693              		.cfi_offset 4, -8
 694              		.cfi_offset 14, -4
 695              		.loc 1 565 0
 696 0002 0123     		movs	r3, #1
 697 0004 4489     		ldrh	r4, [r0, #10]
 698 0006 03FA01F2 		lsl	r2, r3, r1
 699 000a 1440     		ands	r4, r2, r4
 700 000c 01D0     		beq	.L42
 701              		.loc 1 566 0
 702 000e 1846     		mov	r0, r3
 703              	.LVL53:
 704              		.loc 1 571 0
 705 0010 10BD     		pop	{r4, pc}
 706              	.LVL54:
 707              	.L42:
 708              		.loc 1 569 0
 709 0012 FFF7FEFF 		bl	usb_lld_stall_out
 710              	.LVL55:
 711              		.loc 1 570 0
 712 0016 2046     		mov	r0, r4
 713 0018 10BD     		pop	{r4, pc}
 714              		.cfi_endproc
 715              	.LFE271:
 716              		.size	usbStallReceiveI, .-usbStallReceiveI
 717 001a 00BF     		.section	.text.usbStallTransmitI,"ax",%progbits
 718              		.align	1
 719              		.p2align 4,,15
 720              		.global	usbStallTransmitI
 721              		.syntax unified
 722              		.thumb
 723              		.thumb_func
 724              		.fpu fpv4-sp-d16
 725              		.type	usbStallTransmitI, %function
 726              	usbStallTransmitI:
 727              	.LFB272:
 728              		.loc 1 585 0
 729              		.cfi_startproc
 730              		@ args = 0, pretend = 0, frame = 0
 731              		@ frame_needed = 0, uses_anonymous_args = 0
 732              	.LVL56:
 733 0000 10B5     		push	{r4, lr}
 734              		.cfi_def_cfa_offset 8
 735              		.cfi_offset 4, -8
 736              		.cfi_offset 14, -4
 737              		.loc 1 590 0
 738 0002 0123     		movs	r3, #1
 739 0004 0489     		ldrh	r4, [r0, #8]
 740 0006 03FA01F2 		lsl	r2, r3, r1
 741 000a 1440     		ands	r4, r2, r4
ARM GAS  C:\Users\Grillmo\AppData\Local\Temp\ccX6Q3Iw.s 			page 14


 742 000c 01D0     		beq	.L47
 743              		.loc 1 591 0
 744 000e 1846     		mov	r0, r3
 745              	.LVL57:
 746              		.loc 1 596 0
 747 0010 10BD     		pop	{r4, pc}
 748              	.LVL58:
 749              	.L47:
 750              		.loc 1 594 0
 751 0012 FFF7FEFF 		bl	usb_lld_stall_in
 752              	.LVL59:
 753              		.loc 1 595 0
 754 0016 2046     		mov	r0, r4
 755 0018 10BD     		pop	{r4, pc}
 756              		.cfi_endproc
 757              	.LFE272:
 758              		.size	usbStallTransmitI, .-usbStallTransmitI
 759 001a 00BF     		.section	.text._usb_reset,"ax",%progbits
 760              		.align	1
 761              		.p2align 4,,15
 762              		.global	_usb_reset
 763              		.syntax unified
 764              		.thumb
 765              		.thumb_func
 766              		.fpu fpv4-sp-d16
 767              		.type	_usb_reset, %function
 768              	_usb_reset:
 769              	.LFB273:
 770              		.loc 1 607 0
 771              		.cfi_startproc
 772              		@ args = 0, pretend = 0, frame = 0
 773              		@ frame_needed = 0, uses_anonymous_args = 0
 774              		@ link register save eliminated.
 775              	.LVL60:
 776              		.loc 1 611 0
 777 0000 0022     		movs	r2, #0
 778              		.loc 1 610 0
 779 0002 0221     		movs	r1, #2
 780 0004 0170     		strb	r1, [r0]
 781              		.loc 1 611 0
 782 0006 A0F84C20 		strh	r2, [r0, #76]	@ movhi
 783              		.loc 1 612 0
 784 000a 80F84E20 		strb	r2, [r0, #78]
 785              		.loc 1 613 0
 786 000e 80F84F20 		strb	r2, [r0, #79]
 787              		.loc 1 614 0
 788 0012 0281     		strh	r2, [r0, #8]	@ movhi
 789              		.loc 1 615 0
 790 0014 4281     		strh	r2, [r0, #10]	@ movhi
 791              	.LVL61:
 792              		.loc 1 619 0
 793 0016 C260     		str	r2, [r0, #12]
 794              	.LVL62:
 795 0018 0261     		str	r2, [r0, #16]
 796              	.LVL63:
 797 001a 4261     		str	r2, [r0, #20]
 798              	.LVL64:
ARM GAS  C:\Users\Grillmo\AppData\Local\Temp\ccX6Q3Iw.s 			page 15


 799 001c 8261     		str	r2, [r0, #24]
 800              	.LVL65:
 801              		.loc 1 623 0
 802 001e 80F83420 		strb	r2, [r0, #52]
 803              		.loc 1 626 0
 804 0022 FFF7FEBF 		b	usb_lld_reset
 805              	.LVL66:
 806              		.cfi_endproc
 807              	.LFE273:
 808              		.size	_usb_reset, .-_usb_reset
 809 0026 00BF     		.section	.text._usb_ep0setup,"ax",%progbits
 810              		.align	1
 811              		.p2align 4,,15
 812              		.global	_usb_ep0setup
 813              		.syntax unified
 814              		.thumb
 815              		.thumb_func
 816              		.fpu fpv4-sp-d16
 817              		.type	_usb_ep0setup, %function
 818              	_usb_ep0setup:
 819              	.LFB274:
 820              		.loc 1 639 0
 821              		.cfi_startproc
 822              		@ args = 0, pretend = 0, frame = 0
 823              		@ frame_needed = 0, uses_anonymous_args = 0
 824              	.LVL67:
 825 0000 70B5     		push	{r4, r5, r6, lr}
 826              		.cfi_def_cfa_offset 16
 827              		.cfi_offset 4, -16
 828              		.cfi_offset 5, -12
 829              		.cfi_offset 6, -8
 830              		.cfi_offset 14, -4
 831              		.loc 1 642 0
 832 0002 0023     		movs	r3, #0
 833              		.loc 1 639 0
 834 0004 0446     		mov	r4, r0
 835              		.loc 1 642 0
 836 0006 80F83430 		strb	r3, [r0, #52]
 837              		.loc 1 643 0
 838 000a 00F14402 		add	r2, r0, #68
 839 000e FFF7FEFF 		bl	usb_lld_read_setup
 840              	.LVL68:
 841              		.loc 1 648 0
 842 0012 6368     		ldr	r3, [r4, #4]
 843 0014 9B68     		ldr	r3, [r3, #8]
 844 0016 002B     		cmp	r3, #0
 845 0018 36D0     		beq	.L54
 846              		.loc 1 649 0 discriminator 1
 847 001a 2046     		mov	r0, r4
 848 001c 9847     		blx	r3
 849              	.LVL69:
 850              		.loc 1 648 0 discriminator 1
 851 001e 0028     		cmp	r0, #0
 852 0020 32D0     		beq	.L54
 853 0022 E56B     		ldr	r5, [r4, #60]
 854 0024 94F84430 		ldrb	r3, [r4, #68]	@ zero_extendqisi2
 855              	.L70:
ARM GAS  C:\Users\Grillmo\AppData\Local\Temp\ccX6Q3Iw.s 			page 16


 856              	.LBB311:
 857              	.LBB312:
 858              		.loc 1 55 0
 859 0028 94F84B10 		ldrb	r1, [r4, #75]	@ zero_extendqisi2
 860 002c 94F84A20 		ldrb	r2, [r4, #74]	@ zero_extendqisi2
 861              	.LBE312:
 862              	.LBE311:
 863              		.loc 1 676 0
 864 0030 42EA0122 		orr	r2, r2, r1, lsl #8
 865              	.LVL70:
 866              		.loc 1 678 0
 867 0034 AA42     		cmp	r2, r5
 868 0036 2CBF     		ite	cs
 869 0038 2A46     		movcs	r2, r5
 870              	.LVL71:
 871              		.loc 1 679 0
 872 003a E263     		strcc	r2, [r4, #60]
 873              		.loc 1 681 0
 874 003c 1906     		lsls	r1, r3, #24
 875              	.LVL72:
 876 003e 00F1AB80 		bmi	.L132
 877              		.loc 1 707 0
 878 0042 002A     		cmp	r2, #0
 879 0044 00F08B80 		beq	.L94
 880              	.LBB313:
 881              	.LBB314:
 882              		.loc 1 401 0
 883 0048 E368     		ldr	r3, [r4, #12]
 884              	.LBE314:
 885              	.LBE313:
 886              		.loc 1 710 0
 887 004a A56B     		ldr	r5, [r4, #56]
 888              	.LVL73:
 889              	.LBB317:
 890              	.LBB315:
 891              		.loc 1 401 0
 892 004c 9B69     		ldr	r3, [r3, #24]
 893              	.LVL74:
 894              		.loc 1 403 0
 895 004e 0020     		movs	r0, #0
 896              	.LBE315:
 897              	.LBE317:
 898              		.loc 1 709 0
 899 0050 0421     		movs	r1, #4
 900 0052 84F83410 		strb	r1, [r4, #52]
 901              	.LBB318:
 902              	.LBB316:
 903              		.loc 1 408 0
 904 0056 0146     		mov	r1, r0
 905              		.loc 1 404 0
 906 0058 DD60     		str	r5, [r3, #12]
 907              	.LVL75:
 908              		.loc 1 405 0
 909 005a 5A60     		str	r2, [r3, #4]
 910              		.loc 1 403 0
 911 005c 1870     		strb	r0, [r3]
 912              		.loc 1 406 0
ARM GAS  C:\Users\Grillmo\AppData\Local\Temp\ccX6Q3Iw.s 			page 17


 913 005e 9860     		str	r0, [r3, #8]
 914              	.LVL76:
 915              	.L129:
 916              		.loc 1 408 0
 917 0060 2046     		mov	r0, r4
 918 0062 FFF7FEFF 		bl	usb_lld_prepare_receive
 919              	.LVL77:
 920              	.LBE316:
 921              	.LBE318:
 922              	.LBB319:
 923              	.LBB320:
 924              	.LBB321:
 925              	.LBB322:
 926              	.LBB323:
 927              	.LBB324:
 928              		.loc 2 546 0
 929 0066 2023     		movs	r3, #32
 930              		.syntax unified
 931              	@ 546 "ChibiOS_3.0.2/os/ext/CMSIS/include/core_cmFunc.h" 1
 932 0068 83F31188 		MSR basepri, r3
 933              	@ 0 "" 2
 934              	.LVL78:
 935              		.thumb
 936              		.syntax unified
 937              	.LBE324:
 938              	.LBE323:
 939              	.LBE322:
 940              	.LBE321:
 941              	.LBE320:
 942              	.LBE319:
 943              	.LBB325:
 944              	.LBB326:
 945              		.loc 1 511 0
 946 006c 6389     		ldrh	r3, [r4, #10]
 947 006e 13F00101 		ands	r1, r3, #1
 948 0072 05D1     		bne	.L96
 949              		.loc 1 515 0
 950 0074 43F00103 		orr	r3, r3, #1
 951 0078 6381     		strh	r3, [r4, #10]	@ movhi
 952              		.loc 1 516 0
 953 007a 2046     		mov	r0, r4
 954 007c FFF7FEFF 		bl	usb_lld_start_out
 955              	.LVL79:
 956              	.L96:
 957              	.LBE326:
 958              	.LBE325:
 959              	.LBB327:
 960              	.LBB328:
 961              	.LBB329:
 962              	.LBB330:
 963              	.LBB331:
 964              	.LBB332:
 965              		.loc 2 546 0
 966 0080 0023     		movs	r3, #0
 967              		.syntax unified
 968              	@ 546 "ChibiOS_3.0.2/os/ext/CMSIS/include/core_cmFunc.h" 1
 969 0082 83F31188 		MSR basepri, r3
ARM GAS  C:\Users\Grillmo\AppData\Local\Temp\ccX6Q3Iw.s 			page 18


 970              	@ 0 "" 2
 971              	.LVL80:
 972              		.thumb
 973              		.syntax unified
 974 0086 70BD     		pop	{r4, r5, r6, pc}
 975              	.LVL81:
 976              	.L54:
 977              	.LBE332:
 978              	.LBE331:
 979              	.LBE330:
 980              	.LBE329:
 981              	.LBE328:
 982              	.LBE327:
 983              		.loc 1 654 0
 984 0088 94F84430 		ldrb	r3, [r4, #68]	@ zero_extendqisi2
 985 008c 13F06006 		ands	r6, r3, #96
 986 0090 1A46     		mov	r2, r3
 987 0092 11D0     		beq	.L133
 988              	.L55:
 989              		.loc 1 660 0
 990 0094 0021     		movs	r1, #0
 991 0096 2046     		mov	r0, r4
 992 0098 FFF7FEFF 		bl	usb_lld_stall_in
 993              	.LVL82:
 994              		.loc 1 661 0
 995 009c 0021     		movs	r1, #0
 996 009e 2046     		mov	r0, r4
 997 00a0 FFF7FEFF 		bl	usb_lld_stall_out
 998              	.LVL83:
 999              		.loc 1 662 0
 1000 00a4 6368     		ldr	r3, [r4, #4]
 1001 00a6 1B68     		ldr	r3, [r3]
 1002 00a8 13B1     		cbz	r3, .L86
 1003              		.loc 1 662 0 is_stmt 0 discriminator 1
 1004 00aa 0521     		movs	r1, #5
 1005 00ac 2046     		mov	r0, r4
 1006 00ae 9847     		blx	r3
 1007              	.LVL84:
 1008              	.L86:
 1009              		.loc 1 663 0 is_stmt 1
 1010 00b0 0623     		movs	r3, #6
 1011 00b2 84F83430 		strb	r3, [r4, #52]
 1012              		.loc 1 664 0
 1013 00b6 70BD     		pop	{r4, r5, r6, pc}
 1014              	.LVL85:
 1015              	.L133:
 1016              	.LBB333:
 1017              	.LBB334:
 1018              		.loc 1 90 0
 1019 00b8 94F84510 		ldrb	r1, [r4, #69]	@ zero_extendqisi2
 1020              		.loc 1 88 0
 1021 00bc 03F07F05 		and	r5, r3, #127
 1022              		.loc 1 89 0
 1023 00c0 45EA0125 		orr	r5, r5, r1, lsl #8
 1024              		.loc 1 88 0
 1025 00c4 B5F5407F 		cmp	r5, #768
 1026 00c8 00F0EF80 		beq	.L56
ARM GAS  C:\Users\Grillmo\AppData\Local\Temp\ccX6Q3Iw.s 			page 19


 1027 00cc 16D9     		bls	.L134
 1028 00ce B5F5C06F 		cmp	r5, #1536
 1029 00d2 00F0D180 		beq	.L64
 1030 00d6 2FD9     		bls	.L135
 1031 00d8 B5F5106F 		cmp	r5, #2304
 1032 00dc 76D0     		beq	.L68
 1033 00de 40F60242 		movw	r2, #3074
 1034 00e2 9542     		cmp	r5, r2
 1035 00e4 00F0F380 		beq	.L61
 1036 00e8 B5F5006F 		cmp	r5, #2048
 1037 00ec D2D1     		bne	.L55
 1038              		.loc 1 141 0
 1039 00ee 04F14F02 		add	r2, r4, #79
 1040 00f2 0125     		movs	r5, #1
 1041 00f4 2664     		str	r6, [r4, #64]
 1042 00f6 A263     		str	r2, [r4, #56]
 1043 00f8 E563     		str	r5, [r4, #60]
 1044 00fa 95E7     		b	.L70
 1045              	.L134:
 1046              		.loc 1 88 0
 1047 00fc 022D     		cmp	r5, #2
 1048 00fe 00F0A480 		beq	.L58
 1049 0102 40F29880 		bls	.L136
 1050 0106 B5F5807F 		cmp	r5, #256
 1051 010a 00F08580 		beq	.L62
 1052 010e B5F5817F 		cmp	r5, #258
 1053 0112 BFD1     		bne	.L55
 1054              		.loc 1 201 0
 1055 0114 94F84630 		ldrb	r3, [r4, #70]	@ zero_extendqisi2
 1056 0118 002B     		cmp	r3, #0
 1057 011a BBD1     		bne	.L55
 1058              		.loc 1 205 0
 1059 011c 94F84830 		ldrb	r3, [r4, #72]	@ zero_extendqisi2
 1060 0120 13F00F01 		ands	r1, r3, #15
 1061 0124 15D0     		beq	.L84
 1062              		.loc 1 206 0
 1063 0126 1E06     		lsls	r6, r3, #24
 1064              		.loc 1 207 0
 1065 0128 2046     		mov	r0, r4
 1066              		.loc 1 206 0
 1067 012a 00F1F780 		bmi	.L137
 1068              	.LVL86:
 1069              		.loc 1 210 0
 1070 012e FFF7FEFF 		bl	usb_lld_clear_out
 1071              	.LVL87:
 1072 0132 94F84420 		ldrb	r2, [r4, #68]	@ zero_extendqisi2
 1073 0136 0CE0     		b	.L84
 1074              	.L135:
 1075              		.loc 1 88 0
 1076 0138 40F20233 		movw	r3, #770
 1077 013c 9D42     		cmp	r5, r3
 1078 013e 58D0     		beq	.L66
 1079 0140 B5F5A06F 		cmp	r5, #1280
 1080 0144 A6D1     		bne	.L55
 1081              		.loc 1 118 0
 1082 0146 B4F84430 		ldrh	r3, [r4, #68]
 1083 014a B3F5A06F 		cmp	r3, #1280
ARM GAS  C:\Users\Grillmo\AppData\Local\Temp\ccX6Q3Iw.s 			page 20


 1084 014e 00F0D380 		beq	.L138
 1085              	.L84:
 1086              		.loc 1 229 0
 1087 0152 0023     		movs	r3, #0
 1088 0154 A363     		str	r3, [r4, #56]
 1089 0156 E363     		str	r3, [r4, #60]
 1090 0158 2364     		str	r3, [r4, #64]
 1091              	.L71:
 1092              	.LVL88:
 1093              	.LBE334:
 1094              	.LBE333:
 1095              		.loc 1 681 0
 1096 015a 1306     		lsls	r3, r2, #24
 1097 015c 2AD4     		bmi	.L91
 1098              	.LVL89:
 1099              	.L94:
 1100              	.LBB342:
 1101              	.LBB343:
 1102              		.loc 1 427 0
 1103 015e E368     		ldr	r3, [r4, #12]
 1104 0160 5A69     		ldr	r2, [r3, #20]
 1105              	.LBE343:
 1106              	.LBE342:
 1107              		.loc 1 718 0
 1108 0162 0521     		movs	r1, #5
 1109              	.LBB346:
 1110              	.LBB344:
 1111              		.loc 1 429 0
 1112 0164 0023     		movs	r3, #0
 1113              	.LBE344:
 1114              	.LBE346:
 1115              		.loc 1 718 0
 1116 0166 84F83410 		strb	r1, [r4, #52]
 1117              	.LVL90:
 1118              	.LBB347:
 1119              	.LBB345:
 1120              		.loc 1 434 0
 1121 016a 1946     		mov	r1, r3
 1122              		.loc 1 429 0
 1123 016c 1370     		strb	r3, [r2]
 1124              		.loc 1 430 0
 1125 016e D360     		str	r3, [r2, #12]
 1126              		.loc 1 431 0
 1127 0170 5360     		str	r3, [r2, #4]
 1128              		.loc 1 432 0
 1129 0172 9360     		str	r3, [r2, #8]
 1130              	.LVL91:
 1131              	.L130:
 1132              		.loc 1 434 0
 1133 0174 2046     		mov	r0, r4
 1134 0176 FFF7FEFF 		bl	usb_lld_prepare_transmit
 1135              	.LVL92:
 1136              	.LBE345:
 1137              	.LBE347:
 1138              	.LBB348:
 1139              	.LBB349:
 1140              	.LBB350:
ARM GAS  C:\Users\Grillmo\AppData\Local\Temp\ccX6Q3Iw.s 			page 21


 1141              	.LBB351:
 1142              	.LBB352:
 1143              	.LBB353:
 1144              		.loc 2 546 0
 1145 017a 2023     		movs	r3, #32
 1146              		.syntax unified
 1147              	@ 546 "ChibiOS_3.0.2/os/ext/CMSIS/include/core_cmFunc.h" 1
 1148 017c 83F31188 		MSR basepri, r3
 1149              	@ 0 "" 2
 1150              	.LVL93:
 1151              		.thumb
 1152              		.syntax unified
 1153              	.LBE353:
 1154              	.LBE352:
 1155              	.LBE351:
 1156              	.LBE350:
 1157              	.LBE349:
 1158              	.LBE348:
 1159              	.LBB354:
 1160              	.LBB355:
 1161              		.loc 1 539 0
 1162 0180 2389     		ldrh	r3, [r4, #8]
 1163 0182 13F00101 		ands	r1, r3, #1
 1164 0186 7FF47BAF 		bne	.L96
 1165              		.loc 1 543 0
 1166 018a 43F00103 		orr	r3, r3, #1
 1167 018e 2381     		strh	r3, [r4, #8]	@ movhi
 1168              		.loc 1 544 0
 1169 0190 2046     		mov	r0, r4
 1170 0192 FFF7FEFF 		bl	usb_lld_start_in
 1171              	.LVL94:
 1172 0196 73E7     		b	.L96
 1173              	.LVL95:
 1174              	.L132:
 1175              	.LBE355:
 1176              	.LBE354:
 1177              		.loc 1 683 0
 1178 0198 62B1     		cbz	r2, .L91
 1179              	.LBB356:
 1180              	.LBB357:
 1181              		.loc 1 427 0
 1182 019a E368     		ldr	r3, [r4, #12]
 1183              	.LBE357:
 1184              	.LBE356:
 1185              		.loc 1 686 0
 1186 019c A56B     		ldr	r5, [r4, #56]
 1187              	.LVL96:
 1188              	.LBB360:
 1189              	.LBB358:
 1190              		.loc 1 427 0
 1191 019e 5B69     		ldr	r3, [r3, #20]
 1192              	.LVL97:
 1193              		.loc 1 429 0
 1194 01a0 0020     		movs	r0, #0
 1195              	.LBE358:
 1196              	.LBE360:
 1197              		.loc 1 685 0
ARM GAS  C:\Users\Grillmo\AppData\Local\Temp\ccX6Q3Iw.s 			page 22


 1198 01a2 0121     		movs	r1, #1
 1199 01a4 84F83410 		strb	r1, [r4, #52]
 1200              	.LBB361:
 1201              	.LBB359:
 1202              		.loc 1 434 0
 1203 01a8 0146     		mov	r1, r0
 1204              		.loc 1 430 0
 1205 01aa DD60     		str	r5, [r3, #12]
 1206              	.LVL98:
 1207              		.loc 1 431 0
 1208 01ac 5A60     		str	r2, [r3, #4]
 1209              		.loc 1 429 0
 1210 01ae 1870     		strb	r0, [r3]
 1211              		.loc 1 432 0
 1212 01b0 9860     		str	r0, [r3, #8]
 1213 01b2 DFE7     		b	.L130
 1214              	.LVL99:
 1215              	.L91:
 1216              	.LBE359:
 1217              	.LBE361:
 1218              	.LBB362:
 1219              	.LBB363:
 1220              		.loc 1 401 0
 1221 01b4 E368     		ldr	r3, [r4, #12]
 1222 01b6 9A69     		ldr	r2, [r3, #24]
 1223              	.LBE363:
 1224              	.LBE362:
 1225              		.loc 1 694 0
 1226 01b8 0321     		movs	r1, #3
 1227              	.LBB366:
 1228              	.LBB364:
 1229              		.loc 1 403 0
 1230 01ba 0023     		movs	r3, #0
 1231              	.LBE364:
 1232              	.LBE366:
 1233              		.loc 1 694 0
 1234 01bc 84F83410 		strb	r1, [r4, #52]
 1235              	.LVL100:
 1236              	.LBB367:
 1237              	.LBB365:
 1238              		.loc 1 408 0
 1239 01c0 1946     		mov	r1, r3
 1240              		.loc 1 403 0
 1241 01c2 1370     		strb	r3, [r2]
 1242              		.loc 1 404 0
 1243 01c4 D360     		str	r3, [r2, #12]
 1244              		.loc 1 405 0
 1245 01c6 5360     		str	r3, [r2, #4]
 1246              		.loc 1 406 0
 1247 01c8 9360     		str	r3, [r2, #8]
 1248 01ca 49E7     		b	.L129
 1249              	.LVL101:
 1250              	.L68:
 1251              	.LBE365:
 1252              	.LBE367:
 1253              	.LBB368:
 1254              	.LBB341:
ARM GAS  C:\Users\Grillmo\AppData\Local\Temp\ccX6Q3Iw.s 			page 23


 1255              		.loc 1 145 0
 1256 01cc 94F84630 		ldrb	r3, [r4, #70]	@ zero_extendqisi2
 1257 01d0 84F84F30 		strb	r3, [r4, #79]
 1258              		.loc 1 146 0
 1259 01d4 002B     		cmp	r3, #0
 1260 01d6 40F08180 		bne	.L74
 1261              		.loc 1 147 0
 1262 01da 0323     		movs	r3, #3
 1263 01dc 2370     		strb	r3, [r4]
 1264              	.L75:
 1265              		.loc 1 152 0
 1266 01de 6368     		ldr	r3, [r4, #4]
 1267 01e0 1B68     		ldr	r3, [r3]
 1268 01e2 002B     		cmp	r3, #0
 1269 01e4 B5D0     		beq	.L84
 1270 01e6 0221     		movs	r1, #2
 1271 01e8 2046     		mov	r0, r4
 1272 01ea 9847     		blx	r3
 1273              	.LVL102:
 1274 01ec 94F84420 		ldrb	r2, [r4, #68]	@ zero_extendqisi2
 1275 01f0 AFE7     		b	.L84
 1276              	.L66:
 1277              		.loc 1 217 0
 1278 01f2 94F84630 		ldrb	r3, [r4, #70]	@ zero_extendqisi2
 1279 01f6 002B     		cmp	r3, #0
 1280 01f8 7FF44CAF 		bne	.L55
 1281              		.loc 1 221 0
 1282 01fc 94F84830 		ldrb	r3, [r4, #72]	@ zero_extendqisi2
 1283 0200 13F00F01 		ands	r1, r3, #15
 1284 0204 A5D0     		beq	.L84
 1285              		.loc 1 222 0
 1286 0206 1D06     		lsls	r5, r3, #24
 1287              		.loc 1 223 0
 1288 0208 2046     		mov	r0, r4
 1289              		.loc 1 222 0
 1290 020a 00F18C80 		bmi	.L139
 1291              	.LVL103:
 1292              		.loc 1 226 0
 1293 020e FFF7FEFF 		bl	usb_lld_stall_out
 1294              	.LVL104:
 1295 0212 94F84420 		ldrb	r2, [r4, #68]	@ zero_extendqisi2
 1296 0216 9CE7     		b	.L84
 1297              	.L62:
 1298              		.loc 1 98 0
 1299 0218 94F84630 		ldrb	r3, [r4, #70]	@ zero_extendqisi2
 1300 021c 012B     		cmp	r3, #1
 1301 021e 7FF439AF 		bne	.L55
 1302              		.loc 1 99 0
 1303 0222 B4F84C30 		ldrh	r3, [r4, #76]
 1304              		.loc 1 100 0
 1305 0226 A663     		str	r6, [r4, #56]
 1306              		.loc 1 99 0
 1307 0228 23F00203 		bic	r3, r3, #2
 1308              		.loc 1 100 0
 1309 022c E663     		str	r6, [r4, #60]
 1310 022e 2664     		str	r6, [r4, #64]
 1311              		.loc 1 99 0
ARM GAS  C:\Users\Grillmo\AppData\Local\Temp\ccX6Q3Iw.s 			page 24


 1312 0230 A4F84C30 		strh	r3, [r4, #76]	@ movhi
 1313 0234 91E7     		b	.L71
 1314              	.L136:
 1315              		.loc 1 88 0
 1316 0236 002D     		cmp	r5, #0
 1317 0238 46D1     		bne	.L140
 1318              		.loc 1 93 0
 1319 023a 0220     		movs	r0, #2
 1320 023c 04F14C02 		add	r2, r4, #76
 1321 0240 2564     		str	r5, [r4, #64]
 1322 0242 A263     		str	r2, [r4, #56]
 1323 0244 E063     		str	r0, [r4, #60]
 1324 0246 0546     		mov	r5, r0
 1325 0248 EEE6     		b	.L70
 1326              	.L58:
 1327              		.loc 1 165 0
 1328 024a 94F84810 		ldrb	r1, [r4, #72]	@ zero_extendqisi2
 1329 024e 11F0800F 		tst	r1, #128
 1330              		.loc 1 166 0
 1331 0252 2046     		mov	r0, r4
 1332 0254 01F00F01 		and	r1, r1, #15
 1333              		.loc 1 165 0
 1334 0258 43D1     		bne	.L141
 1335              	.LVL105:
 1336              		.loc 1 183 0
 1337 025a FFF7FEFF 		bl	usb_lld_get_status_out
 1338              	.LVL106:
 1339 025e 0128     		cmp	r0, #1
 1340 0260 43D0     		beq	.L80
 1341              	.L126:
 1342 0262 0228     		cmp	r0, #2
 1343 0264 7FF416AF 		bne	.L55
 1344              		.loc 1 191 0
 1345 0268 314B     		ldr	r3, .L142
 1346 026a A363     		str	r3, [r4, #56]
 1347 026c E063     		str	r0, [r4, #60]
 1348 026e 2664     		str	r6, [r4, #64]
 1349 0270 0546     		mov	r5, r0
 1350 0272 94F84430 		ldrb	r3, [r4, #68]	@ zero_extendqisi2
 1351 0276 D7E6     		b	.L70
 1352              	.L64:
 1353              	.LBB335:
 1354              	.LBB336:
 1355              		.loc 1 55 0
 1356 0278 94F84900 		ldrb	r0, [r4, #73]	@ zero_extendqisi2
 1357              	.LBE336:
 1358              	.LBE335:
 1359              		.loc 1 129 0
 1360 027c 6168     		ldr	r1, [r4, #4]
 1361              	.LBB338:
 1362              	.LBB337:
 1363              		.loc 1 55 0
 1364 027e 94F84830 		ldrb	r3, [r4, #72]	@ zero_extendqisi2
 1365              	.LBE337:
 1366              	.LBE338:
 1367              		.loc 1 129 0
 1368 0282 4D68     		ldr	r5, [r1, #4]
ARM GAS  C:\Users\Grillmo\AppData\Local\Temp\ccX6Q3Iw.s 			page 25


 1369 0284 94F84620 		ldrb	r2, [r4, #70]	@ zero_extendqisi2
 1370 0288 94F84710 		ldrb	r1, [r4, #71]	@ zero_extendqisi2
 1371 028c 43EA0023 		orr	r3, r3, r0, lsl #8
 1372 0290 2046     		mov	r0, r4
 1373 0292 A847     		blx	r5
 1374              	.LVL107:
 1375              		.loc 1 132 0
 1376 0294 0028     		cmp	r0, #0
 1377 0296 3FF4FDAE 		beq	.L55
 1378              		.loc 1 136 0
 1379 029a 4368     		ldr	r3, [r0, #4]
 1380 029c 0568     		ldr	r5, [r0]
 1381 029e E563     		str	r5, [r4, #60]
 1382 02a0 A363     		str	r3, [r4, #56]
 1383 02a2 2664     		str	r6, [r4, #64]
 1384 02a4 94F84430 		ldrb	r3, [r4, #68]	@ zero_extendqisi2
 1385 02a8 BEE6     		b	.L70
 1386              	.LVL108:
 1387              	.L56:
 1388              		.loc 1 107 0
 1389 02aa 94F84630 		ldrb	r3, [r4, #70]	@ zero_extendqisi2
 1390 02ae 012B     		cmp	r3, #1
 1391 02b0 7FF4F0AE 		bne	.L55
 1392              		.loc 1 108 0
 1393 02b4 B4F84C30 		ldrh	r3, [r4, #76]
 1394              		.loc 1 109 0
 1395 02b8 A663     		str	r6, [r4, #56]
 1396              		.loc 1 108 0
 1397 02ba 43F00203 		orr	r3, r3, #2
 1398              		.loc 1 109 0
 1399 02be E663     		str	r6, [r4, #60]
 1400 02c0 2664     		str	r6, [r4, #64]
 1401              		.loc 1 108 0
 1402 02c2 A4F84C30 		strh	r3, [r4, #76]	@ movhi
 1403 02c6 48E7     		b	.L71
 1404              	.L140:
 1405              		.loc 1 88 0
 1406 02c8 012D     		cmp	r5, #1
 1407 02ca 7FF4E3AE 		bne	.L55
 1408              	.L61:
 1409              		.loc 1 160 0
 1410 02ce 194A     		ldr	r2, .L142+4
 1411 02d0 A263     		str	r2, [r4, #56]
 1412 02d2 0225     		movs	r5, #2
 1413 02d4 0022     		movs	r2, #0
 1414 02d6 E563     		str	r5, [r4, #60]
 1415 02d8 2264     		str	r2, [r4, #64]
 1416 02da A5E6     		b	.L70
 1417              	.L74:
 1418              		.loc 1 150 0
 1419 02dc 0423     		movs	r3, #4
 1420 02de 2370     		strb	r3, [r4]
 1421 02e0 7DE7     		b	.L75
 1422              	.LVL109:
 1423              	.L141:
 1424              		.loc 1 166 0
 1425 02e2 FFF7FEFF 		bl	usb_lld_get_status_in
ARM GAS  C:\Users\Grillmo\AppData\Local\Temp\ccX6Q3Iw.s 			page 26


 1426              	.LVL110:
 1427 02e6 0128     		cmp	r0, #1
 1428 02e8 BBD1     		bne	.L126
 1429              	.L80:
 1430              		.loc 1 186 0
 1431 02ea 134B     		ldr	r3, .L142+8
 1432 02ec A363     		str	r3, [r4, #56]
 1433 02ee E563     		str	r5, [r4, #60]
 1434 02f0 2664     		str	r6, [r4, #64]
 1435 02f2 94F84430 		ldrb	r3, [r4, #68]	@ zero_extendqisi2
 1436 02f6 97E6     		b	.L70
 1437              	.L138:
 1438              	.LVL111:
 1439              	.LBB339:
 1440              	.LBB340:
 1441              		.loc 1 66 0
 1442 02f8 94F84630 		ldrb	r3, [r4, #70]	@ zero_extendqisi2
 1443 02fc 84F84E30 		strb	r3, [r4, #78]
 1444              		.loc 1 67 0
 1445 0300 2046     		mov	r0, r4
 1446 0302 FFF7FEFF 		bl	usb_lld_set_address
 1447              	.LVL112:
 1448              		.loc 1 68 0
 1449 0306 6368     		ldr	r3, [r4, #4]
 1450 0308 1B68     		ldr	r3, [r3]
 1451 030a 13B1     		cbz	r3, .L73
 1452 030c 0121     		movs	r1, #1
 1453 030e 2046     		mov	r0, r4
 1454 0310 9847     		blx	r3
 1455              	.LVL113:
 1456              	.L73:
 1457              		.loc 1 69 0
 1458 0312 0323     		movs	r3, #3
 1459 0314 94F84420 		ldrb	r2, [r4, #68]	@ zero_extendqisi2
 1460 0318 2370     		strb	r3, [r4]
 1461 031a 1AE7     		b	.L84
 1462              	.LVL114:
 1463              	.L137:
 1464              	.LBE340:
 1465              	.LBE339:
 1466              		.loc 1 207 0
 1467 031c FFF7FEFF 		bl	usb_lld_clear_in
 1468              	.LVL115:
 1469 0320 94F84420 		ldrb	r2, [r4, #68]	@ zero_extendqisi2
 1470 0324 15E7     		b	.L84
 1471              	.LVL116:
 1472              	.L139:
 1473              		.loc 1 223 0
 1474 0326 FFF7FEFF 		bl	usb_lld_stall_in
 1475              	.LVL117:
 1476 032a 94F84420 		ldrb	r2, [r4, #68]	@ zero_extendqisi2
 1477 032e 10E7     		b	.L84
 1478              	.L143:
 1479              		.align	2
 1480              	.L142:
 1481 0330 00000000 		.word	.LANCHOR2
 1482 0334 00000000 		.word	.LANCHOR0
ARM GAS  C:\Users\Grillmo\AppData\Local\Temp\ccX6Q3Iw.s 			page 27


 1483 0338 00000000 		.word	.LANCHOR1
 1484              	.LBE341:
 1485              	.LBE368:
 1486              		.cfi_endproc
 1487              	.LFE274:
 1488              		.size	_usb_ep0setup, .-_usb_ep0setup
 1489              		.section	.text._usb_ep0in,"ax",%progbits
 1490              		.align	1
 1491              		.p2align 4,,15
 1492              		.global	_usb_ep0in
 1493              		.syntax unified
 1494              		.thumb
 1495              		.thumb_func
 1496              		.fpu fpv4-sp-d16
 1497              		.type	_usb_ep0in, %function
 1498              	_usb_ep0in:
 1499              	.LFB275:
 1500              		.loc 1 741 0
 1501              		.cfi_startproc
 1502              		@ args = 0, pretend = 0, frame = 0
 1503              		@ frame_needed = 0, uses_anonymous_args = 0
 1504              	.LVL118:
 1505              		.loc 1 745 0
 1506 0000 90F83430 		ldrb	r3, [r0, #52]	@ zero_extendqisi2
 1507              		.loc 1 741 0
 1508 0004 10B5     		push	{r4, lr}
 1509              		.cfi_def_cfa_offset 8
 1510              		.cfi_offset 4, -8
 1511              		.cfi_offset 14, -4
 1512              		.loc 1 741 0
 1513 0006 0446     		mov	r4, r0
 1514              		.loc 1 745 0
 1515 0008 062B     		cmp	r3, #6
 1516 000a 15D8     		bhi	.L144
 1517 000c DFE803F0 		tbb	[pc, r3]
 1518              	.L147:
 1519 0010 04       		.byte	(.L146-.L147)/2
 1520 0011 3B       		.byte	(.L148-.L147)/2
 1521 0012 1C       		.byte	(.L149-.L147)/2
 1522 0013 04       		.byte	(.L146-.L147)/2
 1523 0014 04       		.byte	(.L146-.L147)/2
 1524 0015 15       		.byte	(.L150-.L147)/2
 1525 0016 04       		.byte	(.L146-.L147)/2
 1526 0017 00       		.p2align 1
 1527              	.L146:
 1528              		.loc 1 790 0
 1529 0018 0021     		movs	r1, #0
 1530              	.LVL119:
 1531 001a FFF7FEFF 		bl	usb_lld_stall_in
 1532              	.LVL120:
 1533              		.loc 1 791 0
 1534 001e 0021     		movs	r1, #0
 1535 0020 2046     		mov	r0, r4
 1536 0022 FFF7FEFF 		bl	usb_lld_stall_out
 1537              	.LVL121:
 1538              		.loc 1 792 0
 1539 0026 6368     		ldr	r3, [r4, #4]
ARM GAS  C:\Users\Grillmo\AppData\Local\Temp\ccX6Q3Iw.s 			page 28


 1540 0028 1B68     		ldr	r3, [r3]
 1541 002a 13B1     		cbz	r3, .L156
 1542              		.loc 1 792 0 is_stmt 0 discriminator 1
 1543 002c 0521     		movs	r1, #5
 1544 002e 2046     		mov	r0, r4
 1545 0030 9847     		blx	r3
 1546              	.LVL122:
 1547              	.L156:
 1548              		.loc 1 793 0 is_stmt 1
 1549 0032 0623     		movs	r3, #6
 1550 0034 84F83430 		strb	r3, [r4, #52]
 1551              	.L144:
 1552 0038 10BD     		pop	{r4, pc}
 1553              	.LVL123:
 1554              	.L150:
 1555              		.loc 1 775 0
 1556 003a 036C     		ldr	r3, [r0, #64]
 1557 003c 03B1     		cbz	r3, .L155
 1558              		.loc 1 776 0
 1559 003e 9847     		blx	r3
 1560              	.LVL124:
 1561              	.L155:
 1562              		.loc 1 778 0
 1563 0040 0023     		movs	r3, #0
 1564 0042 84F83430 		strb	r3, [r4, #52]
 1565              		.loc 1 779 0
 1566 0046 10BD     		pop	{r4, pc}
 1567              	.LVL125:
 1568              	.L149:
 1569 0048 C368     		ldr	r3, [r0, #12]
 1570              	.LVL126:
 1571              	.L152:
 1572              	.LBB369:
 1573              	.LBB370:
 1574              		.loc 1 401 0
 1575 004a 9A69     		ldr	r2, [r3, #24]
 1576              	.LBE370:
 1577              	.LBE369:
 1578              		.loc 1 763 0
 1579 004c 0321     		movs	r1, #3
 1580              	.LBB373:
 1581              	.LBB371:
 1582              		.loc 1 403 0
 1583 004e 0023     		movs	r3, #0
 1584              	.LBE371:
 1585              	.LBE373:
 1586              		.loc 1 763 0
 1587 0050 84F83410 		strb	r1, [r4, #52]
 1588              	.LVL127:
 1589              	.LBB374:
 1590              	.LBB372:
 1591              		.loc 1 408 0
 1592 0054 2046     		mov	r0, r4
 1593 0056 1946     		mov	r1, r3
 1594              		.loc 1 403 0
 1595 0058 1370     		strb	r3, [r2]
 1596              		.loc 1 404 0
ARM GAS  C:\Users\Grillmo\AppData\Local\Temp\ccX6Q3Iw.s 			page 29


 1597 005a D360     		str	r3, [r2, #12]
 1598              		.loc 1 405 0
 1599 005c 5360     		str	r3, [r2, #4]
 1600              		.loc 1 406 0
 1601 005e 9360     		str	r3, [r2, #8]
 1602              		.loc 1 408 0
 1603 0060 FFF7FEFF 		bl	usb_lld_prepare_receive
 1604              	.LVL128:
 1605              	.LBE372:
 1606              	.LBE374:
 1607              	.LBB375:
 1608              	.LBB376:
 1609              	.LBB377:
 1610              	.LBB378:
 1611              	.LBB379:
 1612              	.LBB380:
 1613              		.loc 2 546 0
 1614 0064 2023     		movs	r3, #32
 1615              		.syntax unified
 1616              	@ 546 "ChibiOS_3.0.2/os/ext/CMSIS/include/core_cmFunc.h" 1
 1617 0066 83F31188 		MSR basepri, r3
 1618              	@ 0 "" 2
 1619              	.LVL129:
 1620              		.thumb
 1621              		.syntax unified
 1622              	.LBE380:
 1623              	.LBE379:
 1624              	.LBE378:
 1625              	.LBE377:
 1626              	.LBE376:
 1627              	.LBE375:
 1628              	.LBB381:
 1629              	.LBB382:
 1630              		.loc 1 511 0
 1631 006a 6389     		ldrh	r3, [r4, #10]
 1632 006c 13F00101 		ands	r1, r3, #1
 1633 0070 05D1     		bne	.L154
 1634              		.loc 1 515 0
 1635 0072 43F00103 		orr	r3, r3, #1
 1636 0076 6381     		strh	r3, [r4, #10]	@ movhi
 1637              		.loc 1 516 0
 1638 0078 2046     		mov	r0, r4
 1639 007a FFF7FEFF 		bl	usb_lld_start_out
 1640              	.LVL130:
 1641              	.L154:
 1642              	.LBE382:
 1643              	.LBE381:
 1644              	.LBB383:
 1645              	.LBB384:
 1646              	.LBB385:
 1647              	.LBB386:
 1648              	.LBB387:
 1649              	.LBB388:
 1650              		.loc 2 546 0
 1651 007e 0023     		movs	r3, #0
 1652              		.syntax unified
 1653              	@ 546 "ChibiOS_3.0.2/os/ext/CMSIS/include/core_cmFunc.h" 1
ARM GAS  C:\Users\Grillmo\AppData\Local\Temp\ccX6Q3Iw.s 			page 30


 1654 0080 83F31188 		MSR basepri, r3
 1655              	@ 0 "" 2
 1656              	.LVL131:
 1657              		.thumb
 1658              		.syntax unified
 1659 0084 10BD     		pop	{r4, pc}
 1660              	.LVL132:
 1661              	.L148:
 1662              	.LBE388:
 1663              	.LBE387:
 1664              	.LBE386:
 1665              	.LBE385:
 1666              	.LBE384:
 1667              	.LBE383:
 1668              	.LBB389:
 1669              	.LBB390:
 1670              		.loc 1 55 0
 1671 0086 90F84B10 		ldrb	r1, [r0, #75]	@ zero_extendqisi2
 1672              	.LVL133:
 1673 008a 90F84A30 		ldrb	r3, [r0, #74]	@ zero_extendqisi2
 1674              	.LBE390:
 1675              	.LBE389:
 1676              		.loc 1 751 0
 1677 008e C26B     		ldr	r2, [r0, #60]
 1678              		.loc 1 747 0
 1679 0090 43EA0123 		orr	r3, r3, r1, lsl #8
 1680              		.loc 1 751 0
 1681 0094 9342     		cmp	r3, r2
 1682              		.loc 1 752 0
 1683 0096 C368     		ldr	r3, [r0, #12]
 1684              		.loc 1 751 0
 1685 0098 D7D9     		bls	.L152
 1686              		.loc 1 752 0 discriminator 1
 1687 009a 188A     		ldrh	r0, [r3, #16]
 1688              	.LVL134:
 1689 009c B2FBF0F1 		udiv	r1, r2, r0
 1690              	.LVL135:
 1691 00a0 00FB1122 		mls	r2, r0, r1, r2
 1692              		.loc 1 751 0 discriminator 1
 1693 00a4 002A     		cmp	r2, #0
 1694 00a6 D0D1     		bne	.L152
 1695              	.LVL136:
 1696              	.LBB391:
 1697              	.LBB392:
 1698              		.loc 1 427 0
 1699 00a8 5B69     		ldr	r3, [r3, #20]
 1700              	.LVL137:
 1701              		.loc 1 434 0
 1702 00aa 1146     		mov	r1, r2
 1703              		.loc 1 429 0
 1704 00ac 1A70     		strb	r2, [r3]
 1705              	.LVL138:
 1706              		.loc 1 430 0
 1707 00ae DA60     		str	r2, [r3, #12]
 1708              		.loc 1 431 0
 1709 00b0 5A60     		str	r2, [r3, #4]
 1710              		.loc 1 432 0
ARM GAS  C:\Users\Grillmo\AppData\Local\Temp\ccX6Q3Iw.s 			page 31


 1711 00b2 9A60     		str	r2, [r3, #8]
 1712              		.loc 1 434 0
 1713 00b4 2046     		mov	r0, r4
 1714 00b6 FFF7FEFF 		bl	usb_lld_prepare_transmit
 1715              	.LVL139:
 1716              	.LBE392:
 1717              	.LBE391:
 1718              	.LBB393:
 1719              	.LBB394:
 1720              	.LBB395:
 1721              	.LBB396:
 1722              	.LBB397:
 1723              	.LBB398:
 1724              		.loc 2 546 0
 1725 00ba 2023     		movs	r3, #32
 1726              		.syntax unified
 1727              	@ 546 "ChibiOS_3.0.2/os/ext/CMSIS/include/core_cmFunc.h" 1
 1728 00bc 83F31188 		MSR basepri, r3
 1729              	@ 0 "" 2
 1730              	.LVL140:
 1731              		.thumb
 1732              		.syntax unified
 1733              	.LBE398:
 1734              	.LBE397:
 1735              	.LBE396:
 1736              	.LBE395:
 1737              	.LBE394:
 1738              	.LBE393:
 1739              	.LBB399:
 1740              	.LBB400:
 1741              		.loc 1 539 0
 1742 00c0 2389     		ldrh	r3, [r4, #8]
 1743 00c2 13F00101 		ands	r1, r3, #1
 1744 00c6 05D1     		bne	.L153
 1745              		.loc 1 543 0
 1746 00c8 43F00103 		orr	r3, r3, #1
 1747 00cc 2381     		strh	r3, [r4, #8]	@ movhi
 1748              		.loc 1 544 0
 1749 00ce 2046     		mov	r0, r4
 1750 00d0 FFF7FEFF 		bl	usb_lld_start_in
 1751              	.LVL141:
 1752              	.L153:
 1753              	.LBE400:
 1754              	.LBE399:
 1755              	.LBB401:
 1756              	.LBB402:
 1757              	.LBB403:
 1758              	.LBB404:
 1759              	.LBB405:
 1760              	.LBB406:
 1761              		.loc 2 546 0
 1762 00d4 0023     		movs	r3, #0
 1763              		.syntax unified
 1764              	@ 546 "ChibiOS_3.0.2/os/ext/CMSIS/include/core_cmFunc.h" 1
 1765 00d6 83F31188 		MSR basepri, r3
 1766              	@ 0 "" 2
 1767              	.LVL142:
ARM GAS  C:\Users\Grillmo\AppData\Local\Temp\ccX6Q3Iw.s 			page 32


 1768              		.thumb
 1769              		.syntax unified
 1770              	.LBE406:
 1771              	.LBE405:
 1772              	.LBE404:
 1773              	.LBE403:
 1774              	.LBE402:
 1775              	.LBE401:
 1776              		.loc 1 757 0
 1777 00da 0223     		movs	r3, #2
 1778 00dc 84F83430 		strb	r3, [r4, #52]
 1779              		.loc 1 758 0
 1780 00e0 10BD     		pop	{r4, pc}
 1781              		.cfi_endproc
 1782              	.LFE275:
 1783              		.size	_usb_ep0in, .-_usb_ep0in
 1784 00e2 00BF     		.section	.text._usb_ep0out,"ax",%progbits
 1785              		.align	1
 1786              		.p2align 4,,15
 1787              		.global	_usb_ep0out
 1788              		.syntax unified
 1789              		.thumb
 1790              		.thumb_func
 1791              		.fpu fpv4-sp-d16
 1792              		.type	_usb_ep0out, %function
 1793              	_usb_ep0out:
 1794              	.LFB276:
 1795              		.loc 1 810 0
 1796              		.cfi_startproc
 1797              		@ args = 0, pretend = 0, frame = 0
 1798              		@ frame_needed = 0, uses_anonymous_args = 0
 1799              	.LVL143:
 1800              		.loc 1 813 0
 1801 0000 90F83420 		ldrb	r2, [r0, #52]	@ zero_extendqisi2
 1802 0004 062A     		cmp	r2, #6
 1803 0006 0CD8     		bhi	.L181
 1804 0008 0123     		movs	r3, #1
 1805 000a 9340     		lsls	r3, r3, r2
 1806 000c 13F0670F 		tst	r3, #103
 1807              		.loc 1 810 0
 1808 0010 10B5     		push	{r4, lr}
 1809              		.cfi_def_cfa_offset 8
 1810              		.cfi_offset 4, -8
 1811              		.cfi_offset 14, -4
 1812 0012 0446     		mov	r4, r0
 1813 0014 12D1     		bne	.L166
 1814 0016 13F00802 		ands	r2, r3, #8
 1815 001a 03D1     		bne	.L167
 1816 001c DB06     		lsls	r3, r3, #27
 1817 001e 1ED4     		bmi	.L184
 1818              	.L164:
 1819 0020 10BD     		pop	{r4, pc}
 1820              	.L181:
 1821              		.cfi_def_cfa_offset 0
 1822              		.cfi_restore 4
 1823              		.cfi_restore 14
 1824 0022 7047     		bx	lr
ARM GAS  C:\Users\Grillmo\AppData\Local\Temp\ccX6Q3Iw.s 			page 33


 1825              	.L167:
 1826              		.cfi_def_cfa_offset 8
 1827              		.cfi_offset 4, -8
 1828              		.cfi_offset 14, -4
 1829              		.loc 1 830 0
 1830 0024 C368     		ldr	r3, [r0, #12]
 1831 0026 9B69     		ldr	r3, [r3, #24]
 1832 0028 9B68     		ldr	r3, [r3, #8]
 1833 002a 002B     		cmp	r3, #0
 1834 002c F8D1     		bne	.L164
 1835              		.loc 1 834 0
 1836 002e 036C     		ldr	r3, [r0, #64]
 1837 0030 03B1     		cbz	r3, .L169
 1838              		.loc 1 835 0
 1839 0032 9847     		blx	r3
 1840              	.LVL144:
 1841              	.L169:
 1842              		.loc 1 837 0
 1843 0034 0023     		movs	r3, #0
 1844 0036 84F83430 		strb	r3, [r4, #52]
 1845              		.loc 1 838 0
 1846 003a 10BD     		pop	{r4, pc}
 1847              	.LVL145:
 1848              	.L166:
 1849              		.loc 1 850 0
 1850 003c 0021     		movs	r1, #0
 1851              	.LVL146:
 1852 003e FFF7FEFF 		bl	usb_lld_stall_in
 1853              	.LVL147:
 1854              		.loc 1 851 0
 1855 0042 0021     		movs	r1, #0
 1856 0044 2046     		mov	r0, r4
 1857 0046 FFF7FEFF 		bl	usb_lld_stall_out
 1858              	.LVL148:
 1859              		.loc 1 852 0
 1860 004a 6368     		ldr	r3, [r4, #4]
 1861 004c 1B68     		ldr	r3, [r3]
 1862 004e 13B1     		cbz	r3, .L170
 1863              		.loc 1 852 0 is_stmt 0 discriminator 1
 1864 0050 0521     		movs	r1, #5
 1865 0052 2046     		mov	r0, r4
 1866 0054 9847     		blx	r3
 1867              	.LVL149:
 1868              	.L170:
 1869              		.loc 1 853 0 is_stmt 1
 1870 0056 0623     		movs	r3, #6
 1871 0058 84F83430 		strb	r3, [r4, #52]
 1872 005c 10BD     		pop	{r4, pc}
 1873              	.LVL150:
 1874              	.L184:
 1875              	.LBB407:
 1876              	.LBB408:
 1877              		.loc 1 427 0
 1878 005e C368     		ldr	r3, [r0, #12]
 1879 0060 5B69     		ldr	r3, [r3, #20]
 1880              	.LBE408:
 1881              	.LBE407:
ARM GAS  C:\Users\Grillmo\AppData\Local\Temp\ccX6Q3Iw.s 			page 34


 1882              		.loc 1 816 0
 1883 0062 0521     		movs	r1, #5
 1884              	.LVL151:
 1885 0064 80F83410 		strb	r1, [r0, #52]
 1886              	.LVL152:
 1887              	.LBB410:
 1888              	.LBB409:
 1889              		.loc 1 429 0
 1890 0068 1A70     		strb	r2, [r3]
 1891              		.loc 1 430 0
 1892 006a DA60     		str	r2, [r3, #12]
 1893              		.loc 1 431 0
 1894 006c 5A60     		str	r2, [r3, #4]
 1895              		.loc 1 432 0
 1896 006e 9A60     		str	r2, [r3, #8]
 1897              		.loc 1 434 0
 1898 0070 1146     		mov	r1, r2
 1899 0072 FFF7FEFF 		bl	usb_lld_prepare_transmit
 1900              	.LVL153:
 1901              	.LBE409:
 1902              	.LBE410:
 1903              	.LBB411:
 1904              	.LBB412:
 1905              	.LBB413:
 1906              	.LBB414:
 1907              	.LBB415:
 1908              	.LBB416:
 1909              		.loc 2 546 0
 1910 0076 2023     		movs	r3, #32
 1911              		.syntax unified
 1912              	@ 546 "ChibiOS_3.0.2/os/ext/CMSIS/include/core_cmFunc.h" 1
 1913 0078 83F31188 		MSR basepri, r3
 1914              	@ 0 "" 2
 1915              	.LVL154:
 1916              		.thumb
 1917              		.syntax unified
 1918              	.LBE416:
 1919              	.LBE415:
 1920              	.LBE414:
 1921              	.LBE413:
 1922              	.LBE412:
 1923              	.LBE411:
 1924              	.LBB417:
 1925              	.LBB418:
 1926              		.loc 1 539 0
 1927 007c 2389     		ldrh	r3, [r4, #8]
 1928 007e 13F00101 		ands	r1, r3, #1
 1929 0082 03D0     		beq	.L185
 1930              	.L168:
 1931              	.LVL155:
 1932              	.LBE418:
 1933              	.LBE417:
 1934              	.LBB420:
 1935              	.LBB421:
 1936              	.LBB422:
 1937              	.LBB423:
 1938              	.LBB424:
ARM GAS  C:\Users\Grillmo\AppData\Local\Temp\ccX6Q3Iw.s 			page 35


 1939              	.LBB425:
 1940              		.loc 2 546 0
 1941 0084 0023     		movs	r3, #0
 1942              		.syntax unified
 1943              	@ 546 "ChibiOS_3.0.2/os/ext/CMSIS/include/core_cmFunc.h" 1
 1944 0086 83F31188 		MSR basepri, r3
 1945              	@ 0 "" 2
 1946              	.LVL156:
 1947              		.thumb
 1948              		.syntax unified
 1949 008a 10BD     		pop	{r4, pc}
 1950              	.LVL157:
 1951              	.L185:
 1952              	.LBE425:
 1953              	.LBE424:
 1954              	.LBE423:
 1955              	.LBE422:
 1956              	.LBE421:
 1957              	.LBE420:
 1958              	.LBB426:
 1959              	.LBB419:
 1960              		.loc 1 543 0
 1961 008c 43F00103 		orr	r3, r3, #1
 1962 0090 2381     		strh	r3, [r4, #8]	@ movhi
 1963              		.loc 1 544 0
 1964 0092 2046     		mov	r0, r4
 1965 0094 FFF7FEFF 		bl	usb_lld_start_in
 1966              	.LVL158:
 1967 0098 F4E7     		b	.L168
 1968              	.LBE419:
 1969              	.LBE426:
 1970              		.cfi_endproc
 1971              	.LFE276:
 1972              		.size	_usb_ep0out, .-_usb_ep0out
 1973 009a 00BF     		.section	.rodata.active_status,"a",%progbits
 1974              		.align	2
 1975              		.set	.LANCHOR2,. + 0
 1976              		.type	active_status, %object
 1977              		.size	active_status, 2
 1978              	active_status:
 1979 0000 0000     		.space	2
 1980              		.section	.rodata.halted_status,"a",%progbits
 1981              		.align	2
 1982              		.set	.LANCHOR1,. + 0
 1983              		.type	halted_status, %object
 1984              		.size	halted_status, 2
 1985              	halted_status:
 1986 0000 01       		.byte	1
 1987 0001 00       		.byte	0
 1988              		.section	.rodata.zero_status,"a",%progbits
 1989              		.align	2
 1990              		.set	.LANCHOR0,. + 0
 1991              		.type	zero_status, %object
 1992              		.size	zero_status, 2
 1993              	zero_status:
 1994 0000 0000     		.space	2
 1995              		.text
ARM GAS  C:\Users\Grillmo\AppData\Local\Temp\ccX6Q3Iw.s 			page 36


 1996              	.Letext0:
 1997              		.file 3 "c:\\chibistudio\\tools\\gnu tools arm embedded\\6.3 2017q1\\lib\\gcc\\arm-none-eabi\\6.3.
 1998              		.file 4 "c:\\chibistudio\\tools\\gnu tools arm embedded\\6.3 2017q1\\arm-none-eabi\\include\\machi
 1999              		.file 5 "c:\\chibistudio\\tools\\gnu tools arm embedded\\6.3 2017q1\\arm-none-eabi\\include\\sys\\
 2000              		.file 6 "c:\\chibistudio\\tools\\gnu tools arm embedded\\6.3 2017q1\\arm-none-eabi\\include\\sys\\
 2001              		.file 7 "c:\\chibistudio\\tools\\gnu tools arm embedded\\6.3 2017q1\\arm-none-eabi\\include\\sys\\
 2002              		.file 8 "c:\\chibistudio\\tools\\gnu tools arm embedded\\6.3 2017q1\\arm-none-eabi\\include\\sys\\
 2003              		.file 9 "ChibiOS_3.0.2/os/rt/ports/ARMCMx/compilers/GCC/chtypes.h"
 2004              		.file 10 "ChibiOS_3.0.2/os/rt/include/chsystypes.h"
 2005              		.file 11 "ChibiOS_3.0.2/os/rt/include/chschd.h"
 2006              		.file 12 "ChibiOS_3.0.2/os/ext/CMSIS/include/core_cm4.h"
 2007              		.file 13 "ChibiOS_3.0.2/os/ext/CMSIS/ST/system_stm32f4xx.h"
 2008              		.file 14 "ChibiOS_3.0.2/os/ext/CMSIS/ST/stm32f407xx.h"
 2009              		.file 15 "ChibiOS_3.0.2/os/rt/ports/ARMCMx/chcore.h"
 2010              		.file 16 "ChibiOS_3.0.2/os/rt/ports/ARMCMx/chcore_v7m.h"
 2011              		.file 17 "ChibiOS_3.0.2/os/rt/include/chtm.h"
 2012              		.file 18 "ChibiOS_3.0.2/os/rt/include/chsem.h"
 2013              		.file 19 "ChibiOS_3.0.2/os/rt/include/chmtx.h"
 2014              		.file 20 "ChibiOS_3.0.2/os/rt/include/chregistry.h"
 2015              		.file 21 "ChibiOS_3.0.2/os/rt/include/chevents.h"
 2016              		.file 22 "ChibiOS_3.0.2/os/rt/include/chqueues.h"
 2017              		.file 23 "./conf_general.h"
 2018              		.file 24 "ChibiOS_3.0.2/os/hal/ports/STM32/STM32F4xx/stm32_dma.h"
 2019              		.file 25 "ChibiOS_3.0.2/os/hal/ports/STM32/LLD/GPIOv2/pal_lld.h"
 2020              		.file 26 "ChibiOS_3.0.2/os/hal/include/can.h"
 2021              		.file 27 "ChibiOS_3.0.2/os/hal/ports/STM32/LLD/can_lld.h"
 2022              		.file 28 "ChibiOS_3.0.2/os/hal/include/i2c.h"
 2023              		.file 29 "ChibiOS_3.0.2/os/hal/ports/STM32/LLD/I2Cv1/i2c_lld.h"
 2024              		.file 30 "ChibiOS_3.0.2/os/hal/include/icu.h"
 2025              		.file 31 "ChibiOS_3.0.2/os/hal/ports/STM32/LLD/TIMv1/icu_lld.h"
 2026              		.file 32 "ChibiOS_3.0.2/os/hal/ports/STM32/LLD/TIMv1/stm32_tim.h"
 2027              		.file 33 "ChibiOS_3.0.2/os/hal/include/spi.h"
 2028              		.file 34 "ChibiOS_3.0.2/os/hal/ports/STM32/LLD/SPIv1/spi_lld.h"
 2029              		.file 35 "ChibiOS_3.0.2/os/hal/include/uart.h"
 2030              		.file 36 "ChibiOS_3.0.2/os/hal/ports/STM32/LLD/USARTv1/uart_lld.h"
 2031              		.file 37 "ChibiOS_3.0.2/os/hal/include/usb.h"
 2032              		.file 38 "ChibiOS_3.0.2/os/hal/ports/STM32/LLD/OTGv1/usb_lld.h"
 2033              		.file 39 "ChibiOS_3.0.2/os/hal/ports/STM32/LLD/OTGv1/stm32_otg.h"
 2034              		.file 40 "ChibiOS_3.0.2/os/hal/osal/rt/osal.h"
 2035              		.file 41 "ChibiOS_3.0.2/os/rt/include/chsys.h"