ARM GAS  C:\Users\Grillmo\AppData\Local\Temp\cco1wq2R.s 			page 1


   1              		.cpu cortex-m4
   2              		.eabi_attribute 27, 1
   3              		.eabi_attribute 28, 1
   4              		.eabi_attribute 20, 1
   5              		.eabi_attribute 21, 1
   6              		.eabi_attribute 23, 3
   7              		.eabi_attribute 24, 1
   8              		.eabi_attribute 25, 1
   9              		.eabi_attribute 26, 1
  10              		.eabi_attribute 30, 2
  11              		.eabi_attribute 34, 1
  12              		.eabi_attribute 18, 4
  13              		.file	"utils.c"
  14              		.text
  15              	.Ltext0:
  16              		.cfi_sections	.debug_frame
  17              		.section	.text.utils_step_towards,"ax",%progbits
  18              		.align	1
  19              		.p2align 4,,15
  20              		.global	utils_step_towards
  21              		.syntax unified
  22              		.thumb
  23              		.thumb_func
  24              		.fpu fpv4-sp-d16
  25              		.type	utils_step_towards, %function
  26              	utils_step_towards:
  27              	.LFB256:
  28              		.file 1 "utils.c"
  29              		.loc 1 29 0
  30              		.cfi_startproc
  31              		@ args = 0, pretend = 0, frame = 0
  32              		@ frame_needed = 0, uses_anonymous_args = 0
  33              		@ link register save eliminated.
  34              	.LVL0:
  35              		.loc 1 30 0
  36 0000 D0ED007A 		vldr.32	s15, [r0]
  37 0004 F4EEC07A 		vcmpe.f32	s15, s0
  38 0008 F1EE10FA 		vmrs	APSR_nzcv, FPSCR
  39 000c 09D5     		bpl	.L13
  40              		.loc 1 31 0
  41 000e 77EEA07A 		vadd.f32	s15, s15, s1
  42 0012 B4EEE70A 		vcmpe.f32	s0, s15
  43 0016 F1EE10FA 		vmrs	APSR_nzcv, FPSCR
  44 001a 0ADD     		ble	.L4
  45              	.L14:
  46              		.loc 1 38 0
  47 001c C0ED007A 		vstr.32	s15, [r0]
  48              	.L1:
  49 0020 7047     		bx	lr
  50              	.L13:
  51              		.loc 1 36 0
  52 0022 FDDD     		ble	.L1
  53              		.loc 1 37 0
  54 0024 77EEE07A 		vsub.f32	s15, s15, s1
  55 0028 B4EEE70A 		vcmpe.f32	s0, s15
  56 002c F1EE10FA 		vmrs	APSR_nzcv, FPSCR
  57 0030 F4D4     		bmi	.L14
ARM GAS  C:\Users\Grillmo\AppData\Local\Temp\cco1wq2R.s 			page 2


  58              	.L4:
  59              		.loc 1 34 0
  60 0032 80ED000A 		vstr.32	s0, [r0]
  61 0036 7047     		bx	lr
  62              		.cfi_endproc
  63              	.LFE256:
  64              		.size	utils_step_towards, .-utils_step_towards
  65              		.section	.text.utils_calc_ratio,"ax",%progbits
  66              		.align	1
  67              		.p2align 4,,15
  68              		.global	utils_calc_ratio
  69              		.syntax unified
  70              		.thumb
  71              		.thumb_func
  72              		.fpu fpv4-sp-d16
  73              		.type	utils_calc_ratio, %function
  74              	utils_calc_ratio:
  75              	.LFB257:
  76              		.loc 1 45 0
  77              		.cfi_startproc
  78              		@ args = 0, pretend = 0, frame = 0
  79              		@ frame_needed = 0, uses_anonymous_args = 0
  80              		@ link register save eliminated.
  81              	.LVL1:
  82              		.loc 1 46 0
  83 0000 31EE401A 		vsub.f32	s2, s2, s0
  84              	.LVL2:
  85 0004 30EEC00A 		vsub.f32	s0, s1, s0
  86              	.LVL3:
  87              		.loc 1 47 0
  88 0008 81EE000A 		vdiv.f32	s0, s2, s0
  89 000c 7047     		bx	lr
  90              		.cfi_endproc
  91              	.LFE257:
  92              		.size	utils_calc_ratio, .-utils_calc_ratio
  93 000e 00BF     		.section	.text.utils_norm_angle,"ax",%progbits
  94              		.align	1
  95              		.p2align 4,,15
  96              		.global	utils_norm_angle
  97              		.syntax unified
  98              		.thumb
  99              		.thumb_func
 100              		.fpu fpv4-sp-d16
 101              		.type	utils_norm_angle, %function
 102              	utils_norm_angle:
 103              	.LFB258:
 104              		.loc 1 55 0
 105              		.cfi_startproc
 106              		@ args = 0, pretend = 0, frame = 0
 107              		@ frame_needed = 0, uses_anonymous_args = 0
 108              	.LVL4:
 109 0000 10B5     		push	{r4, lr}
 110              		.cfi_def_cfa_offset 8
 111              		.cfi_offset 4, -8
 112              		.cfi_offset 14, -4
 113 0002 2DED028B 		vpush.64	{d8}
 114              		.cfi_def_cfa_offset 16
ARM GAS  C:\Users\Grillmo\AppData\Local\Temp\cco1wq2R.s 			page 3


 115              		.cfi_offset 80, -16
 116              		.cfi_offset 81, -12
 117              		.loc 1 56 0
 118 0006 9FED0A8A 		vldr.32	s16, .L22
 119 000a 90ED000A 		vldr.32	s0, [r0]
 120 000e F0EE480A 		vmov.f32	s1, s16
 121              		.loc 1 55 0
 122 0012 0446     		mov	r4, r0
 123              		.loc 1 56 0
 124 0014 FFF7FEFF 		bl	fmodf
 125              	.LVL5:
 126              		.loc 1 58 0
 127 0018 B5EEC00A 		vcmpe.f32	s0, #0
 128 001c F1EE10FA 		vmrs	APSR_nzcv, FPSCR
 129              		.loc 1 59 0
 130 0020 48BF     		it	mi
 131 0022 30EE080A 		vaddmi.f32	s0, s0, s16
 132              		.loc 1 61 0
 133 0026 BDEC028B 		vldm	sp!, {d8}
 134              		.cfi_restore 80
 135              		.cfi_restore 81
 136              		.cfi_def_cfa_offset 8
 137              		.loc 1 59 0
 138 002a 84ED000A 		vstr.32	s0, [r4]
 139              		.loc 1 61 0
 140 002e 10BD     		pop	{r4, pc}
 141              	.LVL6:
 142              	.L23:
 143              		.align	2
 144              	.L22:
 145 0030 0000B443 		.word	1135869952
 146              		.cfi_endproc
 147              	.LFE258:
 148              		.size	utils_norm_angle, .-utils_norm_angle
 149              		.section	.text.utils_norm_angle_rad,"ax",%progbits
 150              		.align	1
 151              		.p2align 4,,15
 152              		.global	utils_norm_angle_rad
 153              		.syntax unified
 154              		.thumb
 155              		.thumb_func
 156              		.fpu fpv4-sp-d16
 157              		.type	utils_norm_angle_rad, %function
 158              	utils_norm_angle_rad:
 159              	.LFB259:
 160              		.loc 1 72 0
 161              		.cfi_startproc
 162              		@ args = 0, pretend = 0, frame = 0
 163              		@ frame_needed = 0, uses_anonymous_args = 0
 164              		@ link register save eliminated.
 165              	.LVL7:
 166              		.loc 1 73 0
 167 0000 D0ED007A 		vldr.32	s15, [r0]
 168 0004 9FED127A 		vldr.32	s14, .L34
 169 0008 F4EEC77A 		vcmpe.f32	s15, s14
 170 000c F1EE10FA 		vmrs	APSR_nzcv, FPSCR
 171 0010 0AD5     		bpl	.L25
ARM GAS  C:\Users\Grillmo\AppData\Local\Temp\cco1wq2R.s 			page 4


 172              		.loc 1 74 0
 173 0012 DFED106A 		vldr.32	s13, .L34+4
 174              	.L27:
 175 0016 77EEA67A 		vadd.f32	s15, s15, s13
 176              		.loc 1 73 0
 177 001a F4EEC77A 		vcmpe.f32	s15, s14
 178 001e F1EE10FA 		vmrs	APSR_nzcv, FPSCR
 179 0022 F8D4     		bmi	.L27
 180 0024 C0ED007A 		vstr.32	s15, [r0]
 181              	.L25:
 182              		.loc 1 77 0
 183 0028 9FED0B7A 		vldr.32	s14, .L34+8
 184 002c F4EEC77A 		vcmpe.f32	s15, s14
 185 0030 F1EE10FA 		vmrs	APSR_nzcv, FPSCR
 186 0034 0ADD     		ble	.L24
 187              		.loc 1 78 0
 188 0036 DFED076A 		vldr.32	s13, .L34+4
 189              	.L29:
 190 003a 77EEE67A 		vsub.f32	s15, s15, s13
 191              		.loc 1 77 0
 192 003e F4EEC77A 		vcmpe.f32	s15, s14
 193 0042 F1EE10FA 		vmrs	APSR_nzcv, FPSCR
 194 0046 F8DC     		bgt	.L29
 195 0048 C0ED007A 		vstr.32	s15, [r0]
 196              	.L24:
 197 004c 7047     		bx	lr
 198              	.L35:
 199 004e 00BF     		.align	2
 200              	.L34:
 201 0050 DB0F49C0 		.word	-1068953637
 202 0054 DB0FC940 		.word	1086918619
 203 0058 DB0F4940 		.word	1078530011
 204              		.cfi_endproc
 205              	.LFE259:
 206              		.size	utils_norm_angle_rad, .-utils_norm_angle_rad
 207              		.section	.text.utils_truncate_number,"ax",%progbits
 208              		.align	1
 209              		.p2align 4,,15
 210              		.global	utils_truncate_number
 211              		.syntax unified
 212              		.thumb
 213              		.thumb_func
 214              		.fpu fpv4-sp-d16
 215              		.type	utils_truncate_number, %function
 216              	utils_truncate_number:
 217              	.LFB260:
 218              		.loc 1 82 0
 219              		.cfi_startproc
 220              		@ args = 0, pretend = 0, frame = 0
 221              		@ frame_needed = 0, uses_anonymous_args = 0
 222              		@ link register save eliminated.
 223              	.LVL8:
 224              		.loc 1 85 0
 225 0000 D0ED007A 		vldr.32	s15, [r0]
 226 0004 F4EEE07A 		vcmpe.f32	s15, s1
 227 0008 F1EE10FA 		vmrs	APSR_nzcv, FPSCR
 228 000c 09DC     		bgt	.L46
ARM GAS  C:\Users\Grillmo\AppData\Local\Temp\cco1wq2R.s 			page 5


 229              		.loc 1 88 0
 230 000e F4EEC07A 		vcmpe.f32	s15, s0
 231 0012 F1EE10FA 		vmrs	APSR_nzcv, FPSCR
 232              		.loc 1 89 0
 233 0016 46BF     		itte	mi
 234 0018 80ED000A 		vstrmi.32	s0, [r0]
 235              	.LVL9:
 236              		.loc 1 90 0
 237 001c 0120     		movmi	r0, #1
 238              	.LVL10:
 239              		.loc 1 83 0
 240 001e 0020     		movpl	r0, #0
 241              	.LVL11:
 242              		.loc 1 94 0
 243 0020 7047     		bx	lr
 244              	.LVL12:
 245              	.L46:
 246              		.loc 1 86 0
 247 0022 C0ED000A 		vstr.32	s1, [r0]
 248              	.LVL13:
 249              		.loc 1 87 0
 250 0026 0120     		movs	r0, #1
 251              	.LVL14:
 252 0028 7047     		bx	lr
 253              		.cfi_endproc
 254              	.LFE260:
 255              		.size	utils_truncate_number, .-utils_truncate_number
 256 002a 00BF     		.section	.text.utils_truncate_number_int,"ax",%progbits
 257              		.align	1
 258              		.p2align 4,,15
 259              		.global	utils_truncate_number_int
 260              		.syntax unified
 261              		.thumb
 262              		.thumb_func
 263              		.fpu fpv4-sp-d16
 264              		.type	utils_truncate_number_int, %function
 265              	utils_truncate_number_int:
 266              	.LFB261:
 267              		.loc 1 96 0
 268              		.cfi_startproc
 269              		@ args = 0, pretend = 0, frame = 0
 270              		@ frame_needed = 0, uses_anonymous_args = 0
 271              		@ link register save eliminated.
 272              	.LVL15:
 273              		.loc 1 99 0
 274 0000 0368     		ldr	r3, [r0]
 275 0002 9342     		cmp	r3, r2
 276 0004 05DC     		bgt	.L51
 277              		.loc 1 102 0
 278 0006 8B42     		cmp	r3, r1
 279              		.loc 1 103 0
 280 0008 BABF     		itte	lt
 281 000a 0160     		strlt	r1, [r0]
 282              	.LVL16:
 283              		.loc 1 104 0
 284 000c 0120     		movlt	r0, #1
 285              	.LVL17:
ARM GAS  C:\Users\Grillmo\AppData\Local\Temp\cco1wq2R.s 			page 6


 286              		.loc 1 97 0
 287 000e 0020     		movge	r0, #0
 288              	.LVL18:
 289              		.loc 1 108 0
 290 0010 7047     		bx	lr
 291              	.LVL19:
 292              	.L51:
 293              		.loc 1 100 0
 294 0012 0260     		str	r2, [r0]
 295              	.LVL20:
 296              		.loc 1 101 0
 297 0014 0120     		movs	r0, #1
 298              	.LVL21:
 299 0016 7047     		bx	lr
 300              		.cfi_endproc
 301              	.LFE261:
 302              		.size	utils_truncate_number_int, .-utils_truncate_number_int
 303              		.section	.text.utils_truncate_number_abs,"ax",%progbits
 304              		.align	1
 305              		.p2align 4,,15
 306              		.global	utils_truncate_number_abs
 307              		.syntax unified
 308              		.thumb
 309              		.thumb_func
 310              		.fpu fpv4-sp-d16
 311              		.type	utils_truncate_number_abs, %function
 312              	utils_truncate_number_abs:
 313              	.LFB262:
 314              		.loc 1 110 0
 315              		.cfi_startproc
 316              		@ args = 0, pretend = 0, frame = 0
 317              		@ frame_needed = 0, uses_anonymous_args = 0
 318              		@ link register save eliminated.
 319              	.LVL22:
 320              		.loc 1 113 0
 321 0000 D0ED007A 		vldr.32	s15, [r0]
 322 0004 F4EEC07A 		vcmpe.f32	s15, s0
 323 0008 F1EE10FA 		vmrs	APSR_nzcv, FPSCR
 324 000c 06DC     		bgt	.L62
 325              		.loc 1 116 0
 326 000e B1EE400A 		vneg.f32	s0, s0
 327              	.LVL23:
 328 0012 F4EEC07A 		vcmpe.f32	s15, s0
 329 0016 F1EE10FA 		vmrs	APSR_nzcv, FPSCR
 330 001a 03D5     		bpl	.L61
 331              	.L62:
 332              		.loc 1 117 0
 333 001c 80ED000A 		vstr.32	s0, [r0]
 334              	.LVL24:
 335              		.loc 1 118 0
 336 0020 0120     		movs	r0, #1
 337              	.LVL25:
 338 0022 7047     		bx	lr
 339              	.LVL26:
 340              	.L61:
 341              		.loc 1 111 0
 342 0024 0020     		movs	r0, #0
ARM GAS  C:\Users\Grillmo\AppData\Local\Temp\cco1wq2R.s 			page 7


 343              	.LVL27:
 344              		.loc 1 122 0
 345 0026 7047     		bx	lr
 346              		.cfi_endproc
 347              	.LFE262:
 348              		.size	utils_truncate_number_abs, .-utils_truncate_number_abs
 349              		.section	.text.utils_map,"ax",%progbits
 350              		.align	1
 351              		.p2align 4,,15
 352              		.global	utils_map
 353              		.syntax unified
 354              		.thumb
 355              		.thumb_func
 356              		.fpu fpv4-sp-d16
 357              		.type	utils_map, %function
 358              	utils_map:
 359              	.LFB263:
 360              		.loc 1 124 0
 361              		.cfi_startproc
 362              		@ args = 0, pretend = 0, frame = 0
 363              		@ frame_needed = 0, uses_anonymous_args = 0
 364              		@ link register save eliminated.
 365              	.LVL28:
 366              		.loc 1 125 0
 367 0000 30EE600A 		vsub.f32	s0, s0, s1
 368              	.LVL29:
 369 0004 32EE612A 		vsub.f32	s4, s4, s3
 370              	.LVL30:
 371 0008 31EE601A 		vsub.f32	s2, s2, s1
 372              	.LVL31:
 373 000c 20EE022A 		vmul.f32	s4, s0, s4
 374 0010 82EE010A 		vdiv.f32	s0, s4, s2
 375              		.loc 1 126 0
 376 0014 30EE210A 		vadd.f32	s0, s0, s3
 377 0018 7047     		bx	lr
 378              		.cfi_endproc
 379              	.LFE263:
 380              		.size	utils_map, .-utils_map
 381 001a 00BF     		.section	.text.utils_map_int,"ax",%progbits
 382              		.align	1
 383              		.p2align 4,,15
 384              		.global	utils_map_int
 385              		.syntax unified
 386              		.thumb
 387              		.thumb_func
 388              		.fpu fpv4-sp-d16
 389              		.type	utils_map_int, %function
 390              	utils_map_int:
 391              	.LFB264:
 392              		.loc 1 128 0
 393              		.cfi_startproc
 394              		@ args = 4, pretend = 0, frame = 0
 395              		@ frame_needed = 0, uses_anonymous_args = 0
 396              		@ link register save eliminated.
 397              	.LVL32:
 398 0000 10B4     		push	{r4}
 399              		.cfi_def_cfa_offset 4
ARM GAS  C:\Users\Grillmo\AppData\Local\Temp\cco1wq2R.s 			page 8


 400              		.cfi_offset 4, -4
 401              		.loc 1 128 0
 402 0002 019C     		ldr	r4, [sp, #4]
 403              		.loc 1 129 0
 404 0004 401A     		subs	r0, r0, r1
 405              	.LVL33:
 406 0006 E41A     		subs	r4, r4, r3
 407 0008 04FB00F4 		mul	r4, r4, r0
 408 000c 521A     		subs	r2, r2, r1
 409              	.LVL34:
 410 000e 94FBF2F0 		sdiv	r0, r4, r2
 411              		.loc 1 130 0
 412 0012 5DF8044B 		ldr	r4, [sp], #4
 413              		.cfi_restore 4
 414              		.cfi_def_cfa_offset 0
 415              	.LVL35:
 416 0016 1844     		add	r0, r0, r3
 417 0018 7047     		bx	lr
 418              		.cfi_endproc
 419              	.LFE264:
 420              		.size	utils_map_int, .-utils_map_int
 421 001a 00BF     		.section	.text.utils_deadband,"ax",%progbits
 422              		.align	1
 423              		.p2align 4,,15
 424              		.global	utils_deadband
 425              		.syntax unified
 426              		.thumb
 427              		.thumb_func
 428              		.fpu fpv4-sp-d16
 429              		.type	utils_deadband, %function
 430              	utils_deadband:
 431              	.LFB265:
 432              		.loc 1 136 0
 433              		.cfi_startproc
 434              		@ args = 0, pretend = 0, frame = 0
 435              		@ frame_needed = 0, uses_anonymous_args = 0
 436              		@ link register save eliminated.
 437              	.LVL36:
 438              		.loc 1 137 0
 439 0000 D0ED007A 		vldr.32	s15, [r0]
 440 0004 B0EEE77A 		vabs.f32	s14, s15
 441 0008 B4EEC07A 		vcmpe.f32	s14, s0
 442 000c F1EE10FA 		vmrs	APSR_nzcv, FPSCR
 443 0010 17D4     		bmi	.L76
 444              	.LBB24:
 445              		.loc 1 140 0
 446 0012 30EEC00A 		vsub.f32	s0, s1, s0
 447              	.LVL37:
 448              		.loc 1 142 0
 449 0016 B7EE007A 		vmov.f32	s14, #1.0e+0
 450              		.loc 1 140 0
 451 001a C0EE806A 		vdiv.f32	s13, s1, s0
 452              	.LVL38:
 453              		.loc 1 141 0
 454 001e F5EEC07A 		vcmpe.f32	s15, #0
 455              		.loc 1 142 0
 456 0022 37EE667A 		vsub.f32	s14, s14, s13
ARM GAS  C:\Users\Grillmo\AppData\Local\Temp\cco1wq2R.s 			page 9


 457              		.loc 1 141 0
 458 0026 F1EE10FA 		vmrs	APSR_nzcv, FPSCR
 459              		.loc 1 142 0
 460 002a 67EE200A 		vmul.f32	s1, s14, s1
 461              	.LVL39:
 462              		.loc 1 144 0
 463 002e D6BF     		itet	le
 464 0030 E7EEE60A 		vfmsle.f32	s1, s15, s13
 465              		.loc 1 142 0
 466 0034 E7EEA60A 		vfmagt.f32	s1, s15, s13
 467              		.loc 1 144 0
 468 0038 F1EE600A 		vnegle.f32	s1, s1
 469 003c C0ED000A 		vstr.32	s1, [r0]
 470 0040 7047     		bx	lr
 471              	.LVL40:
 472              	.L76:
 473              	.LBE24:
 474              		.loc 1 138 0
 475 0042 0023     		movs	r3, #0
 476 0044 0360     		str	r3, [r0]	@ float
 477 0046 7047     		bx	lr
 478              		.cfi_endproc
 479              	.LFE265:
 480              		.size	utils_deadband, .-utils_deadband
 481              		.section	.text.utils_angle_difference,"ax",%progbits
 482              		.align	1
 483              		.p2align 4,,15
 484              		.global	utils_angle_difference
 485              		.syntax unified
 486              		.thumb
 487              		.thumb_func
 488              		.fpu fpv4-sp-d16
 489              		.type	utils_angle_difference, %function
 490              	utils_angle_difference:
 491              	.LFB266:
 492              		.loc 1 159 0
 493              		.cfi_startproc
 494              		@ args = 0, pretend = 0, frame = 0
 495              		@ frame_needed = 0, uses_anonymous_args = 0
 496              		@ link register save eliminated.
 497              	.LVL41:
 498              		.loc 1 174 0
 499 0000 30EE600A 		vsub.f32	s0, s0, s1
 500              	.LVL42:
 501              		.loc 1 175 0
 502 0004 DFED107A 		vldr.32	s15, .L88
 503 0008 B4EEE70A 		vcmpe.f32	s0, s15
 504 000c F1EE10FA 		vmrs	APSR_nzcv, FPSCR
 505 0010 08D5     		bpl	.L78
 506              		.loc 1 175 0 is_stmt 0 discriminator 2
 507 0012 9FED0E7A 		vldr.32	s14, .L88+4
 508              	.L80:
 509 0016 30EE070A 		vadd.f32	s0, s0, s14
 510              	.LVL43:
 511 001a B4EEE70A 		vcmpe.f32	s0, s15
 512 001e F1EE10FA 		vmrs	APSR_nzcv, FPSCR
 513 0022 F8D4     		bmi	.L80
ARM GAS  C:\Users\Grillmo\AppData\Local\Temp\cco1wq2R.s 			page 10


 514              	.L78:
 515              		.loc 1 176 0 is_stmt 1 discriminator 1
 516 0024 DFED0A7A 		vldr.32	s15, .L88+8
 517 0028 B4EEE70A 		vcmpe.f32	s0, s15
 518 002c F1EE10FA 		vmrs	APSR_nzcv, FPSCR
 519 0030 08DD     		ble	.L77
 520              		.loc 1 176 0 is_stmt 0 discriminator 2
 521 0032 9FED067A 		vldr.32	s14, .L88+4
 522              	.L83:
 523 0036 30EE470A 		vsub.f32	s0, s0, s14
 524              	.LVL44:
 525 003a B4EEE70A 		vcmpe.f32	s0, s15
 526 003e F1EE10FA 		vmrs	APSR_nzcv, FPSCR
 527 0042 F8DC     		bgt	.L83
 528              	.L77:
 529              		.loc 1 178 0 is_stmt 1
 530 0044 7047     		bx	lr
 531              	.L89:
 532 0046 00BF     		.align	2
 533              	.L88:
 534 0048 000034C3 		.word	-1020002304
 535 004c 0000B443 		.word	1135869952
 536 0050 00003443 		.word	1127481344
 537              		.cfi_endproc
 538              	.LFE266:
 539              		.size	utils_angle_difference, .-utils_angle_difference
 540              		.section	.text.utils_angle_difference_rad,"ax",%progbits
 541              		.align	1
 542              		.p2align 4,,15
 543              		.global	utils_angle_difference_rad
 544              		.syntax unified
 545              		.thumb
 546              		.thumb_func
 547              		.fpu fpv4-sp-d16
 548              		.type	utils_angle_difference_rad, %function
 549              	utils_angle_difference_rad:
 550              	.LFB267:
 551              		.loc 1 189 0
 552              		.cfi_startproc
 553              		@ args = 0, pretend = 0, frame = 0
 554              		@ frame_needed = 0, uses_anonymous_args = 0
 555              		@ link register save eliminated.
 556              	.LVL45:
 557              		.loc 1 190 0
 558 0000 30EE600A 		vsub.f32	s0, s0, s1
 559              	.LVL46:
 560              		.loc 1 191 0
 561 0004 DFED107A 		vldr.32	s15, .L101
 562 0008 B4EEE70A 		vcmpe.f32	s0, s15
 563 000c F1EE10FA 		vmrs	APSR_nzcv, FPSCR
 564 0010 08D5     		bpl	.L91
 565              		.loc 1 191 0 is_stmt 0 discriminator 2
 566 0012 9FED0E7A 		vldr.32	s14, .L101+4
 567              	.L93:
 568 0016 30EE070A 		vadd.f32	s0, s0, s14
 569              	.LVL47:
 570 001a B4EEE70A 		vcmpe.f32	s0, s15
ARM GAS  C:\Users\Grillmo\AppData\Local\Temp\cco1wq2R.s 			page 11


 571 001e F1EE10FA 		vmrs	APSR_nzcv, FPSCR
 572 0022 F8D4     		bmi	.L93
 573              	.L91:
 574              		.loc 1 192 0 is_stmt 1 discriminator 1
 575 0024 DFED0A7A 		vldr.32	s15, .L101+8
 576 0028 B4EEE70A 		vcmpe.f32	s0, s15
 577 002c F1EE10FA 		vmrs	APSR_nzcv, FPSCR
 578 0030 08DD     		ble	.L90
 579              		.loc 1 192 0 is_stmt 0 discriminator 2
 580 0032 9FED067A 		vldr.32	s14, .L101+4
 581              	.L96:
 582 0036 30EE470A 		vsub.f32	s0, s0, s14
 583              	.LVL48:
 584 003a B4EEE70A 		vcmpe.f32	s0, s15
 585 003e F1EE10FA 		vmrs	APSR_nzcv, FPSCR
 586 0042 F8DC     		bgt	.L96
 587              	.L90:
 588              		.loc 1 194 0 is_stmt 1
 589 0044 7047     		bx	lr
 590              	.L102:
 591 0046 00BF     		.align	2
 592              	.L101:
 593 0048 DB0F49C0 		.word	-1068953637
 594 004c DB0FC940 		.word	1086918619
 595 0050 DB0F4940 		.word	1078530011
 596              		.cfi_endproc
 597              	.LFE267:
 598              		.size	utils_angle_difference_rad, .-utils_angle_difference_rad
 599              		.section	.text.utils_middle_of_3,"ax",%progbits
 600              		.align	1
 601              		.p2align 4,,15
 602              		.global	utils_middle_of_3
 603              		.syntax unified
 604              		.thumb
 605              		.thumb_func
 606              		.fpu fpv4-sp-d16
 607              		.type	utils_middle_of_3, %function
 608              	utils_middle_of_3:
 609              	.LFB269:
 610              		.loc 1 240 0
 611              		.cfi_startproc
 612              		@ args = 0, pretend = 0, frame = 0
 613              		@ frame_needed = 0, uses_anonymous_args = 0
 614              		@ link register save eliminated.
 615              	.LVL49:
 616              		.loc 1 243 0
 617 0000 B4EEE00A 		vcmpe.f32	s0, s1
 618 0004 F1EE10FA 		vmrs	APSR_nzcv, FPSCR
 619 0008 0ED8     		bhi	.L128
 620              		.loc 1 243 0 is_stmt 0 discriminator 1
 621 000a B4EEC10A 		vcmpe.f32	s0, s2
 622 000e F1EE10FA 		vmrs	APSR_nzcv, FPSCR
 623 0012 1FD8     		bhi	.L129
 624              		.loc 1 244 0 is_stmt 1
 625 0014 F4EEC10A 		vcmpe.f32	s1, s2
 626 0018 F1EE10FA 		vmrs	APSR_nzcv, FPSCR
 627 001c 8CBF     		ite	hi
ARM GAS  C:\Users\Grillmo\AppData\Local\Temp\cco1wq2R.s 			page 12


 628 001e B0EE410A 		vmovhi.f32	s0, s2
 629 0022 B0EE600A 		vmovls.f32	s0, s1
 630              	.LVL50:
 631 0026 7047     		bx	lr
 632              	.LVL51:
 633              	.L128:
 634              		.loc 1 245 0
 635 0028 0CDB     		blt	.L110
 636              		.loc 1 245 0 is_stmt 0 discriminator 1
 637 002a F4EEC10A 		vcmpe.f32	s1, s2
 638 002e F1EE10FA 		vmrs	APSR_nzcv, FPSCR
 639 0032 07D8     		bhi	.L110
 640              	.L116:
 641              		.loc 1 246 0 is_stmt 1
 642 0034 B4EEC10A 		vcmpe.f32	s0, s2
 643 0038 F1EE10FA 		vmrs	APSR_nzcv, FPSCR
 644              		.loc 1 244 0
 645 003c 88BF     		it	hi
 646 003e B0EE410A 		vmovhi.f32	s0, s2
 647              	.LVL52:
 648 0042 7047     		bx	lr
 649              	.LVL53:
 650              	.L110:
 651              		.loc 1 248 0
 652 0044 B4EEE00A 		vcmpe.f32	s0, s1
 653 0048 F1EE10FA 		vmrs	APSR_nzcv, FPSCR
 654 004c 88BF     		it	hi
 655 004e B0EE600A 		vmovhi.f32	s0, s1
 656              	.LVL54:
 657 0052 7047     		bx	lr
 658              	.LVL55:
 659              	.L129:
 660              		.loc 1 245 0
 661 0054 B4EEE00A 		vcmpe.f32	s0, s1
 662 0058 F1EE10FA 		vmrs	APSR_nzcv, FPSCR
 663 005c 04DB     		blt	.L103
 664 005e F4EEC10A 		vcmpe.f32	s1, s2
 665 0062 F1EE10FA 		vmrs	APSR_nzcv, FPSCR
 666 0066 E5D9     		bls	.L116
 667              	.L103:
 668              		.loc 1 251 0
 669 0068 7047     		bx	lr
 670              		.cfi_endproc
 671              	.LFE269:
 672              		.size	utils_middle_of_3, .-utils_middle_of_3
 673 006a 00BF     		.section	.text.utils_middle_of_3_int,"ax",%progbits
 674              		.align	1
 675              		.p2align 4,,15
 676              		.global	utils_middle_of_3_int
 677              		.syntax unified
 678              		.thumb
 679              		.thumb_func
 680              		.fpu fpv4-sp-d16
 681              		.type	utils_middle_of_3_int, %function
 682              	utils_middle_of_3_int:
 683              	.LFB270:
 684              		.loc 1 268 0
ARM GAS  C:\Users\Grillmo\AppData\Local\Temp\cco1wq2R.s 			page 13


 685              		.cfi_startproc
 686              		@ args = 0, pretend = 0, frame = 0
 687              		@ frame_needed = 0, uses_anonymous_args = 0
 688              		@ link register save eliminated.
 689              	.LVL56:
 690              		.loc 1 271 0
 691 0000 8842     		cmp	r0, r1
 692 0002 05DD     		ble	.L137
 693              	.L132:
 694              		.loc 1 273 0 discriminator 1
 695 0004 9142     		cmp	r1, r2
 696 0006 0BDD     		ble	.L138
 697              		.loc 1 276 0
 698 0008 8842     		cmp	r0, r1
 699 000a A8BF     		it	ge
 700 000c 0846     		movge	r0, r1
 701              	.LVL57:
 702              		.loc 1 279 0
 703 000e 7047     		bx	lr
 704              	.LVL58:
 705              	.L137:
 706              		.loc 1 271 0 discriminator 1
 707 0010 9042     		cmp	r0, r2
 708 0012 09DD     		ble	.L139
 709              		.loc 1 273 0
 710 0014 8842     		cmp	r0, r1
 711 0016 F5DA     		bge	.L132
 712              		.loc 1 276 0
 713 0018 8842     		cmp	r0, r1
 714 001a A8BF     		it	ge
 715 001c 0846     		movge	r0, r1
 716              	.LVL59:
 717              		.loc 1 279 0
 718 001e 7047     		bx	lr
 719              	.LVL60:
 720              	.L138:
 721              		.loc 1 274 0
 722 0020 9042     		cmp	r0, r2
 723 0022 A8BF     		it	ge
 724 0024 1046     		movge	r0, r2
 725              	.LVL61:
 726 0026 7047     		bx	lr
 727              	.LVL62:
 728              	.L139:
 729              		.loc 1 272 0
 730 0028 9142     		cmp	r1, r2
 731 002a A8BF     		it	ge
 732 002c 1146     		movge	r1, r2
 733              	.LVL63:
 734 002e 0846     		mov	r0, r1
 735              	.LVL64:
 736 0030 7047     		bx	lr
 737              		.cfi_endproc
 738              	.LFE270:
 739              		.size	utils_middle_of_3_int, .-utils_middle_of_3_int
 740 0032 00BF     		.section	.text.utils_fast_inv_sqrt,"ax",%progbits
 741              		.align	1
ARM GAS  C:\Users\Grillmo\AppData\Local\Temp\cco1wq2R.s 			page 14


 742              		.p2align 4,,15
 743              		.global	utils_fast_inv_sqrt
 744              		.syntax unified
 745              		.thumb
 746              		.thumb_func
 747              		.fpu fpv4-sp-d16
 748              		.type	utils_fast_inv_sqrt, %function
 749              	utils_fast_inv_sqrt:
 750              	.LFB271:
 751              		.loc 1 283 0
 752              		.cfi_startproc
 753              		@ args = 0, pretend = 0, frame = 0
 754              		@ frame_needed = 0, uses_anonymous_args = 0
 755              		@ link register save eliminated.
 756              	.LVL65:
 757              		.loc 1 292 0
 758 0000 10EE102A 		vmov	r2, s0	@ int
 759              		.loc 1 291 0
 760 0004 084B     		ldr	r3, .L141
 761              		.loc 1 289 0
 762 0006 B6EE007A 		vmov.f32	s14, #5.0e-1
 763              		.loc 1 292 0
 764 000a A3EB6203 		sub	r3, r3, r2, asr #1
 765              	.LVL66:
 766 000e 07EE903A 		vmov	s15, r3	@ int
 767              		.loc 1 289 0
 768 0012 20EE077A 		vmul.f32	s14, s0, s14
 769              	.LVL67:
 770              		.loc 1 292 0
 771 0016 B7EE080A 		vmov.f32	s0, #1.5e+0
 772              	.LVL68:
 773 001a 27EE277A 		vmul.f32	s14, s14, s15
 774              	.LVL69:
 775 001e A7EEC70A 		vfms.f32	s0, s15, s14
 776              		.loc 1 294 0
 777 0022 20EE270A 		vmul.f32	s0, s0, s15
 778 0026 7047     		bx	lr
 779              	.L142:
 780              		.align	2
 781              	.L141:
 782 0028 DF59375F 		.word	1597463007
 783              		.cfi_endproc
 784              	.LFE271:
 785              		.size	utils_fast_inv_sqrt, .-utils_fast_inv_sqrt
 786              		.section	.text.utils_fast_atan2,"ax",%progbits
 787              		.align	1
 788              		.p2align 4,,15
 789              		.global	utils_fast_atan2
 790              		.syntax unified
 791              		.thumb
 792              		.thumb_func
 793              		.fpu fpv4-sp-d16
 794              		.type	utils_fast_atan2, %function
 795              	utils_fast_atan2:
 796              	.LFB272:
 797              		.loc 1 310 0
 798              		.cfi_startproc
ARM GAS  C:\Users\Grillmo\AppData\Local\Temp\cco1wq2R.s 			page 15


 799              		@ args = 0, pretend = 0, frame = 0
 800              		@ frame_needed = 0, uses_anonymous_args = 0
 801              		@ link register save eliminated.
 802              	.LVL70:
 803              		.loc 1 311 0
 804 0000 9FED197A 		vldr.32	s14, .L153
 805              		.loc 1 314 0
 806 0004 F5EEC00A 		vcmpe.f32	s1, #0
 807              		.loc 1 311 0
 808 0008 F0EEC07A 		vabs.f32	s15, s0
 809              		.loc 1 314 0
 810 000c F1EE10FA 		vmrs	APSR_nzcv, FPSCR
 811              		.loc 1 310 0
 812 0010 F0EE406A 		vmov.f32	s13, s0
 813              		.loc 1 311 0
 814 0014 77EE877A 		vadd.f32	s15, s15, s14
 815              	.LVL71:
 816              		.loc 1 314 0
 817 0018 1BDB     		blt	.L151
 818              	.LBB25:
 819              		.loc 1 315 0
 820 001a 70EEE74A 		vsub.f32	s9, s1, s15
 821              		.loc 1 317 0
 822 001e 9FED135A 		vldr.32	s10, .L153+4
 823 0022 9FED136A 		vldr.32	s12, .L153+8
 824 0026 9FED137A 		vldr.32	s14, .L153+12
 825              		.loc 1 315 0
 826 002a 77EEA07A 		vadd.f32	s15, s15, s1
 827              	.LVL72:
 828              	.L152:
 829              	.LBE25:
 830              	.LBB26:
 831              		.loc 1 319 0
 832 002e C4EEA75A 		vdiv.f32	s11, s9, s15
 833              	.LVL73:
 834              	.LBE26:
 835              		.loc 1 324 0
 836 0032 F5EEC06A 		vcmpe.f32	s13, #0
 837              	.LBB27:
 838              		.loc 1 320 0
 839 0036 65EEA57A 		vmul.f32	s15, s11, s11
 840              	.LVL74:
 841              	.LBE27:
 842              		.loc 1 324 0
 843 003a F1EE10FA 		vmrs	APSR_nzcv, FPSCR
 844              	.LBB28:
 845              		.loc 1 321 0
 846 003e A7EE856A 		vfma.f32	s12, s15, s10
 847 0042 A5EE867A 		vfma.f32	s14, s11, s12
 848 0046 B0EE470A 		vmov.f32	s0, s14
 849              	.LVL75:
 850              	.LBE28:
 851              		.loc 1 325 0
 852 004a 48BF     		it	mi
 853 004c B1EE470A 		vnegmi.f32	s0, s14
 854              	.LVL76:
 855              		.loc 1 329 0
ARM GAS  C:\Users\Grillmo\AppData\Local\Temp\cco1wq2R.s 			page 16


 856 0050 7047     		bx	lr
 857              	.LVL77:
 858              	.L151:
 859              	.LBB29:
 860              		.loc 1 319 0
 861 0052 77EEA04A 		vadd.f32	s9, s15, s1
 862              		.loc 1 321 0
 863 0056 9FED055A 		vldr.32	s10, .L153+4
 864 005a 9FED056A 		vldr.32	s12, .L153+8
 865 005e 9FED067A 		vldr.32	s14, .L153+16
 866              		.loc 1 319 0
 867 0062 77EEE07A 		vsub.f32	s15, s15, s1
 868              	.LVL78:
 869 0066 E2E7     		b	.L152
 870              	.L154:
 871              		.align	2
 872              	.L153:
 873 0068 08E53C1E 		.word	507307272
 874 006c DE02493E 		.word	1044972254
 875 0070 B1507BBF 		.word	-1082437455
 876 0074 DB0F493F 		.word	1061752795
 877 0078 E4CB1640 		.word	1075235812
 878              	.LBE29:
 879              		.cfi_endproc
 880              	.LFE272:
 881              		.size	utils_fast_atan2, .-utils_fast_atan2
 882              		.section	.text.utils_saturate_vector_2d,"ax",%progbits
 883              		.align	1
 884              		.p2align 4,,15
 885              		.global	utils_saturate_vector_2d
 886              		.syntax unified
 887              		.thumb
 888              		.thumb_func
 889              		.fpu fpv4-sp-d16
 890              		.type	utils_saturate_vector_2d, %function
 891              	utils_saturate_vector_2d:
 892              	.LFB273:
 893              		.loc 1 346 0
 894              		.cfi_startproc
 895              		@ args = 0, pretend = 0, frame = 0
 896              		@ frame_needed = 0, uses_anonymous_args = 0
 897              	.LVL79:
 898              		.loc 1 348 0
 899 0000 D1ED007A 		vldr.32	s15, [r1]
 900 0004 90ED007A 		vldr.32	s14, [r0]
 901 0008 67EEA77A 		vmul.f32	s15, s15, s15
 902              		.loc 1 346 0
 903 000c 38B5     		push	{r3, r4, r5, lr}
 904              		.cfi_def_cfa_offset 16
 905              		.cfi_offset 3, -16
 906              		.cfi_offset 4, -12
 907              		.cfi_offset 5, -8
 908              		.cfi_offset 14, -4
 909              		.loc 1 348 0
 910 000e E7EE077A 		vfma.f32	s15, s14, s14
 911              		.loc 1 346 0
 912 0012 0C46     		mov	r4, r1
ARM GAS  C:\Users\Grillmo\AppData\Local\Temp\cco1wq2R.s 			page 17


 913 0014 0546     		mov	r5, r0
 914 0016 2DED028B 		vpush.64	{d8}
 915              		.cfi_def_cfa_offset 24
 916              		.cfi_offset 80, -24
 917              		.cfi_offset 81, -20
 918 001a F5EE407A 		vcmp.f32	s15, #0
 919 001e F1EE10FA 		vmrs	APSR_nzcv, FPSCR
 920              		.loc 1 346 0
 921 0022 F0EE408A 		vmov.f32	s17, s0
 922              		.loc 1 348 0
 923 0026 B1EEE78A 		vsqrt.f32	s16, s15
 924 002a 03D5     		bpl	.L156
 925 002c B0EE670A 		vmov.f32	s0, s15
 926              	.LVL80:
 927 0030 FFF7FEFF 		bl	sqrtf
 928              	.LVL81:
 929              	.L156:
 930              		.loc 1 351 0
 931 0034 DFED127A 		vldr.32	s15, .L166
 932              		.loc 1 352 0
 933 0038 B4EE678A 		vcmp.f32	s16, s15
 934 003c F1EE10FA 		vmrs	APSR_nzcv, FPSCR
 935 0040 48BF     		it	mi
 936 0042 B0EE678A 		vmovmi.f32	s16, s15
 937              	.LVL82:
 938              		.loc 1 349 0
 939 0046 B0EEE80A 		vabs.f32	s0, s17
 940              	.LVL83:
 941              		.loc 1 355 0
 942 004a B4EEC08A 		vcmpe.f32	s16, s0
 943 004e F1EE10FA 		vmrs	APSR_nzcv, FPSCR
 944 0052 11DD     		ble	.L164
 945              	.LBB30:
 946              		.loc 1 356 0
 947 0054 C0EE086A 		vdiv.f32	s13, s0, s16
 948              	.LVL84:
 949              	.LBE30:
 950              		.loc 1 363 0
 951 0058 BDEC028B 		vldm	sp!, {d8}
 952              		.cfi_remember_state
 953              		.cfi_restore 80
 954              		.cfi_restore 81
 955              		.cfi_def_cfa_offset 16
 956              	.LVL85:
 957              	.LBB31:
 958              		.loc 1 359 0
 959 005c 0120     		movs	r0, #1
 960              		.loc 1 357 0
 961 005e 95ED007A 		vldr.32	s14, [r5]
 962 0062 27EE267A 		vmul.f32	s14, s14, s13
 963 0066 85ED007A 		vstr.32	s14, [r5]
 964              		.loc 1 358 0
 965 006a D4ED007A 		vldr.32	s15, [r4]
 966 006e 67EEA67A 		vmul.f32	s15, s15, s13
 967 0072 C4ED007A 		vstr.32	s15, [r4]
 968              	.LVL86:
 969              	.LBE31:
ARM GAS  C:\Users\Grillmo\AppData\Local\Temp\cco1wq2R.s 			page 18


 970              		.loc 1 363 0
 971 0076 38BD     		pop	{r3, r4, r5, pc}
 972              	.LVL87:
 973              	.L164:
 974              		.cfi_restore_state
 975 0078 BDEC028B 		vldm	sp!, {d8}
 976              		.cfi_restore 80
 977              		.cfi_restore 81
 978              		.cfi_def_cfa_offset 16
 979              	.LVL88:
 980              		.loc 1 347 0
 981 007c 0020     		movs	r0, #0
 982              	.LVL89:
 983              		.loc 1 363 0
 984 007e 38BD     		pop	{r3, r4, r5, pc}
 985              	.LVL90:
 986              	.L167:
 987              		.align	2
 988              	.L166:
 989 0080 FFE6DB2E 		.word	786163455
 990              		.cfi_endproc
 991              	.LFE273:
 992              		.size	utils_saturate_vector_2d, .-utils_saturate_vector_2d
 993              		.section	.text.utils_fast_sincos,"ax",%progbits
 994              		.align	1
 995              		.p2align 4,,15
 996              		.global	utils_fast_sincos
 997              		.syntax unified
 998              		.thumb
 999              		.thumb_func
 1000              		.fpu fpv4-sp-d16
 1001              		.type	utils_fast_sincos, %function
 1002              	utils_fast_sincos:
 1003              	.LFB274:
 1004              		.loc 1 380 0
 1005              		.cfi_startproc
 1006              		@ args = 0, pretend = 0, frame = 0
 1007              		@ frame_needed = 0, uses_anonymous_args = 0
 1008              		@ link register save eliminated.
 1009              	.LVL91:
 1010              		.loc 1 382 0
 1011 0000 DFED2A7A 		vldr.32	s15, .L192
 1012 0004 B4EEE70A 		vcmpe.f32	s0, s15
 1013 0008 F1EE10FA 		vmrs	APSR_nzcv, FPSCR
 1014 000c 08D5     		bpl	.L169
 1015              		.loc 1 383 0
 1016 000e 9FED287A 		vldr.32	s14, .L192+4
 1017              	.L171:
 1018 0012 30EE070A 		vadd.f32	s0, s0, s14
 1019              	.LVL92:
 1020              		.loc 1 382 0
 1021 0016 B4EEE70A 		vcmpe.f32	s0, s15
 1022 001a F1EE10FA 		vmrs	APSR_nzcv, FPSCR
 1023 001e F8D4     		bmi	.L171
 1024              	.L169:
 1025              		.loc 1 386 0
 1026 0020 DFED247A 		vldr.32	s15, .L192+8
ARM GAS  C:\Users\Grillmo\AppData\Local\Temp\cco1wq2R.s 			page 19


 1027 0024 B4EEE70A 		vcmpe.f32	s0, s15
 1028 0028 F1EE10FA 		vmrs	APSR_nzcv, FPSCR
 1029 002c 08DD     		ble	.L172
 1030              		.loc 1 387 0
 1031 002e 9FED207A 		vldr.32	s14, .L192+4
 1032              	.L174:
 1033 0032 30EE470A 		vsub.f32	s0, s0, s14
 1034              	.LVL93:
 1035              		.loc 1 386 0
 1036 0036 B4EEE70A 		vcmpe.f32	s0, s15
 1037 003a F1EE10FA 		vmrs	APSR_nzcv, FPSCR
 1038 003e F8DC     		bgt	.L174
 1039              	.L172:
 1040              		.loc 1 392 0
 1041 0040 DFED1D7A 		vldr.32	s15, .L192+12
 1042 0044 9FED1D7A 		vldr.32	s14, .L192+16
 1043 0048 60EE277A 		vmul.f32	s15, s0, s15
 1044              		.loc 1 391 0
 1045 004c B5EEC00A 		vcmpe.f32	s0, #0
 1046 0050 F1EE10FA 		vmrs	APSR_nzcv, FPSCR
 1047              		.loc 1 392 0
 1048 0054 4CBF     		ite	mi
 1049 0056 67EE807A 		vmulmi.f32	s15, s15, s0
 1050              		.loc 1 394 0
 1051 005a 60EE677A 		vnmulpl.f32	s15, s0, s15
 1052 005e E0EE077A 		vfma.f32	s15, s0, s14
 1053              		.loc 1 398 0
 1054 0062 9FED177A 		vldr.32	s14, .L192+20
 1055              		.loc 1 394 0
 1056 0066 C0ED007A 		vstr.32	s15, [r0]
 1057              		.loc 1 398 0
 1058 006a 30EE070A 		vadd.f32	s0, s0, s14
 1059              	.LVL94:
 1060              		.loc 1 400 0
 1061 006e DFED117A 		vldr.32	s15, .L192+8
 1062              		.loc 1 405 0
 1063 0072 9FED127A 		vldr.32	s14, .L192+16
 1064              		.loc 1 400 0
 1065 0076 B4EEE70A 		vcmpe.f32	s0, s15
 1066 007a F1EE10FA 		vmrs	APSR_nzcv, FPSCR
 1067              		.loc 1 401 0
 1068 007e C4BF     		itt	gt
 1069 0080 DFED0B7A 		vldrgt.32	s15, .L192+4
 1070 0084 30EE670A 		vsubgt.f32	s0, s0, s15
 1071              	.LVL95:
 1072              		.loc 1 405 0
 1073 0088 DFED0B7A 		vldr.32	s15, .L192+12
 1074              		.loc 1 404 0
 1075 008c B5EEC00A 		vcmpe.f32	s0, #0
 1076              		.loc 1 405 0
 1077 0090 60EE277A 		vmul.f32	s15, s0, s15
 1078              		.loc 1 404 0
 1079 0094 F1EE10FA 		vmrs	APSR_nzcv, FPSCR
 1080              		.loc 1 405 0
 1081 0098 4CBF     		ite	mi
 1082 009a 67EE807A 		vmulmi.f32	s15, s15, s0
 1083              		.loc 1 407 0
ARM GAS  C:\Users\Grillmo\AppData\Local\Temp\cco1wq2R.s 			page 20


 1084 009e 60EE677A 		vnmulpl.f32	s15, s0, s15
 1085 00a2 E0EE077A 		vfma.f32	s15, s0, s14
 1086 00a6 C1ED007A 		vstr.32	s15, [r1]
 1087 00aa 7047     		bx	lr
 1088              	.L193:
 1089              		.align	2
 1090              	.L192:
 1091 00ac DB0F49C0 		.word	-1068953637
 1092 00b0 DB0FC940 		.word	1086918619
 1093 00b4 DB0F4940 		.word	1078530011
 1094 00b8 7B81CF3E 		.word	1053786491
 1095 00bc 83F9A23F 		.word	1067645315
 1096 00c0 DB0FC93F 		.word	1070141403
 1097              		.cfi_endproc
 1098              	.LFE274:
 1099              		.size	utils_fast_sincos, .-utils_fast_sincos
 1100              		.section	.text.utils_fast_sincos_better,"ax",%progbits
 1101              		.align	1
 1102              		.p2align 4,,15
 1103              		.global	utils_fast_sincos_better
 1104              		.syntax unified
 1105              		.thumb
 1106              		.thumb_func
 1107              		.fpu fpv4-sp-d16
 1108              		.type	utils_fast_sincos_better, %function
 1109              	utils_fast_sincos_better:
 1110              	.LFB275:
 1111              		.loc 1 426 0
 1112              		.cfi_startproc
 1113              		@ args = 0, pretend = 0, frame = 0
 1114              		@ frame_needed = 0, uses_anonymous_args = 0
 1115              		@ link register save eliminated.
 1116              	.LVL96:
 1117              		.loc 1 428 0
 1118 0000 DFED3B7A 		vldr.32	s15, .L240
 1119 0004 B4EEE70A 		vcmpe.f32	s0, s15
 1120 0008 F1EE10FA 		vmrs	APSR_nzcv, FPSCR
 1121 000c 08D5     		bpl	.L195
 1122              		.loc 1 429 0
 1123 000e 9FED397A 		vldr.32	s14, .L240+4
 1124              	.L197:
 1125 0012 30EE070A 		vadd.f32	s0, s0, s14
 1126              	.LVL97:
 1127              		.loc 1 428 0
 1128 0016 B4EEE70A 		vcmpe.f32	s0, s15
 1129 001a F1EE10FA 		vmrs	APSR_nzcv, FPSCR
 1130 001e F8D4     		bmi	.L197
 1131              	.L195:
 1132              		.loc 1 432 0
 1133 0020 DFED357A 		vldr.32	s15, .L240+8
 1134 0024 B4EEE70A 		vcmpe.f32	s0, s15
 1135 0028 F1EE10FA 		vmrs	APSR_nzcv, FPSCR
 1136 002c 08DD     		ble	.L198
 1137              		.loc 1 433 0
 1138 002e 9FED317A 		vldr.32	s14, .L240+4
 1139              	.L200:
 1140 0032 30EE470A 		vsub.f32	s0, s0, s14
ARM GAS  C:\Users\Grillmo\AppData\Local\Temp\cco1wq2R.s 			page 21


 1141              	.LVL98:
 1142              		.loc 1 432 0
 1143 0036 B4EEE70A 		vcmpe.f32	s0, s15
 1144 003a F1EE10FA 		vmrs	APSR_nzcv, FPSCR
 1145 003e F8DC     		bgt	.L200
 1146              	.L198:
 1147              		.loc 1 438 0
 1148 0040 DFED2E7A 		vldr.32	s15, .L240+12
 1149 0044 9FED2E7A 		vldr.32	s14, .L240+16
 1150 0048 60EE277A 		vmul.f32	s15, s0, s15
 1151              		.loc 1 437 0
 1152 004c B5EEC00A 		vcmpe.f32	s0, #0
 1153 0050 F1EE10FA 		vmrs	APSR_nzcv, FPSCR
 1154              		.loc 1 438 0
 1155 0054 4CBF     		ite	mi
 1156 0056 67EE807A 		vmulmi.f32	s15, s15, s0
 1157              		.loc 1 446 0
 1158 005a 60EE677A 		vnmulpl.f32	s15, s0, s15
 1159 005e E0EE077A 		vfma.f32	s15, s0, s14
 1160              		.loc 1 451 0
 1161 0062 9FED287A 		vldr.32	s14, .L240+20
 1162              		.loc 1 446 0
 1163 0066 C0ED007A 		vstr.32	s15, [r0]
 1164              		.loc 1 448 0
 1165 006a F5EEC07A 		vcmpe.f32	s15, #0
 1166 006e F1EE10FA 		vmrs	APSR_nzcv, FPSCR
 1167              		.loc 1 449 0
 1168 0072 F0EE676A 		vmov.f32	s13, s15
 1169 0076 4CBF     		ite	mi
 1170 0078 D7EEE76A 		vfnmami.f32	s13, s15, s15
 1171              		.loc 1 451 0
 1172 007c D7EEA76A 		vfnmspl.f32	s13, s15, s15
 1173 0080 E6EE877A 		vfma.f32	s15, s13, s14
 1174              		.loc 1 456 0
 1175 0084 9FED207A 		vldr.32	s14, .L240+24
 1176              		.loc 1 451 0
 1177 0088 C0ED007A 		vstr.32	s15, [r0]
 1178              		.loc 1 456 0
 1179 008c 30EE070A 		vadd.f32	s0, s0, s14
 1180              	.LVL99:
 1181              		.loc 1 457 0
 1182 0090 DFED197A 		vldr.32	s15, .L240+8
 1183              		.loc 1 462 0
 1184 0094 9FED1A7A 		vldr.32	s14, .L240+16
 1185              		.loc 1 457 0
 1186 0098 B4EEE70A 		vcmpe.f32	s0, s15
 1187 009c F1EE10FA 		vmrs	APSR_nzcv, FPSCR
 1188              		.loc 1 458 0
 1189 00a0 C4BF     		itt	gt
 1190 00a2 DFED147A 		vldrgt.32	s15, .L240+4
 1191 00a6 30EE670A 		vsubgt.f32	s0, s0, s15
 1192              	.LVL100:
 1193              		.loc 1 462 0
 1194 00aa DFED147A 		vldr.32	s15, .L240+12
 1195              		.loc 1 461 0
 1196 00ae B5EEC00A 		vcmpe.f32	s0, #0
 1197              		.loc 1 462 0
ARM GAS  C:\Users\Grillmo\AppData\Local\Temp\cco1wq2R.s 			page 22


 1198 00b2 60EE277A 		vmul.f32	s15, s0, s15
 1199              		.loc 1 461 0
 1200 00b6 F1EE10FA 		vmrs	APSR_nzcv, FPSCR
 1201              		.loc 1 462 0
 1202 00ba 4CBF     		ite	mi
 1203 00bc 67EE807A 		vmulmi.f32	s15, s15, s0
 1204              		.loc 1 470 0
 1205 00c0 60EE677A 		vnmulpl.f32	s15, s0, s15
 1206 00c4 E0EE077A 		vfma.f32	s15, s0, s14
 1207              		.loc 1 475 0
 1208 00c8 9FED0E7A 		vldr.32	s14, .L240+20
 1209              		.loc 1 470 0
 1210 00cc C1ED007A 		vstr.32	s15, [r1]
 1211              		.loc 1 472 0
 1212 00d0 F5EEC07A 		vcmpe.f32	s15, #0
 1213              		.loc 1 473 0
 1214 00d4 F0EE676A 		vmov.f32	s13, s15
 1215              		.loc 1 472 0
 1216 00d8 F1EE10FA 		vmrs	APSR_nzcv, FPSCR
 1217              		.loc 1 473 0
 1218 00dc 4CBF     		ite	mi
 1219 00de D7EEE76A 		vfnmami.f32	s13, s15, s15
 1220              		.loc 1 475 0
 1221 00e2 D7EEA76A 		vfnmspl.f32	s13, s15, s15
 1222 00e6 E6EE877A 		vfma.f32	s15, s13, s14
 1223 00ea C1ED007A 		vstr.32	s15, [r1]
 1224 00ee 7047     		bx	lr
 1225              	.L241:
 1226              		.align	2
 1227              	.L240:
 1228 00f0 DB0F49C0 		.word	-1068953637
 1229 00f4 DB0FC940 		.word	1086918619
 1230 00f8 DB0F4940 		.word	1078530011
 1231 00fc 7B81CF3E 		.word	1053786491
 1232 0100 83F9A23F 		.word	1067645315
 1233 0104 6666663E 		.word	1046898278
 1234 0108 DB0FC93F 		.word	1070141403
 1235              		.cfi_endproc
 1236              	.LFE275:
 1237              		.size	utils_fast_sincos_better, .-utils_fast_sincos_better
 1238              		.section	.text.utils_avg_angles_rad_fast,"ax",%progbits
 1239              		.align	1
 1240              		.p2align 4,,15
 1241              		.global	utils_avg_angles_rad_fast
 1242              		.syntax unified
 1243              		.thumb
 1244              		.thumb_func
 1245              		.fpu fpv4-sp-d16
 1246              		.type	utils_avg_angles_rad_fast, %function
 1247              	utils_avg_angles_rad_fast:
 1248              	.LFB268:
 1249              		.loc 1 211 0
 1250              		.cfi_startproc
 1251              		@ args = 0, pretend = 0, frame = 8
 1252              		@ frame_needed = 0, uses_anonymous_args = 0
 1253              	.LVL101:
 1254              	.LBB32:
ARM GAS  C:\Users\Grillmo\AppData\Local\Temp\cco1wq2R.s 			page 23


 1255              		.loc 1 215 0
 1256 0000 002A     		cmp	r2, #0
 1257 0002 22DD     		ble	.L245
 1258              	.LBE32:
 1259              		.loc 1 211 0
 1260 0004 30B5     		push	{r4, r5, lr}
 1261              		.cfi_def_cfa_offset 12
 1262              		.cfi_offset 4, -12
 1263              		.cfi_offset 5, -8
 1264              		.cfi_offset 14, -4
 1265              	.LBB35:
 1266              		.loc 1 215 0
 1267 0006 DFED140A 		vldr.32	s1, .L252
 1268              	.LBE35:
 1269              		.loc 1 211 0
 1270 000a 83B0     		sub	sp, sp, #12
 1271              		.cfi_def_cfa_offset 24
 1272              	.LBB36:
 1273              		.loc 1 215 0
 1274 000c B0EE606A 		vmov.f32	s12, s1
 1275 0010 0546     		mov	r5, r0
 1276 0012 0C46     		mov	r4, r1
 1277 0014 0023     		movs	r3, #0
 1278              	.LVL102:
 1279              	.L244:
 1280              	.LBB33:
 1281              		.loc 1 217 0 discriminator 3
 1282 0016 01A9     		add	r1, sp, #4
 1283 0018 6846     		mov	r0, sp
 1284 001a B5EC010A 		vldmia.32	r5!, {s0}
 1285 001e FFF7FEFF 		bl	utils_fast_sincos_better
 1286              	.LVL103:
 1287              		.loc 1 218 0 discriminator 3
 1288 0022 F4EC017A 		vldmia.32	r4!, {s15}
 1289 0026 DDED006A 		vldr.32	s13, [sp]
 1290              		.loc 1 219 0 discriminator 3
 1291 002a 9DED017A 		vldr.32	s14, [sp, #4]
 1292              	.LBE33:
 1293              		.loc 1 215 0 discriminator 3
 1294 002e 0133     		adds	r3, r3, #1
 1295              	.LVL104:
 1296 0030 9A42     		cmp	r2, r3
 1297              	.LBB34:
 1298              		.loc 1 218 0 discriminator 3
 1299 0032 A7EEA66A 		vfma.f32	s12, s15, s13
 1300              	.LVL105:
 1301              		.loc 1 219 0 discriminator 3
 1302 0036 E7EE870A 		vfma.f32	s1, s15, s14
 1303              	.LVL106:
 1304              	.LBE34:
 1305              		.loc 1 215 0 discriminator 3
 1306 003a ECD1     		bne	.L244
 1307              	.LBE36:
 1308              		.loc 1 222 0
 1309 003c B0EE460A 		vmov.f32	s0, s12
 1310              		.loc 1 223 0
 1311 0040 03B0     		add	sp, sp, #12
ARM GAS  C:\Users\Grillmo\AppData\Local\Temp\cco1wq2R.s 			page 24


 1312              		.cfi_def_cfa_offset 12
 1313              		@ sp needed
 1314 0042 BDE83040 		pop	{r4, r5, lr}
 1315              		.cfi_restore 14
 1316              		.cfi_restore 5
 1317              		.cfi_restore 4
 1318              		.cfi_def_cfa_offset 0
 1319              		.loc 1 222 0
 1320 0046 FFF7FEBF 		b	utils_fast_atan2
 1321              	.LVL107:
 1322              	.L245:
 1323              		.loc 1 213 0
 1324 004a DFED030A 		vldr.32	s1, .L252
 1325              		.loc 1 222 0
 1326 004e B0EE600A 		vmov.f32	s0, s1
 1327 0052 FFF7FEBF 		b	utils_fast_atan2
 1328              	.LVL108:
 1329              	.L253:
 1330 0056 00BF     		.align	2
 1331              	.L252:
 1332 0058 00000000 		.word	0
 1333              		.cfi_endproc
 1334              	.LFE268:
 1335              		.size	utils_avg_angles_rad_fast, .-utils_avg_angles_rad_fast
 1336              		.section	.text.utils_min_abs,"ax",%progbits
 1337              		.align	1
 1338              		.p2align 4,,15
 1339              		.global	utils_min_abs
 1340              		.syntax unified
 1341              		.thumb
 1342              		.thumb_func
 1343              		.fpu fpv4-sp-d16
 1344              		.type	utils_min_abs, %function
 1345              	utils_min_abs:
 1346              	.LFB276:
 1347              		.loc 1 492 0
 1348              		.cfi_startproc
 1349              		@ args = 0, pretend = 0, frame = 0
 1350              		@ frame_needed = 0, uses_anonymous_args = 0
 1351              		@ link register save eliminated.
 1352              	.LVL109:
 1353              		.loc 1 494 0
 1354 0000 B0EEC07A 		vabs.f32	s14, s0
 1355 0004 F0EEE07A 		vabs.f32	s15, s1
 1356 0008 B4EEE77A 		vcmpe.f32	s14, s15
 1357 000c F1EE10FA 		vmrs	APSR_nzcv, FPSCR
 1358              		.loc 1 501 0
 1359 0010 58BF     		it	pl
 1360 0012 B0EE600A 		vmovpl.f32	s0, s1
 1361              	.LVL110:
 1362 0016 7047     		bx	lr
 1363              		.cfi_endproc
 1364              	.LFE276:
 1365              		.size	utils_min_abs, .-utils_min_abs
 1366              		.section	.text.utils_max_abs,"ax",%progbits
 1367              		.align	1
 1368              		.p2align 4,,15
ARM GAS  C:\Users\Grillmo\AppData\Local\Temp\cco1wq2R.s 			page 25


 1369              		.global	utils_max_abs
 1370              		.syntax unified
 1371              		.thumb
 1372              		.thumb_func
 1373              		.fpu fpv4-sp-d16
 1374              		.type	utils_max_abs, %function
 1375              	utils_max_abs:
 1376              	.LFB277:
 1377              		.loc 1 515 0
 1378              		.cfi_startproc
 1379              		@ args = 0, pretend = 0, frame = 0
 1380              		@ frame_needed = 0, uses_anonymous_args = 0
 1381              		@ link register save eliminated.
 1382              	.LVL111:
 1383              		.loc 1 517 0
 1384 0000 B0EEC07A 		vabs.f32	s14, s0
 1385 0004 F0EEE07A 		vabs.f32	s15, s1
 1386 0008 B4EEE77A 		vcmpe.f32	s14, s15
 1387 000c F1EE10FA 		vmrs	APSR_nzcv, FPSCR
 1388              		.loc 1 524 0
 1389 0010 D8BF     		it	le
 1390 0012 B0EE600A 		vmovle.f32	s0, s1
 1391              	.LVL112:
 1392 0016 7047     		bx	lr
 1393              		.cfi_endproc
 1394              	.LFE277:
 1395              		.size	utils_max_abs, .-utils_max_abs
 1396              		.section	.text.utils_byte_to_binary,"ax",%progbits
 1397              		.align	1
 1398              		.p2align 4,,15
 1399              		.global	utils_byte_to_binary
 1400              		.syntax unified
 1401              		.thumb
 1402              		.thumb_func
 1403              		.fpu fpv4-sp-d16
 1404              		.type	utils_byte_to_binary, %function
 1405              	utils_byte_to_binary:
 1406              	.LFB278:
 1407              		.loc 1 535 0
 1408              		.cfi_startproc
 1409              		@ args = 0, pretend = 0, frame = 0
 1410              		@ frame_needed = 0, uses_anonymous_args = 0
 1411              	.LVL113:
 1412 0000 2DE9F047 		push	{r4, r5, r6, r7, r8, r9, r10, lr}
 1413              		.cfi_def_cfa_offset 32
 1414              		.cfi_offset 4, -32
 1415              		.cfi_offset 5, -28
 1416              		.cfi_offset 6, -24
 1417              		.cfi_offset 7, -20
 1418              		.cfi_offset 8, -16
 1419              		.cfi_offset 9, -12
 1420              		.cfi_offset 10, -8
 1421              		.cfi_offset 14, -4
 1422              		.loc 1 536 0
 1423 0004 0023     		movs	r3, #0
 1424              		.loc 1 540 0
 1425 0006 DFF830A0 		ldr	r10, .L266
ARM GAS  C:\Users\Grillmo\AppData\Local\Temp\cco1wq2R.s 			page 26


 1426 000a DFF83090 		ldr	r9, .L266+4
 1427              		.loc 1 536 0
 1428 000e 0B70     		strb	r3, [r1]
 1429              	.LVL114:
 1430              		.loc 1 535 0
 1431 0010 0E46     		mov	r6, r1
 1432 0012 8046     		mov	r8, r0
 1433              		.loc 1 536 0
 1434 0014 0825     		movs	r5, #8
 1435              		.loc 1 539 0
 1436 0016 8024     		movs	r4, #128
 1437              	.LVL115:
 1438              	.L262:
 1439              		.loc 1 540 0
 1440 0018 34EA0803 		bics	r3, r4, r8
 1441 001c 3046     		mov	r0, r6
 1442 001e 0CBF     		ite	eq
 1443 0020 5746     		moveq	r7, r10
 1444 0022 4F46     		movne	r7, r9
 1445 0024 FFF7FEFF 		bl	strlen
 1446              	.LVL116:
 1447 0028 3B88     		ldrh	r3, [r7]
 1448 002a 3352     		strh	r3, [r6, r0]	@ unaligned
 1449              		.loc 1 539 0
 1450 002c 013D     		subs	r5, r5, #1
 1451 002e 4FEA6404 		asr	r4, r4, #1
 1452              	.LVL117:
 1453 0032 F1D1     		bne	.L262
 1454              		.loc 1 542 0
 1455 0034 BDE8F087 		pop	{r4, r5, r6, r7, r8, r9, r10, pc}
 1456              	.LVL118:
 1457              	.L267:
 1458              		.align	2
 1459              	.L266:
 1460 0038 00000000 		.word	.LC0
 1461 003c 04000000 		.word	.LC1
 1462              		.cfi_endproc
 1463              	.LFE278:
 1464              		.size	utils_byte_to_binary, .-utils_byte_to_binary
 1465              		.section	.text.utils_throttle_curve,"ax",%progbits
 1466              		.align	1
 1467              		.p2align 4,,15
 1468              		.global	utils_throttle_curve
 1469              		.syntax unified
 1470              		.thumb
 1471              		.thumb_func
 1472              		.fpu fpv4-sp-d16
 1473              		.type	utils_throttle_curve, %function
 1474              	utils_throttle_curve:
 1475              	.LFB279:
 1476              		.loc 1 544 0
 1477              		.cfi_startproc
 1478              		@ args = 0, pretend = 0, frame = 8
 1479              		@ frame_needed = 0, uses_anonymous_args = 0
 1480              	.LVL119:
 1481 0000 00B5     		push	{lr}
 1482              		.cfi_def_cfa_offset 4
ARM GAS  C:\Users\Grillmo\AppData\Local\Temp\cco1wq2R.s 			page 27


 1483              		.cfi_offset 14, -4
 1484              		.loc 1 547 0
 1485 0002 FFEE007A 		vmov.f32	s15, #-1.0e+0
 1486              		.loc 1 544 0
 1487 0006 2DED048B 		vpush.64	{d8, d9}
 1488              		.cfi_def_cfa_offset 20
 1489              		.cfi_offset 80, -20
 1490              		.cfi_offset 81, -16
 1491              		.cfi_offset 82, -12
 1492              		.cfi_offset 83, -8
 1493              		.loc 1 547 0
 1494 000a B4EEE70A 		vcmpe.f32	s0, s15
 1495 000e F1EE10FA 		vmrs	APSR_nzcv, FPSCR
 1496              		.loc 1 544 0
 1497 0012 83B0     		sub	sp, sp, #12
 1498              		.cfi_def_cfa_offset 32
 1499              		.loc 1 547 0
 1500 0014 3ED4     		bmi	.L282
 1501 0016 B0EE408A 		vmov.f32	s16, s0
 1502              		.loc 1 551 0
 1503 001a B7EE000A 		vmov.f32	s0, #1.0e+0
 1504              	.LVL120:
 1505 001e B4EEC08A 		vcmpe.f32	s16, s0
 1506 0022 F1EE10FA 		vmrs	APSR_nzcv, FPSCR
 1507              		.loc 1 552 0
 1508 0026 C8BF     		it	gt
 1509 0028 B0EE408A 		vmovgt.f32	s16, s0
 1510              	.LVL121:
 1511              		.loc 1 551 0
 1512 002c 40F38580 		ble	.L293
 1513              	.LVL122:
 1514              	.L269:
 1515              		.loc 1 566 0
 1516 0030 D0B9     		cbnz	r0, .L271
 1517              		.loc 1 567 0
 1518 0032 F5EEC00A 		vcmpe.f32	s1, #0
 1519 0036 F1EE10FA 		vmrs	APSR_nzcv, FPSCR
 1520 003a 5BDB     		blt	.L289
 1521              		.loc 1 568 0
 1522 003c F7EE008A 		vmov.f32	s17, #1.0e+0
 1523 0040 70EEA80A 		vadd.f32	s1, s1, s17
 1524              	.LVL123:
 1525 0044 38EEC00A 		vsub.f32	s0, s17, s0
 1526 0048 FFF7FEFF 		bl	powf
 1527              	.LVL124:
 1528 004c 38EEC00A 		vsub.f32	s0, s17, s0
 1529              	.LVL125:
 1530              	.L274:
 1531              		.loc 1 592 0
 1532 0050 B5EEC08A 		vcmpe.f32	s16, #0
 1533 0054 F1EE10FA 		vmrs	APSR_nzcv, FPSCR
 1534              		.loc 1 593 0
 1535 0058 48BF     		it	mi
 1536 005a B1EE400A 		vnegmi.f32	s0, s0
 1537              	.LVL126:
 1538              		.loc 1 597 0
 1539 005e 03B0     		add	sp, sp, #12
ARM GAS  C:\Users\Grillmo\AppData\Local\Temp\cco1wq2R.s 			page 28


 1540              		.cfi_remember_state
 1541              		.cfi_def_cfa_offset 20
 1542              		@ sp needed
 1543 0060 BDEC048B 		vldm	sp!, {d8-d9}
 1544              		.cfi_restore 82
 1545              		.cfi_restore 83
 1546              		.cfi_restore 80
 1547              		.cfi_restore 81
 1548              		.cfi_def_cfa_offset 4
 1549 0064 5DF804FB 		ldr	pc, [sp], #4
 1550              	.LVL127:
 1551              	.L271:
 1552              		.cfi_restore_state
 1553              		.loc 1 572 0
 1554 0068 0128     		cmp	r0, #1
 1555 006a 1AD0     		beq	.L294
 1556              		.loc 1 582 0
 1557 006c 0228     		cmp	r0, #2
 1558 006e EFD1     		bne	.L274
 1559              		.loc 1 583 0
 1560 0070 F5EEC00A 		vcmpe.f32	s1, #0
 1561 0074 F1EE10FA 		vmrs	APSR_nzcv, FPSCR
 1562              		.loc 1 584 0
 1563 0078 F7EE007A 		vmov.f32	s15, #1.0e+0
 1564              		.loc 1 583 0
 1565 007c 41DB     		blt	.L291
 1566              		.loc 1 584 0
 1567 007e F0EE676A 		vmov.f32	s13, s15
 1568 0082 E0EE806A 		vfma.f32	s13, s1, s0
 1569 0086 37EEC00A 		vsub.f32	s0, s15, s0
 1570 008a 80EE267A 		vdiv.f32	s14, s0, s13
 1571 008e 37EEC70A 		vsub.f32	s0, s15, s14
 1572              	.LVL128:
 1573 0092 DDE7     		b	.L274
 1574              	.LVL129:
 1575              	.L282:
 1576              		.loc 1 561 0
 1577 0094 F0EE410A 		vmov.f32	s1, s2
 1578              	.LVL130:
 1579              		.loc 1 548 0
 1580 0098 B0EE678A 		vmov.f32	s16, s15
 1581 009c B7EE000A 		vmov.f32	s0, #1.0e+0
 1582              	.LVL131:
 1583 00a0 C6E7     		b	.L269
 1584              	.LVL132:
 1585              	.L294:
 1586              		.loc 1 573 0
 1587 00a2 DFED2B7A 		vldr.32	s15, .L295
 1588 00a6 B0EEE07A 		vabs.f32	s14, s1
 1589 00aa B4EEE77A 		vcmpe.f32	s14, s15
 1590 00ae F1EE10FA 		vmrs	APSR_nzcv, FPSCR
 1591 00b2 CDD4     		bmi	.L274
 1592              		.loc 1 576 0
 1593 00b4 F5EEC00A 		vcmpe.f32	s1, #0
 1594 00b8 F1EE10FA 		vmrs	APSR_nzcv, FPSCR
 1595 00bc 28DB     		blt	.L290
 1596              		.loc 1 577 0
ARM GAS  C:\Users\Grillmo\AppData\Local\Temp\cco1wq2R.s 			page 29


 1597 00be F7EE008A 		vmov.f32	s17, #1.0e+0
 1598 00c2 38EEC00A 		vsub.f32	s0, s17, s0
 1599 00c6 CDED010A 		vstr.32	s1, [sp, #4]	@ int
 1600 00ca 20EE200A 		vmul.f32	s0, s0, s1
 1601 00ce FFF7FEFF 		bl	expf
 1602              	.LVL133:
 1603 00d2 DDED010A 		vldr.32	s1, [sp, #4]	@ int
 1604 00d6 B0EE409A 		vmov.f32	s18, s0
 1605 00da B0EE600A 		vmov.f32	s0, s1
 1606 00de FFF7FEFF 		bl	expf
 1607              	.LVL134:
 1608 00e2 79EE687A 		vsub.f32	s15, s18, s17
 1609 00e6 30EE687A 		vsub.f32	s14, s0, s17
 1610 00ea 87EE870A 		vdiv.f32	s0, s15, s14
 1611 00ee 38EEC00A 		vsub.f32	s0, s17, s0
 1612              	.LVL135:
 1613 00f2 ADE7     		b	.L274
 1614              	.LVL136:
 1615              	.L289:
 1616              		.loc 1 570 0
 1617 00f4 F7EE007A 		vmov.f32	s15, #1.0e+0
 1618 00f8 77EEE00A 		vsub.f32	s1, s15, s1
 1619              	.LVL137:
 1620 00fc FFF7FEFF 		bl	powf
 1621              	.LVL138:
 1622 0100 A6E7     		b	.L274
 1623              	.LVL139:
 1624              	.L291:
 1625              		.loc 1 586 0
 1626 0102 37EEC07A 		vsub.f32	s14, s15, s0
 1627 0106 E0EEC77A 		vfms.f32	s15, s1, s14
 1628 010a 80EE270A 		vdiv.f32	s0, s0, s15
 1629              	.LVL140:
 1630 010e 9FE7     		b	.L274
 1631              	.LVL141:
 1632              	.L290:
 1633              		.loc 1 579 0
 1634 0110 F1EE608A 		vneg.f32	s17, s1
 1635 0114 28EE800A 		vmul.f32	s0, s17, s0
 1636 0118 FFF7FEFF 		bl	expf
 1637              	.LVL142:
 1638 011c B0EE409A 		vmov.f32	s18, s0
 1639 0120 B0EE680A 		vmov.f32	s0, s17
 1640 0124 FFF7FEFF 		bl	expf
 1641              	.LVL143:
 1642 0128 F7EE007A 		vmov.f32	s15, #1.0e+0
 1643 012c 30EE677A 		vsub.f32	s14, s0, s15
 1644 0130 39EE679A 		vsub.f32	s18, s18, s15
 1645 0134 89EE070A 		vdiv.f32	s0, s18, s14
 1646              	.LVL144:
 1647 0138 8AE7     		b	.L274
 1648              	.LVL145:
 1649              	.L293:
 1650              		.loc 1 561 0
 1651 013a B5EEC08A 		vcmpe.f32	s16, #0
 1652 013e F1EE10FA 		vmrs	APSR_nzcv, FPSCR
 1653 0142 B8BF     		it	lt
ARM GAS  C:\Users\Grillmo\AppData\Local\Temp\cco1wq2R.s 			page 30


 1654 0144 F0EE410A 		vmovlt.f32	s1, s2
 1655              	.LVL146:
 1656 0148 B0EEC80A 		vabs.f32	s0, s16
 1657              	.LVL147:
 1658 014c 70E7     		b	.L269
 1659              	.L296:
 1660 014e 00BF     		.align	2
 1661              	.L295:
 1662 0150 FFE6DB2E 		.word	786163455
 1663              		.cfi_endproc
 1664              	.LFE279:
 1665              		.size	utils_throttle_curve, .-utils_throttle_curve
 1666              		.section	.text.utils_sys_lock_cnt,"ax",%progbits
 1667              		.align	1
 1668              		.p2align 4,,15
 1669              		.global	utils_sys_lock_cnt
 1670              		.syntax unified
 1671              		.thumb
 1672              		.thumb_func
 1673              		.fpu fpv4-sp-d16
 1674              		.type	utils_sys_lock_cnt, %function
 1675              	utils_sys_lock_cnt:
 1676              	.LFB280:
 1677              		.loc 1 605 0
 1678              		.cfi_startproc
 1679              		@ args = 0, pretend = 0, frame = 0
 1680              		@ frame_needed = 0, uses_anonymous_args = 0
 1681              		@ link register save eliminated.
 1682              		.loc 1 606 0
 1683 0000 044B     		ldr	r3, .L299
 1684 0002 1A68     		ldr	r2, [r3]
 1685 0004 12B9     		cbnz	r2, .L298
 1686              	.LVL148:
 1687              	.LBB37:
 1688              	.LBB38:
 1689              	.LBB39:
 1690              	.LBB40:
 1691              		.file 2 "ChibiOS_3.0.2/os/ext/CMSIS/include/core_cmFunc.h"
 1692              		.loc 2 546 0
 1693 0006 2022     		movs	r2, #32
 1694              		.syntax unified
 1695              	@ 546 "ChibiOS_3.0.2/os/ext/CMSIS/include/core_cmFunc.h" 1
 1696 0008 82F31188 		MSR basepri, r2
 1697              	@ 0 "" 2
 1698              	.LVL149:
 1699              		.thumb
 1700              		.syntax unified
 1701              	.L298:
 1702              	.LBE40:
 1703              	.LBE39:
 1704              	.LBE38:
 1705              	.LBE37:
 1706              		.loc 1 609 0
 1707 000c 1A68     		ldr	r2, [r3]
 1708 000e 0132     		adds	r2, r2, #1
 1709 0010 1A60     		str	r2, [r3]
 1710 0012 7047     		bx	lr
ARM GAS  C:\Users\Grillmo\AppData\Local\Temp\cco1wq2R.s 			page 31


 1711              	.L300:
 1712              		.align	2
 1713              	.L299:
 1714 0014 00000000 		.word	.LANCHOR0
 1715              		.cfi_endproc
 1716              	.LFE280:
 1717              		.size	utils_sys_lock_cnt, .-utils_sys_lock_cnt
 1718              		.section	.text.utils_sys_unlock_cnt,"ax",%progbits
 1719              		.align	1
 1720              		.p2align 4,,15
 1721              		.global	utils_sys_unlock_cnt
 1722              		.syntax unified
 1723              		.thumb
 1724              		.thumb_func
 1725              		.fpu fpv4-sp-d16
 1726              		.type	utils_sys_unlock_cnt, %function
 1727              	utils_sys_unlock_cnt:
 1728              	.LFB281:
 1729              		.loc 1 618 0
 1730              		.cfi_startproc
 1731              		@ args = 0, pretend = 0, frame = 0
 1732              		@ frame_needed = 0, uses_anonymous_args = 0
 1733              		@ link register save eliminated.
 1734              		.loc 1 619 0
 1735 0000 054B     		ldr	r3, .L305
 1736 0002 1A68     		ldr	r2, [r3]
 1737 0004 32B1     		cbz	r2, .L301
 1738              		.loc 1 620 0
 1739 0006 1A68     		ldr	r2, [r3]
 1740 0008 013A     		subs	r2, r2, #1
 1741 000a 1A60     		str	r2, [r3]
 1742              		.loc 1 621 0
 1743 000c 1B68     		ldr	r3, [r3]
 1744 000e 0BB9     		cbnz	r3, .L301
 1745              	.LVL150:
 1746              	.LBB41:
 1747              	.LBB42:
 1748              	.LBB43:
 1749              	.LBB44:
 1750              	.LBB45:
 1751              		.loc 2 546 0
 1752              		.syntax unified
 1753              	@ 546 "ChibiOS_3.0.2/os/ext/CMSIS/include/core_cmFunc.h" 1
 1754 0010 83F31188 		MSR basepri, r3
 1755              	@ 0 "" 2
 1756              	.LVL151:
 1757              		.thumb
 1758              		.syntax unified
 1759              	.L301:
 1760 0014 7047     		bx	lr
 1761              	.L306:
 1762 0016 00BF     		.align	2
 1763              	.L305:
 1764 0018 00000000 		.word	.LANCHOR0
 1765              	.LBE45:
 1766              	.LBE44:
 1767              	.LBE43:
ARM GAS  C:\Users\Grillmo\AppData\Local\Temp\cco1wq2R.s 			page 32


 1768              	.LBE42:
 1769              	.LBE41:
 1770              		.cfi_endproc
 1771              	.LFE281:
 1772              		.size	utils_sys_unlock_cnt, .-utils_sys_unlock_cnt
 1773              		.section	.bss.sys_lock_cnt,"aw",%nobits
 1774              		.align	2
 1775              		.set	.LANCHOR0,. + 0
 1776              		.type	sys_lock_cnt, %object
 1777              		.size	sys_lock_cnt, 4
 1778              	sys_lock_cnt:
 1779 0000 00000000 		.space	4
 1780              		.section	.rodata.utils_byte_to_binary.str1.4,"aMS",%progbits,1
 1781              		.align	2
 1782              	.LC0:
 1783 0000 3100     		.ascii	"1\000"
 1784 0002 0000     		.space	2
 1785              	.LC1:
 1786 0004 3000     		.ascii	"0\000"
 1787              		.text
 1788              	.Letext0:
 1789              		.file 3 "c:\\chibistudio\\tools\\gnu tools arm embedded\\6.3 2017q1\\lib\\gcc\\arm-none-eabi\\6.3.
 1790              		.file 4 "c:\\chibistudio\\tools\\gnu tools arm embedded\\6.3 2017q1\\arm-none-eabi\\include\\machi
 1791              		.file 5 "c:\\chibistudio\\tools\\gnu tools arm embedded\\6.3 2017q1\\arm-none-eabi\\include\\sys\\
 1792              		.file 6 "ChibiOS_3.0.2/os/rt/ports/ARMCMx/compilers/GCC/chtypes.h"
 1793              		.file 7 "ChibiOS_3.0.2/os/rt/include/chsystypes.h"
 1794              		.file 8 "ChibiOS_3.0.2/os/rt/include/chschd.h"
 1795              		.file 9 "ChibiOS_3.0.2/os/ext/CMSIS/include/core_cm4.h"
 1796              		.file 10 "ChibiOS_3.0.2/os/ext/CMSIS/ST/system_stm32f4xx.h"
 1797              		.file 11 "ChibiOS_3.0.2/os/ext/CMSIS/ST/stm32f407xx.h"
 1798              		.file 12 "ChibiOS_3.0.2/os/rt/ports/ARMCMx/chcore.h"
 1799              		.file 13 "ChibiOS_3.0.2/os/rt/ports/ARMCMx/chcore_v7m.h"
 1800              		.file 14 "ChibiOS_3.0.2/os/rt/include/chtm.h"
 1801              		.file 15 "ChibiOS_3.0.2/os/rt/include/chsem.h"
 1802              		.file 16 "ChibiOS_3.0.2/os/rt/include/chmtx.h"
 1803              		.file 17 "ChibiOS_3.0.2/os/rt/include/chregistry.h"
 1804              		.file 18 "ChibiOS_3.0.2/os/rt/include/chevents.h"
 1805              		.file 19 "ChibiOS_3.0.2/os/rt/include/chqueues.h"
 1806              		.file 20 "./conf_general.h"
 1807              		.file 21 "ChibiOS_3.0.2/os/hal/ports/STM32/STM32F4xx/stm32_dma.h"
 1808              		.file 22 "ChibiOS_3.0.2/os/hal/ports/STM32/LLD/GPIOv2/pal_lld.h"
 1809              		.file 23 "ChibiOS_3.0.2/os/hal/include/can.h"
 1810              		.file 24 "ChibiOS_3.0.2/os/hal/ports/STM32/LLD/can_lld.h"
 1811              		.file 25 "ChibiOS_3.0.2/os/hal/include/i2c.h"
 1812              		.file 26 "ChibiOS_3.0.2/os/hal/ports/STM32/LLD/I2Cv1/i2c_lld.h"
 1813              		.file 27 "ChibiOS_3.0.2/os/hal/include/icu.h"
 1814              		.file 28 "ChibiOS_3.0.2/os/hal/ports/STM32/LLD/TIMv1/icu_lld.h"
 1815              		.file 29 "ChibiOS_3.0.2/os/hal/ports/STM32/LLD/TIMv1/stm32_tim.h"
 1816              		.file 30 "ChibiOS_3.0.2/os/hal/include/spi.h"
 1817              		.file 31 "ChibiOS_3.0.2/os/hal/ports/STM32/LLD/SPIv1/spi_lld.h"
 1818              		.file 32 "ChibiOS_3.0.2/os/hal/include/uart.h"
 1819              		.file 33 "ChibiOS_3.0.2/os/hal/ports/STM32/LLD/USARTv1/uart_lld.h"
 1820              		.file 34 "ChibiOS_3.0.2/os/hal/include/usb.h"
 1821              		.file 35 "ChibiOS_3.0.2/os/hal/ports/STM32/LLD/OTGv1/usb_lld.h"
 1822              		.file 36 "ChibiOS_3.0.2/os/hal/ports/STM32/LLD/OTGv1/stm32_otg.h"
 1823              		.file 37 "c:\\chibistudio\\tools\\gnu tools arm embedded\\6.3 2017q1\\arm-none-eabi\\include\\sys\
 1824              		.file 38 "c:\\chibistudio\\tools\\gnu tools arm embedded\\6.3 2017q1\\arm-none-eabi\\include\\sys\
ARM GAS  C:\Users\Grillmo\AppData\Local\Temp\cco1wq2R.s 			page 33


 1825              		.file 39 "c:\\chibistudio\\tools\\gnu tools arm embedded\\6.3 2017q1\\arm-none-eabi\\include\\sys\
 1826              		.file 40 "c:\\chibistudio\\tools\\gnu tools arm embedded\\6.3 2017q1\\arm-none-eabi\\include\\math
 1827              		.file 41 "ChibiOS_3.0.2/os/rt/include/chsys.h"
 1828              		.file 42 "<built-in>"