ARM GAS  C:\Users\Grillmo\AppData\Local\Temp\cc4a3lMc.s 			page 1


   1              		.cpu cortex-m4
   2              		.eabi_attribute 27, 1
   3              		.eabi_attribute 28, 1
   4              		.eabi_attribute 20, 1
   5              		.eabi_attribute 21, 1
   6              		.eabi_attribute 23, 3
   7              		.eabi_attribute 24, 1
   8              		.eabi_attribute 25, 1
   9              		.eabi_attribute 26, 1
  10              		.eabi_attribute 30, 2
  11              		.eabi_attribute 34, 1
  12              		.eabi_attribute 18, 4
  13              		.file	"ws2811.c"
  14              		.text
  15              	.Ltext0:
  16              		.cfi_sections	.debug_frame
  17              		.section	.text.rgb_to_local,"ax",%progbits
  18              		.align	1
  19              		.p2align 4,,15
  20              		.syntax unified
  21              		.thumb
  22              		.thumb_func
  23              		.fpu fpv4-sp-d16
  24              		.type	rgb_to_local, %function
  25              	rgb_to_local:
  26              	.LFB263:
  27              		.file 1 "ws2811.c"
  28              		.loc 1 239 0
  29              		.cfi_startproc
  30              		@ args = 0, pretend = 0, frame = 0
  31              		@ frame_needed = 0, uses_anonymous_args = 0
  32              	.LVL0:
  33              		.loc 1 244 0
  34 0000 104B     		ldr	r3, .L3
  35 0002 1B68     		ldr	r3, [r3]
  36              		.loc 1 239 0
  37 0004 30B5     		push	{r4, r5, lr}
  38              		.cfi_def_cfa_offset 12
  39              		.cfi_offset 4, -12
  40              		.cfi_offset 5, -8
  41              		.cfi_offset 14, -4
  42              		.loc 1 240 0
  43 0006 C0F30741 		ubfx	r1, r0, #16, #8
  44              		.loc 1 244 0
  45 000a 0F4D     		ldr	r5, .L3+4
  46              		.loc 1 248 0
  47 000c 0F4C     		ldr	r4, .L3+8
  48              	.LVL1:
  49              		.loc 1 244 0
  50 000e 03FB01F1 		mul	r1, r3, r1
  51              	.LVL2:
  52              		.loc 1 241 0
  53 0012 C0F30722 		ubfx	r2, r0, #8, #8
  54              		.loc 1 244 0
  55 0016 A5FB01E1 		umull	lr, r1, r5, r1
  56              	.LVL3:
  57              		.loc 1 242 0
ARM GAS  C:\Users\Grillmo\AppData\Local\Temp\cc4a3lMc.s 			page 2


  58 001a C0B2     		uxtb	r0, r0
  59              	.LVL4:
  60              		.loc 1 245 0
  61 001c 03FB02F2 		mul	r2, r3, r2
  62              	.LVL5:
  63              		.loc 1 244 0
  64 0020 4909     		lsrs	r1, r1, #5
  65              		.loc 1 245 0
  66 0022 A5FB02E2 		umull	lr, r2, r5, r2
  67              	.LVL6:
  68              		.loc 1 246 0
  69 0026 03FB00F3 		mul	r3, r3, r0
  70              	.LVL7:
  71 002a A5FB0303 		umull	r0, r3, r5, r3
  72              	.LVL8:
  73              		.loc 1 245 0
  74 002e 5209     		lsrs	r2, r2, #5
  75              		.loc 1 248 0
  76 0030 605C     		ldrb	r0, [r4, r1]	@ zero_extendqisi2
  77              	.LVL9:
  78              		.loc 1 249 0
  79 0032 A15C     		ldrb	r1, [r4, r2]	@ zero_extendqisi2
  80              	.LVL10:
  81              		.loc 1 246 0
  82 0034 5B09     		lsrs	r3, r3, #5
  83              		.loc 1 252 0
  84 0036 0202     		lsls	r2, r0, #8
  85              		.loc 1 250 0
  86 0038 E05C     		ldrb	r0, [r4, r3]	@ zero_extendqisi2
  87              	.LVL11:
  88              		.loc 1 252 0
  89 003a 42EA0142 		orr	r2, r2, r1, lsl #16
  90              		.loc 1 253 0
  91 003e 1043     		orrs	r0, r0, r2
  92              	.LVL12:
  93 0040 30BD     		pop	{r4, r5, pc}
  94              	.LVL13:
  95              	.L4:
  96 0042 00BF     		.align	2
  97              	.L3:
  98 0044 00000000 		.word	.LANCHOR0
  99 0048 1F85EB51 		.word	1374389535
 100 004c 00000000 		.word	.LANCHOR1
 101              		.cfi_endproc
 102              	.LFE263:
 103              		.size	rgb_to_local, .-rgb_to_local
 104              		.section	.text.ws2811_set_led_color.part.0,"ax",%progbits
 105              		.align	1
 106              		.p2align 4,,15
 107              		.syntax unified
 108              		.thumb
 109              		.thumb_func
 110              		.fpu fpv4-sp-d16
 111              		.type	ws2811_set_led_color.part.0, %function
 112              	ws2811_set_led_color.part.0:
 113              	.LFB264:
 114              		.loc 1 170 0
ARM GAS  C:\Users\Grillmo\AppData\Local\Temp\cc4a3lMc.s 			page 3


 115              		.cfi_startproc
 116              		@ args = 0, pretend = 0, frame = 0
 117              		@ frame_needed = 0, uses_anonymous_args = 0
 118              	.LVL14:
 119 0000 10B5     		push	{r4, lr}
 120              		.cfi_def_cfa_offset 8
 121              		.cfi_offset 4, -8
 122              		.cfi_offset 14, -4
 123              	.LBB9:
 124              		.loc 1 172 0
 125 0002 0E4B     		ldr	r3, .L12
 126              	.LBE9:
 127              		.loc 1 170 0
 128 0004 0446     		mov	r4, r0
 129              	.LBB10:
 130              		.loc 1 174 0
 131 0006 0846     		mov	r0, r1
 132              	.LVL15:
 133              		.loc 1 172 0
 134 0008 43F82410 		str	r1, [r3, r4, lsl #2]
 135              		.loc 1 181 0
 136 000c 04EB4404 		add	r4, r4, r4, lsl #1
 137              	.LVL16:
 138              		.loc 1 174 0
 139 0010 FFF7FEFF 		bl	rgb_to_local
 140              	.LVL17:
 141 0014 2401     		lsls	r4, r4, #4
 142 0016 0A4B     		ldr	r3, .L12+4
 143 0018 04F13002 		add	r2, r4, #48
 144 001c 1A44     		add	r2, r2, r3
 145              		.loc 1 179 0
 146 001e 5321     		movs	r1, #83
 147 0020 2344     		add	r3, r3, r4
 148              		.loc 1 181 0
 149 0022 1424     		movs	r4, #20
 150              	.LVL18:
 151              	.L8:
 152              		.loc 1 178 0
 153 0024 10F4000F 		tst	r0, #8388608
 154              		.loc 1 179 0
 155 0028 14BF     		ite	ne
 156 002a 1980     		strhne	r1, [r3]	@ movhi
 157              		.loc 1 181 0
 158 002c 1C80     		strheq	r4, [r3]	@ movhi
 159 002e 0233     		adds	r3, r3, #2
 160              		.loc 1 177 0
 161 0030 9342     		cmp	r3, r2
 162              		.loc 1 183 0
 163 0032 4FEA4000 		lsl	r0, r0, #1
 164              	.LVL19:
 165              		.loc 1 177 0
 166 0036 F5D1     		bne	.L8
 167              	.LBE10:
 168              		.loc 1 186 0
 169 0038 10BD     		pop	{r4, pc}
 170              	.L13:
 171 003a 00BF     		.align	2
ARM GAS  C:\Users\Grillmo\AppData\Local\Temp\cc4a3lMc.s 			page 4


 172              	.L12:
 173 003c 00000000 		.word	.LANCHOR2
 174 0040 00000000 		.word	.LANCHOR3
 175              		.cfi_endproc
 176              	.LFE264:
 177              		.size	ws2811_set_led_color.part.0, .-ws2811_set_led_color.part.0
 178              		.section	.text.ws2811_init,"ax",%progbits
 179              		.align	1
 180              		.p2align 4,,15
 181              		.global	ws2811_init
 182              		.syntax unified
 183              		.thumb
 184              		.thumb_func
 185              		.fpu fpv4-sp-d16
 186              		.type	ws2811_init, %function
 187              	ws2811_init:
 188              	.LFB256:
 189              		.loc 1 43 0
 190              		.cfi_startproc
 191              		@ args = 0, pretend = 0, frame = 96
 192              		@ frame_needed = 0, uses_anonymous_args = 0
 193 0000 2DE9F041 		push	{r4, r5, r6, r7, r8, lr}
 194              		.cfi_def_cfa_offset 24
 195              		.cfi_offset 4, -24
 196              		.cfi_offset 5, -20
 197              		.cfi_offset 6, -16
 198              		.cfi_offset 7, -12
 199              		.cfi_offset 8, -8
 200              		.cfi_offset 14, -4
 201 0004 2DED028B 		vpush.64	{d8}
 202              		.cfi_def_cfa_offset 32
 203              		.cfi_offset 80, -32
 204              		.cfi_offset 81, -28
 205              		.loc 1 48 0
 206 0008 5B4B     		ldr	r3, .L28
 207 000a 5C4F     		ldr	r7, .L28+4
 208 000c 6422     		movs	r2, #100
 209 000e 1A60     		str	r2, [r3]
 210              	.LVL20:
 211              		.loc 1 43 0
 212 0010 98B0     		sub	sp, sp, #96
 213              		.cfi_def_cfa_offset 128
 214 0012 07F17401 		add	r1, r7, #116
 215              		.loc 1 48 0
 216 0016 3B46     		mov	r3, r7
 217              		.loc 1 54 0
 218 0018 0022     		movs	r2, #0
 219              	.LVL21:
 220              	.L15:
 221              		.loc 1 54 0 is_stmt 0 discriminator 3
 222 001a 43F8042F 		str	r2, [r3, #4]!
 223              		.loc 1 53 0 is_stmt 1 discriminator 3
 224 001e 8B42     		cmp	r3, r1
 225 0020 FBD1     		bne	.L15
 226 0022 574C     		ldr	r4, .L28+8
 227              	.LBB11:
 228              		.loc 1 64 0
ARM GAS  C:\Users\Grillmo\AppData\Local\Temp\cc4a3lMc.s 			page 5


 229 0024 1426     		movs	r6, #20
 230 0026 04F5AE68 		add	r8, r4, #1392
 231              		.loc 1 62 0
 232 002a 5325     		movs	r5, #83
 233              	.L19:
 234              		.loc 1 58 0
 235 002c 57F8040F 		ldr	r0, [r7, #4]!
 236 0030 FFF7FEFF 		bl	rgb_to_local
 237              	.LVL22:
 238 0034 A4F13003 		sub	r3, r4, #48
 239              	.LVL23:
 240              	.L18:
 241              		.loc 1 61 0
 242 0038 0202     		lsls	r2, r0, #8
 243              		.loc 1 62 0
 244 003a 4CBF     		ite	mi
 245 003c 1D80     		strhmi	r5, [r3]	@ movhi
 246              		.loc 1 64 0
 247 003e 1E80     		strhpl	r6, [r3]	@ movhi
 248 0040 0233     		adds	r3, r3, #2
 249              		.loc 1 60 0
 250 0042 A342     		cmp	r3, r4
 251              		.loc 1 66 0
 252 0044 4FEA4000 		lsl	r0, r0, #1
 253              	.LVL24:
 254              		.loc 1 60 0
 255 0048 F6D1     		bne	.L18
 256 004a 03F13004 		add	r4, r3, #48
 257              	.LBE11:
 258              		.loc 1 57 0 discriminator 2
 259 004e 4445     		cmp	r4, r8
 260 0050 ECD1     		bne	.L19
 261 0052 4C4B     		ldr	r3, .L28+12
 262              		.loc 1 73 0
 263 0054 0021     		movs	r1, #0
 264 0056 03F16402 		add	r2, r3, #100
 265              	.L20:
 266              		.loc 1 73 0 is_stmt 0 discriminator 3
 267 005a 23F8021F 		strh	r1, [r3, #2]!	@ movhi
 268              		.loc 1 72 0 is_stmt 1 discriminator 3
 269 005e 9342     		cmp	r3, r2
 270 0060 FBD1     		bne	.L20
 271 0062 494D     		ldr	r5, .L28+16
 272              	.LBB12:
 273              		.loc 1 78 0
 274 0064 9FED498A 		vldr.32	s16, .L28+20
 275 0068 DFED498A 		vldr.32	s17, .L28+24
 276              	.LBE12:
 277              		.loc 1 72 0
 278 006c 0024     		movs	r4, #0
 279              	.LVL25:
 280              	.L21:
 281              	.LBB13:
 282              		.loc 1 78 0 discriminator 3
 283 006e 07EE904A 		vmov	s15, r4	@ int
 284 0072 B8EEE70A 		vcvt.f32.s32	s0, s15
 285 0076 F0EE680A 		vmov.f32	s1, s17
ARM GAS  C:\Users\Grillmo\AppData\Local\Temp\cc4a3lMc.s 			page 6


 286 007a 80EE080A 		vdiv.f32	s0, s0, s16
 287 007e FFF7FEFF 		bl	powf
 288              	.LVL26:
 289              		.loc 1 77 0 discriminator 3
 290 0082 0134     		adds	r4, r4, #1
 291              	.LVL27:
 292              		.loc 1 78 0 discriminator 3
 293 0084 20EE080A 		vmul.f32	s0, s0, s16
 294 0088 FFF7FEFF 		bl	roundf
 295              	.LVL28:
 296 008c FDEEC07A 		vcvt.s32.f32	s15, s0
 297              		.loc 1 77 0 discriminator 3
 298 0090 B4F5807F 		cmp	r4, #256
 299              		.loc 1 78 0 discriminator 3
 300 0094 17EE903A 		vmov	r3, s15	@ int
 301 0098 05F8013F 		strb	r3, [r5, #1]!
 302              		.loc 1 77 0 discriminator 3
 303 009c E7D1     		bne	.L21
 304              	.LBE13:
 305              		.loc 1 82 0
 306 009e 4FF48772 		mov	r2, #270
 307 00a2 8021     		movs	r1, #128
 308 00a4 3B48     		ldr	r0, .L28+28
 309              		.loc 1 104 0
 310 00a6 3C4F     		ldr	r7, .L28+32
 311              		.loc 1 82 0
 312 00a8 FFF7FEFF 		bl	_pal_lld_setgroupmode
 313              	.LVL29:
 314              		.loc 1 94 0
 315 00ac 0121     		movs	r1, #1
 316 00ae 4FF40010 		mov	r0, #2097152
 317 00b2 FFF7FEFF 		bl	RCC_AHB1PeriphClockCmd
 318              	.LVL30:
 319              		.loc 1 97 0
 320 00b6 3948     		ldr	r0, .L28+36
 321 00b8 FFF7FEFF 		bl	DMA_DeInit
 322              	.LVL31:
 323              		.loc 1 98 0
 324 00bc 3849     		ldr	r1, .L28+40
 325              		.loc 1 111 0
 326 00be 1294     		str	r4, [sp, #72]
 327              		.loc 1 98 0
 328 00c0 0A91     		str	r1, [sp, #40]
 329              		.loc 1 103 0
 330 00c2 4FF08064 		mov	r4, #67108864
 331              	.LVL32:
 332              		.loc 1 105 0
 333 00c6 4022     		movs	r2, #64
 334              		.loc 1 106 0
 335 00c8 40F2EA23 		movw	r3, #746
 336              		.loc 1 109 0
 337 00cc 4FF40061 		mov	r1, #2048
 338              		.loc 1 107 0
 339 00d0 0025     		movs	r5, #0
 340              		.loc 1 108 0
 341 00d2 4FF48066 		mov	r6, #1024
 342              		.loc 1 103 0
ARM GAS  C:\Users\Grillmo\AppData\Local\Temp\cc4a3lMc.s 			page 7


 343 00d6 0994     		str	r4, [sp, #36]
 344              		.loc 1 105 0
 345 00d8 0C92     		str	r2, [sp, #48]
 346              		.loc 1 106 0
 347 00da 0D93     		str	r3, [sp, #52]
 348              		.loc 1 112 0
 349 00dc 4FF40032 		mov	r2, #131072
 350              		.loc 1 114 0
 351 00e0 0323     		movs	r3, #3
 352              		.loc 1 109 0
 353 00e2 1091     		str	r1, [sp, #64]
 354              		.loc 1 119 0
 355 00e4 2D48     		ldr	r0, .L28+36
 356              		.loc 1 112 0
 357 00e6 1392     		str	r2, [sp, #76]
 358              		.loc 1 119 0
 359 00e8 09A9     		add	r1, sp, #36
 360              		.loc 1 110 0
 361 00ea 4FF40054 		mov	r4, #8192
 362              		.loc 1 114 0
 363 00ee 1593     		str	r3, [sp, #84]
 364              		.loc 1 110 0
 365 00f0 1194     		str	r4, [sp, #68]
 366              		.loc 1 104 0
 367 00f2 0B97     		str	r7, [sp, #44]
 368              		.loc 1 107 0
 369 00f4 0E95     		str	r5, [sp, #56]
 370              		.loc 1 113 0
 371 00f6 1495     		str	r5, [sp, #80]
 372              		.loc 1 115 0
 373 00f8 1695     		str	r5, [sp, #88]
 374              		.loc 1 116 0
 375 00fa 1795     		str	r5, [sp, #92]
 376              		.loc 1 108 0
 377 00fc 0F96     		str	r6, [sp, #60]
 378              		.loc 1 119 0
 379 00fe FFF7FEFF 		bl	DMA_Init
 380              	.LVL33:
 381              		.loc 1 124 0
 382 0102 0121     		movs	r1, #1
 383 0104 0420     		movs	r0, #4
 384 0106 FFF7FEFF 		bl	RCC_APB1PeriphClockCmd
 385              	.LVL34:
 386              		.loc 1 129 0
 387 010a 6823     		movs	r3, #104
 388              		.loc 1 133 0
 389 010c 01A9     		add	r1, sp, #4
 390 010e 2548     		ldr	r0, .L28+44
 391              		.loc 1 129 0
 392 0110 0293     		str	r3, [sp, #8]
 393              		.loc 1 137 0
 394 0112 0124     		movs	r4, #1
 395              		.loc 1 127 0
 396 0114 ADF80450 		strh	r5, [sp, #4]	@ movhi
 397              		.loc 1 128 0
 398 0118 ADF80650 		strh	r5, [sp, #6]	@ movhi
 399              		.loc 1 130 0
ARM GAS  C:\Users\Grillmo\AppData\Local\Temp\cc4a3lMc.s 			page 8


 400 011c ADF80C50 		strh	r5, [sp, #12]	@ movhi
 401              		.loc 1 131 0
 402 0120 8DF80E50 		strb	r5, [sp, #14]
 403              		.loc 1 133 0
 404 0124 FFF7FEFF 		bl	TIM_TimeBaseInit
 405              	.LVL35:
 406              		.loc 1 136 0
 407 0128 6023     		movs	r3, #96
 408              		.loc 1 138 0
 409 012a 3A88     		ldrh	r2, [r7]
 410              		.loc 1 142 0
 411 012c 1D48     		ldr	r0, .L28+44
 412              		.loc 1 136 0
 413 012e ADF81030 		strh	r3, [sp, #16]	@ movhi
 414              		.loc 1 142 0
 415 0132 04A9     		add	r1, sp, #16
 416              		.loc 1 138 0
 417 0134 0692     		str	r2, [sp, #24]
 418              		.loc 1 139 0
 419 0136 ADF81C50 		strh	r5, [sp, #28]	@ movhi
 420              		.loc 1 137 0
 421 013a ADF81240 		strh	r4, [sp, #18]	@ movhi
 422              		.loc 1 142 0
 423 013e FFF7FEFF 		bl	TIM_OC2Init
 424              	.LVL36:
 425              		.loc 1 143 0
 426 0142 0821     		movs	r1, #8
 427 0144 1748     		ldr	r0, .L28+44
 428 0146 FFF7FEFF 		bl	TIM_OC2PreloadConfig
 429              	.LVL37:
 430              		.loc 1 150 0
 431 014a 2146     		mov	r1, r4
 432 014c 1548     		ldr	r0, .L28+44
 433 014e FFF7FEFF 		bl	TIM_Cmd
 434              	.LVL38:
 435              		.loc 1 154 0
 436 0152 2146     		mov	r1, r4
 437 0154 1148     		ldr	r0, .L28+36
 438 0156 FFF7FEFF 		bl	DMA_Cmd
 439              	.LVL39:
 440              		.loc 1 161 0
 441 015a 2246     		mov	r2, r4
 442 015c 3146     		mov	r1, r6
 443 015e 1148     		ldr	r0, .L28+44
 444 0160 FFF7FEFF 		bl	TIM_DMACmd
 445              	.LVL40:
 446              		.loc 1 167 0
 447 0164 2146     		mov	r1, r4
 448 0166 0F48     		ldr	r0, .L28+44
 449 0168 FFF7FEFF 		bl	TIM_CtrlPWMOutputs
 450              	.LVL41:
 451              		.loc 1 168 0
 452 016c 18B0     		add	sp, sp, #96
 453              		.cfi_def_cfa_offset 32
 454              		@ sp needed
 455 016e BDEC028B 		vldm	sp!, {d8}
 456              		.cfi_restore 80
ARM GAS  C:\Users\Grillmo\AppData\Local\Temp\cc4a3lMc.s 			page 9


 457              		.cfi_restore 81
 458              		.cfi_def_cfa_offset 24
 459 0172 BDE8F081 		pop	{r4, r5, r6, r7, r8, pc}
 460              	.L29:
 461 0176 00BF     		.align	2
 462              	.L28:
 463 0178 00000000 		.word	.LANCHOR0
 464 017c FCFFFFFF 		.word	.LANCHOR2-4
 465 0180 30000000 		.word	.LANCHOR3+48
 466 0184 6C050000 		.word	.LANCHOR3+1388
 467 0188 FFFFFFFF 		.word	.LANCHOR1-1
 468 018c 00007F43 		.word	1132396544
 469 0190 E4380E40 		.word	1074673892
 470 0194 00040240 		.word	1073873920
 471 0198 00000000 		.word	.LANCHOR3
 472 019c 58600240 		.word	1073897560
 473 01a0 38080040 		.word	1073743928
 474 01a4 00080040 		.word	1073743872
 475              		.cfi_endproc
 476              	.LFE256:
 477              		.size	ws2811_init, .-ws2811_init
 478              		.section	.text.ws2811_set_led_color,"ax",%progbits
 479              		.align	1
 480              		.p2align 4,,15
 481              		.global	ws2811_set_led_color
 482              		.syntax unified
 483              		.thumb
 484              		.thumb_func
 485              		.fpu fpv4-sp-d16
 486              		.type	ws2811_set_led_color, %function
 487              	ws2811_set_led_color:
 488              	.LFB257:
 489              		.loc 1 170 0
 490              		.cfi_startproc
 491              		@ args = 0, pretend = 0, frame = 0
 492              		@ frame_needed = 0, uses_anonymous_args = 0
 493              		@ link register save eliminated.
 494              	.LVL42:
 495              		.loc 1 171 0
 496 0000 1B28     		cmp	r0, #27
 497 0002 01D8     		bhi	.L30
 498 0004 FFF7FEBF 		b	ws2811_set_led_color.part.0
 499              	.LVL43:
 500              	.L30:
 501 0008 7047     		bx	lr
 502              		.cfi_endproc
 503              	.LFE257:
 504              		.size	ws2811_set_led_color, .-ws2811_set_led_color
 505 000a 00BF     		.section	.text.ws2811_get_led_color,"ax",%progbits
 506              		.align	1
 507              		.p2align 4,,15
 508              		.global	ws2811_get_led_color
 509              		.syntax unified
 510              		.thumb
 511              		.thumb_func
 512              		.fpu fpv4-sp-d16
 513              		.type	ws2811_get_led_color, %function
ARM GAS  C:\Users\Grillmo\AppData\Local\Temp\cc4a3lMc.s 			page 10


 514              	ws2811_get_led_color:
 515              	.LFB258:
 516              		.loc 1 188 0
 517              		.cfi_startproc
 518              		@ args = 0, pretend = 0, frame = 0
 519              		@ frame_needed = 0, uses_anonymous_args = 0
 520              		@ link register save eliminated.
 521              	.LVL44:
 522              		.loc 1 189 0
 523 0000 1B28     		cmp	r0, #27
 524              		.loc 1 190 0
 525 0002 9ABF     		itte	ls
 526 0004 024B     		ldrls	r3, .L35
 527 0006 53F82000 		ldrls	r0, [r3, r0, lsl #2]
 528              	.LVL45:
 529              		.loc 1 193 0
 530 000a 0020     		movhi	r0, #0
 531              		.loc 1 194 0
 532 000c 7047     		bx	lr
 533              	.L36:
 534 000e 00BF     		.align	2
 535              	.L35:
 536 0010 00000000 		.word	.LANCHOR2
 537              		.cfi_endproc
 538              	.LFE258:
 539              		.size	ws2811_get_led_color, .-ws2811_get_led_color
 540              		.section	.text.ws2811_all_off,"ax",%progbits
 541              		.align	1
 542              		.p2align 4,,15
 543              		.global	ws2811_all_off
 544              		.syntax unified
 545              		.thumb
 546              		.thumb_func
 547              		.fpu fpv4-sp-d16
 548              		.type	ws2811_all_off, %function
 549              	ws2811_all_off:
 550              	.LFB259:
 551              		.loc 1 196 0
 552              		.cfi_startproc
 553              		@ args = 0, pretend = 0, frame = 0
 554              		@ frame_needed = 0, uses_anonymous_args = 0
 555              		@ link register save eliminated.
 556              	.LVL46:
 557 0000 084B     		ldr	r3, .L42
 558              		.loc 1 200 0
 559 0002 0021     		movs	r1, #0
 560 0004 03F17002 		add	r2, r3, #112
 561              	.LVL47:
 562              	.L38:
 563              		.loc 1 200 0 is_stmt 0 discriminator 3
 564 0008 43F8041F 		str	r1, [r3, #4]!
 565              		.loc 1 199 0 is_stmt 1 discriminator 3
 566 000c 9342     		cmp	r3, r2
 567 000e FBD1     		bne	.L38
 568 0010 054B     		ldr	r3, .L42+4
 569              		.loc 1 204 0
 570 0012 1421     		movs	r1, #20
ARM GAS  C:\Users\Grillmo\AppData\Local\Temp\cc4a3lMc.s 			page 11


 571 0014 03F5A862 		add	r2, r3, #1344
 572              	.L39:
 573              		.loc 1 204 0 is_stmt 0 discriminator 3
 574 0018 23F8021F 		strh	r1, [r3, #2]!	@ movhi
 575              		.loc 1 203 0 is_stmt 1 discriminator 3
 576 001c 9A42     		cmp	r2, r3
 577 001e FBD1     		bne	.L39
 578              		.loc 1 206 0
 579 0020 7047     		bx	lr
 580              	.L43:
 581 0022 00BF     		.align	2
 582              	.L42:
 583 0024 FCFFFFFF 		.word	.LANCHOR2-4
 584 0028 FEFFFFFF 		.word	.LANCHOR3-2
 585              		.cfi_endproc
 586              	.LFE259:
 587              		.size	ws2811_all_off, .-ws2811_all_off
 588              		.section	.text.ws2811_set_all,"ax",%progbits
 589              		.align	1
 590              		.p2align 4,,15
 591              		.global	ws2811_set_all
 592              		.syntax unified
 593              		.thumb
 594              		.thumb_func
 595              		.fpu fpv4-sp-d16
 596              		.type	ws2811_set_all, %function
 597              	ws2811_set_all:
 598              	.LFB260:
 599              		.loc 1 208 0
 600              		.cfi_startproc
 601              		@ args = 0, pretend = 0, frame = 0
 602              		@ frame_needed = 0, uses_anonymous_args = 0
 603              	.LVL48:
 604 0000 2DE9F843 		push	{r3, r4, r5, r6, r7, r8, r9, lr}
 605              		.cfi_def_cfa_offset 32
 606              		.cfi_offset 3, -32
 607              		.cfi_offset 4, -28
 608              		.cfi_offset 5, -24
 609              		.cfi_offset 6, -20
 610              		.cfi_offset 7, -16
 611              		.cfi_offset 8, -12
 612              		.cfi_offset 9, -8
 613              		.cfi_offset 14, -4
 614 0004 0E4C     		ldr	r4, .L52
 615 0006 DFF83C80 		ldr	r8, .L52+4
 616              		.loc 1 208 0
 617 000a 0746     		mov	r7, r0
 618 000c 04F5A869 		add	r9, r4, #1344
 619              	.LBB14:
 620              		.loc 1 220 0
 621 0010 1426     		movs	r6, #20
 622              		.loc 1 218 0
 623 0012 5325     		movs	r5, #83
 624              	.LVL49:
 625              	.L48:
 626              		.loc 1 214 0
 627 0014 3846     		mov	r0, r7
ARM GAS  C:\Users\Grillmo\AppData\Local\Temp\cc4a3lMc.s 			page 12


 628              		.loc 1 212 0
 629 0016 48F8047F 		str	r7, [r8, #4]!
 630              		.loc 1 214 0
 631 001a FFF7FEFF 		bl	rgb_to_local
 632              	.LVL50:
 633 001e A4F13003 		sub	r3, r4, #48
 634              	.LVL51:
 635              	.L47:
 636              		.loc 1 217 0
 637 0022 0202     		lsls	r2, r0, #8
 638              		.loc 1 218 0
 639 0024 4CBF     		ite	mi
 640 0026 1D80     		strhmi	r5, [r3]	@ movhi
 641              		.loc 1 220 0
 642 0028 1E80     		strhpl	r6, [r3]	@ movhi
 643 002a 0233     		adds	r3, r3, #2
 644              		.loc 1 216 0
 645 002c A342     		cmp	r3, r4
 646              		.loc 1 222 0
 647 002e 4FEA4000 		lsl	r0, r0, #1
 648              	.LVL52:
 649              		.loc 1 216 0
 650 0032 F6D1     		bne	.L47
 651 0034 03F13004 		add	r4, r3, #48
 652              	.LBE14:
 653              		.loc 1 211 0 discriminator 2
 654 0038 4C45     		cmp	r4, r9
 655 003a EBD1     		bne	.L48
 656              		.loc 1 225 0
 657 003c BDE8F883 		pop	{r3, r4, r5, r6, r7, r8, r9, pc}
 658              	.LVL53:
 659              	.L53:
 660              		.align	2
 661              	.L52:
 662 0040 30000000 		.word	.LANCHOR3+48
 663 0044 FCFFFFFF 		.word	.LANCHOR2-4
 664              		.cfi_endproc
 665              	.LFE260:
 666              		.size	ws2811_set_all, .-ws2811_set_all
 667              		.section	.text.ws2811_set_brightness,"ax",%progbits
 668              		.align	1
 669              		.p2align 4,,15
 670              		.global	ws2811_set_brightness
 671              		.syntax unified
 672              		.thumb
 673              		.thumb_func
 674              		.fpu fpv4-sp-d16
 675              		.type	ws2811_set_brightness, %function
 676              	ws2811_set_brightness:
 677              	.LFB261:
 678              		.loc 1 227 0
 679              		.cfi_startproc
 680              		@ args = 0, pretend = 0, frame = 0
 681              		@ frame_needed = 0, uses_anonymous_args = 0
 682              	.LVL54:
 683 0000 38B5     		push	{r3, r4, r5, lr}
 684              		.cfi_def_cfa_offset 16
ARM GAS  C:\Users\Grillmo\AppData\Local\Temp\cc4a3lMc.s 			page 13


 685              		.cfi_offset 3, -16
 686              		.cfi_offset 4, -12
 687              		.cfi_offset 5, -8
 688              		.cfi_offset 14, -4
 689              		.loc 1 228 0
 690 0002 064B     		ldr	r3, .L58
 691 0004 064D     		ldr	r5, .L58+4
 692 0006 1860     		str	r0, [r3]
 693              	.LVL55:
 694              	.LBB15:
 695              		.loc 1 230 0
 696 0008 0024     		movs	r4, #0
 697              	.LVL56:
 698              	.L55:
 699              	.LBB16:
 700              	.LBB17:
 701 000a 2046     		mov	r0, r4
 702 000c 55F8041F 		ldr	r1, [r5, #4]!
 703              	.LBE17:
 704              	.LBE16:
 705 0010 0134     		adds	r4, r4, #1
 706              	.LVL57:
 707              	.LBB19:
 708              	.LBB18:
 709 0012 FFF7FEFF 		bl	ws2811_set_led_color.part.0
 710              	.LVL58:
 711              	.LBE18:
 712              	.LBE19:
 713 0016 1C2C     		cmp	r4, #28
 714 0018 F7D1     		bne	.L55
 715              	.LBE15:
 716              		.loc 1 233 0
 717 001a 38BD     		pop	{r3, r4, r5, pc}
 718              	.LVL59:
 719              	.L59:
 720              		.align	2
 721              	.L58:
 722 001c 00000000 		.word	.LANCHOR0
 723 0020 FCFFFFFF 		.word	.LANCHOR2-4
 724              		.cfi_endproc
 725              	.LFE261:
 726              		.size	ws2811_set_brightness, .-ws2811_set_brightness
 727              		.section	.text.ws2811_get_brightness,"ax",%progbits
 728              		.align	1
 729              		.p2align 4,,15
 730              		.global	ws2811_get_brightness
 731              		.syntax unified
 732              		.thumb
 733              		.thumb_func
 734              		.fpu fpv4-sp-d16
 735              		.type	ws2811_get_brightness, %function
 736              	ws2811_get_brightness:
 737              	.LFB262:
 738              		.loc 1 235 0
 739              		.cfi_startproc
 740              		@ args = 0, pretend = 0, frame = 0
 741              		@ frame_needed = 0, uses_anonymous_args = 0
ARM GAS  C:\Users\Grillmo\AppData\Local\Temp\cc4a3lMc.s 			page 14


 742              		@ link register save eliminated.
 743              		.loc 1 236 0
 744 0000 014B     		ldr	r3, .L61
 745              		.loc 1 237 0
 746 0002 1868     		ldr	r0, [r3]
 747 0004 7047     		bx	lr
 748              	.L62:
 749 0006 00BF     		.align	2
 750              	.L61:
 751 0008 00000000 		.word	.LANCHOR0
 752              		.cfi_endproc
 753              	.LFE262:
 754              		.size	ws2811_get_brightness, .-ws2811_get_brightness
 755              		.section	.bss.RGBdata,"aw",%nobits
 756              		.align	2
 757              		.set	.LANCHOR2,. + 0
 758              		.type	RGBdata, %object
 759              		.size	RGBdata, 116
 760              	RGBdata:
 761 0000 00000000 		.space	116
 761      00000000 
 761      00000000 
 761      00000000 
 761      00000000 
 762              		.section	.bss.bitbuffer,"aw",%nobits
 763              		.align	2
 764              		.set	.LANCHOR3,. + 0
 765              		.type	bitbuffer, %object
 766              		.size	bitbuffer, 1492
 767              	bitbuffer:
 768 0000 00000000 		.space	1492
 768      00000000 
 768      00000000 
 768      00000000 
 768      00000000 
 769              		.section	.bss.brightness,"aw",%nobits
 770              		.align	2
 771              		.set	.LANCHOR0,. + 0
 772              		.type	brightness, %object
 773              		.size	brightness, 4
 774              	brightness:
 775 0000 00000000 		.space	4
 776              		.section	.bss.gamma_table,"aw",%nobits
 777              		.align	2
 778              		.set	.LANCHOR1,. + 0
 779              		.type	gamma_table, %object
 780              		.size	gamma_table, 256
 781              	gamma_table:
 782 0000 00000000 		.space	256
 782      00000000 
 782      00000000 
 782      00000000 
 782      00000000 
 783              		.text
 784              	.Letext0:
 785              		.file 2 "c:\\chibistudio\\tools\\gnu tools arm embedded\\6.3 2017q1\\lib\\gcc\\arm-none-eabi\\6.3.
 786              		.file 3 "c:\\chibistudio\\tools\\gnu tools arm embedded\\6.3 2017q1\\arm-none-eabi\\include\\machi
ARM GAS  C:\Users\Grillmo\AppData\Local\Temp\cc4a3lMc.s 			page 15


 787              		.file 4 "c:\\chibistudio\\tools\\gnu tools arm embedded\\6.3 2017q1\\arm-none-eabi\\include\\sys\\
 788              		.file 5 "c:\\chibistudio\\tools\\gnu tools arm embedded\\6.3 2017q1\\arm-none-eabi\\include\\sys\\
 789              		.file 6 "c:\\chibistudio\\tools\\gnu tools arm embedded\\6.3 2017q1\\arm-none-eabi\\include\\sys\\
 790              		.file 7 "c:\\chibistudio\\tools\\gnu tools arm embedded\\6.3 2017q1\\arm-none-eabi\\include\\math.
 791              		.file 8 "c:\\chibistudio\\tools\\gnu tools arm embedded\\6.3 2017q1\\arm-none-eabi\\include\\sys\\
 792              		.file 9 "ChibiOS_3.0.2/os/rt/ports/ARMCMx/compilers/GCC/chtypes.h"
 793              		.file 10 "ChibiOS_3.0.2/os/rt/include/chsystypes.h"
 794              		.file 11 "ChibiOS_3.0.2/os/rt/include/chschd.h"
 795              		.file 12 "ChibiOS_3.0.2/os/ext/CMSIS/include/core_cm4.h"
 796              		.file 13 "ChibiOS_3.0.2/os/ext/CMSIS/ST/system_stm32f4xx.h"
 797              		.file 14 "ChibiOS_3.0.2/os/ext/CMSIS/ST/stm32f407xx.h"
 798              		.file 15 "ChibiOS_3.0.2/os/rt/ports/ARMCMx/chcore.h"
 799              		.file 16 "ChibiOS_3.0.2/os/rt/ports/ARMCMx/chcore_v7m.h"
 800              		.file 17 "ChibiOS_3.0.2/os/rt/include/chtm.h"
 801              		.file 18 "ChibiOS_3.0.2/os/rt/include/chsem.h"
 802              		.file 19 "ChibiOS_3.0.2/os/rt/include/chmtx.h"
 803              		.file 20 "ChibiOS_3.0.2/os/rt/include/chregistry.h"
 804              		.file 21 "ChibiOS_3.0.2/os/rt/include/chevents.h"
 805              		.file 22 "ChibiOS_3.0.2/os/rt/include/chqueues.h"
 806              		.file 23 "conf_general.h"
 807              		.file 24 "ChibiOS_3.0.2/ext/stdperiph_stm32f4/inc/stm32f4xx_dma.h"
 808              		.file 25 "ChibiOS_3.0.2/ext/stdperiph_stm32f4/inc/stm32f4xx_tim.h"
 809              		.file 26 "ChibiOS_3.0.2/os/hal/ports/STM32/STM32F4xx/stm32_dma.h"
 810              		.file 27 "ChibiOS_3.0.2/os/hal/ports/STM32/LLD/GPIOv2/pal_lld.h"
 811              		.file 28 "ChibiOS_3.0.2/os/ext/CMSIS/ST/stm32f4xx.h"
 812              		.file 29 "ChibiOS_3.0.2/os/hal/include/can.h"
 813              		.file 30 "ChibiOS_3.0.2/os/hal/ports/STM32/LLD/can_lld.h"
 814              		.file 31 "ChibiOS_3.0.2/os/hal/include/i2c.h"
 815              		.file 32 "ChibiOS_3.0.2/os/hal/ports/STM32/LLD/I2Cv1/i2c_lld.h"
 816              		.file 33 "ChibiOS_3.0.2/os/hal/include/icu.h"
 817              		.file 34 "ChibiOS_3.0.2/os/hal/ports/STM32/LLD/TIMv1/icu_lld.h"
 818              		.file 35 "ChibiOS_3.0.2/os/hal/ports/STM32/LLD/TIMv1/stm32_tim.h"
 819              		.file 36 "ChibiOS_3.0.2/os/hal/include/spi.h"
 820              		.file 37 "ChibiOS_3.0.2/os/hal/ports/STM32/LLD/SPIv1/spi_lld.h"
 821              		.file 38 "ChibiOS_3.0.2/os/hal/include/uart.h"
 822              		.file 39 "ChibiOS_3.0.2/os/hal/ports/STM32/LLD/USARTv1/uart_lld.h"
 823              		.file 40 "ChibiOS_3.0.2/os/hal/include/usb.h"
 824              		.file 41 "ChibiOS_3.0.2/os/hal/ports/STM32/LLD/OTGv1/usb_lld.h"
 825              		.file 42 "ChibiOS_3.0.2/os/hal/ports/STM32/LLD/OTGv1/stm32_otg.h"
 826              		.file 43 "ChibiOS_3.0.2/ext/stdperiph_stm32f4/inc/stm32f4xx_rcc.h"